
/home/jjang/Desktop/sample/gcc/505/mcf_r_op2:     file format elf64-x86-64


Disassembly of section .init:

0000000000001000 <_init>:
    1000:	f3 0f 1e fa          	endbr64 
    1004:	48 83 ec 08          	sub    rsp,0x8
    1008:	48 8b 05 d9 7f 00 00 	mov    rax,QWORD PTR [rip+0x7fd9]        # 8fe8 <__gmon_start__@Base>
    100f:	48 85 c0             	test   rax,rax
    1012:	74 02                	je     1016 <_init+0x16>
    1014:	ff d0                	call   rax
    1016:	48 83 c4 08          	add    rsp,0x8
    101a:	c3                   	ret    

Disassembly of section .plt:

0000000000001020 <.plt>:
    1020:	ff 35 1a 7f 00 00    	push   QWORD PTR [rip+0x7f1a]        # 8f40 <_GLOBAL_OFFSET_TABLE_+0x8>
    1026:	f2 ff 25 1b 7f 00 00 	bnd jmp QWORD PTR [rip+0x7f1b]        # 8f48 <_GLOBAL_OFFSET_TABLE_+0x10>
    102d:	0f 1f 00             	nop    DWORD PTR [rax]
    1030:	f3 0f 1e fa          	endbr64 
    1034:	68 00 00 00 00       	push   0x0
    1039:	f2 e9 e1 ff ff ff    	bnd jmp 1020 <_init+0x20>
    103f:	90                   	nop
    1040:	f3 0f 1e fa          	endbr64 
    1044:	68 01 00 00 00       	push   0x1
    1049:	f2 e9 d1 ff ff ff    	bnd jmp 1020 <_init+0x20>
    104f:	90                   	nop
    1050:	f3 0f 1e fa          	endbr64 
    1054:	68 02 00 00 00       	push   0x2
    1059:	f2 e9 c1 ff ff ff    	bnd jmp 1020 <_init+0x20>
    105f:	90                   	nop
    1060:	f3 0f 1e fa          	endbr64 
    1064:	68 03 00 00 00       	push   0x3
    1069:	f2 e9 b1 ff ff ff    	bnd jmp 1020 <_init+0x20>
    106f:	90                   	nop
    1070:	f3 0f 1e fa          	endbr64 
    1074:	68 04 00 00 00       	push   0x4
    1079:	f2 e9 a1 ff ff ff    	bnd jmp 1020 <_init+0x20>
    107f:	90                   	nop
    1080:	f3 0f 1e fa          	endbr64 
    1084:	68 05 00 00 00       	push   0x5
    1089:	f2 e9 91 ff ff ff    	bnd jmp 1020 <_init+0x20>
    108f:	90                   	nop
    1090:	f3 0f 1e fa          	endbr64 
    1094:	68 06 00 00 00       	push   0x6
    1099:	f2 e9 81 ff ff ff    	bnd jmp 1020 <_init+0x20>
    109f:	90                   	nop
    10a0:	f3 0f 1e fa          	endbr64 
    10a4:	68 07 00 00 00       	push   0x7
    10a9:	f2 e9 71 ff ff ff    	bnd jmp 1020 <_init+0x20>
    10af:	90                   	nop
    10b0:	f3 0f 1e fa          	endbr64 
    10b4:	68 08 00 00 00       	push   0x8
    10b9:	f2 e9 61 ff ff ff    	bnd jmp 1020 <_init+0x20>
    10bf:	90                   	nop
    10c0:	f3 0f 1e fa          	endbr64 
    10c4:	68 09 00 00 00       	push   0x9
    10c9:	f2 e9 51 ff ff ff    	bnd jmp 1020 <_init+0x20>
    10cf:	90                   	nop
    10d0:	f3 0f 1e fa          	endbr64 
    10d4:	68 0a 00 00 00       	push   0xa
    10d9:	f2 e9 41 ff ff ff    	bnd jmp 1020 <_init+0x20>
    10df:	90                   	nop
    10e0:	f3 0f 1e fa          	endbr64 
    10e4:	68 0b 00 00 00       	push   0xb
    10e9:	f2 e9 31 ff ff ff    	bnd jmp 1020 <_init+0x20>
    10ef:	90                   	nop
    10f0:	f3 0f 1e fa          	endbr64 
    10f4:	68 0c 00 00 00       	push   0xc
    10f9:	f2 e9 21 ff ff ff    	bnd jmp 1020 <_init+0x20>
    10ff:	90                   	nop
    1100:	f3 0f 1e fa          	endbr64 
    1104:	68 0d 00 00 00       	push   0xd
    1109:	f2 e9 11 ff ff ff    	bnd jmp 1020 <_init+0x20>
    110f:	90                   	nop
    1110:	f3 0f 1e fa          	endbr64 
    1114:	68 0e 00 00 00       	push   0xe
    1119:	f2 e9 01 ff ff ff    	bnd jmp 1020 <_init+0x20>
    111f:	90                   	nop
    1120:	f3 0f 1e fa          	endbr64 
    1124:	68 0f 00 00 00       	push   0xf
    1129:	f2 e9 f1 fe ff ff    	bnd jmp 1020 <_init+0x20>
    112f:	90                   	nop
    1130:	f3 0f 1e fa          	endbr64 
    1134:	68 10 00 00 00       	push   0x10
    1139:	f2 e9 e1 fe ff ff    	bnd jmp 1020 <_init+0x20>
    113f:	90                   	nop

Disassembly of section .plt.got:

0000000000001140 <__cxa_finalize@plt>:
    1140:	f3 0f 1e fa          	endbr64 
    1144:	f2 ff 25 ad 7e 00 00 	bnd jmp QWORD PTR [rip+0x7ead]        # 8ff8 <__cxa_finalize@GLIBC_2.2.5>
    114b:	0f 1f 44 00 00       	nop    DWORD PTR [rax+rax*1+0x0]

Disassembly of section .plt.sec:

0000000000001150 <free@plt>:
    1150:	f3 0f 1e fa          	endbr64 
    1154:	f2 ff 25 f5 7d 00 00 	bnd jmp QWORD PTR [rip+0x7df5]        # 8f50 <free@GLIBC_2.2.5>
    115b:	0f 1f 44 00 00       	nop    DWORD PTR [rax+rax*1+0x0]

0000000000001160 <fclose@plt>:
    1160:	f3 0f 1e fa          	endbr64 
    1164:	f2 ff 25 ed 7d 00 00 	bnd jmp QWORD PTR [rip+0x7ded]        # 8f58 <fclose@GLIBC_2.2.5>
    116b:	0f 1f 44 00 00       	nop    DWORD PTR [rax+rax*1+0x0]

0000000000001170 <__stack_chk_fail@plt>:
    1170:	f3 0f 1e fa          	endbr64 
    1174:	f2 ff 25 e5 7d 00 00 	bnd jmp QWORD PTR [rip+0x7de5]        # 8f60 <__stack_chk_fail@GLIBC_2.4>
    117b:	0f 1f 44 00 00       	nop    DWORD PTR [rax+rax*1+0x0]

0000000000001180 <memset@plt>:
    1180:	f3 0f 1e fa          	endbr64 
    1184:	f2 ff 25 dd 7d 00 00 	bnd jmp QWORD PTR [rip+0x7ddd]        # 8f68 <memset@GLIBC_2.2.5>
    118b:	0f 1f 44 00 00       	nop    DWORD PTR [rax+rax*1+0x0]

0000000000001190 <fgets@plt>:
    1190:	f3 0f 1e fa          	endbr64 
    1194:	f2 ff 25 d5 7d 00 00 	bnd jmp QWORD PTR [rip+0x7dd5]        # 8f70 <fgets@GLIBC_2.2.5>
    119b:	0f 1f 44 00 00       	nop    DWORD PTR [rax+rax*1+0x0]

00000000000011a0 <calloc@plt>:
    11a0:	f3 0f 1e fa          	endbr64 
    11a4:	f2 ff 25 cd 7d 00 00 	bnd jmp QWORD PTR [rip+0x7dcd]        # 8f78 <calloc@GLIBC_2.2.5>
    11ab:	0f 1f 44 00 00       	nop    DWORD PTR [rax+rax*1+0x0]

00000000000011b0 <strtol@plt>:
    11b0:	f3 0f 1e fa          	endbr64 
    11b4:	f2 ff 25 c5 7d 00 00 	bnd jmp QWORD PTR [rip+0x7dc5]        # 8f80 <strtol@GLIBC_2.2.5>
    11bb:	0f 1f 44 00 00       	nop    DWORD PTR [rax+rax*1+0x0]

00000000000011c0 <malloc@plt>:
    11c0:	f3 0f 1e fa          	endbr64 
    11c4:	f2 ff 25 bd 7d 00 00 	bnd jmp QWORD PTR [rip+0x7dbd]        # 8f88 <malloc@GLIBC_2.2.5>
    11cb:	0f 1f 44 00 00       	nop    DWORD PTR [rax+rax*1+0x0]

00000000000011d0 <fflush@plt>:
    11d0:	f3 0f 1e fa          	endbr64 
    11d4:	f2 ff 25 b5 7d 00 00 	bnd jmp QWORD PTR [rip+0x7db5]        # 8f90 <fflush@GLIBC_2.2.5>
    11db:	0f 1f 44 00 00       	nop    DWORD PTR [rax+rax*1+0x0]

00000000000011e0 <__isoc99_sscanf@plt>:
    11e0:	f3 0f 1e fa          	endbr64 
    11e4:	f2 ff 25 ad 7d 00 00 	bnd jmp QWORD PTR [rip+0x7dad]        # 8f98 <__isoc99_sscanf@GLIBC_2.7>
    11eb:	0f 1f 44 00 00       	nop    DWORD PTR [rax+rax*1+0x0]

00000000000011f0 <realloc@plt>:
    11f0:	f3 0f 1e fa          	endbr64 
    11f4:	f2 ff 25 a5 7d 00 00 	bnd jmp QWORD PTR [rip+0x7da5]        # 8fa0 <realloc@GLIBC_2.2.5>
    11fb:	0f 1f 44 00 00       	nop    DWORD PTR [rax+rax*1+0x0]

0000000000001200 <__strcpy_chk@plt>:
    1200:	f3 0f 1e fa          	endbr64 
    1204:	f2 ff 25 9d 7d 00 00 	bnd jmp QWORD PTR [rip+0x7d9d]        # 8fa8 <__strcpy_chk@GLIBC_2.3.4>
    120b:	0f 1f 44 00 00       	nop    DWORD PTR [rax+rax*1+0x0]

0000000000001210 <__printf_chk@plt>:
    1210:	f3 0f 1e fa          	endbr64 
    1214:	f2 ff 25 95 7d 00 00 	bnd jmp QWORD PTR [rip+0x7d95]        # 8fb0 <__printf_chk@GLIBC_2.3.4>
    121b:	0f 1f 44 00 00       	nop    DWORD PTR [rax+rax*1+0x0]

0000000000001220 <fopen@plt>:
    1220:	f3 0f 1e fa          	endbr64 
    1224:	f2 ff 25 8d 7d 00 00 	bnd jmp QWORD PTR [rip+0x7d8d]        # 8fb8 <fopen@GLIBC_2.2.5>
    122b:	0f 1f 44 00 00       	nop    DWORD PTR [rax+rax*1+0x0]

0000000000001230 <exit@plt>:
    1230:	f3 0f 1e fa          	endbr64 
    1234:	f2 ff 25 85 7d 00 00 	bnd jmp QWORD PTR [rip+0x7d85]        # 8fc0 <exit@GLIBC_2.2.5>
    123b:	0f 1f 44 00 00       	nop    DWORD PTR [rax+rax*1+0x0]

0000000000001240 <__fprintf_chk@plt>:
    1240:	f3 0f 1e fa          	endbr64 
    1244:	f2 ff 25 7d 7d 00 00 	bnd jmp QWORD PTR [rip+0x7d7d]        # 8fc8 <__fprintf_chk@GLIBC_2.3.4>
    124b:	0f 1f 44 00 00       	nop    DWORD PTR [rax+rax*1+0x0]

0000000000001250 <__sprintf_chk@plt>:
    1250:	f3 0f 1e fa          	endbr64 
    1254:	f2 ff 25 75 7d 00 00 	bnd jmp QWORD PTR [rip+0x7d75]        # 8fd0 <__sprintf_chk@GLIBC_2.3.4>
    125b:	0f 1f 44 00 00       	nop    DWORD PTR [rax+rax*1+0x0]

Disassembly of section .text:

0000000000001260 <marc_arcs.cold>:
    1260:	c7 04 25 00 00 00 00 	mov    DWORD PTR ds:0x0,0x0
    1267:	00 00 00 00 
    126b:	0f 0b                	ud2    

000000000000126d <price_out_impl.cold>:
    126d:	49 c7 06 00 00 00 00 	mov    QWORD PTR [r14],0x0
    1274:	48 8b 04 25 08 00 00 	mov    rax,QWORD PTR ds:0x8
    127b:	00 
    127c:	0f 0b                	ud2    
    127e:	66 90                	xchg   ax,ax

0000000000001280 <main>:
    1280:	f3 0f 1e fa          	endbr64 
    1284:	55                   	push   rbp
    1285:	53                   	push   rbx
    1286:	48 83 ec 68          	sub    rsp,0x68
    128a:	64 48 8b 04 25 28 00 	mov    rax,QWORD PTR fs:0x28
    1291:	00 00 
    1293:	48 89 44 24 58       	mov    QWORD PTR [rsp+0x58],rax
    1298:	31 c0                	xor    eax,eax
    129a:	83 ff 01             	cmp    edi,0x1
    129d:	0f 8e 82 01 00 00    	jle    1425 <main+0x1a5>
    12a3:	89 fb                	mov    ebx,edi
    12a5:	48 89 f5             	mov    rbp,rsi
    12a8:	bf 01 00 00 00       	mov    edi,0x1
    12ad:	48 8d 35 5b 4f 00 00 	lea    rsi,[rip+0x4f5b]        # 620f <_IO_stdin_used+0x20f>
    12b4:	e8 57 ff ff ff       	call   1210 <__printf_chk@plt>
    12b9:	48 8d 35 38 4e 00 00 	lea    rsi,[rip+0x4e38]        # 60f8 <_IO_stdin_used+0xf8>
    12c0:	bf 01 00 00 00       	mov    edi,0x1
    12c5:	31 c0                	xor    eax,eax
    12c7:	e8 44 ff ff ff       	call   1210 <__printf_chk@plt>
    12cc:	48 8d 35 5d 4e 00 00 	lea    rsi,[rip+0x4e5d]        # 6130 <_IO_stdin_used+0x130>
    12d3:	bf 01 00 00 00       	mov    edi,0x1
    12d8:	31 c0                	xor    eax,eax
    12da:	e8 31 ff ff ff       	call   1210 <__printf_chk@plt>
    12df:	48 8d 35 7a 4e 00 00 	lea    rsi,[rip+0x4e7a]        # 6160 <_IO_stdin_used+0x160>
    12e6:	bf 01 00 00 00       	mov    edi,0x1
    12eb:	31 c0                	xor    eax,eax
    12ed:	e8 1e ff ff ff       	call   1210 <__printf_chk@plt>
    12f2:	48 8d 35 8f 4e 00 00 	lea    rsi,[rip+0x4e8f]        # 6188 <_IO_stdin_used+0x188>
    12f9:	bf 01 00 00 00       	mov    edi,0x1
    12fe:	31 c0                	xor    eax,eax
    1300:	e8 0b ff ff ff       	call   1210 <__printf_chk@plt>
    1305:	48 8d 35 4f 50 00 00 	lea    rsi,[rip+0x504f]        # 635b <_IO_stdin_used+0x35b>
    130c:	bf 01 00 00 00       	mov    edi,0x1
    1311:	31 c0                	xor    eax,eax
    1313:	e8 f8 fe ff ff       	call   1210 <__printf_chk@plt>
    1318:	31 f6                	xor    esi,esi
    131a:	ba 88 02 00 00       	mov    edx,0x288
    131f:	48 8d 3d 5a 7d 00 00 	lea    rdi,[rip+0x7d5a]        # 9080 <net>
    1326:	e8 55 fe ff ff       	call   1180 <memset@plt>
    132b:	48 c7 05 5a 7f 00 00 	mov    QWORD PTR [rip+0x7f5a],0x989680        # 9290 <net+0x210>
    1332:	80 96 98 00 
    1336:	ba c8 00 00 00       	mov    edx,0xc8
    133b:	48 8d 3d 3e 7d 00 00 	lea    rdi,[rip+0x7d3e]        # 9080 <net>
    1342:	48 8b 75 08          	mov    rsi,QWORD PTR [rbp+0x8]
    1346:	e8 b5 fe ff ff       	call   1200 <__strcpy_chk@plt>
    134b:	83 fb 03             	cmp    ebx,0x3
    134e:	0f 84 9e 00 00 00    	je     13f2 <main+0x172>
    1354:	48 b8 6d 63 66 2e 6f 	movabs rax,0x74756f2e66636d
    135b:	75 74 00 
    135e:	48 89 04 24          	mov    QWORD PTR [rsp],rax
    1362:	48 8d 3d 17 7d 00 00 	lea    rdi,[rip+0x7d17]        # 9080 <net>
    1369:	e8 32 0a 00 00       	call   1da0 <read_min>
    136e:	48 85 c0             	test   rax,rax
    1371:	0f 85 b3 00 00 00    	jne    142a <main+0x1aa>
    1377:	48 8b 15 9a 7e 00 00 	mov    rdx,QWORD PTR [rip+0x7e9a]        # 9218 <net+0x198>
    137e:	48 8d 35 4b 4e 00 00 	lea    rsi,[rip+0x4e4b]        # 61d0 <_IO_stdin_used+0x1d0>
    1385:	bf 01 00 00 00       	mov    edi,0x1
    138a:	31 c0                	xor    eax,eax
    138c:	e8 7f fe ff ff       	call   1210 <__printf_chk@plt>
    1391:	48 8d 3d e8 7c 00 00 	lea    rdi,[rip+0x7ce8]        # 9080 <net>
    1398:	e8 73 23 00 00       	call   3710 <primal_start_artificial>
    139d:	e8 ae 01 00 00       	call   1550 <global_opt>
    13a2:	48 89 e7             	mov    rdi,rsp
    13a5:	48 8d 35 d4 7c 00 00 	lea    rsi,[rip+0x7cd4]        # 9080 <net>
    13ac:	e8 0f 26 00 00       	call   39c0 <write_objective_value>
    13b1:	48 8d 3d c8 7c 00 00 	lea    rdi,[rip+0x7cc8]        # 9080 <net>
    13b8:	48 85 c0             	test   rax,rax
    13bb:	0f 85 8d 00 00 00    	jne    144e <main+0x1ce>
    13c1:	e8 3a 09 00 00       	call   1d00 <getfree>
    13c6:	48 8d 35 7b 4e 00 00 	lea    rsi,[rip+0x4e7b]        # 6248 <_IO_stdin_used+0x248>
    13cd:	bf 01 00 00 00       	mov    edi,0x1
    13d2:	31 c0                	xor    eax,eax
    13d4:	e8 37 fe ff ff       	call   1210 <__printf_chk@plt>
    13d9:	31 c0                	xor    eax,eax
    13db:	48 8b 4c 24 58       	mov    rcx,QWORD PTR [rsp+0x58]
    13e0:	64 48 33 0c 25 28 00 	xor    rcx,QWORD PTR fs:0x28
    13e7:	00 00 
    13e9:	75 6d                	jne    1458 <main+0x1d8>
    13eb:	48 83 c4 68          	add    rsp,0x68
    13ef:	5b                   	pop    rbx
    13f0:	5d                   	pop    rbp
    13f1:	c3                   	ret    
    13f2:	48 8b 7d 10          	mov    rdi,QWORD PTR [rbp+0x10]
    13f6:	31 f6                	xor    esi,esi
    13f8:	ba 0a 00 00 00       	mov    edx,0xa
    13fd:	e8 ae fd ff ff       	call   11b0 <strtol@plt>
    1402:	41 89 c0             	mov    r8d,eax
    1405:	48 89 e7             	mov    rdi,rsp
    1408:	48 8d 0d 1c 4e 00 00 	lea    rcx,[rip+0x4e1c]        # 622b <_IO_stdin_used+0x22b>
    140f:	ba 50 00 00 00       	mov    edx,0x50
    1414:	be 01 00 00 00       	mov    esi,0x1
    1419:	31 c0                	xor    eax,eax
    141b:	e8 30 fe ff ff       	call   1250 <__sprintf_chk@plt>
    1420:	e9 3d ff ff ff       	jmp    1362 <main+0xe2>
    1425:	83 c8 ff             	or     eax,0xffffffff
    1428:	eb b1                	jmp    13db <main+0x15b>
    142a:	48 8d 35 05 4e 00 00 	lea    rsi,[rip+0x4e05]        # 6236 <_IO_stdin_used+0x236>
    1431:	bf 01 00 00 00       	mov    edi,0x1
    1436:	31 c0                	xor    eax,eax
    1438:	e8 d3 fd ff ff       	call   1210 <__printf_chk@plt>
    143d:	48 8d 3d 3c 7c 00 00 	lea    rdi,[rip+0x7c3c]        # 9080 <net>
    1444:	e8 b7 08 00 00       	call   1d00 <getfree>
    1449:	83 c8 ff             	or     eax,0xffffffff
    144c:	eb 8d                	jmp    13db <main+0x15b>
    144e:	e8 ad 08 00 00       	call   1d00 <getfree>
    1453:	83 c8 ff             	or     eax,0xffffffff
    1456:	eb 83                	jmp    13db <main+0x15b>
    1458:	e8 13 fd ff ff       	call   1170 <__stack_chk_fail@plt>
    145d:	0f 1f 00             	nop    DWORD PTR [rax]

0000000000001460 <_start>:
    1460:	f3 0f 1e fa          	endbr64 
    1464:	31 ed                	xor    ebp,ebp
    1466:	49 89 d1             	mov    r9,rdx
    1469:	5e                   	pop    rsi
    146a:	48 89 e2             	mov    rdx,rsp
    146d:	48 83 e4 f0          	and    rsp,0xfffffffffffffff0
    1471:	50                   	push   rax
    1472:	54                   	push   rsp
    1473:	4c 8d 05 86 40 00 00 	lea    r8,[rip+0x4086]        # 5500 <__libc_csu_fini>
    147a:	48 8d 0d 0f 40 00 00 	lea    rcx,[rip+0x400f]        # 5490 <__libc_csu_init>
    1481:	48 8d 3d f8 fd ff ff 	lea    rdi,[rip+0xfffffffffffffdf8]        # 1280 <main>
    1488:	ff 15 52 7b 00 00    	call   QWORD PTR [rip+0x7b52]        # 8fe0 <__libc_start_main@GLIBC_2.2.5>
    148e:	f4                   	hlt    
    148f:	90                   	nop

0000000000001490 <deregister_tm_clones>:
    1490:	48 8d 3d 79 7b 00 00 	lea    rdi,[rip+0x7b79]        # 9010 <__TMC_END__>
    1497:	48 8d 05 72 7b 00 00 	lea    rax,[rip+0x7b72]        # 9010 <__TMC_END__>
    149e:	48 39 f8             	cmp    rax,rdi
    14a1:	74 15                	je     14b8 <deregister_tm_clones+0x28>
    14a3:	48 8b 05 2e 7b 00 00 	mov    rax,QWORD PTR [rip+0x7b2e]        # 8fd8 <_ITM_deregisterTMCloneTable@Base>
    14aa:	48 85 c0             	test   rax,rax
    14ad:	74 09                	je     14b8 <deregister_tm_clones+0x28>
    14af:	ff e0                	jmp    rax
    14b1:	0f 1f 80 00 00 00 00 	nop    DWORD PTR [rax+0x0]
    14b8:	c3                   	ret    
    14b9:	0f 1f 80 00 00 00 00 	nop    DWORD PTR [rax+0x0]

00000000000014c0 <register_tm_clones>:
    14c0:	48 8d 3d 49 7b 00 00 	lea    rdi,[rip+0x7b49]        # 9010 <__TMC_END__>
    14c7:	48 8d 35 42 7b 00 00 	lea    rsi,[rip+0x7b42]        # 9010 <__TMC_END__>
    14ce:	48 29 fe             	sub    rsi,rdi
    14d1:	48 89 f0             	mov    rax,rsi
    14d4:	48 c1 ee 3f          	shr    rsi,0x3f
    14d8:	48 c1 f8 03          	sar    rax,0x3
    14dc:	48 01 c6             	add    rsi,rax
    14df:	48 d1 fe             	sar    rsi,1
    14e2:	74 14                	je     14f8 <register_tm_clones+0x38>
    14e4:	48 8b 05 05 7b 00 00 	mov    rax,QWORD PTR [rip+0x7b05]        # 8ff0 <_ITM_registerTMCloneTable@Base>
    14eb:	48 85 c0             	test   rax,rax
    14ee:	74 08                	je     14f8 <register_tm_clones+0x38>
    14f0:	ff e0                	jmp    rax
    14f2:	66 0f 1f 44 00 00    	nop    WORD PTR [rax+rax*1+0x0]
    14f8:	c3                   	ret    
    14f9:	0f 1f 80 00 00 00 00 	nop    DWORD PTR [rax+0x0]

0000000000001500 <__do_global_dtors_aux>:
    1500:	f3 0f 1e fa          	endbr64 
    1504:	80 3d 3d 7b 00 00 00 	cmp    BYTE PTR [rip+0x7b3d],0x0        # 9048 <completed.8060>
    150b:	75 2b                	jne    1538 <__do_global_dtors_aux+0x38>
    150d:	55                   	push   rbp
    150e:	48 83 3d e2 7a 00 00 	cmp    QWORD PTR [rip+0x7ae2],0x0        # 8ff8 <__cxa_finalize@GLIBC_2.2.5>
    1515:	00 
    1516:	48 89 e5             	mov    rbp,rsp
    1519:	74 0c                	je     1527 <__do_global_dtors_aux+0x27>
    151b:	48 8b 3d e6 7a 00 00 	mov    rdi,QWORD PTR [rip+0x7ae6]        # 9008 <__dso_handle>
    1522:	e8 19 fc ff ff       	call   1140 <__cxa_finalize@plt>
    1527:	e8 64 ff ff ff       	call   1490 <deregister_tm_clones>
    152c:	c6 05 15 7b 00 00 01 	mov    BYTE PTR [rip+0x7b15],0x1        # 9048 <completed.8060>
    1533:	5d                   	pop    rbp
    1534:	c3                   	ret    
    1535:	0f 1f 00             	nop    DWORD PTR [rax]
    1538:	c3                   	ret    
    1539:	0f 1f 80 00 00 00 00 	nop    DWORD PTR [rax+0x0]

0000000000001540 <frame_dummy>:
    1540:	f3 0f 1e fa          	endbr64 
    1544:	e9 77 ff ff ff       	jmp    14c0 <register_tm_clones>
    1549:	0f 1f 80 00 00 00 00 	nop    DWORD PTR [rax+0x0]

0000000000001550 <global_opt>:
    1550:	f3 0f 1e fa          	endbr64 
    1554:	55                   	push   rbp
    1555:	48 8d 2d 24 7b 00 00 	lea    rbp,[rip+0x7b24]        # 9080 <net>
    155c:	53                   	push   rbx
    155d:	48 83 ec 08          	sub    rsp,0x8
    1561:	0f 1f 80 00 00 00 00 	nop    DWORD PTR [rax+0x0]
    1568:	48 8b 15 b9 7c 00 00 	mov    rdx,QWORD PTR [rip+0x7cb9]        # 9228 <net+0x1a8>
    156f:	48 8d 35 92 4a 00 00 	lea    rsi,[rip+0x4a92]        # 6008 <_IO_stdin_used+0x8>
    1576:	bf 01 00 00 00       	mov    edi,0x1
    157b:	31 c0                	xor    eax,eax
    157d:	e8 8e fc ff ff       	call   1210 <__printf_chk@plt>
    1582:	48 89 ef             	mov    rdi,rbp
    1585:	e8 f6 2e 00 00       	call   4480 <primal_net_simplex>
    158a:	48 8b 15 4f 7d 00 00 	mov    rdx,QWORD PTR [rip+0x7d4f]        # 92e0 <net+0x260>
    1591:	48 8d 35 98 4a 00 00 	lea    rsi,[rip+0x4a98]        # 6030 <_IO_stdin_used+0x30>
    1598:	bf 01 00 00 00       	mov    edi,0x1
    159d:	31 c0                	xor    eax,eax
    159f:	e8 6c fc ff ff       	call   1210 <__printf_chk@plt>
    15a4:	48 89 ef             	mov    rdi,rbp
    15a7:	e8 c4 01 00 00       	call   1770 <flow_cost>
    15ac:	48 8d 35 a5 4a 00 00 	lea    rsi,[rip+0x4aa5]        # 6058 <_IO_stdin_used+0x58>
    15b3:	bf 01 00 00 00       	mov    edi,0x1
    15b8:	b8 01 00 00 00       	mov    eax,0x1
    15bd:	e8 4e fc ff ff       	call   1210 <__printf_chk@plt>
    15c2:	48 83 3d 6e 7c 00 00 	cmp    QWORD PTR [rip+0x7c6e],0x0        # 9238 <net+0x1b8>
    15c9:	00 
    15ca:	74 64                	je     1630 <global_opt+0xe0>
    15cc:	31 d2                	xor    edx,edx
    15ce:	48 c7 c6 ff ff ff ff 	mov    rsi,0xffffffffffffffff
    15d5:	48 89 ef             	mov    rdi,rbp
    15d8:	e8 c3 1e 00 00       	call   34a0 <suspend_impl>
    15dd:	48 85 c0             	test   rax,rax
    15e0:	0f 88 8f 00 00 00    	js     1675 <global_opt+0x125>
    15e6:	0f 85 ac 00 00 00    	jne    1698 <global_opt+0x148>
    15ec:	48 89 ef             	mov    rdi,rbp
    15ef:	e8 6c 16 00 00       	call   2c60 <price_out_impl>
    15f4:	48 89 c3             	mov    rbx,rax
    15f7:	48 85 c0             	test   rax,rax
    15fa:	75 5a                	jne    1656 <global_opt+0x106>
    15fc:	48 8d 3d 7d 7a 00 00 	lea    rdi,[rip+0x7a7d]        # 9080 <net>
    1603:	e8 68 01 00 00       	call   1770 <flow_cost>
    1608:	48 8d 35 c1 4a 00 00 	lea    rsi,[rip+0x4ac1]        # 60d0 <_IO_stdin_used+0xd0>
    160f:	bf 01 00 00 00       	mov    edi,0x1
    1614:	b8 01 00 00 00       	mov    eax,0x1
    1619:	c5 fb 11 05 77 7c 00 	vmovsd QWORD PTR [rip+0x7c77],xmm0        # 9298 <net+0x218>
    1620:	00 
    1621:	e8 ea fb ff ff       	call   1210 <__printf_chk@plt>
    1626:	48 83 c4 08          	add    rsp,0x8
    162a:	5b                   	pop    rbx
    162b:	31 c0                	xor    eax,eax
    162d:	5d                   	pop    rbp
    162e:	c3                   	ret    
    162f:	90                   	nop
    1630:	48 8b 15 f1 7b 00 00 	mov    rdx,QWORD PTR [rip+0x7bf1]        # 9228 <net+0x1a8>
    1637:	48 8d 35 f2 02 00 00 	lea    rsi,[rip+0x2f2]        # 1930 <getOriginalArcPosition>
    163e:	48 89 ef             	mov    rdi,rbp
    1641:	e8 6a 0f 00 00       	call   25b0 <refreshPositions>
    1646:	48 89 ef             	mov    rdi,rbp
    1649:	e8 12 16 00 00       	call   2c60 <price_out_impl>
    164e:	48 89 c3             	mov    rbx,rax
    1651:	48 85 c0             	test   rax,rax
    1654:	74 a6                	je     15fc <global_opt+0xac>
    1656:	48 89 c2             	mov    rdx,rax
    1659:	48 8d 35 48 4a 00 00 	lea    rsi,[rip+0x4a48]        # 60a8 <_IO_stdin_used+0xa8>
    1660:	31 c0                	xor    eax,eax
    1662:	bf 01 00 00 00       	mov    edi,0x1
    1667:	e8 a4 fb ff ff       	call   1210 <__printf_chk@plt>
    166c:	48 85 db             	test   rbx,rbx
    166f:	0f 89 f3 fe ff ff    	jns    1568 <global_opt+0x18>
    1675:	bf 01 00 00 00       	mov    edi,0x1
    167a:	48 8d 35 71 4b 00 00 	lea    rsi,[rip+0x4b71]        # 61f2 <_IO_stdin_used+0x1f2>
    1681:	31 c0                	xor    eax,eax
    1683:	e8 88 fb ff ff       	call   1210 <__printf_chk@plt>
    1688:	bf ff ff ff ff       	mov    edi,0xffffffff
    168d:	e8 9e fb ff ff       	call   1230 <exit@plt>
    1692:	66 0f 1f 44 00 00    	nop    WORD PTR [rax+rax*1+0x0]
    1698:	48 89 c2             	mov    rdx,rax
    169b:	48 8d 35 de 49 00 00 	lea    rsi,[rip+0x49de]        # 6080 <_IO_stdin_used+0x80>
    16a2:	bf 01 00 00 00       	mov    edi,0x1
    16a7:	31 c0                	xor    eax,eax
    16a9:	e8 62 fb ff ff       	call   1210 <__printf_chk@plt>
    16ae:	e9 39 ff ff ff       	jmp    15ec <global_opt+0x9c>
    16b3:	66 2e 0f 1f 84 00 00 	cs nop WORD PTR [rax+rax*1+0x0]
    16ba:	00 00 00 
    16bd:	0f 1f 00             	nop    DWORD PTR [rax]

00000000000016c0 <refresh_neighbour_lists>:
    16c0:	f3 0f 1e fa          	endbr64 
    16c4:	41 55                	push   r13
    16c6:	41 54                	push   r12
    16c8:	49 89 f4             	mov    r12,rsi
    16cb:	55                   	push   rbp
    16cc:	48 89 fd             	mov    rbp,rdi
    16cf:	53                   	push   rbx
    16d0:	48 83 ec 08          	sub    rsp,0x8
    16d4:	48 8b 87 28 02 00 00 	mov    rax,QWORD PTR [rdi+0x228]
    16db:	48 8b 97 30 02 00 00 	mov    rdx,QWORD PTR [rdi+0x230]
    16e2:	48 39 d0             	cmp    rax,rdx
    16e5:	73 22                	jae    1709 <refresh_neighbour_lists+0x49>
    16e7:	66 0f 1f 84 00 00 00 	nop    WORD PTR [rax+rax*1+0x0]
    16ee:	00 00 
    16f0:	48 c7 40 40 00 00 00 	mov    QWORD PTR [rax+0x40],0x0
    16f7:	00 
    16f8:	48 c7 40 38 00 00 00 	mov    QWORD PTR [rax+0x38],0x0
    16ff:	00 
    1700:	48 83 c0 68          	add    rax,0x68
    1704:	48 39 c2             	cmp    rdx,rax
    1707:	77 e7                	ja     16f0 <refresh_neighbour_lists+0x30>
    1709:	48 83 bd a8 01 00 00 	cmp    QWORD PTR [rbp+0x1a8],0x0
    1710:	00 
    1711:	48 8b 85 38 02 00 00 	mov    rax,QWORD PTR [rbp+0x238]
    1718:	7e 4b                	jle    1765 <refresh_neighbour_lists+0xa5>
    171a:	31 db                	xor    ebx,ebx
    171c:	0f 1f 40 00          	nop    DWORD PTR [rax+0x0]
    1720:	48 8b 50 10          	mov    rdx,QWORD PTR [rax+0x10]
    1724:	48 ff c3             	inc    rbx
    1727:	48 8b 4a 38          	mov    rcx,QWORD PTR [rdx+0x38]
    172b:	48 89 de             	mov    rsi,rbx
    172e:	48 89 48 28          	mov    QWORD PTR [rax+0x28],rcx
    1732:	48 89 42 38          	mov    QWORD PTR [rdx+0x38],rax
    1736:	48 89 ef             	mov    rdi,rbp
    1739:	48 8b 50 18          	mov    rdx,QWORD PTR [rax+0x18]
    173d:	48 8b 4a 40          	mov    rcx,QWORD PTR [rdx+0x40]
    1741:	48 89 48 30          	mov    QWORD PTR [rax+0x30],rcx
    1745:	48 89 42 40          	mov    QWORD PTR [rdx+0x40],rax
    1749:	4c 8b ad 38 02 00 00 	mov    r13,QWORD PTR [rbp+0x238]
    1750:	41 ff d4             	call   r12
    1753:	48 8d 04 c0          	lea    rax,[rax+rax*8]
    1757:	49 8d 44 c5 00       	lea    rax,[r13+rax*8+0x0]
    175c:	48 39 9d a8 01 00 00 	cmp    QWORD PTR [rbp+0x1a8],rbx
    1763:	7f bb                	jg     1720 <refresh_neighbour_lists+0x60>
    1765:	48 83 c4 08          	add    rsp,0x8
    1769:	5b                   	pop    rbx
    176a:	5d                   	pop    rbp
    176b:	41 5c                	pop    r12
    176d:	41 5d                	pop    r13
    176f:	c3                   	ret    

0000000000001770 <flow_cost>:
    1770:	f3 0f 1e fa          	endbr64 
    1774:	48 8b 87 38 02 00 00 	mov    rax,QWORD PTR [rdi+0x238]
    177b:	31 d2                	xor    edx,edx
    177d:	48 83 c0 20          	add    rax,0x20
    1781:	48 83 bf a8 01 00 00 	cmp    QWORD PTR [rdi+0x1a8],0x0
    1788:	00 
    1789:	c5 f0 57 c9          	vxorps xmm1,xmm1,xmm1
    178d:	0f 8e fd 00 00 00    	jle    1890 <flow_cost+0x120>
    1793:	0f 1f 44 00 00       	nop    DWORD PTR [rax+rax*1+0x0]
    1798:	31 c9                	xor    ecx,ecx
    179a:	66 83 38 02          	cmp    WORD PTR [rax],0x2
    179e:	0f 94 c1             	sete   cl
    17a1:	48 89 48 18          	mov    QWORD PTR [rax+0x18],rcx
    17a5:	48 ff c2             	inc    rdx
    17a8:	48 83 c0 48          	add    rax,0x48
    17ac:	48 39 97 a8 01 00 00 	cmp    QWORD PTR [rdi+0x1a8],rdx
    17b3:	7f e3                	jg     1798 <flow_cost+0x28>
    17b5:	48 83 bf 90 01 00 00 	cmp    QWORD PTR [rdi+0x190],0x0
    17bc:	00 
    17bd:	48 8b 87 28 02 00 00 	mov    rax,QWORD PTR [rdi+0x228]
    17c4:	7e 2d                	jle    17f3 <flow_cost+0x83>
    17c6:	48 05 98 00 00 00    	add    rax,0x98
    17cc:	ba 01 00 00 00       	mov    edx,0x1
    17d1:	0f 1f 80 00 00 00 00 	nop    DWORD PTR [rax+0x0]
    17d8:	48 8b 08             	mov    rcx,QWORD PTR [rax]
    17db:	48 8b 70 20          	mov    rsi,QWORD PTR [rax+0x20]
    17df:	48 ff c2             	inc    rdx
    17e2:	48 89 71 38          	mov    QWORD PTR [rcx+0x38],rsi
    17e6:	48 83 c0 68          	add    rax,0x68
    17ea:	48 39 97 90 01 00 00 	cmp    QWORD PTR [rdi+0x190],rdx
    17f1:	7d e5                	jge    17d8 <flow_cost+0x68>
    17f3:	48 8b 97 a8 01 00 00 	mov    rdx,QWORD PTR [rdi+0x1a8]
    17fa:	48 8b 87 38 02 00 00 	mov    rax,QWORD PTR [rdi+0x238]
    1801:	4c 8b 87 10 02 00 00 	mov    r8,QWORD PTR [rdi+0x210]
    1808:	48 85 d2             	test   rdx,rdx
    180b:	0f 8e 9b 00 00 00    	jle    18ac <flow_cost+0x13c>
    1811:	48 8d 14 d2          	lea    rdx,[rdx+rdx*8]
    1815:	48 83 c0 08          	add    rax,0x8
    1819:	48 8d 34 d0          	lea    rsi,[rax+rdx*8]
    181d:	31 ff                	xor    edi,edi
    181f:	31 d2                	xor    edx,edx
    1821:	eb 1c                	jmp    183f <flow_cost+0xcf>
    1823:	0f 1f 44 00 00       	nop    DWORD PTR [rax+rax*1+0x0]
    1828:	48 8b 08             	mov    rcx,QWORD PTR [rax]
    182b:	75 34                	jne    1861 <flow_cost+0xf1>
    182d:	4c 29 c1             	sub    rcx,r8
    1830:	48 01 ca             	add    rdx,rcx
    1833:	48 ff c7             	inc    rdi
    1836:	48 83 c0 48          	add    rax,0x48
    183a:	48 39 f0             	cmp    rax,rsi
    183d:	74 2e                	je     186d <flow_cost+0xfd>
    183f:	48 83 78 30 00       	cmp    QWORD PTR [rax+0x30],0x0
    1844:	74 f0                	je     1836 <flow_cost+0xc6>
    1846:	48 8b 48 08          	mov    rcx,QWORD PTR [rax+0x8]
    184a:	44 8b 49 60          	mov    r9d,DWORD PTR [rcx+0x60]
    184e:	45 85 c9             	test   r9d,r9d
    1851:	79 d5                	jns    1828 <flow_cost+0xb8>
    1853:	48 8b 48 10          	mov    rcx,QWORD PTR [rax+0x10]
    1857:	8b 49 60             	mov    ecx,DWORD PTR [rcx+0x60]
    185a:	85 c9                	test   ecx,ecx
    185c:	7f d8                	jg     1836 <flow_cost+0xc6>
    185e:	48 8b 08             	mov    rcx,QWORD PTR [rax]
    1861:	48 83 c0 48          	add    rax,0x48
    1865:	48 01 ca             	add    rdx,rcx
    1868:	48 39 f0             	cmp    rax,rsi
    186b:	75 d2                	jne    183f <flow_cost+0xcf>
    186d:	c4 e1 f3 2a c7       	vcvtsi2sd xmm0,xmm1,rdi
    1872:	c5 f9 28 d8          	vmovapd xmm3,xmm0
    1876:	c4 e1 f3 2a c2       	vcvtsi2sd xmm0,xmm1,rdx
    187b:	c5 f9 28 d0          	vmovapd xmm2,xmm0
    187f:	c4 c1 f3 2a c0       	vcvtsi2sd xmm0,xmm1,r8
    1884:	c5 fb 59 c3          	vmulsd xmm0,xmm0,xmm3
    1888:	c5 fb 58 c2          	vaddsd xmm0,xmm0,xmm2
    188c:	c3                   	ret    
    188d:	0f 1f 00             	nop    DWORD PTR [rax]
    1890:	48 83 bf 90 01 00 00 	cmp    QWORD PTR [rdi+0x190],0x0
    1897:	00 
    1898:	48 8b 87 28 02 00 00 	mov    rax,QWORD PTR [rdi+0x228]
    189f:	0f 8f 21 ff ff ff    	jg     17c6 <flow_cost+0x56>
    18a5:	4c 8b 87 10 02 00 00 	mov    r8,QWORD PTR [rdi+0x210]
    18ac:	c4 c1 f3 2a c0       	vcvtsi2sd xmm0,xmm1,r8
    18b1:	c5 e9 57 d2          	vxorpd xmm2,xmm2,xmm2
    18b5:	c5 f9 28 da          	vmovapd xmm3,xmm2
    18b9:	c5 fb 59 c3          	vmulsd xmm0,xmm0,xmm3
    18bd:	c5 fb 58 c2          	vaddsd xmm0,xmm0,xmm2
    18c1:	c3                   	ret    
    18c2:	66 66 2e 0f 1f 84 00 	data16 cs nop WORD PTR [rax+rax*1+0x0]
    18c9:	00 00 00 00 
    18cd:	0f 1f 00             	nop    DWORD PTR [rax]

00000000000018d0 <start>:
    18d0:	f3 0f 1e fa          	endbr64 
    18d4:	31 c0                	xor    eax,eax
    18d6:	c3                   	ret    
    18d7:	66 0f 1f 84 00 00 00 	nop    WORD PTR [rax+rax*1+0x0]
    18de:	00 00 

00000000000018e0 <getArcPosition>:
    18e0:	f3 0f 1e fa          	endbr64 
    18e4:	48 89 f0             	mov    rax,rsi
    18e7:	48 99                	cqo    
    18e9:	48 f7 bf 70 02 00 00 	idiv   QWORD PTR [rdi+0x270]
    18f0:	4c 8b 87 78 02 00 00 	mov    r8,QWORD PTR [rdi+0x278]
    18f7:	48 8b bf 80 02 00 00 	mov    rdi,QWORD PTR [rdi+0x280]
    18fe:	48 89 d6             	mov    rsi,rdx
    1901:	49 39 d0             	cmp    r8,rdx
    1904:	7d 1a                	jge    1920 <getArcPosition+0x40>
    1906:	4c 29 c6             	sub    rsi,r8
    1909:	48 8d 4f ff          	lea    rcx,[rdi-0x1]
    190d:	48 0f af ce          	imul   rcx,rsi
    1911:	4c 0f af c7          	imul   r8,rdi
    1915:	4a 8d 34 01          	lea    rsi,[rcx+r8*1]
    1919:	48 01 f0             	add    rax,rsi
    191c:	c3                   	ret    
    191d:	0f 1f 00             	nop    DWORD PTR [rax]
    1920:	48 0f af f7          	imul   rsi,rdi
    1924:	48 01 f0             	add    rax,rsi
    1927:	c3                   	ret    
    1928:	0f 1f 84 00 00 00 00 	nop    DWORD PTR [rax+rax*1+0x0]
    192f:	00 

0000000000001930 <getOriginalArcPosition>:
    1930:	f3 0f 1e fa          	endbr64 
    1934:	48 89 f0             	mov    rax,rsi
    1937:	c3                   	ret    
    1938:	0f 1f 84 00 00 00 00 	nop    DWORD PTR [rax+rax*1+0x0]
    193f:	00 

0000000000001940 <flow_org_cost>:
    1940:	f3 0f 1e fa          	endbr64 
    1944:	53                   	push   rbx
    1945:	31 d2                	xor    edx,edx
    1947:	c5 f0 57 c9          	vxorps xmm1,xmm1,xmm1
    194b:	48 83 ec 10          	sub    rsp,0x10
    194f:	48 8b 87 38 02 00 00 	mov    rax,QWORD PTR [rdi+0x238]
    1956:	48 89 fb             	mov    rbx,rdi
    1959:	48 83 c0 20          	add    rax,0x20
    195d:	48 83 bf a8 01 00 00 	cmp    QWORD PTR [rdi+0x1a8],0x0
    1964:	00 
    1965:	0f 8e 45 01 00 00    	jle    1ab0 <flow_org_cost+0x170>
    196b:	0f 1f 44 00 00       	nop    DWORD PTR [rax+rax*1+0x0]
    1970:	31 c9                	xor    ecx,ecx
    1972:	66 83 38 02          	cmp    WORD PTR [rax],0x2
    1976:	0f 94 c1             	sete   cl
    1979:	48 89 48 18          	mov    QWORD PTR [rax+0x18],rcx
    197d:	48 ff c2             	inc    rdx
    1980:	48 83 c0 48          	add    rax,0x48
    1984:	48 39 93 a8 01 00 00 	cmp    QWORD PTR [rbx+0x1a8],rdx
    198b:	7f e3                	jg     1970 <flow_org_cost+0x30>
    198d:	48 83 bb 90 01 00 00 	cmp    QWORD PTR [rbx+0x190],0x0
    1994:	00 
    1995:	48 8b 83 28 02 00 00 	mov    rax,QWORD PTR [rbx+0x228]
    199c:	7e 25                	jle    19c3 <flow_org_cost+0x83>
    199e:	48 83 c0 30          	add    rax,0x30
    19a2:	31 d2                	xor    edx,edx
    19a4:	0f 1f 40 00          	nop    DWORD PTR [rax+0x0]
    19a8:	48 8b 08             	mov    rcx,QWORD PTR [rax]
    19ab:	48 8b 70 20          	mov    rsi,QWORD PTR [rax+0x20]
    19af:	48 ff c2             	inc    rdx
    19b2:	48 89 71 38          	mov    QWORD PTR [rcx+0x38],rsi
    19b6:	48 83 c0 68          	add    rax,0x68
    19ba:	48 39 93 90 01 00 00 	cmp    QWORD PTR [rbx+0x190],rdx
    19c1:	7f e5                	jg     19a8 <flow_org_cost+0x68>
    19c3:	48 8b 93 a8 01 00 00 	mov    rdx,QWORD PTR [rbx+0x1a8]
    19ca:	48 8b 83 38 02 00 00 	mov    rax,QWORD PTR [rbx+0x238]
    19d1:	48 8b 8b 10 02 00 00 	mov    rcx,QWORD PTR [rbx+0x210]
    19d8:	48 85 d2             	test   rdx,rdx
    19db:	0f 8e ef 00 00 00    	jle    1ad0 <flow_org_cost+0x190>
    19e1:	48 8d 14 d2          	lea    rdx,[rdx+rdx*8]
    19e5:	48 83 c0 10          	add    rax,0x10
    19e9:	4c 8d 04 d0          	lea    r8,[rax+rdx*8]
    19ed:	31 f6                	xor    esi,esi
    19ef:	31 d2                	xor    edx,edx
    19f1:	eb 1d                	jmp    1a10 <flow_org_cost+0xd0>
    19f3:	0f 1f 44 00 00       	nop    DWORD PTR [rax+rax*1+0x0]
    19f8:	48 8b 78 30          	mov    rdi,QWORD PTR [rax+0x30]
    19fc:	75 34                	jne    1a32 <flow_org_cost+0xf2>
    19fe:	48 29 cf             	sub    rdi,rcx
    1a01:	48 01 fa             	add    rdx,rdi
    1a04:	48 ff c6             	inc    rsi
    1a07:	48 83 c0 48          	add    rax,0x48
    1a0b:	49 39 c0             	cmp    r8,rax
    1a0e:	74 30                	je     1a40 <flow_org_cost+0x100>
    1a10:	48 83 78 28 00       	cmp    QWORD PTR [rax+0x28],0x0
    1a15:	74 f0                	je     1a07 <flow_org_cost+0xc7>
    1a17:	48 8b 38             	mov    rdi,QWORD PTR [rax]
    1a1a:	44 8b 4f 60          	mov    r9d,DWORD PTR [rdi+0x60]
    1a1e:	45 85 c9             	test   r9d,r9d
    1a21:	79 d5                	jns    19f8 <flow_org_cost+0xb8>
    1a23:	48 8b 78 08          	mov    rdi,QWORD PTR [rax+0x8]
    1a27:	8b 7f 60             	mov    edi,DWORD PTR [rdi+0x60]
    1a2a:	85 ff                	test   edi,edi
    1a2c:	7f d9                	jg     1a07 <flow_org_cost+0xc7>
    1a2e:	48 8b 78 30          	mov    rdi,QWORD PTR [rax+0x30]
    1a32:	48 83 c0 48          	add    rax,0x48
    1a36:	48 01 fa             	add    rdx,rdi
    1a39:	49 39 c0             	cmp    r8,rax
    1a3c:	75 d2                	jne    1a10 <flow_org_cost+0xd0>
    1a3e:	66 90                	xchg   ax,ax
    1a40:	c4 e1 f3 2a c6       	vcvtsi2sd xmm0,xmm1,rsi
    1a45:	c5 f9 28 d8          	vmovapd xmm3,xmm0
    1a49:	c4 e1 f3 2a c2       	vcvtsi2sd xmm0,xmm1,rdx
    1a4e:	c5 f9 28 d0          	vmovapd xmm2,xmm0
    1a52:	c4 e1 f3 2a c1       	vcvtsi2sd xmm0,xmm1,rcx
    1a57:	48 8d 35 f0 47 00 00 	lea    rsi,[rip+0x47f0]        # 624e <_IO_stdin_used+0x24e>
    1a5e:	bf 01 00 00 00       	mov    edi,0x1
    1a63:	b8 01 00 00 00       	mov    eax,0x1
    1a68:	c5 fb 59 c3          	vmulsd xmm0,xmm0,xmm3
    1a6c:	c5 fb 11 5c 24 08    	vmovsd QWORD PTR [rsp+0x8],xmm3
    1a72:	c5 fb 11 14 24       	vmovsd QWORD PTR [rsp],xmm2
    1a77:	c5 fb 58 c2          	vaddsd xmm0,xmm0,xmm2
    1a7b:	e8 90 f7 ff ff       	call   1210 <__printf_chk@plt>
    1a80:	c5 f0 57 c9          	vxorps xmm1,xmm1,xmm1
    1a84:	c4 e1 f3 2a 83 10 02 	vcvtsi2sd xmm0,xmm1,QWORD PTR [rbx+0x210]
    1a8b:	00 00 
    1a8d:	c5 fb 10 5c 24 08    	vmovsd xmm3,QWORD PTR [rsp+0x8]
    1a93:	c5 fb 10 14 24       	vmovsd xmm2,QWORD PTR [rsp]
    1a98:	48 83 c4 10          	add    rsp,0x10
    1a9c:	c5 fb 59 c3          	vmulsd xmm0,xmm0,xmm3
    1aa0:	5b                   	pop    rbx
    1aa1:	c5 fb 58 c2          	vaddsd xmm0,xmm0,xmm2
    1aa5:	c3                   	ret    
    1aa6:	66 2e 0f 1f 84 00 00 	cs nop WORD PTR [rax+rax*1+0x0]
    1aad:	00 00 00 
    1ab0:	48 83 bf 90 01 00 00 	cmp    QWORD PTR [rdi+0x190],0x0
    1ab7:	00 
    1ab8:	48 8b 87 28 02 00 00 	mov    rax,QWORD PTR [rdi+0x228]
    1abf:	0f 8f d9 fe ff ff    	jg     199e <flow_org_cost+0x5e>
    1ac5:	48 8b 8b 10 02 00 00 	mov    rcx,QWORD PTR [rbx+0x210]
    1acc:	0f 1f 40 00          	nop    DWORD PTR [rax+0x0]
    1ad0:	c5 e9 57 d2          	vxorpd xmm2,xmm2,xmm2
    1ad4:	c5 f9 28 da          	vmovapd xmm3,xmm2
    1ad8:	e9 75 ff ff ff       	jmp    1a52 <flow_org_cost+0x112>
    1add:	0f 1f 00             	nop    DWORD PTR [rax]

0000000000001ae0 <primal_feasible>:
    1ae0:	f3 0f 1e fa          	endbr64 
    1ae4:	41 57                	push   r15
    1ae6:	4c 8d 05 6e 47 00 00 	lea    r8,[rip+0x476e]        # 625b <_IO_stdin_used+0x25b>
    1aed:	41 56                	push   r14
    1aef:	41 55                	push   r13
    1af1:	41 54                	push   r12
    1af3:	55                   	push   rbp
    1af4:	48 89 fd             	mov    rbp,rdi
    1af7:	53                   	push   rbx
    1af8:	48 83 ec 08          	sub    rsp,0x8
    1afc:	48 8b 87 28 02 00 00 	mov    rax,QWORD PTR [rdi+0x228]
    1b03:	4c 8b af 30 02 00 00 	mov    r13,QWORD PTR [rdi+0x230]
    1b0a:	48 8d 58 68          	lea    rbx,[rax+0x68]
    1b0e:	4c 8b b7 50 02 00 00 	mov    r14,QWORD PTR [rdi+0x250]
    1b15:	4c 8b bf 58 02 00 00 	mov    r15,QWORD PTR [rdi+0x258]
    1b1c:	49 39 dd             	cmp    r13,rbx
    1b1f:	77 35                	ja     1b56 <primal_feasible+0x76>
    1b21:	e9 e6 00 00 00       	jmp    1c0c <primal_feasible+0x12c>
    1b26:	66 2e 0f 1f 84 00 00 	cs nop WORD PTR [rax+rax*1+0x0]
    1b2d:	00 00 00 
    1b30:	4c 89 e1             	mov    rcx,r12
    1b33:	48 c1 f9 3f          	sar    rcx,0x3f
    1b37:	48 89 c8             	mov    rax,rcx
    1b3a:	4c 31 e0             	xor    rax,r12
    1b3d:	48 29 c8             	sub    rax,rcx
    1b40:	48 39 d0             	cmp    rax,rdx
    1b43:	0f 8f 87 00 00 00    	jg     1bd0 <primal_feasible+0xf0>
    1b49:	48 83 c3 68          	add    rbx,0x68
    1b4d:	49 39 dd             	cmp    r13,rbx
    1b50:	0f 86 b6 00 00 00    	jbe    1c0c <primal_feasible+0x12c>
    1b56:	48 8b 43 30          	mov    rax,QWORD PTR [rbx+0x30]
    1b5a:	4c 8b 63 50          	mov    r12,QWORD PTR [rbx+0x50]
    1b5e:	48 8b 95 00 02 00 00 	mov    rdx,QWORD PTR [rbp+0x200]
    1b65:	49 39 c6             	cmp    r14,rax
    1b68:	77 05                	ja     1b6f <primal_feasible+0x8f>
    1b6a:	49 39 c7             	cmp    r15,rax
    1b6d:	77 c1                	ja     1b30 <primal_feasible+0x50>
    1b6f:	48 89 d0             	mov    rax,rdx
    1b72:	48 f7 d8             	neg    rax
    1b75:	4c 39 e0             	cmp    rax,r12
    1b78:	7f 0a                	jg     1b84 <primal_feasible+0xa4>
    1b7a:	49 8d 44 24 ff       	lea    rax,[r12-0x1]
    1b7f:	48 39 d0             	cmp    rax,rdx
    1b82:	7e c5                	jle    1b49 <primal_feasible+0x69>
    1b84:	48 8d 35 d0 46 00 00 	lea    rsi,[rip+0x46d0]        # 625b <_IO_stdin_used+0x25b>
    1b8b:	bf 01 00 00 00       	mov    edi,0x1
    1b90:	31 c0                	xor    eax,eax
    1b92:	e8 79 f6 ff ff       	call   1210 <__printf_chk@plt>
    1b97:	4c 89 e2             	mov    rdx,r12
    1b9a:	48 8d 35 3f 47 00 00 	lea    rsi,[rip+0x473f]        # 62e0 <_IO_stdin_used+0x2e0>
    1ba1:	bf 01 00 00 00       	mov    edi,0x1
    1ba6:	31 c0                	xor    eax,eax
    1ba8:	e8 63 f6 ff ff       	call   1210 <__printf_chk@plt>
    1bad:	48 c7 85 e8 01 00 00 	mov    QWORD PTR [rbp+0x1e8],0x0
    1bb4:	00 00 00 00 
    1bb8:	48 83 c4 08          	add    rsp,0x8
    1bbc:	5b                   	pop    rbx
    1bbd:	5d                   	pop    rbp
    1bbe:	41 5c                	pop    r12
    1bc0:	41 5d                	pop    r13
    1bc2:	41 5e                	pop    r14
    1bc4:	b8 01 00 00 00       	mov    eax,0x1
    1bc9:	41 5f                	pop    r15
    1bcb:	c3                   	ret    
    1bcc:	0f 1f 40 00          	nop    DWORD PTR [rax+0x0]
    1bd0:	4c 89 c6             	mov    rsi,r8
    1bd3:	bf 01 00 00 00       	mov    edi,0x1
    1bd8:	31 c0                	xor    eax,eax
    1bda:	e8 31 f6 ff ff       	call   1210 <__printf_chk@plt>
    1bdf:	8b 53 60             	mov    edx,DWORD PTR [rbx+0x60]
    1be2:	4c 89 e1             	mov    rcx,r12
    1be5:	48 8d 35 bc 46 00 00 	lea    rsi,[rip+0x46bc]        # 62a8 <_IO_stdin_used+0x2a8>
    1bec:	bf 01 00 00 00       	mov    edi,0x1
    1bf1:	31 c0                	xor    eax,eax
    1bf3:	48 83 c3 68          	add    rbx,0x68
    1bf7:	e8 14 f6 ff ff       	call   1210 <__printf_chk@plt>
    1bfc:	4c 8d 05 58 46 00 00 	lea    r8,[rip+0x4658]        # 625b <_IO_stdin_used+0x25b>
    1c03:	49 39 dd             	cmp    r13,rbx
    1c06:	0f 87 4a ff ff ff    	ja     1b56 <primal_feasible+0x76>
    1c0c:	48 c7 85 e8 01 00 00 	mov    QWORD PTR [rbp+0x1e8],0x1
    1c13:	01 00 00 00 
    1c17:	48 83 c4 08          	add    rsp,0x8
    1c1b:	5b                   	pop    rbx
    1c1c:	5d                   	pop    rbp
    1c1d:	41 5c                	pop    r12
    1c1f:	41 5d                	pop    r13
    1c21:	41 5e                	pop    r14
    1c23:	31 c0                	xor    eax,eax
    1c25:	41 5f                	pop    r15
    1c27:	c3                   	ret    
    1c28:	0f 1f 84 00 00 00 00 	nop    DWORD PTR [rax+rax*1+0x0]
    1c2f:	00 

0000000000001c30 <dual_feasible>:
    1c30:	f3 0f 1e fa          	endbr64 
    1c34:	48 8b b7 40 02 00 00 	mov    rsi,QWORD PTR [rdi+0x240]
    1c3b:	48 8b 87 38 02 00 00 	mov    rax,QWORD PTR [rdi+0x238]
    1c42:	48 39 c6             	cmp    rsi,rax
    1c45:	77 1b                	ja     1c62 <dual_feasible+0x32>
    1c47:	e9 a3 00 00 00       	jmp    1cef <dual_feasible+0xbf>
    1c4c:	0f 1f 40 00          	nop    DWORD PTR [rax+0x0]
    1c50:	66 85 c9             	test   cx,cx
    1c53:	79 7b                	jns    1cd0 <dual_feasible+0xa0>
    1c55:	48 83 c0 48          	add    rax,0x48
    1c59:	48 39 c6             	cmp    rsi,rax
    1c5c:	0f 86 8a 00 00 00    	jbe    1cec <dual_feasible+0xbc>
    1c62:	48 8b 48 10          	mov    rcx,QWORD PTR [rax+0x10]
    1c66:	48 8b 50 08          	mov    rdx,QWORD PTR [rax+0x8]
    1c6a:	48 2b 11             	sub    rdx,QWORD PTR [rcx]
    1c6d:	48 8b 48 18          	mov    rcx,QWORD PTR [rax+0x18]
    1c71:	48 03 11             	add    rdx,QWORD PTR [rcx]
    1c74:	0f b7 48 20          	movzx  ecx,WORD PTR [rax+0x20]
    1c78:	66 83 f9 01          	cmp    cx,0x1
    1c7c:	7e d2                	jle    1c50 <dual_feasible+0x20>
    1c7e:	66 83 f9 02          	cmp    cx,0x2
    1c82:	75 d1                	jne    1c55 <dual_feasible+0x25>
    1c84:	48 39 97 00 02 00 00 	cmp    QWORD PTR [rdi+0x200],rdx
    1c8b:	7d c8                	jge    1c55 <dual_feasible+0x25>
    1c8d:	48 83 ec 08          	sub    rsp,0x8
    1c91:	48 8b 3d a8 73 00 00 	mov    rdi,QWORD PTR [rip+0x73a8]        # 9040 <stderr@@GLIBC_2.2.5>
    1c98:	48 8d 15 d5 45 00 00 	lea    rdx,[rip+0x45d5]        # 6274 <_IO_stdin_used+0x274>
    1c9f:	be 01 00 00 00       	mov    esi,0x1
    1ca4:	31 c0                	xor    eax,eax
    1ca6:	e8 95 f5 ff ff       	call   1240 <__fprintf_chk@plt>
    1cab:	48 8b 3d 8e 73 00 00 	mov    rdi,QWORD PTR [rip+0x738e]        # 9040 <stderr@@GLIBC_2.2.5>
    1cb2:	48 8d 15 d2 45 00 00 	lea    rdx,[rip+0x45d2]        # 628b <_IO_stdin_used+0x28b>
    1cb9:	be 01 00 00 00       	mov    esi,0x1
    1cbe:	31 c0                	xor    eax,eax
    1cc0:	e8 7b f5 ff ff       	call   1240 <__fprintf_chk@plt>
    1cc5:	b8 01 00 00 00       	mov    eax,0x1
    1cca:	48 83 c4 08          	add    rsp,0x8
    1cce:	c3                   	ret    
    1ccf:	90                   	nop
    1cd0:	48 8b 8f 00 02 00 00 	mov    rcx,QWORD PTR [rdi+0x200]
    1cd7:	48 f7 d9             	neg    rcx
    1cda:	48 39 d1             	cmp    rcx,rdx
    1cdd:	7f ae                	jg     1c8d <dual_feasible+0x5d>
    1cdf:	48 83 c0 48          	add    rax,0x48
    1ce3:	48 39 c6             	cmp    rsi,rax
    1ce6:	0f 87 76 ff ff ff    	ja     1c62 <dual_feasible+0x32>
    1cec:	31 c0                	xor    eax,eax
    1cee:	c3                   	ret    
    1cef:	31 c0                	xor    eax,eax
    1cf1:	c3                   	ret    
    1cf2:	66 66 2e 0f 1f 84 00 	data16 cs nop WORD PTR [rax+rax*1+0x0]
    1cf9:	00 00 00 00 
    1cfd:	0f 1f 00             	nop    DWORD PTR [rax]

0000000000001d00 <getfree>:
    1d00:	f3 0f 1e fa          	endbr64 
    1d04:	53                   	push   rbx
    1d05:	48 89 fb             	mov    rbx,rdi
    1d08:	48 8b bf 28 02 00 00 	mov    rdi,QWORD PTR [rdi+0x228]
    1d0f:	48 85 ff             	test   rdi,rdi
    1d12:	74 05                	je     1d19 <getfree+0x19>
    1d14:	e8 37 f4 ff ff       	call   1150 <free@plt>
    1d19:	48 8b bb 38 02 00 00 	mov    rdi,QWORD PTR [rbx+0x238]
    1d20:	48 85 ff             	test   rdi,rdi
    1d23:	74 05                	je     1d2a <getfree+0x2a>
    1d25:	e8 26 f4 ff ff       	call   1150 <free@plt>
    1d2a:	48 8b bb 50 02 00 00 	mov    rdi,QWORD PTR [rbx+0x250]
    1d31:	48 85 ff             	test   rdi,rdi
    1d34:	74 05                	je     1d3b <getfree+0x3b>
    1d36:	e8 15 f4 ff ff       	call   1150 <free@plt>
    1d3b:	48 8b bb 48 02 00 00 	mov    rdi,QWORD PTR [rbx+0x248]
    1d42:	48 85 ff             	test   rdi,rdi
    1d45:	74 05                	je     1d4c <getfree+0x4c>
    1d47:	e8 04 f4 ff ff       	call   1150 <free@plt>
    1d4c:	48 c7 83 30 02 00 00 	mov    QWORD PTR [rbx+0x230],0x0
    1d53:	00 00 00 00 
    1d57:	48 c7 83 28 02 00 00 	mov    QWORD PTR [rbx+0x228],0x0
    1d5e:	00 00 00 00 
    1d62:	48 c7 83 40 02 00 00 	mov    QWORD PTR [rbx+0x240],0x0
    1d69:	00 00 00 00 
    1d6d:	48 c7 83 38 02 00 00 	mov    QWORD PTR [rbx+0x238],0x0
    1d74:	00 00 00 00 
    1d78:	48 c7 83 58 02 00 00 	mov    QWORD PTR [rbx+0x258],0x0
    1d7f:	00 00 00 00 
    1d83:	48 c7 83 50 02 00 00 	mov    QWORD PTR [rbx+0x250],0x0
    1d8a:	00 00 00 00 
    1d8e:	48 c7 83 48 02 00 00 	mov    QWORD PTR [rbx+0x248],0x0
    1d95:	00 00 00 00 
    1d99:	31 c0                	xor    eax,eax
    1d9b:	5b                   	pop    rbx
    1d9c:	c3                   	ret    
    1d9d:	0f 1f 00             	nop    DWORD PTR [rax]

0000000000001da0 <read_min>:
    1da0:	f3 0f 1e fa          	endbr64 
    1da4:	41 57                	push   r15
    1da6:	48 8d 35 52 45 00 00 	lea    rsi,[rip+0x4552]        # 62ff <_IO_stdin_used+0x2ff>
    1dad:	41 56                	push   r14
    1daf:	49 89 fe             	mov    r14,rdi
    1db2:	41 55                	push   r13
    1db4:	41 54                	push   r12
    1db6:	55                   	push   rbp
    1db7:	53                   	push   rbx
    1db8:	48 81 ec 48 01 00 00 	sub    rsp,0x148
    1dbf:	64 48 8b 04 25 28 00 	mov    rax,QWORD PTR fs:0x28
    1dc6:	00 00 
    1dc8:	48 89 84 24 38 01 00 	mov    QWORD PTR [rsp+0x138],rax
    1dcf:	00 
    1dd0:	31 c0                	xor    eax,eax
    1dd2:	e8 49 f4 ff ff       	call   1220 <fopen@plt>
    1dd7:	48 89 44 24 08       	mov    QWORD PTR [rsp+0x8],rax
    1ddc:	48 85 c0             	test   rax,rax
    1ddf:	0f 84 79 04 00 00    	je     225e <read_min+0x4be>
    1de5:	48 8d 5c 24 60       	lea    rbx,[rsp+0x60]
    1dea:	48 8b 54 24 08       	mov    rdx,QWORD PTR [rsp+0x8]
    1def:	be c8 00 00 00       	mov    esi,0xc8
    1df4:	48 89 df             	mov    rdi,rbx
    1df7:	48 89 1c 24          	mov    QWORD PTR [rsp],rbx
    1dfb:	e8 90 f3 ff ff       	call   1190 <fgets@plt>
    1e00:	48 8d 44 24 48       	lea    rax,[rsp+0x48]
    1e05:	48 89 44 24 10       	mov    QWORD PTR [rsp+0x10],rax
    1e0a:	48 8d 4c 24 50       	lea    rcx,[rsp+0x50]
    1e0f:	48 89 c2             	mov    rdx,rax
    1e12:	48 8d 35 ec 44 00 00 	lea    rsi,[rip+0x44ec]        # 6305 <_IO_stdin_used+0x305>
    1e19:	31 c0                	xor    eax,eax
    1e1b:	48 89 df             	mov    rdi,rbx
    1e1e:	48 89 4c 24 18       	mov    QWORD PTR [rsp+0x18],rcx
    1e23:	e8 b8 f3 ff ff       	call   11e0 <__isoc99_sscanf@plt>
    1e28:	83 f8 02             	cmp    eax,0x2
    1e2b:	0f 85 2d 04 00 00    	jne    225e <read_min+0x4be>
    1e31:	4c 8b 64 24 48       	mov    r12,QWORD PTR [rsp+0x48]
    1e36:	48 8b 44 24 50       	mov    rax,QWORD PTR [rsp+0x50]
    1e3b:	4f 8d 3c 24          	lea    r15,[r12+r12*1]
    1e3f:	4b 8d 1c 27          	lea    rbx,[r15+r12*1]
    1e43:	48 01 c3             	add    rbx,rax
    1e46:	48 8d 73 ff          	lea    rsi,[rbx-0x1]
    1e4a:	48 bf cf f7 53 e3 a5 	movabs rdi,0x20c49ba5e353f7cf
    1e51:	9b c4 20 
    1e54:	49 89 86 b0 01 00 00 	mov    QWORD PTR [r14+0x1b0],rax
    1e5b:	48 89 f0             	mov    rax,rsi
    1e5e:	48 f7 ef             	imul   rdi
    1e61:	48 c1 fe 3f          	sar    rsi,0x3f
    1e65:	48 89 d8             	mov    rax,rbx
    1e68:	48 c1 fa 09          	sar    rdx,0x9
    1e6c:	48 29 f2             	sub    rdx,rsi
    1e6f:	48 8d 72 01          	lea    rsi,[rdx+0x1]
    1e73:	48 f7 ef             	imul   rdi
    1e76:	48 89 d8             	mov    rax,rbx
    1e79:	48 c1 f8 3f          	sar    rax,0x3f
    1e7d:	48 c1 fa 09          	sar    rdx,0x9
    1e81:	48 29 c2             	sub    rdx,rax
    1e84:	48 69 d2 a0 0f 00 00 	imul   rdx,rdx,0xfa0
    1e8b:	4d 8d 47 01          	lea    r8,[r15+0x1]
    1e8f:	48 89 df             	mov    rdi,rbx
    1e92:	4d 89 a6 98 01 00 00 	mov    QWORD PTR [r14+0x198],r12
    1e99:	4d 89 86 90 01 00 00 	mov    QWORD PTR [r14+0x190],r8
    1ea0:	49 89 9e a8 01 00 00 	mov    QWORD PTR [r14+0x1a8],rbx
    1ea7:	49 c7 86 80 02 00 00 	mov    QWORD PTR [r14+0x280],0xfa0
    1eae:	a0 0f 00 00 
    1eb2:	49 89 b6 70 02 00 00 	mov    QWORD PTR [r14+0x270],rsi
    1eb9:	48 89 f0             	mov    rax,rsi
    1ebc:	48 29 d7             	sub    rdi,rdx
    1ebf:	0f 85 f3 03 00 00    	jne    22b8 <read_min+0x518>
    1ec5:	49 89 86 78 02 00 00 	mov    QWORD PTR [r14+0x278],rax
    1ecc:	48 85 c0             	test   rax,rax
    1ecf:	79 28                	jns    1ef9 <read_min+0x159>
    1ed1:	ba 9f 0f 00 00       	mov    edx,0xf9f
    1ed6:	66 2e 0f 1f 84 00 00 	cs nop WORD PTR [rax+rax*1+0x0]
    1edd:	00 00 00 
    1ee0:	48 89 d7             	mov    rdi,rdx
    1ee3:	48 ff ca             	dec    rdx
    1ee6:	48 01 f0             	add    rax,rsi
    1ee9:	78 f5                	js     1ee0 <read_min+0x140>
    1eeb:	49 89 86 78 02 00 00 	mov    QWORD PTR [r14+0x278],rax
    1ef2:	49 89 be 80 02 00 00 	mov    QWORD PTR [r14+0x280],rdi
    1ef9:	49 81 fc 98 3a 00 00 	cmp    r12,0x3a98
    1f00:	0f 8e 8a 03 00 00    	jle    2290 <read_min+0x4f0>
    1f06:	c5 f8 57 c0          	vxorps xmm0,xmm0,xmm0
    1f0a:	c4 e1 fb 2a cb       	vcvtsi2sd xmm1,xmm0,rbx
    1f0f:	c5 fb 10 15 19 44 00 	vmovsd xmm2,QWORD PTR [rip+0x4419]        # 6330 <_IO_stdin_used+0x330>
    1f16:	00 
    1f17:	48 8d b3 3f 4b 4c 00 	lea    rsi,[rbx+0x4c4b3f]
    1f1e:	48 8d 93 40 4b 4c 00 	lea    rdx,[rbx+0x4c4b40]
    1f25:	c5 f3 59 ca          	vmulsd xmm1,xmm1,xmm2
    1f29:	49 c7 86 c8 01 00 00 	mov    QWORD PTR [r14+0x1c8],0x1b8faa0
    1f30:	a0 fa b8 01 
    1f34:	c4 e1 fb 2c c1       	vcvttsd2si rax,xmm1
    1f39:	c4 e1 fb 2a c0       	vcvtsi2sd xmm0,xmm0,rax
    1f3e:	c5 fb 59 c2          	vmulsd xmm0,xmm0,xmm2
    1f42:	c4 e1 fb 2c c0       	vcvttsd2si rax,xmm0
    1f47:	48 39 c6             	cmp    rsi,rax
    1f4a:	48 0f 4d c2          	cmovge rax,rdx
    1f4e:	49 89 86 a0 01 00 00 	mov    QWORD PTR [r14+0x1a0],rax
    1f55:	49 8d 57 02          	lea    rdx,[r15+0x2]
    1f59:	48 89 d7             	mov    rdi,rdx
    1f5c:	49 8d 44 24 01       	lea    rax,[r12+0x1]
    1f61:	be 68 00 00 00       	mov    esi,0x68
    1f66:	48 89 54 24 30       	mov    QWORD PTR [rsp+0x30],rdx
    1f6b:	4c 89 44 24 20       	mov    QWORD PTR [rsp+0x20],r8
    1f70:	48 89 44 24 38       	mov    QWORD PTR [rsp+0x38],rax
    1f75:	e8 26 f2 ff ff       	call   11a0 <calloc@plt>
    1f7a:	49 89 86 28 02 00 00 	mov    QWORD PTR [r14+0x228],rax
    1f81:	4c 8b 44 24 20       	mov    r8,QWORD PTR [rsp+0x20]
    1f86:	be 48 00 00 00       	mov    esi,0x48
    1f8b:	4c 89 c7             	mov    rdi,r8
    1f8e:	4c 89 44 24 28       	mov    QWORD PTR [rsp+0x28],r8
    1f93:	48 89 c5             	mov    rbp,rax
    1f96:	e8 05 f2 ff ff       	call   11a0 <calloc@plt>
    1f9b:	49 89 86 50 02 00 00 	mov    QWORD PTR [r14+0x250],rax
    1fa2:	4d 8b be a0 01 00 00 	mov    r15,QWORD PTR [r14+0x1a0]
    1fa9:	be 48 00 00 00       	mov    esi,0x48
    1fae:	4c 89 ff             	mov    rdi,r15
    1fb1:	49 89 c5             	mov    r13,rax
    1fb4:	e8 e7 f1 ff ff       	call   11a0 <calloc@plt>
    1fb9:	49 89 86 48 02 00 00 	mov    QWORD PTR [r14+0x248],rax
    1fc0:	be 48 00 00 00       	mov    esi,0x48
    1fc5:	4c 89 ff             	mov    rdi,r15
    1fc8:	48 89 44 24 20       	mov    QWORD PTR [rsp+0x20],rax
    1fcd:	e8 ce f1 ff ff       	call   11a0 <calloc@plt>
    1fd2:	48 85 c0             	test   rax,rax
    1fd5:	49 89 86 38 02 00 00 	mov    QWORD PTR [r14+0x238],rax
    1fdc:	49 89 c7             	mov    r15,rax
    1fdf:	0f 94 c0             	sete   al
    1fe2:	48 85 ed             	test   rbp,rbp
    1fe5:	40 0f 94 c6          	sete   sil
    1fe9:	09 f0                	or     eax,esi
    1feb:	4d 85 ed             	test   r13,r13
    1fee:	40 0f 94 c6          	sete   sil
    1ff2:	40 08 f0             	or     al,sil
    1ff5:	0f 85 81 04 00 00    	jne    247c <read_min+0x6dc>
    1ffb:	4c 8b 5c 24 20       	mov    r11,QWORD PTR [rsp+0x20]
    2000:	4c 8b 44 24 28       	mov    r8,QWORD PTR [rsp+0x28]
    2005:	4d 85 db             	test   r11,r11
    2008:	48 8b 54 24 30       	mov    rdx,QWORD PTR [rsp+0x30]
    200d:	0f 84 69 04 00 00    	je     247c <read_min+0x6dc>
    2013:	48 6b c2 68          	imul   rax,rdx,0x68
    2017:	48 01 e8             	add    rax,rbp
    201a:	49 89 86 30 02 00 00 	mov    QWORD PTR [r14+0x230],rax
    2021:	48 8d 04 db          	lea    rax,[rbx+rbx*8]
    2025:	49 8d 04 c7          	lea    rax,[r15+rax*8]
    2029:	49 89 86 40 02 00 00 	mov    QWORD PTR [r14+0x240],rax
    2030:	4b 8d 04 c0          	lea    rax,[r8+r8*8]
    2034:	49 8d 44 c5 00       	lea    rax,[r13+rax*8+0x0]
    2039:	49 89 86 58 02 00 00 	mov    QWORD PTR [r14+0x258],rax
    2040:	4d 85 e4             	test   r12,r12
    2043:	0f 8e 26 04 00 00    	jle    246f <read_min+0x6cf>
    2049:	4c 8d 65 68          	lea    r12,[rbp+0x68]
    204d:	45 31 ed             	xor    r13d,r13d
    2050:	4c 89 f0             	mov    rax,r14
    2053:	bb 01 00 00 00       	mov    ebx,0x1
    2058:	4d 89 fe             	mov    r14,r15
    205b:	4d 89 ef             	mov    r15,r13
    205e:	4d 89 e5             	mov    r13,r12
    2061:	49 89 c4             	mov    r12,rax
    2064:	e9 bd 01 00 00       	jmp    2226 <read_min+0x486>
    2069:	0f 1f 80 00 00 00 00 	nop    DWORD PTR [rax+0x0]
    2070:	48 8b 4c 24 48       	mov    rcx,QWORD PTR [rsp+0x48]
    2075:	48 8b 54 24 50       	mov    rdx,QWORD PTR [rsp+0x50]
    207a:	48 39 d1             	cmp    rcx,rdx
    207d:	0f 8f db 01 00 00    	jg     225e <read_min+0x4be>
    2083:	89 d8                	mov    eax,ebx
    2085:	f7 d8                	neg    eax
    2087:	41 89 45 60          	mov    DWORD PTR [r13+0x60],eax
    208b:	49 8b 84 24 98 01 00 	mov    rax,QWORD PTR [r12+0x198]
    2092:	00 
    2093:	49 c7 45 50 ff ff ff 	mov    QWORD PTR [r13+0x50],0xffffffffffffffff
    209a:	ff 
    209b:	48 01 d8             	add    rax,rbx
    209e:	48 6b c0 68          	imul   rax,rax,0x68
    20a2:	49 8d 77 01          	lea    rsi,[r15+0x1]
    20a6:	48 01 e8             	add    rax,rbp
    20a9:	89 58 60             	mov    DWORD PTR [rax+0x60],ebx
    20ac:	48 c7 40 50 01 00 00 	mov    QWORD PTR [rax+0x50],0x1
    20b3:	00 
    20b4:	41 89 4d 64          	mov    DWORD PTR [r13+0x64],ecx
    20b8:	89 50 64             	mov    DWORD PTR [rax+0x64],edx
    20bb:	45 89 3e             	mov    DWORD PTR [r14],r15d
    20be:	49 6b 84 24 90 01 00 	imul   rax,QWORD PTR [r12+0x190],0x68
    20c5:	00 68 
    20c7:	4d 89 6e 18          	mov    QWORD PTR [r14+0x18],r13
    20cb:	48 01 e8             	add    rax,rbp
    20ce:	49 89 46 10          	mov    QWORD PTR [r14+0x10],rax
    20d2:	49 8b bc 24 10 02 00 	mov    rdi,QWORD PTR [r12+0x210]
    20d9:	00 
    20da:	48 8d 57 0f          	lea    rdx,[rdi+0xf]
    20de:	49 89 56 08          	mov    QWORD PTR [r14+0x8],rdx
    20e2:	49 89 56 40          	mov    QWORD PTR [r14+0x40],rdx
    20e6:	4c 89 e7             	mov    rdi,r12
    20e9:	48 8b 50 38          	mov    rdx,QWORD PTR [rax+0x38]
    20ed:	49 89 56 28          	mov    QWORD PTR [r14+0x28],rdx
    20f1:	4c 89 70 38          	mov    QWORD PTR [rax+0x38],r14
    20f5:	49 8b 46 18          	mov    rax,QWORD PTR [r14+0x18]
    20f9:	48 8b 50 40          	mov    rdx,QWORD PTR [rax+0x40]
    20fd:	49 89 56 30          	mov    QWORD PTR [r14+0x30],rdx
    2101:	4c 89 70 40          	mov    QWORD PTR [rax+0x40],r14
    2105:	4d 8b b4 24 38 02 00 	mov    r14,QWORD PTR [r12+0x238]
    210c:	00 
    210d:	e8 ce f7 ff ff       	call   18e0 <getArcPosition>
    2112:	48 8d 04 c0          	lea    rax,[rax+rax*8]
    2116:	49 8d 04 c6          	lea    rax,[r14+rax*8]
    211a:	41 8d 57 01          	lea    edx,[r15+0x1]
    211e:	89 10                	mov    DWORD PTR [rax],edx
    2120:	49 8d 77 02          	lea    rsi,[r15+0x2]
    2124:	4c 89 e7             	mov    rdi,r12
    2127:	49 8b 94 24 98 01 00 	mov    rdx,QWORD PTR [r12+0x198]
    212e:	00 
    212f:	48 01 da             	add    rdx,rbx
    2132:	48 6b d2 68          	imul   rdx,rdx,0x68
    2136:	48 01 ea             	add    rdx,rbp
    2139:	48 89 50 10          	mov    QWORD PTR [rax+0x10],rdx
    213d:	49 6b 8c 24 90 01 00 	imul   rcx,QWORD PTR [r12+0x190],0x68
    2144:	00 68 
    2146:	48 c7 40 08 0f 00 00 	mov    QWORD PTR [rax+0x8],0xf
    214d:	00 
    214e:	48 c7 40 40 0f 00 00 	mov    QWORD PTR [rax+0x40],0xf
    2155:	00 
    2156:	48 01 e9             	add    rcx,rbp
    2159:	48 89 48 18          	mov    QWORD PTR [rax+0x18],rcx
    215d:	48 8b 4a 38          	mov    rcx,QWORD PTR [rdx+0x38]
    2161:	48 89 48 28          	mov    QWORD PTR [rax+0x28],rcx
    2165:	48 89 42 38          	mov    QWORD PTR [rdx+0x38],rax
    2169:	48 8b 50 18          	mov    rdx,QWORD PTR [rax+0x18]
    216d:	48 8b 4a 40          	mov    rcx,QWORD PTR [rdx+0x40]
    2171:	48 89 48 30          	mov    QWORD PTR [rax+0x30],rcx
    2175:	48 89 42 40          	mov    QWORD PTR [rdx+0x40],rax
    2179:	4d 8b b4 24 38 02 00 	mov    r14,QWORD PTR [r12+0x238]
    2180:	00 
    2181:	e8 5a f7 ff ff       	call   18e0 <getArcPosition>
    2186:	48 8d 04 c0          	lea    rax,[rax+rax*8]
    218a:	49 8d 04 c6          	lea    rax,[r14+rax*8]
    218e:	41 8d 57 02          	lea    edx,[r15+0x2]
    2192:	4c 89 68 10          	mov    QWORD PTR [rax+0x10],r13
    2196:	89 10                	mov    DWORD PTR [rax],edx
    2198:	4c 89 e7             	mov    rdi,r12
    219b:	49 8b 94 24 98 01 00 	mov    rdx,QWORD PTR [r12+0x198]
    21a2:	00 
    21a3:	48 01 da             	add    rdx,rbx
    21a6:	48 6b d2 68          	imul   rdx,rdx,0x68
    21aa:	48 01 ea             	add    rdx,rbp
    21ad:	48 89 50 18          	mov    QWORD PTR [rax+0x18],rdx
    21b1:	ba 80 96 98 00       	mov    edx,0x989680
    21b6:	49 81 bc 24 10 02 00 	cmp    QWORD PTR [r12+0x210],0x989680
    21bd:	00 80 96 98 00 
    21c2:	49 0f 4d 94 24 10 02 	cmovge rdx,QWORD PTR [r12+0x210]
    21c9:	00 00 
    21cb:	49 83 c7 03          	add    r15,0x3
    21cf:	48 01 d2             	add    rdx,rdx
    21d2:	48 89 50 08          	mov    QWORD PTR [rax+0x8],rdx
    21d6:	48 89 50 40          	mov    QWORD PTR [rax+0x40],rdx
    21da:	4c 89 fe             	mov    rsi,r15
    21dd:	48 ff c3             	inc    rbx
    21e0:	49 8b 55 38          	mov    rdx,QWORD PTR [r13+0x38]
    21e4:	49 83 c5 68          	add    r13,0x68
    21e8:	48 89 50 28          	mov    QWORD PTR [rax+0x28],rdx
    21ec:	49 89 45 d0          	mov    QWORD PTR [r13-0x30],rax
    21f0:	48 8b 50 18          	mov    rdx,QWORD PTR [rax+0x18]
    21f4:	48 8b 4a 40          	mov    rcx,QWORD PTR [rdx+0x40]
    21f8:	48 89 48 30          	mov    QWORD PTR [rax+0x30],rcx
    21fc:	48 89 42 40          	mov    QWORD PTR [rdx+0x40],rax
    2200:	4d 8b b4 24 38 02 00 	mov    r14,QWORD PTR [r12+0x238]
    2207:	00 
    2208:	e8 d3 f6 ff ff       	call   18e0 <getArcPosition>
    220d:	48 8d 04 c0          	lea    rax,[rax+rax*8]
    2211:	4d 8d 34 c6          	lea    r14,[r14+rax*8]
    2215:	49 8b 84 24 98 01 00 	mov    rax,QWORD PTR [r12+0x198]
    221c:	00 
    221d:	48 39 d8             	cmp    rax,rbx
    2220:	0f 8c a2 00 00 00    	jl     22c8 <read_min+0x528>
    2226:	48 8b 54 24 08       	mov    rdx,QWORD PTR [rsp+0x8]
    222b:	48 8b 3c 24          	mov    rdi,QWORD PTR [rsp]
    222f:	be c8 00 00 00       	mov    esi,0xc8
    2234:	e8 57 ef ff ff       	call   1190 <fgets@plt>
    2239:	48 8b 4c 24 18       	mov    rcx,QWORD PTR [rsp+0x18]
    223e:	48 8b 54 24 10       	mov    rdx,QWORD PTR [rsp+0x10]
    2243:	48 8b 3c 24          	mov    rdi,QWORD PTR [rsp]
    2247:	31 c0                	xor    eax,eax
    2249:	48 8d 35 b5 40 00 00 	lea    rsi,[rip+0x40b5]        # 6305 <_IO_stdin_used+0x305>
    2250:	e8 8b ef ff ff       	call   11e0 <__isoc99_sscanf@plt>
    2255:	83 f8 02             	cmp    eax,0x2
    2258:	0f 84 12 fe ff ff    	je     2070 <read_min+0x2d0>
    225e:	48 c7 c0 ff ff ff ff 	mov    rax,0xffffffffffffffff
    2265:	48 8b 9c 24 38 01 00 	mov    rbx,QWORD PTR [rsp+0x138]
    226c:	00 
    226d:	64 48 33 1c 25 28 00 	xor    rbx,QWORD PTR fs:0x28
    2274:	00 00 
    2276:	0f 85 20 02 00 00    	jne    249c <read_min+0x6fc>
    227c:	48 81 c4 48 01 00 00 	add    rsp,0x148
    2283:	5b                   	pop    rbx
    2284:	5d                   	pop    rbp
    2285:	41 5c                	pop    r12
    2287:	41 5d                	pop    r13
    2289:	41 5e                	pop    r14
    228b:	41 5f                	pop    r15
    228d:	c3                   	ret    
    228e:	66 90                	xchg   ax,ax
    2290:	49 89 9e a0 01 00 00 	mov    QWORD PTR [r14+0x1a0],rbx
    2297:	49 c7 86 c8 01 00 00 	mov    QWORD PTR [r14+0x1c8],0x1e8480
    229e:	80 84 1e 00 
    22a2:	49 c7 86 c0 01 00 00 	mov    QWORD PTR [r14+0x1c0],0x0
    22a9:	00 00 00 00 
    22ad:	e9 a3 fc ff ff       	jmp    1f55 <read_min+0x1b5>
    22b2:	66 0f 1f 44 00 00    	nop    WORD PTR [rax+rax*1+0x0]
    22b8:	48 8d 84 3e 60 f0 ff 	lea    rax,[rsi+rdi*1-0xfa0]
    22bf:	ff 
    22c0:	e9 00 fc ff ff       	jmp    1ec5 <read_min+0x125>
    22c5:	0f 1f 00             	nop    DWORD PTR [rax]
    22c8:	48 ff c0             	inc    rax
    22cb:	48 89 44 24 38       	mov    QWORD PTR [rsp+0x38],rax
    22d0:	4d 89 fd             	mov    r13,r15
    22d3:	4d 89 f7             	mov    r15,r14
    22d6:	4d 89 e6             	mov    r14,r12
    22d9:	48 39 5c 24 38       	cmp    QWORD PTR [rsp+0x38],rbx
    22de:	0f 85 7a ff ff ff    	jne    225e <read_min+0x4be>
    22e4:	31 db                	xor    ebx,ebx
    22e6:	48 8d 44 24 58       	lea    rax,[rsp+0x58]
    22eb:	49 83 be b0 01 00 00 	cmp    QWORD PTR [r14+0x1b0],0x0
    22f2:	00 
    22f3:	48 89 44 24 20       	mov    QWORD PTR [rsp+0x20],rax
    22f8:	0f 8e d5 00 00 00    	jle    23d3 <read_min+0x633>
    22fe:	4c 89 f0             	mov    rax,r14
    2301:	4c 8b 24 24          	mov    r12,QWORD PTR [rsp]
    2305:	4d 89 ee             	mov    r14,r13
    2308:	4d 89 fd             	mov    r13,r15
    230b:	49 89 c7             	mov    r15,rax
    230e:	eb 7b                	jmp    238b <read_min+0x5eb>
    2310:	45 89 75 00          	mov    DWORD PTR [r13+0x0],r14d
    2314:	49 ff c6             	inc    r14
    2317:	4c 89 f6             	mov    rsi,r14
    231a:	48 8b 44 24 48       	mov    rax,QWORD PTR [rsp+0x48]
    231f:	48 6b 54 24 50 68    	imul   rdx,QWORD PTR [rsp+0x50],0x68
    2325:	49 03 87 98 01 00 00 	add    rax,QWORD PTR [r15+0x198]
    232c:	48 6b c0 68          	imul   rax,rax,0x68
    2330:	48 01 ea             	add    rdx,rbp
    2333:	49 89 55 18          	mov    QWORD PTR [r13+0x18],rdx
    2337:	48 8b 54 24 58       	mov    rdx,QWORD PTR [rsp+0x58]
    233c:	48 01 e8             	add    rax,rbp
    233f:	49 89 45 10          	mov    QWORD PTR [r13+0x10],rax
    2343:	49 89 55 40          	mov    QWORD PTR [r13+0x40],rdx
    2347:	49 89 55 08          	mov    QWORD PTR [r13+0x8],rdx
    234b:	4c 89 ff             	mov    rdi,r15
    234e:	48 ff c3             	inc    rbx
    2351:	48 8b 50 38          	mov    rdx,QWORD PTR [rax+0x38]
    2355:	49 89 55 28          	mov    QWORD PTR [r13+0x28],rdx
    2359:	4c 89 68 38          	mov    QWORD PTR [rax+0x38],r13
    235d:	49 8b 45 18          	mov    rax,QWORD PTR [r13+0x18]
    2361:	48 8b 50 40          	mov    rdx,QWORD PTR [rax+0x40]
    2365:	49 89 55 30          	mov    QWORD PTR [r13+0x30],rdx
    2369:	4c 89 68 40          	mov    QWORD PTR [rax+0x40],r13
    236d:	4d 8b af 38 02 00 00 	mov    r13,QWORD PTR [r15+0x238]
    2374:	e8 67 f5 ff ff       	call   18e0 <getArcPosition>
    2379:	48 8d 04 c0          	lea    rax,[rax+rax*8]
    237d:	4d 8d 6c c5 00       	lea    r13,[r13+rax*8+0x0]
    2382:	49 39 9f b0 01 00 00 	cmp    QWORD PTR [r15+0x1b0],rbx
    2389:	7e 45                	jle    23d0 <read_min+0x630>
    238b:	48 8b 54 24 08       	mov    rdx,QWORD PTR [rsp+0x8]
    2390:	be c8 00 00 00       	mov    esi,0xc8
    2395:	4c 89 e7             	mov    rdi,r12
    2398:	e8 f3 ed ff ff       	call   1190 <fgets@plt>
    239d:	4c 8b 44 24 20       	mov    r8,QWORD PTR [rsp+0x20]
    23a2:	48 8b 4c 24 18       	mov    rcx,QWORD PTR [rsp+0x18]
    23a7:	48 8b 54 24 10       	mov    rdx,QWORD PTR [rsp+0x10]
    23ac:	31 c0                	xor    eax,eax
    23ae:	48 8d 35 4c 3f 00 00 	lea    rsi,[rip+0x3f4c]        # 6301 <_IO_stdin_used+0x301>
    23b5:	4c 89 e7             	mov    rdi,r12
    23b8:	e8 23 ee ff ff       	call   11e0 <__isoc99_sscanf@plt>
    23bd:	83 f8 03             	cmp    eax,0x3
    23c0:	0f 84 4a ff ff ff    	je     2310 <read_min+0x570>
    23c6:	e9 93 fe ff ff       	jmp    225e <read_min+0x4be>
    23cb:	0f 1f 44 00 00       	nop    DWORD PTR [rax+rax*1+0x0]
    23d0:	4d 89 fe             	mov    r14,r15
    23d3:	48 8b 7c 24 08       	mov    rdi,QWORD PTR [rsp+0x8]
    23d8:	bb 01 00 00 00       	mov    ebx,0x1
    23dd:	e8 7e ed ff ff       	call   1160 <fclose@plt>
    23e2:	49 83 be 98 01 00 00 	cmp    QWORD PTR [r14+0x198],0x0
    23e9:	00 
    23ea:	41 c6 86 c8 00 00 00 	mov    BYTE PTR [r14+0xc8],0x0
    23f1:	00 
    23f2:	bd 80 96 98 00       	mov    ebp,0x989680
    23f7:	7e 6f                	jle    2468 <read_min+0x6c8>
    23f9:	0f 1f 80 00 00 00 00 	nop    DWORD PTR [rax+0x0]
    2400:	48 8d 74 5b ff       	lea    rsi,[rbx+rbx*2-0x1]
    2405:	4c 89 f7             	mov    rdi,r14
    2408:	4d 8b a6 38 02 00 00 	mov    r12,QWORD PTR [r14+0x238]
    240f:	e8 cc f4 ff ff       	call   18e0 <getArcPosition>
    2414:	48 8d 04 c0          	lea    rax,[rax+rax*8]
    2418:	49 81 be 10 02 00 00 	cmp    QWORD PTR [r14+0x210],0x989680
    241f:	80 96 98 00 
    2423:	49 8d 14 c4          	lea    rdx,[r12+rax*8]
    2427:	48 89 e8             	mov    rax,rbp
    242a:	49 0f 4d 86 10 02 00 	cmovge rax,QWORD PTR [r14+0x210]
    2431:	00 
    2432:	48 f7 d8             	neg    rax
    2435:	48 01 c0             	add    rax,rax
    2438:	48 89 42 08          	mov    QWORD PTR [rdx+0x8],rax
    243c:	48 89 e8             	mov    rax,rbp
    243f:	49 81 be 10 02 00 00 	cmp    QWORD PTR [r14+0x210],0x989680
    2446:	80 96 98 00 
    244a:	49 0f 4d 86 10 02 00 	cmovge rax,QWORD PTR [r14+0x210]
    2451:	00 
    2452:	48 ff c3             	inc    rbx
    2455:	48 f7 d8             	neg    rax
    2458:	48 01 c0             	add    rax,rax
    245b:	48 89 42 40          	mov    QWORD PTR [rdx+0x40],rax
    245f:	49 39 9e 98 01 00 00 	cmp    QWORD PTR [r14+0x198],rbx
    2466:	7d 98                	jge    2400 <read_min+0x660>
    2468:	31 c0                	xor    eax,eax
    246a:	e9 f6 fd ff ff       	jmp    2265 <read_min+0x4c5>
    246f:	45 31 ed             	xor    r13d,r13d
    2472:	bb 01 00 00 00       	mov    ebx,0x1
    2477:	e9 5d fe ff ff       	jmp    22d9 <read_min+0x539>
    247c:	48 8d 35 8d 3e 00 00 	lea    rsi,[rip+0x3e8d]        # 6310 <_IO_stdin_used+0x310>
    2483:	bf 01 00 00 00       	mov    edi,0x1
    2488:	31 c0                	xor    eax,eax
    248a:	e8 81 ed ff ff       	call   1210 <__printf_chk@plt>
    248f:	4c 89 f7             	mov    rdi,r14
    2492:	e8 69 f8 ff ff       	call   1d00 <getfree>
    2497:	e9 c2 fd ff ff       	jmp    225e <read_min+0x4be>
    249c:	e8 cf ec ff ff       	call   1170 <__stack_chk_fail@plt>
    24a1:	66 2e 0f 1f 84 00 00 	cs nop WORD PTR [rax+rax*1+0x0]
    24a8:	00 00 00 
    24ab:	0f 1f 44 00 00       	nop    DWORD PTR [rax+rax*1+0x0]

00000000000024b0 <arc_compare>:
    24b0:	f3 0f 1e fa          	endbr64 
    24b4:	48 8b 16             	mov    rdx,QWORD PTR [rsi]
    24b7:	48 8b 0f             	mov    rcx,QWORD PTR [rdi]
    24ba:	48 8b 72 38          	mov    rsi,QWORD PTR [rdx+0x38]
    24be:	b8 01 00 00 00       	mov    eax,0x1
    24c3:	48 39 71 38          	cmp    QWORD PTR [rcx+0x38],rsi
    24c7:	7f 15                	jg     24de <arc_compare+0x2e>
    24c9:	b8 ff ff ff ff       	mov    eax,0xffffffff
    24ce:	7c 0e                	jl     24de <arc_compare+0x2e>
    24d0:	8b 02                	mov    eax,DWORD PTR [rdx]
    24d2:	39 01                	cmp    DWORD PTR [rcx],eax
    24d4:	0f 9d c0             	setge  al
    24d7:	0f b6 c0             	movzx  eax,al
    24da:	8d 44 00 ff          	lea    eax,[rax+rax*1-0x1]
    24de:	c3                   	ret    
    24df:	90                   	nop

00000000000024e0 <refreshArcPointers>:
    24e0:	f3 0f 1e fa          	endbr64 
    24e4:	48 83 bf 90 01 00 00 	cmp    QWORD PTR [rdi+0x190],0x0
    24eb:	00 
    24ec:	0f 88 b6 00 00 00    	js     25a8 <refreshArcPointers+0xc8>
    24f2:	41 57                	push   r15
    24f4:	49 89 d7             	mov    r15,rdx
    24f7:	41 56                	push   r14
    24f9:	49 89 f6             	mov    r14,rsi
    24fc:	41 55                	push   r13
    24fe:	45 31 ed             	xor    r13d,r13d
    2501:	41 54                	push   r12
    2503:	45 31 e4             	xor    r12d,r12d
    2506:	55                   	push   rbp
    2507:	48 89 fd             	mov    rbp,rdi
    250a:	53                   	push   rbx
    250b:	48 83 ec 08          	sub    rsp,0x8
    250f:	90                   	nop
    2510:	48 8b 9d 28 02 00 00 	mov    rbx,QWORD PTR [rbp+0x228]
    2517:	4c 01 eb             	add    rbx,r13
    251a:	48 8b 43 30          	mov    rax,QWORD PTR [rbx+0x30]
    251e:	48 85 c0             	test   rax,rax
    2521:	74 19                	je     253c <refreshArcPointers+0x5c>
    2523:	48 63 30             	movsxd rsi,DWORD PTR [rax]
    2526:	85 f6                	test   esi,esi
    2528:	78 12                	js     253c <refreshArcPointers+0x5c>
    252a:	48 89 ef             	mov    rdi,rbp
    252d:	41 ff d6             	call   r14
    2530:	48 8d 04 c0          	lea    rax,[rax+rax*8]
    2534:	49 8d 04 c7          	lea    rax,[r15+rax*8]
    2538:	48 89 43 30          	mov    QWORD PTR [rbx+0x30],rax
    253c:	48 8b 43 40          	mov    rax,QWORD PTR [rbx+0x40]
    2540:	48 85 c0             	test   rax,rax
    2543:	74 19                	je     255e <refreshArcPointers+0x7e>
    2545:	48 63 30             	movsxd rsi,DWORD PTR [rax]
    2548:	85 f6                	test   esi,esi
    254a:	78 12                	js     255e <refreshArcPointers+0x7e>
    254c:	48 89 ef             	mov    rdi,rbp
    254f:	41 ff d6             	call   r14
    2552:	48 8d 04 c0          	lea    rax,[rax+rax*8]
    2556:	49 8d 04 c7          	lea    rax,[r15+rax*8]
    255a:	48 89 43 40          	mov    QWORD PTR [rbx+0x40],rax
    255e:	48 8b 43 38          	mov    rax,QWORD PTR [rbx+0x38]
    2562:	48 85 c0             	test   rax,rax
    2565:	74 19                	je     2580 <refreshArcPointers+0xa0>
    2567:	48 63 30             	movsxd rsi,DWORD PTR [rax]
    256a:	85 f6                	test   esi,esi
    256c:	78 12                	js     2580 <refreshArcPointers+0xa0>
    256e:	48 89 ef             	mov    rdi,rbp
    2571:	41 ff d6             	call   r14
    2574:	48 8d 04 c0          	lea    rax,[rax+rax*8]
    2578:	49 8d 04 c7          	lea    rax,[r15+rax*8]
    257c:	48 89 43 38          	mov    QWORD PTR [rbx+0x38],rax
    2580:	49 ff c4             	inc    r12
    2583:	49 83 c5 68          	add    r13,0x68
    2587:	4c 39 a5 90 01 00 00 	cmp    QWORD PTR [rbp+0x190],r12
    258e:	7d 80                	jge    2510 <refreshArcPointers+0x30>
    2590:	48 83 c4 08          	add    rsp,0x8
    2594:	5b                   	pop    rbx
    2595:	5d                   	pop    rbp
    2596:	41 5c                	pop    r12
    2598:	41 5d                	pop    r13
    259a:	41 5e                	pop    r14
    259c:	31 c0                	xor    eax,eax
    259e:	41 5f                	pop    r15
    25a0:	c3                   	ret    
    25a1:	0f 1f 80 00 00 00 00 	nop    DWORD PTR [rax+0x0]
    25a8:	31 c0                	xor    eax,eax
    25aa:	c3                   	ret    
    25ab:	0f 1f 44 00 00       	nop    DWORD PTR [rax+rax*1+0x0]

00000000000025b0 <refreshPositions>:
    25b0:	f3 0f 1e fa          	endbr64 
    25b4:	41 57                	push   r15
    25b6:	49 89 ff             	mov    r15,rdi
    25b9:	41 56                	push   r14
    25bb:	49 89 f6             	mov    r14,rsi
    25be:	41 55                	push   r13
    25c0:	41 54                	push   r12
    25c2:	49 89 d4             	mov    r12,rdx
    25c5:	55                   	push   rbp
    25c6:	53                   	push   rbx
    25c7:	48 83 ec 08          	sub    rsp,0x8
    25cb:	4c 8b af 48 02 00 00 	mov    r13,QWORD PTR [rdi+0x248]
    25d2:	4c 89 ea             	mov    rdx,r13
    25d5:	e8 06 ff ff ff       	call   24e0 <refreshArcPointers>
    25da:	49 8b 97 38 02 00 00 	mov    rdx,QWORD PTR [r15+0x238]
    25e1:	4d 85 e4             	test   r12,r12
    25e4:	7e 66                	jle    264c <refreshPositions+0x9c>
    25e6:	31 ed                	xor    ebp,ebp
    25e8:	0f 1f 84 00 00 00 00 	nop    DWORD PTR [rax+rax*1+0x0]
    25ef:	00 
    25f0:	48 8d 44 ed 00       	lea    rax,[rbp+rbp*8+0x0]
    25f5:	48 8d 1c c2          	lea    rbx,[rdx+rax*8]
    25f9:	48 63 33             	movsxd rsi,DWORD PTR [rbx]
    25fc:	85 f6                	test   esi,esi
    25fe:	78 44                	js     2644 <refreshPositions+0x94>
    2600:	4c 89 ff             	mov    rdi,r15
    2603:	41 ff d6             	call   r14
    2606:	48 8d 04 c0          	lea    rax,[rax+rax*8]
    260a:	c5 fa 6f 03          	vmovdqu xmm0,XMMWORD PTR [rbx]
    260e:	49 8d 44 c5 00       	lea    rax,[r13+rax*8+0x0]
    2613:	c5 f8 11 00          	vmovups XMMWORD PTR [rax],xmm0
    2617:	c5 fa 6f 4b 10       	vmovdqu xmm1,XMMWORD PTR [rbx+0x10]
    261c:	c5 f8 11 48 10       	vmovups XMMWORD PTR [rax+0x10],xmm1
    2621:	c5 fa 6f 53 20       	vmovdqu xmm2,XMMWORD PTR [rbx+0x20]
    2626:	c5 f8 11 50 20       	vmovups XMMWORD PTR [rax+0x20],xmm2
    262b:	c5 fa 6f 5b 30       	vmovdqu xmm3,XMMWORD PTR [rbx+0x30]
    2630:	c5 f8 11 58 30       	vmovups XMMWORD PTR [rax+0x30],xmm3
    2635:	48 8b 53 40          	mov    rdx,QWORD PTR [rbx+0x40]
    2639:	48 89 50 40          	mov    QWORD PTR [rax+0x40],rdx
    263d:	49 8b 97 38 02 00 00 	mov    rdx,QWORD PTR [r15+0x238]
    2644:	48 ff c5             	inc    rbp
    2647:	49 39 ec             	cmp    r12,rbp
    264a:	75 a4                	jne    25f0 <refreshPositions+0x40>
    264c:	4b 8d 04 e4          	lea    rax,[r12+r12*8]
    2650:	49 8d 44 c5 00       	lea    rax,[r13+rax*8+0x0]
    2655:	4d 89 af 38 02 00 00 	mov    QWORD PTR [r15+0x238],r13
    265c:	49 89 87 40 02 00 00 	mov    QWORD PTR [r15+0x240],rax
    2663:	49 89 97 48 02 00 00 	mov    QWORD PTR [r15+0x248],rdx
    266a:	48 83 c4 08          	add    rsp,0x8
    266e:	5b                   	pop    rbx
    266f:	5d                   	pop    rbp
    2670:	41 5c                	pop    r12
    2672:	41 5d                	pop    r13
    2674:	41 5e                	pop    r14
    2676:	31 c0                	xor    eax,eax
    2678:	41 5f                	pop    r15
    267a:	c3                   	ret    
    267b:	0f 1f 44 00 00       	nop    DWORD PTR [rax+rax*1+0x0]

0000000000002680 <marc_arcs>:
    2680:	f3 0f 1e fa          	endbr64 
    2684:	41 57                	push   r15
    2686:	49 89 cf             	mov    r15,rcx
    2689:	41 56                	push   r14
    268b:	49 89 d6             	mov    r14,rdx
    268e:	41 55                	push   r13
    2690:	41 54                	push   r12
    2692:	55                   	push   rbp
    2693:	48 89 fd             	mov    rbp,rdi
    2696:	bf 08 00 00 00       	mov    edi,0x8
    269b:	53                   	push   rbx
    269c:	48 89 f3             	mov    rbx,rsi
    269f:	48 83 ec 08          	sub    rsp,0x8
    26a3:	e8 18 eb ff ff       	call   11c0 <malloc@plt>
    26a8:	bf 08 00 00 00       	mov    edi,0x8
    26ad:	49 89 c4             	mov    r12,rax
    26b0:	e8 0b eb ff ff       	call   11c0 <malloc@plt>
    26b5:	49 89 c5             	mov    r13,rax
    26b8:	48 8b 85 c0 01 00 00 	mov    rax,QWORD PTR [rbp+0x1c0]
    26bf:	48 81 bd 98 01 00 00 	cmp    QWORD PTR [rbp+0x198],0x3a98
    26c6:	98 3a 00 00 
    26ca:	48 8d 90 c0 bd f0 ff 	lea    rdx,[rax-0xf4240]
    26d1:	7e 07                	jle    26da <marc_arcs+0x5a>
    26d3:	48 8d 90 00 f7 c2 ff 	lea    rdx,[rax-0x3d0900]
    26da:	48 c7 03 00 00 00 00 	mov    QWORD PTR [rbx],0x0
    26e1:	49 c7 45 00 00 00 00 	mov    QWORD PTR [r13+0x0],0x0
    26e8:	00 
    26e9:	49 8b 06             	mov    rax,QWORD PTR [r14]
    26ec:	48 89 03             	mov    QWORD PTR [rbx],rax
    26ef:	48 85 c0             	test   rax,rax
    26f2:	b8 00 00 00 00       	mov    eax,0x0
    26f7:	49 8b 0f             	mov    rcx,QWORD PTR [r15]
    26fa:	4c 8b 85 a8 01 00 00 	mov    r8,QWORD PTR [rbp+0x1a8]
    2701:	49 89 0c 24          	mov    QWORD PTR [r12],rcx
    2705:	7e 45                	jle    274c <marc_arcs+0xcc>
    2707:	48 85 d2             	test   rdx,rdx
    270a:	7e 40                	jle    274c <marc_arcs+0xcc>
    270c:	0f 1f 40 00          	nop    DWORD PTR [rax+0x0]
    2710:	49 39 06             	cmp    QWORD PTR [r14],rax
    2713:	0f 8e 47 eb ff ff    	jle    1260 <marc_arcs.cold>
    2719:	49 8b 0c 24          	mov    rcx,QWORD PTR [r12]
    271d:	42 8d 3c 00          	lea    edi,[rax+r8*1]
    2721:	48 8b 31             	mov    rsi,QWORD PTR [rcx]
    2724:	48 83 c1 08          	add    rcx,0x8
    2728:	89 3e                	mov    DWORD PTR [rsi],edi
    272a:	48 c7 46 38 01 00 00 	mov    QWORD PTR [rsi+0x38],0x1
    2731:	00 
    2732:	48 ff c0             	inc    rax
    2735:	49 89 0c 24          	mov    QWORD PTR [r12],rcx
    2739:	48 39 13             	cmp    QWORD PTR [rbx],rdx
    273c:	48 89 d1             	mov    rcx,rdx
    273f:	48 0f 4e 0b          	cmovle rcx,QWORD PTR [rbx]
    2743:	49 89 45 00          	mov    QWORD PTR [r13+0x0],rax
    2747:	48 39 c1             	cmp    rcx,rax
    274a:	7f c4                	jg     2710 <marc_arcs+0x90>
    274c:	48 89 03             	mov    QWORD PTR [rbx],rax
    274f:	48 c7 85 80 02 00 00 	mov    QWORD PTR [rbp+0x280],0xfa0
    2756:	a0 0f 00 00 
    275a:	48 be cf f7 53 e3 a5 	movabs rsi,0x20c49ba5e353f7cf
    2761:	9b c4 20 
    2764:	48 8b bd a8 01 00 00 	mov    rdi,QWORD PTR [rbp+0x1a8]
    276b:	4c 8b 03             	mov    r8,QWORD PTR [rbx]
    276e:	49 01 f8             	add    r8,rdi
    2771:	49 ff c8             	dec    r8
    2774:	4c 89 c0             	mov    rax,r8
    2777:	48 f7 ee             	imul   rsi
    277a:	49 c1 f8 3f          	sar    r8,0x3f
    277e:	48 c1 fa 09          	sar    rdx,0x9
    2782:	4c 29 c2             	sub    rdx,r8
    2785:	48 8d 4a 01          	lea    rcx,[rdx+0x1]
    2789:	48 89 8d 70 02 00 00 	mov    QWORD PTR [rbp+0x270],rcx
    2790:	48 03 3b             	add    rdi,QWORD PTR [rbx]
    2793:	48 89 f8             	mov    rax,rdi
    2796:	48 f7 ee             	imul   rsi
    2799:	48 89 f8             	mov    rax,rdi
    279c:	48 c1 f8 3f          	sar    rax,0x3f
    27a0:	48 c1 fa 09          	sar    rdx,0x9
    27a4:	48 29 c2             	sub    rdx,rax
    27a7:	48 69 d2 a0 0f 00 00 	imul   rdx,rdx,0xfa0
    27ae:	48 89 c8             	mov    rax,rcx
    27b1:	48 29 d7             	sub    rdi,rdx
    27b4:	74 08                	je     27be <marc_arcs+0x13e>
    27b6:	48 8d 84 39 60 f0 ff 	lea    rax,[rcx+rdi*1-0xfa0]
    27bd:	ff 
    27be:	48 89 85 78 02 00 00 	mov    QWORD PTR [rbp+0x278],rax
    27c5:	48 85 c0             	test   rax,rax
    27c8:	79 1f                	jns    27e9 <marc_arcs+0x169>
    27ca:	ba 9f 0f 00 00       	mov    edx,0xf9f
    27cf:	90                   	nop
    27d0:	48 89 d6             	mov    rsi,rdx
    27d3:	48 ff ca             	dec    rdx
    27d6:	48 01 c8             	add    rax,rcx
    27d9:	78 f5                	js     27d0 <marc_arcs+0x150>
    27db:	48 89 85 78 02 00 00 	mov    QWORD PTR [rbp+0x278],rax
    27e2:	48 89 b5 80 02 00 00 	mov    QWORD PTR [rbp+0x280],rsi
    27e9:	4c 89 e7             	mov    rdi,r12
    27ec:	e8 5f e9 ff ff       	call   1150 <free@plt>
    27f1:	48 83 c4 08          	add    rsp,0x8
    27f5:	5b                   	pop    rbx
    27f6:	5d                   	pop    rbp
    27f7:	41 5c                	pop    r12
    27f9:	4c 89 ef             	mov    rdi,r13
    27fc:	41 5d                	pop    r13
    27fe:	41 5e                	pop    r14
    2800:	41 5f                	pop    r15
    2802:	e9 49 e9 ff ff       	jmp    1150 <free@plt>
    2807:	66 0f 1f 84 00 00 00 	nop    WORD PTR [rax+rax*1+0x0]
    280e:	00 00 

0000000000002810 <resize_prob>:
    2810:	f3 0f 1e fa          	endbr64 
    2814:	41 54                	push   r12
    2816:	49 89 fc             	mov    r12,rdi
    2819:	48 8b 97 c8 01 00 00 	mov    rdx,QWORD PTR [rdi+0x1c8]
    2820:	48 8b 87 a0 01 00 00 	mov    rax,QWORD PTR [rdi+0x1a0]
    2827:	48 01 97 c0 01 00 00 	add    QWORD PTR [rdi+0x1c0],rdx
    282e:	48 01 d0             	add    rax,rdx
    2831:	48 89 87 a0 01 00 00 	mov    QWORD PTR [rdi+0x1a0],rax
    2838:	48 8d 34 c0          	lea    rsi,[rax+rax*8]
    283c:	48 8b bf 38 02 00 00 	mov    rdi,QWORD PTR [rdi+0x238]
    2843:	48 c1 e6 03          	shl    rsi,0x3
    2847:	e8 a4 e9 ff ff       	call   11f0 <realloc@plt>
    284c:	48 85 c0             	test   rax,rax
    284f:	0f 84 9c 00 00 00    	je     28f1 <resize_prob+0xe1>
    2855:	49 8b 94 24 a8 01 00 	mov    rdx,QWORD PTR [r12+0x1a8]
    285c:	00 
    285d:	49 8b b4 24 28 02 00 	mov    rsi,QWORD PTR [r12+0x228]
    2864:	00 
    2865:	48 8d 14 d2          	lea    rdx,[rdx+rdx*8]
    2869:	49 8b bc 24 38 02 00 	mov    rdi,QWORD PTR [r12+0x238]
    2870:	00 
    2871:	49 89 84 24 38 02 00 	mov    QWORD PTR [r12+0x238],rax
    2878:	00 
    2879:	48 8d 04 d0          	lea    rax,[rax+rdx*8]
    287d:	49 8b 94 24 30 02 00 	mov    rdx,QWORD PTR [r12+0x230]
    2884:	00 
    2885:	49 89 84 24 40 02 00 	mov    QWORD PTR [r12+0x240],rax
    288c:	00 
    288d:	48 8d 46 68          	lea    rax,[rsi+0x68]
    2891:	48 39 d0             	cmp    rax,rdx
    2894:	73 31                	jae    28c7 <resize_prob+0xb7>
    2896:	66 2e 0f 1f 84 00 00 	cs nop WORD PTR [rax+rax*1+0x0]
    289d:	00 00 00 
    28a0:	48 8b 48 30          	mov    rcx,QWORD PTR [rax+0x30]
    28a4:	48 85 c9             	test   rcx,rcx
    28a7:	74 15                	je     28be <resize_prob+0xae>
    28a9:	48 39 70 18          	cmp    QWORD PTR [rax+0x18],rsi
    28ad:	74 0f                	je     28be <resize_prob+0xae>
    28af:	48 29 f9             	sub    rcx,rdi
    28b2:	49 03 8c 24 38 02 00 	add    rcx,QWORD PTR [r12+0x238]
    28b9:	00 
    28ba:	48 89 48 30          	mov    QWORD PTR [rax+0x30],rcx
    28be:	48 83 c0 68          	add    rax,0x68
    28c2:	48 39 c2             	cmp    rdx,rax
    28c5:	77 d9                	ja     28a0 <resize_prob+0x90>
    28c7:	49 8b 84 24 a0 01 00 	mov    rax,QWORD PTR [r12+0x1a0]
    28ce:	00 
    28cf:	49 8b bc 24 48 02 00 	mov    rdi,QWORD PTR [r12+0x248]
    28d6:	00 
    28d7:	48 8d 34 c0          	lea    rsi,[rax+rax*8]
    28db:	48 c1 e6 03          	shl    rsi,0x3
    28df:	e8 0c e9 ff ff       	call   11f0 <realloc@plt>
    28e4:	49 89 84 24 48 02 00 	mov    QWORD PTR [r12+0x248],rax
    28eb:	00 
    28ec:	31 c0                	xor    eax,eax
    28ee:	41 5c                	pop    r12
    28f0:	c3                   	ret    
    28f1:	4c 89 e2             	mov    rdx,r12
    28f4:	48 8d 35 3d 3a 00 00 	lea    rsi,[rip+0x3a3d]        # 6338 <_IO_stdin_used+0x338>
    28fb:	bf 01 00 00 00       	mov    edi,0x1
    2900:	e8 0b e9 ff ff       	call   1210 <__printf_chk@plt>
    2905:	48 8b 3d 14 67 00 00 	mov    rdi,QWORD PTR [rip+0x6714]        # 9020 <stdout@@GLIBC_2.2.5>
    290c:	e8 bf e8 ff ff       	call   11d0 <fflush@plt>
    2911:	48 83 c8 ff          	or     rax,0xffffffffffffffff
    2915:	eb d7                	jmp    28ee <resize_prob+0xde>
    2917:	66 0f 1f 84 00 00 00 	nop    WORD PTR [rax+rax*1+0x0]
    291e:	00 00 

0000000000002920 <insert_new_arc>:
    2920:	f3 0f 1e fa          	endbr64 
    2924:	53                   	push   rbx
    2925:	48 8d 04 f6          	lea    rax,[rsi+rsi*8]
    2929:	48 8d 04 c7          	lea    rax,[rdi+rax*8]
    292d:	4c 8b 54 24 18       	mov    r10,QWORD PTR [rsp+0x18]
    2932:	48 89 50 10          	mov    QWORD PTR [rax+0x10],rdx
    2936:	44 89 10             	mov    DWORD PTR [rax],r10d
    2939:	44 89 d3             	mov    ebx,r10d
    293c:	48 89 48 18          	mov    QWORD PTR [rax+0x18],rcx
    2940:	4c 89 40 40          	mov    QWORD PTR [rax+0x40],r8
    2944:	4c 89 40 08          	mov    QWORD PTR [rax+0x8],r8
    2948:	4c 89 48 38          	mov    QWORD PTR [rax+0x38],r9
    294c:	4c 8d 56 01          	lea    r10,[rsi+0x1]
    2950:	48 85 f6             	test   rsi,rsi
    2953:	75 5a                	jne    29af <insert_new_arc+0x8f>
    2955:	eb 74                	jmp    29cb <insert_new_arc+0xab>
    2957:	66 0f 1f 84 00 00 00 	nop    WORD PTR [rax+rax*1+0x0]
    295e:	00 00 
    2960:	4c 8b 58 10          	mov    r11,QWORD PTR [rax+0x10]
    2964:	48 8d 34 f6          	lea    rsi,[rsi+rsi*8]
    2968:	48 8d 74 f7 b8       	lea    rsi,[rdi+rsi*8-0x48]
    296d:	4c 89 5e 10          	mov    QWORD PTR [rsi+0x10],r11
    2971:	4c 8b 58 18          	mov    r11,QWORD PTR [rax+0x18]
    2975:	4c 89 5e 18          	mov    QWORD PTR [rsi+0x18],r11
    2979:	4c 8b 58 08          	mov    r11,QWORD PTR [rax+0x8]
    297d:	4c 89 5e 08          	mov    QWORD PTR [rsi+0x8],r11
    2981:	4c 89 5e 40          	mov    QWORD PTR [rsi+0x40],r11
    2985:	4c 8b 58 38          	mov    r11,QWORD PTR [rax+0x38]
    2989:	4c 89 5e 38          	mov    QWORD PTR [rsi+0x38],r11
    298d:	44 8b 18             	mov    r11d,DWORD PTR [rax]
    2990:	44 89 1e             	mov    DWORD PTR [rsi],r11d
    2993:	48 89 50 10          	mov    QWORD PTR [rax+0x10],rdx
    2997:	48 89 48 18          	mov    QWORD PTR [rax+0x18],rcx
    299b:	4c 89 40 08          	mov    QWORD PTR [rax+0x8],r8
    299f:	4c 89 40 40          	mov    QWORD PTR [rax+0x40],r8
    29a3:	4c 89 48 38          	mov    QWORD PTR [rax+0x38],r9
    29a7:	89 18                	mov    DWORD PTR [rax],ebx
    29a9:	49 83 fa 01          	cmp    r10,0x1
    29ad:	74 1c                	je     29cb <insert_new_arc+0xab>
    29af:	4c 89 d6             	mov    rsi,r10
    29b2:	49 c1 ea 3f          	shr    r10,0x3f
    29b6:	49 01 f2             	add    r10,rsi
    29b9:	49 d1 fa             	sar    r10,1
    29bc:	4b 8d 04 d2          	lea    rax,[r10+r10*8]
    29c0:	48 8d 44 c7 b8       	lea    rax,[rdi+rax*8-0x48]
    29c5:	4c 39 48 38          	cmp    QWORD PTR [rax+0x38],r9
    29c9:	7c 95                	jl     2960 <insert_new_arc+0x40>
    29cb:	5b                   	pop    rbx
    29cc:	c3                   	ret    
    29cd:	0f 1f 00             	nop    DWORD PTR [rax]

00000000000029d0 <replace_weaker_arc>:
    29d0:	f3 0f 1e fa          	endbr64 
    29d4:	55                   	push   rbp
    29d5:	45 31 db             	xor    r11d,r11d
    29d8:	48 89 77 10          	mov    QWORD PTR [rdi+0x10],rsi
    29dc:	53                   	push   rbx
    29dd:	48 89 57 18          	mov    QWORD PTR [rdi+0x18],rdx
    29e1:	48 89 4f 40          	mov    QWORD PTR [rdi+0x40],rcx
    29e5:	48 8b 44 24 18       	mov    rax,QWORD PTR [rsp+0x18]
    29ea:	48 89 4f 08          	mov    QWORD PTR [rdi+0x8],rcx
    29ee:	89 07                	mov    DWORD PTR [rdi],eax
    29f0:	89 c3                	mov    ebx,eax
    29f2:	48 8b 87 c8 00 00 00 	mov    rax,QWORD PTR [rdi+0xc8]
    29f9:	4c 89 47 38          	mov    QWORD PTR [rdi+0x38],r8
    29fd:	48 39 87 80 00 00 00 	cmp    QWORD PTR [rdi+0x80],rax
    2a04:	41 0f 9e c3          	setle  r11b
    2a08:	49 83 c3 02          	add    r11,0x2
    2a0c:	4d 39 cb             	cmp    r11,r9
    2a0f:	0f 8f af 00 00 00    	jg     2ac4 <replace_weaker_arc+0xf4>
    2a15:	4b 8d 04 db          	lea    rax,[r11+r11*8]
    2a19:	48 8b 6c c7 f0       	mov    rbp,QWORD PTR [rdi+rax*8-0x10]
    2a1e:	41 ba 01 00 00 00    	mov    r10d,0x1
    2a24:	e9 89 00 00 00       	jmp    2ab2 <replace_weaker_arc+0xe2>
    2a29:	0f 1f 80 00 00 00 00 	nop    DWORD PTR [rax+0x0]
    2a30:	48 8b 68 10          	mov    rbp,QWORD PTR [rax+0x10]
    2a34:	4f 8d 14 d2          	lea    r10,[r10+r10*8]
    2a38:	4e 8d 54 d7 b8       	lea    r10,[rdi+r10*8-0x48]
    2a3d:	49 89 6a 10          	mov    QWORD PTR [r10+0x10],rbp
    2a41:	48 8b 68 18          	mov    rbp,QWORD PTR [rax+0x18]
    2a45:	49 89 6a 18          	mov    QWORD PTR [r10+0x18],rbp
    2a49:	48 8b 68 08          	mov    rbp,QWORD PTR [rax+0x8]
    2a4d:	49 89 6a 08          	mov    QWORD PTR [r10+0x8],rbp
    2a51:	49 89 6a 40          	mov    QWORD PTR [r10+0x40],rbp
    2a55:	48 8b 68 38          	mov    rbp,QWORD PTR [rax+0x38]
    2a59:	49 89 6a 38          	mov    QWORD PTR [r10+0x38],rbp
    2a5d:	8b 28                	mov    ebp,DWORD PTR [rax]
    2a5f:	41 89 2a             	mov    DWORD PTR [r10],ebp
    2a62:	48 89 70 10          	mov    QWORD PTR [rax+0x10],rsi
    2a66:	48 89 50 18          	mov    QWORD PTR [rax+0x18],rdx
    2a6a:	48 89 48 08          	mov    QWORD PTR [rax+0x8],rcx
    2a6e:	48 89 48 40          	mov    QWORD PTR [rax+0x40],rcx
    2a72:	4c 89 40 38          	mov    QWORD PTR [rax+0x38],r8
    2a76:	89 18                	mov    DWORD PTR [rax],ebx
    2a78:	4b 8d 04 1b          	lea    rax,[r11+r11*1]
    2a7c:	49 39 c1             	cmp    r9,rax
    2a7f:	7e 1d                	jle    2a9e <replace_weaker_arc+0xce>
    2a81:	4d 89 da             	mov    r10,r11
    2a84:	49 c1 e2 04          	shl    r10,0x4
    2a88:	49 01 c2             	add    r10,rax
    2a8b:	49 c1 e2 03          	shl    r10,0x3
    2a8f:	4a 8b 6c 17 f0       	mov    rbp,QWORD PTR [rdi+r10*1-0x10]
    2a94:	4a 3b 6c 17 38       	cmp    rbp,QWORD PTR [rdi+r10*1+0x38]
    2a99:	7d 11                	jge    2aac <replace_weaker_arc+0xdc>
    2a9b:	48 ff c0             	inc    rax
    2a9e:	4c 39 c8             	cmp    rax,r9
    2aa1:	7f 21                	jg     2ac4 <replace_weaker_arc+0xf4>
    2aa3:	4c 8d 14 c0          	lea    r10,[rax+rax*8]
    2aa7:	4a 8b 6c d7 f0       	mov    rbp,QWORD PTR [rdi+r10*8-0x10]
    2aac:	4d 89 da             	mov    r10,r11
    2aaf:	49 89 c3             	mov    r11,rax
    2ab2:	4b 8d 04 db          	lea    rax,[r11+r11*8]
    2ab6:	48 8d 44 c7 b8       	lea    rax,[rdi+rax*8-0x48]
    2abb:	49 39 e8             	cmp    r8,rbp
    2abe:	0f 8c 6c ff ff ff    	jl     2a30 <replace_weaker_arc+0x60>
    2ac4:	5b                   	pop    rbx
    2ac5:	5d                   	pop    rbp
    2ac6:	c3                   	ret    
    2ac7:	66 0f 1f 84 00 00 00 	nop    WORD PTR [rax+rax*1+0x0]
    2ace:	00 00 

0000000000002ad0 <calculate_max_redcost>:
    2ad0:	f3 0f 1e fa          	endbr64 
    2ad4:	48 c7 06 00 00 00 00 	mov    QWORD PTR [rsi],0x0
    2adb:	48 85 c9             	test   rcx,rcx
    2ade:	7e 2e                	jle    2b0e <calculate_max_redcost+0x3e>
    2ae0:	48 8d 3c ca          	lea    rdi,[rdx+rcx*8]
    2ae4:	31 c9                	xor    ecx,ecx
    2ae6:	eb 0b                	jmp    2af3 <calculate_max_redcost+0x23>
    2ae8:	0f 1f 84 00 00 00 00 	nop    DWORD PTR [rax+rax*1+0x0]
    2aef:	00 
    2af0:	48 8b 0e             	mov    rcx,QWORD PTR [rsi]
    2af3:	48 8b 02             	mov    rax,QWORD PTR [rdx]
    2af6:	48 8b 00             	mov    rax,QWORD PTR [rax]
    2af9:	48 8b 40 38          	mov    rax,QWORD PTR [rax+0x38]
    2afd:	48 39 c8             	cmp    rax,rcx
    2b00:	7e 03                	jle    2b05 <calculate_max_redcost+0x35>
    2b02:	48 89 06             	mov    QWORD PTR [rsi],rax
    2b05:	48 83 c2 08          	add    rdx,0x8
    2b09:	48 39 d7             	cmp    rdi,rdx
    2b0c:	75 e2                	jne    2af0 <calculate_max_redcost+0x20>
    2b0e:	c3                   	ret    
    2b0f:	90                   	nop

0000000000002b10 <switch_arcs>:
    2b10:	f3 0f 1e fa          	endbr64 
    2b14:	41 57                	push   r15
    2b16:	41 56                	push   r14
    2b18:	41 55                	push   r13
    2b1a:	41 54                	push   r12
    2b1c:	55                   	push   rbp
    2b1d:	53                   	push   rbx
    2b1e:	48 83 ec 18          	sub    rsp,0x18
    2b22:	48 83 7c 24 58 00    	cmp    QWORD PTR [rsp+0x58],0x0
    2b28:	48 89 54 24 08       	mov    QWORD PTR [rsp+0x8],rdx
    2b2d:	0f 8e 1e 01 00 00    	jle    2c51 <switch_arcs+0x141>
    2b33:	48 c7 04 24 00 00 00 	mov    QWORD PTR [rsp],0x0
    2b3a:	00 
    2b3b:	45 31 f6             	xor    r14d,r14d
    2b3e:	4d 63 e0             	movsxd r12,r8d
    2b41:	4d 89 f7             	mov    r15,r14
    2b44:	49 89 f5             	mov    r13,rsi
    2b47:	48 89 cf             	mov    rdi,rcx
    2b4a:	4d 89 e6             	mov    r14,r12
    2b4d:	0f 1f 00             	nop    DWORD PTR [rax]
    2b50:	48 8b 44 24 50       	mov    rax,QWORD PTR [rsp+0x50]
    2b55:	4a 8d 2c f5 00 00 00 	lea    rbp,[r14*8+0x0]
    2b5c:	00 
    2b5d:	4b 39 44 f5 00       	cmp    QWORD PTR [r13+r14*8+0x0],rax
    2b62:	49 89 c4             	mov    r12,rax
    2b65:	4f 0f 4e 64 f5 00    	cmovle r12,QWORD PTR [r13+r14*8+0x0]
    2b6b:	4d 85 e4             	test   r12,r12
    2b6e:	0f 8e 8c 00 00 00    	jle    2c00 <switch_arcs+0xf0>
    2b74:	48 03 6c 24 08       	add    rbp,QWORD PTR [rsp+0x8]
    2b79:	31 db                	xor    ebx,ebx
    2b7b:	eb 11                	jmp    2b8e <switch_arcs+0x7e>
    2b7d:	0f 1f 00             	nop    DWORD PTR [rax]
    2b80:	0f 84 ba 00 00 00    	je     2c40 <switch_arcs+0x130>
    2b86:	48 ff c3             	inc    rbx
    2b89:	49 39 dc             	cmp    r12,rbx
    2b8c:	74 72                	je     2c00 <switch_arcs+0xf0>
    2b8e:	48 8b 55 00          	mov    rdx,QWORD PTR [rbp+0x0]
    2b92:	48 8d 04 db          	lea    rax,[rbx+rbx*8]
    2b96:	48 8d 04 c2          	lea    rax,[rdx+rax*8]
    2b9a:	66 83 78 20 00       	cmp    WORD PTR [rax+0x20],0x0
    2b9f:	75 e5                	jne    2b86 <switch_arcs+0x76>
    2ba1:	4c 8b 40 38          	mov    r8,QWORD PTR [rax+0x38]
    2ba5:	4c 3b 47 38          	cmp    r8,QWORD PTR [rdi+0x38]
    2ba9:	7d d5                	jge    2b80 <switch_arcs+0x70>
    2bab:	4c 63 10             	movsxd r10,DWORD PTR [rax]
    2bae:	c5 fa 6f 07          	vmovdqu xmm0,XMMWORD PTR [rdi]
    2bb2:	48 8b 48 08          	mov    rcx,QWORD PTR [rax+0x8]
    2bb6:	c5 f8 11 00          	vmovups XMMWORD PTR [rax],xmm0
    2bba:	c5 fa 6f 4f 10       	vmovdqu xmm1,XMMWORD PTR [rdi+0x10]
    2bbf:	48 8b 70 10          	mov    rsi,QWORD PTR [rax+0x10]
    2bc3:	48 8b 50 18          	mov    rdx,QWORD PTR [rax+0x18]
    2bc7:	c5 f8 11 48 10       	vmovups XMMWORD PTR [rax+0x10],xmm1
    2bcc:	c5 fa 6f 57 20       	vmovdqu xmm2,XMMWORD PTR [rdi+0x20]
    2bd1:	48 ff c3             	inc    rbx
    2bd4:	c5 f8 11 50 20       	vmovups XMMWORD PTR [rax+0x20],xmm2
    2bd9:	c5 fa 6f 5f 30       	vmovdqu xmm3,XMMWORD PTR [rdi+0x30]
    2bde:	49 ff c7             	inc    r15
    2be1:	c5 f8 11 58 30       	vmovups XMMWORD PTR [rax+0x30],xmm3
    2be6:	4c 8b 5f 40          	mov    r11,QWORD PTR [rdi+0x40]
    2bea:	4c 89 58 40          	mov    QWORD PTR [rax+0x40],r11
    2bee:	41 52                	push   r10
    2bf0:	e8 db fd ff ff       	call   29d0 <replace_weaker_arc>
    2bf5:	58                   	pop    rax
    2bf6:	49 39 dc             	cmp    r12,rbx
    2bf9:	75 93                	jne    2b8e <switch_arcs+0x7e>
    2bfb:	0f 1f 44 00 00       	nop    DWORD PTR [rax+rax*1+0x0]
    2c00:	49 8d 46 01          	lea    rax,[r14+0x1]
    2c04:	48 99                	cqo    
    2c06:	48 f7 7c 24 58       	idiv   QWORD PTR [rsp+0x58]
    2c0b:	48 ff 04 24          	inc    QWORD PTR [rsp]
    2c0f:	48 8b 0c 24          	mov    rcx,QWORD PTR [rsp]
    2c13:	49 89 d6             	mov    r14,rdx
    2c16:	48 39 4c 24 58       	cmp    QWORD PTR [rsp+0x58],rcx
    2c1b:	0f 85 2f ff ff ff    	jne    2b50 <switch_arcs+0x40>
    2c21:	4d 89 fe             	mov    r14,r15
    2c24:	48 83 c4 18          	add    rsp,0x18
    2c28:	5b                   	pop    rbx
    2c29:	5d                   	pop    rbp
    2c2a:	41 5c                	pop    r12
    2c2c:	41 5d                	pop    r13
    2c2e:	4c 89 f0             	mov    rax,r14
    2c31:	41 5e                	pop    r14
    2c33:	41 5f                	pop    r15
    2c35:	c3                   	ret    
    2c36:	66 2e 0f 1f 84 00 00 	cs nop WORD PTR [rax+rax*1+0x0]
    2c3d:	00 00 00 
    2c40:	4c 63 10             	movsxd r10,DWORD PTR [rax]
    2c43:	44 3b 17             	cmp    r10d,DWORD PTR [rdi]
    2c46:	0f 8d 3a ff ff ff    	jge    2b86 <switch_arcs+0x76>
    2c4c:	e9 5d ff ff ff       	jmp    2bae <switch_arcs+0x9e>
    2c51:	45 31 f6             	xor    r14d,r14d
    2c54:	eb ce                	jmp    2c24 <switch_arcs+0x114>
    2c56:	66 2e 0f 1f 84 00 00 	cs nop WORD PTR [rax+rax*1+0x0]
    2c5d:	00 00 00 

0000000000002c60 <price_out_impl>:
    2c60:	f3 0f 1e fa          	endbr64 
    2c64:	41 57                	push   r15
    2c66:	49 89 ff             	mov    r15,rdi
    2c69:	41 56                	push   r14
    2c6b:	41 55                	push   r13
    2c6d:	41 54                	push   r12
    2c6f:	55                   	push   rbp
    2c70:	53                   	push   rbx
    2c71:	48 81 ec a8 00 00 00 	sub    rsp,0xa8
    2c78:	48 8b 9f 10 02 00 00 	mov    rbx,QWORD PTR [rdi+0x210]
    2c7f:	bf 08 00 00 00       	mov    edi,0x8
    2c84:	64 48 8b 04 25 28 00 	mov    rax,QWORD PTR fs:0x28
    2c8b:	00 00 
    2c8d:	48 89 84 24 98 00 00 	mov    QWORD PTR [rsp+0x98],rax
    2c94:	00 
    2c95:	31 c0                	xor    eax,eax
    2c97:	48 c7 84 24 90 00 00 	mov    QWORD PTR [rsp+0x90],0x0
    2c9e:	00 00 00 00 00 
    2ca3:	e8 18 e5 ff ff       	call   11c0 <malloc@plt>
    2ca8:	bf 08 00 00 00       	mov    edi,0x8
    2cad:	48 89 44 24 50       	mov    QWORD PTR [rsp+0x50],rax
    2cb2:	e8 09 e5 ff ff       	call   11c0 <malloc@plt>
    2cb7:	bf 08 00 00 00       	mov    edi,0x8
    2cbc:	49 89 c6             	mov    r14,rax
    2cbf:	e8 fc e4 ff ff       	call   11c0 <malloc@plt>
    2cc4:	bf 08 00 00 00       	mov    edi,0x8
    2cc9:	48 89 44 24 78       	mov    QWORD PTR [rsp+0x78],rax
    2cce:	e8 ed e4 ff ff       	call   11c0 <malloc@plt>
    2cd3:	48 89 44 24 28       	mov    QWORD PTR [rsp+0x28],rax
    2cd8:	48 8d 43 f1          	lea    rax,[rbx-0xf]
    2cdc:	48 89 44 24 70       	mov    QWORD PTR [rsp+0x70],rax
    2ce1:	49 8b b7 98 01 00 00 	mov    rsi,QWORD PTR [r15+0x198]
    2ce8:	49 8b 87 a8 01 00 00 	mov    rax,QWORD PTR [r15+0x1a8]
    2cef:	49 8b 8f c8 01 00 00 	mov    rcx,QWORD PTR [r15+0x1c8]
    2cf6:	48 89 74 24 20       	mov    QWORD PTR [rsp+0x20],rsi
    2cfb:	49 8b 97 a0 01 00 00 	mov    rdx,QWORD PTR [r15+0x1a0]
    2d02:	48 01 c1             	add    rcx,rax
    2d05:	48 81 fe 98 3a 00 00 	cmp    rsi,0x3a98
    2d0c:	0f 8f 8e 00 00 00    	jg     2da0 <price_out_impl+0x140>
    2d12:	48 39 ca             	cmp    rdx,rcx
    2d15:	0f 8d ba 05 00 00    	jge    32d5 <price_out_impl+0x675>
    2d1b:	48 0f af f6          	imul   rsi,rsi
    2d1f:	48 c7 84 24 88 00 00 	mov    QWORD PTR [rsp+0x88],0x0
    2d26:	00 00 00 00 00 
    2d2b:	48 c7 44 24 30 e8 03 	mov    QWORD PTR [rsp+0x30],0x3e8
    2d32:	00 00 
    2d34:	48 89 f1             	mov    rcx,rsi
    2d37:	48 c1 e9 3f          	shr    rcx,0x3f
    2d3b:	48 01 f1             	add    rcx,rsi
    2d3e:	48 d1 f9             	sar    rcx,1
    2d41:	48 01 c8             	add    rax,rcx
    2d44:	48 39 d0             	cmp    rax,rdx
    2d47:	7e 75                	jle    2dbe <price_out_impl+0x15e>
    2d49:	4c 89 ff             	mov    rdi,r15
    2d4c:	e8 bf fa ff ff       	call   2810 <resize_prob>
    2d51:	48 85 c0             	test   rax,rax
    2d54:	0f 85 26 07 00 00    	jne    3480 <price_out_impl+0x820>
    2d5a:	48 8d 35 cf eb ff ff 	lea    rsi,[rip+0xffffffffffffebcf]        # 1930 <getOriginalArcPosition>
    2d61:	4c 89 ff             	mov    rdi,r15
    2d64:	e8 57 e9 ff ff       	call   16c0 <refresh_neighbour_lists>
    2d69:	49 8b 87 98 01 00 00 	mov    rax,QWORD PTR [r15+0x198]
    2d70:	ba e8 03 00 00       	mov    edx,0x3e8
    2d75:	48 3d 99 3a 00 00    	cmp    rax,0x3a99
    2d7b:	48 89 44 24 20       	mov    QWORD PTR [rsp+0x20],rax
    2d80:	b8 d0 07 00 00       	mov    eax,0x7d0
    2d85:	48 0f 4c c2          	cmovl  rax,rdx
    2d89:	48 c7 84 24 88 00 00 	mov    QWORD PTR [rsp+0x88],0x1
    2d90:	00 01 00 00 00 
    2d95:	48 89 44 24 30       	mov    QWORD PTR [rsp+0x30],rax
    2d9a:	eb 22                	jmp    2dbe <price_out_impl+0x15e>
    2d9c:	0f 1f 40 00          	nop    DWORD PTR [rax+0x0]
    2da0:	48 39 ca             	cmp    rdx,rcx
    2da3:	0f 8c 0c 05 00 00    	jl     32b5 <price_out_impl+0x655>
    2da9:	48 c7 84 24 88 00 00 	mov    QWORD PTR [rsp+0x88],0x0
    2db0:	00 00 00 00 00 
    2db5:	48 c7 44 24 30 d0 07 	mov    QWORD PTR [rsp+0x30],0x7d0
    2dbc:	00 00 
    2dbe:	49 8b bf 48 02 00 00 	mov    rdi,QWORD PTR [r15+0x248]
    2dc5:	48 89 bc 24 80 00 00 	mov    QWORD PTR [rsp+0x80],rdi
    2dcc:	00 
    2dcd:	48 85 ff             	test   rdi,rdi
    2dd0:	0f 84 aa 06 00 00    	je     3480 <price_out_impl+0x820>
    2dd6:	48 8b 74 24 28       	mov    rsi,QWORD PTR [rsp+0x28]
    2ddb:	49 8b 87 c0 01 00 00 	mov    rax,QWORD PTR [r15+0x1c0]
    2de2:	48 89 3e             	mov    QWORD PTR [rsi],rdi
    2de5:	48 8b 7c 24 50       	mov    rdi,QWORD PTR [rsp+0x50]
    2dea:	49 c7 06 00 00 00 00 	mov    QWORD PTR [r14],0x0
    2df1:	48 c7 07 00 00 00 00 	mov    QWORD PTR [rdi],0x0
    2df8:	4d 8b 9f 40 02 00 00 	mov    r11,QWORD PTR [r15+0x240]
    2dff:	49 8b 8f a0 01 00 00 	mov    rcx,QWORD PTR [r15+0x1a0]
    2e06:	be 08 00 00 00       	mov    esi,0x8
    2e0b:	48 89 c7             	mov    rdi,rax
    2e0e:	48 89 c3             	mov    rbx,rax
    2e11:	4c 89 5c 24 08       	mov    QWORD PTR [rsp+0x8],r11
    2e16:	48 89 04 24          	mov    QWORD PTR [rsp],rax
    2e1a:	48 89 4c 24 18       	mov    QWORD PTR [rsp+0x18],rcx
    2e1f:	e8 7c e3 ff ff       	call   11a0 <calloc@plt>
    2e24:	48 8b 7c 24 78       	mov    rdi,QWORD PTR [rsp+0x78]
    2e29:	48 85 db             	test   rbx,rbx
    2e2c:	48 89 07             	mov    QWORD PTR [rdi],rax
    2e2f:	4c 8b 5c 24 08       	mov    r11,QWORD PTR [rsp+0x8]
    2e34:	48 89 de             	mov    rsi,rbx
    2e37:	7e 23                	jle    2e5c <price_out_impl+0x1fc>
    2e39:	4c 89 d9             	mov    rcx,r11
    2e3c:	48 c1 e6 03          	shl    rsi,0x3
    2e40:	31 d2                	xor    edx,edx
    2e42:	eb 07                	jmp    2e4b <price_out_impl+0x1eb>
    2e44:	0f 1f 40 00          	nop    DWORD PTR [rax+0x0]
    2e48:	48 8b 07             	mov    rax,QWORD PTR [rdi]
    2e4b:	48 89 0c 10          	mov    QWORD PTR [rax+rdx*1],rcx
    2e4f:	48 83 c2 08          	add    rdx,0x8
    2e53:	48 83 c1 48          	add    rcx,0x48
    2e57:	48 39 d6             	cmp    rsi,rdx
    2e5a:	75 ec                	jne    2e48 <price_out_impl+0x1e8>
    2e5c:	48 83 7c 24 20 00    	cmp    QWORD PTR [rsp+0x20],0x0
    2e62:	4d 8b a7 38 02 00 00 	mov    r12,QWORD PTR [r15+0x238]
    2e69:	0f 8e 22 06 00 00    	jle    3491 <price_out_impl+0x831>
    2e6f:	48 8b 44 24 20       	mov    rax,QWORD PTR [rsp+0x20]
    2e74:	45 31 d2             	xor    r10d,r10d
    2e77:	eb 1a                	jmp    2e93 <price_out_impl+0x233>
    2e79:	0f 1f 80 00 00 00 00 	nop    DWORD PTR [rax+0x0]
    2e80:	49 ff c2             	inc    r10
    2e83:	49 81 c4 d8 00 00 00 	add    r12,0xd8
    2e8a:	4c 39 d0             	cmp    rax,r10
    2e8d:	0f 84 03 06 00 00    	je     3496 <price_out_impl+0x836>
    2e93:	66 41 83 7c 24 68 ff 	cmp    WORD PTR [r12+0x68],0xffff
    2e9a:	74 e4                	je     2e80 <price_out_impl+0x220>
    2e9c:	4c 39 54 24 20       	cmp    QWORD PTR [rsp+0x20],r10
    2ea1:	0f 8e f4 05 00 00    	jle    349b <price_out_impl+0x83b>
    2ea7:	b9 01 00 00 00       	mov    ecx,0x1
    2eac:	48 c7 44 24 08 00 00 	mov    QWORD PTR [rsp+0x8],0x0
    2eb3:	00 00 
    2eb5:	48 c7 44 24 38 00 00 	mov    QWORD PTR [rsp+0x38],0x0
    2ebc:	00 00 
    2ebe:	66 89 4c 24 16       	mov    WORD PTR [rsp+0x16],cx
    2ec3:	48 c7 44 24 58 ff ff 	mov    QWORD PTR [rsp+0x58],0xffffffffffffffff
    2eca:	ff ff 
    2ecc:	4c 89 74 24 60       	mov    QWORD PTR [rsp+0x60],r14
    2ed1:	4c 89 7c 24 68       	mov    QWORD PTR [rsp+0x68],r15
    2ed6:	31 ed                	xor    ebp,ebp
    2ed8:	4d 89 de             	mov    r14,r11
    2edb:	4d 89 d7             	mov    r15,r10
    2ede:	66 90                	xchg   ax,ax
    2ee0:	4c 89 f8             	mov    rax,r15
    2ee3:	48 99                	cqo    
    2ee5:	48 f7 7c 24 30       	idiv   QWORD PTR [rsp+0x30]
    2eea:	66 83 7c 24 16 00    	cmp    WORD PTR [rsp+0x16],0x0
    2ef0:	0f 84 fa 03 00 00    	je     32f0 <price_out_impl+0x690>
    2ef6:	66 41 83 7c 24 68 ff 	cmp    WORD PTR [r12+0x68],0xffff
    2efd:	74 2a                	je     2f29 <price_out_impl+0x2c9>
    2eff:	be 10 00 00 00       	mov    esi,0x10
    2f04:	bf 01 00 00 00       	mov    edi,0x1
    2f09:	e8 92 e2 ff ff       	call   11a0 <calloc@plt>
    2f0e:	48 8b 74 24 08       	mov    rsi,QWORD PTR [rsp+0x8]
    2f13:	49 8d 54 24 48       	lea    rdx,[r12+0x48]
    2f18:	48 ff 44 24 58       	inc    QWORD PTR [rsp+0x58]
    2f1d:	48 89 70 08          	mov    QWORD PTR [rax+0x8],rsi
    2f21:	48 89 10             	mov    QWORD PTR [rax],rdx
    2f24:	48 89 44 24 08       	mov    QWORD PTR [rsp+0x8],rax
    2f29:	66 41 83 7c 24 20 ff 	cmp    WORD PTR [r12+0x20],0xffff
    2f30:	0f 84 ba 04 00 00    	je     33f0 <price_out_impl+0x790>
    2f36:	4d 8b 6c 24 18       	mov    r13,QWORD PTR [r12+0x18]
    2f3b:	48 8b 7c 24 08       	mov    rdi,QWORD PTR [rsp+0x8]
    2f40:	49 63 45 64          	movsxd rax,DWORD PTR [r13+0x64]
    2f44:	48 8b 5f 08          	mov    rbx,QWORD PTR [rdi+0x8]
    2f48:	49 2b 44 24 40       	sub    rax,QWORD PTR [r12+0x40]
    2f4d:	48 03 44 24 70       	add    rax,QWORD PTR [rsp+0x70]
    2f52:	48 85 db             	test   rbx,rbx
    2f55:	0f 84 ea 00 00 00    	je     3045 <price_out_impl+0x3e5>
    2f5b:	4c 89 7c 24 40       	mov    QWORD PTR [rsp+0x40],r15
    2f60:	4c 89 64 24 48       	mov    QWORD PTR [rsp+0x48],r12
    2f65:	4c 89 f7             	mov    rdi,r14
    2f68:	4c 8b 64 24 60       	mov    r12,QWORD PTR [rsp+0x60]
    2f6d:	4d 89 ee             	mov    r14,r13
    2f70:	49 89 c7             	mov    r15,rax
    2f73:	4c 8b 6c 24 50       	mov    r13,QWORD PTR [rsp+0x50]
    2f78:	eb 13                	jmp    2f8d <price_out_impl+0x32d>
    2f7a:	66 0f 1f 44 00 00    	nop    WORD PTR [rax+rax*1+0x0]
    2f80:	48 8b 5b 08          	mov    rbx,QWORD PTR [rbx+0x8]
    2f84:	48 85 db             	test   rbx,rbx
    2f87:	0f 84 ab 00 00 00    	je     3038 <price_out_impl+0x3d8>
    2f8d:	48 8b 0b             	mov    rcx,QWORD PTR [rbx]
    2f90:	49 89 e9             	mov    r9,rbp
    2f93:	48 8b 71 10          	mov    rsi,QWORD PTR [rcx+0x10]
    2f97:	48 ff c5             	inc    rbp
    2f9a:	48 63 56 64          	movsxd rdx,DWORD PTR [rsi+0x64]
    2f9e:	48 03 51 40          	add    rdx,QWORD PTR [rcx+0x40]
    2fa2:	4c 39 fa             	cmp    rdx,r15
    2fa5:	7f d9                	jg     2f80 <price_out_impl+0x320>
    2fa7:	41 b8 1e 00 00 00    	mov    r8d,0x1e
    2fad:	4c 2b 06             	sub    r8,QWORD PTR [rsi]
    2fb0:	4d 03 06             	add    r8,QWORD PTR [r14]
    2fb3:	79 cb                	jns    2f80 <price_out_impl+0x320>
    2fb5:	4d 8b 5d 00          	mov    r11,QWORD PTR [r13+0x0]
    2fb9:	4c 39 1c 24          	cmp    QWORD PTR [rsp],r11
    2fbd:	0f 8f f5 03 00 00    	jg     33b8 <price_out_impl+0x758>
    2fc3:	49 8b 14 24          	mov    rdx,QWORD PTR [r12]
    2fc7:	4c 39 47 38          	cmp    QWORD PTR [rdi+0x38],r8
    2fcb:	0f 8f 6f 03 00 00    	jg     3340 <price_out_impl+0x6e0>
    2fd1:	48 8d 4a 01          	lea    rcx,[rdx+0x1]
    2fd5:	48 8b 44 24 28       	mov    rax,QWORD PTR [rsp+0x28]
    2fda:	48 8d 14 d2          	lea    rdx,[rdx+rdx*8]
    2fde:	48 c1 e2 03          	shl    rdx,0x3
    2fe2:	49 89 0c 24          	mov    QWORD PTR [r12],rcx
    2fe6:	48 03 10             	add    rdx,QWORD PTR [rax]
    2fe9:	8d 4d ff             	lea    ecx,[rbp-0x1]
    2fec:	48 89 72 10          	mov    QWORD PTR [rdx+0x10],rsi
    2ff0:	4c 89 72 18          	mov    QWORD PTR [rdx+0x18],r14
    2ff4:	48 c7 42 40 1e 00 00 	mov    QWORD PTR [rdx+0x40],0x1e
    2ffb:	00 
    2ffc:	48 c7 42 08 1e 00 00 	mov    QWORD PTR [rdx+0x8],0x1e
    3003:	00 
    3004:	4c 89 42 38          	mov    QWORD PTR [rdx+0x38],r8
    3008:	89 0a                	mov    DWORD PTR [rdx],ecx
    300a:	48 ff 44 24 38       	inc    QWORD PTR [rsp+0x38]
    300f:	49 8b 14 24          	mov    rdx,QWORD PTR [r12]
    3013:	48 39 54 24 18       	cmp    QWORD PTR [rsp+0x18],rdx
    3018:	0f 85 62 ff ff ff    	jne    2f80 <price_out_impl+0x320>
    301e:	49 c7 04 24 00 00 00 	mov    QWORD PTR [r12],0x0
    3025:	00 
    3026:	48 8b 5b 08          	mov    rbx,QWORD PTR [rbx+0x8]
    302a:	48 85 db             	test   rbx,rbx
    302d:	0f 85 5a ff ff ff    	jne    2f8d <price_out_impl+0x32d>
    3033:	0f 1f 44 00 00       	nop    DWORD PTR [rax+rax*1+0x0]
    3038:	4c 8b 7c 24 40       	mov    r15,QWORD PTR [rsp+0x40]
    303d:	4c 8b 64 24 48       	mov    r12,QWORD PTR [rsp+0x48]
    3042:	49 89 fe             	mov    r14,rdi
    3045:	49 ff c7             	inc    r15
    3048:	49 81 c4 d8 00 00 00 	add    r12,0xd8
    304f:	4c 39 7c 24 20       	cmp    QWORD PTR [rsp+0x20],r15
    3054:	0f 85 86 fe ff ff    	jne    2ee0 <price_out_impl+0x280>
    305a:	48 8b 44 24 38       	mov    rax,QWORD PTR [rsp+0x38]
    305f:	4d 89 f3             	mov    r11,r14
    3062:	4c 8b 74 24 60       	mov    r14,QWORD PTR [rsp+0x60]
    3067:	66 83 7c 24 16 00    	cmp    WORD PTR [rsp+0x16],0x0
    306d:	49 89 06             	mov    QWORD PTR [r14],rax
    3070:	4c 8b 7c 24 68       	mov    r15,QWORD PTR [rsp+0x68]
    3075:	75 37                	jne    30ae <price_out_impl+0x44e>
    3077:	4c 8b 0c 24          	mov    r9,QWORD PTR [rsp]
    307b:	48 8b 5c 24 18       	mov    rbx,QWORD PTR [rsp+0x18]
    3080:	4c 8b 64 24 28       	mov    r12,QWORD PTR [rsp+0x28]
    3085:	4c 89 dd             	mov    rbp,r11
    3088:	0f 1f 84 00 00 00 00 	nop    DWORD PTR [rax+rax*1+0x0]
    308f:	00 
    3090:	6a 01                	push   0x1
    3092:	48 89 e9             	mov    rcx,rbp
    3095:	4c 89 f6             	mov    rsi,r14
    3098:	53                   	push   rbx
    3099:	45 31 c0             	xor    r8d,r8d
    309c:	4c 89 e2             	mov    rdx,r12
    309f:	4c 89 ff             	mov    rdi,r15
    30a2:	e8 69 fa ff ff       	call   2b10 <switch_arcs>
    30a7:	59                   	pop    rcx
    30a8:	5e                   	pop    rsi
    30a9:	48 85 c0             	test   rax,rax
    30ac:	75 e2                	jne    3090 <price_out_impl+0x430>
    30ae:	48 8b 44 24 08       	mov    rax,QWORD PTR [rsp+0x8]
    30b3:	48 8b 7c 24 08       	mov    rdi,QWORD PTR [rsp+0x8]
    30b8:	48 8b 68 08          	mov    rbp,QWORD PTR [rax+0x8]
    30bc:	48 85 ed             	test   rbp,rbp
    30bf:	75 12                	jne    30d3 <price_out_impl+0x473>
    30c1:	e9 b2 03 00 00       	jmp    3478 <price_out_impl+0x818>
    30c6:	66 2e 0f 1f 84 00 00 	cs nop WORD PTR [rax+rax*1+0x0]
    30cd:	00 00 00 
    30d0:	48 89 c5             	mov    rbp,rax
    30d3:	e8 78 e0 ff ff       	call   1150 <free@plt>
    30d8:	48 8b 45 08          	mov    rax,QWORD PTR [rbp+0x8]
    30dc:	48 89 ef             	mov    rdi,rbp
    30df:	48 85 c0             	test   rax,rax
    30e2:	75 ec                	jne    30d0 <price_out_impl+0x470>
    30e4:	48 89 ef             	mov    rdi,rbp
    30e7:	e8 64 e0 ff ff       	call   1150 <free@plt>
    30ec:	48 8b 5c 24 50       	mov    rbx,QWORD PTR [rsp+0x50]
    30f1:	48 8b 6c 24 78       	mov    rbp,QWORD PTR [rsp+0x78]
    30f6:	48 8b 33             	mov    rsi,QWORD PTR [rbx]
    30f9:	48 8b 7d 00          	mov    rdi,QWORD PTR [rbp+0x0]
    30fd:	48 8d 0d ac f3 ff ff 	lea    rcx,[rip+0xfffffffffffff3ac]        # 24b0 <arc_compare>
    3104:	ba 08 00 00 00       	mov    edx,0x8
    3109:	e8 42 17 00 00       	call   4850 <spec_qsort>
    310e:	48 8d b4 24 90 00 00 	lea    rsi,[rsp+0x90]
    3115:	00 
    3116:	48 89 e9             	mov    rcx,rbp
    3119:	48 89 da             	mov    rdx,rbx
    311c:	4c 89 ff             	mov    rdi,r15
    311f:	e8 5c f5 ff ff       	call   2680 <marc_arcs>
    3124:	48 8b 7d 00          	mov    rdi,QWORD PTR [rbp+0x0]
    3128:	e8 23 e0 ff ff       	call   1150 <free@plt>
    312d:	48 8b 03             	mov    rax,QWORD PTR [rbx]
    3130:	48 85 c0             	test   rax,rax
    3133:	0f 84 cf 00 00 00    	je     3208 <price_out_impl+0x5a8>
    3139:	49 8b 9f 40 02 00 00 	mov    rbx,QWORD PTR [r15+0x240]
    3140:	48 8d 04 c0          	lea    rax,[rax+rax*8]
    3144:	48 83 bc 24 88 00 00 	cmp    QWORD PTR [rsp+0x88],0x0
    314b:	00 00 
    314d:	48 8d 2c c3          	lea    rbp,[rbx+rax*8]
    3151:	0f 85 a3 02 00 00    	jne    33fa <price_out_impl+0x79a>
    3157:	4c 8b a4 24 80 00 00 	mov    r12,QWORD PTR [rsp+0x80]
    315e:	00 
    315f:	48 39 eb             	cmp    rbx,rbp
    3162:	75 19                	jne    317d <price_out_impl+0x51d>
    3164:	e9 9f 00 00 00       	jmp    3208 <price_out_impl+0x5a8>
    3169:	0f 1f 80 00 00 00 00 	nop    DWORD PTR [rax+0x0]
    3170:	48 83 c3 48          	add    rbx,0x48
    3174:	48 39 dd             	cmp    rbp,rbx
    3177:	0f 84 8b 00 00 00    	je     3208 <price_out_impl+0x5a8>
    317d:	48 83 7b 38 01       	cmp    QWORD PTR [rbx+0x38],0x1
    3182:	75 ec                	jne    3170 <price_out_impl+0x510>
    3184:	b8 01 00 00 00       	mov    eax,0x1
    3189:	66 89 43 20          	mov    WORD PTR [rbx+0x20],ax
    318d:	48 c7 43 38 00 00 00 	mov    QWORD PTR [rbx+0x38],0x0
    3194:	00 
    3195:	48 8b 43 10          	mov    rax,QWORD PTR [rbx+0x10]
    3199:	4c 89 ff             	mov    rdi,r15
    319c:	48 8b 50 38          	mov    rdx,QWORD PTR [rax+0x38]
    31a0:	48 89 53 28          	mov    QWORD PTR [rbx+0x28],rdx
    31a4:	48 89 58 38          	mov    QWORD PTR [rax+0x38],rbx
    31a8:	48 8b 43 18          	mov    rax,QWORD PTR [rbx+0x18]
    31ac:	48 8b 50 40          	mov    rdx,QWORD PTR [rax+0x40]
    31b0:	48 89 53 30          	mov    QWORD PTR [rbx+0x30],rdx
    31b4:	48 89 58 40          	mov    QWORD PTR [rax+0x40],rbx
    31b8:	48 83 c3 48          	add    rbx,0x48
    31bc:	48 63 73 b8          	movsxd rsi,DWORD PTR [rbx-0x48]
    31c0:	e8 1b e7 ff ff       	call   18e0 <getArcPosition>
    31c5:	48 8d 04 c0          	lea    rax,[rax+rax*8]
    31c9:	c5 fa 6f 63 b8       	vmovdqu xmm4,XMMWORD PTR [rbx-0x48]
    31ce:	49 8d 04 c4          	lea    rax,[r12+rax*8]
    31d2:	c5 f8 11 20          	vmovups XMMWORD PTR [rax],xmm4
    31d6:	c5 fa 6f 6b c8       	vmovdqu xmm5,XMMWORD PTR [rbx-0x38]
    31db:	c5 f8 11 68 10       	vmovups XMMWORD PTR [rax+0x10],xmm5
    31e0:	c5 fa 6f 73 d8       	vmovdqu xmm6,XMMWORD PTR [rbx-0x28]
    31e5:	c5 f8 11 70 20       	vmovups XMMWORD PTR [rax+0x20],xmm6
    31ea:	c5 fa 6f 7b e8       	vmovdqu xmm7,XMMWORD PTR [rbx-0x18]
    31ef:	c5 f8 11 78 30       	vmovups XMMWORD PTR [rax+0x30],xmm7
    31f4:	48 8b 53 f8          	mov    rdx,QWORD PTR [rbx-0x8]
    31f8:	48 89 50 40          	mov    QWORD PTR [rax+0x40],rdx
    31fc:	48 39 dd             	cmp    rbp,rbx
    31ff:	0f 85 78 ff ff ff    	jne    317d <price_out_impl+0x51d>
    3205:	0f 1f 00             	nop    DWORD PTR [rax]
    3208:	48 8b 84 24 90 00 00 	mov    rax,QWORD PTR [rsp+0x90]
    320f:	00 
    3210:	48 8d 35 c9 e6 ff ff 	lea    rsi,[rip+0xffffffffffffe6c9]        # 18e0 <getArcPosition>
    3217:	49 01 87 b8 01 00 00 	add    QWORD PTR [r15+0x1b8],rax
    321e:	49 29 87 c0 01 00 00 	sub    QWORD PTR [r15+0x1c0],rax
    3225:	49 8b 97 a8 01 00 00 	mov    rdx,QWORD PTR [r15+0x1a8]
    322c:	4c 89 ff             	mov    rdi,r15
    322f:	e8 7c f3 ff ff       	call   25b0 <refreshPositions>
    3234:	49 8b 87 a8 01 00 00 	mov    rax,QWORD PTR [r15+0x1a8]
    323b:	4c 8b a4 24 90 00 00 	mov    r12,QWORD PTR [rsp+0x90]
    3242:	00 
    3243:	48 8b 7c 24 50       	mov    rdi,QWORD PTR [rsp+0x50]
    3248:	4c 01 e0             	add    rax,r12
    324b:	48 8d 14 c0          	lea    rdx,[rax+rax*8]
    324f:	49 89 87 a8 01 00 00 	mov    QWORD PTR [r15+0x1a8],rax
    3256:	49 8b 87 38 02 00 00 	mov    rax,QWORD PTR [r15+0x238]
    325d:	48 8d 04 d0          	lea    rax,[rax+rdx*8]
    3261:	49 89 87 40 02 00 00 	mov    QWORD PTR [r15+0x240],rax
    3268:	e8 e3 de ff ff       	call   1150 <free@plt>
    326d:	4c 89 f7             	mov    rdi,r14
    3270:	e8 db de ff ff       	call   1150 <free@plt>
    3275:	48 8b 7c 24 78       	mov    rdi,QWORD PTR [rsp+0x78]
    327a:	e8 d1 de ff ff       	call   1150 <free@plt>
    327f:	48 8b 7c 24 28       	mov    rdi,QWORD PTR [rsp+0x28]
    3284:	e8 c7 de ff ff       	call   1150 <free@plt>
    3289:	48 8b 84 24 98 00 00 	mov    rax,QWORD PTR [rsp+0x98]
    3290:	00 
    3291:	64 48 33 04 25 28 00 	xor    rax,QWORD PTR fs:0x28
    3298:	00 00 
    329a:	0f 85 ec 01 00 00    	jne    348c <price_out_impl+0x82c>
    32a0:	48 81 c4 a8 00 00 00 	add    rsp,0xa8
    32a7:	5b                   	pop    rbx
    32a8:	5d                   	pop    rbp
    32a9:	4c 89 e0             	mov    rax,r12
    32ac:	41 5c                	pop    r12
    32ae:	41 5d                	pop    r13
    32b0:	41 5e                	pop    r14
    32b2:	41 5f                	pop    r15
    32b4:	c3                   	ret    
    32b5:	48 8b 7c 24 20       	mov    rdi,QWORD PTR [rsp+0x20]
    32ba:	48 89 f9             	mov    rcx,rdi
    32bd:	48 0f af cf          	imul   rcx,rdi
    32c1:	48 d1 f9             	sar    rcx,1
    32c4:	48 01 c8             	add    rax,rcx
    32c7:	48 39 d0             	cmp    rax,rdx
    32ca:	0f 8e d9 fa ff ff    	jle    2da9 <price_out_impl+0x149>
    32d0:	e9 74 fa ff ff       	jmp    2d49 <price_out_impl+0xe9>
    32d5:	48 c7 84 24 88 00 00 	mov    QWORD PTR [rsp+0x88],0x0
    32dc:	00 00 00 00 00 
    32e1:	48 c7 44 24 30 e8 03 	mov    QWORD PTR [rsp+0x30],0x3e8
    32e8:	00 00 
    32ea:	e9 cf fa ff ff       	jmp    2dbe <price_out_impl+0x15e>
    32ef:	90                   	nop
    32f0:	48 85 d2             	test   rdx,rdx
    32f3:	0f 85 fd fb ff ff    	jne    2ef6 <price_out_impl+0x296>
    32f9:	48 8b 5c 24 60       	mov    rbx,QWORD PTR [rsp+0x60]
    32fe:	48 8b 4c 24 38       	mov    rcx,QWORD PTR [rsp+0x38]
    3303:	45 31 c0             	xor    r8d,r8d
    3306:	48 89 0b             	mov    QWORD PTR [rbx],rcx
    3309:	6a 01                	push   0x1
    330b:	4c 89 f1             	mov    rcx,r14
    330e:	48 89 de             	mov    rsi,rbx
    3311:	ff 74 24 20          	push   QWORD PTR [rsp+0x20]
    3315:	4c 8b 4c 24 10       	mov    r9,QWORD PTR [rsp+0x10]
    331a:	48 8b 54 24 38       	mov    rdx,QWORD PTR [rsp+0x38]
    331f:	48 8b 7c 24 78       	mov    rdi,QWORD PTR [rsp+0x78]
    3324:	e8 e7 f7 ff ff       	call   2b10 <switch_arcs>
    3329:	48 c7 03 00 00 00 00 	mov    QWORD PTR [rbx],0x0
    3330:	58                   	pop    rax
    3331:	5a                   	pop    rdx
    3332:	48 c7 44 24 38 00 00 	mov    QWORD PTR [rsp+0x38],0x0
    3339:	00 00 
    333b:	e9 b6 fb ff ff       	jmp    2ef6 <price_out_impl+0x296>
    3340:	48 8b 44 24 28       	mov    rax,QWORD PTR [rsp+0x28]
    3345:	48 8d 14 d2          	lea    rdx,[rdx+rdx*8]
    3349:	c5 fa 6f 07          	vmovdqu xmm0,XMMWORD PTR [rdi]
    334d:	48 c1 e2 03          	shl    rdx,0x3
    3351:	48 03 10             	add    rdx,QWORD PTR [rax]
    3354:	c5 f8 11 02          	vmovups XMMWORD PTR [rdx],xmm0
    3358:	c5 fa 6f 4f 10       	vmovdqu xmm1,XMMWORD PTR [rdi+0x10]
    335d:	48 ff 44 24 38       	inc    QWORD PTR [rsp+0x38]
    3362:	c5 f8 11 4a 10       	vmovups XMMWORD PTR [rdx+0x10],xmm1
    3367:	c5 fa 6f 57 20       	vmovdqu xmm2,XMMWORD PTR [rdi+0x20]
    336c:	48 83 ec 08          	sub    rsp,0x8
    3370:	c5 f8 11 52 20       	vmovups XMMWORD PTR [rdx+0x20],xmm2
    3375:	c5 fa 6f 5f 30       	vmovdqu xmm3,XMMWORD PTR [rdi+0x30]
    337a:	c5 f8 11 5a 30       	vmovups XMMWORD PTR [rdx+0x30],xmm3
    337f:	48 8b 4f 40          	mov    rcx,QWORD PTR [rdi+0x40]
    3383:	48 89 4a 40          	mov    QWORD PTR [rdx+0x40],rcx
    3387:	4c 89 f2             	mov    rdx,r14
    338a:	b9 1e 00 00 00       	mov    ecx,0x1e
    338f:	49 ff 04 24          	inc    QWORD PTR [r12]
    3393:	41 51                	push   r9
    3395:	4c 8b 4c 24 10       	mov    r9,QWORD PTR [rsp+0x10]
    339a:	e8 31 f6 ff ff       	call   29d0 <replace_weaker_arc>
    339f:	41 58                	pop    r8
    33a1:	41 59                	pop    r9
    33a3:	45 31 d2             	xor    r10d,r10d
    33a6:	66 44 89 54 24 16    	mov    WORD PTR [rsp+0x16],r10w
    33ac:	49 8b 14 24          	mov    rdx,QWORD PTR [r12]
    33b0:	e9 5e fc ff ff       	jmp    3013 <price_out_impl+0x3b3>
    33b5:	0f 1f 00             	nop    DWORD PTR [rax]
    33b8:	41 51                	push   r9
    33ba:	48 89 f2             	mov    rdx,rsi
    33bd:	4d 89 c1             	mov    r9,r8
    33c0:	48 8b 44 24 70       	mov    rax,QWORD PTR [rsp+0x70]
    33c5:	4c 89 de             	mov    rsi,r11
    33c8:	ff b0 a8 01 00 00    	push   QWORD PTR [rax+0x1a8]
    33ce:	41 b8 1e 00 00 00    	mov    r8d,0x1e
    33d4:	4c 89 f1             	mov    rcx,r14
    33d7:	e8 44 f5 ff ff       	call   2920 <insert_new_arc>
    33dc:	49 ff 45 00          	inc    QWORD PTR [r13+0x0]
    33e0:	49 8b 14 24          	mov    rdx,QWORD PTR [r12]
    33e4:	41 5b                	pop    r11
    33e6:	58                   	pop    rax
    33e7:	e9 27 fc ff ff       	jmp    3013 <price_out_impl+0x3b3>
    33ec:	0f 1f 40 00          	nop    DWORD PTR [rax+0x0]
    33f0:	48 03 6c 24 58       	add    rbp,QWORD PTR [rsp+0x58]
    33f5:	e9 4b fc ff ff       	jmp    3045 <price_out_impl+0x3e5>
    33fa:	48 39 eb             	cmp    rbx,rbp
    33fd:	0f 84 05 fe ff ff    	je     3208 <price_out_impl+0x5a8>
    3403:	4c 8b a4 24 80 00 00 	mov    r12,QWORD PTR [rsp+0x80]
    340a:	00 
    340b:	eb 10                	jmp    341d <price_out_impl+0x7bd>
    340d:	0f 1f 00             	nop    DWORD PTR [rax]
    3410:	48 83 c3 48          	add    rbx,0x48
    3414:	48 39 dd             	cmp    rbp,rbx
    3417:	0f 84 eb fd ff ff    	je     3208 <price_out_impl+0x5a8>
    341d:	48 83 7b 38 01       	cmp    QWORD PTR [rbx+0x38],0x1
    3422:	75 ec                	jne    3410 <price_out_impl+0x7b0>
    3424:	ba 01 00 00 00       	mov    edx,0x1
    3429:	66 89 53 20          	mov    WORD PTR [rbx+0x20],dx
    342d:	48 c7 43 38 00 00 00 	mov    QWORD PTR [rbx+0x38],0x0
    3434:	00 
    3435:	48 63 33             	movsxd rsi,DWORD PTR [rbx]
    3438:	4c 89 ff             	mov    rdi,r15
    343b:	e8 a0 e4 ff ff       	call   18e0 <getArcPosition>
    3440:	48 8d 04 c0          	lea    rax,[rax+rax*8]
    3444:	c5 fa 6f 23          	vmovdqu xmm4,XMMWORD PTR [rbx]
    3448:	49 8d 04 c4          	lea    rax,[r12+rax*8]
    344c:	c5 f8 11 20          	vmovups XMMWORD PTR [rax],xmm4
    3450:	c5 fa 6f 6b 10       	vmovdqu xmm5,XMMWORD PTR [rbx+0x10]
    3455:	c5 f8 11 68 10       	vmovups XMMWORD PTR [rax+0x10],xmm5
    345a:	c5 fa 6f 73 20       	vmovdqu xmm6,XMMWORD PTR [rbx+0x20]
    345f:	c5 f8 11 70 20       	vmovups XMMWORD PTR [rax+0x20],xmm6
    3464:	c5 fa 6f 7b 30       	vmovdqu xmm7,XMMWORD PTR [rbx+0x30]
    3469:	c5 f8 11 78 30       	vmovups XMMWORD PTR [rax+0x30],xmm7
    346e:	48 8b 53 40          	mov    rdx,QWORD PTR [rbx+0x40]
    3472:	48 89 50 40          	mov    QWORD PTR [rax+0x40],rdx
    3476:	eb 98                	jmp    3410 <price_out_impl+0x7b0>
    3478:	48 89 c5             	mov    rbp,rax
    347b:	e9 64 fc ff ff       	jmp    30e4 <price_out_impl+0x484>
    3480:	49 c7 c4 ff ff ff ff 	mov    r12,0xffffffffffffffff
    3487:	e9 fd fd ff ff       	jmp    3289 <price_out_impl+0x629>
    348c:	e8 df dc ff ff       	call   1170 <__stack_chk_fail@plt>
    3491:	e9 d7 dd ff ff       	jmp    126d <price_out_impl.cold>
    3496:	e9 d2 dd ff ff       	jmp    126d <price_out_impl.cold>
    349b:	e9 cd dd ff ff       	jmp    126d <price_out_impl.cold>

00000000000034a0 <suspend_impl>:
    34a0:	f3 0f 1e fa          	endbr64 
    34a4:	41 57                	push   r15
    34a6:	49 89 d0             	mov    r8,rdx
    34a9:	41 56                	push   r14
    34ab:	41 55                	push   r13
    34ad:	41 54                	push   r12
    34af:	55                   	push   rbp
    34b0:	48 89 fd             	mov    rbp,rdi
    34b3:	53                   	push   rbx
    34b4:	48 89 f3             	mov    rbx,rsi
    34b7:	48 be cf f7 53 e3 a5 	movabs rsi,0x20c49ba5e353f7cf
    34be:	9b c4 20 
    34c1:	48 83 ec 08          	sub    rsp,0x8
    34c5:	48 c7 87 80 02 00 00 	mov    QWORD PTR [rdi+0x280],0xfa0
    34cc:	a0 0f 00 00 
    34d0:	48 8b bf a8 01 00 00 	mov    rdi,QWORD PTR [rdi+0x1a8]
    34d7:	48 8d 4f ff          	lea    rcx,[rdi-0x1]
    34db:	48 89 c8             	mov    rax,rcx
    34de:	48 f7 ee             	imul   rsi
    34e1:	48 c1 f9 3f          	sar    rcx,0x3f
    34e5:	48 89 f8             	mov    rax,rdi
    34e8:	48 c1 fa 09          	sar    rdx,0x9
    34ec:	48 29 ca             	sub    rdx,rcx
    34ef:	48 8d 4a 01          	lea    rcx,[rdx+0x1]
    34f3:	48 f7 ee             	imul   rsi
    34f6:	48 89 f8             	mov    rax,rdi
    34f9:	48 c1 f8 3f          	sar    rax,0x3f
    34fd:	48 c1 fa 09          	sar    rdx,0x9
    3501:	48 29 c2             	sub    rdx,rax
    3504:	48 69 d2 a0 0f 00 00 	imul   rdx,rdx,0xfa0
    350b:	48 89 ce             	mov    rsi,rcx
    350e:	48 89 8d 70 02 00 00 	mov    QWORD PTR [rbp+0x270],rcx
    3515:	48 29 fa             	sub    rdx,rdi
    3518:	48 8d 82 a0 0f 00 00 	lea    rax,[rdx+0xfa0]
    351f:	48 29 c6             	sub    rsi,rax
    3522:	48 89 b5 78 02 00 00 	mov    QWORD PTR [rbp+0x278],rsi
    3529:	79 26                	jns    3551 <suspend_impl+0xb1>
    352b:	48 89 f0             	mov    rax,rsi
    352e:	ba 9f 0f 00 00       	mov    edx,0xf9f
    3533:	0f 1f 44 00 00       	nop    DWORD PTR [rax+rax*1+0x0]
    3538:	48 89 d6             	mov    rsi,rdx
    353b:	48 ff ca             	dec    rdx
    353e:	48 01 c8             	add    rax,rcx
    3541:	78 f5                	js     3538 <suspend_impl+0x98>
    3543:	48 89 85 78 02 00 00 	mov    QWORD PTR [rbp+0x278],rax
    354a:	48 89 b5 80 02 00 00 	mov    QWORD PTR [rbp+0x280],rsi
    3551:	4c 8b b5 b8 01 00 00 	mov    r14,QWORD PTR [rbp+0x1b8]
    3558:	4d 85 c0             	test   r8,r8
    355b:	0f 85 94 00 00 00    	jne    35f5 <suspend_impl+0x155>
    3561:	49 89 fd             	mov    r13,rdi
    3564:	4d 29 f5             	sub    r13,r14
    3567:	4d 89 ec             	mov    r12,r13
    356a:	45 31 f6             	xor    r14d,r14d
    356d:	4c 39 ef             	cmp    rdi,r13
    3570:	7f 24                	jg     3596 <suspend_impl+0xf6>
    3572:	66 0f 1f 44 00 00    	nop    WORD PTR [rax+rax*1+0x0]
    3578:	45 31 f6             	xor    r14d,r14d
    357b:	e9 5f 01 00 00       	jmp    36df <suspend_impl+0x23f>
    3580:	ba ff ff ff ff       	mov    edx,0xffffffff
    3585:	89 10                	mov    DWORD PTR [rax],edx
    3587:	49 ff c4             	inc    r12
    358a:	49 ff c6             	inc    r14
    358d:	4c 39 a5 a8 01 00 00 	cmp    QWORD PTR [rbp+0x1a8],r12
    3594:	7e 5f                	jle    35f5 <suspend_impl+0x155>
    3596:	4c 89 e6             	mov    rsi,r12
    3599:	48 89 ef             	mov    rdi,rbp
    359c:	4c 8b bd 38 02 00 00 	mov    r15,QWORD PTR [rbp+0x238]
    35a3:	e8 38 e3 ff ff       	call   18e0 <getArcPosition>
    35a8:	48 8d 04 c0          	lea    rax,[rax+rax*8]
    35ac:	49 8d 04 c7          	lea    rax,[r15+rax*8]
    35b0:	0f b7 48 20          	movzx  ecx,WORD PTR [rax+0x20]
    35b4:	66 83 f9 01          	cmp    cx,0x1
    35b8:	0f 84 3a 01 00 00    	je     36f8 <suspend_impl+0x258>
    35be:	48 c7 c2 fe ff ff ff 	mov    rdx,0xfffffffffffffffe
    35c5:	66 85 c9             	test   cx,cx
    35c8:	75 12                	jne    35dc <suspend_impl+0x13c>
    35ca:	48 8b 48 10          	mov    rcx,QWORD PTR [rax+0x10]
    35ce:	48 39 41 30          	cmp    QWORD PTR [rcx+0x30],rax
    35d2:	74 08                	je     35dc <suspend_impl+0x13c>
    35d4:	48 8b 48 18          	mov    rcx,QWORD PTR [rax+0x18]
    35d8:	48 89 41 30          	mov    QWORD PTR [rcx+0x30],rax
    35dc:	48 39 da             	cmp    rdx,rbx
    35df:	7f 9f                	jg     3580 <suspend_impl+0xe0>
    35e1:	44 89 ea             	mov    edx,r13d
    35e4:	89 10                	mov    DWORD PTR [rax],edx
    35e6:	49 ff c4             	inc    r12
    35e9:	49 ff c5             	inc    r13
    35ec:	4c 39 a5 a8 01 00 00 	cmp    QWORD PTR [rbp+0x1a8],r12
    35f3:	7f a1                	jg     3596 <suspend_impl+0xf6>
    35f5:	4d 85 f6             	test   r14,r14
    35f8:	0f 84 7a ff ff ff    	je     3578 <suspend_impl+0xd8>
    35fe:	4c 8b 85 a8 01 00 00 	mov    r8,QWORD PTR [rbp+0x1a8]
    3605:	48 be cf f7 53 e3 a5 	movabs rsi,0x20c49ba5e353f7cf
    360c:	9b c4 20 
    360f:	4c 89 c7             	mov    rdi,r8
    3612:	4c 29 f7             	sub    rdi,r14
    3615:	48 8d 4f ff          	lea    rcx,[rdi-0x1]
    3619:	48 89 c8             	mov    rax,rcx
    361c:	48 f7 ee             	imul   rsi
    361f:	48 c1 f9 3f          	sar    rcx,0x3f
    3623:	48 89 f8             	mov    rax,rdi
    3626:	48 c1 fa 09          	sar    rdx,0x9
    362a:	48 29 ca             	sub    rdx,rcx
    362d:	48 8d 4a 01          	lea    rcx,[rdx+0x1]
    3631:	48 f7 ee             	imul   rsi
    3634:	48 89 f8             	mov    rax,rdi
    3637:	48 c1 f8 3f          	sar    rax,0x3f
    363b:	48 c1 fa 09          	sar    rdx,0x9
    363f:	48 29 c2             	sub    rdx,rax
    3642:	48 69 d2 a0 0f 00 00 	imul   rdx,rdx,0xfa0
    3649:	4c 29 b5 b8 01 00 00 	sub    QWORD PTR [rbp+0x1b8],r14
    3650:	4c 01 b5 c0 01 00 00 	add    QWORD PTR [rbp+0x1c0],r14
    3657:	48 c7 85 80 02 00 00 	mov    QWORD PTR [rbp+0x280],0xfa0
    365e:	a0 0f 00 00 
    3662:	48 89 8d 70 02 00 00 	mov    QWORD PTR [rbp+0x270],rcx
    3669:	48 89 c8             	mov    rax,rcx
    366c:	48 29 d7             	sub    rdi,rdx
    366f:	74 08                	je     3679 <suspend_impl+0x1d9>
    3671:	48 8d 84 39 60 f0 ff 	lea    rax,[rcx+rdi*1-0xfa0]
    3678:	ff 
    3679:	48 89 85 78 02 00 00 	mov    QWORD PTR [rbp+0x278],rax
    3680:	48 85 c0             	test   rax,rax
    3683:	79 24                	jns    36a9 <suspend_impl+0x209>
    3685:	ba 9f 0f 00 00       	mov    edx,0xf9f
    368a:	66 0f 1f 44 00 00    	nop    WORD PTR [rax+rax*1+0x0]
    3690:	48 89 d6             	mov    rsi,rdx
    3693:	48 ff ca             	dec    rdx
    3696:	48 01 c8             	add    rax,rcx
    3699:	78 f5                	js     3690 <suspend_impl+0x1f0>
    369b:	48 89 85 78 02 00 00 	mov    QWORD PTR [rbp+0x278],rax
    36a2:	48 89 b5 80 02 00 00 	mov    QWORD PTR [rbp+0x280],rsi
    36a9:	4c 8d 25 80 e2 ff ff 	lea    r12,[rip+0xffffffffffffe280]        # 1930 <getOriginalArcPosition>
    36b0:	48 89 ef             	mov    rdi,rbp
    36b3:	4c 89 e6             	mov    rsi,r12
    36b6:	4c 89 c2             	mov    rdx,r8
    36b9:	e8 f2 ee ff ff       	call   25b0 <refreshPositions>
    36be:	4b 8d 04 f6          	lea    rax,[r14+r14*8]
    36c2:	48 c1 e0 03          	shl    rax,0x3
    36c6:	4c 29 b5 a8 01 00 00 	sub    QWORD PTR [rbp+0x1a8],r14
    36cd:	48 29 85 40 02 00 00 	sub    QWORD PTR [rbp+0x240],rax
    36d4:	4c 89 e6             	mov    rsi,r12
    36d7:	48 89 ef             	mov    rdi,rbp
    36da:	e8 e1 df ff ff       	call   16c0 <refresh_neighbour_lists>
    36df:	48 83 c4 08          	add    rsp,0x8
    36e3:	5b                   	pop    rbx
    36e4:	5d                   	pop    rbp
    36e5:	41 5c                	pop    r12
    36e7:	41 5d                	pop    r13
    36e9:	4c 89 f0             	mov    rax,r14
    36ec:	41 5e                	pop    r14
    36ee:	41 5f                	pop    r15
    36f0:	c3                   	ret    
    36f1:	0f 1f 80 00 00 00 00 	nop    DWORD PTR [rax+0x0]
    36f8:	48 8b 48 10          	mov    rcx,QWORD PTR [rax+0x10]
    36fc:	48 8b 50 08          	mov    rdx,QWORD PTR [rax+0x8]
    3700:	48 2b 11             	sub    rdx,QWORD PTR [rcx]
    3703:	48 8b 48 18          	mov    rcx,QWORD PTR [rax+0x18]
    3707:	48 03 11             	add    rdx,QWORD PTR [rcx]
    370a:	e9 cd fe ff ff       	jmp    35dc <suspend_impl+0x13c>
    370f:	90                   	nop

0000000000003710 <primal_start_artificial>:
    3710:	f3 0f 1e fa          	endbr64 
    3714:	48 8b b7 28 02 00 00 	mov    rsi,QWORD PTR [rdi+0x228]
    371b:	48 8d 4e 68          	lea    rcx,[rsi+0x68]
    371f:	48 c7 46 30 00 00 00 	mov    QWORD PTR [rsi+0x30],0x0
    3726:	00 
    3727:	48 c7 46 18 00 00 00 	mov    QWORD PTR [rsi+0x18],0x0
    372e:	00 
    372f:	48 89 4e 10          	mov    QWORD PTR [rsi+0x10],rcx
    3733:	48 c7 46 20 00 00 00 	mov    QWORD PTR [rsi+0x20],0x0
    373a:	00 
    373b:	48 c7 46 28 00 00 00 	mov    QWORD PTR [rsi+0x28],0x0
    3742:	00 
    3743:	48 8b 87 90 01 00 00 	mov    rax,QWORD PTR [rdi+0x190]
    374a:	c7 46 08 00 00 00 00 	mov    DWORD PTR [rsi+0x8],0x0
    3751:	48 ff c0             	inc    rax
    3754:	48 89 46 58          	mov    QWORD PTR [rsi+0x58],rax
    3758:	48 c7 06 00 1f 0a fa 	mov    QWORD PTR [rsi],0xfffffffffa0a1f00
    375f:	48 c7 46 50 00 00 00 	mov    QWORD PTR [rsi+0x50],0x0
    3766:	00 
    3767:	48 83 bf a8 01 00 00 	cmp    QWORD PTR [rdi+0x1a8],0x0
    376e:	00 
    376f:	48 8b 87 38 02 00 00 	mov    rax,QWORD PTR [rdi+0x238]
    3776:	7e 28                	jle    37a0 <primal_start_artificial+0x90>
    3778:	48 83 c0 20          	add    rax,0x20
    377c:	31 d2                	xor    edx,edx
    377e:	66 90                	xchg   ax,ax
    3780:	66 83 38 ff          	cmp    WORD PTR [rax],0xffff
    3784:	74 0a                	je     3790 <primal_start_artificial+0x80>
    3786:	41 ba 01 00 00 00    	mov    r10d,0x1
    378c:	66 44 89 10          	mov    WORD PTR [rax],r10w
    3790:	48 ff c2             	inc    rdx
    3793:	48 83 c0 48          	add    rax,0x48
    3797:	48 39 97 a8 01 00 00 	cmp    QWORD PTR [rdi+0x1a8],rdx
    379e:	7f e0                	jg     3780 <primal_start_artificial+0x70>
    37a0:	48 8b 87 90 01 00 00 	mov    rax,QWORD PTR [rdi+0x190]
    37a7:	48 8b 97 50 02 00 00 	mov    rdx,QWORD PTR [rdi+0x250]
    37ae:	48 85 c0             	test   rax,rax
    37b1:	7e 7f                	jle    3832 <primal_start_artificial+0x122>
    37b3:	45 31 c0             	xor    r8d,r8d
    37b6:	66 2e 0f 1f 84 00 00 	cs nop WORD PTR [rax+rax*1+0x0]
    37bd:	00 00 00 
    37c0:	48 89 c8             	mov    rax,rcx
    37c3:	4c 8d 48 98          	lea    r9,[rax-0x68]
    37c7:	48 89 51 30          	mov    QWORD PTR [rcx+0x30],rdx
    37cb:	48 89 71 18          	mov    QWORD PTR [rcx+0x18],rsi
    37cf:	48 c7 41 10 00 00 00 	mov    QWORD PTR [rcx+0x10],0x0
    37d6:	00 
    37d7:	4c 89 48 28          	mov    QWORD PTR [rax+0x28],r9
    37db:	48 83 c1 68          	add    rcx,0x68
    37df:	45 31 c9             	xor    r9d,r9d
    37e2:	48 89 48 20          	mov    QWORD PTR [rax+0x20],rcx
    37e6:	48 c7 40 58 01 00 00 	mov    QWORD PTR [rax+0x58],0x1
    37ed:	00 
    37ee:	48 c7 42 08 00 e1 f5 	mov    QWORD PTR [rdx+0x8],0x5f5e100
    37f5:	05 
    37f6:	66 44 89 4a 20       	mov    WORD PTR [rdx+0x20],r9w
    37fb:	c7 40 08 01 00 00 00 	mov    DWORD PTR [rax+0x8],0x1
    3802:	48 c7 00 00 00 00 00 	mov    QWORD PTR [rax],0x0
    3809:	48 89 42 10          	mov    QWORD PTR [rdx+0x10],rax
    380d:	48 89 72 18          	mov    QWORD PTR [rdx+0x18],rsi
    3811:	c7 02 fe ff ff ff    	mov    DWORD PTR [rdx],0xfffffffe
    3817:	48 c7 40 50 00 00 00 	mov    QWORD PTR [rax+0x50],0x0
    381e:	00 
    381f:	49 ff c0             	inc    r8
    3822:	48 83 c2 48          	add    rdx,0x48
    3826:	48 8b 87 90 01 00 00 	mov    rax,QWORD PTR [rdi+0x190]
    382d:	4c 39 c0             	cmp    rax,r8
    3830:	7f 8e                	jg     37c0 <primal_start_artificial+0xb0>
    3832:	48 6b c0 68          	imul   rax,rax,0x68
    3836:	48 c7 44 06 20 00 00 	mov    QWORD PTR [rsi+rax*1+0x20],0x0
    383d:	00 00 
    383f:	48 c7 86 90 00 00 00 	mov    QWORD PTR [rsi+0x90],0x0
    3846:	00 00 00 00 
    384a:	31 c0                	xor    eax,eax
    384c:	c3                   	ret    
    384d:	0f 1f 00             	nop    DWORD PTR [rax]

0000000000003850 <write_circulations>:
    3850:	f3 0f 1e fa          	endbr64 
    3854:	41 57                	push   r15
    3856:	41 56                	push   r14
    3858:	41 55                	push   r13
    385a:	41 54                	push   r12
    385c:	55                   	push   rbp
    385d:	48 89 f5             	mov    rbp,rsi
    3860:	53                   	push   rbx
    3861:	48 83 ec 08          	sub    rsp,0x8
    3865:	48 8b 86 b8 01 00 00 	mov    rax,QWORD PTR [rsi+0x1b8]
    386c:	4c 8b a6 40 02 00 00 	mov    r12,QWORD PTR [rsi+0x240]
    3873:	48 8d 04 c0          	lea    rax,[rax+rax*8]
    3877:	48 c1 e0 03          	shl    rax,0x3
    387b:	48 8d 35 d5 2a 00 00 	lea    rsi,[rip+0x2ad5]        # 6357 <_IO_stdin_used+0x357>
    3882:	49 29 c4             	sub    r12,rax
    3885:	e8 96 d9 ff ff       	call   1220 <fopen@plt>
    388a:	48 85 c0             	test   rax,rax
    388d:	0f 84 23 01 00 00    	je     39b6 <write_circulations+0x166>
    3893:	48 8d 35 46 e0 ff ff 	lea    rsi,[rip+0xffffffffffffe046]        # 18e0 <getArcPosition>
    389a:	48 89 ef             	mov    rdi,rbp
    389d:	49 89 c7             	mov    r15,rax
    38a0:	e8 1b de ff ff       	call   16c0 <refresh_neighbour_lists>
    38a5:	48 6b 85 90 01 00 00 	imul   rax,QWORD PTR [rbp+0x190],0x68
    38ac:	68 
    38ad:	48 03 85 28 02 00 00 	add    rax,QWORD PTR [rbp+0x228]
    38b4:	4c 8b 70 38          	mov    r14,QWORD PTR [rax+0x38]
    38b8:	4d 85 f6             	test   r14,r14
    38bb:	0f 84 b7 00 00 00    	je     3978 <write_circulations+0x128>
    38c1:	4c 8d 2d 95 2a 00 00 	lea    r13,[rip+0x2a95]        # 635d <_IO_stdin_used+0x35d>
    38c8:	eb 13                	jmp    38dd <write_circulations+0x8d>
    38ca:	66 0f 1f 44 00 00    	nop    WORD PTR [rax+rax*1+0x0]
    38d0:	4d 8b 76 28          	mov    r14,QWORD PTR [r14+0x28]
    38d4:	4d 85 f6             	test   r14,r14
    38d7:	0f 84 9b 00 00 00    	je     3978 <write_circulations+0x128>
    38dd:	49 83 7e 38 00       	cmp    QWORD PTR [r14+0x38],0x0
    38e2:	74 ec                	je     38d0 <write_circulations+0x80>
    38e4:	48 8d 15 6e 2a 00 00 	lea    rdx,[rip+0x2a6e]        # 6359 <_IO_stdin_used+0x359>
    38eb:	be 01 00 00 00       	mov    esi,0x1
    38f0:	4c 89 ff             	mov    rdi,r15
    38f3:	31 c0                	xor    eax,eax
    38f5:	4c 89 f3             	mov    rbx,r14
    38f8:	e8 43 d9 ff ff       	call   1240 <__fprintf_chk@plt>
    38fd:	49 39 dc             	cmp    r12,rbx
    3900:	76 62                	jbe    3964 <write_circulations+0x114>
    3902:	66 0f 1f 44 00 00    	nop    WORD PTR [rax+rax*1+0x0]
    3908:	48 8b 43 18          	mov    rax,QWORD PTR [rbx+0x18]
    390c:	48 8d 15 4f 2a 00 00 	lea    rdx,[rip+0x2a4f]        # 6362 <_IO_stdin_used+0x362>
    3913:	8b 48 60             	mov    ecx,DWORD PTR [rax+0x60]
    3916:	be 01 00 00 00       	mov    esi,0x1
    391b:	f7 d9                	neg    ecx
    391d:	4c 89 ff             	mov    rdi,r15
    3920:	31 c0                	xor    eax,eax
    3922:	e8 19 d9 ff ff       	call   1240 <__fprintf_chk@plt>
    3927:	48 6b 85 98 01 00 00 	imul   rax,QWORD PTR [rbp+0x198],0x68
    392e:	68 
    392f:	48 03 43 18          	add    rax,QWORD PTR [rbx+0x18]
    3933:	48 8b 58 38          	mov    rbx,QWORD PTR [rax+0x38]
    3937:	48 85 db             	test   rbx,rbx
    393a:	75 0d                	jne    3949 <write_circulations+0xf9>
    393c:	eb 5a                	jmp    3998 <write_circulations+0x148>
    393e:	66 90                	xchg   ax,ax
    3940:	48 8b 5b 28          	mov    rbx,QWORD PTR [rbx+0x28]
    3944:	48 85 db             	test   rbx,rbx
    3947:	74 4f                	je     3998 <write_circulations+0x148>
    3949:	48 83 7b 38 00       	cmp    QWORD PTR [rbx+0x38],0x0
    394e:	74 f0                	je     3940 <write_circulations+0xf0>
    3950:	48 8b 43 18          	mov    rax,QWORD PTR [rbx+0x18]
    3954:	8b 40 60             	mov    eax,DWORD PTR [rax+0x60]
    3957:	85 c0                	test   eax,eax
    3959:	0f 84 71 ff ff ff    	je     38d0 <write_circulations+0x80>
    395f:	49 39 dc             	cmp    r12,rbx
    3962:	77 a4                	ja     3908 <write_circulations+0xb8>
    3964:	4c 89 ea             	mov    rdx,r13
    3967:	be 01 00 00 00       	mov    esi,0x1
    396c:	4c 89 ff             	mov    rdi,r15
    396f:	31 c0                	xor    eax,eax
    3971:	e8 ca d8 ff ff       	call   1240 <__fprintf_chk@plt>
    3976:	eb 90                	jmp    3908 <write_circulations+0xb8>
    3978:	4c 89 ff             	mov    rdi,r15
    397b:	e8 e0 d7 ff ff       	call   1160 <fclose@plt>
    3980:	31 c0                	xor    eax,eax
    3982:	48 83 c4 08          	add    rsp,0x8
    3986:	5b                   	pop    rbx
    3987:	5d                   	pop    rbp
    3988:	41 5c                	pop    r12
    398a:	41 5d                	pop    r13
    398c:	41 5e                	pop    r14
    398e:	41 5f                	pop    r15
    3990:	c3                   	ret    
    3991:	0f 1f 80 00 00 00 00 	nop    DWORD PTR [rax+0x0]
    3998:	4c 89 ff             	mov    rdi,r15
    399b:	e8 c0 d7 ff ff       	call   1160 <fclose@plt>
    39a0:	48 83 c4 08          	add    rsp,0x8
    39a4:	5b                   	pop    rbx
    39a5:	5d                   	pop    rbp
    39a6:	41 5c                	pop    r12
    39a8:	41 5d                	pop    r13
    39aa:	41 5e                	pop    r14
    39ac:	48 c7 c0 ff ff ff ff 	mov    rax,0xffffffffffffffff
    39b3:	41 5f                	pop    r15
    39b5:	c3                   	ret    
    39b6:	48 c7 c0 ff ff ff ff 	mov    rax,0xffffffffffffffff
    39bd:	eb c3                	jmp    3982 <write_circulations+0x132>
    39bf:	90                   	nop

00000000000039c0 <write_objective_value>:
    39c0:	f3 0f 1e fa          	endbr64 
    39c4:	41 54                	push   r12
    39c6:	49 89 f4             	mov    r12,rsi
    39c9:	48 8d 35 87 29 00 00 	lea    rsi,[rip+0x2987]        # 6357 <_IO_stdin_used+0x357>
    39d0:	55                   	push   rbp
    39d1:	48 83 ec 08          	sub    rsp,0x8
    39d5:	e8 46 d8 ff ff       	call   1220 <fopen@plt>
    39da:	48 85 c0             	test   rax,rax
    39dd:	74 36                	je     3a15 <write_objective_value+0x55>
    39df:	48 89 c5             	mov    rbp,rax
    39e2:	4c 89 e7             	mov    rdi,r12
    39e5:	e8 86 dd ff ff       	call   1770 <flow_cost>
    39ea:	48 8d 15 75 29 00 00 	lea    rdx,[rip+0x2975]        # 6366 <_IO_stdin_used+0x366>
    39f1:	be 01 00 00 00       	mov    esi,0x1
    39f6:	48 89 ef             	mov    rdi,rbp
    39f9:	b8 01 00 00 00       	mov    eax,0x1
    39fe:	e8 3d d8 ff ff       	call   1240 <__fprintf_chk@plt>
    3a03:	48 89 ef             	mov    rdi,rbp
    3a06:	e8 55 d7 ff ff       	call   1160 <fclose@plt>
    3a0b:	31 c0                	xor    eax,eax
    3a0d:	48 83 c4 08          	add    rsp,0x8
    3a11:	5d                   	pop    rbp
    3a12:	41 5c                	pop    r12
    3a14:	c3                   	ret    
    3a15:	48 c7 c0 ff ff ff ff 	mov    rax,0xffffffffffffffff
    3a1c:	eb ef                	jmp    3a0d <write_objective_value+0x4d>
    3a1e:	66 90                	xchg   ax,ax

0000000000003a20 <update_tree>:
    3a20:	f3 0f 1e fa          	endbr64 
    3a24:	41 57                	push   r15
    3a26:	41 56                	push   r14
    3a28:	41 55                	push   r13
    3a2a:	41 54                	push   r12
    3a2c:	49 89 cc             	mov    r12,rcx
    3a2f:	55                   	push   rbp
    3a30:	48 89 f5             	mov    rbp,rsi
    3a33:	53                   	push   rbx
    3a34:	48 89 fb             	mov    rbx,rdi
    3a37:	48 8b 4c 24 58       	mov    rcx,QWORD PTR [rsp+0x58]
    3a3c:	4c 8b 6c 24 50       	mov    r13,QWORD PTR [rsp+0x50]
    3a41:	48 89 ce             	mov    rsi,rcx
    3a44:	48 c1 fe 3f          	sar    rsi,0x3f
    3a48:	49 89 f2             	mov    r10,rsi
    3a4b:	49 31 ca             	xor    r10,rcx
    3a4e:	48 8b 7c 24 38       	mov    rdi,QWORD PTR [rsp+0x38]
    3a53:	48 8b 44 24 40       	mov    rax,QWORD PTR [rsp+0x40]
    3a58:	4c 8b 7c 24 48       	mov    r15,QWORD PTR [rsp+0x48]
    3a5d:	4d 8b 5d 10          	mov    r11,QWORD PTR [r13+0x10]
    3a61:	49 29 f2             	sub    r10,rsi
    3a64:	48 85 c9             	test   rcx,rcx
    3a67:	79 05                	jns    3a6e <update_tree+0x4e>
    3a69:	4d 39 cb             	cmp    r11,r9
    3a6c:	74 0d                	je     3a7b <update_tree+0x5b>
    3a6e:	48 85 c9             	test   rcx,rcx
    3a71:	7e 05                	jle    3a78 <update_tree+0x58>
    3a73:	4d 39 c3             	cmp    r11,r8
    3a76:	74 03                	je     3a7b <update_tree+0x5b>
    3a78:	49 f7 da             	neg    r10
    3a7b:	f3 0f 1e fa          	endbr64 
    3a7f:	4c 01 17             	add    QWORD PTR [rdi],r10
    3a82:	48 89 f9             	mov    rcx,rdi
    3a85:	48 8b 71 10          	mov    rsi,QWORD PTR [rcx+0x10]
    3a89:	48 85 f6             	test   rsi,rsi
    3a8c:	74 11                	je     3a9f <update_tree+0x7f>
    3a8e:	66 90                	xchg   ax,ax
    3a90:	4c 01 16             	add    QWORD PTR [rsi],r10
    3a93:	48 89 f1             	mov    rcx,rsi
    3a96:	48 8b 71 10          	mov    rsi,QWORD PTR [rcx+0x10]
    3a9a:	48 85 f6             	test   rsi,rsi
    3a9d:	75 f1                	jne    3a90 <update_tree+0x70>
    3a9f:	48 39 f9             	cmp    rcx,rdi
    3aa2:	74 16                	je     3aba <update_tree+0x9a>
    3aa4:	0f 1f 40 00          	nop    DWORD PTR [rax+0x0]
    3aa8:	48 8b 71 20          	mov    rsi,QWORD PTR [rcx+0x20]
    3aac:	48 85 f6             	test   rsi,rsi
    3aaf:	75 df                	jne    3a90 <update_tree+0x70>
    3ab1:	48 8b 49 18          	mov    rcx,QWORD PTR [rcx+0x18]
    3ab5:	48 39 cf             	cmp    rdi,rcx
    3ab8:	75 ee                	jne    3aa8 <update_tree+0x88>
    3aba:	48 8b 4f 58          	mov    rcx,QWORD PTR [rdi+0x58]
    3abe:	4d 8b 50 18          	mov    r10,QWORD PTR [r8+0x18]
    3ac2:	49 89 ce             	mov    r14,rcx
    3ac5:	4d 89 cb             	mov    r11,r9
    3ac8:	49 39 c0             	cmp    r8,rax
    3acb:	0f 84 c4 00 00 00    	je     3b95 <update_tree+0x175>
    3ad1:	4c 89 4c 24 f8       	mov    QWORD PTR [rsp-0x8],r9
    3ad6:	eb 48                	jmp    3b20 <update_tree+0x100>
    3ad8:	0f 1f 84 00 00 00 00 	nop    DWORD PTR [rax+rax*1+0x0]
    3adf:	00 
    3ae0:	49 8b 70 50          	mov    rsi,QWORD PTR [r8+0x50]
    3ae4:	48 29 d6             	sub    rsi,rdx
    3ae7:	4d 8b 58 58          	mov    r11,QWORD PTR [r8+0x58]
    3aeb:	41 89 68 08          	mov    DWORD PTR [r8+0x8],ebp
    3aef:	4d 89 70 58          	mov    QWORD PTR [r8+0x58],r14
    3af3:	4d 89 60 50          	mov    QWORD PTR [r8+0x50],r12
    3af7:	4d 8b 48 30          	mov    r9,QWORD PTR [r8+0x30]
    3afb:	4d 89 68 30          	mov    QWORD PTR [r8+0x30],r13
    3aff:	49 89 ce             	mov    r14,rcx
    3b02:	4d 29 de             	sub    r14,r11
    3b05:	49 8b 6a 18          	mov    rbp,QWORD PTR [r10+0x18]
    3b09:	4d 89 c3             	mov    r11,r8
    3b0c:	4c 39 d0             	cmp    rax,r10
    3b0f:	74 7f                	je     3b90 <update_tree+0x170>
    3b11:	4d 89 d0             	mov    r8,r10
    3b14:	4d 89 cd             	mov    r13,r9
    3b17:	49 89 ea             	mov    r10,rbp
    3b1a:	49 89 f4             	mov    r12,rsi
    3b1d:	48 89 fd             	mov    rbp,rdi
    3b20:	49 8b 70 20          	mov    rsi,QWORD PTR [r8+0x20]
    3b24:	49 8b 78 28          	mov    rdi,QWORD PTR [r8+0x28]
    3b28:	48 85 f6             	test   rsi,rsi
    3b2b:	74 0c                	je     3b39 <update_tree+0x119>
    3b2d:	48 89 7e 28          	mov    QWORD PTR [rsi+0x28],rdi
    3b31:	49 8b 78 28          	mov    rdi,QWORD PTR [r8+0x28]
    3b35:	49 8b 70 20          	mov    rsi,QWORD PTR [r8+0x20]
    3b39:	48 85 ff             	test   rdi,rdi
    3b3c:	74 4a                	je     3b88 <update_tree+0x168>
    3b3e:	48 89 77 20          	mov    QWORD PTR [rdi+0x20],rsi
    3b42:	4d 89 58 18          	mov    QWORD PTR [r8+0x18],r11
    3b46:	49 8b 73 10          	mov    rsi,QWORD PTR [r11+0x10]
    3b4a:	49 89 70 20          	mov    QWORD PTR [r8+0x20],rsi
    3b4e:	48 85 f6             	test   rsi,rsi
    3b51:	74 04                	je     3b57 <update_tree+0x137>
    3b53:	4c 89 46 28          	mov    QWORD PTR [rsi+0x28],r8
    3b57:	4d 89 43 10          	mov    QWORD PTR [r11+0x10],r8
    3b5b:	31 ff                	xor    edi,edi
    3b5d:	49 c7 40 28 00 00 00 	mov    QWORD PTR [r8+0x28],0x0
    3b64:	00 
    3b65:	41 8b 70 08          	mov    esi,DWORD PTR [r8+0x8]
    3b69:	85 f6                	test   esi,esi
    3b6b:	40 0f 94 c7          	sete   dil
    3b6f:	48 39 fb             	cmp    rbx,rdi
    3b72:	0f 85 68 ff ff ff    	jne    3ae0 <update_tree+0xc0>
    3b78:	49 8b 70 50          	mov    rsi,QWORD PTR [r8+0x50]
    3b7c:	48 01 d6             	add    rsi,rdx
    3b7f:	e9 63 ff ff ff       	jmp    3ae7 <update_tree+0xc7>
    3b84:	0f 1f 40 00          	nop    DWORD PTR [rax+0x0]
    3b88:	49 89 72 10          	mov    QWORD PTR [r10+0x10],rsi
    3b8c:	eb b4                	jmp    3b42 <update_tree+0x122>
    3b8e:	66 90                	xchg   ax,ax
    3b90:	4c 8b 4c 24 f8       	mov    r9,QWORD PTR [rsp-0x8]
    3b95:	48 3b 54 24 60       	cmp    rdx,QWORD PTR [rsp+0x60]
    3b9a:	7e 74                	jle    3c10 <update_tree+0x1f0>
    3b9c:	4c 39 f8             	cmp    rax,r15
    3b9f:	74 2e                	je     3bcf <update_tree+0x1af>
    3ba1:	0f 1f 80 00 00 00 00 	nop    DWORD PTR [rax+0x0]
    3ba8:	48 8b 70 50          	mov    rsi,QWORD PTR [rax+0x50]
    3bac:	4c 63 40 08          	movsxd r8,DWORD PTR [rax+0x8]
    3bb0:	48 29 48 58          	sub    QWORD PTR [rax+0x58],rcx
    3bb4:	48 8d 3c 16          	lea    rdi,[rsi+rdx*1]
    3bb8:	48 29 d6             	sub    rsi,rdx
    3bbb:	49 39 d8             	cmp    r8,rbx
    3bbe:	48 0f 45 f7          	cmovne rsi,rdi
    3bc2:	48 89 70 50          	mov    QWORD PTR [rax+0x50],rsi
    3bc6:	48 8b 40 18          	mov    rax,QWORD PTR [rax+0x18]
    3bca:	49 39 c7             	cmp    r15,rax
    3bcd:	75 d9                	jne    3ba8 <update_tree+0x188>
    3bcf:	4d 39 f9             	cmp    r9,r15
    3bd2:	74 2b                	je     3bff <update_tree+0x1df>
    3bd4:	0f 1f 40 00          	nop    DWORD PTR [rax+0x0]
    3bd8:	49 8b 41 50          	mov    rax,QWORD PTR [r9+0x50]
    3bdc:	49 63 79 08          	movsxd rdi,DWORD PTR [r9+0x8]
    3be0:	49 01 49 58          	add    QWORD PTR [r9+0x58],rcx
    3be4:	48 8d 34 10          	lea    rsi,[rax+rdx*1]
    3be8:	48 29 d0             	sub    rax,rdx
    3beb:	48 39 df             	cmp    rdi,rbx
    3bee:	48 0f 44 c6          	cmove  rax,rsi
    3bf2:	49 89 41 50          	mov    QWORD PTR [r9+0x50],rax
    3bf6:	4d 8b 49 18          	mov    r9,QWORD PTR [r9+0x18]
    3bfa:	4d 39 cf             	cmp    r15,r9
    3bfd:	75 d9                	jne    3bd8 <update_tree+0x1b8>
    3bff:	5b                   	pop    rbx
    3c00:	5d                   	pop    rbp
    3c01:	41 5c                	pop    r12
    3c03:	41 5d                	pop    r13
    3c05:	41 5e                	pop    r14
    3c07:	41 5f                	pop    r15
    3c09:	c3                   	ret    
    3c0a:	66 0f 1f 44 00 00    	nop    WORD PTR [rax+rax*1+0x0]
    3c10:	4c 39 f8             	cmp    rax,r15
    3c13:	74 10                	je     3c25 <update_tree+0x205>
    3c15:	0f 1f 00             	nop    DWORD PTR [rax]
    3c18:	48 29 48 58          	sub    QWORD PTR [rax+0x58],rcx
    3c1c:	48 8b 40 18          	mov    rax,QWORD PTR [rax+0x18]
    3c20:	49 39 c7             	cmp    r15,rax
    3c23:	75 f3                	jne    3c18 <update_tree+0x1f8>
    3c25:	4d 39 f9             	cmp    r9,r15
    3c28:	74 d5                	je     3bff <update_tree+0x1df>
    3c2a:	66 0f 1f 44 00 00    	nop    WORD PTR [rax+rax*1+0x0]
    3c30:	49 01 49 58          	add    QWORD PTR [r9+0x58],rcx
    3c34:	4d 8b 49 18          	mov    r9,QWORD PTR [r9+0x18]
    3c38:	4d 39 cf             	cmp    r15,r9
    3c3b:	75 f3                	jne    3c30 <update_tree+0x210>
    3c3d:	5b                   	pop    rbx
    3c3e:	5d                   	pop    rbp
    3c3f:	41 5c                	pop    r12
    3c41:	41 5d                	pop    r13
    3c43:	41 5e                	pop    r14
    3c45:	41 5f                	pop    r15
    3c47:	c3                   	ret    
    3c48:	0f 1f 84 00 00 00 00 	nop    DWORD PTR [rax+rax*1+0x0]
    3c4f:	00 

0000000000003c50 <primal_iminus>:
    3c50:	f3 0f 1e fa          	endbr64 
    3c54:	31 c0                	xor    eax,eax
    3c56:	48 39 ca             	cmp    rdx,rcx
    3c59:	74 6b                	je     3cc6 <primal_iminus+0x76>
    3c5b:	41 ba 01 00 00 00    	mov    r10d,0x1
    3c61:	eb 31                	jmp    3c94 <primal_iminus+0x44>
    3c63:	0f 1f 44 00 00       	nop    DWORD PTR [rax+rax*1+0x0]
    3c68:	44 8b 5a 08          	mov    r11d,DWORD PTR [rdx+0x8]
    3c6c:	45 85 db             	test   r11d,r11d
    3c6f:	0f 84 8b 00 00 00    	je     3d00 <primal_iminus+0xb0>
    3c75:	4c 8b 4a 50          	mov    r9,QWORD PTR [rdx+0x50]
    3c79:	4c 39 0f             	cmp    QWORD PTR [rdi],r9
    3c7c:	7e 0d                	jle    3c8b <primal_iminus+0x3b>
    3c7e:	4c 89 0f             	mov    QWORD PTR [rdi],r9
    3c81:	48 c7 06 00 00 00 00 	mov    QWORD PTR [rsi],0x0
    3c88:	48 89 d0             	mov    rax,rdx
    3c8b:	48 8b 52 18          	mov    rdx,QWORD PTR [rdx+0x18]
    3c8f:	48 39 d1             	cmp    rcx,rdx
    3c92:	74 32                	je     3cc6 <primal_iminus+0x76>
    3c94:	4c 8b 59 58          	mov    r11,QWORD PTR [rcx+0x58]
    3c98:	4c 39 5a 58          	cmp    QWORD PTR [rdx+0x58],r11
    3c9c:	7c ca                	jl     3c68 <primal_iminus+0x18>
    3c9e:	44 8b 49 08          	mov    r9d,DWORD PTR [rcx+0x8]
    3ca2:	45 85 c9             	test   r9d,r9d
    3ca5:	75 29                	jne    3cd0 <primal_iminus+0x80>
    3ca7:	4c 8b 49 50          	mov    r9,QWORD PTR [rcx+0x50]
    3cab:	4c 39 0f             	cmp    QWORD PTR [rdi],r9
    3cae:	7c 0d                	jl     3cbd <primal_iminus+0x6d>
    3cb0:	4c 89 0f             	mov    QWORD PTR [rdi],r9
    3cb3:	48 c7 06 01 00 00 00 	mov    QWORD PTR [rsi],0x1
    3cba:	48 89 c8             	mov    rax,rcx
    3cbd:	48 8b 49 18          	mov    rcx,QWORD PTR [rcx+0x18]
    3cc1:	48 39 d1             	cmp    rcx,rdx
    3cc4:	75 ce                	jne    3c94 <primal_iminus+0x44>
    3cc6:	49 89 10             	mov    QWORD PTR [r8],rdx
    3cc9:	c3                   	ret    
    3cca:	66 0f 1f 44 00 00    	nop    WORD PTR [rax+rax*1+0x0]
    3cd0:	4c 8b 49 18          	mov    r9,QWORD PTR [rcx+0x18]
    3cd4:	49 83 79 18 00       	cmp    QWORD PTR [r9+0x18],0x0
    3cd9:	74 55                	je     3d30 <primal_iminus+0xe0>
    3cdb:	4d 89 d3             	mov    r11,r10
    3cde:	4c 2b 59 50          	sub    r11,QWORD PTR [rcx+0x50]
    3ce2:	4c 39 1f             	cmp    QWORD PTR [rdi],r11
    3ce5:	7c 49                	jl     3d30 <primal_iminus+0xe0>
    3ce7:	4c 89 1f             	mov    QWORD PTR [rdi],r11
    3cea:	48 c7 06 01 00 00 00 	mov    QWORD PTR [rsi],0x1
    3cf1:	48 89 c8             	mov    rax,rcx
    3cf4:	48 8b 49 18          	mov    rcx,QWORD PTR [rcx+0x18]
    3cf8:	eb 95                	jmp    3c8f <primal_iminus+0x3f>
    3cfa:	66 0f 1f 44 00 00    	nop    WORD PTR [rax+rax*1+0x0]
    3d00:	4c 8b 4a 18          	mov    r9,QWORD PTR [rdx+0x18]
    3d04:	49 83 79 18 00       	cmp    QWORD PTR [r9+0x18],0x0
    3d09:	74 35                	je     3d40 <primal_iminus+0xf0>
    3d0b:	4d 89 d3             	mov    r11,r10
    3d0e:	4c 2b 5a 50          	sub    r11,QWORD PTR [rdx+0x50]
    3d12:	4c 39 1f             	cmp    QWORD PTR [rdi],r11
    3d15:	7e 29                	jle    3d40 <primal_iminus+0xf0>
    3d17:	4c 89 1f             	mov    QWORD PTR [rdi],r11
    3d1a:	48 c7 06 00 00 00 00 	mov    QWORD PTR [rsi],0x0
    3d21:	48 89 d0             	mov    rax,rdx
    3d24:	48 8b 52 18          	mov    rdx,QWORD PTR [rdx+0x18]
    3d28:	e9 62 ff ff ff       	jmp    3c8f <primal_iminus+0x3f>
    3d2d:	0f 1f 00             	nop    DWORD PTR [rax]
    3d30:	4c 89 c9             	mov    rcx,r9
    3d33:	e9 57 ff ff ff       	jmp    3c8f <primal_iminus+0x3f>
    3d38:	0f 1f 84 00 00 00 00 	nop    DWORD PTR [rax+rax*1+0x0]
    3d3f:	00 
    3d40:	4c 89 ca             	mov    rdx,r9
    3d43:	e9 47 ff ff ff       	jmp    3c8f <primal_iminus+0x3f>
    3d48:	0f 1f 84 00 00 00 00 	nop    DWORD PTR [rax+rax*1+0x0]
    3d4f:	00 

0000000000003d50 <primal_update_flow>:
    3d50:	f3 0f 1e fa          	endbr64 
    3d54:	48 39 d7             	cmp    rdi,rdx
    3d57:	74 39                	je     3d92 <primal_update_flow+0x42>
    3d59:	0f 1f 80 00 00 00 00 	nop    DWORD PTR [rax+0x0]
    3d60:	44 8b 47 08          	mov    r8d,DWORD PTR [rdi+0x8]
    3d64:	31 c0                	xor    eax,eax
    3d66:	45 85 c0             	test   r8d,r8d
    3d69:	0f 94 c0             	sete   al
    3d6c:	48 89 47 50          	mov    QWORD PTR [rdi+0x50],rax
    3d70:	48 8b 7f 18          	mov    rdi,QWORD PTR [rdi+0x18]
    3d74:	48 39 fa             	cmp    rdx,rdi
    3d77:	75 e7                	jne    3d60 <primal_update_flow+0x10>
    3d79:	48 39 f2             	cmp    rdx,rsi
    3d7c:	74 19                	je     3d97 <primal_update_flow+0x47>
    3d7e:	66 90                	xchg   ax,ax
    3d80:	8b 4e 08             	mov    ecx,DWORD PTR [rsi+0x8]
    3d83:	31 c0                	xor    eax,eax
    3d85:	85 c9                	test   ecx,ecx
    3d87:	0f 95 c0             	setne  al
    3d8a:	48 89 46 50          	mov    QWORD PTR [rsi+0x50],rax
    3d8e:	48 8b 76 18          	mov    rsi,QWORD PTR [rsi+0x18]
    3d92:	48 39 f2             	cmp    rdx,rsi
    3d95:	75 e9                	jne    3d80 <primal_update_flow+0x30>
    3d97:	c3                   	ret    
    3d98:	0f 1f 84 00 00 00 00 	nop    DWORD PTR [rax+rax*1+0x0]
    3d9f:	00 

0000000000003da0 <markBaskets>:
    3da0:	f3 0f 1e fa          	endbr64 
    3da4:	41 56                	push   r14
    3da6:	45 31 f6             	xor    r14d,r14d
    3da9:	41 55                	push   r13
    3dab:	49 89 fd             	mov    r13,rdi
    3dae:	41 54                	push   r12
    3db0:	55                   	push   rbp
    3db1:	bd 01 00 00 00       	mov    ebp,0x1
    3db6:	53                   	push   rbx
    3db7:	48 83 ec 20          	sub    rsp,0x20
    3dbb:	64 48 8b 04 25 28 00 	mov    rax,QWORD PTR fs:0x28
    3dc2:	00 00 
    3dc4:	48 89 44 24 18       	mov    QWORD PTR [rsp+0x18],rax
    3dc9:	31 c0                	xor    eax,eax
    3dcb:	48 8b 05 96 52 00 00 	mov    rax,QWORD PTR [rip+0x5296]        # 9068 <perm_p>
    3dd2:	4c 8d 64 24 08       	lea    r12,[rsp+0x8]
    3dd7:	66 0f 1f 84 00 00 00 	nop    WORD PTR [rax+rax*1+0x0]
    3dde:	00 00 
    3de0:	48 8b 10             	mov    rdx,QWORD PTR [rax]
    3de3:	48 8b 12             	mov    rdx,QWORD PTR [rdx]
    3de6:	48 83 7a 18 00       	cmp    QWORD PTR [rdx+0x18],0x0
    3deb:	0f 88 c7 00 00 00    	js     3eb8 <markBaskets+0x118>
    3df1:	48 89 54 24 08       	mov    QWORD PTR [rsp+0x8],rdx
    3df6:	45 31 f6             	xor    r14d,r14d
    3df9:	49 83 fd 01          	cmp    r13,0x1
    3dfd:	7e 6d                	jle    3e6c <markBaskets+0xcc>
    3dff:	bb 01 00 00 00       	mov    ebx,0x1
    3e04:	eb 2f                	jmp    3e35 <markBaskets+0x95>
    3e06:	66 2e 0f 1f 84 00 00 	cs nop WORD PTR [rax+rax*1+0x0]
    3e0d:	00 00 00 
    3e10:	48 8d 7c 24 10       	lea    rdi,[rsp+0x10]
    3e15:	4c 89 e6             	mov    rsi,r12
    3e18:	e8 33 07 00 00       	call   4550 <cost_compare>
    3e1d:	85 c0                	test   eax,eax
    3e1f:	78 7f                	js     3ea0 <markBaskets+0x100>
    3e21:	48 8b 54 24 08       	mov    rdx,QWORD PTR [rsp+0x8]
    3e26:	48 ff c3             	inc    rbx
    3e29:	49 39 dd             	cmp    r13,rbx
    3e2c:	74 32                	je     3e60 <markBaskets+0xc0>
    3e2e:	48 8b 05 33 52 00 00 	mov    rax,QWORD PTR [rip+0x5233]        # 9068 <perm_p>
    3e35:	48 8b 04 d8          	mov    rax,QWORD PTR [rax+rbx*8]
    3e39:	48 8b 00             	mov    rax,QWORD PTR [rax]
    3e3c:	48 83 78 18 00       	cmp    QWORD PTR [rax+0x18],0x0
    3e41:	48 89 44 24 10       	mov    QWORD PTR [rsp+0x10],rax
    3e46:	78 de                	js     3e26 <markBaskets+0x86>
    3e48:	48 85 d2             	test   rdx,rdx
    3e4b:	75 c3                	jne    3e10 <markBaskets+0x70>
    3e4d:	48 89 44 24 08       	mov    QWORD PTR [rsp+0x8],rax
    3e52:	48 89 c2             	mov    rdx,rax
    3e55:	49 89 de             	mov    r14,rbx
    3e58:	48 ff c3             	inc    rbx
    3e5b:	49 39 dd             	cmp    r13,rbx
    3e5e:	75 ce                	jne    3e2e <markBaskets+0x8e>
    3e60:	48 85 d2             	test   rdx,rdx
    3e63:	74 1d                	je     3e82 <markBaskets+0xe2>
    3e65:	48 8b 05 fc 51 00 00 	mov    rax,QWORD PTR [rip+0x51fc]        # 9068 <perm_p>
    3e6c:	48 89 6a 18          	mov    QWORD PTR [rdx+0x18],rbp
    3e70:	48 ff c5             	inc    rbp
    3e73:	4a 83 04 f0 08       	add    QWORD PTR [rax+r14*8],0x8
    3e78:	48 83 fd 3d          	cmp    rbp,0x3d
    3e7c:	0f 85 5e ff ff ff    	jne    3de0 <markBaskets+0x40>
    3e82:	48 8b 44 24 18       	mov    rax,QWORD PTR [rsp+0x18]
    3e87:	64 48 33 04 25 28 00 	xor    rax,QWORD PTR fs:0x28
    3e8e:	00 00 
    3e90:	75 3c                	jne    3ece <markBaskets+0x12e>
    3e92:	48 83 c4 20          	add    rsp,0x20
    3e96:	5b                   	pop    rbx
    3e97:	5d                   	pop    rbp
    3e98:	41 5c                	pop    r12
    3e9a:	41 5d                	pop    r13
    3e9c:	41 5e                	pop    r14
    3e9e:	c3                   	ret    
    3e9f:	90                   	nop
    3ea0:	48 8b 44 24 10       	mov    rax,QWORD PTR [rsp+0x10]
    3ea5:	49 89 de             	mov    r14,rbx
    3ea8:	48 89 44 24 08       	mov    QWORD PTR [rsp+0x8],rax
    3ead:	48 89 c2             	mov    rdx,rax
    3eb0:	eb a6                	jmp    3e58 <markBaskets+0xb8>
    3eb2:	66 0f 1f 44 00 00    	nop    WORD PTR [rax+rax*1+0x0]
    3eb8:	48 c7 44 24 08 00 00 	mov    QWORD PTR [rsp+0x8],0x0
    3ebf:	00 00 
    3ec1:	49 83 fd 01          	cmp    r13,0x1
    3ec5:	7e bb                	jle    3e82 <markBaskets+0xe2>
    3ec7:	31 d2                	xor    edx,edx
    3ec9:	e9 31 ff ff ff       	jmp    3dff <markBaskets+0x5f>
    3ece:	e8 9d d2 ff ff       	call   1170 <__stack_chk_fail@plt>
    3ed3:	66 66 2e 0f 1f 84 00 	data16 cs nop WORD PTR [rax+rax*1+0x0]
    3eda:	00 00 00 00 
    3ede:	66 90                	xchg   ax,ax

0000000000003ee0 <worker>:
    3ee0:	f3 0f 1e fa          	endbr64 
    3ee4:	41 57                	push   r15
    3ee6:	41 56                	push   r14
    3ee8:	41 55                	push   r13
    3eea:	41 54                	push   r12
    3eec:	55                   	push   rbp
    3eed:	53                   	push   rbx
    3eee:	4c 8d 9c 24 00 90 ff 	lea    r11,[rsp-0x7000]
    3ef5:	ff 
    3ef6:	48 81 ec 00 10 00 00 	sub    rsp,0x1000
    3efd:	48 83 0c 24 00       	or     QWORD PTR [rsp],0x0
    3f02:	4c 39 dc             	cmp    rsp,r11
    3f05:	75 ef                	jne    3ef6 <worker+0x16>
    3f07:	48 81 ec 28 0f 00 00 	sub    rsp,0xf28
    3f0e:	48 89 fd             	mov    rbp,rdi
    3f11:	64 48 8b 04 25 28 00 	mov    rax,QWORD PTR fs:0x28
    3f18:	00 00 
    3f1a:	48 89 84 24 18 7f 00 	mov    QWORD PTR [rsp+0x7f18],rax
    3f21:	00 
    3f22:	31 c0                	xor    eax,eax
    3f24:	48 8b 85 40 02 00 00 	mov    rax,QWORD PTR [rbp+0x240]
    3f2b:	4c 8b ad 38 02 00 00 	mov    r13,QWORD PTR [rbp+0x238]
    3f32:	48 89 44 24 10       	mov    QWORD PTR [rsp+0x10],rax
    3f37:	48 8b 05 22 51 00 00 	mov    rax,QWORD PTR [rip+0x5122]        # 9060 <basket_sizes>
    3f3e:	48 63 fe             	movsxd rdi,esi
    3f41:	4c 89 6c 24 28       	mov    QWORD PTR [rsp+0x28],r13
    3f46:	4c 8b bd a8 01 00 00 	mov    r15,QWORD PTR [rbp+0x1a8]
    3f4d:	48 c7 04 f8 00 00 00 	mov    QWORD PTR [rax+rdi*8],0x0
    3f54:	00 
    3f55:	b8 a0 0f 00 00       	mov    eax,0xfa0
    3f5a:	48 63 da             	movsxd rbx,edx
    3f5d:	99                   	cdq    
    3f5e:	f7 fb                	idiv   ebx
    3f60:	48 89 7c 24 18       	mov    QWORD PTR [rsp+0x18],rdi
    3f65:	49 89 f9             	mov    r9,rdi
    3f68:	4c 8d 24 fd 00 00 00 	lea    r12,[rdi*8+0x0]
    3f6f:	00 
    3f70:	8d b8 05 01 00 00    	lea    edi,[rax+0x105]
    3f76:	41 0f af f9          	imul   edi,r9d
    3f7a:	83 f8 c5             	cmp    eax,0xffffffc5
    3f7d:	0f 8c b9 00 00 00    	jl     403c <worker+0x15c>
    3f83:	8d 57 01             	lea    edx,[rdi+0x1]
    3f86:	48 98                	cdqe   
    3f88:	48 63 ff             	movsxd rdi,edi
    3f8b:	4c 8b 05 be 50 00 00 	mov    r8,QWORD PTR [rip+0x50be]        # 9050 <basket>
    3f92:	48 01 c7             	add    rdi,rax
    3f95:	48 63 ca             	movsxd rcx,edx
    3f98:	48 c1 e1 05          	shl    rcx,0x5
    3f9c:	48 c1 e7 05          	shl    rdi,0x5
    3fa0:	4c 01 c1             	add    rcx,r8
    3fa3:	48 8d 74 24 38       	lea    rsi,[rsp+0x38]
    3fa8:	49 8d 84 38 a0 07 00 	lea    rax,[r8+rdi*1+0x7a0]
    3faf:	00 
    3fb0:	48 89 0e             	mov    QWORD PTR [rsi],rcx
    3fb3:	48 83 c1 20          	add    rcx,0x20
    3fb7:	48 83 c6 08          	add    rsi,0x8
    3fbb:	48 39 c1             	cmp    rcx,rax
    3fbe:	75 f0                	jne    3fb0 <worker+0xd0>
    3fc0:	48 83 3d 90 50 00 00 	cmp    QWORD PTR [rip+0x5090],0x0        # 9058 <opt>
    3fc7:	00 
    3fc8:	75 7c                	jne    4046 <worker+0x166>
    3fca:	66 0f 1f 44 00 00    	nop    WORD PTR [rax+rax*1+0x0]
    3fd0:	ff b5 80 02 00 00    	push   QWORD PTR [rbp+0x280]
    3fd6:	4c 8b 35 93 50 00 00 	mov    r14,QWORD PTR [rip+0x5093]        # 9070 <opt_basket>
    3fdd:	48 8b 0d 7c 50 00 00 	mov    rcx,QWORD PTR [rip+0x507c]        # 9060 <basket_sizes>
    3fe4:	53                   	push   rbx
    3fe5:	4c 89 ee             	mov    rsi,r13
    3fe8:	4c 89 ff             	mov    rdi,r15
    3feb:	48 8b 44 24 28       	mov    rax,QWORD PTR [rsp+0x28]
    3ff0:	4d 01 e6             	add    r14,r12
    3ff3:	48 03 85 60 02 00 00 	add    rax,QWORD PTR [rbp+0x260]
    3ffa:	48 99                	cqo    
    3ffc:	48 f7 fb             	idiv   rbx
    3fff:	52                   	push   rdx
    4000:	48 8d 44 24 40       	lea    rax,[rsp+0x40]
    4005:	50                   	push   rax
    4006:	48 8b 54 24 30       	mov    rdx,QWORD PTR [rsp+0x30]
    400b:	4c 8d 44 24 50       	lea    r8,[rsp+0x50]
    4010:	44 89 4c 24 2c       	mov    DWORD PTR [rsp+0x2c],r9d
    4015:	e8 e6 05 00 00       	call   4600 <primal_bea_mpp>
    401a:	48 8d 54 24 58       	lea    rdx,[rsp+0x58]
    401f:	49 89 06             	mov    QWORD PTR [r14],rax
    4022:	44 8b 4c 24 2c       	mov    r9d,DWORD PTR [rsp+0x2c]
    4027:	48 8b 05 3a 50 00 00 	mov    rax,QWORD PTR [rip+0x503a]        # 9068 <perm_p>
    402e:	48 83 c4 20          	add    rsp,0x20
    4032:	4a 89 14 20          	mov    QWORD PTR [rax+r12*1],rdx
    4036:	41 83 f9 01          	cmp    r9d,0x1
    403a:	74 34                	je     4070 <worker+0x190>
    403c:	48 83 3d 14 50 00 00 	cmp    QWORD PTR [rip+0x5014],0x0        # 9058 <opt>
    4043:	00 
    4044:	74 8a                	je     3fd0 <worker+0xf0>
    4046:	48 8b 84 24 18 7f 00 	mov    rax,QWORD PTR [rsp+0x7f18]
    404d:	00 
    404e:	64 48 33 04 25 28 00 	xor    rax,QWORD PTR fs:0x28
    4055:	00 00 
    4057:	75 26                	jne    407f <worker+0x19f>
    4059:	48 81 c4 28 7f 00 00 	add    rsp,0x7f28
    4060:	5b                   	pop    rbx
    4061:	5d                   	pop    rbp
    4062:	41 5c                	pop    r12
    4064:	41 5d                	pop    r13
    4066:	41 5e                	pop    r14
    4068:	41 5f                	pop    r15
    406a:	c3                   	ret    
    406b:	0f 1f 44 00 00       	nop    DWORD PTR [rax+rax*1+0x0]
    4070:	48 89 df             	mov    rdi,rbx
    4073:	e8 28 fd ff ff       	call   3da0 <markBaskets>
    4078:	44 8b 4c 24 0c       	mov    r9d,DWORD PTR [rsp+0xc]
    407d:	eb bd                	jmp    403c <worker+0x15c>
    407f:	e8 ec d0 ff ff       	call   1170 <__stack_chk_fail@plt>
    4084:	66 66 2e 0f 1f 84 00 	data16 cs nop WORD PTR [rax+rax*1+0x0]
    408b:	00 00 00 00 
    408f:	90                   	nop

0000000000004090 <master>:
    4090:	f3 0f 1e fa          	endbr64 
    4094:	41 57                	push   r15
    4096:	41 56                	push   r14
    4098:	41 55                	push   r13
    409a:	41 54                	push   r12
    409c:	55                   	push   rbp
    409d:	53                   	push   rbx
    409e:	4c 8d 9c 24 00 90 ff 	lea    r11,[rsp-0x7000]
    40a5:	ff 
    40a6:	48 81 ec 00 10 00 00 	sub    rsp,0x1000
    40ad:	48 83 0c 24 00       	or     QWORD PTR [rsp],0x0
    40b2:	4c 39 dc             	cmp    rsp,r11
    40b5:	75 ef                	jne    40a6 <master+0x16>
    40b7:	48 81 ec 78 0f 00 00 	sub    rsp,0xf78
    40be:	4c 8b 15 9b 4f 00 00 	mov    r10,QWORD PTR [rip+0x4f9b]        # 9060 <basket_sizes>
    40c5:	89 74 24 2c          	mov    DWORD PTR [rsp+0x2c],esi
    40c9:	48 8b 97 40 02 00 00 	mov    rdx,QWORD PTR [rdi+0x240]
    40d0:	48 89 fd             	mov    rbp,rdi
    40d3:	64 48 8b 04 25 28 00 	mov    rax,QWORD PTR fs:0x28
    40da:	00 00 
    40dc:	48 89 84 24 68 7f 00 	mov    QWORD PTR [rsp+0x7f68],rax
    40e3:	00 
    40e4:	31 c0                	xor    eax,eax
    40e6:	48 8b 87 38 02 00 00 	mov    rax,QWORD PTR [rdi+0x238]
    40ed:	48 89 54 24 08       	mov    QWORD PTR [rsp+0x8],rdx
    40f2:	48 8b 97 a8 01 00 00 	mov    rdx,QWORD PTR [rdi+0x1a8]
    40f9:	48 89 44 24 78       	mov    QWORD PTR [rsp+0x78],rax
    40fe:	48 89 04 24          	mov    QWORD PTR [rsp],rax
    4102:	b8 a0 0f 00 00       	mov    eax,0xfa0
    4107:	48 89 54 24 10       	mov    QWORD PTR [rsp+0x10],rdx
    410c:	99                   	cdq    
    410d:	f7 fe                	idiv   esi
    410f:	49 c7 02 00 00 00 00 	mov    QWORD PTR [r10],0x0
    4116:	83 f8 c5             	cmp    eax,0xffffffc5
    4119:	7c 35                	jl     4150 <master+0xc0>
    411b:	48 8b 35 2e 4f 00 00 	mov    rsi,QWORD PTR [rip+0x4f2e]        # 9050 <basket>
    4122:	48 98                	cdqe   
    4124:	48 c1 e0 05          	shl    rax,0x5
    4128:	48 8d 56 20          	lea    rdx,[rsi+0x20]
    412c:	48 8d 8c 24 88 00 00 	lea    rcx,[rsp+0x88]
    4133:	00 
    4134:	48 8d 84 06 a0 07 00 	lea    rax,[rsi+rax*1+0x7a0]
    413b:	00 
    413c:	0f 1f 40 00          	nop    DWORD PTR [rax+0x0]
    4140:	48 89 11             	mov    QWORD PTR [rcx],rdx
    4143:	48 83 c2 20          	add    rdx,0x20
    4147:	48 83 c1 08          	add    rcx,0x8
    414b:	48 39 d0             	cmp    rax,rdx
    414e:	75 f0                	jne    4140 <master+0xb0>
    4150:	48 83 3d 00 4f 00 00 	cmp    QWORD PTR [rip+0x4f00],0x0        # 9058 <opt>
    4157:	00 
    4158:	0f 85 85 02 00 00    	jne    43e3 <master+0x353>
    415e:	48 8d 84 24 88 00 00 	lea    rax,[rsp+0x88]
    4165:	00 
    4166:	48 89 44 24 20       	mov    QWORD PTR [rsp+0x20],rax
    416b:	48 8d 44 24 78       	lea    rax,[rsp+0x78]
    4170:	4c 63 7c 24 2c       	movsxd r15,DWORD PTR [rsp+0x2c]
    4175:	48 89 44 24 18       	mov    QWORD PTR [rsp+0x18],rax
    417a:	4a 8d 1c fd 00 00 00 	lea    rbx,[r15*8+0x0]
    4181:	00 
    4182:	4c 8d b4 24 80 00 00 	lea    r14,[rsp+0x80]
    4189:	00 
    418a:	4c 8d 64 24 70       	lea    r12,[rsp+0x70]
    418f:	4c 89 d1             	mov    rcx,r10
    4192:	66 0f 1f 44 00 00    	nop    WORD PTR [rax+rax*1+0x0]
    4198:	48 8b 85 60 02 00 00 	mov    rax,QWORD PTR [rbp+0x260]
    419f:	ff b5 80 02 00 00    	push   QWORD PTR [rbp+0x280]
    41a5:	48 99                	cqo    
    41a7:	49 f7 ff             	idiv   r15
    41aa:	41 57                	push   r15
    41ac:	4c 8b 2d bd 4e 00 00 	mov    r13,QWORD PTR [rip+0x4ebd]        # 9070 <opt_basket>
    41b3:	45 31 c9             	xor    r9d,r9d
    41b6:	4d 89 f0             	mov    r8,r14
    41b9:	52                   	push   rdx
    41ba:	ff 74 24 30          	push   QWORD PTR [rsp+0x30]
    41be:	48 8b 74 24 20       	mov    rsi,QWORD PTR [rsp+0x20]
    41c3:	48 8b 54 24 28       	mov    rdx,QWORD PTR [rsp+0x28]
    41c8:	48 8b 7c 24 30       	mov    rdi,QWORD PTR [rsp+0x30]
    41cd:	e8 2e 04 00 00       	call   4600 <primal_bea_mpp>
    41d2:	49 89 45 00          	mov    QWORD PTR [r13+0x0],rax
    41d6:	48 8b 74 24 40       	mov    rsi,QWORD PTR [rsp+0x40]
    41db:	48 8b 05 86 4e 00 00 	mov    rax,QWORD PTR [rip+0x4e86]        # 9068 <perm_p>
    41e2:	48 89 30             	mov    QWORD PTR [rax],rsi
    41e5:	48 c7 84 24 90 00 00 	mov    QWORD PTR [rsp+0x90],0x0
    41ec:	00 00 00 00 00 
    41f1:	48 83 c4 20          	add    rsp,0x20
    41f5:	4d 85 ff             	test   r15,r15
    41f8:	0f 8e da 01 00 00    	jle    43d8 <master+0x348>
    41fe:	45 31 ed             	xor    r13d,r13d
    4201:	31 c9                	xor    ecx,ecx
    4203:	eb 2a                	jmp    422f <master+0x19f>
    4205:	0f 1f 00             	nop    DWORD PTR [rax]
    4208:	4c 01 ef             	add    rdi,r13
    420b:	48 83 3f 00          	cmp    QWORD PTR [rdi],0x0
    420f:	74 15                	je     4226 <master+0x196>
    4211:	4c 89 e6             	mov    rsi,r12
    4214:	e8 37 03 00 00       	call   4550 <cost_compare>
    4219:	85 c0                	test   eax,eax
    421b:	0f 88 8f 01 00 00    	js     43b0 <master+0x320>
    4221:	48 8b 4c 24 70       	mov    rcx,QWORD PTR [rsp+0x70]
    4226:	49 83 c5 08          	add    r13,0x8
    422a:	4c 39 eb             	cmp    rbx,r13
    422d:	74 2c                	je     425b <master+0x1cb>
    422f:	48 8b 3d 3a 4e 00 00 	mov    rdi,QWORD PTR [rip+0x4e3a]        # 9070 <opt_basket>
    4236:	48 89 f8             	mov    rax,rdi
    4239:	48 85 c9             	test   rcx,rcx
    423c:	75 ca                	jne    4208 <master+0x178>
    423e:	4a 83 3c 28 00       	cmp    QWORD PTR [rax+r13*1],0x0
    4243:	0f 84 77 01 00 00    	je     43c0 <master+0x330>
    4249:	4a 8b 0c 2f          	mov    rcx,QWORD PTR [rdi+r13*1]
    424d:	49 83 c5 08          	add    r13,0x8
    4251:	48 89 4c 24 70       	mov    QWORD PTR [rsp+0x70],rcx
    4256:	4c 39 eb             	cmp    rbx,r13
    4259:	75 d4                	jne    422f <master+0x19f>
    425b:	48 85 c9             	test   rcx,rcx
    425e:	0f 84 74 01 00 00    	je     43d8 <master+0x348>
    4264:	83 7c 24 2c 01       	cmp    DWORD PTR [rsp+0x2c],0x1
    4269:	4c 8b 49 08          	mov    r9,QWORD PTR [rcx+0x8]
    426d:	4c 8b 11             	mov    r10,QWORD PTR [rcx]
    4270:	0f 84 9a 01 00 00    	je     4410 <master+0x380>
    4276:	4d 85 c9             	test   r9,r9
    4279:	0f 84 59 01 00 00    	je     43d8 <master+0x348>
    427f:	48 ff 85 60 02 00 00 	inc    QWORD PTR [rbp+0x260]
    4286:	4d 8b 5a 10          	mov    r11,QWORD PTR [r10+0x10]
    428a:	49 8b 4a 18          	mov    rcx,QWORD PTR [r10+0x18]
    428e:	4d 85 c9             	test   r9,r9
    4291:	7e 09                	jle    429c <master+0x20c>
    4293:	4c 89 d8             	mov    rax,r11
    4296:	49 89 cb             	mov    r11,rcx
    4299:	48 89 c1             	mov    rcx,rax
    429c:	4c 89 da             	mov    rdx,r11
    429f:	48 8d 74 24 60       	lea    rsi,[rsp+0x60]
    42a4:	48 8d 7c 24 58       	lea    rdi,[rsp+0x58]
    42a9:	4c 8d 44 24 68       	lea    r8,[rsp+0x68]
    42ae:	4c 89 54 24 48       	mov    QWORD PTR [rsp+0x48],r10
    42b3:	4c 89 4c 24 40       	mov    QWORD PTR [rsp+0x40],r9
    42b8:	48 89 4c 24 38       	mov    QWORD PTR [rsp+0x38],rcx
    42bd:	4c 89 5c 24 30       	mov    QWORD PTR [rsp+0x30],r11
    42c2:	48 c7 44 24 58 01 00 	mov    QWORD PTR [rsp+0x58],0x1
    42c9:	00 00 
    42cb:	e8 80 f9 ff ff       	call   3c50 <primal_iminus>
    42d0:	48 85 c0             	test   rax,rax
    42d3:	4c 8b 5c 24 30       	mov    r11,QWORD PTR [rsp+0x30]
    42d8:	48 8b 4c 24 38       	mov    rcx,QWORD PTR [rsp+0x38]
    42dd:	4c 8b 4c 24 40       	mov    r9,QWORD PTR [rsp+0x40]
    42e2:	4c 8b 54 24 48       	mov    r10,QWORD PTR [rsp+0x48]
    42e7:	0f 84 4b 01 00 00    	je     4438 <master+0x3a8>
    42ed:	4c 8b 44 24 60       	mov    r8,QWORD PTR [rsp+0x60]
    42f2:	4d 85 c0             	test   r8,r8
    42f5:	74 09                	je     4300 <master+0x270>
    42f7:	4c 89 da             	mov    rdx,r11
    42fa:	49 89 cb             	mov    r11,rcx
    42fd:	48 89 d1             	mov    rcx,rdx
    4300:	48 8b 50 30          	mov    rdx,QWORD PTR [rax+0x30]
    4304:	4c 8b 6c 24 58       	mov    r13,QWORD PTR [rsp+0x58]
    4309:	48 89 54 24 30       	mov    QWORD PTR [rsp+0x30],rdx
    430e:	48 63 50 08          	movsxd rdx,DWORD PTR [rax+0x8]
    4312:	31 f6                	xor    esi,esi
    4314:	49 39 d0             	cmp    r8,rdx
    4317:	40 0f 94 c6          	sete   sil
    431b:	ba 01 00 00 00       	mov    edx,0x1
    4320:	ff c6                	inc    esi
    4322:	4c 29 ea             	sub    rdx,r13
    4325:	4d 85 c9             	test   r9,r9
    4328:	66 89 74 24 38       	mov    WORD PTR [rsp+0x38],si
    432d:	48 8b 78 18          	mov    rdi,QWORD PTR [rax+0x18]
    4331:	49 0f 4e d5          	cmovle rdx,r13
    4335:	4d 39 5a 10          	cmp    QWORD PTR [r10+0x10],r11
    4339:	ff b5 00 02 00 00    	push   QWORD PTR [rbp+0x200]
    433f:	40 0f 94 c6          	sete   sil
    4343:	4d 85 c0             	test   r8,r8
    4346:	41 51                	push   r9
    4348:	40 0f b6 f6          	movzx  esi,sil
    434c:	49 89 c9             	mov    r9,rcx
    434f:	41 52                	push   r10
    4351:	48 89 d1             	mov    rcx,rdx
    4354:	4d 89 d8             	mov    r8,r11
    4357:	4c 89 54 24 58       	mov    QWORD PTR [rsp+0x58],r10
    435c:	ff b4 24 80 00 00 00 	push   QWORD PTR [rsp+0x80]
    4363:	4c 89 ea             	mov    rdx,r13
    4366:	57                   	push   rdi
    4367:	40 0f 94 c7          	sete   dil
    436b:	40 0f b6 ff          	movzx  edi,dil
    436f:	50                   	push   rax
    4370:	e8 ab f6 ff ff       	call   3a20 <update_tree>
    4375:	4c 8b 54 24 70       	mov    r10,QWORD PTR [rsp+0x70]
    437a:	31 c0                	xor    eax,eax
    437c:	66 41 89 42 20       	mov    WORD PTR [r10+0x20],ax
    4381:	0f b7 74 24 68       	movzx  esi,WORD PTR [rsp+0x68]
    4386:	48 8b 44 24 60       	mov    rax,QWORD PTR [rsp+0x60]
    438b:	48 83 c4 30          	add    rsp,0x30
    438f:	66 89 70 20          	mov    WORD PTR [rax+0x20],si
    4393:	48 83 3d bd 4c 00 00 	cmp    QWORD PTR [rip+0x4cbd],0x0        # 9058 <opt>
    439a:	00 
    439b:	75 46                	jne    43e3 <master+0x353>
    439d:	48 8b 0d bc 4c 00 00 	mov    rcx,QWORD PTR [rip+0x4cbc]        # 9060 <basket_sizes>
    43a4:	e9 ef fd ff ff       	jmp    4198 <master+0x108>
    43a9:	0f 1f 80 00 00 00 00 	nop    DWORD PTR [rax+0x0]
    43b0:	48 8b 3d b9 4c 00 00 	mov    rdi,QWORD PTR [rip+0x4cb9]        # 9070 <opt_basket>
    43b7:	e9 8d fe ff ff       	jmp    4249 <master+0x1b9>
    43bc:	0f 1f 40 00          	nop    DWORD PTR [rax+0x0]
    43c0:	49 83 c5 08          	add    r13,0x8
    43c4:	49 39 dd             	cmp    r13,rbx
    43c7:	74 0f                	je     43d8 <master+0x348>
    43c9:	48 89 c7             	mov    rdi,rax
    43cc:	e9 6d fe ff ff       	jmp    423e <master+0x1ae>
    43d1:	0f 1f 80 00 00 00 00 	nop    DWORD PTR [rax+0x0]
    43d8:	48 c7 05 75 4c 00 00 	mov    QWORD PTR [rip+0x4c75],0x1        # 9058 <opt>
    43df:	01 00 00 00 
    43e3:	48 8b 84 24 68 7f 00 	mov    rax,QWORD PTR [rsp+0x7f68]
    43ea:	00 
    43eb:	64 48 33 04 25 28 00 	xor    rax,QWORD PTR fs:0x28
    43f2:	00 00 
    43f4:	75 7c                	jne    4472 <master+0x3e2>
    43f6:	48 81 c4 78 7f 00 00 	add    rsp,0x7f78
    43fd:	5b                   	pop    rbx
    43fe:	5d                   	pop    rbp
    43ff:	41 5c                	pop    r12
    4401:	41 5d                	pop    r13
    4403:	41 5e                	pop    r14
    4405:	41 5f                	pop    r15
    4407:	c3                   	ret    
    4408:	0f 1f 84 00 00 00 00 	nop    DWORD PTR [rax+rax*1+0x0]
    440f:	00 
    4410:	bf 01 00 00 00       	mov    edi,0x1
    4415:	4c 89 54 24 38       	mov    QWORD PTR [rsp+0x38],r10
    441a:	4c 89 4c 24 30       	mov    QWORD PTR [rsp+0x30],r9
    441f:	e8 7c f9 ff ff       	call   3da0 <markBaskets>
    4424:	4c 8b 54 24 38       	mov    r10,QWORD PTR [rsp+0x38]
    4429:	4c 8b 4c 24 30       	mov    r9,QWORD PTR [rsp+0x30]
    442e:	e9 43 fe ff ff       	jmp    4276 <master+0x1e6>
    4433:	0f 1f 44 00 00       	nop    DWORD PTR [rax+rax*1+0x0]
    4438:	48 ff 85 68 02 00 00 	inc    QWORD PTR [rbp+0x268]
    443f:	31 c0                	xor    eax,eax
    4441:	66 41 83 7a 20 02    	cmp    WORD PTR [r10+0x20],0x2
    4447:	0f 95 c0             	setne  al
    444a:	ff c0                	inc    eax
    444c:	48 83 7c 24 58 00    	cmp    QWORD PTR [rsp+0x58],0x0
    4452:	66 41 89 42 20       	mov    WORD PTR [r10+0x20],ax
    4457:	0f 84 36 ff ff ff    	je     4393 <master+0x303>
    445d:	48 8b 54 24 68       	mov    rdx,QWORD PTR [rsp+0x68]
    4462:	48 89 ce             	mov    rsi,rcx
    4465:	4c 89 df             	mov    rdi,r11
    4468:	e8 e3 f8 ff ff       	call   3d50 <primal_update_flow>
    446d:	e9 21 ff ff ff       	jmp    4393 <master+0x303>
    4472:	e8 f9 cc ff ff       	call   1170 <__stack_chk_fail@plt>
    4477:	66 0f 1f 84 00 00 00 	nop    WORD PTR [rax+rax*1+0x0]
    447e:	00 00 

0000000000004480 <primal_net_simplex>:
    4480:	f3 0f 1e fa          	endbr64 
    4484:	55                   	push   rbp
    4485:	be 08 00 00 00       	mov    esi,0x8
    448a:	48 89 fd             	mov    rbp,rdi
    448d:	bf 01 00 00 00       	mov    edi,0x1
    4492:	e8 09 cd ff ff       	call   11a0 <calloc@plt>
    4497:	be 08 00 00 00       	mov    esi,0x8
    449c:	bf 01 00 00 00       	mov    edi,0x1
    44a1:	48 89 05 c0 4b 00 00 	mov    QWORD PTR [rip+0x4bc0],rax        # 9068 <perm_p>
    44a8:	e8 f3 cc ff ff       	call   11a0 <calloc@plt>
    44ad:	be 08 00 00 00       	mov    esi,0x8
    44b2:	bf 01 00 00 00       	mov    edi,0x1
    44b7:	48 89 05 b2 4b 00 00 	mov    QWORD PTR [rip+0x4bb2],rax        # 9070 <opt_basket>
    44be:	e8 dd cc ff ff       	call   11a0 <calloc@plt>
    44c3:	be 20 00 00 00       	mov    esi,0x20
    44c8:	bf a5 10 00 00       	mov    edi,0x10a5
    44cd:	48 89 05 8c 4b 00 00 	mov    QWORD PTR [rip+0x4b8c],rax        # 9060 <basket_sizes>
    44d4:	e8 c7 cc ff ff       	call   11a0 <calloc@plt>
    44d9:	48 8b b5 38 02 00 00 	mov    rsi,QWORD PTR [rbp+0x238]
    44e0:	48 89 ef             	mov    rdi,rbp
    44e3:	48 89 05 66 4b 00 00 	mov    QWORD PTR [rip+0x4b66],rax        # 9050 <basket>
    44ea:	e8 a1 00 00 00       	call   4590 <set_static_vars>
    44ef:	be 01 00 00 00       	mov    esi,0x1
    44f4:	48 89 ef             	mov    rdi,rbp
    44f7:	e8 94 fb ff ff       	call   4090 <master>
    44fc:	48 89 ef             	mov    rdi,rbp
    44ff:	e8 dc d5 ff ff       	call   1ae0 <primal_feasible>
    4504:	48 89 ef             	mov    rdi,rbp
    4507:	e8 24 d7 ff ff       	call   1c30 <dual_feasible>
    450c:	48 8b 3d 55 4b 00 00 	mov    rdi,QWORD PTR [rip+0x4b55]        # 9068 <perm_p>
    4513:	48 c7 05 3a 4b 00 00 	mov    QWORD PTR [rip+0x4b3a],0x0        # 9058 <opt>
    451a:	00 00 00 00 
    451e:	e8 2d cc ff ff       	call   1150 <free@plt>
    4523:	48 8b 3d 46 4b 00 00 	mov    rdi,QWORD PTR [rip+0x4b46]        # 9070 <opt_basket>
    452a:	e8 21 cc ff ff       	call   1150 <free@plt>
    452f:	48 8b 3d 2a 4b 00 00 	mov    rdi,QWORD PTR [rip+0x4b2a]        # 9060 <basket_sizes>
    4536:	e8 15 cc ff ff       	call   1150 <free@plt>
    453b:	48 8b 3d 0e 4b 00 00 	mov    rdi,QWORD PTR [rip+0x4b0e]        # 9050 <basket>
    4542:	e8 09 cc ff ff       	call   1150 <free@plt>
    4547:	31 c0                	xor    eax,eax
    4549:	5d                   	pop    rbp
    454a:	c3                   	ret    
    454b:	0f 1f 44 00 00       	nop    DWORD PTR [rax+rax*1+0x0]

0000000000004550 <cost_compare>:
    4550:	f3 0f 1e fa          	endbr64 
    4554:	48 8b 16             	mov    rdx,QWORD PTR [rsi]
    4557:	48 8b 0f             	mov    rcx,QWORD PTR [rdi]
    455a:	48 8b 72 10          	mov    rsi,QWORD PTR [rdx+0x10]
    455e:	b8 01 00 00 00       	mov    eax,0x1
    4563:	48 39 71 10          	cmp    QWORD PTR [rcx+0x10],rsi
    4567:	7c 1b                	jl     4584 <cost_compare+0x34>
    4569:	b8 ff ff ff ff       	mov    eax,0xffffffff
    456e:	7f 14                	jg     4584 <cost_compare+0x34>
    4570:	48 8b 02             	mov    rax,QWORD PTR [rdx]
    4573:	48 8b 09             	mov    rcx,QWORD PTR [rcx]
    4576:	8b 00                	mov    eax,DWORD PTR [rax]
    4578:	39 01                	cmp    DWORD PTR [rcx],eax
    457a:	0f 9f c0             	setg   al
    457d:	0f b6 c0             	movzx  eax,al
    4580:	8d 44 00 ff          	lea    eax,[rax+rax*1-0x1]
    4584:	c3                   	ret    
    4585:	66 66 2e 0f 1f 84 00 	data16 cs nop WORD PTR [rax+rax*1+0x0]
    458c:	00 00 00 00 

0000000000004590 <set_static_vars>:
    4590:	f3 0f 1e fa          	endbr64 
    4594:	48 8b 87 78 02 00 00 	mov    rax,QWORD PTR [rdi+0x278]
    459b:	48 0f af 87 80 02 00 	imul   rax,QWORD PTR [rdi+0x280]
    45a2:	00 
    45a3:	48 8d 04 c0          	lea    rax,[rax+rax*8]
    45a7:	48 8d 04 c6          	lea    rax,[rsi+rax*8]
    45ab:	48 89 05 c6 4a 00 00 	mov    QWORD PTR [rip+0x4ac6],rax        # 9078 <full_group_end_arc>
    45b2:	c3                   	ret    
    45b3:	66 66 2e 0f 1f 84 00 	data16 cs nop WORD PTR [rax+rax*1+0x0]
    45ba:	00 00 00 00 
    45be:	66 90                	xchg   ax,ax

00000000000045c0 <bea_is_dual_infeasible>:
    45c0:	f3 0f 1e fa          	endbr64 
    45c4:	48 85 f6             	test   rsi,rsi
    45c7:	78 17                	js     45e0 <bea_is_dual_infeasible+0x20>
    45c9:	74 25                	je     45f0 <bea_is_dual_infeasible+0x30>
    45cb:	31 c0                	xor    eax,eax
    45cd:	66 83 7f 20 02       	cmp    WORD PTR [rdi+0x20],0x2
    45d2:	0f 94 c0             	sete   al
    45d5:	c3                   	ret    
    45d6:	66 2e 0f 1f 84 00 00 	cs nop WORD PTR [rax+rax*1+0x0]
    45dd:	00 00 00 
    45e0:	31 c0                	xor    eax,eax
    45e2:	66 83 7f 20 01       	cmp    WORD PTR [rdi+0x20],0x1
    45e7:	0f 94 c0             	sete   al
    45ea:	c3                   	ret    
    45eb:	0f 1f 44 00 00       	nop    DWORD PTR [rax+rax*1+0x0]
    45f0:	31 c0                	xor    eax,eax
    45f2:	c3                   	ret    
    45f3:	66 66 2e 0f 1f 84 00 	data16 cs nop WORD PTR [rax+rax*1+0x0]
    45fa:	00 00 00 00 
    45fe:	66 90                	xchg   ax,ax

0000000000004600 <primal_bea_mpp>:
    4600:	f3 0f 1e fa          	endbr64 
    4604:	41 57                	push   r15
    4606:	49 63 c1             	movsxd rax,r9d
    4609:	45 31 db             	xor    r11d,r11d
    460c:	41 56                	push   r14
    460e:	41 55                	push   r13
    4610:	41 54                	push   r12
    4612:	55                   	push   rbp
    4613:	53                   	push   rbx
    4614:	4c 89 c3             	mov    rbx,r8
    4617:	48 83 ec 28          	sub    rsp,0x28
    461b:	48 89 54 24 10       	mov    QWORD PTR [rsp+0x10],rdx
    4620:	48 89 ca             	mov    rdx,rcx
    4623:	48 89 4c 24 18       	mov    QWORD PTR [rsp+0x18],rcx
    4628:	4c 8d 0c c2          	lea    r9,[rdx+rax*8]
    462c:	48 8b 7c 24 60       	mov    rdi,QWORD PTR [rsp+0x60]
    4631:	4c 8b 54 24 68       	mov    r10,QWORD PTR [rsp+0x68]
    4636:	4c 8b 64 24 70       	mov    r12,QWORD PTR [rsp+0x70]
    463b:	48 8b 4c 24 78       	mov    rcx,QWORD PTR [rsp+0x78]
    4640:	b8 01 00 00 00       	mov    eax,0x1
    4645:	eb 1b                	jmp    4662 <primal_bea_mpp+0x62>
    4647:	66 0f 1f 84 00 00 00 	nop    WORD PTR [rax+rax*1+0x0]
    464e:	00 00 
    4650:	74 07                	je     4659 <primal_bea_mpp+0x59>
    4652:	66 83 7d 20 02       	cmp    WORD PTR [rbp+0x20],0x2
    4657:	74 37                	je     4690 <primal_bea_mpp+0x90>
    4659:	48 ff c0             	inc    rax
    465c:	48 83 f8 3d          	cmp    rax,0x3d
    4660:	74 6e                	je     46d0 <primal_bea_mpp+0xd0>
    4662:	49 39 01             	cmp    QWORD PTR [r9],rax
    4665:	7c 69                	jl     46d0 <primal_bea_mpp+0xd0>
    4667:	48 8b 14 c3          	mov    rdx,QWORD PTR [rbx+rax*8]
    466b:	48 83 7a 18 00       	cmp    QWORD PTR [rdx+0x18],0x0
    4670:	7e e7                	jle    4659 <primal_bea_mpp+0x59>
    4672:	48 8b 2a             	mov    rbp,QWORD PTR [rdx]
    4675:	4c 8b 45 10          	mov    r8,QWORD PTR [rbp+0x10]
    4679:	48 8b 55 08          	mov    rdx,QWORD PTR [rbp+0x8]
    467d:	49 2b 10             	sub    rdx,QWORD PTR [r8]
    4680:	4c 8b 45 18          	mov    r8,QWORD PTR [rbp+0x18]
    4684:	49 03 10             	add    rdx,QWORD PTR [r8]
    4687:	79 c7                	jns    4650 <primal_bea_mpp+0x50>
    4689:	66 83 7d 20 01       	cmp    WORD PTR [rbp+0x20],0x1
    468e:	75 c9                	jne    4659 <primal_bea_mpp+0x59>
    4690:	49 ff c3             	inc    r11
    4693:	4e 8d 04 db          	lea    r8,[rbx+r11*8]
    4697:	4d 8b 28             	mov    r13,QWORD PTR [r8]
    469a:	48 ff c0             	inc    rax
    469d:	49 89 6d 00          	mov    QWORD PTR [r13+0x0],rbp
    46a1:	49 89 d5             	mov    r13,rdx
    46a4:	49 c1 fd 3f          	sar    r13,0x3f
    46a8:	49 8b 28             	mov    rbp,QWORD PTR [r8]
    46ab:	48 89 55 08          	mov    QWORD PTR [rbp+0x8],rdx
    46af:	4c 31 ea             	xor    rdx,r13
    46b2:	49 8b 28             	mov    rbp,QWORD PTR [r8]
    46b5:	48 89 55 10          	mov    QWORD PTR [rbp+0x10],rdx
    46b9:	4c 29 6d 10          	sub    QWORD PTR [rbp+0x10],r13
    46bd:	49 8b 10             	mov    rdx,QWORD PTR [r8]
    46c0:	48 c7 42 18 00 00 00 	mov    QWORD PTR [rdx+0x18],0x0
    46c7:	00 
    46c8:	48 83 f8 3d          	cmp    rax,0x3d
    46cc:	75 94                	jne    4662 <primal_bea_mpp+0x62>
    46ce:	66 90                	xchg   ax,ax
    46d0:	4d 89 19             	mov    QWORD PTR [r9],r11
    46d3:	48 8b 05 9e 49 00 00 	mov    rax,QWORD PTR [rip+0x499e]        # 9078 <full_group_end_arc>
    46da:	4c 8d 1c c9          	lea    r11,[rcx+rcx*8]
    46de:	4e 8d 04 e5 00 00 00 	lea    r8,[r12*8+0x0]
    46e5:	00 
    46e6:	4c 8b 2f             	mov    r13,QWORD PTR [rdi]
    46e9:	48 89 44 24 08       	mov    QWORD PTR [rsp+0x8],rax
    46ee:	4b 8d 2c d2          	lea    rbp,[r10+r10*8]
    46f2:	49 c1 e3 03          	shl    r11,0x3
    46f6:	4f 8d 14 20          	lea    r10,[r8+r12*1]
    46fa:	48 c1 e5 03          	shl    rbp,0x3
    46fe:	4d 8d 73 b8          	lea    r14,[r11-0x48]
    4702:	49 c1 e2 03          	shl    r10,0x3
    4706:	4c 03 44 24 18       	add    r8,QWORD PTR [rsp+0x18]
    470b:	4c 89 e9             	mov    rcx,r13
    470e:	66 90                	xchg   ax,ax
    4710:	4e 8d 3c 31          	lea    r15,[rcx+r14*1]
    4714:	4a 8d 14 19          	lea    rdx,[rcx+r11*1]
    4718:	48 39 4c 24 08       	cmp    QWORD PTR [rsp+0x8],rcx
    471d:	49 0f 46 d7          	cmovbe rdx,r15
    4721:	48 8d 04 29          	lea    rax,[rcx+rbp*1]
    4725:	48 89 17             	mov    QWORD PTR [rdi],rdx
    4728:	48 39 c2             	cmp    rdx,rax
    472b:	77 1e                	ja     474b <primal_bea_mpp+0x14b>
    472d:	e9 8e 00 00 00       	jmp    47c0 <primal_bea_mpp+0x1c0>
    4732:	66 0f 1f 44 00 00    	nop    WORD PTR [rax+rax*1+0x0]
    4738:	7e 06                	jle    4740 <primal_bea_mpp+0x140>
    473a:	66 83 f9 02          	cmp    cx,0x2
    473e:	74 31                	je     4771 <primal_bea_mpp+0x171>
    4740:	48 8b 17             	mov    rdx,QWORD PTR [rdi]
    4743:	4c 01 d0             	add    rax,r10
    4746:	48 39 c2             	cmp    rdx,rax
    4749:	76 75                	jbe    47c0 <primal_bea_mpp+0x1c0>
    474b:	0f b7 48 20          	movzx  ecx,WORD PTR [rax+0x20]
    474f:	66 85 c9             	test   cx,cx
    4752:	7e ec                	jle    4740 <primal_bea_mpp+0x140>
    4754:	4c 8b 78 10          	mov    r15,QWORD PTR [rax+0x10]
    4758:	48 8b 50 08          	mov    rdx,QWORD PTR [rax+0x8]
    475c:	49 2b 17             	sub    rdx,QWORD PTR [r15]
    475f:	4c 8b 78 18          	mov    r15,QWORD PTR [rax+0x18]
    4763:	49 03 17             	add    rdx,QWORD PTR [r15]
    4766:	48 85 d2             	test   rdx,rdx
    4769:	79 cd                	jns    4738 <primal_bea_mpp+0x138>
    476b:	66 83 f9 01          	cmp    cx,0x1
    476f:	75 cf                	jne    4740 <primal_bea_mpp+0x140>
    4771:	49 8b 09             	mov    rcx,QWORD PTR [r9]
    4774:	49 89 d7             	mov    r15,rdx
    4777:	48 ff c1             	inc    rcx
    477a:	49 89 09             	mov    QWORD PTR [r9],rcx
    477d:	49 c1 ff 3f          	sar    r15,0x3f
    4781:	48 8b 0c cb          	mov    rcx,QWORD PTR [rbx+rcx*8]
    4785:	48 89 01             	mov    QWORD PTR [rcx],rax
    4788:	4c 01 d0             	add    rax,r10
    478b:	49 8b 09             	mov    rcx,QWORD PTR [r9]
    478e:	48 8b 0c cb          	mov    rcx,QWORD PTR [rbx+rcx*8]
    4792:	48 89 51 08          	mov    QWORD PTR [rcx+0x8],rdx
    4796:	4c 31 fa             	xor    rdx,r15
    4799:	49 8b 09             	mov    rcx,QWORD PTR [r9]
    479c:	48 8b 0c cb          	mov    rcx,QWORD PTR [rbx+rcx*8]
    47a0:	48 89 51 10          	mov    QWORD PTR [rcx+0x10],rdx
    47a4:	4c 29 79 10          	sub    QWORD PTR [rcx+0x10],r15
    47a8:	49 8b 11             	mov    rdx,QWORD PTR [r9]
    47ab:	48 8b 14 d3          	mov    rdx,QWORD PTR [rbx+rdx*8]
    47af:	48 c7 42 18 00 00 00 	mov    QWORD PTR [rdx+0x18],0x0
    47b6:	00 
    47b7:	48 8b 17             	mov    rdx,QWORD PTR [rdi]
    47ba:	48 39 c2             	cmp    rdx,rax
    47bd:	77 8c                	ja     474b <primal_bea_mpp+0x14b>
    47bf:	90                   	nop
    47c0:	48 39 54 24 10       	cmp    QWORD PTR [rsp+0x10],rdx
    47c5:	76 79                	jbe    4840 <primal_bea_mpp+0x240>
    47c7:	48 8b 0f             	mov    rcx,QWORD PTR [rdi]
    47ca:	49 39 cd             	cmp    r13,rcx
    47cd:	74 27                	je     47f6 <primal_bea_mpp+0x1f6>
    47cf:	4d 85 e4             	test   r12,r12
    47d2:	0f 8e 38 ff ff ff    	jle    4710 <primal_bea_mpp+0x110>
    47d8:	48 8b 44 24 18       	mov    rax,QWORD PTR [rsp+0x18]
    47dd:	31 d2                	xor    edx,edx
    47df:	90                   	nop
    47e0:	48 03 10             	add    rdx,QWORD PTR [rax]
    47e3:	48 83 c0 08          	add    rax,0x8
    47e7:	49 39 c0             	cmp    r8,rax
    47ea:	75 f4                	jne    47e0 <primal_bea_mpp+0x1e0>
    47ec:	48 83 fa 3b          	cmp    rdx,0x3b
    47f0:	0f 8e 1a ff ff ff    	jle    4710 <primal_bea_mpp+0x110>
    47f6:	49 8b 01             	mov    rax,QWORD PTR [r9]
    47f9:	48 8b 44 c3 08       	mov    rax,QWORD PTR [rbx+rax*8+0x8]
    47fe:	48 c7 40 18 ff ff ff 	mov    QWORD PTR [rax+0x18],0xffffffffffffffff
    4805:	ff 
    4806:	31 c0                	xor    eax,eax
    4808:	49 8b 31             	mov    rsi,QWORD PTR [r9]
    480b:	48 85 f6             	test   rsi,rsi
    480e:	74 19                	je     4829 <primal_bea_mpp+0x229>
    4810:	48 8d 7b 08          	lea    rdi,[rbx+0x8]
    4814:	48 8d 0d 35 fd ff ff 	lea    rcx,[rip+0xfffffffffffffd35]        # 4550 <cost_compare>
    481b:	ba 08 00 00 00       	mov    edx,0x8
    4820:	e8 2b 00 00 00       	call   4850 <spec_qsort>
    4825:	48 8b 43 08          	mov    rax,QWORD PTR [rbx+0x8]
    4829:	48 83 c4 28          	add    rsp,0x28
    482d:	5b                   	pop    rbx
    482e:	5d                   	pop    rbp
    482f:	41 5c                	pop    r12
    4831:	41 5d                	pop    r13
    4833:	41 5e                	pop    r14
    4835:	41 5f                	pop    r15
    4837:	c3                   	ret    
    4838:	0f 1f 84 00 00 00 00 	nop    DWORD PTR [rax+rax*1+0x0]
    483f:	00 
    4840:	48 89 37             	mov    QWORD PTR [rdi],rsi
    4843:	48 89 f1             	mov    rcx,rsi
    4846:	eb 82                	jmp    47ca <primal_bea_mpp+0x1ca>
    4848:	0f 1f 84 00 00 00 00 	nop    DWORD PTR [rax+rax*1+0x0]
    484f:	00 

0000000000004850 <spec_qsort>:
    4850:	f3 0f 1e fa          	endbr64 
    4854:	41 57                	push   r15
    4856:	48 63 c2             	movsxd rax,edx
    4859:	49 89 ff             	mov    r15,rdi
    485c:	41 56                	push   r14
    485e:	49 89 ce             	mov    r14,rcx
    4861:	48 89 c1             	mov    rcx,rax
    4864:	41 55                	push   r13
    4866:	48 c1 e9 02          	shr    rcx,0x2
    486a:	41 54                	push   r12
    486c:	55                   	push   rbp
    486d:	53                   	push   rbx
    486e:	48 83 ec 68          	sub    rsp,0x68
    4872:	48 89 44 24 38       	mov    QWORD PTR [rsp+0x38],rax
    4877:	48 c1 e8 03          	shr    rax,0x3
    487b:	48 89 74 24 30       	mov    QWORD PTR [rsp+0x30],rsi
    4880:	48 89 54 24 20       	mov    QWORD PTR [rsp+0x20],rdx
    4885:	48 89 4c 24 58       	mov    QWORD PTR [rsp+0x58],rcx
    488a:	48 89 44 24 40       	mov    QWORD PTR [rsp+0x40],rax
    488f:	48 8b 44 24 20       	mov    rax,QWORD PTR [rsp+0x20]
    4894:	c7 44 24 08 02 00 00 	mov    DWORD PTR [rsp+0x8],0x2
    489b:	00 
    489c:	4c 09 f8             	or     rax,r15
    489f:	a8 07                	test   al,0x7
    48a1:	0f 84 39 07 00 00    	je     4fe0 <spec_qsort+0x790>
    48a7:	c7 44 24 1c 02 00 00 	mov    DWORD PTR [rsp+0x1c],0x2
    48ae:	00 
    48af:	a8 03                	test   al,0x3
    48b1:	0f 84 37 06 00 00    	je     4eee <spec_qsort+0x69e>
    48b7:	48 83 7c 24 30 06    	cmp    QWORD PTR [rsp+0x30],0x6
    48bd:	0f 86 46 06 00 00    	jbe    4f09 <spec_qsort+0x6b9>
    48c3:	48 8b 4c 24 30       	mov    rcx,QWORD PTR [rsp+0x30]
    48c8:	48 8b 7c 24 20       	mov    rdi,QWORD PTR [rsp+0x20]
    48cd:	48 89 c8             	mov    rax,rcx
    48d0:	48 d1 e8             	shr    rax,1
    48d3:	48 8d 51 ff          	lea    rdx,[rcx-0x1]
    48d7:	48 0f af c7          	imul   rax,rdi
    48db:	48 0f af d7          	imul   rdx,rdi
    48df:	49 8d 2c 07          	lea    rbp,[r15+rax*1]
    48e3:	4d 8d 2c 17          	lea    r13,[r15+rdx*1]
    48e7:	48 83 f9 07          	cmp    rcx,0x7
    48eb:	74 43                	je     4930 <spec_qsort+0xe0>
    48ed:	4c 89 eb             	mov    rbx,r13
    48f0:	4d 89 fc             	mov    r12,r15
    48f3:	48 83 f9 28          	cmp    rcx,0x28
    48f7:	0f 87 f7 06 00 00    	ja     4ff4 <spec_qsort+0x7a4>
    48fd:	48 89 ee             	mov    rsi,rbp
    4900:	4c 89 e7             	mov    rdi,r12
    4903:	41 ff d6             	call   r14
    4906:	48 89 de             	mov    rsi,rbx
    4909:	48 89 ef             	mov    rdi,rbp
    490c:	85 c0                	test   eax,eax
    490e:	0f 88 b8 05 00 00    	js     4ecc <spec_qsort+0x67c>
    4914:	41 ff d6             	call   r14
    4917:	85 c0                	test   eax,eax
    4919:	7f 15                	jg     4930 <spec_qsort+0xe0>
    491b:	48 89 de             	mov    rsi,rbx
    491e:	4c 89 e7             	mov    rdi,r12
    4921:	41 ff d6             	call   r14
    4924:	85 c0                	test   eax,eax
    4926:	49 0f 48 dc          	cmovs  rbx,r12
    492a:	48 89 dd             	mov    rbp,rbx
    492d:	0f 1f 00             	nop    DWORD PTR [rax]
    4930:	8b 5c 24 08          	mov    ebx,DWORD PTR [rsp+0x8]
    4934:	85 db                	test   ebx,ebx
    4936:	0f 85 56 04 00 00    	jne    4d92 <spec_qsort+0x542>
    493c:	49 8b 07             	mov    rax,QWORD PTR [r15]
    493f:	48 8b 4d 00          	mov    rcx,QWORD PTR [rbp+0x0]
    4943:	49 89 0f             	mov    QWORD PTR [r15],rcx
    4946:	48 89 45 00          	mov    QWORD PTR [rbp+0x0],rax
    494a:	48 8b 7c 24 20       	mov    rdi,QWORD PTR [rsp+0x20]
    494f:	49 8d 04 3f          	lea    rax,[r15+rdi*1]
    4953:	48 89 44 24 48       	mov    QWORD PTR [rsp+0x48],rax
    4958:	4c 39 e8             	cmp    rax,r13
    495b:	0f 87 1a 03 00 00    	ja     4c7b <spec_qsort+0x42b>
    4961:	48 89 44 24 50       	mov    QWORD PTR [rsp+0x50],rax
    4966:	c7 44 24 10 00 00 00 	mov    DWORD PTR [rsp+0x10],0x0
    496d:	00 
    496e:	48 f7 df             	neg    rdi
    4971:	48 89 c3             	mov    rbx,rax
    4974:	4c 89 ed             	mov    rbp,r13
    4977:	49 89 fc             	mov    r12,rdi
    497a:	66 0f 1f 44 00 00    	nop    WORD PTR [rax+rax*1+0x0]
    4980:	4c 89 fe             	mov    rsi,r15
    4983:	48 89 df             	mov    rdi,rbx
    4986:	48 89 5c 24 28       	mov    QWORD PTR [rsp+0x28],rbx
    498b:	41 ff d6             	call   r14
    498e:	85 c0                	test   eax,eax
    4990:	7f 2c                	jg     49be <spec_qsort+0x16e>
    4992:	e9 d9 01 00 00       	jmp    4b70 <spec_qsort+0x320>
    4997:	66 0f 1f 84 00 00 00 	nop    WORD PTR [rax+rax*1+0x0]
    499e:	00 00 
    49a0:	48 8b 45 00          	mov    rax,QWORD PTR [rbp+0x0]
    49a4:	49 8b 75 00          	mov    rsi,QWORD PTR [r13+0x0]
    49a8:	48 89 75 00          	mov    QWORD PTR [rbp+0x0],rsi
    49ac:	49 89 45 00          	mov    QWORD PTR [r13+0x0],rax
    49b0:	c7 44 24 10 01 00 00 	mov    DWORD PTR [rsp+0x10],0x1
    49b7:	00 
    49b8:	4d 01 e5             	add    r13,r12
    49bb:	4c 01 e5             	add    rbp,r12
    49be:	48 39 dd             	cmp    rbp,rbx
    49c1:	72 75                	jb     4a38 <spec_qsort+0x1e8>
    49c3:	4c 89 fe             	mov    rsi,r15
    49c6:	48 89 ef             	mov    rdi,rbp
    49c9:	41 ff d6             	call   r14
    49cc:	85 c0                	test   eax,eax
    49ce:	78 30                	js     4a00 <spec_qsort+0x1b0>
    49d0:	75 e9                	jne    49bb <spec_qsort+0x16b>
    49d2:	44 8b 44 24 08       	mov    r8d,DWORD PTR [rsp+0x8]
    49d7:	45 85 c0             	test   r8d,r8d
    49da:	74 c4                	je     49a0 <spec_qsort+0x150>
    49dc:	8b 7c 24 1c          	mov    edi,DWORD PTR [rsp+0x1c]
    49e0:	85 ff                	test   edi,edi
    49e2:	0f 85 e8 00 00 00    	jne    4ad0 <spec_qsort+0x280>
    49e8:	8b 45 00             	mov    eax,DWORD PTR [rbp+0x0]
    49eb:	41 8b 75 00          	mov    esi,DWORD PTR [r13+0x0]
    49ef:	89 75 00             	mov    DWORD PTR [rbp+0x0],esi
    49f2:	41 89 45 00          	mov    DWORD PTR [r13+0x0],eax
    49f6:	eb b8                	jmp    49b0 <spec_qsort+0x160>
    49f8:	0f 1f 84 00 00 00 00 	nop    DWORD PTR [rax+rax*1+0x0]
    49ff:	00 
    4a00:	8b 44 24 08          	mov    eax,DWORD PTR [rsp+0x8]
    4a04:	85 c0                	test   eax,eax
    4a06:	0f 85 14 01 00 00    	jne    4b20 <spec_qsort+0x2d0>
    4a0c:	48 8b 03             	mov    rax,QWORD PTR [rbx]
    4a0f:	48 8b 75 00          	mov    rsi,QWORD PTR [rbp+0x0]
    4a13:	48 89 33             	mov    QWORD PTR [rbx],rsi
    4a16:	48 89 45 00          	mov    QWORD PTR [rbp+0x0],rax
    4a1a:	48 03 5c 24 20       	add    rbx,QWORD PTR [rsp+0x20]
    4a1f:	48 89 5c 24 28       	mov    QWORD PTR [rsp+0x28],rbx
    4a24:	c7 44 24 10 01 00 00 	mov    DWORD PTR [rsp+0x10],0x1
    4a2b:	00 
    4a2c:	4c 01 e5             	add    rbp,r12
    4a2f:	48 39 dd             	cmp    rbp,rbx
    4a32:	0f 83 48 ff ff ff    	jae    4980 <spec_qsort+0x130>
    4a38:	48 8b 5c 24 30       	mov    rbx,QWORD PTR [rsp+0x30]
    4a3d:	8b 74 24 10          	mov    esi,DWORD PTR [rsp+0x10]
    4a41:	48 0f af 5c 24 20    	imul   rbx,QWORD PTR [rsp+0x20]
    4a47:	48 89 e8             	mov    rax,rbp
    4a4a:	4c 89 ed             	mov    rbp,r13
    4a4d:	4c 01 fb             	add    rbx,r15
    4a50:	49 89 c5             	mov    r13,rax
    4a53:	85 f6                	test   esi,esi
    4a55:	0f 84 2e 02 00 00    	je     4c89 <spec_qsort+0x439>
    4a5b:	48 8b 4c 24 50       	mov    rcx,QWORD PTR [rsp+0x50]
    4a60:	48 8b 44 24 28       	mov    rax,QWORD PTR [rsp+0x28]
    4a65:	49 89 d9             	mov    r9,rbx
    4a68:	48 29 c8             	sub    rax,rcx
    4a6b:	4c 29 f9             	sub    rcx,r15
    4a6e:	48 39 c1             	cmp    rcx,rax
    4a71:	48 89 ce             	mov    rsi,rcx
    4a74:	48 0f 4f f0          	cmovg  rsi,rax
    4a78:	49 89 ec             	mov    r12,rbp
    4a7b:	49 29 e9             	sub    r9,rbp
    4a7e:	4d 29 ec             	sub    r12,r13
    4a81:	4c 2b 4c 24 20       	sub    r9,QWORD PTR [rsp+0x20]
    4a86:	4d 39 e1             	cmp    r9,r12
    4a89:	4d 0f 4f cc          	cmovg  r9,r12
    4a8d:	48 85 f6             	test   rsi,rsi
    4a90:	0f 85 79 03 00 00    	jne    4e0f <spec_qsort+0x5bf>
    4a96:	4d 85 c9             	test   r9,r9
    4a99:	0f 85 2b 06 00 00    	jne    50ca <spec_qsort+0x87a>
    4a9f:	48 39 44 24 20       	cmp    QWORD PTR [rsp+0x20],rax
    4aa4:	0f 82 02 04 00 00    	jb     4eac <spec_qsort+0x65c>
    4aaa:	48 8b 4c 24 20       	mov    rcx,QWORD PTR [rsp+0x20]
    4aaf:	4c 39 e1             	cmp    rcx,r12
    4ab2:	0f 83 84 02 00 00    	jae    4d3c <spec_qsort+0x4ec>
    4ab8:	4c 89 e0             	mov    rax,r12
    4abb:	31 d2                	xor    edx,edx
    4abd:	48 f7 f1             	div    rcx
    4ac0:	4c 29 e3             	sub    rbx,r12
    4ac3:	49 89 df             	mov    r15,rbx
    4ac6:	48 89 44 24 30       	mov    QWORD PTR [rsp+0x30],rax
    4acb:	e9 bf fd ff ff       	jmp    488f <spec_qsort+0x3f>
    4ad0:	83 7c 24 08 01       	cmp    DWORD PTR [rsp+0x8],0x1
    4ad5:	4c 89 ee             	mov    rsi,r13
    4ad8:	48 89 e8             	mov    rax,rbp
    4adb:	74 63                	je     4b40 <spec_qsort+0x2f0>
    4add:	83 7c 24 1c 01       	cmp    DWORD PTR [rsp+0x1c],0x1
    4ae2:	0f 84 d0 00 00 00    	je     4bb8 <spec_qsort+0x368>
    4ae8:	48 8b 4c 24 38       	mov    rcx,QWORD PTR [rsp+0x38]
    4aed:	4c 8d 4c 0d 00       	lea    r9,[rbp+rcx*1+0x0]
    4af2:	66 0f 1f 44 00 00    	nop    WORD PTR [rax+rax*1+0x0]
    4af8:	0f b6 10             	movzx  edx,BYTE PTR [rax]
    4afb:	0f b6 0e             	movzx  ecx,BYTE PTR [rsi]
    4afe:	48 ff c6             	inc    rsi
    4b01:	48 ff c0             	inc    rax
    4b04:	88 48 ff             	mov    BYTE PTR [rax-0x1],cl
    4b07:	88 56 ff             	mov    BYTE PTR [rsi-0x1],dl
    4b0a:	4c 89 ca             	mov    rdx,r9
    4b0d:	48 29 c2             	sub    rdx,rax
    4b10:	48 85 d2             	test   rdx,rdx
    4b13:	7f e3                	jg     4af8 <spec_qsort+0x2a8>
    4b15:	e9 96 fe ff ff       	jmp    49b0 <spec_qsort+0x160>
    4b1a:	66 0f 1f 44 00 00    	nop    WORD PTR [rax+rax*1+0x0]
    4b20:	8b 4c 24 1c          	mov    ecx,DWORD PTR [rsp+0x1c]
    4b24:	85 c9                	test   ecx,ecx
    4b26:	0f 85 b4 00 00 00    	jne    4be0 <spec_qsort+0x390>
    4b2c:	8b 03                	mov    eax,DWORD PTR [rbx]
    4b2e:	8b 75 00             	mov    esi,DWORD PTR [rbp+0x0]
    4b31:	89 33                	mov    DWORD PTR [rbx],esi
    4b33:	89 45 00             	mov    DWORD PTR [rbp+0x0],eax
    4b36:	e9 df fe ff ff       	jmp    4a1a <spec_qsort+0x1ca>
    4b3b:	0f 1f 44 00 00       	nop    DWORD PTR [rax+rax*1+0x0]
    4b40:	48 8b 7c 24 40       	mov    rdi,QWORD PTR [rsp+0x40]
    4b45:	0f 1f 00             	nop    DWORD PTR [rax]
    4b48:	48 8b 10             	mov    rdx,QWORD PTR [rax]
    4b4b:	48 8b 0e             	mov    rcx,QWORD PTR [rsi]
    4b4e:	48 ff cf             	dec    rdi
    4b51:	48 83 c6 08          	add    rsi,0x8
    4b55:	48 83 c0 08          	add    rax,0x8
    4b59:	48 89 48 f8          	mov    QWORD PTR [rax-0x8],rcx
    4b5d:	48 89 56 f8          	mov    QWORD PTR [rsi-0x8],rdx
    4b61:	48 85 ff             	test   rdi,rdi
    4b64:	7f e2                	jg     4b48 <spec_qsort+0x2f8>
    4b66:	e9 45 fe ff ff       	jmp    49b0 <spec_qsort+0x160>
    4b6b:	0f 1f 44 00 00       	nop    DWORD PTR [rax+rax*1+0x0]
    4b70:	75 31                	jne    4ba3 <spec_qsort+0x353>
    4b72:	44 8b 54 24 08       	mov    r10d,DWORD PTR [rsp+0x8]
    4b77:	45 85 d2             	test   r10d,r10d
    4b7a:	0f 85 ab 00 00 00    	jne    4c2b <spec_qsort+0x3db>
    4b80:	48 8b 7c 24 50       	mov    rdi,QWORD PTR [rsp+0x50]
    4b85:	48 8b 33             	mov    rsi,QWORD PTR [rbx]
    4b88:	48 8b 07             	mov    rax,QWORD PTR [rdi]
    4b8b:	48 89 37             	mov    QWORD PTR [rdi],rsi
    4b8e:	48 89 03             	mov    QWORD PTR [rbx],rax
    4b91:	48 8b 7c 24 20       	mov    rdi,QWORD PTR [rsp+0x20]
    4b96:	c7 44 24 10 01 00 00 	mov    DWORD PTR [rsp+0x10],0x1
    4b9d:	00 
    4b9e:	48 01 7c 24 50       	add    QWORD PTR [rsp+0x50],rdi
    4ba3:	48 03 5c 24 20       	add    rbx,QWORD PTR [rsp+0x20]
    4ba8:	48 89 5c 24 28       	mov    QWORD PTR [rsp+0x28],rbx
    4bad:	e9 7d fe ff ff       	jmp    4a2f <spec_qsort+0x1df>
    4bb2:	66 0f 1f 44 00 00    	nop    WORD PTR [rax+rax*1+0x0]
    4bb8:	48 8b 7c 24 58       	mov    rdi,QWORD PTR [rsp+0x58]
    4bbd:	0f 1f 00             	nop    DWORD PTR [rax]
    4bc0:	8b 10                	mov    edx,DWORD PTR [rax]
    4bc2:	8b 0e                	mov    ecx,DWORD PTR [rsi]
    4bc4:	48 ff cf             	dec    rdi
    4bc7:	48 83 c6 04          	add    rsi,0x4
    4bcb:	48 83 c0 04          	add    rax,0x4
    4bcf:	89 48 fc             	mov    DWORD PTR [rax-0x4],ecx
    4bd2:	89 56 fc             	mov    DWORD PTR [rsi-0x4],edx
    4bd5:	48 85 ff             	test   rdi,rdi
    4bd8:	7f e6                	jg     4bc0 <spec_qsort+0x370>
    4bda:	e9 d1 fd ff ff       	jmp    49b0 <spec_qsort+0x160>
    4bdf:	90                   	nop
    4be0:	83 7c 24 08 01       	cmp    DWORD PTR [rsp+0x8],0x1
    4be5:	48 89 e8             	mov    rax,rbp
    4be8:	74 61                	je     4c4b <spec_qsort+0x3fb>
    4bea:	48 8b 4c 24 38       	mov    rcx,QWORD PTR [rsp+0x38]
    4bef:	83 7c 24 1c 01       	cmp    DWORD PTR [rsp+0x1c],0x1
    4bf4:	48 8b 54 24 28       	mov    rdx,QWORD PTR [rsp+0x28]
    4bf9:	4c 8d 04 0b          	lea    r8,[rbx+rcx*1]
    4bfd:	0f 84 e0 01 00 00    	je     4de3 <spec_qsort+0x593>
    4c03:	0f 1f 44 00 00       	nop    DWORD PTR [rax+rax*1+0x0]
    4c08:	0f b6 0a             	movzx  ecx,BYTE PTR [rdx]
    4c0b:	0f b6 30             	movzx  esi,BYTE PTR [rax]
    4c0e:	48 ff c0             	inc    rax
    4c11:	48 ff c2             	inc    rdx
    4c14:	40 88 72 ff          	mov    BYTE PTR [rdx-0x1],sil
    4c18:	88 48 ff             	mov    BYTE PTR [rax-0x1],cl
    4c1b:	4c 89 c1             	mov    rcx,r8
    4c1e:	48 29 d1             	sub    rcx,rdx
    4c21:	48 85 c9             	test   rcx,rcx
    4c24:	7f e2                	jg     4c08 <spec_qsort+0x3b8>
    4c26:	e9 ef fd ff ff       	jmp    4a1a <spec_qsort+0x1ca>
    4c2b:	44 8b 4c 24 1c       	mov    r9d,DWORD PTR [rsp+0x1c]
    4c30:	45 85 c9             	test   r9d,r9d
    4c33:	0f 85 da 04 00 00    	jne    5113 <spec_qsort+0x8c3>
    4c39:	48 8b 7c 24 50       	mov    rdi,QWORD PTR [rsp+0x50]
    4c3e:	8b 33                	mov    esi,DWORD PTR [rbx]
    4c40:	8b 07                	mov    eax,DWORD PTR [rdi]
    4c42:	89 37                	mov    DWORD PTR [rdi],esi
    4c44:	89 03                	mov    DWORD PTR [rbx],eax
    4c46:	e9 46 ff ff ff       	jmp    4b91 <spec_qsort+0x341>
    4c4b:	48 8b 74 24 40       	mov    rsi,QWORD PTR [rsp+0x40]
    4c50:	48 8b 54 24 28       	mov    rdx,QWORD PTR [rsp+0x28]
    4c55:	0f 1f 00             	nop    DWORD PTR [rax]
    4c58:	48 8b 0a             	mov    rcx,QWORD PTR [rdx]
    4c5b:	48 8b 38             	mov    rdi,QWORD PTR [rax]
    4c5e:	48 ff ce             	dec    rsi
    4c61:	48 83 c0 08          	add    rax,0x8
    4c65:	48 83 c2 08          	add    rdx,0x8
    4c69:	48 89 7a f8          	mov    QWORD PTR [rdx-0x8],rdi
    4c6d:	48 89 48 f8          	mov    QWORD PTR [rax-0x8],rcx
    4c71:	48 85 f6             	test   rsi,rsi
    4c74:	7f e2                	jg     4c58 <spec_qsort+0x408>
    4c76:	e9 9f fd ff ff       	jmp    4a1a <spec_qsort+0x1ca>
    4c7b:	48 8b 5c 24 30       	mov    rbx,QWORD PTR [rsp+0x30]
    4c80:	48 0f af 5c 24 20    	imul   rbx,QWORD PTR [rsp+0x20]
    4c86:	4c 01 fb             	add    rbx,r15
    4c89:	4c 8b 44 24 20       	mov    r8,QWORD PTR [rsp+0x20]
    4c8e:	49 f7 d8             	neg    r8
    4c91:	48 3b 5c 24 48       	cmp    rbx,QWORD PTR [rsp+0x48]
    4c96:	0f 86 a0 00 00 00    	jbe    4d3c <spec_qsort+0x4ec>
    4c9c:	8b 6c 24 08          	mov    ebp,DWORD PTR [rsp+0x8]
    4ca0:	48 89 5c 24 10       	mov    QWORD PTR [rsp+0x10],rbx
    4ca5:	4c 89 7c 24 08       	mov    QWORD PTR [rsp+0x8],r15
    4caa:	4d 89 c5             	mov    r13,r8
    4cad:	48 8b 44 24 48       	mov    rax,QWORD PTR [rsp+0x48]
    4cb2:	48 39 44 24 08       	cmp    QWORD PTR [rsp+0x8],rax
    4cb7:	73 69                	jae    4d22 <spec_qsort+0x4d2>
    4cb9:	49 89 c4             	mov    r12,rax
    4cbc:	4c 89 e8             	mov    rax,r13
    4cbf:	4d 89 e5             	mov    r13,r12
    4cc2:	49 89 c4             	mov    r12,rax
    4cc5:	eb 1e                	jmp    4ce5 <spec_qsort+0x495>
    4cc7:	66 0f 1f 84 00 00 00 	nop    WORD PTR [rax+rax*1+0x0]
    4cce:	00 00 
    4cd0:	48 8b 03             	mov    rax,QWORD PTR [rbx]
    4cd3:	4a 8b 34 23          	mov    rsi,QWORD PTR [rbx+r12*1]
    4cd7:	48 89 33             	mov    QWORD PTR [rbx],rsi
    4cda:	4a 89 04 23          	mov    QWORD PTR [rbx+r12*1],rax
    4cde:	4c 39 7c 24 08       	cmp    QWORD PTR [rsp+0x8],r15
    4ce3:	73 3a                	jae    4d1f <spec_qsort+0x4cf>
    4ce5:	4d 89 ef             	mov    r15,r13
    4ce8:	4c 2b 7c 24 20       	sub    r15,QWORD PTR [rsp+0x20]
    4ced:	4c 89 eb             	mov    rbx,r13
    4cf0:	48 89 de             	mov    rsi,rbx
    4cf3:	4c 89 ff             	mov    rdi,r15
    4cf6:	4d 89 fd             	mov    r13,r15
    4cf9:	41 ff d6             	call   r14
    4cfc:	85 c0                	test   eax,eax
    4cfe:	7e 1f                	jle    4d1f <spec_qsort+0x4cf>
    4d00:	85 ed                	test   ebp,ebp
    4d02:	74 cc                	je     4cd0 <spec_qsort+0x480>
    4d04:	8b 54 24 1c          	mov    edx,DWORD PTR [rsp+0x1c]
    4d08:	85 d2                	test   edx,edx
    4d0a:	75 3f                	jne    4d4b <spec_qsort+0x4fb>
    4d0c:	8b 03                	mov    eax,DWORD PTR [rbx]
    4d0e:	42 8b 34 23          	mov    esi,DWORD PTR [rbx+r12*1]
    4d12:	89 33                	mov    DWORD PTR [rbx],esi
    4d14:	42 89 04 23          	mov    DWORD PTR [rbx+r12*1],eax
    4d18:	4c 39 7c 24 08       	cmp    QWORD PTR [rsp+0x8],r15
    4d1d:	72 c6                	jb     4ce5 <spec_qsort+0x495>
    4d1f:	4d 89 e5             	mov    r13,r12
    4d22:	48 8b 7c 24 20       	mov    rdi,QWORD PTR [rsp+0x20]
    4d27:	48 01 7c 24 48       	add    QWORD PTR [rsp+0x48],rdi
    4d2c:	48 8b 44 24 48       	mov    rax,QWORD PTR [rsp+0x48]
    4d31:	48 39 44 24 10       	cmp    QWORD PTR [rsp+0x10],rax
    4d36:	0f 87 71 ff ff ff    	ja     4cad <spec_qsort+0x45d>
    4d3c:	48 83 c4 68          	add    rsp,0x68
    4d40:	5b                   	pop    rbx
    4d41:	5d                   	pop    rbp
    4d42:	41 5c                	pop    r12
    4d44:	41 5d                	pop    r13
    4d46:	41 5e                	pop    r14
    4d48:	41 5f                	pop    r15
    4d4a:	c3                   	ret    
    4d4b:	4c 89 e8             	mov    rax,r13
    4d4e:	83 fd 01             	cmp    ebp,0x1
    4d51:	74 5e                	je     4db1 <spec_qsort+0x561>
    4d53:	48 8b 4c 24 38       	mov    rcx,QWORD PTR [rsp+0x38]
    4d58:	83 7c 24 1c 01       	cmp    DWORD PTR [rsp+0x1c],0x1
    4d5d:	4c 8d 0c 0b          	lea    r9,[rbx+rcx*1]
    4d61:	0f 84 fb 03 00 00    	je     5162 <spec_qsort+0x912>
    4d67:	66 0f 1f 84 00 00 00 	nop    WORD PTR [rax+rax*1+0x0]
    4d6e:	00 00 
    4d70:	0f b6 13             	movzx  edx,BYTE PTR [rbx]
    4d73:	0f b6 08             	movzx  ecx,BYTE PTR [rax]
    4d76:	48 ff c0             	inc    rax
    4d79:	48 ff c3             	inc    rbx
    4d7c:	88 4b ff             	mov    BYTE PTR [rbx-0x1],cl
    4d7f:	88 50 ff             	mov    BYTE PTR [rax-0x1],dl
    4d82:	4c 89 ca             	mov    rdx,r9
    4d85:	48 29 da             	sub    rdx,rbx
    4d88:	48 85 d2             	test   rdx,rdx
    4d8b:	7f e3                	jg     4d70 <spec_qsort+0x520>
    4d8d:	e9 4c ff ff ff       	jmp    4cde <spec_qsort+0x48e>
    4d92:	44 8b 5c 24 1c       	mov    r11d,DWORD PTR [rsp+0x1c]
    4d97:	45 85 db             	test   r11d,r11d
    4d9a:	0f 85 ef 03 00 00    	jne    518f <spec_qsort+0x93f>
    4da0:	41 8b 07             	mov    eax,DWORD PTR [r15]
    4da3:	8b 4d 00             	mov    ecx,DWORD PTR [rbp+0x0]
    4da6:	41 89 0f             	mov    DWORD PTR [r15],ecx
    4da9:	89 45 00             	mov    DWORD PTR [rbp+0x0],eax
    4dac:	e9 99 fb ff ff       	jmp    494a <spec_qsort+0xfa>
    4db1:	48 8b 74 24 40       	mov    rsi,QWORD PTR [rsp+0x40]
    4db6:	66 2e 0f 1f 84 00 00 	cs nop WORD PTR [rax+rax*1+0x0]
    4dbd:	00 00 00 
    4dc0:	48 8b 13             	mov    rdx,QWORD PTR [rbx]
    4dc3:	48 8b 08             	mov    rcx,QWORD PTR [rax]
    4dc6:	48 ff ce             	dec    rsi
    4dc9:	48 83 c0 08          	add    rax,0x8
    4dcd:	48 83 c3 08          	add    rbx,0x8
    4dd1:	48 89 4b f8          	mov    QWORD PTR [rbx-0x8],rcx
    4dd5:	48 89 50 f8          	mov    QWORD PTR [rax-0x8],rdx
    4dd9:	48 85 f6             	test   rsi,rsi
    4ddc:	7f e2                	jg     4dc0 <spec_qsort+0x570>
    4dde:	e9 fb fe ff ff       	jmp    4cde <spec_qsort+0x48e>
    4de3:	48 8b 74 24 58       	mov    rsi,QWORD PTR [rsp+0x58]
    4de8:	48 8b 54 24 28       	mov    rdx,QWORD PTR [rsp+0x28]
    4ded:	0f 1f 00             	nop    DWORD PTR [rax]
    4df0:	8b 0a                	mov    ecx,DWORD PTR [rdx]
    4df2:	8b 38                	mov    edi,DWORD PTR [rax]
    4df4:	48 ff ce             	dec    rsi
    4df7:	48 83 c0 04          	add    rax,0x4
    4dfb:	48 83 c2 04          	add    rdx,0x4
    4dff:	89 7a fc             	mov    DWORD PTR [rdx-0x4],edi
    4e02:	89 48 fc             	mov    DWORD PTR [rax-0x4],ecx
    4e05:	48 85 f6             	test   rsi,rsi
    4e08:	7f e6                	jg     4df0 <spec_qsort+0x5a0>
    4e0a:	e9 0b fc ff ff       	jmp    4a1a <spec_qsort+0x1ca>
    4e0f:	48 8b 7c 24 28       	mov    rdi,QWORD PTR [rsp+0x28]
    4e14:	48 63 ce             	movsxd rcx,esi
    4e17:	48 29 f7             	sub    rdi,rsi
    4e1a:	83 7c 24 08 02       	cmp    DWORD PTR [rsp+0x8],0x2
    4e1f:	0f 85 af 03 00 00    	jne    51d4 <spec_qsort+0x984>
    4e25:	4c 01 f9             	add    rcx,r15
    4e28:	83 7c 24 1c 02       	cmp    DWORD PTR [rsp+0x1c],0x2
    4e2d:	4c 89 fa             	mov    rdx,r15
    4e30:	0f 85 0d 04 00 00    	jne    5243 <spec_qsort+0x9f3>
    4e36:	66 2e 0f 1f 84 00 00 	cs nop WORD PTR [rax+rax*1+0x0]
    4e3d:	00 00 00 
    4e40:	0f b6 32             	movzx  esi,BYTE PTR [rdx]
    4e43:	44 0f b6 07          	movzx  r8d,BYTE PTR [rdi]
    4e47:	48 ff c7             	inc    rdi
    4e4a:	48 ff c2             	inc    rdx
    4e4d:	44 88 42 ff          	mov    BYTE PTR [rdx-0x1],r8b
    4e51:	40 88 77 ff          	mov    BYTE PTR [rdi-0x1],sil
    4e55:	48 89 ce             	mov    rsi,rcx
    4e58:	48 29 d6             	sub    rsi,rdx
    4e5b:	48 85 f6             	test   rsi,rsi
    4e5e:	7f e0                	jg     4e40 <spec_qsort+0x5f0>
    4e60:	4d 85 c9             	test   r9,r9
    4e63:	0f 84 36 fc ff ff    	je     4a9f <spec_qsort+0x24f>
    4e69:	48 89 da             	mov    rdx,rbx
    4e6c:	49 63 c9             	movsxd rcx,r9d
    4e6f:	4c 29 ca             	sub    rdx,r9
    4e72:	4c 8b 6c 24 28       	mov    r13,QWORD PTR [rsp+0x28]
    4e77:	4c 01 e9             	add    rcx,r13
    4e7a:	66 0f 1f 44 00 00    	nop    WORD PTR [rax+rax*1+0x0]
    4e80:	41 0f b6 75 00       	movzx  esi,BYTE PTR [r13+0x0]
    4e85:	0f b6 3a             	movzx  edi,BYTE PTR [rdx]
    4e88:	48 ff c2             	inc    rdx
    4e8b:	49 ff c5             	inc    r13
    4e8e:	41 88 7d ff          	mov    BYTE PTR [r13-0x1],dil
    4e92:	40 88 72 ff          	mov    BYTE PTR [rdx-0x1],sil
    4e96:	48 89 ce             	mov    rsi,rcx
    4e99:	4c 29 ee             	sub    rsi,r13
    4e9c:	48 85 f6             	test   rsi,rsi
    4e9f:	7f df                	jg     4e80 <spec_qsort+0x630>
    4ea1:	48 39 44 24 20       	cmp    QWORD PTR [rsp+0x20],rax
    4ea6:	0f 83 fe fb ff ff    	jae    4aaa <spec_qsort+0x25a>
    4eac:	48 8b 7c 24 20       	mov    rdi,QWORD PTR [rsp+0x20]
    4eb1:	31 d2                	xor    edx,edx
    4eb3:	48 f7 f7             	div    rdi
    4eb6:	4c 89 f1             	mov    rcx,r14
    4eb9:	48 89 fa             	mov    rdx,rdi
    4ebc:	4c 89 ff             	mov    rdi,r15
    4ebf:	48 89 c6             	mov    rsi,rax
    4ec2:	e8 89 f9 ff ff       	call   4850 <spec_qsort>
    4ec7:	e9 de fb ff ff       	jmp    4aaa <spec_qsort+0x25a>
    4ecc:	41 ff d6             	call   r14
    4ecf:	85 c0                	test   eax,eax
    4ed1:	0f 88 59 fa ff ff    	js     4930 <spec_qsort+0xe0>
    4ed7:	48 89 de             	mov    rsi,rbx
    4eda:	4c 89 e7             	mov    rdi,r12
    4edd:	41 ff d6             	call   r14
    4ee0:	85 c0                	test   eax,eax
    4ee2:	4c 89 e5             	mov    rbp,r12
    4ee5:	48 0f 48 eb          	cmovs  rbp,rbx
    4ee9:	e9 42 fa ff ff       	jmp    4930 <spec_qsort+0xe0>
    4eee:	31 c0                	xor    eax,eax
    4ef0:	48 83 7c 24 20 04    	cmp    QWORD PTR [rsp+0x20],0x4
    4ef6:	0f 95 c0             	setne  al
    4ef9:	48 83 7c 24 30 06    	cmp    QWORD PTR [rsp+0x30],0x6
    4eff:	89 44 24 1c          	mov    DWORD PTR [rsp+0x1c],eax
    4f03:	0f 87 ba f9 ff ff    	ja     48c3 <spec_qsort+0x73>
    4f09:	48 8b 44 24 20       	mov    rax,QWORD PTR [rsp+0x20]
    4f0e:	48 8b 6c 24 30       	mov    rbp,QWORD PTR [rsp+0x30]
    4f13:	49 8d 0c 07          	lea    rcx,[r15+rax*1]
    4f17:	48 0f af e8          	imul   rbp,rax
    4f1b:	48 f7 d8             	neg    rax
    4f1e:	48 89 4c 24 10       	mov    QWORD PTR [rsp+0x10],rcx
    4f23:	49 8d 3c 2f          	lea    rdi,[r15+rbp*1]
    4f27:	48 89 7c 24 28       	mov    QWORD PTR [rsp+0x28],rdi
    4f2c:	48 89 c5             	mov    rbp,rax
    4f2f:	48 39 cf             	cmp    rdi,rcx
    4f32:	0f 86 04 fe ff ff    	jbe    4d3c <spec_qsort+0x4ec>
    4f38:	44 8b 64 24 08       	mov    r12d,DWORD PTR [rsp+0x8]
    4f3d:	4c 89 7c 24 08       	mov    QWORD PTR [rsp+0x8],r15
    4f42:	48 8b 44 24 10       	mov    rax,QWORD PTR [rsp+0x10]
    4f47:	48 39 44 24 08       	cmp    QWORD PTR [rsp+0x8],rax
    4f4c:	73 69                	jae    4fb7 <spec_qsort+0x767>
    4f4e:	49 89 c5             	mov    r13,rax
    4f51:	48 89 e8             	mov    rax,rbp
    4f54:	4c 89 ed             	mov    rbp,r13
    4f57:	49 89 c5             	mov    r13,rax
    4f5a:	eb 19                	jmp    4f75 <spec_qsort+0x725>
    4f5c:	0f 1f 40 00          	nop    DWORD PTR [rax+0x0]
    4f60:	48 8b 03             	mov    rax,QWORD PTR [rbx]
    4f63:	4a 8b 34 2b          	mov    rsi,QWORD PTR [rbx+r13*1]
    4f67:	48 89 33             	mov    QWORD PTR [rbx],rsi
    4f6a:	4a 89 04 2b          	mov    QWORD PTR [rbx+r13*1],rax
    4f6e:	4c 3b 7c 24 08       	cmp    r15,QWORD PTR [rsp+0x8]
    4f73:	76 3f                	jbe    4fb4 <spec_qsort+0x764>
    4f75:	49 89 ef             	mov    r15,rbp
    4f78:	4c 2b 7c 24 20       	sub    r15,QWORD PTR [rsp+0x20]
    4f7d:	48 89 eb             	mov    rbx,rbp
    4f80:	48 89 de             	mov    rsi,rbx
    4f83:	4c 89 ff             	mov    rdi,r15
    4f86:	4c 89 fd             	mov    rbp,r15
    4f89:	41 ff d6             	call   r14
    4f8c:	85 c0                	test   eax,eax
    4f8e:	7e 24                	jle    4fb4 <spec_qsort+0x764>
    4f90:	45 85 e4             	test   r12d,r12d
    4f93:	74 cb                	je     4f60 <spec_qsort+0x710>
    4f95:	8b 44 24 1c          	mov    eax,DWORD PTR [rsp+0x1c]
    4f99:	85 c0                	test   eax,eax
    4f9b:	0f 85 ef 03 00 00    	jne    5390 <spec_qsort+0xb40>
    4fa1:	8b 03                	mov    eax,DWORD PTR [rbx]
    4fa3:	42 8b 34 2b          	mov    esi,DWORD PTR [rbx+r13*1]
    4fa7:	89 33                	mov    DWORD PTR [rbx],esi
    4fa9:	42 89 04 2b          	mov    DWORD PTR [rbx+r13*1],eax
    4fad:	4c 3b 7c 24 08       	cmp    r15,QWORD PTR [rsp+0x8]
    4fb2:	77 c1                	ja     4f75 <spec_qsort+0x725>
    4fb4:	4c 89 ed             	mov    rbp,r13
    4fb7:	48 8b 4c 24 20       	mov    rcx,QWORD PTR [rsp+0x20]
    4fbc:	48 01 4c 24 10       	add    QWORD PTR [rsp+0x10],rcx
    4fc1:	48 8b 44 24 10       	mov    rax,QWORD PTR [rsp+0x10]
    4fc6:	48 39 44 24 28       	cmp    QWORD PTR [rsp+0x28],rax
    4fcb:	0f 87 71 ff ff ff    	ja     4f42 <spec_qsort+0x6f2>
    4fd1:	48 83 c4 68          	add    rsp,0x68
    4fd5:	5b                   	pop    rbx
    4fd6:	5d                   	pop    rbp
    4fd7:	41 5c                	pop    r12
    4fd9:	41 5d                	pop    r13
    4fdb:	41 5e                	pop    r14
    4fdd:	41 5f                	pop    r15
    4fdf:	c3                   	ret    
    4fe0:	31 c9                	xor    ecx,ecx
    4fe2:	48 83 7c 24 20 08    	cmp    QWORD PTR [rsp+0x20],0x8
    4fe8:	0f 95 c1             	setne  cl
    4feb:	89 4c 24 08          	mov    DWORD PTR [rsp+0x8],ecx
    4fef:	e9 b3 f8 ff ff       	jmp    48a7 <spec_qsort+0x57>
    4ff4:	49 89 cc             	mov    r12,rcx
    4ff7:	49 c1 ec 03          	shr    r12,0x3
    4ffb:	4c 89 e2             	mov    rdx,r12
    4ffe:	48 0f af d7          	imul   rdx,rdi
    5002:	4c 89 ff             	mov    rdi,r15
    5005:	4d 8d 24 17          	lea    r12,[r15+rdx*1]
    5009:	4c 89 e6             	mov    rsi,r12
    500c:	48 89 54 24 10       	mov    QWORD PTR [rsp+0x10],rdx
    5011:	49 8d 1c 57          	lea    rbx,[r15+rdx*2]
    5015:	41 ff d6             	call   r14
    5018:	85 c0                	test   eax,eax
    501a:	48 8b 54 24 10       	mov    rdx,QWORD PTR [rsp+0x10]
    501f:	0f 88 0c 03 00 00    	js     5331 <spec_qsort+0xae1>
    5025:	48 89 de             	mov    rsi,rbx
    5028:	4c 89 e7             	mov    rdi,r12
    502b:	48 89 54 24 10       	mov    QWORD PTR [rsp+0x10],rdx
    5030:	41 ff d6             	call   r14
    5033:	85 c0                	test   eax,eax
    5035:	48 8b 54 24 10       	mov    rdx,QWORD PTR [rsp+0x10]
    503a:	0f 8e ab 02 00 00    	jle    52eb <spec_qsort+0xa9b>
    5040:	48 89 d0             	mov    rax,rdx
    5043:	48 f7 d8             	neg    rax
    5046:	48 89 44 24 10       	mov    QWORD PTR [rsp+0x10],rax
    504b:	48 89 e8             	mov    rax,rbp
    504e:	48 29 d0             	sub    rax,rdx
    5051:	48 89 ee             	mov    rsi,rbp
    5054:	48 89 c7             	mov    rdi,rax
    5057:	48 8d 5c 15 00       	lea    rbx,[rbp+rdx*1+0x0]
    505c:	48 89 44 24 28       	mov    QWORD PTR [rsp+0x28],rax
    5061:	41 ff d6             	call   r14
    5064:	48 89 de             	mov    rsi,rbx
    5067:	48 89 ef             	mov    rdi,rbp
    506a:	85 c0                	test   eax,eax
    506c:	0f 88 95 02 00 00    	js     5307 <spec_qsort+0xab7>
    5072:	41 ff d6             	call   r14
    5075:	85 c0                	test   eax,eax
    5077:	0f 8e 55 02 00 00    	jle    52d2 <spec_qsort+0xa82>
    507d:	48 8b 44 24 10       	mov    rax,QWORD PTR [rsp+0x10]
    5082:	49 8d 5c 05 00       	lea    rbx,[r13+rax*1+0x0]
    5087:	48 01 d8             	add    rax,rbx
    508a:	48 89 de             	mov    rsi,rbx
    508d:	48 89 c7             	mov    rdi,rax
    5090:	48 89 44 24 10       	mov    QWORD PTR [rsp+0x10],rax
    5095:	41 ff d6             	call   r14
    5098:	4c 89 ee             	mov    rsi,r13
    509b:	48 89 df             	mov    rdi,rbx
    509e:	85 c0                	test   eax,eax
    50a0:	0f 88 bd 02 00 00    	js     5363 <spec_qsort+0xb13>
    50a6:	41 ff d6             	call   r14
    50a9:	85 c0                	test   eax,eax
    50ab:	0f 8f 4c f8 ff ff    	jg     48fd <spec_qsort+0xad>
    50b1:	48 8b 5c 24 10       	mov    rbx,QWORD PTR [rsp+0x10]
    50b6:	4c 89 ee             	mov    rsi,r13
    50b9:	48 89 df             	mov    rdi,rbx
    50bc:	41 ff d6             	call   r14
    50bf:	85 c0                	test   eax,eax
    50c1:	49 0f 49 dd          	cmovns rbx,r13
    50c5:	e9 33 f8 ff ff       	jmp    48fd <spec_qsort+0xad>
    50ca:	48 89 da             	mov    rdx,rbx
    50cd:	4c 29 ca             	sub    rdx,r9
    50d0:	83 7c 24 08 02       	cmp    DWORD PTR [rsp+0x8],0x2
    50d5:	49 63 c9             	movsxd rcx,r9d
    50d8:	0f 85 32 01 00 00    	jne    5210 <spec_qsort+0x9c0>
    50de:	83 7c 24 1c 02       	cmp    DWORD PTR [rsp+0x1c],0x2
    50e3:	0f 84 89 fd ff ff    	je     4e72 <spec_qsort+0x622>
    50e9:	48 8b 74 24 28       	mov    rsi,QWORD PTR [rsp+0x28]
    50ee:	48 c1 e9 02          	shr    rcx,0x2
    50f2:	8b 3e                	mov    edi,DWORD PTR [rsi]
    50f4:	44 8b 02             	mov    r8d,DWORD PTR [rdx]
    50f7:	48 ff c9             	dec    rcx
    50fa:	48 83 c2 04          	add    rdx,0x4
    50fe:	48 83 c6 04          	add    rsi,0x4
    5102:	44 89 46 fc          	mov    DWORD PTR [rsi-0x4],r8d
    5106:	89 7a fc             	mov    DWORD PTR [rdx-0x4],edi
    5109:	48 85 c9             	test   rcx,rcx
    510c:	7f e4                	jg     50f2 <spec_qsort+0x8a2>
    510e:	e9 8c f9 ff ff       	jmp    4a9f <spec_qsort+0x24f>
    5113:	83 7c 24 08 01       	cmp    DWORD PTR [rsp+0x8],0x1
    5118:	0f 84 11 03 00 00    	je     542f <spec_qsort+0xbdf>
    511e:	48 8b 4c 24 50       	mov    rcx,QWORD PTR [rsp+0x50]
    5123:	48 8b 7c 24 38       	mov    rdi,QWORD PTR [rsp+0x38]
    5128:	83 7c 24 1c 01       	cmp    DWORD PTR [rsp+0x1c],0x1
    512d:	48 8b 54 24 28       	mov    rdx,QWORD PTR [rsp+0x28]
    5132:	48 89 c8             	mov    rax,rcx
    5135:	4c 8d 04 39          	lea    r8,[rcx+rdi*1]
    5139:	0f 84 6a 01 00 00    	je     52a9 <spec_qsort+0xa59>
    513f:	0f b6 08             	movzx  ecx,BYTE PTR [rax]
    5142:	0f b6 32             	movzx  esi,BYTE PTR [rdx]
    5145:	48 ff c2             	inc    rdx
    5148:	48 ff c0             	inc    rax
    514b:	40 88 70 ff          	mov    BYTE PTR [rax-0x1],sil
    514f:	88 4a ff             	mov    BYTE PTR [rdx-0x1],cl
    5152:	4c 89 c1             	mov    rcx,r8
    5155:	48 29 c1             	sub    rcx,rax
    5158:	48 85 c9             	test   rcx,rcx
    515b:	7f e2                	jg     513f <spec_qsort+0x8ef>
    515d:	e9 2f fa ff ff       	jmp    4b91 <spec_qsort+0x341>
    5162:	48 8b 74 24 58       	mov    rsi,QWORD PTR [rsp+0x58]
    5167:	66 0f 1f 84 00 00 00 	nop    WORD PTR [rax+rax*1+0x0]
    516e:	00 00 
    5170:	8b 13                	mov    edx,DWORD PTR [rbx]
    5172:	8b 08                	mov    ecx,DWORD PTR [rax]
    5174:	48 ff ce             	dec    rsi
    5177:	48 83 c0 04          	add    rax,0x4
    517b:	48 83 c3 04          	add    rbx,0x4
    517f:	89 4b fc             	mov    DWORD PTR [rbx-0x4],ecx
    5182:	89 50 fc             	mov    DWORD PTR [rax-0x4],edx
    5185:	48 85 f6             	test   rsi,rsi
    5188:	7f e6                	jg     5170 <spec_qsort+0x920>
    518a:	e9 4f fb ff ff       	jmp    4cde <spec_qsort+0x48e>
    518f:	83 7c 24 08 01       	cmp    DWORD PTR [rsp+0x8],0x1
    5194:	4c 89 f8             	mov    rax,r15
    5197:	0f 84 e3 00 00 00    	je     5280 <spec_qsort+0xa30>
    519d:	48 8b 4c 24 38       	mov    rcx,QWORD PTR [rsp+0x38]
    51a2:	83 7c 24 1c 01       	cmp    DWORD PTR [rsp+0x1c],0x1
    51a7:	49 8d 3c 0f          	lea    rdi,[r15+rcx*1]
    51ab:	0f 84 b0 02 00 00    	je     5461 <spec_qsort+0xc11>
    51b1:	0f b6 10             	movzx  edx,BYTE PTR [rax]
    51b4:	0f b6 4d 00          	movzx  ecx,BYTE PTR [rbp+0x0]
    51b8:	48 ff c5             	inc    rbp
    51bb:	48 ff c0             	inc    rax
    51be:	88 48 ff             	mov    BYTE PTR [rax-0x1],cl
    51c1:	88 55 ff             	mov    BYTE PTR [rbp-0x1],dl
    51c4:	48 89 fa             	mov    rdx,rdi
    51c7:	48 29 c2             	sub    rdx,rax
    51ca:	48 85 d2             	test   rdx,rdx
    51cd:	7f e2                	jg     51b1 <spec_qsort+0x961>
    51cf:	e9 76 f7 ff ff       	jmp    494a <spec_qsort+0xfa>
    51d4:	48 63 ce             	movsxd rcx,esi
    51d7:	48 c1 e9 03          	shr    rcx,0x3
    51db:	4d 89 fa             	mov    r10,r15
    51de:	66 90                	xchg   ax,ax
    51e0:	49 8b 12             	mov    rdx,QWORD PTR [r10]
    51e3:	48 8b 37             	mov    rsi,QWORD PTR [rdi]
    51e6:	48 ff c9             	dec    rcx
    51e9:	48 83 c7 08          	add    rdi,0x8
    51ed:	49 83 c2 08          	add    r10,0x8
    51f1:	49 89 72 f8          	mov    QWORD PTR [r10-0x8],rsi
    51f5:	48 89 57 f8          	mov    QWORD PTR [rdi-0x8],rdx
    51f9:	48 85 c9             	test   rcx,rcx
    51fc:	7f e2                	jg     51e0 <spec_qsort+0x990>
    51fe:	4d 85 c9             	test   r9,r9
    5201:	0f 84 98 f8 ff ff    	je     4a9f <spec_qsort+0x24f>
    5207:	48 89 da             	mov    rdx,rbx
    520a:	49 63 c9             	movsxd rcx,r9d
    520d:	4c 29 ca             	sub    rdx,r9
    5210:	48 8b 74 24 28       	mov    rsi,QWORD PTR [rsp+0x28]
    5215:	48 c1 e9 03          	shr    rcx,0x3
    5219:	0f 1f 80 00 00 00 00 	nop    DWORD PTR [rax+0x0]
    5220:	48 8b 3e             	mov    rdi,QWORD PTR [rsi]
    5223:	4c 8b 02             	mov    r8,QWORD PTR [rdx]
    5226:	48 ff c9             	dec    rcx
    5229:	48 83 c2 08          	add    rdx,0x8
    522d:	48 83 c6 08          	add    rsi,0x8
    5231:	4c 89 46 f8          	mov    QWORD PTR [rsi-0x8],r8
    5235:	48 89 7a f8          	mov    QWORD PTR [rdx-0x8],rdi
    5239:	48 85 c9             	test   rcx,rcx
    523c:	7f e2                	jg     5220 <spec_qsort+0x9d0>
    523e:	e9 5c f8 ff ff       	jmp    4a9f <spec_qsort+0x24f>
    5243:	48 63 d6             	movsxd rdx,esi
    5246:	48 c1 ea 02          	shr    rdx,0x2
    524a:	4c 89 f9             	mov    rcx,r15
    524d:	8b 31                	mov    esi,DWORD PTR [rcx]
    524f:	44 8b 07             	mov    r8d,DWORD PTR [rdi]
    5252:	48 ff ca             	dec    rdx
    5255:	48 83 c7 04          	add    rdi,0x4
    5259:	48 83 c1 04          	add    rcx,0x4
    525d:	44 89 41 fc          	mov    DWORD PTR [rcx-0x4],r8d
    5261:	89 77 fc             	mov    DWORD PTR [rdi-0x4],esi
    5264:	48 85 d2             	test   rdx,rdx
    5267:	7f e4                	jg     524d <spec_qsort+0x9fd>
    5269:	4d 85 c9             	test   r9,r9
    526c:	0f 84 2d f8 ff ff    	je     4a9f <spec_qsort+0x24f>
    5272:	48 89 da             	mov    rdx,rbx
    5275:	49 63 c9             	movsxd rcx,r9d
    5278:	4c 29 ca             	sub    rdx,r9
    527b:	e9 69 fe ff ff       	jmp    50e9 <spec_qsort+0x899>
    5280:	48 8b 4c 24 40       	mov    rcx,QWORD PTR [rsp+0x40]
    5285:	48 8b 10             	mov    rdx,QWORD PTR [rax]
    5288:	48 8b 75 00          	mov    rsi,QWORD PTR [rbp+0x0]
    528c:	48 ff c9             	dec    rcx
    528f:	48 83 c5 08          	add    rbp,0x8
    5293:	48 83 c0 08          	add    rax,0x8
    5297:	48 89 70 f8          	mov    QWORD PTR [rax-0x8],rsi
    529b:	48 89 55 f8          	mov    QWORD PTR [rbp-0x8],rdx
    529f:	48 85 c9             	test   rcx,rcx
    52a2:	7f e1                	jg     5285 <spec_qsort+0xa35>
    52a4:	e9 a1 f6 ff ff       	jmp    494a <spec_qsort+0xfa>
    52a9:	48 8b 74 24 58       	mov    rsi,QWORD PTR [rsp+0x58]
    52ae:	48 8b 54 24 28       	mov    rdx,QWORD PTR [rsp+0x28]
    52b3:	8b 08                	mov    ecx,DWORD PTR [rax]
    52b5:	8b 3a                	mov    edi,DWORD PTR [rdx]
    52b7:	48 ff ce             	dec    rsi
    52ba:	48 83 c2 04          	add    rdx,0x4
    52be:	48 83 c0 04          	add    rax,0x4
    52c2:	89 78 fc             	mov    DWORD PTR [rax-0x4],edi
    52c5:	89 4a fc             	mov    DWORD PTR [rdx-0x4],ecx
    52c8:	48 85 f6             	test   rsi,rsi
    52cb:	7f e6                	jg     52b3 <spec_qsort+0xa63>
    52cd:	e9 bf f8 ff ff       	jmp    4b91 <spec_qsort+0x341>
    52d2:	48 8b 6c 24 28       	mov    rbp,QWORD PTR [rsp+0x28]
    52d7:	48 89 de             	mov    rsi,rbx
    52da:	48 89 ef             	mov    rdi,rbp
    52dd:	41 ff d6             	call   r14
    52e0:	85 c0                	test   eax,eax
    52e2:	48 0f 49 eb          	cmovns rbp,rbx
    52e6:	e9 92 fd ff ff       	jmp    507d <spec_qsort+0x82d>
    52eb:	48 89 de             	mov    rsi,rbx
    52ee:	4c 89 ff             	mov    rdi,r15
    52f1:	41 ff d6             	call   r14
    52f4:	85 c0                	test   eax,eax
    52f6:	49 0f 48 df          	cmovs  rbx,r15
    52fa:	48 8b 54 24 10       	mov    rdx,QWORD PTR [rsp+0x10]
    52ff:	49 89 dc             	mov    r12,rbx
    5302:	e9 39 fd ff ff       	jmp    5040 <spec_qsort+0x7f0>
    5307:	41 ff d6             	call   r14
    530a:	85 c0                	test   eax,eax
    530c:	0f 88 6b fd ff ff    	js     507d <spec_qsort+0x82d>
    5312:	48 8b 6c 24 28       	mov    rbp,QWORD PTR [rsp+0x28]
    5317:	48 89 de             	mov    rsi,rbx
    531a:	48 89 ef             	mov    rdi,rbp
    531d:	41 ff d6             	call   r14
    5320:	85 c0                	test   eax,eax
    5322:	48 89 e8             	mov    rax,rbp
    5325:	48 0f 48 c3          	cmovs  rax,rbx
    5329:	48 89 c5             	mov    rbp,rax
    532c:	e9 4c fd ff ff       	jmp    507d <spec_qsort+0x82d>
    5331:	48 89 de             	mov    rsi,rbx
    5334:	4c 89 e7             	mov    rdi,r12
    5337:	41 ff d6             	call   r14
    533a:	85 c0                	test   eax,eax
    533c:	48 8b 54 24 10       	mov    rdx,QWORD PTR [rsp+0x10]
    5341:	0f 88 f9 fc ff ff    	js     5040 <spec_qsort+0x7f0>
    5347:	48 89 de             	mov    rsi,rbx
    534a:	4c 89 ff             	mov    rdi,r15
    534d:	41 ff d6             	call   r14
    5350:	85 c0                	test   eax,eax
    5352:	49 0f 49 df          	cmovns rbx,r15
    5356:	48 8b 54 24 10       	mov    rdx,QWORD PTR [rsp+0x10]
    535b:	49 89 dc             	mov    r12,rbx
    535e:	e9 dd fc ff ff       	jmp    5040 <spec_qsort+0x7f0>
    5363:	41 ff d6             	call   r14
    5366:	85 c0                	test   eax,eax
    5368:	0f 88 8f f5 ff ff    	js     48fd <spec_qsort+0xad>
    536e:	48 8b 5c 24 10       	mov    rbx,QWORD PTR [rsp+0x10]
    5373:	4c 89 ee             	mov    rsi,r13
    5376:	48 89 df             	mov    rdi,rbx
    5379:	41 ff d6             	call   r14
    537c:	85 c0                	test   eax,eax
    537e:	48 89 d8             	mov    rax,rbx
    5381:	49 0f 48 c5          	cmovs  rax,r13
    5385:	48 89 c3             	mov    rbx,rax
    5388:	e9 70 f5 ff ff       	jmp    48fd <spec_qsort+0xad>
    538d:	0f 1f 00             	nop    DWORD PTR [rax]
    5390:	48 89 e8             	mov    rax,rbp
    5393:	41 83 fc 01          	cmp    r12d,0x1
    5397:	74 39                	je     53d2 <spec_qsort+0xb82>
    5399:	48 8b 7c 24 38       	mov    rdi,QWORD PTR [rsp+0x38]
    539e:	83 7c 24 1c 01       	cmp    DWORD PTR [rsp+0x1c],0x1
    53a3:	4c 8d 0c 3b          	lea    r9,[rbx+rdi*1]
    53a7:	74 5a                	je     5403 <spec_qsort+0xbb3>
    53a9:	0f 1f 80 00 00 00 00 	nop    DWORD PTR [rax+0x0]
    53b0:	0f b6 13             	movzx  edx,BYTE PTR [rbx]
    53b3:	0f b6 08             	movzx  ecx,BYTE PTR [rax]
    53b6:	48 ff c0             	inc    rax
    53b9:	48 ff c3             	inc    rbx
    53bc:	88 4b ff             	mov    BYTE PTR [rbx-0x1],cl
    53bf:	88 50 ff             	mov    BYTE PTR [rax-0x1],dl
    53c2:	4c 89 ca             	mov    rdx,r9
    53c5:	48 29 da             	sub    rdx,rbx
    53c8:	48 85 d2             	test   rdx,rdx
    53cb:	7f e3                	jg     53b0 <spec_qsort+0xb60>
    53cd:	e9 9c fb ff ff       	jmp    4f6e <spec_qsort+0x71e>
    53d2:	48 8b 74 24 40       	mov    rsi,QWORD PTR [rsp+0x40]
    53d7:	66 0f 1f 84 00 00 00 	nop    WORD PTR [rax+rax*1+0x0]
    53de:	00 00 
    53e0:	48 8b 13             	mov    rdx,QWORD PTR [rbx]
    53e3:	48 8b 08             	mov    rcx,QWORD PTR [rax]
    53e6:	48 ff ce             	dec    rsi
    53e9:	48 83 c0 08          	add    rax,0x8
    53ed:	48 83 c3 08          	add    rbx,0x8
    53f1:	48 89 4b f8          	mov    QWORD PTR [rbx-0x8],rcx
    53f5:	48 89 50 f8          	mov    QWORD PTR [rax-0x8],rdx
    53f9:	48 85 f6             	test   rsi,rsi
    53fc:	7f e2                	jg     53e0 <spec_qsort+0xb90>
    53fe:	e9 6b fb ff ff       	jmp    4f6e <spec_qsort+0x71e>
    5403:	48 8b 74 24 58       	mov    rsi,QWORD PTR [rsp+0x58]
    5408:	0f 1f 84 00 00 00 00 	nop    DWORD PTR [rax+rax*1+0x0]
    540f:	00 
    5410:	8b 13                	mov    edx,DWORD PTR [rbx]
    5412:	8b 08                	mov    ecx,DWORD PTR [rax]
    5414:	48 ff ce             	dec    rsi
    5417:	48 83 c0 04          	add    rax,0x4
    541b:	48 83 c3 04          	add    rbx,0x4
    541f:	89 4b fc             	mov    DWORD PTR [rbx-0x4],ecx
    5422:	89 50 fc             	mov    DWORD PTR [rax-0x4],edx
    5425:	48 85 f6             	test   rsi,rsi
    5428:	7f e6                	jg     5410 <spec_qsort+0xbc0>
    542a:	e9 3f fb ff ff       	jmp    4f6e <spec_qsort+0x71e>
    542f:	48 8b 44 24 50       	mov    rax,QWORD PTR [rsp+0x50]
    5434:	48 8b 74 24 40       	mov    rsi,QWORD PTR [rsp+0x40]
    5439:	48 8b 54 24 28       	mov    rdx,QWORD PTR [rsp+0x28]
    543e:	48 8b 08             	mov    rcx,QWORD PTR [rax]
    5441:	48 8b 3a             	mov    rdi,QWORD PTR [rdx]
    5444:	48 ff ce             	dec    rsi
    5447:	48 83 c2 08          	add    rdx,0x8
    544b:	48 83 c0 08          	add    rax,0x8
    544f:	48 89 78 f8          	mov    QWORD PTR [rax-0x8],rdi
    5453:	48 89 4a f8          	mov    QWORD PTR [rdx-0x8],rcx
    5457:	48 85 f6             	test   rsi,rsi
    545a:	7f e2                	jg     543e <spec_qsort+0xbee>
    545c:	e9 30 f7 ff ff       	jmp    4b91 <spec_qsort+0x341>
    5461:	48 8b 4c 24 58       	mov    rcx,QWORD PTR [rsp+0x58]
    5466:	8b 10                	mov    edx,DWORD PTR [rax]
    5468:	8b 75 00             	mov    esi,DWORD PTR [rbp+0x0]
    546b:	48 ff c9             	dec    rcx
    546e:	48 83 c5 04          	add    rbp,0x4
    5472:	48 83 c0 04          	add    rax,0x4
    5476:	89 70 fc             	mov    DWORD PTR [rax-0x4],esi
    5479:	89 55 fc             	mov    DWORD PTR [rbp-0x4],edx
    547c:	48 85 c9             	test   rcx,rcx
    547f:	7f e5                	jg     5466 <spec_qsort+0xc16>
    5481:	e9 c4 f4 ff ff       	jmp    494a <spec_qsort+0xfa>
    5486:	66 2e 0f 1f 84 00 00 	cs nop WORD PTR [rax+rax*1+0x0]
    548d:	00 00 00 

0000000000005490 <__libc_csu_init>:
    5490:	f3 0f 1e fa          	endbr64 
    5494:	41 57                	push   r15
    5496:	4c 8d 3d 9b 38 00 00 	lea    r15,[rip+0x389b]        # 8d38 <__frame_dummy_init_array_entry>
    549d:	41 56                	push   r14
    549f:	49 89 d6             	mov    r14,rdx
    54a2:	41 55                	push   r13
    54a4:	49 89 f5             	mov    r13,rsi
    54a7:	41 54                	push   r12
    54a9:	41 89 fc             	mov    r12d,edi
    54ac:	55                   	push   rbp
    54ad:	48 8d 2d 8c 38 00 00 	lea    rbp,[rip+0x388c]        # 8d40 <__do_global_dtors_aux_fini_array_entry>
    54b4:	53                   	push   rbx
    54b5:	4c 29 fd             	sub    rbp,r15
    54b8:	48 83 ec 08          	sub    rsp,0x8
    54bc:	e8 3f bb ff ff       	call   1000 <_init>
    54c1:	48 c1 fd 03          	sar    rbp,0x3
    54c5:	74 1f                	je     54e6 <__libc_csu_init+0x56>
    54c7:	31 db                	xor    ebx,ebx
    54c9:	0f 1f 80 00 00 00 00 	nop    DWORD PTR [rax+0x0]
    54d0:	4c 89 f2             	mov    rdx,r14
    54d3:	4c 89 ee             	mov    rsi,r13
    54d6:	44 89 e7             	mov    edi,r12d
    54d9:	41 ff 14 df          	call   QWORD PTR [r15+rbx*8]
    54dd:	48 83 c3 01          	add    rbx,0x1
    54e1:	48 39 dd             	cmp    rbp,rbx
    54e4:	75 ea                	jne    54d0 <__libc_csu_init+0x40>
    54e6:	48 83 c4 08          	add    rsp,0x8
    54ea:	5b                   	pop    rbx
    54eb:	5d                   	pop    rbp
    54ec:	41 5c                	pop    r12
    54ee:	41 5d                	pop    r13
    54f0:	41 5e                	pop    r14
    54f2:	41 5f                	pop    r15
    54f4:	c3                   	ret    
    54f5:	66 66 2e 0f 1f 84 00 	data16 cs nop WORD PTR [rax+rax*1+0x0]
    54fc:	00 00 00 00 

0000000000005500 <__libc_csu_fini>:
    5500:	f3 0f 1e fa          	endbr64 
    5504:	c3                   	ret    

Disassembly of section .fini:

0000000000005508 <_fini>:
    5508:	f3 0f 1e fa          	endbr64 
    550c:	48 83 ec 08          	sub    rsp,0x8
    5510:	48 83 c4 08          	add    rsp,0x8
    5514:	c3                   	ret    
