
/home/jjang/Desktop/sample/llvm/505/mcf_r_op0:     file format elf64-x86-64


Disassembly of section .init:

0000000000401000 <_init>:
  401000:	f3 0f 1e fa          	endbr64 
  401004:	48 83 ec 08          	sub    rsp,0x8
  401008:	48 8b 05 e9 8f 00 00 	mov    rax,QWORD PTR [rip+0x8fe9]        # 409ff8 <__gmon_start__@Base>
  40100f:	48 85 c0             	test   rax,rax
  401012:	74 02                	je     401016 <_init+0x16>
  401014:	ff d0                	call   rax
  401016:	48 83 c4 08          	add    rsp,0x8
  40101a:	c3                   	ret    

Disassembly of section .plt:

0000000000401020 <free@plt-0x10>:
  401020:	ff 35 e2 8f 00 00    	push   QWORD PTR [rip+0x8fe2]        # 40a008 <_GLOBAL_OFFSET_TABLE_+0x8>
  401026:	ff 25 e4 8f 00 00    	jmp    QWORD PTR [rip+0x8fe4]        # 40a010 <_GLOBAL_OFFSET_TABLE_+0x10>
  40102c:	0f 1f 40 00          	nop    DWORD PTR [rax+0x0]

0000000000401030 <free@plt>:
  401030:	ff 25 e2 8f 00 00    	jmp    QWORD PTR [rip+0x8fe2]        # 40a018 <free@GLIBC_2.2.5>
  401036:	68 00 00 00 00       	push   0x0
  40103b:	e9 e0 ff ff ff       	jmp    401020 <_init+0x20>

0000000000401040 <strcpy@plt>:
  401040:	ff 25 da 8f 00 00    	jmp    QWORD PTR [rip+0x8fda]        # 40a020 <strcpy@GLIBC_2.2.5>
  401046:	68 01 00 00 00       	push   0x1
  40104b:	e9 d0 ff ff ff       	jmp    401020 <_init+0x20>

0000000000401050 <fclose@plt>:
  401050:	ff 25 d2 8f 00 00    	jmp    QWORD PTR [rip+0x8fd2]        # 40a028 <fclose@GLIBC_2.2.5>
  401056:	68 02 00 00 00       	push   0x2
  40105b:	e9 c0 ff ff ff       	jmp    401020 <_init+0x20>

0000000000401060 <printf@plt>:
  401060:	ff 25 ca 8f 00 00    	jmp    QWORD PTR [rip+0x8fca]        # 40a030 <printf@GLIBC_2.2.5>
  401066:	68 03 00 00 00       	push   0x3
  40106b:	e9 b0 ff ff ff       	jmp    401020 <_init+0x20>

0000000000401070 <memset@plt>:
  401070:	ff 25 c2 8f 00 00    	jmp    QWORD PTR [rip+0x8fc2]        # 40a038 <memset@GLIBC_2.2.5>
  401076:	68 04 00 00 00       	push   0x4
  40107b:	e9 a0 ff ff ff       	jmp    401020 <_init+0x20>

0000000000401080 <fgets@plt>:
  401080:	ff 25 ba 8f 00 00    	jmp    QWORD PTR [rip+0x8fba]        # 40a040 <fgets@GLIBC_2.2.5>
  401086:	68 05 00 00 00       	push   0x5
  40108b:	e9 90 ff ff ff       	jmp    401020 <_init+0x20>

0000000000401090 <calloc@plt>:
  401090:	ff 25 b2 8f 00 00    	jmp    QWORD PTR [rip+0x8fb2]        # 40a048 <calloc@GLIBC_2.2.5>
  401096:	68 06 00 00 00       	push   0x6
  40109b:	e9 80 ff ff ff       	jmp    401020 <_init+0x20>

00000000004010a0 <fprintf@plt>:
  4010a0:	ff 25 aa 8f 00 00    	jmp    QWORD PTR [rip+0x8faa]        # 40a050 <fprintf@GLIBC_2.2.5>
  4010a6:	68 07 00 00 00       	push   0x7
  4010ab:	e9 70 ff ff ff       	jmp    401020 <_init+0x20>

00000000004010b0 <memcpy@plt>:
  4010b0:	ff 25 a2 8f 00 00    	jmp    QWORD PTR [rip+0x8fa2]        # 40a058 <memcpy@GLIBC_2.14>
  4010b6:	68 08 00 00 00       	push   0x8
  4010bb:	e9 60 ff ff ff       	jmp    401020 <_init+0x20>

00000000004010c0 <malloc@plt>:
  4010c0:	ff 25 9a 8f 00 00    	jmp    QWORD PTR [rip+0x8f9a]        # 40a060 <malloc@GLIBC_2.2.5>
  4010c6:	68 09 00 00 00       	push   0x9
  4010cb:	e9 50 ff ff ff       	jmp    401020 <_init+0x20>

00000000004010d0 <fflush@plt>:
  4010d0:	ff 25 92 8f 00 00    	jmp    QWORD PTR [rip+0x8f92]        # 40a068 <fflush@GLIBC_2.2.5>
  4010d6:	68 0a 00 00 00       	push   0xa
  4010db:	e9 40 ff ff ff       	jmp    401020 <_init+0x20>

00000000004010e0 <__isoc99_sscanf@plt>:
  4010e0:	ff 25 8a 8f 00 00    	jmp    QWORD PTR [rip+0x8f8a]        # 40a070 <__isoc99_sscanf@GLIBC_2.7>
  4010e6:	68 0b 00 00 00       	push   0xb
  4010eb:	e9 30 ff ff ff       	jmp    401020 <_init+0x20>

00000000004010f0 <realloc@plt>:
  4010f0:	ff 25 82 8f 00 00    	jmp    QWORD PTR [rip+0x8f82]        # 40a078 <realloc@GLIBC_2.2.5>
  4010f6:	68 0c 00 00 00       	push   0xc
  4010fb:	e9 20 ff ff ff       	jmp    401020 <_init+0x20>

0000000000401100 <fopen@plt>:
  401100:	ff 25 7a 8f 00 00    	jmp    QWORD PTR [rip+0x8f7a]        # 40a080 <fopen@GLIBC_2.2.5>
  401106:	68 0d 00 00 00       	push   0xd
  40110b:	e9 10 ff ff ff       	jmp    401020 <_init+0x20>

0000000000401110 <atoi@plt>:
  401110:	ff 25 72 8f 00 00    	jmp    QWORD PTR [rip+0x8f72]        # 40a088 <atoi@GLIBC_2.2.5>
  401116:	68 0e 00 00 00       	push   0xe
  40111b:	e9 00 ff ff ff       	jmp    401020 <_init+0x20>

0000000000401120 <sprintf@plt>:
  401120:	ff 25 6a 8f 00 00    	jmp    QWORD PTR [rip+0x8f6a]        # 40a090 <sprintf@GLIBC_2.2.5>
  401126:	68 0f 00 00 00       	push   0xf
  40112b:	e9 f0 fe ff ff       	jmp    401020 <_init+0x20>

0000000000401130 <exit@plt>:
  401130:	ff 25 62 8f 00 00    	jmp    QWORD PTR [rip+0x8f62]        # 40a098 <exit@GLIBC_2.2.5>
  401136:	68 10 00 00 00       	push   0x10
  40113b:	e9 e0 fe ff ff       	jmp    401020 <_init+0x20>

Disassembly of section .text:

0000000000401140 <_start>:
  401140:	f3 0f 1e fa          	endbr64 
  401144:	31 ed                	xor    ebp,ebp
  401146:	49 89 d1             	mov    r9,rdx
  401149:	5e                   	pop    rsi
  40114a:	48 89 e2             	mov    rdx,rsp
  40114d:	48 83 e4 f0          	and    rsp,0xfffffffffffffff0
  401151:	50                   	push   rax
  401152:	54                   	push   rsp
  401153:	49 c7 c0 d0 7e 40 00 	mov    r8,0x407ed0
  40115a:	48 c7 c1 60 7e 40 00 	mov    rcx,0x407e60
  401161:	48 c7 c7 20 14 40 00 	mov    rdi,0x401420
  401168:	ff 15 82 8e 00 00    	call   QWORD PTR [rip+0x8e82]        # 409ff0 <__libc_start_main@GLIBC_2.2.5>
  40116e:	f4                   	hlt    
  40116f:	90                   	nop

0000000000401170 <_dl_relocate_static_pie>:
  401170:	f3 0f 1e fa          	endbr64 
  401174:	c3                   	ret    
  401175:	66 2e 0f 1f 84 00 00 	cs nop WORD PTR [rax+rax*1+0x0]
  40117c:	00 00 00 
  40117f:	90                   	nop

0000000000401180 <deregister_tm_clones>:
  401180:	b8 b0 a0 40 00       	mov    eax,0x40a0b0
  401185:	48 3d b0 a0 40 00    	cmp    rax,0x40a0b0
  40118b:	74 13                	je     4011a0 <deregister_tm_clones+0x20>
  40118d:	b8 00 00 00 00       	mov    eax,0x0
  401192:	48 85 c0             	test   rax,rax
  401195:	74 09                	je     4011a0 <deregister_tm_clones+0x20>
  401197:	bf b0 a0 40 00       	mov    edi,0x40a0b0
  40119c:	ff e0                	jmp    rax
  40119e:	66 90                	xchg   ax,ax
  4011a0:	c3                   	ret    
  4011a1:	66 66 2e 0f 1f 84 00 	data16 cs nop WORD PTR [rax+rax*1+0x0]
  4011a8:	00 00 00 00 
  4011ac:	0f 1f 40 00          	nop    DWORD PTR [rax+0x0]

00000000004011b0 <register_tm_clones>:
  4011b0:	be b0 a0 40 00       	mov    esi,0x40a0b0
  4011b5:	48 81 ee b0 a0 40 00 	sub    rsi,0x40a0b0
  4011bc:	48 89 f0             	mov    rax,rsi
  4011bf:	48 c1 ee 3f          	shr    rsi,0x3f
  4011c3:	48 c1 f8 03          	sar    rax,0x3
  4011c7:	48 01 c6             	add    rsi,rax
  4011ca:	48 d1 fe             	sar    rsi,1
  4011cd:	74 11                	je     4011e0 <register_tm_clones+0x30>
  4011cf:	b8 00 00 00 00       	mov    eax,0x0
  4011d4:	48 85 c0             	test   rax,rax
  4011d7:	74 07                	je     4011e0 <register_tm_clones+0x30>
  4011d9:	bf b0 a0 40 00       	mov    edi,0x40a0b0
  4011de:	ff e0                	jmp    rax
  4011e0:	c3                   	ret    
  4011e1:	66 66 2e 0f 1f 84 00 	data16 cs nop WORD PTR [rax+rax*1+0x0]
  4011e8:	00 00 00 00 
  4011ec:	0f 1f 40 00          	nop    DWORD PTR [rax+0x0]

00000000004011f0 <__do_global_dtors_aux>:
  4011f0:	f3 0f 1e fa          	endbr64 
  4011f4:	80 3d ed 8e 00 00 00 	cmp    BYTE PTR [rip+0x8eed],0x0        # 40a0e8 <completed.8060>
  4011fb:	75 13                	jne    401210 <__do_global_dtors_aux+0x20>
  4011fd:	55                   	push   rbp
  4011fe:	48 89 e5             	mov    rbp,rsp
  401201:	e8 7a ff ff ff       	call   401180 <deregister_tm_clones>
  401206:	c6 05 db 8e 00 00 01 	mov    BYTE PTR [rip+0x8edb],0x1        # 40a0e8 <completed.8060>
  40120d:	5d                   	pop    rbp
  40120e:	c3                   	ret    
  40120f:	90                   	nop
  401210:	c3                   	ret    
  401211:	66 66 2e 0f 1f 84 00 	data16 cs nop WORD PTR [rax+rax*1+0x0]
  401218:	00 00 00 00 
  40121c:	0f 1f 40 00          	nop    DWORD PTR [rax+0x0]

0000000000401220 <frame_dummy>:
  401220:	f3 0f 1e fa          	endbr64 
  401224:	eb 8a                	jmp    4011b0 <register_tm_clones>
  401226:	66 2e 0f 1f 84 00 00 	cs nop WORD PTR [rax+rax*1+0x0]
  40122d:	00 00 00 

0000000000401230 <global_opt>:
  401230:	55                   	push   rbp
  401231:	48 89 e5             	mov    rbp,rsp
  401234:	48 83 ec 50          	sub    rsp,0x50
  401238:	48 c7 45 f0 01 00 00 	mov    QWORD PTR [rbp-0x10],0x1
  40123f:	00 
  401240:	48 c7 45 f8 ff ff ff 	mov    QWORD PTR [rbp-0x8],0xffffffffffffffff
  401247:	ff 
  401248:	48 83 7d f8 00       	cmp    QWORD PTR [rbp-0x8],0x0
  40124d:	0f 84 81 01 00 00    	je     4013d4 <global_opt+0x1a4>
  401253:	48 8b 34 25 d8 a2 40 	mov    rsi,QWORD PTR ds:0x40a2d8
  40125a:	00 
  40125b:	48 bf 04 80 40 00 00 	movabs rdi,0x408004
  401262:	00 00 00 
  401265:	b0 00                	mov    al,0x0
  401267:	e8 f4 fd ff ff       	call   401060 <printf@plt>
  40126c:	48 bf 30 a1 40 00 00 	movabs rdi,0x40a130
  401273:	00 00 00 
  401276:	89 45 ec             	mov    DWORD PTR [rbp-0x14],eax
  401279:	e8 92 57 00 00       	call   406a10 <primal_net_simplex>
  40127e:	48 8b 34 25 90 a3 40 	mov    rsi,QWORD PTR ds:0x40a390
  401285:	00 
  401286:	48 bf 26 80 40 00 00 	movabs rdi,0x408026
  40128d:	00 00 00 
  401290:	48 89 45 e0          	mov    QWORD PTR [rbp-0x20],rax
  401294:	b0 00                	mov    al,0x0
  401296:	e8 c5 fd ff ff       	call   401060 <printf@plt>
  40129b:	48 bf 30 a1 40 00 00 	movabs rdi,0x40a130
  4012a2:	00 00 00 
  4012a5:	89 45 dc             	mov    DWORD PTR [rbp-0x24],eax
  4012a8:	e8 f3 04 00 00       	call   4017a0 <flow_cost>
  4012ad:	48 bf 48 80 40 00 00 	movabs rdi,0x408048
  4012b4:	00 00 00 
  4012b7:	b0 01                	mov    al,0x1
  4012b9:	e8 a2 fd ff ff       	call   401060 <printf@plt>
  4012be:	48 83 3c 25 e8 a2 40 	cmp    QWORD PTR ds:0x40a2e8,0x0
  4012c5:	00 00 
  4012c7:	89 45 d8             	mov    DWORD PTR [rbp-0x28],eax
  4012ca:	0f 84 6f 00 00 00    	je     40133f <global_opt+0x10f>
  4012d0:	31 c0                	xor    eax,eax
  4012d2:	89 c2                	mov    edx,eax
  4012d4:	48 bf 30 a1 40 00 00 	movabs rdi,0x40a130
  4012db:	00 00 00 
  4012de:	48 c7 c6 ff ff ff ff 	mov    rsi,0xffffffffffffffff
  4012e5:	e8 86 3c 00 00       	call   404f70 <suspend_impl>
  4012ea:	48 89 45 f8          	mov    QWORD PTR [rbp-0x8],rax
  4012ee:	48 83 7d f8 00       	cmp    QWORD PTR [rbp-0x8],0x0
  4012f3:	0f 8d 1e 00 00 00    	jge    401317 <global_opt+0xe7>
  4012f9:	48 bf 6c 80 40 00 00 	movabs rdi,0x40806c
  401300:	00 00 00 
  401303:	b0 00                	mov    al,0x0
  401305:	e8 56 fd ff ff       	call   401060 <printf@plt>
  40130a:	bf ff ff ff ff       	mov    edi,0xffffffff
  40130f:	89 45 d4             	mov    DWORD PTR [rbp-0x2c],eax
  401312:	e8 19 fe ff ff       	call   401130 <exit@plt>
  401317:	48 83 7d f8 00       	cmp    QWORD PTR [rbp-0x8],0x0
  40131c:	0f 84 18 00 00 00    	je     40133a <global_opt+0x10a>
  401322:	48 8b 75 f8          	mov    rsi,QWORD PTR [rbp-0x8]
  401326:	48 bf 89 80 40 00 00 	movabs rdi,0x408089
  40132d:	00 00 00 
  401330:	b0 00                	mov    al,0x0
  401332:	e8 29 fd ff ff       	call   401060 <printf@plt>
  401337:	89 45 d0             	mov    DWORD PTR [rbp-0x30],eax
  40133a:	e9 25 00 00 00       	jmp    401364 <global_opt+0x134>
  40133f:	48 8b 14 25 d8 a2 40 	mov    rdx,QWORD PTR ds:0x40a2d8
  401346:	00 
  401347:	48 bf 30 a1 40 00 00 	movabs rdi,0x40a130
  40134e:	00 00 00 
  401351:	48 be c0 1a 40 00 00 	movabs rsi,0x401ac0
  401358:	00 00 00 
  40135b:	e8 d0 1d 00 00       	call   403130 <refreshPositions>
  401360:	48 89 45 c8          	mov    QWORD PTR [rbp-0x38],rax
  401364:	48 bf 30 a1 40 00 00 	movabs rdi,0x40a130
  40136b:	00 00 00 
  40136e:	e8 1d 2e 00 00       	call   404190 <price_out_impl>
  401373:	48 89 45 f8          	mov    QWORD PTR [rbp-0x8],rax
  401377:	48 83 7d f8 00       	cmp    QWORD PTR [rbp-0x8],0x0
  40137c:	0f 84 18 00 00 00    	je     40139a <global_opt+0x16a>
  401382:	48 8b 75 f8          	mov    rsi,QWORD PTR [rbp-0x8]
  401386:	48 bf ab 80 40 00 00 	movabs rdi,0x4080ab
  40138d:	00 00 00 
  401390:	b0 00                	mov    al,0x0
  401392:	e8 c9 fc ff ff       	call   401060 <printf@plt>
  401397:	89 45 c4             	mov    DWORD PTR [rbp-0x3c],eax
  40139a:	48 83 7d f8 00       	cmp    QWORD PTR [rbp-0x8],0x0
  40139f:	0f 8d 1e 00 00 00    	jge    4013c3 <global_opt+0x193>
  4013a5:	48 bf 6c 80 40 00 00 	movabs rdi,0x40806c
  4013ac:	00 00 00 
  4013af:	b0 00                	mov    al,0x0
  4013b1:	e8 aa fc ff ff       	call   401060 <printf@plt>
  4013b6:	bf ff ff ff ff       	mov    edi,0xffffffff
  4013bb:	89 45 c0             	mov    DWORD PTR [rbp-0x40],eax
  4013be:	e8 6d fd ff ff       	call   401130 <exit@plt>
  4013c3:	48 8b 45 f0          	mov    rax,QWORD PTR [rbp-0x10]
  4013c7:	48 83 c0 01          	add    rax,0x1
  4013cb:	48 89 45 f0          	mov    QWORD PTR [rbp-0x10],rax
  4013cf:	e9 74 fe ff ff       	jmp    401248 <global_opt+0x18>
  4013d4:	48 bf 30 a1 40 00 00 	movabs rdi,0x40a130
  4013db:	00 00 00 
  4013de:	e8 bd 03 00 00       	call   4017a0 <flow_cost>
  4013e3:	f2 0f 11 04 25 48 a3 	movsd  QWORD PTR ds:0x40a348,xmm0
  4013ea:	40 00 
  4013ec:	f2 0f 10 04 25 48 a3 	movsd  xmm0,QWORD PTR ds:0x40a348
  4013f3:	40 00 
  4013f5:	48 bf cd 80 40 00 00 	movabs rdi,0x4080cd
  4013fc:	00 00 00 
  4013ff:	b0 01                	mov    al,0x1
  401401:	e8 5a fc ff ff       	call   401060 <printf@plt>
  401406:	31 c9                	xor    ecx,ecx
  401408:	89 cf                	mov    edi,ecx
  40140a:	89 45 bc             	mov    DWORD PTR [rbp-0x44],eax
  40140d:	48 89 f8             	mov    rax,rdi
  401410:	48 83 c4 50          	add    rsp,0x50
  401414:	5d                   	pop    rbp
  401415:	c3                   	ret    
  401416:	66 2e 0f 1f 84 00 00 	cs nop WORD PTR [rax+rax*1+0x0]
  40141d:	00 00 00 

0000000000401420 <main>:
  401420:	55                   	push   rbp
  401421:	48 89 e5             	mov    rbp,rsp
  401424:	48 81 ec e0 00 00 00 	sub    rsp,0xe0
  40142b:	c7 45 fc 00 00 00 00 	mov    DWORD PTR [rbp-0x4],0x0
  401432:	89 7d f8             	mov    DWORD PTR [rbp-0x8],edi
  401435:	48 89 75 f0          	mov    QWORD PTR [rbp-0x10],rsi
  401439:	83 7d f8 02          	cmp    DWORD PTR [rbp-0x8],0x2
  40143d:	0f 8d 0c 00 00 00    	jge    40144f <main+0x2f>
  401443:	c7 45 fc ff ff ff ff 	mov    DWORD PTR [rbp-0x4],0xffffffff
  40144a:	e9 17 02 00 00       	jmp    401666 <main+0x246>
  40144f:	48 bf f1 80 40 00 00 	movabs rdi,0x4080f1
  401456:	00 00 00 
  401459:	b0 00                	mov    al,0x0
  40145b:	e8 00 fc ff ff       	call   401060 <printf@plt>
  401460:	48 bf 0d 81 40 00 00 	movabs rdi,0x40810d
  401467:	00 00 00 
  40146a:	89 45 8c             	mov    DWORD PTR [rbp-0x74],eax
  40146d:	b0 00                	mov    al,0x0
  40146f:	e8 ec fb ff ff       	call   401060 <printf@plt>
  401474:	48 bf 41 81 40 00 00 	movabs rdi,0x408141
  40147b:	00 00 00 
  40147e:	89 45 88             	mov    DWORD PTR [rbp-0x78],eax
  401481:	b0 00                	mov    al,0x0
  401483:	e8 d8 fb ff ff       	call   401060 <printf@plt>
  401488:	48 bf 6f 81 40 00 00 	movabs rdi,0x40816f
  40148f:	00 00 00 
  401492:	89 45 84             	mov    DWORD PTR [rbp-0x7c],eax
  401495:	b0 00                	mov    al,0x0
  401497:	e8 c4 fb ff ff       	call   401060 <printf@plt>
  40149c:	48 bf 97 81 40 00 00 	movabs rdi,0x408197
  4014a3:	00 00 00 
  4014a6:	89 45 80             	mov    DWORD PTR [rbp-0x80],eax
  4014a9:	b0 00                	mov    al,0x0
  4014ab:	e8 b0 fb ff ff       	call   401060 <printf@plt>
  4014b0:	48 bf 28 83 40 00 00 	movabs rdi,0x408328
  4014b7:	00 00 00 
  4014ba:	89 85 7c ff ff ff    	mov    DWORD PTR [rbp-0x84],eax
  4014c0:	b0 00                	mov    al,0x0
  4014c2:	e8 99 fb ff ff       	call   401060 <printf@plt>
  4014c7:	31 f6                	xor    esi,esi
  4014c9:	b9 88 02 00 00       	mov    ecx,0x288
  4014ce:	89 ca                	mov    edx,ecx
  4014d0:	48 bf 30 a1 40 00 00 	movabs rdi,0x40a130
  4014d7:	00 00 00 
  4014da:	89 85 78 ff ff ff    	mov    DWORD PTR [rbp-0x88],eax
  4014e0:	e8 8b fb ff ff       	call   401070 <memset@plt>
  4014e5:	48 c7 04 25 40 a3 40 	mov    QWORD PTR ds:0x40a340,0x989680
  4014ec:	00 80 96 98 00 
  4014f1:	48 8b 55 f0          	mov    rdx,QWORD PTR [rbp-0x10]
  4014f5:	48 8b 72 08          	mov    rsi,QWORD PTR [rdx+0x8]
  4014f9:	b8 30 a1 40 00       	mov    eax,0x40a130
  4014fe:	89 c7                	mov    edi,eax
  401500:	e8 3b fb ff ff       	call   401040 <strcpy@plt>
  401505:	83 7d f8 03          	cmp    DWORD PTR [rbp-0x8],0x3
  401509:	48 89 85 70 ff ff ff 	mov    QWORD PTR [rbp-0x90],rax
  401510:	0f 85 33 00 00 00    	jne    401549 <main+0x129>
  401516:	48 8b 45 f0          	mov    rax,QWORD PTR [rbp-0x10]
  40151a:	48 8b 78 10          	mov    rdi,QWORD PTR [rax+0x10]
  40151e:	e8 ed fb ff ff       	call   401110 <atoi@plt>
  401523:	48 8d 7d 90          	lea    rdi,[rbp-0x70]
  401527:	89 45 ec             	mov    DWORD PTR [rbp-0x14],eax
  40152a:	8b 55 ec             	mov    edx,DWORD PTR [rbp-0x14]
  40152d:	48 be dd 81 40 00 00 	movabs rsi,0x4081dd
  401534:	00 00 00 
  401537:	b0 00                	mov    al,0x0
  401539:	e8 e2 fb ff ff       	call   401120 <sprintf@plt>
  40153e:	89 85 6c ff ff ff    	mov    DWORD PTR [rbp-0x94],eax
  401544:	e9 17 00 00 00       	jmp    401560 <main+0x140>
  401549:	48 8d 7d 90          	lea    rdi,[rbp-0x70]
  40154d:	b8 e8 81 40 00       	mov    eax,0x4081e8
  401552:	89 c6                	mov    esi,eax
  401554:	e8 e7 fa ff ff       	call   401040 <strcpy@plt>
  401559:	48 89 85 60 ff ff ff 	mov    QWORD PTR [rbp-0xa0],rax
  401560:	48 bf 30 a1 40 00 00 	movabs rdi,0x40a130
  401567:	00 00 00 
  40156a:	e8 71 0c 00 00       	call   4021e0 <read_min>
  40156f:	48 83 f8 00          	cmp    rax,0x0
  401573:	0f 84 39 00 00 00    	je     4015b2 <main+0x192>
  401579:	48 bf f0 81 40 00 00 	movabs rdi,0x4081f0
  401580:	00 00 00 
  401583:	b0 00                	mov    al,0x0
  401585:	e8 d6 fa ff ff       	call   401060 <printf@plt>
  40158a:	48 bf 30 a1 40 00 00 	movabs rdi,0x40a130
  401591:	00 00 00 
  401594:	89 85 5c ff ff ff    	mov    DWORD PTR [rbp-0xa4],eax
  40159a:	e8 21 0b 00 00       	call   4020c0 <getfree>
  40159f:	c7 45 fc ff ff ff ff 	mov    DWORD PTR [rbp-0x4],0xffffffff
  4015a6:	48 89 85 50 ff ff ff 	mov    QWORD PTR [rbp-0xb0],rax
  4015ad:	e9 b4 00 00 00       	jmp    401666 <main+0x246>
  4015b2:	48 8b 34 25 c8 a2 40 	mov    rsi,QWORD PTR ds:0x40a2c8
  4015b9:	00 
  4015ba:	48 bf 02 82 40 00 00 	movabs rdi,0x408202
  4015c1:	00 00 00 
  4015c4:	b0 00                	mov    al,0x0
  4015c6:	e8 95 fa ff ff       	call   401060 <printf@plt>
  4015cb:	48 bf 30 a1 40 00 00 	movabs rdi,0x40a130
  4015d2:	00 00 00 
  4015d5:	89 85 4c ff ff ff    	mov    DWORD PTR [rbp-0xb4],eax
  4015db:	e8 b0 3d 00 00       	call   405390 <primal_start_artificial>
  4015e0:	48 89 85 40 ff ff ff 	mov    QWORD PTR [rbp-0xc0],rax
  4015e7:	e8 44 fc ff ff       	call   401230 <global_opt>
  4015ec:	48 8d 7d 90          	lea    rdi,[rbp-0x70]
  4015f0:	48 be 30 a1 40 00 00 	movabs rsi,0x40a130
  4015f7:	00 00 00 
  4015fa:	48 89 85 38 ff ff ff 	mov    QWORD PTR [rbp-0xc8],rax
  401601:	e8 9a 42 00 00       	call   4058a0 <write_objective_value>
  401606:	48 83 f8 00          	cmp    rax,0x0
  40160a:	0f 84 22 00 00 00    	je     401632 <main+0x212>
  401610:	48 bf 30 a1 40 00 00 	movabs rdi,0x40a130
  401617:	00 00 00 
  40161a:	e8 a1 0a 00 00       	call   4020c0 <getfree>
  40161f:	c7 45 fc ff ff ff ff 	mov    DWORD PTR [rbp-0x4],0xffffffff
  401626:	48 89 85 30 ff ff ff 	mov    QWORD PTR [rbp-0xd0],rax
  40162d:	e9 34 00 00 00       	jmp    401666 <main+0x246>
  401632:	48 bf 30 a1 40 00 00 	movabs rdi,0x40a130
  401639:	00 00 00 
  40163c:	e8 7f 0a 00 00       	call   4020c0 <getfree>
  401641:	48 bf 24 82 40 00 00 	movabs rdi,0x408224
  401648:	00 00 00 
  40164b:	48 89 85 28 ff ff ff 	mov    QWORD PTR [rbp-0xd8],rax
  401652:	b0 00                	mov    al,0x0
  401654:	e8 07 fa ff ff       	call   401060 <printf@plt>
  401659:	c7 45 fc 00 00 00 00 	mov    DWORD PTR [rbp-0x4],0x0
  401660:	89 85 24 ff ff ff    	mov    DWORD PTR [rbp-0xdc],eax
  401666:	8b 45 fc             	mov    eax,DWORD PTR [rbp-0x4]
  401669:	48 81 c4 e0 00 00 00 	add    rsp,0xe0
  401670:	5d                   	pop    rbp
  401671:	c3                   	ret    
  401672:	66 2e 0f 1f 84 00 00 	cs nop WORD PTR [rax+rax*1+0x0]
  401679:	00 00 00 
  40167c:	0f 1f 40 00          	nop    DWORD PTR [rax+0x0]

0000000000401680 <refresh_neighbour_lists>:
  401680:	55                   	push   rbp
  401681:	48 89 e5             	mov    rbp,rsp
  401684:	48 83 ec 40          	sub    rsp,0x40
  401688:	48 89 7d f8          	mov    QWORD PTR [rbp-0x8],rdi
  40168c:	48 89 75 f0          	mov    QWORD PTR [rbp-0x10],rsi
  401690:	48 8b 75 f8          	mov    rsi,QWORD PTR [rbp-0x8]
  401694:	48 8b b6 28 02 00 00 	mov    rsi,QWORD PTR [rsi+0x228]
  40169b:	48 89 75 e8          	mov    QWORD PTR [rbp-0x18],rsi
  40169f:	48 8b 75 f8          	mov    rsi,QWORD PTR [rbp-0x8]
  4016a3:	48 8b b6 30 02 00 00 	mov    rsi,QWORD PTR [rsi+0x230]
  4016aa:	48 89 75 d8          	mov    QWORD PTR [rbp-0x28],rsi
  4016ae:	48 8b 45 e8          	mov    rax,QWORD PTR [rbp-0x18]
  4016b2:	48 8b 4d d8          	mov    rcx,QWORD PTR [rbp-0x28]
  4016b6:	48 39 c8             	cmp    rax,rcx
  4016b9:	0f 83 29 00 00 00    	jae    4016e8 <refresh_neighbour_lists+0x68>
  4016bf:	48 8b 45 e8          	mov    rax,QWORD PTR [rbp-0x18]
  4016c3:	48 c7 40 40 00 00 00 	mov    QWORD PTR [rax+0x40],0x0
  4016ca:	00 
  4016cb:	48 8b 45 e8          	mov    rax,QWORD PTR [rbp-0x18]
  4016cf:	48 c7 40 38 00 00 00 	mov    QWORD PTR [rax+0x38],0x0
  4016d6:	00 
  4016d7:	48 8b 45 e8          	mov    rax,QWORD PTR [rbp-0x18]
  4016db:	48 83 c0 68          	add    rax,0x68
  4016df:	48 89 45 e8          	mov    QWORD PTR [rbp-0x18],rax
  4016e3:	e9 c6 ff ff ff       	jmp    4016ae <refresh_neighbour_lists+0x2e>
  4016e8:	48 8b 45 f8          	mov    rax,QWORD PTR [rbp-0x8]
  4016ec:	48 8b 80 38 02 00 00 	mov    rax,QWORD PTR [rax+0x238]
  4016f3:	48 89 45 e0          	mov    QWORD PTR [rbp-0x20],rax
  4016f7:	c7 45 d4 00 00 00 00 	mov    DWORD PTR [rbp-0x2c],0x0
  4016fe:	48 63 45 d4          	movsxd rax,DWORD PTR [rbp-0x2c]
  401702:	48 8b 4d f8          	mov    rcx,QWORD PTR [rbp-0x8]
  401706:	48 3b 81 a8 01 00 00 	cmp    rax,QWORD PTR [rcx+0x1a8]
  40170d:	0f 8d 82 00 00 00    	jge    401795 <refresh_neighbour_lists+0x115>
  401713:	48 8b 45 e0          	mov    rax,QWORD PTR [rbp-0x20]
  401717:	48 8b 40 10          	mov    rax,QWORD PTR [rax+0x10]
  40171b:	48 8b 40 38          	mov    rax,QWORD PTR [rax+0x38]
  40171f:	48 8b 4d e0          	mov    rcx,QWORD PTR [rbp-0x20]
  401723:	48 89 41 28          	mov    QWORD PTR [rcx+0x28],rax
  401727:	48 8b 45 e0          	mov    rax,QWORD PTR [rbp-0x20]
  40172b:	48 8b 4d e0          	mov    rcx,QWORD PTR [rbp-0x20]
  40172f:	48 8b 49 10          	mov    rcx,QWORD PTR [rcx+0x10]
  401733:	48 89 41 38          	mov    QWORD PTR [rcx+0x38],rax
  401737:	48 8b 45 e0          	mov    rax,QWORD PTR [rbp-0x20]
  40173b:	48 8b 40 18          	mov    rax,QWORD PTR [rax+0x18]
  40173f:	48 8b 40 40          	mov    rax,QWORD PTR [rax+0x40]
  401743:	48 8b 4d e0          	mov    rcx,QWORD PTR [rbp-0x20]
  401747:	48 89 41 30          	mov    QWORD PTR [rcx+0x30],rax
  40174b:	48 8b 45 e0          	mov    rax,QWORD PTR [rbp-0x20]
  40174f:	48 8b 4d e0          	mov    rcx,QWORD PTR [rbp-0x20]
  401753:	48 8b 49 18          	mov    rcx,QWORD PTR [rcx+0x18]
  401757:	48 89 41 40          	mov    QWORD PTR [rcx+0x40],rax
  40175b:	8b 45 d4             	mov    eax,DWORD PTR [rbp-0x2c]
  40175e:	83 c0 01             	add    eax,0x1
  401761:	89 45 d4             	mov    DWORD PTR [rbp-0x2c],eax
  401764:	48 8b 4d f8          	mov    rcx,QWORD PTR [rbp-0x8]
  401768:	48 8b 89 38 02 00 00 	mov    rcx,QWORD PTR [rcx+0x238]
  40176f:	48 8b 55 f0          	mov    rdx,QWORD PTR [rbp-0x10]
  401773:	48 8b 7d f8          	mov    rdi,QWORD PTR [rbp-0x8]
  401777:	48 63 75 d4          	movsxd rsi,DWORD PTR [rbp-0x2c]
  40177b:	48 89 4d c8          	mov    QWORD PTR [rbp-0x38],rcx
  40177f:	ff d2                	call   rdx
  401781:	48 6b c0 48          	imul   rax,rax,0x48
  401785:	48 8b 4d c8          	mov    rcx,QWORD PTR [rbp-0x38]
  401789:	48 01 c1             	add    rcx,rax
  40178c:	48 89 4d e0          	mov    QWORD PTR [rbp-0x20],rcx
  401790:	e9 69 ff ff ff       	jmp    4016fe <refresh_neighbour_lists+0x7e>
  401795:	48 83 c4 40          	add    rsp,0x40
  401799:	5d                   	pop    rbp
  40179a:	c3                   	ret    
  40179b:	0f 1f 44 00 00       	nop    DWORD PTR [rax+rax*1+0x0]

00000000004017a0 <flow_cost>:
  4017a0:	55                   	push   rbp
  4017a1:	48 89 e5             	mov    rbp,rsp
  4017a4:	48 89 7d f8          	mov    QWORD PTR [rbp-0x8],rdi
  4017a8:	48 c7 45 e0 00 00 00 	mov    QWORD PTR [rbp-0x20],0x0
  4017af:	00 
  4017b0:	48 c7 45 d0 00 00 00 	mov    QWORD PTR [rbp-0x30],0x0
  4017b7:	00 
  4017b8:	48 8b 7d f8          	mov    rdi,QWORD PTR [rbp-0x8]
  4017bc:	48 8b bf 38 02 00 00 	mov    rdi,QWORD PTR [rdi+0x238]
  4017c3:	48 89 7d f0          	mov    QWORD PTR [rbp-0x10],rdi
  4017c7:	c7 45 dc 00 00 00 00 	mov    DWORD PTR [rbp-0x24],0x0
  4017ce:	48 63 45 dc          	movsxd rax,DWORD PTR [rbp-0x24]
  4017d2:	48 8b 4d f8          	mov    rcx,QWORD PTR [rbp-0x8]
  4017d6:	48 3b 81 a8 01 00 00 	cmp    rax,QWORD PTR [rcx+0x1a8]
  4017dd:	0f 8d 62 00 00 00    	jge    401845 <flow_cost+0xa5>
  4017e3:	48 8b 45 f0          	mov    rax,QWORD PTR [rbp-0x10]
  4017e7:	48 63 4d dc          	movsxd rcx,DWORD PTR [rbp-0x24]
  4017eb:	48 6b c9 48          	imul   rcx,rcx,0x48
  4017ef:	48 01 c8             	add    rax,rcx
  4017f2:	0f bf 50 20          	movsx  edx,WORD PTR [rax+0x20]
  4017f6:	83 fa 02             	cmp    edx,0x2
  4017f9:	0f 85 1c 00 00 00    	jne    40181b <flow_cost+0x7b>
  4017ff:	48 8b 45 f0          	mov    rax,QWORD PTR [rbp-0x10]
  401803:	48 63 4d dc          	movsxd rcx,DWORD PTR [rbp-0x24]
  401807:	48 6b c9 48          	imul   rcx,rcx,0x48
  40180b:	48 01 c8             	add    rax,rcx
  40180e:	48 c7 40 38 01 00 00 	mov    QWORD PTR [rax+0x38],0x1
  401815:	00 
  401816:	e9 17 00 00 00       	jmp    401832 <flow_cost+0x92>
  40181b:	48 8b 45 f0          	mov    rax,QWORD PTR [rbp-0x10]
  40181f:	48 63 4d dc          	movsxd rcx,DWORD PTR [rbp-0x24]
  401823:	48 6b c9 48          	imul   rcx,rcx,0x48
  401827:	48 01 c8             	add    rax,rcx
  40182a:	48 c7 40 38 00 00 00 	mov    QWORD PTR [rax+0x38],0x0
  401831:	00 
  401832:	e9 00 00 00 00       	jmp    401837 <flow_cost+0x97>
  401837:	8b 45 dc             	mov    eax,DWORD PTR [rbp-0x24]
  40183a:	83 c0 01             	add    eax,0x1
  40183d:	89 45 dc             	mov    DWORD PTR [rbp-0x24],eax
  401840:	e9 89 ff ff ff       	jmp    4017ce <flow_cost+0x2e>
  401845:	48 8b 45 f8          	mov    rax,QWORD PTR [rbp-0x8]
  401849:	48 8b 80 28 02 00 00 	mov    rax,QWORD PTR [rax+0x228]
  401850:	48 89 45 e8          	mov    QWORD PTR [rbp-0x18],rax
  401854:	c7 45 dc 01 00 00 00 	mov    DWORD PTR [rbp-0x24],0x1
  40185b:	48 63 45 dc          	movsxd rax,DWORD PTR [rbp-0x24]
  40185f:	48 8b 4d f8          	mov    rcx,QWORD PTR [rbp-0x8]
  401863:	48 3b 81 90 01 00 00 	cmp    rax,QWORD PTR [rcx+0x190]
  40186a:	0f 8f 38 00 00 00    	jg     4018a8 <flow_cost+0x108>
  401870:	48 8b 45 e8          	mov    rax,QWORD PTR [rbp-0x18]
  401874:	48 63 4d dc          	movsxd rcx,DWORD PTR [rbp-0x24]
  401878:	48 6b c9 68          	imul   rcx,rcx,0x68
  40187c:	48 01 c8             	add    rax,rcx
  40187f:	48 8b 40 50          	mov    rax,QWORD PTR [rax+0x50]
  401883:	48 8b 4d e8          	mov    rcx,QWORD PTR [rbp-0x18]
  401887:	48 63 55 dc          	movsxd rdx,DWORD PTR [rbp-0x24]
  40188b:	48 6b d2 68          	imul   rdx,rdx,0x68
  40188f:	48 01 d1             	add    rcx,rdx
  401892:	48 8b 49 30          	mov    rcx,QWORD PTR [rcx+0x30]
  401896:	48 89 41 38          	mov    QWORD PTR [rcx+0x38],rax
  40189a:	8b 45 dc             	mov    eax,DWORD PTR [rbp-0x24]
  40189d:	83 c0 01             	add    eax,0x1
  4018a0:	89 45 dc             	mov    DWORD PTR [rbp-0x24],eax
  4018a3:	e9 b3 ff ff ff       	jmp    40185b <flow_cost+0xbb>
  4018a8:	48 8b 45 f8          	mov    rax,QWORD PTR [rbp-0x8]
  4018ac:	48 8b 80 38 02 00 00 	mov    rax,QWORD PTR [rax+0x238]
  4018b3:	48 89 45 f0          	mov    QWORD PTR [rbp-0x10],rax
  4018b7:	c7 45 dc 00 00 00 00 	mov    DWORD PTR [rbp-0x24],0x0
  4018be:	48 63 45 dc          	movsxd rax,DWORD PTR [rbp-0x24]
  4018c2:	48 8b 4d f8          	mov    rcx,QWORD PTR [rbp-0x8]
  4018c6:	48 3b 81 a8 01 00 00 	cmp    rax,QWORD PTR [rcx+0x1a8]
  4018cd:	0f 8d e0 00 00 00    	jge    4019b3 <flow_cost+0x213>
  4018d3:	48 8b 45 f0          	mov    rax,QWORD PTR [rbp-0x10]
  4018d7:	48 63 4d dc          	movsxd rcx,DWORD PTR [rbp-0x24]
  4018db:	48 6b c9 48          	imul   rcx,rcx,0x48
  4018df:	48 01 c8             	add    rax,rcx
  4018e2:	48 83 78 38 00       	cmp    QWORD PTR [rax+0x38],0x0
  4018e7:	0f 84 b3 00 00 00    	je     4019a0 <flow_cost+0x200>
  4018ed:	48 8b 45 f0          	mov    rax,QWORD PTR [rbp-0x10]
  4018f1:	48 63 4d dc          	movsxd rcx,DWORD PTR [rbp-0x24]
  4018f5:	48 6b c9 48          	imul   rcx,rcx,0x48
  4018f9:	48 01 c8             	add    rax,rcx
  4018fc:	48 8b 40 10          	mov    rax,QWORD PTR [rax+0x10]
  401900:	83 78 60 00          	cmp    DWORD PTR [rax+0x60],0x0
  401904:	0f 8d 1d 00 00 00    	jge    401927 <flow_cost+0x187>
  40190a:	48 8b 45 f0          	mov    rax,QWORD PTR [rbp-0x10]
  40190e:	48 63 4d dc          	movsxd rcx,DWORD PTR [rbp-0x24]
  401912:	48 6b c9 48          	imul   rcx,rcx,0x48
  401916:	48 01 c8             	add    rax,rcx
  401919:	48 8b 40 18          	mov    rax,QWORD PTR [rax+0x18]
  40191d:	83 78 60 00          	cmp    DWORD PTR [rax+0x60],0x0
  401921:	0f 8f 74 00 00 00    	jg     40199b <flow_cost+0x1fb>
  401927:	48 8b 45 f0          	mov    rax,QWORD PTR [rbp-0x10]
  40192b:	48 63 4d dc          	movsxd rcx,DWORD PTR [rbp-0x24]
  40192f:	48 6b c9 48          	imul   rcx,rcx,0x48
  401933:	48 01 c8             	add    rax,rcx
  401936:	48 8b 40 10          	mov    rax,QWORD PTR [rax+0x10]
  40193a:	83 78 60 00          	cmp    DWORD PTR [rax+0x60],0x0
  40193e:	0f 85 37 00 00 00    	jne    40197b <flow_cost+0x1db>
  401944:	48 8b 45 f0          	mov    rax,QWORD PTR [rbp-0x10]
  401948:	48 63 4d dc          	movsxd rcx,DWORD PTR [rbp-0x24]
  40194c:	48 6b c9 48          	imul   rcx,rcx,0x48
  401950:	48 01 c8             	add    rax,rcx
  401953:	48 8b 40 08          	mov    rax,QWORD PTR [rax+0x8]
  401957:	48 8b 4d f8          	mov    rcx,QWORD PTR [rbp-0x8]
  40195b:	48 2b 81 10 02 00 00 	sub    rax,QWORD PTR [rcx+0x210]
  401962:	48 03 45 d0          	add    rax,QWORD PTR [rbp-0x30]
  401966:	48 89 45 d0          	mov    QWORD PTR [rbp-0x30],rax
  40196a:	48 8b 45 e0          	mov    rax,QWORD PTR [rbp-0x20]
  40196e:	48 83 c0 01          	add    rax,0x1
  401972:	48 89 45 e0          	mov    QWORD PTR [rbp-0x20],rax
  401976:	e9 1b 00 00 00       	jmp    401996 <flow_cost+0x1f6>
  40197b:	48 8b 45 f0          	mov    rax,QWORD PTR [rbp-0x10]
  40197f:	48 63 4d dc          	movsxd rcx,DWORD PTR [rbp-0x24]
  401983:	48 6b c9 48          	imul   rcx,rcx,0x48
  401987:	48 01 c8             	add    rax,rcx
  40198a:	48 8b 40 08          	mov    rax,QWORD PTR [rax+0x8]
  40198e:	48 03 45 d0          	add    rax,QWORD PTR [rbp-0x30]
  401992:	48 89 45 d0          	mov    QWORD PTR [rbp-0x30],rax
  401996:	e9 00 00 00 00       	jmp    40199b <flow_cost+0x1fb>
  40199b:	e9 00 00 00 00       	jmp    4019a0 <flow_cost+0x200>
  4019a0:	e9 00 00 00 00       	jmp    4019a5 <flow_cost+0x205>
  4019a5:	8b 45 dc             	mov    eax,DWORD PTR [rbp-0x24]
  4019a8:	83 c0 01             	add    eax,0x1
  4019ab:	89 45 dc             	mov    DWORD PTR [rbp-0x24],eax
  4019ae:	e9 0b ff ff ff       	jmp    4018be <flow_cost+0x11e>
  4019b3:	48 8b 45 e0          	mov    rax,QWORD PTR [rbp-0x20]
  4019b7:	f2 48 0f 2a c0       	cvtsi2sd xmm0,rax
  4019bc:	48 8b 45 f8          	mov    rax,QWORD PTR [rbp-0x8]
  4019c0:	48 8b 80 10 02 00 00 	mov    rax,QWORD PTR [rax+0x210]
  4019c7:	f2 48 0f 2a c8       	cvtsi2sd xmm1,rax
  4019cc:	f2 0f 59 c1          	mulsd  xmm0,xmm1
  4019d0:	48 8b 45 d0          	mov    rax,QWORD PTR [rbp-0x30]
  4019d4:	f2 48 0f 2a c8       	cvtsi2sd xmm1,rax
  4019d9:	f2 0f 58 c1          	addsd  xmm0,xmm1
  4019dd:	5d                   	pop    rbp
  4019de:	c3                   	ret    
  4019df:	90                   	nop

00000000004019e0 <start>:
  4019e0:	55                   	push   rbp
  4019e1:	48 89 e5             	mov    rbp,rsp
  4019e4:	31 c0                	xor    eax,eax
  4019e6:	48 c7 04 25 f0 a0 40 	mov    QWORD PTR ds:0x40a0f0,0x0
  4019ed:	00 00 00 00 00 
  4019f2:	48 c7 04 25 f8 a0 40 	mov    QWORD PTR ds:0x40a0f8,0x0
  4019f9:	00 00 00 00 00 
  4019fe:	5d                   	pop    rbp
  4019ff:	c3                   	ret    

0000000000401a00 <getArcPosition>:
  401a00:	55                   	push   rbp
  401a01:	48 89 e5             	mov    rbp,rsp
  401a04:	48 89 7d f8          	mov    QWORD PTR [rbp-0x8],rdi
  401a08:	48 89 75 f0          	mov    QWORD PTR [rbp-0x10],rsi
  401a0c:	48 8b 45 f0          	mov    rax,QWORD PTR [rbp-0x10]
  401a10:	48 8b 75 f8          	mov    rsi,QWORD PTR [rbp-0x8]
  401a14:	48 99                	cqo    
  401a16:	48 f7 be 70 02 00 00 	idiv   QWORD PTR [rsi+0x270]
  401a1d:	48 89 55 e0          	mov    QWORD PTR [rbp-0x20],rdx
  401a21:	48 8b 55 e0          	mov    rdx,QWORD PTR [rbp-0x20]
  401a25:	48 8b 75 f8          	mov    rsi,QWORD PTR [rbp-0x8]
  401a29:	48 3b 96 78 02 00 00 	cmp    rdx,QWORD PTR [rsi+0x278]
  401a30:	0f 8e 59 00 00 00    	jle    401a8f <getArcPosition+0x8f>
  401a36:	48 8b 45 f0          	mov    rax,QWORD PTR [rbp-0x10]
  401a3a:	48 8b 4d f8          	mov    rcx,QWORD PTR [rbp-0x8]
  401a3e:	48 99                	cqo    
  401a40:	48 f7 b9 70 02 00 00 	idiv   QWORD PTR [rcx+0x270]
  401a47:	48 8b 4d f8          	mov    rcx,QWORD PTR [rbp-0x8]
  401a4b:	48 8b 89 78 02 00 00 	mov    rcx,QWORD PTR [rcx+0x278]
  401a52:	48 8b 75 f8          	mov    rsi,QWORD PTR [rbp-0x8]
  401a56:	48 0f af 8e 80 02 00 	imul   rcx,QWORD PTR [rsi+0x280]
  401a5d:	00 
  401a5e:	48 8b 75 e0          	mov    rsi,QWORD PTR [rbp-0x20]
  401a62:	48 8b 7d f8          	mov    rdi,QWORD PTR [rbp-0x8]
  401a66:	48 2b b7 78 02 00 00 	sub    rsi,QWORD PTR [rdi+0x278]
  401a6d:	48 8b 7d f8          	mov    rdi,QWORD PTR [rbp-0x8]
  401a71:	48 8b bf 80 02 00 00 	mov    rdi,QWORD PTR [rdi+0x280]
  401a78:	48 83 ef 01          	sub    rdi,0x1
  401a7c:	48 0f af f7          	imul   rsi,rdi
  401a80:	48 01 f1             	add    rcx,rsi
  401a83:	48 01 c8             	add    rax,rcx
  401a86:	48 89 45 e8          	mov    QWORD PTR [rbp-0x18],rax
  401a8a:	e9 28 00 00 00       	jmp    401ab7 <getArcPosition+0xb7>
  401a8f:	48 8b 45 f0          	mov    rax,QWORD PTR [rbp-0x10]
  401a93:	48 8b 4d f8          	mov    rcx,QWORD PTR [rbp-0x8]
  401a97:	48 99                	cqo    
  401a99:	48 f7 b9 70 02 00 00 	idiv   QWORD PTR [rcx+0x270]
  401aa0:	48 8b 4d e0          	mov    rcx,QWORD PTR [rbp-0x20]
  401aa4:	48 8b 75 f8          	mov    rsi,QWORD PTR [rbp-0x8]
  401aa8:	48 0f af 8e 80 02 00 	imul   rcx,QWORD PTR [rsi+0x280]
  401aaf:	00 
  401ab0:	48 01 c8             	add    rax,rcx
  401ab3:	48 89 45 e8          	mov    QWORD PTR [rbp-0x18],rax
  401ab7:	48 8b 45 e8          	mov    rax,QWORD PTR [rbp-0x18]
  401abb:	5d                   	pop    rbp
  401abc:	c3                   	ret    
  401abd:	0f 1f 00             	nop    DWORD PTR [rax]

0000000000401ac0 <getOriginalArcPosition>:
  401ac0:	55                   	push   rbp
  401ac1:	48 89 e5             	mov    rbp,rsp
  401ac4:	48 89 7d f8          	mov    QWORD PTR [rbp-0x8],rdi
  401ac8:	48 89 75 f0          	mov    QWORD PTR [rbp-0x10],rsi
  401acc:	48 8b 45 f0          	mov    rax,QWORD PTR [rbp-0x10]
  401ad0:	5d                   	pop    rbp
  401ad1:	c3                   	ret    
  401ad2:	66 2e 0f 1f 84 00 00 	cs nop WORD PTR [rax+rax*1+0x0]
  401ad9:	00 00 00 
  401adc:	0f 1f 40 00          	nop    DWORD PTR [rax+0x0]

0000000000401ae0 <flow_org_cost>:
  401ae0:	55                   	push   rbp
  401ae1:	48 89 e5             	mov    rbp,rsp
  401ae4:	48 83 ec 40          	sub    rsp,0x40
  401ae8:	48 89 7d f8          	mov    QWORD PTR [rbp-0x8],rdi
  401aec:	48 c7 45 d8 00 00 00 	mov    QWORD PTR [rbp-0x28],0x0
  401af3:	00 
  401af4:	48 c7 45 d0 00 00 00 	mov    QWORD PTR [rbp-0x30],0x0
  401afb:	00 
  401afc:	48 8b 7d f8          	mov    rdi,QWORD PTR [rbp-0x8]
  401b00:	48 8b bf 38 02 00 00 	mov    rdi,QWORD PTR [rdi+0x238]
  401b07:	48 89 7d f0          	mov    QWORD PTR [rbp-0x10],rdi
  401b0b:	c7 45 e4 00 00 00 00 	mov    DWORD PTR [rbp-0x1c],0x0
  401b12:	48 63 45 e4          	movsxd rax,DWORD PTR [rbp-0x1c]
  401b16:	48 8b 4d f8          	mov    rcx,QWORD PTR [rbp-0x8]
  401b1a:	48 3b 81 a8 01 00 00 	cmp    rax,QWORD PTR [rcx+0x1a8]
  401b21:	0f 8d 62 00 00 00    	jge    401b89 <flow_org_cost+0xa9>
  401b27:	48 8b 45 f0          	mov    rax,QWORD PTR [rbp-0x10]
  401b2b:	48 63 4d e4          	movsxd rcx,DWORD PTR [rbp-0x1c]
  401b2f:	48 6b c9 48          	imul   rcx,rcx,0x48
  401b33:	48 01 c8             	add    rax,rcx
  401b36:	0f bf 50 20          	movsx  edx,WORD PTR [rax+0x20]
  401b3a:	83 fa 02             	cmp    edx,0x2
  401b3d:	0f 85 1c 00 00 00    	jne    401b5f <flow_org_cost+0x7f>
  401b43:	48 8b 45 f0          	mov    rax,QWORD PTR [rbp-0x10]
  401b47:	48 63 4d e4          	movsxd rcx,DWORD PTR [rbp-0x1c]
  401b4b:	48 6b c9 48          	imul   rcx,rcx,0x48
  401b4f:	48 01 c8             	add    rax,rcx
  401b52:	48 c7 40 38 01 00 00 	mov    QWORD PTR [rax+0x38],0x1
  401b59:	00 
  401b5a:	e9 17 00 00 00       	jmp    401b76 <flow_org_cost+0x96>
  401b5f:	48 8b 45 f0          	mov    rax,QWORD PTR [rbp-0x10]
  401b63:	48 63 4d e4          	movsxd rcx,DWORD PTR [rbp-0x1c]
  401b67:	48 6b c9 48          	imul   rcx,rcx,0x48
  401b6b:	48 01 c8             	add    rax,rcx
  401b6e:	48 c7 40 38 00 00 00 	mov    QWORD PTR [rax+0x38],0x0
  401b75:	00 
  401b76:	e9 00 00 00 00       	jmp    401b7b <flow_org_cost+0x9b>
  401b7b:	8b 45 e4             	mov    eax,DWORD PTR [rbp-0x1c]
  401b7e:	83 c0 01             	add    eax,0x1
  401b81:	89 45 e4             	mov    DWORD PTR [rbp-0x1c],eax
  401b84:	e9 89 ff ff ff       	jmp    401b12 <flow_org_cost+0x32>
  401b89:	48 8b 45 f8          	mov    rax,QWORD PTR [rbp-0x8]
  401b8d:	48 8b 80 28 02 00 00 	mov    rax,QWORD PTR [rax+0x228]
  401b94:	48 89 45 e8          	mov    QWORD PTR [rbp-0x18],rax
  401b98:	c7 45 e4 00 00 00 00 	mov    DWORD PTR [rbp-0x1c],0x0
  401b9f:	48 63 45 e4          	movsxd rax,DWORD PTR [rbp-0x1c]
  401ba3:	48 8b 4d f8          	mov    rcx,QWORD PTR [rbp-0x8]
  401ba7:	48 3b 81 90 01 00 00 	cmp    rax,QWORD PTR [rcx+0x190]
  401bae:	0f 8d 38 00 00 00    	jge    401bec <flow_org_cost+0x10c>
  401bb4:	48 8b 45 e8          	mov    rax,QWORD PTR [rbp-0x18]
  401bb8:	48 63 4d e4          	movsxd rcx,DWORD PTR [rbp-0x1c]
  401bbc:	48 6b c9 68          	imul   rcx,rcx,0x68
  401bc0:	48 01 c8             	add    rax,rcx
  401bc3:	48 8b 40 50          	mov    rax,QWORD PTR [rax+0x50]
  401bc7:	48 8b 4d e8          	mov    rcx,QWORD PTR [rbp-0x18]
  401bcb:	48 63 55 e4          	movsxd rdx,DWORD PTR [rbp-0x1c]
  401bcf:	48 6b d2 68          	imul   rdx,rdx,0x68
  401bd3:	48 01 d1             	add    rcx,rdx
  401bd6:	48 8b 49 30          	mov    rcx,QWORD PTR [rcx+0x30]
  401bda:	48 89 41 38          	mov    QWORD PTR [rcx+0x38],rax
  401bde:	8b 45 e4             	mov    eax,DWORD PTR [rbp-0x1c]
  401be1:	83 c0 01             	add    eax,0x1
  401be4:	89 45 e4             	mov    DWORD PTR [rbp-0x1c],eax
  401be7:	e9 b3 ff ff ff       	jmp    401b9f <flow_org_cost+0xbf>
  401bec:	48 8b 45 f8          	mov    rax,QWORD PTR [rbp-0x8]
  401bf0:	48 8b 80 38 02 00 00 	mov    rax,QWORD PTR [rax+0x238]
  401bf7:	48 89 45 f0          	mov    QWORD PTR [rbp-0x10],rax
  401bfb:	c7 45 e4 00 00 00 00 	mov    DWORD PTR [rbp-0x1c],0x0
  401c02:	48 63 45 e4          	movsxd rax,DWORD PTR [rbp-0x1c]
  401c06:	48 8b 4d f8          	mov    rcx,QWORD PTR [rbp-0x8]
  401c0a:	48 3b 81 a8 01 00 00 	cmp    rax,QWORD PTR [rcx+0x1a8]
  401c11:	0f 8d e0 00 00 00    	jge    401cf7 <flow_org_cost+0x217>
  401c17:	48 8b 45 f0          	mov    rax,QWORD PTR [rbp-0x10]
  401c1b:	48 63 4d e4          	movsxd rcx,DWORD PTR [rbp-0x1c]
  401c1f:	48 6b c9 48          	imul   rcx,rcx,0x48
  401c23:	48 01 c8             	add    rax,rcx
  401c26:	48 83 78 38 00       	cmp    QWORD PTR [rax+0x38],0x0
  401c2b:	0f 84 b3 00 00 00    	je     401ce4 <flow_org_cost+0x204>
  401c31:	48 8b 45 f0          	mov    rax,QWORD PTR [rbp-0x10]
  401c35:	48 63 4d e4          	movsxd rcx,DWORD PTR [rbp-0x1c]
  401c39:	48 6b c9 48          	imul   rcx,rcx,0x48
  401c3d:	48 01 c8             	add    rax,rcx
  401c40:	48 8b 40 10          	mov    rax,QWORD PTR [rax+0x10]
  401c44:	83 78 60 00          	cmp    DWORD PTR [rax+0x60],0x0
  401c48:	0f 8d 1d 00 00 00    	jge    401c6b <flow_org_cost+0x18b>
  401c4e:	48 8b 45 f0          	mov    rax,QWORD PTR [rbp-0x10]
  401c52:	48 63 4d e4          	movsxd rcx,DWORD PTR [rbp-0x1c]
  401c56:	48 6b c9 48          	imul   rcx,rcx,0x48
  401c5a:	48 01 c8             	add    rax,rcx
  401c5d:	48 8b 40 18          	mov    rax,QWORD PTR [rax+0x18]
  401c61:	83 78 60 00          	cmp    DWORD PTR [rax+0x60],0x0
  401c65:	0f 8f 74 00 00 00    	jg     401cdf <flow_org_cost+0x1ff>
  401c6b:	48 8b 45 f0          	mov    rax,QWORD PTR [rbp-0x10]
  401c6f:	48 63 4d e4          	movsxd rcx,DWORD PTR [rbp-0x1c]
  401c73:	48 6b c9 48          	imul   rcx,rcx,0x48
  401c77:	48 01 c8             	add    rax,rcx
  401c7a:	48 8b 40 10          	mov    rax,QWORD PTR [rax+0x10]
  401c7e:	83 78 60 00          	cmp    DWORD PTR [rax+0x60],0x0
  401c82:	0f 85 37 00 00 00    	jne    401cbf <flow_org_cost+0x1df>
  401c88:	48 8b 45 f0          	mov    rax,QWORD PTR [rbp-0x10]
  401c8c:	48 63 4d e4          	movsxd rcx,DWORD PTR [rbp-0x1c]
  401c90:	48 6b c9 48          	imul   rcx,rcx,0x48
  401c94:	48 01 c8             	add    rax,rcx
  401c97:	48 8b 40 40          	mov    rax,QWORD PTR [rax+0x40]
  401c9b:	48 8b 4d f8          	mov    rcx,QWORD PTR [rbp-0x8]
  401c9f:	48 2b 81 10 02 00 00 	sub    rax,QWORD PTR [rcx+0x210]
  401ca6:	48 03 45 d0          	add    rax,QWORD PTR [rbp-0x30]
  401caa:	48 89 45 d0          	mov    QWORD PTR [rbp-0x30],rax
  401cae:	48 8b 45 d8          	mov    rax,QWORD PTR [rbp-0x28]
  401cb2:	48 83 c0 01          	add    rax,0x1
  401cb6:	48 89 45 d8          	mov    QWORD PTR [rbp-0x28],rax
  401cba:	e9 1b 00 00 00       	jmp    401cda <flow_org_cost+0x1fa>
  401cbf:	48 8b 45 f0          	mov    rax,QWORD PTR [rbp-0x10]
  401cc3:	48 63 4d e4          	movsxd rcx,DWORD PTR [rbp-0x1c]
  401cc7:	48 6b c9 48          	imul   rcx,rcx,0x48
  401ccb:	48 01 c8             	add    rax,rcx
  401cce:	48 8b 40 40          	mov    rax,QWORD PTR [rax+0x40]
  401cd2:	48 03 45 d0          	add    rax,QWORD PTR [rbp-0x30]
  401cd6:	48 89 45 d0          	mov    QWORD PTR [rbp-0x30],rax
  401cda:	e9 00 00 00 00       	jmp    401cdf <flow_org_cost+0x1ff>
  401cdf:	e9 00 00 00 00       	jmp    401ce4 <flow_org_cost+0x204>
  401ce4:	e9 00 00 00 00       	jmp    401ce9 <flow_org_cost+0x209>
  401ce9:	8b 45 e4             	mov    eax,DWORD PTR [rbp-0x1c]
  401cec:	83 c0 01             	add    eax,0x1
  401cef:	89 45 e4             	mov    DWORD PTR [rbp-0x1c],eax
  401cf2:	e9 0b ff ff ff       	jmp    401c02 <flow_org_cost+0x122>
  401cf7:	48 8b 45 d8          	mov    rax,QWORD PTR [rbp-0x28]
  401cfb:	f2 48 0f 2a c0       	cvtsi2sd xmm0,rax
  401d00:	48 8b 45 f8          	mov    rax,QWORD PTR [rbp-0x8]
  401d04:	48 8b 80 10 02 00 00 	mov    rax,QWORD PTR [rax+0x210]
  401d0b:	f2 48 0f 2a c8       	cvtsi2sd xmm1,rax
  401d10:	f2 0f 59 c1          	mulsd  xmm0,xmm1
  401d14:	48 8b 45 d0          	mov    rax,QWORD PTR [rbp-0x30]
  401d18:	f2 48 0f 2a c8       	cvtsi2sd xmm1,rax
  401d1d:	f2 0f 58 c1          	addsd  xmm0,xmm1
  401d21:	48 bf 2a 82 40 00 00 	movabs rdi,0x40822a
  401d28:	00 00 00 
  401d2b:	b0 01                	mov    al,0x1
  401d2d:	e8 2e f3 ff ff       	call   401060 <printf@plt>
  401d32:	48 8b 7d d8          	mov    rdi,QWORD PTR [rbp-0x28]
  401d36:	f2 48 0f 2a c7       	cvtsi2sd xmm0,rdi
  401d3b:	48 8b 7d f8          	mov    rdi,QWORD PTR [rbp-0x8]
  401d3f:	48 8b bf 10 02 00 00 	mov    rdi,QWORD PTR [rdi+0x210]
  401d46:	f2 48 0f 2a cf       	cvtsi2sd xmm1,rdi
  401d4b:	f2 0f 59 c1          	mulsd  xmm0,xmm1
  401d4f:	48 8b 7d d0          	mov    rdi,QWORD PTR [rbp-0x30]
  401d53:	f2 48 0f 2a cf       	cvtsi2sd xmm1,rdi
  401d58:	f2 0f 58 c1          	addsd  xmm0,xmm1
  401d5c:	89 45 cc             	mov    DWORD PTR [rbp-0x34],eax
  401d5f:	48 83 c4 40          	add    rsp,0x40
  401d63:	5d                   	pop    rbp
  401d64:	c3                   	ret    
  401d65:	66 2e 0f 1f 84 00 00 	cs nop WORD PTR [rax+rax*1+0x0]
  401d6c:	00 00 00 
  401d6f:	90                   	nop

0000000000401d70 <primal_feasible>:
  401d70:	55                   	push   rbp
  401d71:	48 89 e5             	mov    rbp,rsp
  401d74:	48 83 ec 60          	sub    rsp,0x60
  401d78:	48 89 7d f0          	mov    QWORD PTR [rbp-0x10],rdi
  401d7c:	48 8b 7d f0          	mov    rdi,QWORD PTR [rbp-0x10]
  401d80:	48 8b bf 50 02 00 00 	mov    rdi,QWORD PTR [rdi+0x250]
  401d87:	48 89 7d d8          	mov    QWORD PTR [rbp-0x28],rdi
  401d8b:	48 8b 7d f0          	mov    rdi,QWORD PTR [rbp-0x10]
  401d8f:	48 8b bf 58 02 00 00 	mov    rdi,QWORD PTR [rdi+0x258]
  401d96:	48 89 7d d0          	mov    QWORD PTR [rbp-0x30],rdi
  401d9a:	48 8b 7d f0          	mov    rdi,QWORD PTR [rbp-0x10]
  401d9e:	48 8b bf 28 02 00 00 	mov    rdi,QWORD PTR [rdi+0x228]
  401da5:	48 89 7d e0          	mov    QWORD PTR [rbp-0x20],rdi
  401da9:	48 8b 7d f0          	mov    rdi,QWORD PTR [rbp-0x10]
  401dad:	48 8b bf 30 02 00 00 	mov    rdi,QWORD PTR [rdi+0x230]
  401db4:	48 89 7d e8          	mov    QWORD PTR [rbp-0x18],rdi
  401db8:	48 8b 7d e0          	mov    rdi,QWORD PTR [rbp-0x20]
  401dbc:	48 83 c7 68          	add    rdi,0x68
  401dc0:	48 89 7d e0          	mov    QWORD PTR [rbp-0x20],rdi
  401dc4:	48 8b 45 e0          	mov    rax,QWORD PTR [rbp-0x20]
  401dc8:	48 8b 4d e8          	mov    rcx,QWORD PTR [rbp-0x18]
  401dcc:	48 39 c8             	cmp    rax,rcx
  401dcf:	0f 83 3d 01 00 00    	jae    401f12 <primal_feasible+0x1a2>
  401dd5:	48 8b 45 e0          	mov    rax,QWORD PTR [rbp-0x20]
  401dd9:	48 8b 40 30          	mov    rax,QWORD PTR [rax+0x30]
  401ddd:	48 89 45 c8          	mov    QWORD PTR [rbp-0x38],rax
  401de1:	48 8b 45 e0          	mov    rax,QWORD PTR [rbp-0x20]
  401de5:	48 8b 40 50          	mov    rax,QWORD PTR [rax+0x50]
  401de9:	48 89 45 c0          	mov    QWORD PTR [rbp-0x40],rax
  401ded:	48 8b 45 c8          	mov    rax,QWORD PTR [rbp-0x38]
  401df1:	48 3b 45 d8          	cmp    rax,QWORD PTR [rbp-0x28]
  401df5:	0f 82 7f 00 00 00    	jb     401e7a <primal_feasible+0x10a>
  401dfb:	48 8b 45 c8          	mov    rax,QWORD PTR [rbp-0x38]
  401dff:	48 3b 45 d0          	cmp    rax,QWORD PTR [rbp-0x30]
  401e03:	0f 83 71 00 00 00    	jae    401e7a <primal_feasible+0x10a>
  401e09:	48 83 7d c0 00       	cmp    QWORD PTR [rbp-0x40],0x0
  401e0e:	0f 8c 0d 00 00 00    	jl     401e21 <primal_feasible+0xb1>
  401e14:	48 8b 45 c0          	mov    rax,QWORD PTR [rbp-0x40]
  401e18:	48 89 45 b8          	mov    QWORD PTR [rbp-0x48],rax
  401e1c:	e9 0c 00 00 00       	jmp    401e2d <primal_feasible+0xbd>
  401e21:	31 c0                	xor    eax,eax
  401e23:	89 c1                	mov    ecx,eax
  401e25:	48 2b 4d c0          	sub    rcx,QWORD PTR [rbp-0x40]
  401e29:	48 89 4d b8          	mov    QWORD PTR [rbp-0x48],rcx
  401e2d:	48 8b 45 b8          	mov    rax,QWORD PTR [rbp-0x48]
  401e31:	48 8b 4d f0          	mov    rcx,QWORD PTR [rbp-0x10]
  401e35:	48 3b 81 00 02 00 00 	cmp    rax,QWORD PTR [rcx+0x200]
  401e3c:	0f 8e 33 00 00 00    	jle    401e75 <primal_feasible+0x105>
  401e42:	48 bf 37 82 40 00 00 	movabs rdi,0x408237
  401e49:	00 00 00 
  401e4c:	b0 00                	mov    al,0x0
  401e4e:	e8 0d f2 ff ff       	call   401060 <printf@plt>
  401e53:	48 8b 7d e0          	mov    rdi,QWORD PTR [rbp-0x20]
  401e57:	8b 77 60             	mov    esi,DWORD PTR [rdi+0x60]
  401e5a:	48 8b 55 c0          	mov    rdx,QWORD PTR [rbp-0x40]
  401e5e:	48 bf 50 82 40 00 00 	movabs rdi,0x408250
  401e65:	00 00 00 
  401e68:	89 45 b4             	mov    DWORD PTR [rbp-0x4c],eax
  401e6b:	b0 00                	mov    al,0x0
  401e6d:	e8 ee f1 ff ff       	call   401060 <printf@plt>
  401e72:	89 45 b0             	mov    DWORD PTR [rbp-0x50],eax
  401e75:	e9 82 00 00 00       	jmp    401efc <primal_feasible+0x18c>
  401e7a:	31 c0                	xor    eax,eax
  401e7c:	89 c1                	mov    ecx,eax
  401e7e:	48 8b 55 c0          	mov    rdx,QWORD PTR [rbp-0x40]
  401e82:	48 8b 75 f0          	mov    rsi,QWORD PTR [rbp-0x10]
  401e86:	48 2b 8e 00 02 00 00 	sub    rcx,QWORD PTR [rsi+0x200]
  401e8d:	48 39 ca             	cmp    rdx,rcx
  401e90:	0f 8c 19 00 00 00    	jl     401eaf <primal_feasible+0x13f>
  401e96:	48 8b 45 c0          	mov    rax,QWORD PTR [rbp-0x40]
  401e9a:	48 83 e8 01          	sub    rax,0x1
  401e9e:	48 8b 4d f0          	mov    rcx,QWORD PTR [rbp-0x10]
  401ea2:	48 3b 81 00 02 00 00 	cmp    rax,QWORD PTR [rcx+0x200]
  401ea9:	0f 8e 48 00 00 00    	jle    401ef7 <primal_feasible+0x187>
  401eaf:	48 bf 37 82 40 00 00 	movabs rdi,0x408237
  401eb6:	00 00 00 
  401eb9:	b0 00                	mov    al,0x0
  401ebb:	e8 a0 f1 ff ff       	call   401060 <printf@plt>
  401ec0:	48 8b 75 c0          	mov    rsi,QWORD PTR [rbp-0x40]
  401ec4:	48 bf 81 82 40 00 00 	movabs rdi,0x408281
  401ecb:	00 00 00 
  401ece:	89 45 ac             	mov    DWORD PTR [rbp-0x54],eax
  401ed1:	b0 00                	mov    al,0x0
  401ed3:	e8 88 f1 ff ff       	call   401060 <printf@plt>
  401ed8:	48 8b 75 f0          	mov    rsi,QWORD PTR [rbp-0x10]
  401edc:	48 c7 86 e8 01 00 00 	mov    QWORD PTR [rsi+0x1e8],0x0
  401ee3:	00 00 00 00 
  401ee7:	48 c7 45 f8 01 00 00 	mov    QWORD PTR [rbp-0x8],0x1
  401eee:	00 
  401eef:	89 45 a8             	mov    DWORD PTR [rbp-0x58],eax
  401ef2:	e9 32 00 00 00       	jmp    401f29 <primal_feasible+0x1b9>
  401ef7:	e9 00 00 00 00       	jmp    401efc <primal_feasible+0x18c>
  401efc:	e9 00 00 00 00       	jmp    401f01 <primal_feasible+0x191>
  401f01:	48 8b 45 e0          	mov    rax,QWORD PTR [rbp-0x20]
  401f05:	48 83 c0 68          	add    rax,0x68
  401f09:	48 89 45 e0          	mov    QWORD PTR [rbp-0x20],rax
  401f0d:	e9 b2 fe ff ff       	jmp    401dc4 <primal_feasible+0x54>
  401f12:	48 8b 45 f0          	mov    rax,QWORD PTR [rbp-0x10]
  401f16:	48 c7 80 e8 01 00 00 	mov    QWORD PTR [rax+0x1e8],0x1
  401f1d:	01 00 00 00 
  401f21:	48 c7 45 f8 00 00 00 	mov    QWORD PTR [rbp-0x8],0x0
  401f28:	00 
  401f29:	48 8b 45 f8          	mov    rax,QWORD PTR [rbp-0x8]
  401f2d:	48 83 c4 60          	add    rsp,0x60
  401f31:	5d                   	pop    rbp
  401f32:	c3                   	ret    
  401f33:	66 2e 0f 1f 84 00 00 	cs nop WORD PTR [rax+rax*1+0x0]
  401f3a:	00 00 00 
  401f3d:	0f 1f 00             	nop    DWORD PTR [rax]

0000000000401f40 <dual_feasible>:
  401f40:	55                   	push   rbp
  401f41:	48 89 e5             	mov    rbp,rsp
  401f44:	48 83 ec 50          	sub    rsp,0x50
  401f48:	48 89 7d f0          	mov    QWORD PTR [rbp-0x10],rdi
  401f4c:	48 8b 7d f0          	mov    rdi,QWORD PTR [rbp-0x10]
  401f50:	48 8b bf 40 02 00 00 	mov    rdi,QWORD PTR [rdi+0x240]
  401f57:	48 89 7d e0          	mov    QWORD PTR [rbp-0x20],rdi
  401f5b:	48 c7 45 d0 00 00 00 	mov    QWORD PTR [rbp-0x30],0x0
  401f62:	00 
  401f63:	48 c7 45 d0 00 00 00 	mov    QWORD PTR [rbp-0x30],0x0
  401f6a:	00 
  401f6b:	48 8b 7d f0          	mov    rdi,QWORD PTR [rbp-0x10]
  401f6f:	48 8b bf 38 02 00 00 	mov    rdi,QWORD PTR [rdi+0x238]
  401f76:	48 89 7d e8          	mov    QWORD PTR [rbp-0x18],rdi
  401f7a:	48 8b 45 e8          	mov    rax,QWORD PTR [rbp-0x18]
  401f7e:	48 3b 45 e0          	cmp    rax,QWORD PTR [rbp-0x20]
  401f82:	0f 83 d7 00 00 00    	jae    40205f <dual_feasible+0x11f>
  401f88:	48 8b 45 e8          	mov    rax,QWORD PTR [rbp-0x18]
  401f8c:	48 8b 48 08          	mov    rcx,QWORD PTR [rax+0x8]
  401f90:	48 8b 50 10          	mov    rdx,QWORD PTR [rax+0x10]
  401f94:	48 8b 12             	mov    rdx,QWORD PTR [rdx]
  401f97:	48 29 d1             	sub    rcx,rdx
  401f9a:	48 8b 40 18          	mov    rax,QWORD PTR [rax+0x18]
  401f9e:	48 8b 00             	mov    rax,QWORD PTR [rax]
  401fa1:	48 01 c1             	add    rcx,rax
  401fa4:	48 89 4d d8          	mov    QWORD PTR [rbp-0x28],rcx
  401fa8:	48 8b 45 e8          	mov    rax,QWORD PTR [rbp-0x18]
  401fac:	0f bf 70 20          	movsx  esi,WORD PTR [rax+0x20]
  401fb0:	89 f7                	mov    edi,esi
  401fb2:	83 ef ff             	sub    edi,0xffffffff
  401fb5:	89 75 cc             	mov    DWORD PTR [rbp-0x34],esi
  401fb8:	89 7d c8             	mov    DWORD PTR [rbp-0x38],edi
  401fbb:	0f 84 72 00 00 00    	je     402033 <dual_feasible+0xf3>
  401fc1:	e9 00 00 00 00       	jmp    401fc6 <dual_feasible+0x86>
  401fc6:	8b 45 cc             	mov    eax,DWORD PTR [rbp-0x34]
  401fc9:	83 e8 02             	sub    eax,0x2
  401fcc:	89 45 c4             	mov    DWORD PTR [rbp-0x3c],eax
  401fcf:	0f 82 19 00 00 00    	jb     401fee <dual_feasible+0xae>
  401fd5:	e9 00 00 00 00       	jmp    401fda <dual_feasible+0x9a>
  401fda:	8b 45 cc             	mov    eax,DWORD PTR [rbp-0x34]
  401fdd:	83 e8 02             	sub    eax,0x2
  401fe0:	89 45 c0             	mov    DWORD PTR [rbp-0x40],eax
  401fe3:	0f 84 2b 00 00 00    	je     402014 <dual_feasible+0xd4>
  401fe9:	e9 4a 00 00 00       	jmp    402038 <dual_feasible+0xf8>
  401fee:	31 c0                	xor    eax,eax
  401ff0:	89 c1                	mov    ecx,eax
  401ff2:	48 8b 55 d8          	mov    rdx,QWORD PTR [rbp-0x28]
  401ff6:	48 8b 75 f0          	mov    rsi,QWORD PTR [rbp-0x10]
  401ffa:	48 2b 8e 00 02 00 00 	sub    rcx,QWORD PTR [rsi+0x200]
  402001:	48 39 ca             	cmp    rdx,rcx
  402004:	0f 8d 05 00 00 00    	jge    40200f <dual_feasible+0xcf>
  40200a:	e9 5d 00 00 00       	jmp    40206c <dual_feasible+0x12c>
  40200f:	e9 29 00 00 00       	jmp    40203d <dual_feasible+0xfd>
  402014:	48 8b 45 d8          	mov    rax,QWORD PTR [rbp-0x28]
  402018:	48 8b 4d f0          	mov    rcx,QWORD PTR [rbp-0x10]
  40201c:	48 3b 81 00 02 00 00 	cmp    rax,QWORD PTR [rcx+0x200]
  402023:	0f 8e 05 00 00 00    	jle    40202e <dual_feasible+0xee>
  402029:	e9 3e 00 00 00       	jmp    40206c <dual_feasible+0x12c>
  40202e:	e9 0a 00 00 00       	jmp    40203d <dual_feasible+0xfd>
  402033:	e9 00 00 00 00       	jmp    402038 <dual_feasible+0xf8>
  402038:	e9 00 00 00 00       	jmp    40203d <dual_feasible+0xfd>
  40203d:	e9 00 00 00 00       	jmp    402042 <dual_feasible+0x102>
  402042:	48 8b 45 e8          	mov    rax,QWORD PTR [rbp-0x18]
  402046:	48 83 c0 48          	add    rax,0x48
  40204a:	48 89 45 e8          	mov    QWORD PTR [rbp-0x18],rax
  40204e:	48 8b 45 d0          	mov    rax,QWORD PTR [rbp-0x30]
  402052:	48 83 c0 01          	add    rax,0x1
  402056:	48 89 45 d0          	mov    QWORD PTR [rbp-0x30],rax
  40205a:	e9 1b ff ff ff       	jmp    401f7a <dual_feasible+0x3a>
  40205f:	48 c7 45 f8 00 00 00 	mov    QWORD PTR [rbp-0x8],0x0
  402066:	00 
  402067:	e9 40 00 00 00       	jmp    4020ac <dual_feasible+0x16c>
  40206c:	48 8b 3c 25 e0 a0 40 	mov    rdi,QWORD PTR ds:0x40a0e0
  402073:	00 
  402074:	48 be a0 82 40 00 00 	movabs rsi,0x4082a0
  40207b:	00 00 00 
  40207e:	b0 00                	mov    al,0x0
  402080:	e8 1b f0 ff ff       	call   4010a0 <fprintf@plt>
  402085:	48 8b 3c 25 e0 a0 40 	mov    rdi,QWORD PTR ds:0x40a0e0
  40208c:	00 
  40208d:	48 be b7 82 40 00 00 	movabs rsi,0x4082b7
  402094:	00 00 00 
  402097:	89 45 bc             	mov    DWORD PTR [rbp-0x44],eax
  40209a:	b0 00                	mov    al,0x0
  40209c:	e8 ff ef ff ff       	call   4010a0 <fprintf@plt>
  4020a1:	48 c7 45 f8 01 00 00 	mov    QWORD PTR [rbp-0x8],0x1
  4020a8:	00 
  4020a9:	89 45 b8             	mov    DWORD PTR [rbp-0x48],eax
  4020ac:	48 8b 45 f8          	mov    rax,QWORD PTR [rbp-0x8]
  4020b0:	48 83 c4 50          	add    rsp,0x50
  4020b4:	5d                   	pop    rbp
  4020b5:	c3                   	ret    
  4020b6:	66 2e 0f 1f 84 00 00 	cs nop WORD PTR [rax+rax*1+0x0]
  4020bd:	00 00 00 

00000000004020c0 <getfree>:
  4020c0:	55                   	push   rbp
  4020c1:	48 89 e5             	mov    rbp,rsp
  4020c4:	48 83 ec 10          	sub    rsp,0x10
  4020c8:	48 89 7d f8          	mov    QWORD PTR [rbp-0x8],rdi
  4020cc:	48 8b 7d f8          	mov    rdi,QWORD PTR [rbp-0x8]
  4020d0:	48 83 bf 28 02 00 00 	cmp    QWORD PTR [rdi+0x228],0x0
  4020d7:	00 
  4020d8:	0f 84 13 00 00 00    	je     4020f1 <getfree+0x31>
  4020de:	48 8b 45 f8          	mov    rax,QWORD PTR [rbp-0x8]
  4020e2:	48 8b 80 28 02 00 00 	mov    rax,QWORD PTR [rax+0x228]
  4020e9:	48 89 c7             	mov    rdi,rax
  4020ec:	e8 3f ef ff ff       	call   401030 <free@plt>
  4020f1:	48 8b 45 f8          	mov    rax,QWORD PTR [rbp-0x8]
  4020f5:	48 83 b8 38 02 00 00 	cmp    QWORD PTR [rax+0x238],0x0
  4020fc:	00 
  4020fd:	0f 84 13 00 00 00    	je     402116 <getfree+0x56>
  402103:	48 8b 45 f8          	mov    rax,QWORD PTR [rbp-0x8]
  402107:	48 8b 80 38 02 00 00 	mov    rax,QWORD PTR [rax+0x238]
  40210e:	48 89 c7             	mov    rdi,rax
  402111:	e8 1a ef ff ff       	call   401030 <free@plt>
  402116:	48 8b 45 f8          	mov    rax,QWORD PTR [rbp-0x8]
  40211a:	48 83 b8 50 02 00 00 	cmp    QWORD PTR [rax+0x250],0x0
  402121:	00 
  402122:	0f 84 13 00 00 00    	je     40213b <getfree+0x7b>
  402128:	48 8b 45 f8          	mov    rax,QWORD PTR [rbp-0x8]
  40212c:	48 8b 80 50 02 00 00 	mov    rax,QWORD PTR [rax+0x250]
  402133:	48 89 c7             	mov    rdi,rax
  402136:	e8 f5 ee ff ff       	call   401030 <free@plt>
  40213b:	48 8b 45 f8          	mov    rax,QWORD PTR [rbp-0x8]
  40213f:	48 83 b8 48 02 00 00 	cmp    QWORD PTR [rax+0x248],0x0
  402146:	00 
  402147:	0f 84 13 00 00 00    	je     402160 <getfree+0xa0>
  40214d:	48 8b 45 f8          	mov    rax,QWORD PTR [rbp-0x8]
  402151:	48 8b 80 48 02 00 00 	mov    rax,QWORD PTR [rax+0x248]
  402158:	48 89 c7             	mov    rdi,rax
  40215b:	e8 d0 ee ff ff       	call   401030 <free@plt>
  402160:	31 c0                	xor    eax,eax
  402162:	48 8b 4d f8          	mov    rcx,QWORD PTR [rbp-0x8]
  402166:	48 c7 81 30 02 00 00 	mov    QWORD PTR [rcx+0x230],0x0
  40216d:	00 00 00 00 
  402171:	48 8b 4d f8          	mov    rcx,QWORD PTR [rbp-0x8]
  402175:	48 c7 81 28 02 00 00 	mov    QWORD PTR [rcx+0x228],0x0
  40217c:	00 00 00 00 
  402180:	48 8b 4d f8          	mov    rcx,QWORD PTR [rbp-0x8]
  402184:	48 c7 81 40 02 00 00 	mov    QWORD PTR [rcx+0x240],0x0
  40218b:	00 00 00 00 
  40218f:	48 8b 4d f8          	mov    rcx,QWORD PTR [rbp-0x8]
  402193:	48 c7 81 38 02 00 00 	mov    QWORD PTR [rcx+0x238],0x0
  40219a:	00 00 00 00 
  40219e:	48 8b 4d f8          	mov    rcx,QWORD PTR [rbp-0x8]
  4021a2:	48 c7 81 58 02 00 00 	mov    QWORD PTR [rcx+0x258],0x0
  4021a9:	00 00 00 00 
  4021ad:	48 8b 4d f8          	mov    rcx,QWORD PTR [rbp-0x8]
  4021b1:	48 c7 81 50 02 00 00 	mov    QWORD PTR [rcx+0x250],0x0
  4021b8:	00 00 00 00 
  4021bc:	48 8b 4d f8          	mov    rcx,QWORD PTR [rbp-0x8]
  4021c0:	48 c7 81 48 02 00 00 	mov    QWORD PTR [rcx+0x248],0x0
  4021c7:	00 00 00 00 
  4021cb:	48 83 c4 10          	add    rsp,0x10
  4021cf:	5d                   	pop    rbp
  4021d0:	c3                   	ret    
  4021d1:	66 2e 0f 1f 84 00 00 	cs nop WORD PTR [rax+rax*1+0x0]
  4021d8:	00 00 00 
  4021db:	0f 1f 44 00 00       	nop    DWORD PTR [rax+rax*1+0x0]

00000000004021e0 <read_min>:
  4021e0:	55                   	push   rbp
  4021e1:	48 89 e5             	mov    rbp,rsp
  4021e4:	48 81 ec b0 01 00 00 	sub    rsp,0x1b0
  4021eb:	48 89 7d f0          	mov    QWORD PTR [rbp-0x10],rdi
  4021ef:	48 c7 45 e8 00 00 00 	mov    QWORD PTR [rbp-0x18],0x0
  4021f6:	00 
  4021f7:	48 c7 85 e8 fe ff ff 	mov    QWORD PTR [rbp-0x118],0x0
  4021fe:	00 00 00 00 
  402202:	48 8b 7d f0          	mov    rdi,QWORD PTR [rbp-0x10]
  402206:	48 be d8 82 40 00 00 	movabs rsi,0x4082d8
  40220d:	00 00 00 
  402210:	e8 eb ee ff ff       	call   401100 <fopen@plt>
  402215:	48 89 45 e8          	mov    QWORD PTR [rbp-0x18],rax
  402219:	48 83 f8 00          	cmp    rax,0x0
  40221d:	0f 85 0d 00 00 00    	jne    402230 <read_min+0x50>
  402223:	48 c7 45 f8 ff ff ff 	mov    QWORD PTR [rbp-0x8],0xffffffffffffffff
  40222a:	ff 
  40222b:	e9 8d 0d 00 00       	jmp    402fbd <read_min+0xddd>
  402230:	48 8d bd 10 ff ff ff 	lea    rdi,[rbp-0xf0]
  402237:	48 8b 55 e8          	mov    rdx,QWORD PTR [rbp-0x18]
  40223b:	be c8 00 00 00       	mov    esi,0xc8
  402240:	e8 3b ee ff ff       	call   401080 <fgets@plt>
  402245:	48 8d bd 10 ff ff ff 	lea    rdi,[rbp-0xf0]
  40224c:	48 be fd 82 40 00 00 	movabs rsi,0x4082fd
  402253:	00 00 00 
  402256:	48 8d 95 08 ff ff ff 	lea    rdx,[rbp-0xf8]
  40225d:	48 8d 8d 00 ff ff ff 	lea    rcx,[rbp-0x100]
  402264:	48 89 85 d0 fe ff ff 	mov    QWORD PTR [rbp-0x130],rax
  40226b:	b0 00                	mov    al,0x0
  40226d:	e8 6e ee ff ff       	call   4010e0 <__isoc99_sscanf@plt>
  402272:	83 f8 02             	cmp    eax,0x2
  402275:	0f 84 0d 00 00 00    	je     402288 <read_min+0xa8>
  40227b:	48 c7 45 f8 ff ff ff 	mov    QWORD PTR [rbp-0x8],0xffffffffffffffff
  402282:	ff 
  402283:	e9 35 0d 00 00       	jmp    402fbd <read_min+0xddd>
  402288:	b8 a0 0f 00 00       	mov    eax,0xfa0
  40228d:	89 c1                	mov    ecx,eax
  40228f:	48 8b 95 08 ff ff ff 	mov    rdx,QWORD PTR [rbp-0xf8]
  402296:	48 8b 75 f0          	mov    rsi,QWORD PTR [rbp-0x10]
  40229a:	48 89 96 98 01 00 00 	mov    QWORD PTR [rsi+0x198],rdx
  4022a1:	48 8b 95 00 ff ff ff 	mov    rdx,QWORD PTR [rbp-0x100]
  4022a8:	48 8b 75 f0          	mov    rsi,QWORD PTR [rbp-0x10]
  4022ac:	48 89 96 b0 01 00 00 	mov    QWORD PTR [rsi+0x1b0],rdx
  4022b3:	48 8b 95 08 ff ff ff 	mov    rdx,QWORD PTR [rbp-0xf8]
  4022ba:	48 03 95 08 ff ff ff 	add    rdx,QWORD PTR [rbp-0xf8]
  4022c1:	48 83 c2 01          	add    rdx,0x1
  4022c5:	48 8b 75 f0          	mov    rsi,QWORD PTR [rbp-0x10]
  4022c9:	48 89 96 90 01 00 00 	mov    QWORD PTR [rsi+0x190],rdx
  4022d0:	48 8b 95 08 ff ff ff 	mov    rdx,QWORD PTR [rbp-0xf8]
  4022d7:	48 03 95 08 ff ff ff 	add    rdx,QWORD PTR [rbp-0xf8]
  4022de:	48 03 95 08 ff ff ff 	add    rdx,QWORD PTR [rbp-0xf8]
  4022e5:	48 03 95 00 ff ff ff 	add    rdx,QWORD PTR [rbp-0x100]
  4022ec:	48 8b 75 f0          	mov    rsi,QWORD PTR [rbp-0x10]
  4022f0:	48 89 96 a8 01 00 00 	mov    QWORD PTR [rsi+0x1a8],rdx
  4022f7:	48 8b 55 f0          	mov    rdx,QWORD PTR [rbp-0x10]
  4022fb:	48 c7 82 80 02 00 00 	mov    QWORD PTR [rdx+0x280],0xfa0
  402302:	a0 0f 00 00 
  402306:	48 8b 55 f0          	mov    rdx,QWORD PTR [rbp-0x10]
  40230a:	48 8b 92 a8 01 00 00 	mov    rdx,QWORD PTR [rdx+0x1a8]
  402311:	48 83 ea 01          	sub    rdx,0x1
  402315:	48 89 d0             	mov    rax,rdx
  402318:	48 99                	cqo    
  40231a:	48 f7 f9             	idiv   rcx
  40231d:	48 83 c0 01          	add    rax,0x1
  402321:	48 8b 75 f0          	mov    rsi,QWORD PTR [rbp-0x10]
  402325:	48 89 86 70 02 00 00 	mov    QWORD PTR [rsi+0x270],rax
  40232c:	48 8b 45 f0          	mov    rax,QWORD PTR [rbp-0x10]
  402330:	48 8b 80 a8 01 00 00 	mov    rax,QWORD PTR [rax+0x1a8]
  402337:	48 99                	cqo    
  402339:	48 f7 f9             	idiv   rcx
  40233c:	48 83 fa 00          	cmp    rdx,0x0
  402340:	0f 84 46 00 00 00    	je     40238c <read_min+0x1ac>
  402346:	b8 a0 0f 00 00       	mov    eax,0xfa0
  40234b:	89 c1                	mov    ecx,eax
  40234d:	48 8b 55 f0          	mov    rdx,QWORD PTR [rbp-0x10]
  402351:	48 8b 92 70 02 00 00 	mov    rdx,QWORD PTR [rdx+0x270]
  402358:	48 8b 75 f0          	mov    rsi,QWORD PTR [rbp-0x10]
  40235c:	48 8b 86 a8 01 00 00 	mov    rax,QWORD PTR [rsi+0x1a8]
  402363:	48 89 95 c8 fe ff ff 	mov    QWORD PTR [rbp-0x138],rdx
  40236a:	48 99                	cqo    
  40236c:	48 f7 f9             	idiv   rcx
  40236f:	48 29 d1             	sub    rcx,rdx
  402372:	48 8b 95 c8 fe ff ff 	mov    rdx,QWORD PTR [rbp-0x138]
  402379:	48 29 ca             	sub    rdx,rcx
  40237c:	48 8b 4d f0          	mov    rcx,QWORD PTR [rbp-0x10]
  402380:	48 89 91 78 02 00 00 	mov    QWORD PTR [rcx+0x278],rdx
  402387:	e9 16 00 00 00       	jmp    4023a2 <read_min+0x1c2>
  40238c:	48 8b 45 f0          	mov    rax,QWORD PTR [rbp-0x10]
  402390:	48 8b 80 70 02 00 00 	mov    rax,QWORD PTR [rax+0x270]
  402397:	48 8b 4d f0          	mov    rcx,QWORD PTR [rbp-0x10]
  40239b:	48 89 81 78 02 00 00 	mov    QWORD PTR [rcx+0x278],rax
  4023a2:	e9 00 00 00 00       	jmp    4023a7 <read_min+0x1c7>
  4023a7:	48 8b 45 f0          	mov    rax,QWORD PTR [rbp-0x10]
  4023ab:	48 83 b8 78 02 00 00 	cmp    QWORD PTR [rax+0x278],0x0
  4023b2:	00 
  4023b3:	0f 8d 3c 00 00 00    	jge    4023f5 <read_min+0x215>
  4023b9:	48 8b 45 f0          	mov    rax,QWORD PTR [rbp-0x10]
  4023bd:	48 8b 80 70 02 00 00 	mov    rax,QWORD PTR [rax+0x270]
  4023c4:	48 8b 4d f0          	mov    rcx,QWORD PTR [rbp-0x10]
  4023c8:	48 03 81 78 02 00 00 	add    rax,QWORD PTR [rcx+0x278]
  4023cf:	48 8b 4d f0          	mov    rcx,QWORD PTR [rbp-0x10]
  4023d3:	48 89 81 78 02 00 00 	mov    QWORD PTR [rcx+0x278],rax
  4023da:	48 8b 45 f0          	mov    rax,QWORD PTR [rbp-0x10]
  4023de:	48 8b 88 80 02 00 00 	mov    rcx,QWORD PTR [rax+0x280]
  4023e5:	48 83 c1 ff          	add    rcx,0xffffffffffffffff
  4023e9:	48 89 88 80 02 00 00 	mov    QWORD PTR [rax+0x280],rcx
  4023f0:	e9 b2 ff ff ff       	jmp    4023a7 <read_min+0x1c7>
  4023f5:	48 8b 45 f0          	mov    rax,QWORD PTR [rbp-0x10]
  4023f9:	48 81 b8 98 01 00 00 	cmp    QWORD PTR [rax+0x198],0x3a98
  402400:	98 3a 00 00 
  402404:	0f 8f 4b 00 00 00    	jg     402455 <read_min+0x275>
  40240a:	48 8b 45 f0          	mov    rax,QWORD PTR [rbp-0x10]
  40240e:	48 8b 80 a8 01 00 00 	mov    rax,QWORD PTR [rax+0x1a8]
  402415:	48 8b 4d f0          	mov    rcx,QWORD PTR [rbp-0x10]
  402419:	48 89 81 a0 01 00 00 	mov    QWORD PTR [rcx+0x1a0],rax
  402420:	48 8b 45 f0          	mov    rax,QWORD PTR [rbp-0x10]
  402424:	48 c7 80 c8 01 00 00 	mov    QWORD PTR [rax+0x1c8],0x1e8480
  40242b:	80 84 1e 00 
  40242f:	48 8b 45 f0          	mov    rax,QWORD PTR [rbp-0x10]
  402433:	48 8b 80 a0 01 00 00 	mov    rax,QWORD PTR [rax+0x1a0]
  40243a:	48 8b 4d f0          	mov    rcx,QWORD PTR [rbp-0x10]
  40243e:	48 2b 81 a8 01 00 00 	sub    rax,QWORD PTR [rcx+0x1a8]
  402445:	48 8b 4d f0          	mov    rcx,QWORD PTR [rbp-0x10]
  402449:	48 89 81 c0 01 00 00 	mov    QWORD PTR [rcx+0x1c0],rax
  402450:	e9 c3 00 00 00       	jmp    402518 <read_min+0x338>
  402455:	f2 0f 10 05 73 5e 00 	movsd  xmm0,QWORD PTR [rip+0x5e73]        # 4082d0 <_IO_stdin_used+0x2d0>
  40245c:	00 
  40245d:	48 8b 45 f0          	mov    rax,QWORD PTR [rbp-0x10]
  402461:	48 8b 80 a8 01 00 00 	mov    rax,QWORD PTR [rax+0x1a8]
  402468:	48 05 40 4b 4c 00    	add    rax,0x4c4b40
  40246e:	48 8b 4d f0          	mov    rcx,QWORD PTR [rbp-0x10]
  402472:	48 8b 89 a8 01 00 00 	mov    rcx,QWORD PTR [rcx+0x1a8]
  402479:	f2 48 0f 2a c9       	cvtsi2sd xmm1,rcx
  40247e:	0f 28 d0             	movaps xmm2,xmm0
  402481:	f2 0f 59 d1          	mulsd  xmm2,xmm1
  402485:	f2 48 0f 2c ca       	cvttsd2si rcx,xmm2
  40248a:	f2 48 0f 2a c9       	cvtsi2sd xmm1,rcx
  40248f:	f2 0f 59 c1          	mulsd  xmm0,xmm1
  402493:	f2 48 0f 2c c8       	cvttsd2si rcx,xmm0
  402498:	48 39 c8             	cmp    rax,rcx
  40249b:	0f 8e 1d 00 00 00    	jle    4024be <read_min+0x2de>
  4024a1:	48 8b 45 f0          	mov    rax,QWORD PTR [rbp-0x10]
  4024a5:	48 8b 80 a8 01 00 00 	mov    rax,QWORD PTR [rax+0x1a8]
  4024ac:	48 05 40 4b 4c 00    	add    rax,0x4c4b40
  4024b2:	48 89 85 c0 fe ff ff 	mov    QWORD PTR [rbp-0x140],rax
  4024b9:	e9 39 00 00 00       	jmp    4024f7 <read_min+0x317>
  4024be:	f2 0f 10 05 0a 5e 00 	movsd  xmm0,QWORD PTR [rip+0x5e0a]        # 4082d0 <_IO_stdin_used+0x2d0>
  4024c5:	00 
  4024c6:	48 8b 45 f0          	mov    rax,QWORD PTR [rbp-0x10]
  4024ca:	48 8b 80 a8 01 00 00 	mov    rax,QWORD PTR [rax+0x1a8]
  4024d1:	f2 48 0f 2a c8       	cvtsi2sd xmm1,rax
  4024d6:	0f 28 d0             	movaps xmm2,xmm0
  4024d9:	f2 0f 59 d1          	mulsd  xmm2,xmm1
  4024dd:	f2 48 0f 2c c2       	cvttsd2si rax,xmm2
  4024e2:	f2 48 0f 2a c8       	cvtsi2sd xmm1,rax
  4024e7:	f2 0f 59 c1          	mulsd  xmm0,xmm1
  4024eb:	f2 48 0f 2c c0       	cvttsd2si rax,xmm0
  4024f0:	48 89 85 c0 fe ff ff 	mov    QWORD PTR [rbp-0x140],rax
  4024f7:	48 8b 85 c0 fe ff ff 	mov    rax,QWORD PTR [rbp-0x140]
  4024fe:	48 8b 4d f0          	mov    rcx,QWORD PTR [rbp-0x10]
  402502:	48 89 81 a0 01 00 00 	mov    QWORD PTR [rcx+0x1a0],rax
  402509:	48 8b 45 f0          	mov    rax,QWORD PTR [rbp-0x10]
  40250d:	48 c7 80 c8 01 00 00 	mov    QWORD PTR [rax+0x1c8],0x1b8faa0
  402514:	a0 fa b8 01 
  402518:	b8 68 00 00 00       	mov    eax,0x68
  40251d:	89 c6                	mov    esi,eax
  40251f:	48 8b 4d f0          	mov    rcx,QWORD PTR [rbp-0x10]
  402523:	48 8b 89 90 01 00 00 	mov    rcx,QWORD PTR [rcx+0x190]
  40252a:	48 83 c1 01          	add    rcx,0x1
  40252e:	48 89 cf             	mov    rdi,rcx
  402531:	e8 5a eb ff ff       	call   401090 <calloc@plt>
  402536:	ba 48 00 00 00       	mov    edx,0x48
  40253b:	89 d6                	mov    esi,edx
  40253d:	48 8b 4d f0          	mov    rcx,QWORD PTR [rbp-0x10]
  402541:	48 89 81 28 02 00 00 	mov    QWORD PTR [rcx+0x228],rax
  402548:	48 8b 45 f0          	mov    rax,QWORD PTR [rbp-0x10]
  40254c:	48 8b b8 90 01 00 00 	mov    rdi,QWORD PTR [rax+0x190]
  402553:	e8 38 eb ff ff       	call   401090 <calloc@plt>
  402558:	ba 48 00 00 00       	mov    edx,0x48
  40255d:	89 d6                	mov    esi,edx
  40255f:	48 8b 4d f0          	mov    rcx,QWORD PTR [rbp-0x10]
  402563:	48 89 81 50 02 00 00 	mov    QWORD PTR [rcx+0x250],rax
  40256a:	48 8b 45 f0          	mov    rax,QWORD PTR [rbp-0x10]
  40256e:	48 8b b8 a0 01 00 00 	mov    rdi,QWORD PTR [rax+0x1a0]
  402575:	e8 16 eb ff ff       	call   401090 <calloc@plt>
  40257a:	ba 48 00 00 00       	mov    edx,0x48
  40257f:	89 d6                	mov    esi,edx
  402581:	48 8b 4d f0          	mov    rcx,QWORD PTR [rbp-0x10]
  402585:	48 89 81 48 02 00 00 	mov    QWORD PTR [rcx+0x248],rax
  40258c:	48 8b 45 f0          	mov    rax,QWORD PTR [rbp-0x10]
  402590:	48 8b b8 a0 01 00 00 	mov    rdi,QWORD PTR [rax+0x1a0]
  402597:	e8 f4 ea ff ff       	call   401090 <calloc@plt>
  40259c:	48 8b 4d f0          	mov    rcx,QWORD PTR [rbp-0x10]
  4025a0:	48 89 81 38 02 00 00 	mov    QWORD PTR [rcx+0x238],rax
  4025a7:	48 8b 45 f0          	mov    rax,QWORD PTR [rbp-0x10]
  4025ab:	48 83 b8 28 02 00 00 	cmp    QWORD PTR [rax+0x228],0x0
  4025b2:	00 
  4025b3:	0f 84 36 00 00 00    	je     4025ef <read_min+0x40f>
  4025b9:	48 8b 45 f0          	mov    rax,QWORD PTR [rbp-0x10]
  4025bd:	48 83 b8 38 02 00 00 	cmp    QWORD PTR [rax+0x238],0x0
  4025c4:	00 
  4025c5:	0f 84 24 00 00 00    	je     4025ef <read_min+0x40f>
  4025cb:	48 8b 45 f0          	mov    rax,QWORD PTR [rbp-0x10]
  4025cf:	48 83 b8 50 02 00 00 	cmp    QWORD PTR [rax+0x250],0x0
  4025d6:	00 
  4025d7:	0f 84 12 00 00 00    	je     4025ef <read_min+0x40f>
  4025dd:	48 8b 45 f0          	mov    rax,QWORD PTR [rbp-0x10]
  4025e1:	48 83 b8 48 02 00 00 	cmp    QWORD PTR [rax+0x248],0x0
  4025e8:	00 
  4025e9:	0f 85 34 00 00 00    	jne    402623 <read_min+0x443>
  4025ef:	48 bf da 82 40 00 00 	movabs rdi,0x4082da
  4025f6:	00 00 00 
  4025f9:	b0 00                	mov    al,0x0
  4025fb:	e8 60 ea ff ff       	call   401060 <printf@plt>
  402600:	48 8b 7d f0          	mov    rdi,QWORD PTR [rbp-0x10]
  402604:	89 85 bc fe ff ff    	mov    DWORD PTR [rbp-0x144],eax
  40260a:	e8 b1 fa ff ff       	call   4020c0 <getfree>
  40260f:	48 c7 45 f8 ff ff ff 	mov    QWORD PTR [rbp-0x8],0xffffffffffffffff
  402616:	ff 
  402617:	48 89 85 b0 fe ff ff 	mov    QWORD PTR [rbp-0x150],rax
  40261e:	e9 9a 09 00 00       	jmp    402fbd <read_min+0xddd>
  402623:	48 8b 45 f0          	mov    rax,QWORD PTR [rbp-0x10]
  402627:	48 8b 80 28 02 00 00 	mov    rax,QWORD PTR [rax+0x228]
  40262e:	48 8b 4d f0          	mov    rcx,QWORD PTR [rbp-0x10]
  402632:	48 6b 89 90 01 00 00 	imul   rcx,QWORD PTR [rcx+0x190],0x68
  402639:	68 
  40263a:	48 01 c8             	add    rax,rcx
  40263d:	48 83 c0 68          	add    rax,0x68
  402641:	48 8b 4d f0          	mov    rcx,QWORD PTR [rbp-0x10]
  402645:	48 89 81 30 02 00 00 	mov    QWORD PTR [rcx+0x230],rax
  40264c:	48 8b 45 f0          	mov    rax,QWORD PTR [rbp-0x10]
  402650:	48 8b 80 38 02 00 00 	mov    rax,QWORD PTR [rax+0x238]
  402657:	48 8b 4d f0          	mov    rcx,QWORD PTR [rbp-0x10]
  40265b:	48 6b 89 a8 01 00 00 	imul   rcx,QWORD PTR [rcx+0x1a8],0x48
  402662:	48 
  402663:	48 01 c8             	add    rax,rcx
  402666:	48 8b 4d f0          	mov    rcx,QWORD PTR [rbp-0x10]
  40266a:	48 89 81 40 02 00 00 	mov    QWORD PTR [rcx+0x240],rax
  402671:	48 8b 45 f0          	mov    rax,QWORD PTR [rbp-0x10]
  402675:	48 8b 80 50 02 00 00 	mov    rax,QWORD PTR [rax+0x250]
  40267c:	48 8b 4d f0          	mov    rcx,QWORD PTR [rbp-0x10]
  402680:	48 6b 89 90 01 00 00 	imul   rcx,QWORD PTR [rcx+0x190],0x48
  402687:	48 
  402688:	48 01 c8             	add    rax,rcx
  40268b:	48 8b 4d f0          	mov    rcx,QWORD PTR [rbp-0x10]
  40268f:	48 89 81 58 02 00 00 	mov    QWORD PTR [rcx+0x258],rax
  402696:	48 8b 45 f0          	mov    rax,QWORD PTR [rbp-0x10]
  40269a:	48 8b 80 28 02 00 00 	mov    rax,QWORD PTR [rax+0x228]
  4026a1:	48 89 85 d8 fe ff ff 	mov    QWORD PTR [rbp-0x128],rax
  4026a8:	48 8b 45 f0          	mov    rax,QWORD PTR [rbp-0x10]
  4026ac:	48 8b 80 38 02 00 00 	mov    rax,QWORD PTR [rax+0x238]
  4026b3:	48 89 85 e0 fe ff ff 	mov    QWORD PTR [rbp-0x120],rax
  4026ba:	48 c7 85 f0 fe ff ff 	mov    QWORD PTR [rbp-0x110],0x1
  4026c1:	01 00 00 00 
  4026c5:	48 8b 85 f0 fe ff ff 	mov    rax,QWORD PTR [rbp-0x110]
  4026cc:	48 8b 4d f0          	mov    rcx,QWORD PTR [rbp-0x10]
  4026d0:	48 3b 81 98 01 00 00 	cmp    rax,QWORD PTR [rcx+0x198]
  4026d7:	0f 8f fb 04 00 00    	jg     402bd8 <read_min+0x9f8>
  4026dd:	48 8d bd 10 ff ff ff 	lea    rdi,[rbp-0xf0]
  4026e4:	48 8b 55 e8          	mov    rdx,QWORD PTR [rbp-0x18]
  4026e8:	be c8 00 00 00       	mov    esi,0xc8
  4026ed:	e8 8e e9 ff ff       	call   401080 <fgets@plt>
  4026f2:	48 8d bd 10 ff ff ff 	lea    rdi,[rbp-0xf0]
  4026f9:	48 be fd 82 40 00 00 	movabs rsi,0x4082fd
  402700:	00 00 00 
  402703:	48 8d 95 08 ff ff ff 	lea    rdx,[rbp-0xf8]
  40270a:	48 8d 8d 00 ff ff ff 	lea    rcx,[rbp-0x100]
  402711:	48 89 85 a8 fe ff ff 	mov    QWORD PTR [rbp-0x158],rax
  402718:	b0 00                	mov    al,0x0
  40271a:	e8 c1 e9 ff ff       	call   4010e0 <__isoc99_sscanf@plt>
  40271f:	83 f8 02             	cmp    eax,0x2
  402722:	0f 85 14 00 00 00    	jne    40273c <read_min+0x55c>
  402728:	48 8b 85 08 ff ff ff 	mov    rax,QWORD PTR [rbp-0xf8]
  40272f:	48 3b 85 00 ff ff ff 	cmp    rax,QWORD PTR [rbp-0x100]
  402736:	0f 8e 0d 00 00 00    	jle    402749 <read_min+0x569>
  40273c:	48 c7 45 f8 ff ff ff 	mov    QWORD PTR [rbp-0x8],0xffffffffffffffff
  402743:	ff 
  402744:	e9 74 08 00 00       	jmp    402fbd <read_min+0xddd>
  402749:	31 c0                	xor    eax,eax
  40274b:	89 c1                	mov    ecx,eax
  40274d:	48 2b 8d f0 fe ff ff 	sub    rcx,QWORD PTR [rbp-0x110]
  402754:	89 c8                	mov    eax,ecx
  402756:	48 8b 8d d8 fe ff ff 	mov    rcx,QWORD PTR [rbp-0x128]
  40275d:	48 6b 95 f0 fe ff ff 	imul   rdx,QWORD PTR [rbp-0x110],0x68
  402764:	68 
  402765:	48 01 d1             	add    rcx,rdx
  402768:	89 41 60             	mov    DWORD PTR [rcx+0x60],eax
  40276b:	48 8b 8d d8 fe ff ff 	mov    rcx,QWORD PTR [rbp-0x128]
  402772:	48 6b 95 f0 fe ff ff 	imul   rdx,QWORD PTR [rbp-0x110],0x68
  402779:	68 
  40277a:	48 01 d1             	add    rcx,rdx
  40277d:	48 c7 41 50 ff ff ff 	mov    QWORD PTR [rcx+0x50],0xffffffffffffffff
  402784:	ff 
  402785:	48 8b 8d f0 fe ff ff 	mov    rcx,QWORD PTR [rbp-0x110]
  40278c:	89 c8                	mov    eax,ecx
  40278e:	48 8b 8d d8 fe ff ff 	mov    rcx,QWORD PTR [rbp-0x128]
  402795:	48 8b 95 f0 fe ff ff 	mov    rdx,QWORD PTR [rbp-0x110]
  40279c:	48 8b 75 f0          	mov    rsi,QWORD PTR [rbp-0x10]
  4027a0:	48 03 96 98 01 00 00 	add    rdx,QWORD PTR [rsi+0x198]
  4027a7:	48 6b d2 68          	imul   rdx,rdx,0x68
  4027ab:	48 01 d1             	add    rcx,rdx
  4027ae:	89 41 60             	mov    DWORD PTR [rcx+0x60],eax
  4027b1:	48 8b 8d d8 fe ff ff 	mov    rcx,QWORD PTR [rbp-0x128]
  4027b8:	48 8b 95 f0 fe ff ff 	mov    rdx,QWORD PTR [rbp-0x110]
  4027bf:	48 8b 75 f0          	mov    rsi,QWORD PTR [rbp-0x10]
  4027c3:	48 03 96 98 01 00 00 	add    rdx,QWORD PTR [rsi+0x198]
  4027ca:	48 6b d2 68          	imul   rdx,rdx,0x68
  4027ce:	48 01 d1             	add    rcx,rdx
  4027d1:	48 c7 41 50 01 00 00 	mov    QWORD PTR [rcx+0x50],0x1
  4027d8:	00 
  4027d9:	48 8b 8d 08 ff ff ff 	mov    rcx,QWORD PTR [rbp-0xf8]
  4027e0:	89 c8                	mov    eax,ecx
  4027e2:	48 8b 8d d8 fe ff ff 	mov    rcx,QWORD PTR [rbp-0x128]
  4027e9:	48 6b 95 f0 fe ff ff 	imul   rdx,QWORD PTR [rbp-0x110],0x68
  4027f0:	68 
  4027f1:	48 01 d1             	add    rcx,rdx
  4027f4:	89 41 64             	mov    DWORD PTR [rcx+0x64],eax
  4027f7:	48 8b 8d 00 ff ff ff 	mov    rcx,QWORD PTR [rbp-0x100]
  4027fe:	89 c8                	mov    eax,ecx
  402800:	48 8b 8d d8 fe ff ff 	mov    rcx,QWORD PTR [rbp-0x128]
  402807:	48 8b 95 f0 fe ff ff 	mov    rdx,QWORD PTR [rbp-0x110]
  40280e:	48 8b 75 f0          	mov    rsi,QWORD PTR [rbp-0x10]
  402812:	48 03 96 98 01 00 00 	add    rdx,QWORD PTR [rsi+0x198]
  402819:	48 6b d2 68          	imul   rdx,rdx,0x68
  40281d:	48 01 d1             	add    rcx,rdx
  402820:	89 41 64             	mov    DWORD PTR [rcx+0x64],eax
  402823:	48 8b 8d e8 fe ff ff 	mov    rcx,QWORD PTR [rbp-0x118]
  40282a:	89 c8                	mov    eax,ecx
  40282c:	48 8b 8d e0 fe ff ff 	mov    rcx,QWORD PTR [rbp-0x120]
  402833:	89 01                	mov    DWORD PTR [rcx],eax
  402835:	48 8b 8d d8 fe ff ff 	mov    rcx,QWORD PTR [rbp-0x128]
  40283c:	48 8b 55 f0          	mov    rdx,QWORD PTR [rbp-0x10]
  402840:	48 6b 92 90 01 00 00 	imul   rdx,QWORD PTR [rdx+0x190],0x68
  402847:	68 
  402848:	48 01 d1             	add    rcx,rdx
  40284b:	48 8b 95 e0 fe ff ff 	mov    rdx,QWORD PTR [rbp-0x120]
  402852:	48 89 4a 10          	mov    QWORD PTR [rdx+0x10],rcx
  402856:	48 8b 8d d8 fe ff ff 	mov    rcx,QWORD PTR [rbp-0x128]
  40285d:	48 6b 95 f0 fe ff ff 	imul   rdx,QWORD PTR [rbp-0x110],0x68
  402864:	68 
  402865:	48 01 d1             	add    rcx,rdx
  402868:	48 8b 95 e0 fe ff ff 	mov    rdx,QWORD PTR [rbp-0x120]
  40286f:	48 89 4a 18          	mov    QWORD PTR [rdx+0x18],rcx
  402873:	48 8b 4d f0          	mov    rcx,QWORD PTR [rbp-0x10]
  402877:	48 8b 89 10 02 00 00 	mov    rcx,QWORD PTR [rcx+0x210]
  40287e:	48 83 c1 0f          	add    rcx,0xf
  402882:	48 8b 95 e0 fe ff ff 	mov    rdx,QWORD PTR [rbp-0x120]
  402889:	48 89 4a 08          	mov    QWORD PTR [rdx+0x8],rcx
  40288d:	48 8b 95 e0 fe ff ff 	mov    rdx,QWORD PTR [rbp-0x120]
  402894:	48 89 4a 40          	mov    QWORD PTR [rdx+0x40],rcx
  402898:	48 8b 8d e0 fe ff ff 	mov    rcx,QWORD PTR [rbp-0x120]
  40289f:	48 8b 49 10          	mov    rcx,QWORD PTR [rcx+0x10]
  4028a3:	48 8b 49 38          	mov    rcx,QWORD PTR [rcx+0x38]
  4028a7:	48 8b 95 e0 fe ff ff 	mov    rdx,QWORD PTR [rbp-0x120]
  4028ae:	48 89 4a 28          	mov    QWORD PTR [rdx+0x28],rcx
  4028b2:	48 8b 8d e0 fe ff ff 	mov    rcx,QWORD PTR [rbp-0x120]
  4028b9:	48 8b 95 e0 fe ff ff 	mov    rdx,QWORD PTR [rbp-0x120]
  4028c0:	48 8b 52 10          	mov    rdx,QWORD PTR [rdx+0x10]
  4028c4:	48 89 4a 38          	mov    QWORD PTR [rdx+0x38],rcx
  4028c8:	48 8b 8d e0 fe ff ff 	mov    rcx,QWORD PTR [rbp-0x120]
  4028cf:	48 8b 49 18          	mov    rcx,QWORD PTR [rcx+0x18]
  4028d3:	48 8b 49 40          	mov    rcx,QWORD PTR [rcx+0x40]
  4028d7:	48 8b 95 e0 fe ff ff 	mov    rdx,QWORD PTR [rbp-0x120]
  4028de:	48 89 4a 30          	mov    QWORD PTR [rdx+0x30],rcx
  4028e2:	48 8b 8d e0 fe ff ff 	mov    rcx,QWORD PTR [rbp-0x120]
  4028e9:	48 8b 95 e0 fe ff ff 	mov    rdx,QWORD PTR [rbp-0x120]
  4028f0:	48 8b 52 18          	mov    rdx,QWORD PTR [rdx+0x18]
  4028f4:	48 89 4a 40          	mov    QWORD PTR [rdx+0x40],rcx
  4028f8:	48 8b 4d f0          	mov    rcx,QWORD PTR [rbp-0x10]
  4028fc:	48 8b 89 38 02 00 00 	mov    rcx,QWORD PTR [rcx+0x238]
  402903:	48 8b 7d f0          	mov    rdi,QWORD PTR [rbp-0x10]
  402907:	48 8b 95 e8 fe ff ff 	mov    rdx,QWORD PTR [rbp-0x118]
  40290e:	48 83 c2 01          	add    rdx,0x1
  402912:	48 89 95 e8 fe ff ff 	mov    QWORD PTR [rbp-0x118],rdx
  402919:	48 89 d6             	mov    rsi,rdx
  40291c:	48 89 8d a0 fe ff ff 	mov    QWORD PTR [rbp-0x160],rcx
  402923:	e8 d8 f0 ff ff       	call   401a00 <getArcPosition>
  402928:	48 6b c0 48          	imul   rax,rax,0x48
  40292c:	48 8b 8d a0 fe ff ff 	mov    rcx,QWORD PTR [rbp-0x160]
  402933:	48 01 c1             	add    rcx,rax
  402936:	48 89 8d e0 fe ff ff 	mov    QWORD PTR [rbp-0x120],rcx
  40293d:	48 8b 85 e8 fe ff ff 	mov    rax,QWORD PTR [rbp-0x118]
  402944:	41 89 c0             	mov    r8d,eax
  402947:	48 8b 85 e0 fe ff ff 	mov    rax,QWORD PTR [rbp-0x120]
  40294e:	44 89 00             	mov    DWORD PTR [rax],r8d
  402951:	48 8b 85 d8 fe ff ff 	mov    rax,QWORD PTR [rbp-0x128]
  402958:	48 8b 8d f0 fe ff ff 	mov    rcx,QWORD PTR [rbp-0x110]
  40295f:	48 8b 55 f0          	mov    rdx,QWORD PTR [rbp-0x10]
  402963:	48 03 8a 98 01 00 00 	add    rcx,QWORD PTR [rdx+0x198]
  40296a:	48 6b c9 68          	imul   rcx,rcx,0x68
  40296e:	48 01 c8             	add    rax,rcx
  402971:	48 8b 8d e0 fe ff ff 	mov    rcx,QWORD PTR [rbp-0x120]
  402978:	48 89 41 10          	mov    QWORD PTR [rcx+0x10],rax
  40297c:	48 8b 85 d8 fe ff ff 	mov    rax,QWORD PTR [rbp-0x128]
  402983:	48 8b 4d f0          	mov    rcx,QWORD PTR [rbp-0x10]
  402987:	48 6b 89 90 01 00 00 	imul   rcx,QWORD PTR [rcx+0x190],0x68
  40298e:	68 
  40298f:	48 01 c8             	add    rax,rcx
  402992:	48 8b 8d e0 fe ff ff 	mov    rcx,QWORD PTR [rbp-0x120]
  402999:	48 89 41 18          	mov    QWORD PTR [rcx+0x18],rax
  40299d:	48 8b 85 e0 fe ff ff 	mov    rax,QWORD PTR [rbp-0x120]
  4029a4:	48 c7 40 08 0f 00 00 	mov    QWORD PTR [rax+0x8],0xf
  4029ab:	00 
  4029ac:	48 8b 85 e0 fe ff ff 	mov    rax,QWORD PTR [rbp-0x120]
  4029b3:	48 c7 40 40 0f 00 00 	mov    QWORD PTR [rax+0x40],0xf
  4029ba:	00 
  4029bb:	48 8b 85 e0 fe ff ff 	mov    rax,QWORD PTR [rbp-0x120]
  4029c2:	48 8b 40 10          	mov    rax,QWORD PTR [rax+0x10]
  4029c6:	48 8b 40 38          	mov    rax,QWORD PTR [rax+0x38]
  4029ca:	48 8b 8d e0 fe ff ff 	mov    rcx,QWORD PTR [rbp-0x120]
  4029d1:	48 89 41 28          	mov    QWORD PTR [rcx+0x28],rax
  4029d5:	48 8b 85 e0 fe ff ff 	mov    rax,QWORD PTR [rbp-0x120]
  4029dc:	48 8b 8d e0 fe ff ff 	mov    rcx,QWORD PTR [rbp-0x120]
  4029e3:	48 8b 49 10          	mov    rcx,QWORD PTR [rcx+0x10]
  4029e7:	48 89 41 38          	mov    QWORD PTR [rcx+0x38],rax
  4029eb:	48 8b 85 e0 fe ff ff 	mov    rax,QWORD PTR [rbp-0x120]
  4029f2:	48 8b 40 18          	mov    rax,QWORD PTR [rax+0x18]
  4029f6:	48 8b 40 40          	mov    rax,QWORD PTR [rax+0x40]
  4029fa:	48 8b 8d e0 fe ff ff 	mov    rcx,QWORD PTR [rbp-0x120]
  402a01:	48 89 41 30          	mov    QWORD PTR [rcx+0x30],rax
  402a05:	48 8b 85 e0 fe ff ff 	mov    rax,QWORD PTR [rbp-0x120]
  402a0c:	48 8b 8d e0 fe ff ff 	mov    rcx,QWORD PTR [rbp-0x120]
  402a13:	48 8b 49 18          	mov    rcx,QWORD PTR [rcx+0x18]
  402a17:	48 89 41 40          	mov    QWORD PTR [rcx+0x40],rax
  402a1b:	48 8b 45 f0          	mov    rax,QWORD PTR [rbp-0x10]
  402a1f:	48 8b 80 38 02 00 00 	mov    rax,QWORD PTR [rax+0x238]
  402a26:	48 8b 7d f0          	mov    rdi,QWORD PTR [rbp-0x10]
  402a2a:	48 8b 8d e8 fe ff ff 	mov    rcx,QWORD PTR [rbp-0x118]
  402a31:	48 83 c1 01          	add    rcx,0x1
  402a35:	48 89 8d e8 fe ff ff 	mov    QWORD PTR [rbp-0x118],rcx
  402a3c:	48 89 ce             	mov    rsi,rcx
  402a3f:	48 89 85 98 fe ff ff 	mov    QWORD PTR [rbp-0x168],rax
  402a46:	e8 b5 ef ff ff       	call   401a00 <getArcPosition>
  402a4b:	48 6b c0 48          	imul   rax,rax,0x48
  402a4f:	48 8b 8d 98 fe ff ff 	mov    rcx,QWORD PTR [rbp-0x168]
  402a56:	48 01 c1             	add    rcx,rax
  402a59:	48 89 8d e0 fe ff ff 	mov    QWORD PTR [rbp-0x120],rcx
  402a60:	48 8b 85 e8 fe ff ff 	mov    rax,QWORD PTR [rbp-0x118]
  402a67:	41 89 c0             	mov    r8d,eax
  402a6a:	48 8b 85 e0 fe ff ff 	mov    rax,QWORD PTR [rbp-0x120]
  402a71:	44 89 00             	mov    DWORD PTR [rax],r8d
  402a74:	48 8b 85 d8 fe ff ff 	mov    rax,QWORD PTR [rbp-0x128]
  402a7b:	48 6b 8d f0 fe ff ff 	imul   rcx,QWORD PTR [rbp-0x110],0x68
  402a82:	68 
  402a83:	48 01 c8             	add    rax,rcx
  402a86:	48 8b 8d e0 fe ff ff 	mov    rcx,QWORD PTR [rbp-0x120]
  402a8d:	48 89 41 10          	mov    QWORD PTR [rcx+0x10],rax
  402a91:	48 8b 85 d8 fe ff ff 	mov    rax,QWORD PTR [rbp-0x128]
  402a98:	48 8b 8d f0 fe ff ff 	mov    rcx,QWORD PTR [rbp-0x110]
  402a9f:	48 8b 55 f0          	mov    rdx,QWORD PTR [rbp-0x10]
  402aa3:	48 03 8a 98 01 00 00 	add    rcx,QWORD PTR [rdx+0x198]
  402aaa:	48 6b c9 68          	imul   rcx,rcx,0x68
  402aae:	48 01 c8             	add    rax,rcx
  402ab1:	48 8b 8d e0 fe ff ff 	mov    rcx,QWORD PTR [rbp-0x120]
  402ab8:	48 89 41 18          	mov    QWORD PTR [rcx+0x18],rax
  402abc:	48 8b 45 f0          	mov    rax,QWORD PTR [rbp-0x10]
  402ac0:	48 81 b8 10 02 00 00 	cmp    QWORD PTR [rax+0x210],0x989680
  402ac7:	80 96 98 00 
  402acb:	0f 8e 17 00 00 00    	jle    402ae8 <read_min+0x908>
  402ad1:	48 8b 45 f0          	mov    rax,QWORD PTR [rbp-0x10]
  402ad5:	48 8b 80 10 02 00 00 	mov    rax,QWORD PTR [rax+0x210]
  402adc:	48 89 85 90 fe ff ff 	mov    QWORD PTR [rbp-0x170],rax
  402ae3:	e9 13 00 00 00       	jmp    402afb <read_min+0x91b>
  402ae8:	b8 80 96 98 00       	mov    eax,0x989680
  402aed:	89 c1                	mov    ecx,eax
  402aef:	48 89 8d 90 fe ff ff 	mov    QWORD PTR [rbp-0x170],rcx
  402af6:	e9 00 00 00 00       	jmp    402afb <read_min+0x91b>
  402afb:	48 8b 85 90 fe ff ff 	mov    rax,QWORD PTR [rbp-0x170]
  402b02:	48 c1 e0 01          	shl    rax,0x1
  402b06:	48 8b 8d e0 fe ff ff 	mov    rcx,QWORD PTR [rbp-0x120]
  402b0d:	48 89 41 08          	mov    QWORD PTR [rcx+0x8],rax
  402b11:	48 8b 8d e0 fe ff ff 	mov    rcx,QWORD PTR [rbp-0x120]
  402b18:	48 89 41 40          	mov    QWORD PTR [rcx+0x40],rax
  402b1c:	48 8b 85 e0 fe ff ff 	mov    rax,QWORD PTR [rbp-0x120]
  402b23:	48 8b 40 10          	mov    rax,QWORD PTR [rax+0x10]
  402b27:	48 8b 40 38          	mov    rax,QWORD PTR [rax+0x38]
  402b2b:	48 8b 8d e0 fe ff ff 	mov    rcx,QWORD PTR [rbp-0x120]
  402b32:	48 89 41 28          	mov    QWORD PTR [rcx+0x28],rax
  402b36:	48 8b 85 e0 fe ff ff 	mov    rax,QWORD PTR [rbp-0x120]
  402b3d:	48 8b 8d e0 fe ff ff 	mov    rcx,QWORD PTR [rbp-0x120]
  402b44:	48 8b 49 10          	mov    rcx,QWORD PTR [rcx+0x10]
  402b48:	48 89 41 38          	mov    QWORD PTR [rcx+0x38],rax
  402b4c:	48 8b 85 e0 fe ff ff 	mov    rax,QWORD PTR [rbp-0x120]
  402b53:	48 8b 40 18          	mov    rax,QWORD PTR [rax+0x18]
  402b57:	48 8b 40 40          	mov    rax,QWORD PTR [rax+0x40]
  402b5b:	48 8b 8d e0 fe ff ff 	mov    rcx,QWORD PTR [rbp-0x120]
  402b62:	48 89 41 30          	mov    QWORD PTR [rcx+0x30],rax
  402b66:	48 8b 85 e0 fe ff ff 	mov    rax,QWORD PTR [rbp-0x120]
  402b6d:	48 8b 8d e0 fe ff ff 	mov    rcx,QWORD PTR [rbp-0x120]
  402b74:	48 8b 49 18          	mov    rcx,QWORD PTR [rcx+0x18]
  402b78:	48 89 41 40          	mov    QWORD PTR [rcx+0x40],rax
  402b7c:	48 8b 45 f0          	mov    rax,QWORD PTR [rbp-0x10]
  402b80:	48 8b 80 38 02 00 00 	mov    rax,QWORD PTR [rax+0x238]
  402b87:	48 8b 7d f0          	mov    rdi,QWORD PTR [rbp-0x10]
  402b8b:	48 8b 8d e8 fe ff ff 	mov    rcx,QWORD PTR [rbp-0x118]
  402b92:	48 83 c1 01          	add    rcx,0x1
  402b96:	48 89 8d e8 fe ff ff 	mov    QWORD PTR [rbp-0x118],rcx
  402b9d:	48 89 ce             	mov    rsi,rcx
  402ba0:	48 89 85 88 fe ff ff 	mov    QWORD PTR [rbp-0x178],rax
  402ba7:	e8 54 ee ff ff       	call   401a00 <getArcPosition>
  402bac:	48 6b c0 48          	imul   rax,rax,0x48
  402bb0:	48 8b 8d 88 fe ff ff 	mov    rcx,QWORD PTR [rbp-0x178]
  402bb7:	48 01 c1             	add    rcx,rax
  402bba:	48 89 8d e0 fe ff ff 	mov    QWORD PTR [rbp-0x120],rcx
  402bc1:	48 8b 85 f0 fe ff ff 	mov    rax,QWORD PTR [rbp-0x110]
  402bc8:	48 83 c0 01          	add    rax,0x1
  402bcc:	48 89 85 f0 fe ff ff 	mov    QWORD PTR [rbp-0x110],rax
  402bd3:	e9 ed fa ff ff       	jmp    4026c5 <read_min+0x4e5>
  402bd8:	48 8b 85 f0 fe ff ff 	mov    rax,QWORD PTR [rbp-0x110]
  402bdf:	48 8b 4d f0          	mov    rcx,QWORD PTR [rbp-0x10]
  402be3:	48 8b 89 98 01 00 00 	mov    rcx,QWORD PTR [rcx+0x198]
  402bea:	48 83 c1 01          	add    rcx,0x1
  402bee:	48 39 c8             	cmp    rax,rcx
  402bf1:	0f 84 0d 00 00 00    	je     402c04 <read_min+0xa24>
  402bf7:	48 c7 45 f8 ff ff ff 	mov    QWORD PTR [rbp-0x8],0xffffffffffffffff
  402bfe:	ff 
  402bff:	e9 b9 03 00 00       	jmp    402fbd <read_min+0xddd>
  402c04:	48 c7 85 f0 fe ff ff 	mov    QWORD PTR [rbp-0x110],0x0
  402c0b:	00 00 00 00 
  402c0f:	48 8b 85 f0 fe ff ff 	mov    rax,QWORD PTR [rbp-0x110]
  402c16:	48 8b 4d f0          	mov    rcx,QWORD PTR [rbp-0x10]
  402c1a:	48 3b 81 b0 01 00 00 	cmp    rax,QWORD PTR [rcx+0x1b0]
  402c21:	0f 8d 99 01 00 00    	jge    402dc0 <read_min+0xbe0>
  402c27:	48 8d bd 10 ff ff ff 	lea    rdi,[rbp-0xf0]
  402c2e:	48 8b 55 e8          	mov    rdx,QWORD PTR [rbp-0x18]
  402c32:	be c8 00 00 00       	mov    esi,0xc8
  402c37:	e8 44 e4 ff ff       	call   401080 <fgets@plt>
  402c3c:	48 8d bd 10 ff ff ff 	lea    rdi,[rbp-0xf0]
  402c43:	48 be f9 82 40 00 00 	movabs rsi,0x4082f9
  402c4a:	00 00 00 
  402c4d:	48 8d 95 08 ff ff ff 	lea    rdx,[rbp-0xf8]
  402c54:	48 8d 8d 00 ff ff ff 	lea    rcx,[rbp-0x100]
  402c5b:	4c 8d 85 f8 fe ff ff 	lea    r8,[rbp-0x108]
  402c62:	48 89 85 80 fe ff ff 	mov    QWORD PTR [rbp-0x180],rax
  402c69:	b0 00                	mov    al,0x0
  402c6b:	e8 70 e4 ff ff       	call   4010e0 <__isoc99_sscanf@plt>
  402c70:	83 f8 03             	cmp    eax,0x3
  402c73:	0f 84 0d 00 00 00    	je     402c86 <read_min+0xaa6>
  402c79:	48 c7 45 f8 ff ff ff 	mov    QWORD PTR [rbp-0x8],0xffffffffffffffff
  402c80:	ff 
  402c81:	e9 37 03 00 00       	jmp    402fbd <read_min+0xddd>
  402c86:	48 8b 85 e8 fe ff ff 	mov    rax,QWORD PTR [rbp-0x118]
  402c8d:	89 c1                	mov    ecx,eax
  402c8f:	48 8b 85 e0 fe ff ff 	mov    rax,QWORD PTR [rbp-0x120]
  402c96:	89 08                	mov    DWORD PTR [rax],ecx
  402c98:	48 8b 85 d8 fe ff ff 	mov    rax,QWORD PTR [rbp-0x128]
  402c9f:	48 8b 95 08 ff ff ff 	mov    rdx,QWORD PTR [rbp-0xf8]
  402ca6:	48 8b 75 f0          	mov    rsi,QWORD PTR [rbp-0x10]
  402caa:	48 03 96 98 01 00 00 	add    rdx,QWORD PTR [rsi+0x198]
  402cb1:	48 6b d2 68          	imul   rdx,rdx,0x68
  402cb5:	48 01 d0             	add    rax,rdx
  402cb8:	48 8b 95 e0 fe ff ff 	mov    rdx,QWORD PTR [rbp-0x120]
  402cbf:	48 89 42 10          	mov    QWORD PTR [rdx+0x10],rax
  402cc3:	48 8b 85 d8 fe ff ff 	mov    rax,QWORD PTR [rbp-0x128]
  402cca:	48 6b 95 00 ff ff ff 	imul   rdx,QWORD PTR [rbp-0x100],0x68
  402cd1:	68 
  402cd2:	48 01 d0             	add    rax,rdx
  402cd5:	48 8b 95 e0 fe ff ff 	mov    rdx,QWORD PTR [rbp-0x120]
  402cdc:	48 89 42 18          	mov    QWORD PTR [rdx+0x18],rax
  402ce0:	48 8b 85 f8 fe ff ff 	mov    rax,QWORD PTR [rbp-0x108]
  402ce7:	48 8b 95 e0 fe ff ff 	mov    rdx,QWORD PTR [rbp-0x120]
  402cee:	48 89 42 40          	mov    QWORD PTR [rdx+0x40],rax
  402cf2:	48 8b 85 f8 fe ff ff 	mov    rax,QWORD PTR [rbp-0x108]
  402cf9:	48 8b 95 e0 fe ff ff 	mov    rdx,QWORD PTR [rbp-0x120]
  402d00:	48 89 42 08          	mov    QWORD PTR [rdx+0x8],rax
  402d04:	48 8b 85 e0 fe ff ff 	mov    rax,QWORD PTR [rbp-0x120]
  402d0b:	48 8b 40 10          	mov    rax,QWORD PTR [rax+0x10]
  402d0f:	48 8b 40 38          	mov    rax,QWORD PTR [rax+0x38]
  402d13:	48 8b 95 e0 fe ff ff 	mov    rdx,QWORD PTR [rbp-0x120]
  402d1a:	48 89 42 28          	mov    QWORD PTR [rdx+0x28],rax
  402d1e:	48 8b 85 e0 fe ff ff 	mov    rax,QWORD PTR [rbp-0x120]
  402d25:	48 8b 95 e0 fe ff ff 	mov    rdx,QWORD PTR [rbp-0x120]
  402d2c:	48 8b 52 10          	mov    rdx,QWORD PTR [rdx+0x10]
  402d30:	48 89 42 38          	mov    QWORD PTR [rdx+0x38],rax
  402d34:	48 8b 85 e0 fe ff ff 	mov    rax,QWORD PTR [rbp-0x120]
  402d3b:	48 8b 40 18          	mov    rax,QWORD PTR [rax+0x18]
  402d3f:	48 8b 40 40          	mov    rax,QWORD PTR [rax+0x40]
  402d43:	48 8b 95 e0 fe ff ff 	mov    rdx,QWORD PTR [rbp-0x120]
  402d4a:	48 89 42 30          	mov    QWORD PTR [rdx+0x30],rax
  402d4e:	48 8b 85 e0 fe ff ff 	mov    rax,QWORD PTR [rbp-0x120]
  402d55:	48 8b 95 e0 fe ff ff 	mov    rdx,QWORD PTR [rbp-0x120]
  402d5c:	48 8b 52 18          	mov    rdx,QWORD PTR [rdx+0x18]
  402d60:	48 89 42 40          	mov    QWORD PTR [rdx+0x40],rax
  402d64:	48 8b 85 f0 fe ff ff 	mov    rax,QWORD PTR [rbp-0x110]
  402d6b:	48 83 c0 01          	add    rax,0x1
  402d6f:	48 89 85 f0 fe ff ff 	mov    QWORD PTR [rbp-0x110],rax
  402d76:	48 8b 45 f0          	mov    rax,QWORD PTR [rbp-0x10]
  402d7a:	48 8b 80 38 02 00 00 	mov    rax,QWORD PTR [rax+0x238]
  402d81:	48 8b 7d f0          	mov    rdi,QWORD PTR [rbp-0x10]
  402d85:	48 8b 8d e8 fe ff ff 	mov    rcx,QWORD PTR [rbp-0x118]
  402d8c:	48 83 c1 01          	add    rcx,0x1
  402d90:	48 89 8d e8 fe ff ff 	mov    QWORD PTR [rbp-0x118],rcx
  402d97:	48 89 ce             	mov    rsi,rcx
  402d9a:	48 89 85 78 fe ff ff 	mov    QWORD PTR [rbp-0x188],rax
  402da1:	e8 5a ec ff ff       	call   401a00 <getArcPosition>
  402da6:	48 6b c0 48          	imul   rax,rax,0x48
  402daa:	48 8b 8d 78 fe ff ff 	mov    rcx,QWORD PTR [rbp-0x188]
  402db1:	48 01 c1             	add    rcx,rax
  402db4:	48 89 8d e0 fe ff ff 	mov    QWORD PTR [rbp-0x120],rcx
  402dbb:	e9 4f fe ff ff       	jmp    402c0f <read_min+0xa2f>
  402dc0:	48 8b 45 f0          	mov    rax,QWORD PTR [rbp-0x10]
  402dc4:	48 8b 80 40 02 00 00 	mov    rax,QWORD PTR [rax+0x240]
  402dcb:	48 89 85 e0 fe ff ff 	mov    QWORD PTR [rbp-0x120],rax
  402dd2:	48 8b 45 f0          	mov    rax,QWORD PTR [rbp-0x10]
  402dd6:	48 8b 80 40 02 00 00 	mov    rax,QWORD PTR [rax+0x240]
  402ddd:	48 3b 85 e0 fe ff ff 	cmp    rax,QWORD PTR [rbp-0x120]
  402de4:	0f 84 8e 00 00 00    	je     402e78 <read_min+0xc98>
  402dea:	48 8b 85 e0 fe ff ff 	mov    rax,QWORD PTR [rbp-0x120]
  402df1:	48 8b 4d f0          	mov    rcx,QWORD PTR [rbp-0x10]
  402df5:	48 89 81 40 02 00 00 	mov    QWORD PTR [rcx+0x240],rax
  402dfc:	48 8b 45 f0          	mov    rax,QWORD PTR [rbp-0x10]
  402e00:	48 8b 80 38 02 00 00 	mov    rax,QWORD PTR [rax+0x238]
  402e07:	48 89 85 e0 fe ff ff 	mov    QWORD PTR [rbp-0x120],rax
  402e0e:	48 8b 45 f0          	mov    rax,QWORD PTR [rbp-0x10]
  402e12:	48 c7 80 a8 01 00 00 	mov    QWORD PTR [rax+0x1a8],0x0
  402e19:	00 00 00 00 
  402e1d:	48 8b 85 e0 fe ff ff 	mov    rax,QWORD PTR [rbp-0x120]
  402e24:	48 8b 4d f0          	mov    rcx,QWORD PTR [rbp-0x10]
  402e28:	48 3b 81 40 02 00 00 	cmp    rax,QWORD PTR [rcx+0x240]
  402e2f:	0f 83 2d 00 00 00    	jae    402e62 <read_min+0xc82>
  402e35:	48 8b 45 f0          	mov    rax,QWORD PTR [rbp-0x10]
  402e39:	48 8b 88 a8 01 00 00 	mov    rcx,QWORD PTR [rax+0x1a8]
  402e40:	48 83 c1 01          	add    rcx,0x1
  402e44:	48 89 88 a8 01 00 00 	mov    QWORD PTR [rax+0x1a8],rcx
  402e4b:	48 8b 85 e0 fe ff ff 	mov    rax,QWORD PTR [rbp-0x120]
  402e52:	48 83 c0 48          	add    rax,0x48
  402e56:	48 89 85 e0 fe ff ff 	mov    QWORD PTR [rbp-0x120],rax
  402e5d:	e9 bb ff ff ff       	jmp    402e1d <read_min+0xc3d>
  402e62:	48 8b 45 f0          	mov    rax,QWORD PTR [rbp-0x10]
  402e66:	48 8b 80 a8 01 00 00 	mov    rax,QWORD PTR [rax+0x1a8]
  402e6d:	48 8b 4d f0          	mov    rcx,QWORD PTR [rbp-0x10]
  402e71:	48 89 81 b0 01 00 00 	mov    QWORD PTR [rcx+0x1b0],rax
  402e78:	48 8b 7d e8          	mov    rdi,QWORD PTR [rbp-0x18]
  402e7c:	e8 cf e1 ff ff       	call   401050 <fclose@plt>
  402e81:	48 8b 7d f0          	mov    rdi,QWORD PTR [rbp-0x10]
  402e85:	c6 87 c8 00 00 00 00 	mov    BYTE PTR [rdi+0xc8],0x0
  402e8c:	48 c7 85 f0 fe ff ff 	mov    QWORD PTR [rbp-0x110],0x1
  402e93:	01 00 00 00 
  402e97:	89 85 74 fe ff ff    	mov    DWORD PTR [rbp-0x18c],eax
  402e9d:	48 8b 85 f0 fe ff ff 	mov    rax,QWORD PTR [rbp-0x110]
  402ea4:	48 8b 4d f0          	mov    rcx,QWORD PTR [rbp-0x10]
  402ea8:	48 3b 81 98 01 00 00 	cmp    rax,QWORD PTR [rcx+0x198]
  402eaf:	0f 8f 00 01 00 00    	jg     402fb5 <read_min+0xdd5>
  402eb5:	48 8b 45 f0          	mov    rax,QWORD PTR [rbp-0x10]
  402eb9:	48 8b 80 38 02 00 00 	mov    rax,QWORD PTR [rax+0x238]
  402ec0:	48 8b 7d f0          	mov    rdi,QWORD PTR [rbp-0x10]
  402ec4:	48 6b 8d f0 fe ff ff 	imul   rcx,QWORD PTR [rbp-0x110],0x3
  402ecb:	03 
  402ecc:	48 83 e9 01          	sub    rcx,0x1
  402ed0:	48 89 ce             	mov    rsi,rcx
  402ed3:	48 89 85 68 fe ff ff 	mov    QWORD PTR [rbp-0x198],rax
  402eda:	e8 21 eb ff ff       	call   401a00 <getArcPosition>
  402edf:	48 6b c0 48          	imul   rax,rax,0x48
  402ee3:	48 8b 8d 68 fe ff ff 	mov    rcx,QWORD PTR [rbp-0x198]
  402eea:	48 01 c1             	add    rcx,rax
  402eed:	48 89 8d e0 fe ff ff 	mov    QWORD PTR [rbp-0x120],rcx
  402ef4:	48 8b 45 f0          	mov    rax,QWORD PTR [rbp-0x10]
  402ef8:	48 81 b8 10 02 00 00 	cmp    QWORD PTR [rax+0x210],0x989680
  402eff:	80 96 98 00 
  402f03:	0f 8e 17 00 00 00    	jle    402f20 <read_min+0xd40>
  402f09:	48 8b 45 f0          	mov    rax,QWORD PTR [rbp-0x10]
  402f0d:	48 8b 80 10 02 00 00 	mov    rax,QWORD PTR [rax+0x210]
  402f14:	48 89 85 60 fe ff ff 	mov    QWORD PTR [rbp-0x1a0],rax
  402f1b:	e9 13 00 00 00       	jmp    402f33 <read_min+0xd53>
  402f20:	b8 80 96 98 00       	mov    eax,0x989680
  402f25:	89 c1                	mov    ecx,eax
  402f27:	48 89 8d 60 fe ff ff 	mov    QWORD PTR [rbp-0x1a0],rcx
  402f2e:	e9 00 00 00 00       	jmp    402f33 <read_min+0xd53>
  402f33:	48 8b 85 60 fe ff ff 	mov    rax,QWORD PTR [rbp-0x1a0]
  402f3a:	48 6b c0 fe          	imul   rax,rax,0xfffffffffffffffe
  402f3e:	48 8b 8d e0 fe ff ff 	mov    rcx,QWORD PTR [rbp-0x120]
  402f45:	48 89 41 08          	mov    QWORD PTR [rcx+0x8],rax
  402f49:	48 8b 45 f0          	mov    rax,QWORD PTR [rbp-0x10]
  402f4d:	48 81 b8 10 02 00 00 	cmp    QWORD PTR [rax+0x210],0x989680
  402f54:	80 96 98 00 
  402f58:	0f 8e 17 00 00 00    	jle    402f75 <read_min+0xd95>
  402f5e:	48 8b 45 f0          	mov    rax,QWORD PTR [rbp-0x10]
  402f62:	48 8b 80 10 02 00 00 	mov    rax,QWORD PTR [rax+0x210]
  402f69:	48 89 85 58 fe ff ff 	mov    QWORD PTR [rbp-0x1a8],rax
  402f70:	e9 13 00 00 00       	jmp    402f88 <read_min+0xda8>
  402f75:	b8 80 96 98 00       	mov    eax,0x989680
  402f7a:	89 c1                	mov    ecx,eax
  402f7c:	48 89 8d 58 fe ff ff 	mov    QWORD PTR [rbp-0x1a8],rcx
  402f83:	e9 00 00 00 00       	jmp    402f88 <read_min+0xda8>
  402f88:	48 8b 85 58 fe ff ff 	mov    rax,QWORD PTR [rbp-0x1a8]
  402f8f:	48 6b c0 fe          	imul   rax,rax,0xfffffffffffffffe
  402f93:	48 8b 8d e0 fe ff ff 	mov    rcx,QWORD PTR [rbp-0x120]
  402f9a:	48 89 41 40          	mov    QWORD PTR [rcx+0x40],rax
  402f9e:	48 8b 85 f0 fe ff ff 	mov    rax,QWORD PTR [rbp-0x110]
  402fa5:	48 83 c0 01          	add    rax,0x1
  402fa9:	48 89 85 f0 fe ff ff 	mov    QWORD PTR [rbp-0x110],rax
  402fb0:	e9 e8 fe ff ff       	jmp    402e9d <read_min+0xcbd>
  402fb5:	48 c7 45 f8 00 00 00 	mov    QWORD PTR [rbp-0x8],0x0
  402fbc:	00 
  402fbd:	48 8b 45 f8          	mov    rax,QWORD PTR [rbp-0x8]
  402fc1:	48 81 c4 b0 01 00 00 	add    rsp,0x1b0
  402fc8:	5d                   	pop    rbp
  402fc9:	c3                   	ret    
  402fca:	66 0f 1f 44 00 00    	nop    WORD PTR [rax+rax*1+0x0]

0000000000402fd0 <refreshArcPointers>:
  402fd0:	55                   	push   rbp
  402fd1:	48 89 e5             	mov    rbp,rsp
  402fd4:	48 83 ec 40          	sub    rsp,0x40
  402fd8:	48 89 7d f8          	mov    QWORD PTR [rbp-0x8],rdi
  402fdc:	48 89 75 f0          	mov    QWORD PTR [rbp-0x10],rsi
  402fe0:	48 89 55 e8          	mov    QWORD PTR [rbp-0x18],rdx
  402fe4:	48 c7 45 d8 00 00 00 	mov    QWORD PTR [rbp-0x28],0x0
  402feb:	00 
  402fec:	48 8b 45 d8          	mov    rax,QWORD PTR [rbp-0x28]
  402ff0:	48 8b 4d f8          	mov    rcx,QWORD PTR [rbp-0x8]
  402ff4:	48 3b 81 90 01 00 00 	cmp    rax,QWORD PTR [rcx+0x190]
  402ffb:	0f 8f 1d 01 00 00    	jg     40311e <refreshArcPointers+0x14e>
  403001:	48 8b 45 f8          	mov    rax,QWORD PTR [rbp-0x8]
  403005:	48 8b 80 28 02 00 00 	mov    rax,QWORD PTR [rax+0x228]
  40300c:	48 6b 4d d8 68       	imul   rcx,QWORD PTR [rbp-0x28],0x68
  403011:	48 01 c8             	add    rax,rcx
  403014:	48 89 45 e0          	mov    QWORD PTR [rbp-0x20],rax
  403018:	48 8b 45 e0          	mov    rax,QWORD PTR [rbp-0x20]
  40301c:	48 83 78 30 00       	cmp    QWORD PTR [rax+0x30],0x0
  403021:	0f 84 41 00 00 00    	je     403068 <refreshArcPointers+0x98>
  403027:	48 8b 45 e0          	mov    rax,QWORD PTR [rbp-0x20]
  40302b:	48 8b 40 30          	mov    rax,QWORD PTR [rax+0x30]
  40302f:	83 38 00             	cmp    DWORD PTR [rax],0x0
  403032:	0f 8c 30 00 00 00    	jl     403068 <refreshArcPointers+0x98>
  403038:	48 8b 45 e8          	mov    rax,QWORD PTR [rbp-0x18]
  40303c:	48 8b 4d f0          	mov    rcx,QWORD PTR [rbp-0x10]
  403040:	48 8b 7d f8          	mov    rdi,QWORD PTR [rbp-0x8]
  403044:	48 8b 55 e0          	mov    rdx,QWORD PTR [rbp-0x20]
  403048:	48 8b 52 30          	mov    rdx,QWORD PTR [rdx+0x30]
  40304c:	48 63 32             	movsxd rsi,DWORD PTR [rdx]
  40304f:	48 89 45 d0          	mov    QWORD PTR [rbp-0x30],rax
  403053:	ff d1                	call   rcx
  403055:	48 6b c0 48          	imul   rax,rax,0x48
  403059:	48 8b 4d d0          	mov    rcx,QWORD PTR [rbp-0x30]
  40305d:	48 01 c1             	add    rcx,rax
  403060:	48 8b 45 e0          	mov    rax,QWORD PTR [rbp-0x20]
  403064:	48 89 48 30          	mov    QWORD PTR [rax+0x30],rcx
  403068:	48 8b 45 e0          	mov    rax,QWORD PTR [rbp-0x20]
  40306c:	48 83 78 40 00       	cmp    QWORD PTR [rax+0x40],0x0
  403071:	0f 84 41 00 00 00    	je     4030b8 <refreshArcPointers+0xe8>
  403077:	48 8b 45 e0          	mov    rax,QWORD PTR [rbp-0x20]
  40307b:	48 8b 40 40          	mov    rax,QWORD PTR [rax+0x40]
  40307f:	83 38 00             	cmp    DWORD PTR [rax],0x0
  403082:	0f 8c 30 00 00 00    	jl     4030b8 <refreshArcPointers+0xe8>
  403088:	48 8b 45 e8          	mov    rax,QWORD PTR [rbp-0x18]
  40308c:	48 8b 4d f0          	mov    rcx,QWORD PTR [rbp-0x10]
  403090:	48 8b 7d f8          	mov    rdi,QWORD PTR [rbp-0x8]
  403094:	48 8b 55 e0          	mov    rdx,QWORD PTR [rbp-0x20]
  403098:	48 8b 52 40          	mov    rdx,QWORD PTR [rdx+0x40]
  40309c:	48 63 32             	movsxd rsi,DWORD PTR [rdx]
  40309f:	48 89 45 c8          	mov    QWORD PTR [rbp-0x38],rax
  4030a3:	ff d1                	call   rcx
  4030a5:	48 6b c0 48          	imul   rax,rax,0x48
  4030a9:	48 8b 4d c8          	mov    rcx,QWORD PTR [rbp-0x38]
  4030ad:	48 01 c1             	add    rcx,rax
  4030b0:	48 8b 45 e0          	mov    rax,QWORD PTR [rbp-0x20]
  4030b4:	48 89 48 40          	mov    QWORD PTR [rax+0x40],rcx
  4030b8:	48 8b 45 e0          	mov    rax,QWORD PTR [rbp-0x20]
  4030bc:	48 83 78 38 00       	cmp    QWORD PTR [rax+0x38],0x0
  4030c1:	0f 84 41 00 00 00    	je     403108 <refreshArcPointers+0x138>
  4030c7:	48 8b 45 e0          	mov    rax,QWORD PTR [rbp-0x20]
  4030cb:	48 8b 40 38          	mov    rax,QWORD PTR [rax+0x38]
  4030cf:	83 38 00             	cmp    DWORD PTR [rax],0x0
  4030d2:	0f 8c 30 00 00 00    	jl     403108 <refreshArcPointers+0x138>
  4030d8:	48 8b 45 e8          	mov    rax,QWORD PTR [rbp-0x18]
  4030dc:	48 8b 4d f0          	mov    rcx,QWORD PTR [rbp-0x10]
  4030e0:	48 8b 7d f8          	mov    rdi,QWORD PTR [rbp-0x8]
  4030e4:	48 8b 55 e0          	mov    rdx,QWORD PTR [rbp-0x20]
  4030e8:	48 8b 52 38          	mov    rdx,QWORD PTR [rdx+0x38]
  4030ec:	48 63 32             	movsxd rsi,DWORD PTR [rdx]
  4030ef:	48 89 45 c0          	mov    QWORD PTR [rbp-0x40],rax
  4030f3:	ff d1                	call   rcx
  4030f5:	48 6b c0 48          	imul   rax,rax,0x48
  4030f9:	48 8b 4d c0          	mov    rcx,QWORD PTR [rbp-0x40]
  4030fd:	48 01 c1             	add    rcx,rax
  403100:	48 8b 45 e0          	mov    rax,QWORD PTR [rbp-0x20]
  403104:	48 89 48 38          	mov    QWORD PTR [rax+0x38],rcx
  403108:	e9 00 00 00 00       	jmp    40310d <refreshArcPointers+0x13d>
  40310d:	48 8b 45 d8          	mov    rax,QWORD PTR [rbp-0x28]
  403111:	48 83 c0 01          	add    rax,0x1
  403115:	48 89 45 d8          	mov    QWORD PTR [rbp-0x28],rax
  403119:	e9 ce fe ff ff       	jmp    402fec <refreshArcPointers+0x1c>
  40311e:	31 c0                	xor    eax,eax
  403120:	48 83 c4 40          	add    rsp,0x40
  403124:	5d                   	pop    rbp
  403125:	c3                   	ret    
  403126:	66 2e 0f 1f 84 00 00 	cs nop WORD PTR [rax+rax*1+0x0]
  40312d:	00 00 00 

0000000000403130 <refreshPositions>:
  403130:	55                   	push   rbp
  403131:	48 89 e5             	mov    rbp,rsp
  403134:	48 83 ec 40          	sub    rsp,0x40
  403138:	48 89 7d f8          	mov    QWORD PTR [rbp-0x8],rdi
  40313c:	48 89 75 f0          	mov    QWORD PTR [rbp-0x10],rsi
  403140:	48 89 55 e8          	mov    QWORD PTR [rbp-0x18],rdx
  403144:	48 8b 55 f8          	mov    rdx,QWORD PTR [rbp-0x8]
  403148:	48 8b 92 48 02 00 00 	mov    rdx,QWORD PTR [rdx+0x248]
  40314f:	48 89 55 d8          	mov    QWORD PTR [rbp-0x28],rdx
  403153:	48 8b 7d f8          	mov    rdi,QWORD PTR [rbp-0x8]
  403157:	48 8b 75 f0          	mov    rsi,QWORD PTR [rbp-0x10]
  40315b:	48 8b 55 d8          	mov    rdx,QWORD PTR [rbp-0x28]
  40315f:	e8 6c fe ff ff       	call   402fd0 <refreshArcPointers>
  403164:	48 c7 45 d0 00 00 00 	mov    QWORD PTR [rbp-0x30],0x0
  40316b:	00 
  40316c:	48 89 45 c0          	mov    QWORD PTR [rbp-0x40],rax
  403170:	48 8b 45 d0          	mov    rax,QWORD PTR [rbp-0x30]
  403174:	48 3b 45 e8          	cmp    rax,QWORD PTR [rbp-0x18]
  403178:	0f 8d 6f 00 00 00    	jge    4031ed <refreshPositions+0xbd>
  40317e:	48 8b 45 f8          	mov    rax,QWORD PTR [rbp-0x8]
  403182:	48 8b 80 38 02 00 00 	mov    rax,QWORD PTR [rax+0x238]
  403189:	48 6b 4d d0 48       	imul   rcx,QWORD PTR [rbp-0x30],0x48
  40318e:	48 01 c8             	add    rax,rcx
  403191:	48 89 45 e0          	mov    QWORD PTR [rbp-0x20],rax
  403195:	48 8b 45 e0          	mov    rax,QWORD PTR [rbp-0x20]
  403199:	83 38 00             	cmp    DWORD PTR [rax],0x0
  40319c:	0f 8d 05 00 00 00    	jge    4031a7 <refreshPositions+0x77>
  4031a2:	e9 35 00 00 00       	jmp    4031dc <refreshPositions+0xac>
  4031a7:	48 8b 45 f0          	mov    rax,QWORD PTR [rbp-0x10]
  4031ab:	48 8b 7d f8          	mov    rdi,QWORD PTR [rbp-0x8]
  4031af:	48 8b 4d e0          	mov    rcx,QWORD PTR [rbp-0x20]
  4031b3:	48 63 31             	movsxd rsi,DWORD PTR [rcx]
  4031b6:	ff d0                	call   rax
  4031b8:	ba 48 00 00 00       	mov    edx,0x48
  4031bd:	48 89 45 c8          	mov    QWORD PTR [rbp-0x38],rax
  4031c1:	48 8b 45 d8          	mov    rax,QWORD PTR [rbp-0x28]
  4031c5:	48 6b 4d c8 48       	imul   rcx,QWORD PTR [rbp-0x38],0x48
  4031ca:	48 01 c8             	add    rax,rcx
  4031cd:	48 8b 4d e0          	mov    rcx,QWORD PTR [rbp-0x20]
  4031d1:	48 89 c7             	mov    rdi,rax
  4031d4:	48 89 ce             	mov    rsi,rcx
  4031d7:	e8 d4 de ff ff       	call   4010b0 <memcpy@plt>
  4031dc:	48 8b 45 d0          	mov    rax,QWORD PTR [rbp-0x30]
  4031e0:	48 83 c0 01          	add    rax,0x1
  4031e4:	48 89 45 d0          	mov    QWORD PTR [rbp-0x30],rax
  4031e8:	e9 83 ff ff ff       	jmp    403170 <refreshPositions+0x40>
  4031ed:	31 c0                	xor    eax,eax
  4031ef:	48 8b 4d f8          	mov    rcx,QWORD PTR [rbp-0x8]
  4031f3:	48 8b 89 38 02 00 00 	mov    rcx,QWORD PTR [rcx+0x238]
  4031fa:	48 89 4d e0          	mov    QWORD PTR [rbp-0x20],rcx
  4031fe:	48 8b 4d d8          	mov    rcx,QWORD PTR [rbp-0x28]
  403202:	48 8b 55 f8          	mov    rdx,QWORD PTR [rbp-0x8]
  403206:	48 89 8a 38 02 00 00 	mov    QWORD PTR [rdx+0x238],rcx
  40320d:	48 8b 4d e0          	mov    rcx,QWORD PTR [rbp-0x20]
  403211:	48 8b 55 f8          	mov    rdx,QWORD PTR [rbp-0x8]
  403215:	48 89 8a 48 02 00 00 	mov    QWORD PTR [rdx+0x248],rcx
  40321c:	48 8b 4d d8          	mov    rcx,QWORD PTR [rbp-0x28]
  403220:	48 6b 55 e8 48       	imul   rdx,QWORD PTR [rbp-0x18],0x48
  403225:	48 01 d1             	add    rcx,rdx
  403228:	48 8b 55 f8          	mov    rdx,QWORD PTR [rbp-0x8]
  40322c:	48 89 8a 40 02 00 00 	mov    QWORD PTR [rdx+0x240],rcx
  403233:	48 83 c4 40          	add    rsp,0x40
  403237:	5d                   	pop    rbp
  403238:	c3                   	ret    
  403239:	0f 1f 80 00 00 00 00 	nop    DWORD PTR [rax+0x0]

0000000000403240 <marc_arcs>:
  403240:	55                   	push   rbp
  403241:	48 89 e5             	mov    rbp,rsp
  403244:	48 81 ec 80 00 00 00 	sub    rsp,0x80
  40324b:	48 89 7d f8          	mov    QWORD PTR [rbp-0x8],rdi
  40324f:	48 89 75 f0          	mov    QWORD PTR [rbp-0x10],rsi
  403253:	48 89 55 e8          	mov    QWORD PTR [rbp-0x18],rdx
  403257:	48 89 4d e0          	mov    QWORD PTR [rbp-0x20],rcx
  40325b:	48 c7 45 c0 00 00 00 	mov    QWORD PTR [rbp-0x40],0x0
  403262:	00 
  403263:	48 c7 45 b8 00 00 00 	mov    QWORD PTR [rbp-0x48],0x0
  40326a:	00 
  40326b:	48 c7 45 98 01 00 00 	mov    QWORD PTR [rbp-0x68],0x1
  403272:	00 
  403273:	48 8b 4d 98          	mov    rcx,QWORD PTR [rbp-0x68]
  403277:	48 c1 e1 03          	shl    rcx,0x3
  40327b:	48 89 cf             	mov    rdi,rcx
  40327e:	e8 3d de ff ff       	call   4010c0 <malloc@plt>
  403283:	48 89 45 d0          	mov    QWORD PTR [rbp-0x30],rax
  403287:	48 8b 45 98          	mov    rax,QWORD PTR [rbp-0x68]
  40328b:	48 c1 e0 03          	shl    rax,0x3
  40328f:	48 89 c7             	mov    rdi,rax
  403292:	e8 29 de ff ff       	call   4010c0 <malloc@plt>
  403297:	48 89 45 c8          	mov    QWORD PTR [rbp-0x38],rax
  40329b:	48 8b 45 f8          	mov    rax,QWORD PTR [rbp-0x8]
  40329f:	48 81 b8 98 01 00 00 	cmp    QWORD PTR [rax+0x198],0x3a98
  4032a6:	98 3a 00 00 
  4032aa:	0f 8f 1a 00 00 00    	jg     4032ca <marc_arcs+0x8a>
  4032b0:	48 8b 45 f8          	mov    rax,QWORD PTR [rbp-0x8]
  4032b4:	48 8b 80 c0 01 00 00 	mov    rax,QWORD PTR [rax+0x1c0]
  4032bb:	48 2d 40 42 0f 00    	sub    rax,0xf4240
  4032c1:	48 89 45 d8          	mov    QWORD PTR [rbp-0x28],rax
  4032c5:	e9 15 00 00 00       	jmp    4032df <marc_arcs+0x9f>
  4032ca:	48 8b 45 f8          	mov    rax,QWORD PTR [rbp-0x8]
  4032ce:	48 8b 80 c0 01 00 00 	mov    rax,QWORD PTR [rax+0x1c0]
  4032d5:	48 2d 00 09 3d 00    	sub    rax,0x3d0900
  4032db:	48 89 45 d8          	mov    QWORD PTR [rbp-0x28],rax
  4032df:	48 8b 45 f0          	mov    rax,QWORD PTR [rbp-0x10]
  4032e3:	48 c7 00 00 00 00 00 	mov    QWORD PTR [rax],0x0
  4032ea:	48 c7 45 a8 00 00 00 	mov    QWORD PTR [rbp-0x58],0x0
  4032f1:	00 
  4032f2:	48 8b 45 a8          	mov    rax,QWORD PTR [rbp-0x58]
  4032f6:	48 3b 45 98          	cmp    rax,QWORD PTR [rbp-0x68]
  4032fa:	0f 8d 4f 00 00 00    	jge    40334f <marc_arcs+0x10f>
  403300:	48 8b 45 e8          	mov    rax,QWORD PTR [rbp-0x18]
  403304:	48 8b 4d a8          	mov    rcx,QWORD PTR [rbp-0x58]
  403308:	48 8b 04 c8          	mov    rax,QWORD PTR [rax+rcx*8]
  40330c:	48 8b 4d f0          	mov    rcx,QWORD PTR [rbp-0x10]
  403310:	48 03 01             	add    rax,QWORD PTR [rcx]
  403313:	48 89 01             	mov    QWORD PTR [rcx],rax
  403316:	48 8b 45 e0          	mov    rax,QWORD PTR [rbp-0x20]
  40331a:	48 8b 4d a8          	mov    rcx,QWORD PTR [rbp-0x58]
  40331e:	48 8b 04 c8          	mov    rax,QWORD PTR [rax+rcx*8]
  403322:	48 8b 4d d0          	mov    rcx,QWORD PTR [rbp-0x30]
  403326:	48 8b 55 a8          	mov    rdx,QWORD PTR [rbp-0x58]
  40332a:	48 89 04 d1          	mov    QWORD PTR [rcx+rdx*8],rax
  40332e:	48 8b 45 c8          	mov    rax,QWORD PTR [rbp-0x38]
  403332:	48 8b 4d a8          	mov    rcx,QWORD PTR [rbp-0x58]
  403336:	48 c7 04 c8 00 00 00 	mov    QWORD PTR [rax+rcx*8],0x0
  40333d:	00 
  40333e:	48 8b 45 a8          	mov    rax,QWORD PTR [rbp-0x58]
  403342:	48 83 c0 01          	add    rax,0x1
  403346:	48 89 45 a8          	mov    QWORD PTR [rbp-0x58],rax
  40334a:	e9 a3 ff ff ff       	jmp    4032f2 <marc_arcs+0xb2>
  40334f:	48 8b 45 f8          	mov    rax,QWORD PTR [rbp-0x8]
  403353:	48 8b 80 a8 01 00 00 	mov    rax,QWORD PTR [rax+0x1a8]
  40335a:	48 89 45 b0          	mov    QWORD PTR [rbp-0x50],rax
  40335e:	31 c0                	xor    eax,eax
  403360:	88 c1                	mov    cl,al
  403362:	48 8b 55 c0          	mov    rdx,QWORD PTR [rbp-0x40]
  403366:	48 8b 75 f0          	mov    rsi,QWORD PTR [rbp-0x10]
  40336a:	48 3b 16             	cmp    rdx,QWORD PTR [rsi]
  40336d:	88 4d 97             	mov    BYTE PTR [rbp-0x69],cl
  403370:	0f 8d 0e 00 00 00    	jge    403384 <marc_arcs+0x144>
  403376:	48 8b 45 c0          	mov    rax,QWORD PTR [rbp-0x40]
  40337a:	48 3b 45 d8          	cmp    rax,QWORD PTR [rbp-0x28]
  40337e:	0f 9c c1             	setl   cl
  403381:	88 4d 97             	mov    BYTE PTR [rbp-0x69],cl
  403384:	8a 45 97             	mov    al,BYTE PTR [rbp-0x69]
  403387:	a8 01                	test   al,0x1
  403389:	0f 85 05 00 00 00    	jne    403394 <marc_arcs+0x154>
  40338f:	e9 21 01 00 00       	jmp    4034b5 <marc_arcs+0x275>
  403394:	48 8b 45 c8          	mov    rax,QWORD PTR [rbp-0x38]
  403398:	48 8b 00             	mov    rax,QWORD PTR [rax]
  40339b:	48 8b 4d e8          	mov    rcx,QWORD PTR [rbp-0x18]
  40339f:	48 3b 01             	cmp    rax,QWORD PTR [rcx]
  4033a2:	0f 8d 1b 00 00 00    	jge    4033c3 <marc_arcs+0x183>
  4033a8:	48 8b 45 d0          	mov    rax,QWORD PTR [rbp-0x30]
  4033ac:	48 8b 00             	mov    rax,QWORD PTR [rax]
  4033af:	48 8b 00             	mov    rax,QWORD PTR [rax]
  4033b2:	48 89 45 a0          	mov    QWORD PTR [rbp-0x60],rax
  4033b6:	48 c7 45 b8 00 00 00 	mov    QWORD PTR [rbp-0x48],0x0
  4033bd:	00 
  4033be:	e9 08 00 00 00       	jmp    4033cb <marc_arcs+0x18b>
  4033c3:	48 c7 45 a0 00 00 00 	mov    QWORD PTR [rbp-0x60],0x0
  4033ca:	00 
  4033cb:	48 c7 45 a8 01 00 00 	mov    QWORD PTR [rbp-0x58],0x1
  4033d2:	00 
  4033d3:	48 8b 45 a8          	mov    rax,QWORD PTR [rbp-0x58]
  4033d7:	48 3b 45 98          	cmp    rax,QWORD PTR [rbp-0x68]
  4033db:	0f 8d 78 00 00 00    	jge    403459 <marc_arcs+0x219>
  4033e1:	48 8b 45 c8          	mov    rax,QWORD PTR [rbp-0x38]
  4033e5:	48 8b 4d a8          	mov    rcx,QWORD PTR [rbp-0x58]
  4033e9:	48 8b 04 c8          	mov    rax,QWORD PTR [rax+rcx*8]
  4033ed:	48 8b 4d e8          	mov    rcx,QWORD PTR [rbp-0x18]
  4033f1:	48 8b 55 a8          	mov    rdx,QWORD PTR [rbp-0x58]
  4033f5:	48 3b 04 d1          	cmp    rax,QWORD PTR [rcx+rdx*8]
  4033f9:	0f 8d 44 00 00 00    	jge    403443 <marc_arcs+0x203>
  4033ff:	48 83 7d a0 00       	cmp    QWORD PTR [rbp-0x60],0x0
  403404:	0f 84 1e 00 00 00    	je     403428 <marc_arcs+0x1e8>
  40340a:	48 8b 45 d0          	mov    rax,QWORD PTR [rbp-0x30]
  40340e:	48 8b 4d a8          	mov    rcx,QWORD PTR [rbp-0x58]
  403412:	48 8b 3c c8          	mov    rdi,QWORD PTR [rax+rcx*8]
  403416:	48 8d 75 a0          	lea    rsi,[rbp-0x60]
  40341a:	e8 21 02 00 00       	call   403640 <arc_compare>
  40341f:	83 f8 00             	cmp    eax,0x0
  403422:	0f 8d 1b 00 00 00    	jge    403443 <marc_arcs+0x203>
  403428:	48 8b 45 d0          	mov    rax,QWORD PTR [rbp-0x30]
  40342c:	48 8b 4d a8          	mov    rcx,QWORD PTR [rbp-0x58]
  403430:	48 8b 04 c8          	mov    rax,QWORD PTR [rax+rcx*8]
  403434:	48 8b 00             	mov    rax,QWORD PTR [rax]
  403437:	48 89 45 a0          	mov    QWORD PTR [rbp-0x60],rax
  40343b:	48 8b 45 a8          	mov    rax,QWORD PTR [rbp-0x58]
  40343f:	48 89 45 b8          	mov    QWORD PTR [rbp-0x48],rax
  403443:	e9 00 00 00 00       	jmp    403448 <marc_arcs+0x208>
  403448:	48 8b 45 a8          	mov    rax,QWORD PTR [rbp-0x58]
  40344c:	48 83 c0 01          	add    rax,0x1
  403450:	48 89 45 a8          	mov    QWORD PTR [rbp-0x58],rax
  403454:	e9 7a ff ff ff       	jmp    4033d3 <marc_arcs+0x193>
  403459:	48 8b 45 b0          	mov    rax,QWORD PTR [rbp-0x50]
  40345d:	48 89 c1             	mov    rcx,rax
  403460:	48 83 c1 01          	add    rcx,0x1
  403464:	48 89 4d b0          	mov    QWORD PTR [rbp-0x50],rcx
  403468:	89 c2                	mov    edx,eax
  40346a:	48 8b 45 a0          	mov    rax,QWORD PTR [rbp-0x60]
  40346e:	89 10                	mov    DWORD PTR [rax],edx
  403470:	48 8b 45 a0          	mov    rax,QWORD PTR [rbp-0x60]
  403474:	48 c7 40 38 01 00 00 	mov    QWORD PTR [rax+0x38],0x1
  40347b:	00 
  40347c:	48 8b 45 c0          	mov    rax,QWORD PTR [rbp-0x40]
  403480:	48 83 c0 01          	add    rax,0x1
  403484:	48 89 45 c0          	mov    QWORD PTR [rbp-0x40],rax
  403488:	48 8b 45 d0          	mov    rax,QWORD PTR [rbp-0x30]
  40348c:	48 8b 4d b8          	mov    rcx,QWORD PTR [rbp-0x48]
  403490:	48 8b 34 c8          	mov    rsi,QWORD PTR [rax+rcx*8]
  403494:	48 83 c6 08          	add    rsi,0x8
  403498:	48 89 34 c8          	mov    QWORD PTR [rax+rcx*8],rsi
  40349c:	48 8b 45 c8          	mov    rax,QWORD PTR [rbp-0x38]
  4034a0:	48 8b 4d b8          	mov    rcx,QWORD PTR [rbp-0x48]
  4034a4:	48 8b 34 c8          	mov    rsi,QWORD PTR [rax+rcx*8]
  4034a8:	48 83 c6 01          	add    rsi,0x1
  4034ac:	48 89 34 c8          	mov    QWORD PTR [rax+rcx*8],rsi
  4034b0:	e9 a9 fe ff ff       	jmp    40335e <marc_arcs+0x11e>
  4034b5:	48 8b 45 f0          	mov    rax,QWORD PTR [rbp-0x10]
  4034b9:	48 c7 00 00 00 00 00 	mov    QWORD PTR [rax],0x0
  4034c0:	48 c7 45 a8 00 00 00 	mov    QWORD PTR [rbp-0x58],0x0
  4034c7:	00 
  4034c8:	48 8b 45 a8          	mov    rax,QWORD PTR [rbp-0x58]
  4034cc:	48 3b 45 98          	cmp    rax,QWORD PTR [rbp-0x68]
  4034d0:	0f 8d 27 00 00 00    	jge    4034fd <marc_arcs+0x2bd>
  4034d6:	48 8b 45 c8          	mov    rax,QWORD PTR [rbp-0x38]
  4034da:	48 8b 4d a8          	mov    rcx,QWORD PTR [rbp-0x58]
  4034de:	48 8b 04 c8          	mov    rax,QWORD PTR [rax+rcx*8]
  4034e2:	48 8b 4d f0          	mov    rcx,QWORD PTR [rbp-0x10]
  4034e6:	48 03 01             	add    rax,QWORD PTR [rcx]
  4034e9:	48 89 01             	mov    QWORD PTR [rcx],rax
  4034ec:	48 8b 45 a8          	mov    rax,QWORD PTR [rbp-0x58]
  4034f0:	48 83 c0 01          	add    rax,0x1
  4034f4:	48 89 45 a8          	mov    QWORD PTR [rbp-0x58],rax
  4034f8:	e9 cb ff ff ff       	jmp    4034c8 <marc_arcs+0x288>
  4034fd:	b8 a0 0f 00 00       	mov    eax,0xfa0
  403502:	89 c1                	mov    ecx,eax
  403504:	48 8b 55 f8          	mov    rdx,QWORD PTR [rbp-0x8]
  403508:	48 c7 82 80 02 00 00 	mov    QWORD PTR [rdx+0x280],0xfa0
  40350f:	a0 0f 00 00 
  403513:	48 8b 55 f0          	mov    rdx,QWORD PTR [rbp-0x10]
  403517:	48 8b 12             	mov    rdx,QWORD PTR [rdx]
  40351a:	48 8b 75 f8          	mov    rsi,QWORD PTR [rbp-0x8]
  40351e:	48 03 96 a8 01 00 00 	add    rdx,QWORD PTR [rsi+0x1a8]
  403525:	48 83 ea 01          	sub    rdx,0x1
  403529:	48 89 d0             	mov    rax,rdx
  40352c:	48 99                	cqo    
  40352e:	48 f7 f9             	idiv   rcx
  403531:	48 83 c0 01          	add    rax,0x1
  403535:	48 8b 75 f8          	mov    rsi,QWORD PTR [rbp-0x8]
  403539:	48 89 86 70 02 00 00 	mov    QWORD PTR [rsi+0x270],rax
  403540:	48 8b 45 f0          	mov    rax,QWORD PTR [rbp-0x10]
  403544:	48 8b 00             	mov    rax,QWORD PTR [rax]
  403547:	48 8b 75 f8          	mov    rsi,QWORD PTR [rbp-0x8]
  40354b:	48 03 86 a8 01 00 00 	add    rax,QWORD PTR [rsi+0x1a8]
  403552:	48 99                	cqo    
  403554:	48 f7 f9             	idiv   rcx
  403557:	48 83 fa 00          	cmp    rdx,0x0
  40355b:	0f 84 4a 00 00 00    	je     4035ab <marc_arcs+0x36b>
  403561:	b8 a0 0f 00 00       	mov    eax,0xfa0
  403566:	89 c1                	mov    ecx,eax
  403568:	48 8b 55 f8          	mov    rdx,QWORD PTR [rbp-0x8]
  40356c:	48 8b 92 70 02 00 00 	mov    rdx,QWORD PTR [rdx+0x270]
  403573:	48 8b 75 f0          	mov    rsi,QWORD PTR [rbp-0x10]
  403577:	48 8b 36             	mov    rsi,QWORD PTR [rsi]
  40357a:	48 8b 7d f8          	mov    rdi,QWORD PTR [rbp-0x8]
  40357e:	48 03 b7 a8 01 00 00 	add    rsi,QWORD PTR [rdi+0x1a8]
  403585:	48 89 f0             	mov    rax,rsi
  403588:	48 89 55 88          	mov    QWORD PTR [rbp-0x78],rdx
  40358c:	48 99                	cqo    
  40358e:	48 f7 f9             	idiv   rcx
  403591:	48 29 d1             	sub    rcx,rdx
  403594:	48 8b 55 88          	mov    rdx,QWORD PTR [rbp-0x78]
  403598:	48 29 ca             	sub    rdx,rcx
  40359b:	48 8b 4d f8          	mov    rcx,QWORD PTR [rbp-0x8]
  40359f:	48 89 91 78 02 00 00 	mov    QWORD PTR [rcx+0x278],rdx
  4035a6:	e9 16 00 00 00       	jmp    4035c1 <marc_arcs+0x381>
  4035ab:	48 8b 45 f8          	mov    rax,QWORD PTR [rbp-0x8]
  4035af:	48 8b 80 70 02 00 00 	mov    rax,QWORD PTR [rax+0x270]
  4035b6:	48 8b 4d f8          	mov    rcx,QWORD PTR [rbp-0x8]
  4035ba:	48 89 81 78 02 00 00 	mov    QWORD PTR [rcx+0x278],rax
  4035c1:	e9 00 00 00 00       	jmp    4035c6 <marc_arcs+0x386>
  4035c6:	48 8b 45 f8          	mov    rax,QWORD PTR [rbp-0x8]
  4035ca:	48 83 b8 78 02 00 00 	cmp    QWORD PTR [rax+0x278],0x0
  4035d1:	00 
  4035d2:	0f 8d 3c 00 00 00    	jge    403614 <marc_arcs+0x3d4>
  4035d8:	48 8b 45 f8          	mov    rax,QWORD PTR [rbp-0x8]
  4035dc:	48 8b 80 70 02 00 00 	mov    rax,QWORD PTR [rax+0x270]
  4035e3:	48 8b 4d f8          	mov    rcx,QWORD PTR [rbp-0x8]
  4035e7:	48 03 81 78 02 00 00 	add    rax,QWORD PTR [rcx+0x278]
  4035ee:	48 8b 4d f8          	mov    rcx,QWORD PTR [rbp-0x8]
  4035f2:	48 89 81 78 02 00 00 	mov    QWORD PTR [rcx+0x278],rax
  4035f9:	48 8b 45 f8          	mov    rax,QWORD PTR [rbp-0x8]
  4035fd:	48 8b 88 80 02 00 00 	mov    rcx,QWORD PTR [rax+0x280]
  403604:	48 83 c1 ff          	add    rcx,0xffffffffffffffff
  403608:	48 89 88 80 02 00 00 	mov    QWORD PTR [rax+0x280],rcx
  40360f:	e9 b2 ff ff ff       	jmp    4035c6 <marc_arcs+0x386>
  403614:	48 8b 45 d0          	mov    rax,QWORD PTR [rbp-0x30]
  403618:	48 89 c7             	mov    rdi,rax
  40361b:	e8 10 da ff ff       	call   401030 <free@plt>
  403620:	48 8b 45 c8          	mov    rax,QWORD PTR [rbp-0x38]
  403624:	48 89 c7             	mov    rdi,rax
  403627:	e8 04 da ff ff       	call   401030 <free@plt>
  40362c:	48 81 c4 80 00 00 00 	add    rsp,0x80
  403633:	5d                   	pop    rbp
  403634:	c3                   	ret    
  403635:	66 2e 0f 1f 84 00 00 	cs nop WORD PTR [rax+rax*1+0x0]
  40363c:	00 00 00 
  40363f:	90                   	nop

0000000000403640 <arc_compare>:
  403640:	55                   	push   rbp
  403641:	48 89 e5             	mov    rbp,rsp
  403644:	48 89 7d f0          	mov    QWORD PTR [rbp-0x10],rdi
  403648:	48 89 75 e8          	mov    QWORD PTR [rbp-0x18],rsi
  40364c:	48 8b 75 f0          	mov    rsi,QWORD PTR [rbp-0x10]
  403650:	48 8b 36             	mov    rsi,QWORD PTR [rsi]
  403653:	48 8b 76 38          	mov    rsi,QWORD PTR [rsi+0x38]
  403657:	48 8b 7d e8          	mov    rdi,QWORD PTR [rbp-0x18]
  40365b:	48 8b 3f             	mov    rdi,QWORD PTR [rdi]
  40365e:	48 3b 77 38          	cmp    rsi,QWORD PTR [rdi+0x38]
  403662:	0f 8e 0c 00 00 00    	jle    403674 <arc_compare+0x34>
  403668:	c7 45 fc 01 00 00 00 	mov    DWORD PTR [rbp-0x4],0x1
  40366f:	e9 53 00 00 00       	jmp    4036c7 <arc_compare+0x87>
  403674:	48 8b 45 f0          	mov    rax,QWORD PTR [rbp-0x10]
  403678:	48 8b 00             	mov    rax,QWORD PTR [rax]
  40367b:	48 8b 40 38          	mov    rax,QWORD PTR [rax+0x38]
  40367f:	48 8b 4d e8          	mov    rcx,QWORD PTR [rbp-0x18]
  403683:	48 8b 09             	mov    rcx,QWORD PTR [rcx]
  403686:	48 3b 41 38          	cmp    rax,QWORD PTR [rcx+0x38]
  40368a:	0f 8d 0c 00 00 00    	jge    40369c <arc_compare+0x5c>
  403690:	c7 45 fc ff ff ff ff 	mov    DWORD PTR [rbp-0x4],0xffffffff
  403697:	e9 2b 00 00 00       	jmp    4036c7 <arc_compare+0x87>
  40369c:	48 8b 45 f0          	mov    rax,QWORD PTR [rbp-0x10]
  4036a0:	48 8b 00             	mov    rax,QWORD PTR [rax]
  4036a3:	8b 08                	mov    ecx,DWORD PTR [rax]
  4036a5:	48 8b 45 e8          	mov    rax,QWORD PTR [rbp-0x18]
  4036a9:	48 8b 00             	mov    rax,QWORD PTR [rax]
  4036ac:	3b 08                	cmp    ecx,DWORD PTR [rax]
  4036ae:	0f 8d 0c 00 00 00    	jge    4036c0 <arc_compare+0x80>
  4036b4:	c7 45 fc ff ff ff ff 	mov    DWORD PTR [rbp-0x4],0xffffffff
  4036bb:	e9 07 00 00 00       	jmp    4036c7 <arc_compare+0x87>
  4036c0:	c7 45 fc 01 00 00 00 	mov    DWORD PTR [rbp-0x4],0x1
  4036c7:	8b 45 fc             	mov    eax,DWORD PTR [rbp-0x4]
  4036ca:	5d                   	pop    rbp
  4036cb:	c3                   	ret    
  4036cc:	0f 1f 40 00          	nop    DWORD PTR [rax+0x0]

00000000004036d0 <resize_prob>:
  4036d0:	55                   	push   rbp
  4036d1:	48 89 e5             	mov    rbp,rsp
  4036d4:	48 83 ec 50          	sub    rsp,0x50
  4036d8:	48 89 7d f0          	mov    QWORD PTR [rbp-0x10],rdi
  4036dc:	48 8b 7d f0          	mov    rdi,QWORD PTR [rbp-0x10]
  4036e0:	48 8b bf c8 01 00 00 	mov    rdi,QWORD PTR [rdi+0x1c8]
  4036e7:	48 8b 45 f0          	mov    rax,QWORD PTR [rbp-0x10]
  4036eb:	48 03 b8 a0 01 00 00 	add    rdi,QWORD PTR [rax+0x1a0]
  4036f2:	48 89 b8 a0 01 00 00 	mov    QWORD PTR [rax+0x1a0],rdi
  4036f9:	48 8b 45 f0          	mov    rax,QWORD PTR [rbp-0x10]
  4036fd:	48 8b 80 c8 01 00 00 	mov    rax,QWORD PTR [rax+0x1c8]
  403704:	48 8b 7d f0          	mov    rdi,QWORD PTR [rbp-0x10]
  403708:	48 03 87 c0 01 00 00 	add    rax,QWORD PTR [rdi+0x1c0]
  40370f:	48 89 87 c0 01 00 00 	mov    QWORD PTR [rdi+0x1c0],rax
  403716:	48 8b 45 f0          	mov    rax,QWORD PTR [rbp-0x10]
  40371a:	48 8b 80 38 02 00 00 	mov    rax,QWORD PTR [rax+0x238]
  403721:	48 8b 7d f0          	mov    rdi,QWORD PTR [rbp-0x10]
  403725:	48 6b b7 a0 01 00 00 	imul   rsi,QWORD PTR [rdi+0x1a0],0x48
  40372c:	48 
  40372d:	48 89 c7             	mov    rdi,rax
  403730:	e8 bb d9 ff ff       	call   4010f0 <realloc@plt>
  403735:	48 89 45 e8          	mov    QWORD PTR [rbp-0x18],rax
  403739:	48 83 7d e8 00       	cmp    QWORD PTR [rbp-0x18],0x0
  40373e:	0f 85 35 00 00 00    	jne    403779 <resize_prob+0xa9>
  403744:	48 8b 75 f0          	mov    rsi,QWORD PTR [rbp-0x10]
  403748:	48 bf 05 83 40 00 00 	movabs rdi,0x408305
  40374f:	00 00 00 
  403752:	b0 00                	mov    al,0x0
  403754:	e8 07 d9 ff ff       	call   401060 <printf@plt>
  403759:	48 8b 3c 25 c0 a0 40 	mov    rdi,QWORD PTR ds:0x40a0c0
  403760:	00 
  403761:	89 45 bc             	mov    DWORD PTR [rbp-0x44],eax
  403764:	e8 67 d9 ff ff       	call   4010d0 <fflush@plt>
  403769:	48 c7 45 f8 ff ff ff 	mov    QWORD PTR [rbp-0x8],0xffffffffffffffff
  403770:	ff 
  403771:	89 45 b8             	mov    DWORD PTR [rbp-0x48],eax
  403774:	e9 26 01 00 00       	jmp    40389f <resize_prob+0x1cf>
  403779:	48 8b 45 f0          	mov    rax,QWORD PTR [rbp-0x10]
  40377d:	48 8b 80 38 02 00 00 	mov    rax,QWORD PTR [rax+0x238]
  403784:	48 89 45 e0          	mov    QWORD PTR [rbp-0x20],rax
  403788:	48 8b 45 e8          	mov    rax,QWORD PTR [rbp-0x18]
  40378c:	48 8b 4d f0          	mov    rcx,QWORD PTR [rbp-0x10]
  403790:	48 89 81 38 02 00 00 	mov    QWORD PTR [rcx+0x238],rax
  403797:	48 8b 45 e8          	mov    rax,QWORD PTR [rbp-0x18]
  40379b:	48 8b 4d f0          	mov    rcx,QWORD PTR [rbp-0x10]
  40379f:	48 6b 89 a8 01 00 00 	imul   rcx,QWORD PTR [rcx+0x1a8],0x48
  4037a6:	48 
  4037a7:	48 01 c8             	add    rax,rcx
  4037aa:	48 8b 4d f0          	mov    rcx,QWORD PTR [rbp-0x10]
  4037ae:	48 89 81 40 02 00 00 	mov    QWORD PTR [rcx+0x240],rax
  4037b5:	48 8b 45 f0          	mov    rax,QWORD PTR [rbp-0x10]
  4037b9:	48 8b 80 28 02 00 00 	mov    rax,QWORD PTR [rax+0x228]
  4037c0:	48 89 45 d8          	mov    QWORD PTR [rbp-0x28],rax
  4037c4:	48 89 45 c8          	mov    QWORD PTR [rbp-0x38],rax
  4037c8:	48 8b 45 d8          	mov    rax,QWORD PTR [rbp-0x28]
  4037cc:	48 83 c0 68          	add    rax,0x68
  4037d0:	48 89 45 d8          	mov    QWORD PTR [rbp-0x28],rax
  4037d4:	48 8b 45 f0          	mov    rax,QWORD PTR [rbp-0x10]
  4037d8:	48 8b 80 30 02 00 00 	mov    rax,QWORD PTR [rax+0x230]
  4037df:	48 89 45 d0          	mov    QWORD PTR [rbp-0x30],rax
  4037e3:	48 8b 45 d8          	mov    rax,QWORD PTR [rbp-0x28]
  4037e7:	48 3b 45 d0          	cmp    rax,QWORD PTR [rbp-0x30]
  4037eb:	0f 83 74 00 00 00    	jae    403865 <resize_prob+0x195>
  4037f1:	48 8b 45 d8          	mov    rax,QWORD PTR [rbp-0x28]
  4037f5:	48 83 78 30 00       	cmp    QWORD PTR [rax+0x30],0x0
  4037fa:	0f 84 4f 00 00 00    	je     40384f <resize_prob+0x17f>
  403800:	48 8b 45 d8          	mov    rax,QWORD PTR [rbp-0x28]
  403804:	48 8b 40 18          	mov    rax,QWORD PTR [rax+0x18]
  403808:	48 3b 45 c8          	cmp    rax,QWORD PTR [rbp-0x38]
  40380c:	0f 84 3d 00 00 00    	je     40384f <resize_prob+0x17f>
  403812:	b8 48 00 00 00       	mov    eax,0x48
  403817:	89 c1                	mov    ecx,eax
  403819:	48 8b 55 d8          	mov    rdx,QWORD PTR [rbp-0x28]
  40381d:	48 8b 52 30          	mov    rdx,QWORD PTR [rdx+0x30]
  403821:	48 8b 75 e0          	mov    rsi,QWORD PTR [rbp-0x20]
  403825:	48 29 f2             	sub    rdx,rsi
  403828:	48 89 d0             	mov    rax,rdx
  40382b:	48 99                	cqo    
  40382d:	48 f7 f9             	idiv   rcx
  403830:	48 89 45 c0          	mov    QWORD PTR [rbp-0x40],rax
  403834:	48 8b 45 f0          	mov    rax,QWORD PTR [rbp-0x10]
  403838:	48 8b 80 38 02 00 00 	mov    rax,QWORD PTR [rax+0x238]
  40383f:	48 6b 4d c0 48       	imul   rcx,QWORD PTR [rbp-0x40],0x48
  403844:	48 01 c8             	add    rax,rcx
  403847:	48 8b 4d d8          	mov    rcx,QWORD PTR [rbp-0x28]
  40384b:	48 89 41 30          	mov    QWORD PTR [rcx+0x30],rax
  40384f:	e9 00 00 00 00       	jmp    403854 <resize_prob+0x184>
  403854:	48 8b 45 d8          	mov    rax,QWORD PTR [rbp-0x28]
  403858:	48 83 c0 68          	add    rax,0x68
  40385c:	48 89 45 d8          	mov    QWORD PTR [rbp-0x28],rax
  403860:	e9 7e ff ff ff       	jmp    4037e3 <resize_prob+0x113>
  403865:	48 8b 45 f0          	mov    rax,QWORD PTR [rbp-0x10]
  403869:	48 8b 80 48 02 00 00 	mov    rax,QWORD PTR [rax+0x248]
  403870:	48 8b 4d f0          	mov    rcx,QWORD PTR [rbp-0x10]
  403874:	48 6b b1 a0 01 00 00 	imul   rsi,QWORD PTR [rcx+0x1a0],0x48
  40387b:	48 
  40387c:	48 89 c7             	mov    rdi,rax
  40387f:	e8 6c d8 ff ff       	call   4010f0 <realloc@plt>
  403884:	48 89 45 e8          	mov    QWORD PTR [rbp-0x18],rax
  403888:	48 8b 45 e8          	mov    rax,QWORD PTR [rbp-0x18]
  40388c:	48 8b 4d f0          	mov    rcx,QWORD PTR [rbp-0x10]
  403890:	48 89 81 48 02 00 00 	mov    QWORD PTR [rcx+0x248],rax
  403897:	48 c7 45 f8 00 00 00 	mov    QWORD PTR [rbp-0x8],0x0
  40389e:	00 
  40389f:	48 8b 45 f8          	mov    rax,QWORD PTR [rbp-0x8]
  4038a3:	48 83 c4 50          	add    rsp,0x50
  4038a7:	5d                   	pop    rbp
  4038a8:	c3                   	ret    
  4038a9:	0f 1f 80 00 00 00 00 	nop    DWORD PTR [rax+0x0]

00000000004038b0 <insert_new_arc>:
  4038b0:	55                   	push   rbp
  4038b1:	48 89 e5             	mov    rbp,rsp
  4038b4:	50                   	push   rax
  4038b5:	48 8b 45 18          	mov    rax,QWORD PTR [rbp+0x18]
  4038b9:	4c 8b 55 10          	mov    r10,QWORD PTR [rbp+0x10]
  4038bd:	48 89 7d f8          	mov    QWORD PTR [rbp-0x8],rdi
  4038c1:	48 89 75 f0          	mov    QWORD PTR [rbp-0x10],rsi
  4038c5:	48 89 55 e8          	mov    QWORD PTR [rbp-0x18],rdx
  4038c9:	48 89 4d e0          	mov    QWORD PTR [rbp-0x20],rcx
  4038cd:	4c 89 45 d8          	mov    QWORD PTR [rbp-0x28],r8
  4038d1:	4c 89 4d d0          	mov    QWORD PTR [rbp-0x30],r9
  4038d5:	48 8b 4d e8          	mov    rcx,QWORD PTR [rbp-0x18]
  4038d9:	48 8b 55 f8          	mov    rdx,QWORD PTR [rbp-0x8]
  4038dd:	48 6b 75 f0 48       	imul   rsi,QWORD PTR [rbp-0x10],0x48
  4038e2:	48 01 f2             	add    rdx,rsi
  4038e5:	48 89 4a 10          	mov    QWORD PTR [rdx+0x10],rcx
  4038e9:	48 8b 4d e0          	mov    rcx,QWORD PTR [rbp-0x20]
  4038ed:	48 8b 55 f8          	mov    rdx,QWORD PTR [rbp-0x8]
  4038f1:	48 6b 75 f0 48       	imul   rsi,QWORD PTR [rbp-0x10],0x48
  4038f6:	48 01 f2             	add    rdx,rsi
  4038f9:	48 89 4a 18          	mov    QWORD PTR [rdx+0x18],rcx
  4038fd:	48 8b 4d d8          	mov    rcx,QWORD PTR [rbp-0x28]
  403901:	48 8b 55 f8          	mov    rdx,QWORD PTR [rbp-0x8]
  403905:	48 6b 75 f0 48       	imul   rsi,QWORD PTR [rbp-0x10],0x48
  40390a:	48 01 f2             	add    rdx,rsi
  40390d:	48 89 4a 40          	mov    QWORD PTR [rdx+0x40],rcx
  403911:	48 8b 4d d8          	mov    rcx,QWORD PTR [rbp-0x28]
  403915:	48 8b 55 f8          	mov    rdx,QWORD PTR [rbp-0x8]
  403919:	48 6b 75 f0 48       	imul   rsi,QWORD PTR [rbp-0x10],0x48
  40391e:	48 01 f2             	add    rdx,rsi
  403921:	48 89 4a 08          	mov    QWORD PTR [rdx+0x8],rcx
  403925:	48 8b 4d d0          	mov    rcx,QWORD PTR [rbp-0x30]
  403929:	48 8b 55 f8          	mov    rdx,QWORD PTR [rbp-0x8]
  40392d:	48 6b 75 f0 48       	imul   rsi,QWORD PTR [rbp-0x10],0x48
  403932:	48 01 f2             	add    rdx,rsi
  403935:	48 89 4a 38          	mov    QWORD PTR [rdx+0x38],rcx
  403939:	48 8b 4d 18          	mov    rcx,QWORD PTR [rbp+0x18]
  40393d:	41 89 cb             	mov    r11d,ecx
  403940:	48 8b 4d f8          	mov    rcx,QWORD PTR [rbp-0x8]
  403944:	48 6b 55 f0 48       	imul   rdx,QWORD PTR [rbp-0x10],0x48
  403949:	48 01 d1             	add    rcx,rdx
  40394c:	44 89 19             	mov    DWORD PTR [rcx],r11d
  40394f:	48 8b 4d f0          	mov    rcx,QWORD PTR [rbp-0x10]
  403953:	48 83 c1 01          	add    rcx,0x1
  403957:	48 89 4d c8          	mov    QWORD PTR [rbp-0x38],rcx
  40395b:	4c 89 55 c0          	mov    QWORD PTR [rbp-0x40],r10
  40395f:	48 89 45 b8          	mov    QWORD PTR [rbp-0x48],rax
  403963:	31 c0                	xor    eax,eax
  403965:	88 c1                	mov    cl,al
  403967:	48 8b 55 c8          	mov    rdx,QWORD PTR [rbp-0x38]
  40396b:	48 83 ea 01          	sub    rdx,0x1
  40396f:	48 83 fa 00          	cmp    rdx,0x0
  403973:	88 4d b7             	mov    BYTE PTR [rbp-0x49],cl
  403976:	0f 84 37 00 00 00    	je     4039b3 <insert_new_arc+0x103>
  40397c:	b8 02 00 00 00       	mov    eax,0x2
  403981:	89 c1                	mov    ecx,eax
  403983:	48 8b 55 d0          	mov    rdx,QWORD PTR [rbp-0x30]
  403987:	48 8b 75 f8          	mov    rsi,QWORD PTR [rbp-0x8]
  40398b:	48 8b 45 c8          	mov    rax,QWORD PTR [rbp-0x38]
  40398f:	48 89 55 a8          	mov    QWORD PTR [rbp-0x58],rdx
  403993:	48 99                	cqo    
  403995:	48 f7 f9             	idiv   rcx
  403998:	48 83 e8 01          	sub    rax,0x1
  40399c:	48 6b c0 48          	imul   rax,rax,0x48
  4039a0:	48 01 c6             	add    rsi,rax
  4039a3:	48 8b 45 a8          	mov    rax,QWORD PTR [rbp-0x58]
  4039a7:	48 3b 46 38          	cmp    rax,QWORD PTR [rsi+0x38]
  4039ab:	40 0f 9f c7          	setg   dil
  4039af:	40 88 7d b7          	mov    BYTE PTR [rbp-0x49],dil
  4039b3:	8a 45 b7             	mov    al,BYTE PTR [rbp-0x49]
  4039b6:	a8 01                	test   al,0x1
  4039b8:	0f 85 05 00 00 00    	jne    4039c3 <insert_new_arc+0x113>
  4039be:	e9 32 02 00 00       	jmp    403bf5 <insert_new_arc+0x345>
  4039c3:	b8 02 00 00 00       	mov    eax,0x2
  4039c8:	89 c1                	mov    ecx,eax
  4039ca:	48 8b 55 f8          	mov    rdx,QWORD PTR [rbp-0x8]
  4039ce:	48 8b 45 c8          	mov    rax,QWORD PTR [rbp-0x38]
  4039d2:	48 89 55 a0          	mov    QWORD PTR [rbp-0x60],rdx
  4039d6:	48 99                	cqo    
  4039d8:	48 f7 f9             	idiv   rcx
  4039db:	48 83 e8 01          	sub    rax,0x1
  4039df:	48 6b c0 48          	imul   rax,rax,0x48
  4039e3:	48 8b 75 a0          	mov    rsi,QWORD PTR [rbp-0x60]
  4039e7:	48 01 c6             	add    rsi,rax
  4039ea:	48 8b 46 10          	mov    rax,QWORD PTR [rsi+0x10]
  4039ee:	48 8b 75 f8          	mov    rsi,QWORD PTR [rbp-0x8]
  4039f2:	48 8b 7d c8          	mov    rdi,QWORD PTR [rbp-0x38]
  4039f6:	48 83 ef 01          	sub    rdi,0x1
  4039fa:	48 6b ff 48          	imul   rdi,rdi,0x48
  4039fe:	48 01 fe             	add    rsi,rdi
  403a01:	48 89 46 10          	mov    QWORD PTR [rsi+0x10],rax
  403a05:	48 8b 45 f8          	mov    rax,QWORD PTR [rbp-0x8]
  403a09:	48 8b 75 c8          	mov    rsi,QWORD PTR [rbp-0x38]
  403a0d:	48 89 45 98          	mov    QWORD PTR [rbp-0x68],rax
  403a11:	48 89 f0             	mov    rax,rsi
  403a14:	48 99                	cqo    
  403a16:	48 f7 f9             	idiv   rcx
  403a19:	48 83 e8 01          	sub    rax,0x1
  403a1d:	48 6b c0 48          	imul   rax,rax,0x48
  403a21:	48 8b 75 98          	mov    rsi,QWORD PTR [rbp-0x68]
  403a25:	48 01 c6             	add    rsi,rax
  403a28:	48 8b 46 18          	mov    rax,QWORD PTR [rsi+0x18]
  403a2c:	48 8b 75 f8          	mov    rsi,QWORD PTR [rbp-0x8]
  403a30:	48 8b 7d c8          	mov    rdi,QWORD PTR [rbp-0x38]
  403a34:	48 83 ef 01          	sub    rdi,0x1
  403a38:	48 6b ff 48          	imul   rdi,rdi,0x48
  403a3c:	48 01 fe             	add    rsi,rdi
  403a3f:	48 89 46 18          	mov    QWORD PTR [rsi+0x18],rax
  403a43:	48 8b 45 f8          	mov    rax,QWORD PTR [rbp-0x8]
  403a47:	48 8b 75 c8          	mov    rsi,QWORD PTR [rbp-0x38]
  403a4b:	48 89 45 90          	mov    QWORD PTR [rbp-0x70],rax
  403a4f:	48 89 f0             	mov    rax,rsi
  403a52:	48 99                	cqo    
  403a54:	48 f7 f9             	idiv   rcx
  403a57:	48 83 e8 01          	sub    rax,0x1
  403a5b:	48 6b c0 48          	imul   rax,rax,0x48
  403a5f:	48 8b 75 90          	mov    rsi,QWORD PTR [rbp-0x70]
  403a63:	48 01 c6             	add    rsi,rax
  403a66:	48 8b 46 08          	mov    rax,QWORD PTR [rsi+0x8]
  403a6a:	48 8b 75 f8          	mov    rsi,QWORD PTR [rbp-0x8]
  403a6e:	48 8b 7d c8          	mov    rdi,QWORD PTR [rbp-0x38]
  403a72:	48 83 ef 01          	sub    rdi,0x1
  403a76:	48 6b ff 48          	imul   rdi,rdi,0x48
  403a7a:	48 01 fe             	add    rsi,rdi
  403a7d:	48 89 46 08          	mov    QWORD PTR [rsi+0x8],rax
  403a81:	48 8b 45 f8          	mov    rax,QWORD PTR [rbp-0x8]
  403a85:	48 8b 75 c8          	mov    rsi,QWORD PTR [rbp-0x38]
  403a89:	48 89 45 88          	mov    QWORD PTR [rbp-0x78],rax
  403a8d:	48 89 f0             	mov    rax,rsi
  403a90:	48 99                	cqo    
  403a92:	48 f7 f9             	idiv   rcx
  403a95:	48 83 e8 01          	sub    rax,0x1
  403a99:	48 6b c0 48          	imul   rax,rax,0x48
  403a9d:	48 8b 75 88          	mov    rsi,QWORD PTR [rbp-0x78]
  403aa1:	48 01 c6             	add    rsi,rax
  403aa4:	48 8b 46 08          	mov    rax,QWORD PTR [rsi+0x8]
  403aa8:	48 8b 75 f8          	mov    rsi,QWORD PTR [rbp-0x8]
  403aac:	48 8b 7d c8          	mov    rdi,QWORD PTR [rbp-0x38]
  403ab0:	48 83 ef 01          	sub    rdi,0x1
  403ab4:	48 6b ff 48          	imul   rdi,rdi,0x48
  403ab8:	48 01 fe             	add    rsi,rdi
  403abb:	48 89 46 40          	mov    QWORD PTR [rsi+0x40],rax
  403abf:	48 8b 45 f8          	mov    rax,QWORD PTR [rbp-0x8]
  403ac3:	48 8b 75 c8          	mov    rsi,QWORD PTR [rbp-0x38]
  403ac7:	48 89 45 80          	mov    QWORD PTR [rbp-0x80],rax
  403acb:	48 89 f0             	mov    rax,rsi
  403ace:	48 99                	cqo    
  403ad0:	48 f7 f9             	idiv   rcx
  403ad3:	48 83 e8 01          	sub    rax,0x1
  403ad7:	48 6b c0 48          	imul   rax,rax,0x48
  403adb:	48 8b 75 80          	mov    rsi,QWORD PTR [rbp-0x80]
  403adf:	48 01 c6             	add    rsi,rax
  403ae2:	48 8b 46 38          	mov    rax,QWORD PTR [rsi+0x38]
  403ae6:	48 8b 75 f8          	mov    rsi,QWORD PTR [rbp-0x8]
  403aea:	48 8b 7d c8          	mov    rdi,QWORD PTR [rbp-0x38]
  403aee:	48 83 ef 01          	sub    rdi,0x1
  403af2:	48 6b ff 48          	imul   rdi,rdi,0x48
  403af6:	48 01 fe             	add    rsi,rdi
  403af9:	48 89 46 38          	mov    QWORD PTR [rsi+0x38],rax
  403afd:	48 8b 45 f8          	mov    rax,QWORD PTR [rbp-0x8]
  403b01:	48 8b 75 c8          	mov    rsi,QWORD PTR [rbp-0x38]
  403b05:	48 89 85 78 ff ff ff 	mov    QWORD PTR [rbp-0x88],rax
  403b0c:	48 89 f0             	mov    rax,rsi
  403b0f:	48 99                	cqo    
  403b11:	48 f7 f9             	idiv   rcx
  403b14:	48 83 e8 01          	sub    rax,0x1
  403b18:	48 6b c0 48          	imul   rax,rax,0x48
  403b1c:	48 8b b5 78 ff ff ff 	mov    rsi,QWORD PTR [rbp-0x88]
  403b23:	48 01 c6             	add    rsi,rax
  403b26:	44 8b 06             	mov    r8d,DWORD PTR [rsi]
  403b29:	48 8b 45 f8          	mov    rax,QWORD PTR [rbp-0x8]
  403b2d:	48 8b 75 c8          	mov    rsi,QWORD PTR [rbp-0x38]
  403b31:	48 83 ee 01          	sub    rsi,0x1
  403b35:	48 6b f6 48          	imul   rsi,rsi,0x48
  403b39:	48 01 f0             	add    rax,rsi
  403b3c:	44 89 00             	mov    DWORD PTR [rax],r8d
  403b3f:	48 8b 45 c8          	mov    rax,QWORD PTR [rbp-0x38]
  403b43:	48 99                	cqo    
  403b45:	48 f7 f9             	idiv   rcx
  403b48:	48 89 45 c8          	mov    QWORD PTR [rbp-0x38],rax
  403b4c:	48 8b 45 e8          	mov    rax,QWORD PTR [rbp-0x18]
  403b50:	48 8b 4d f8          	mov    rcx,QWORD PTR [rbp-0x8]
  403b54:	48 8b 75 c8          	mov    rsi,QWORD PTR [rbp-0x38]
  403b58:	48 83 ee 01          	sub    rsi,0x1
  403b5c:	48 6b f6 48          	imul   rsi,rsi,0x48
  403b60:	48 01 f1             	add    rcx,rsi
  403b63:	48 89 41 10          	mov    QWORD PTR [rcx+0x10],rax
  403b67:	48 8b 45 e0          	mov    rax,QWORD PTR [rbp-0x20]
  403b6b:	48 8b 4d f8          	mov    rcx,QWORD PTR [rbp-0x8]
  403b6f:	48 8b 75 c8          	mov    rsi,QWORD PTR [rbp-0x38]
  403b73:	48 83 ee 01          	sub    rsi,0x1
  403b77:	48 6b f6 48          	imul   rsi,rsi,0x48
  403b7b:	48 01 f1             	add    rcx,rsi
  403b7e:	48 89 41 18          	mov    QWORD PTR [rcx+0x18],rax
  403b82:	48 8b 45 d8          	mov    rax,QWORD PTR [rbp-0x28]
  403b86:	48 8b 4d f8          	mov    rcx,QWORD PTR [rbp-0x8]
  403b8a:	48 8b 75 c8          	mov    rsi,QWORD PTR [rbp-0x38]
  403b8e:	48 83 ee 01          	sub    rsi,0x1
  403b92:	48 6b f6 48          	imul   rsi,rsi,0x48
  403b96:	48 01 f1             	add    rcx,rsi
  403b99:	48 89 41 08          	mov    QWORD PTR [rcx+0x8],rax
  403b9d:	48 8b 45 d8          	mov    rax,QWORD PTR [rbp-0x28]
  403ba1:	48 8b 4d f8          	mov    rcx,QWORD PTR [rbp-0x8]
  403ba5:	48 8b 75 c8          	mov    rsi,QWORD PTR [rbp-0x38]
  403ba9:	48 83 ee 01          	sub    rsi,0x1
  403bad:	48 6b f6 48          	imul   rsi,rsi,0x48
  403bb1:	48 01 f1             	add    rcx,rsi
  403bb4:	48 89 41 40          	mov    QWORD PTR [rcx+0x40],rax
  403bb8:	48 8b 45 d0          	mov    rax,QWORD PTR [rbp-0x30]
  403bbc:	48 8b 4d f8          	mov    rcx,QWORD PTR [rbp-0x8]
  403bc0:	48 8b 75 c8          	mov    rsi,QWORD PTR [rbp-0x38]
  403bc4:	48 83 ee 01          	sub    rsi,0x1
  403bc8:	48 6b f6 48          	imul   rsi,rsi,0x48
  403bcc:	48 01 f1             	add    rcx,rsi
  403bcf:	48 89 41 38          	mov    QWORD PTR [rcx+0x38],rax
  403bd3:	48 8b 45 18          	mov    rax,QWORD PTR [rbp+0x18]
  403bd7:	41 89 c0             	mov    r8d,eax
  403bda:	48 8b 45 f8          	mov    rax,QWORD PTR [rbp-0x8]
  403bde:	48 8b 4d c8          	mov    rcx,QWORD PTR [rbp-0x38]
  403be2:	48 83 e9 01          	sub    rcx,0x1
  403be6:	48 6b c9 48          	imul   rcx,rcx,0x48
  403bea:	48 01 c8             	add    rax,rcx
  403bed:	44 89 00             	mov    DWORD PTR [rax],r8d
  403bf0:	e9 6e fd ff ff       	jmp    403963 <insert_new_arc+0xb3>
  403bf5:	48 83 c4 08          	add    rsp,0x8
  403bf9:	5d                   	pop    rbp
  403bfa:	c3                   	ret    
  403bfb:	0f 1f 44 00 00       	nop    DWORD PTR [rax+rax*1+0x0]

0000000000403c00 <replace_weaker_arc>:
  403c00:	55                   	push   rbp
  403c01:	48 89 e5             	mov    rbp,rsp
  403c04:	48 8b 45 10          	mov    rax,QWORD PTR [rbp+0x10]
  403c08:	48 89 7d f8          	mov    QWORD PTR [rbp-0x8],rdi
  403c0c:	48 89 75 f0          	mov    QWORD PTR [rbp-0x10],rsi
  403c10:	48 89 55 e8          	mov    QWORD PTR [rbp-0x18],rdx
  403c14:	48 89 4d e0          	mov    QWORD PTR [rbp-0x20],rcx
  403c18:	4c 89 45 d8          	mov    QWORD PTR [rbp-0x28],r8
  403c1c:	4c 89 4d d0          	mov    QWORD PTR [rbp-0x30],r9
  403c20:	48 8b 4d f0          	mov    rcx,QWORD PTR [rbp-0x10]
  403c24:	48 8b 55 f8          	mov    rdx,QWORD PTR [rbp-0x8]
  403c28:	48 89 4a 10          	mov    QWORD PTR [rdx+0x10],rcx
  403c2c:	48 8b 4d e8          	mov    rcx,QWORD PTR [rbp-0x18]
  403c30:	48 8b 55 f8          	mov    rdx,QWORD PTR [rbp-0x8]
  403c34:	48 89 4a 18          	mov    QWORD PTR [rdx+0x18],rcx
  403c38:	48 8b 4d e0          	mov    rcx,QWORD PTR [rbp-0x20]
  403c3c:	48 8b 55 f8          	mov    rdx,QWORD PTR [rbp-0x8]
  403c40:	48 89 4a 40          	mov    QWORD PTR [rdx+0x40],rcx
  403c44:	48 8b 4d e0          	mov    rcx,QWORD PTR [rbp-0x20]
  403c48:	48 8b 55 f8          	mov    rdx,QWORD PTR [rbp-0x8]
  403c4c:	48 89 4a 08          	mov    QWORD PTR [rdx+0x8],rcx
  403c50:	48 8b 4d d8          	mov    rcx,QWORD PTR [rbp-0x28]
  403c54:	48 8b 55 f8          	mov    rdx,QWORD PTR [rbp-0x8]
  403c58:	48 89 4a 38          	mov    QWORD PTR [rdx+0x38],rcx
  403c5c:	48 8b 4d 10          	mov    rcx,QWORD PTR [rbp+0x10]
  403c60:	41 89 ca             	mov    r10d,ecx
  403c63:	48 8b 4d f8          	mov    rcx,QWORD PTR [rbp-0x8]
  403c67:	44 89 11             	mov    DWORD PTR [rcx],r10d
  403c6a:	48 c7 45 c8 01 00 00 	mov    QWORD PTR [rbp-0x38],0x1
  403c71:	00 
  403c72:	48 8b 4d f8          	mov    rcx,QWORD PTR [rbp-0x8]
  403c76:	48 8b 89 80 00 00 00 	mov    rcx,QWORD PTR [rcx+0x80]
  403c7d:	48 8b 55 f8          	mov    rdx,QWORD PTR [rbp-0x8]
  403c81:	48 8b 92 c8 00 00 00 	mov    rdx,QWORD PTR [rdx+0xc8]
  403c88:	48 39 d1             	cmp    rcx,rdx
  403c8b:	41 ba 02 00 00 00    	mov    r10d,0x2
  403c91:	41 bb 03 00 00 00    	mov    r11d,0x3
  403c97:	45 0f 4f da          	cmovg  r11d,r10d
  403c9b:	49 63 cb             	movsxd rcx,r11d
  403c9e:	48 89 4d c0          	mov    QWORD PTR [rbp-0x40],rcx
  403ca2:	48 89 45 b8          	mov    QWORD PTR [rbp-0x48],rax
  403ca6:	31 c0                	xor    eax,eax
  403ca8:	88 c1                	mov    cl,al
  403caa:	48 8b 55 c0          	mov    rdx,QWORD PTR [rbp-0x40]
  403cae:	48 3b 55 d0          	cmp    rdx,QWORD PTR [rbp-0x30]
  403cb2:	88 4d b7             	mov    BYTE PTR [rbp-0x49],cl
  403cb5:	0f 8f 23 00 00 00    	jg     403cde <replace_weaker_arc+0xde>
  403cbb:	48 8b 45 d8          	mov    rax,QWORD PTR [rbp-0x28]
  403cbf:	48 8b 4d f8          	mov    rcx,QWORD PTR [rbp-0x8]
  403cc3:	48 8b 55 c0          	mov    rdx,QWORD PTR [rbp-0x40]
  403cc7:	48 83 ea 01          	sub    rdx,0x1
  403ccb:	48 6b d2 48          	imul   rdx,rdx,0x48
  403ccf:	48 01 d1             	add    rcx,rdx
  403cd2:	48 3b 41 38          	cmp    rax,QWORD PTR [rcx+0x38]
  403cd6:	40 0f 9c c6          	setl   sil
  403cda:	40 88 75 b7          	mov    BYTE PTR [rbp-0x49],sil
  403cde:	8a 45 b7             	mov    al,BYTE PTR [rbp-0x49]
  403ce1:	a8 01                	test   al,0x1
  403ce3:	0f 85 05 00 00 00    	jne    403cee <replace_weaker_arc+0xee>
  403ce9:	e9 1b 02 00 00       	jmp    403f09 <replace_weaker_arc+0x309>
  403cee:	48 8b 45 f8          	mov    rax,QWORD PTR [rbp-0x8]
  403cf2:	48 8b 4d c0          	mov    rcx,QWORD PTR [rbp-0x40]
  403cf6:	48 83 e9 01          	sub    rcx,0x1
  403cfa:	48 6b c9 48          	imul   rcx,rcx,0x48
  403cfe:	48 01 c8             	add    rax,rcx
  403d01:	48 8b 40 10          	mov    rax,QWORD PTR [rax+0x10]
  403d05:	48 8b 4d f8          	mov    rcx,QWORD PTR [rbp-0x8]
  403d09:	48 8b 55 c8          	mov    rdx,QWORD PTR [rbp-0x38]
  403d0d:	48 83 ea 01          	sub    rdx,0x1
  403d11:	48 6b d2 48          	imul   rdx,rdx,0x48
  403d15:	48 01 d1             	add    rcx,rdx
  403d18:	48 89 41 10          	mov    QWORD PTR [rcx+0x10],rax
  403d1c:	48 8b 45 f8          	mov    rax,QWORD PTR [rbp-0x8]
  403d20:	48 8b 4d c0          	mov    rcx,QWORD PTR [rbp-0x40]
  403d24:	48 83 e9 01          	sub    rcx,0x1
  403d28:	48 6b c9 48          	imul   rcx,rcx,0x48
  403d2c:	48 01 c8             	add    rax,rcx
  403d2f:	48 8b 40 18          	mov    rax,QWORD PTR [rax+0x18]
  403d33:	48 8b 4d f8          	mov    rcx,QWORD PTR [rbp-0x8]
  403d37:	48 8b 55 c8          	mov    rdx,QWORD PTR [rbp-0x38]
  403d3b:	48 83 ea 01          	sub    rdx,0x1
  403d3f:	48 6b d2 48          	imul   rdx,rdx,0x48
  403d43:	48 01 d1             	add    rcx,rdx
  403d46:	48 89 41 18          	mov    QWORD PTR [rcx+0x18],rax
  403d4a:	48 8b 45 f8          	mov    rax,QWORD PTR [rbp-0x8]
  403d4e:	48 8b 4d c0          	mov    rcx,QWORD PTR [rbp-0x40]
  403d52:	48 83 e9 01          	sub    rcx,0x1
  403d56:	48 6b c9 48          	imul   rcx,rcx,0x48
  403d5a:	48 01 c8             	add    rax,rcx
  403d5d:	48 8b 40 08          	mov    rax,QWORD PTR [rax+0x8]
  403d61:	48 8b 4d f8          	mov    rcx,QWORD PTR [rbp-0x8]
  403d65:	48 8b 55 c8          	mov    rdx,QWORD PTR [rbp-0x38]
  403d69:	48 83 ea 01          	sub    rdx,0x1
  403d6d:	48 6b d2 48          	imul   rdx,rdx,0x48
  403d71:	48 01 d1             	add    rcx,rdx
  403d74:	48 89 41 08          	mov    QWORD PTR [rcx+0x8],rax
  403d78:	48 8b 45 f8          	mov    rax,QWORD PTR [rbp-0x8]
  403d7c:	48 8b 4d c0          	mov    rcx,QWORD PTR [rbp-0x40]
  403d80:	48 83 e9 01          	sub    rcx,0x1
  403d84:	48 6b c9 48          	imul   rcx,rcx,0x48
  403d88:	48 01 c8             	add    rax,rcx
  403d8b:	48 8b 40 08          	mov    rax,QWORD PTR [rax+0x8]
  403d8f:	48 8b 4d f8          	mov    rcx,QWORD PTR [rbp-0x8]
  403d93:	48 8b 55 c8          	mov    rdx,QWORD PTR [rbp-0x38]
  403d97:	48 83 ea 01          	sub    rdx,0x1
  403d9b:	48 6b d2 48          	imul   rdx,rdx,0x48
  403d9f:	48 01 d1             	add    rcx,rdx
  403da2:	48 89 41 40          	mov    QWORD PTR [rcx+0x40],rax
  403da6:	48 8b 45 f8          	mov    rax,QWORD PTR [rbp-0x8]
  403daa:	48 8b 4d c0          	mov    rcx,QWORD PTR [rbp-0x40]
  403dae:	48 83 e9 01          	sub    rcx,0x1
  403db2:	48 6b c9 48          	imul   rcx,rcx,0x48
  403db6:	48 01 c8             	add    rax,rcx
  403db9:	48 8b 40 38          	mov    rax,QWORD PTR [rax+0x38]
  403dbd:	48 8b 4d f8          	mov    rcx,QWORD PTR [rbp-0x8]
  403dc1:	48 8b 55 c8          	mov    rdx,QWORD PTR [rbp-0x38]
  403dc5:	48 83 ea 01          	sub    rdx,0x1
  403dc9:	48 6b d2 48          	imul   rdx,rdx,0x48
  403dcd:	48 01 d1             	add    rcx,rdx
  403dd0:	48 89 41 38          	mov    QWORD PTR [rcx+0x38],rax
  403dd4:	48 8b 45 f8          	mov    rax,QWORD PTR [rbp-0x8]
  403dd8:	48 8b 4d c0          	mov    rcx,QWORD PTR [rbp-0x40]
  403ddc:	48 83 e9 01          	sub    rcx,0x1
  403de0:	48 6b c9 48          	imul   rcx,rcx,0x48
  403de4:	48 01 c8             	add    rax,rcx
  403de7:	8b 30                	mov    esi,DWORD PTR [rax]
  403de9:	48 8b 45 f8          	mov    rax,QWORD PTR [rbp-0x8]
  403ded:	48 8b 4d c8          	mov    rcx,QWORD PTR [rbp-0x38]
  403df1:	48 83 e9 01          	sub    rcx,0x1
  403df5:	48 6b c9 48          	imul   rcx,rcx,0x48
  403df9:	48 01 c8             	add    rax,rcx
  403dfc:	89 30                	mov    DWORD PTR [rax],esi
  403dfe:	48 8b 45 f0          	mov    rax,QWORD PTR [rbp-0x10]
  403e02:	48 8b 4d f8          	mov    rcx,QWORD PTR [rbp-0x8]
  403e06:	48 8b 55 c0          	mov    rdx,QWORD PTR [rbp-0x40]
  403e0a:	48 83 ea 01          	sub    rdx,0x1
  403e0e:	48 6b d2 48          	imul   rdx,rdx,0x48
  403e12:	48 01 d1             	add    rcx,rdx
  403e15:	48 89 41 10          	mov    QWORD PTR [rcx+0x10],rax
  403e19:	48 8b 45 e8          	mov    rax,QWORD PTR [rbp-0x18]
  403e1d:	48 8b 4d f8          	mov    rcx,QWORD PTR [rbp-0x8]
  403e21:	48 8b 55 c0          	mov    rdx,QWORD PTR [rbp-0x40]
  403e25:	48 83 ea 01          	sub    rdx,0x1
  403e29:	48 6b d2 48          	imul   rdx,rdx,0x48
  403e2d:	48 01 d1             	add    rcx,rdx
  403e30:	48 89 41 18          	mov    QWORD PTR [rcx+0x18],rax
  403e34:	48 8b 45 e0          	mov    rax,QWORD PTR [rbp-0x20]
  403e38:	48 8b 4d f8          	mov    rcx,QWORD PTR [rbp-0x8]
  403e3c:	48 8b 55 c0          	mov    rdx,QWORD PTR [rbp-0x40]
  403e40:	48 83 ea 01          	sub    rdx,0x1
  403e44:	48 6b d2 48          	imul   rdx,rdx,0x48
  403e48:	48 01 d1             	add    rcx,rdx
  403e4b:	48 89 41 08          	mov    QWORD PTR [rcx+0x8],rax
  403e4f:	48 8b 45 e0          	mov    rax,QWORD PTR [rbp-0x20]
  403e53:	48 8b 4d f8          	mov    rcx,QWORD PTR [rbp-0x8]
  403e57:	48 8b 55 c0          	mov    rdx,QWORD PTR [rbp-0x40]
  403e5b:	48 83 ea 01          	sub    rdx,0x1
  403e5f:	48 6b d2 48          	imul   rdx,rdx,0x48
  403e63:	48 01 d1             	add    rcx,rdx
  403e66:	48 89 41 40          	mov    QWORD PTR [rcx+0x40],rax
  403e6a:	48 8b 45 d8          	mov    rax,QWORD PTR [rbp-0x28]
  403e6e:	48 8b 4d f8          	mov    rcx,QWORD PTR [rbp-0x8]
  403e72:	48 8b 55 c0          	mov    rdx,QWORD PTR [rbp-0x40]
  403e76:	48 83 ea 01          	sub    rdx,0x1
  403e7a:	48 6b d2 48          	imul   rdx,rdx,0x48
  403e7e:	48 01 d1             	add    rcx,rdx
  403e81:	48 89 41 38          	mov    QWORD PTR [rcx+0x38],rax
  403e85:	48 8b 45 10          	mov    rax,QWORD PTR [rbp+0x10]
  403e89:	89 c6                	mov    esi,eax
  403e8b:	48 8b 45 f8          	mov    rax,QWORD PTR [rbp-0x8]
  403e8f:	48 8b 4d c0          	mov    rcx,QWORD PTR [rbp-0x40]
  403e93:	48 83 e9 01          	sub    rcx,0x1
  403e97:	48 6b c9 48          	imul   rcx,rcx,0x48
  403e9b:	48 01 c8             	add    rax,rcx
  403e9e:	89 30                	mov    DWORD PTR [rax],esi
  403ea0:	48 8b 45 c0          	mov    rax,QWORD PTR [rbp-0x40]
  403ea4:	48 89 45 c8          	mov    QWORD PTR [rbp-0x38],rax
  403ea8:	48 8b 45 c0          	mov    rax,QWORD PTR [rbp-0x40]
  403eac:	48 c1 e0 01          	shl    rax,0x1
  403eb0:	48 89 45 c0          	mov    QWORD PTR [rbp-0x40],rax
  403eb4:	48 8b 45 c0          	mov    rax,QWORD PTR [rbp-0x40]
  403eb8:	48 83 c0 01          	add    rax,0x1
  403ebc:	48 3b 45 d0          	cmp    rax,QWORD PTR [rbp-0x30]
  403ec0:	0f 8f 3e 00 00 00    	jg     403f04 <replace_weaker_arc+0x304>
  403ec6:	48 8b 45 f8          	mov    rax,QWORD PTR [rbp-0x8]
  403eca:	48 8b 4d c0          	mov    rcx,QWORD PTR [rbp-0x40]
  403ece:	48 83 e9 01          	sub    rcx,0x1
  403ed2:	48 6b c9 48          	imul   rcx,rcx,0x48
  403ed6:	48 01 c8             	add    rax,rcx
  403ed9:	48 8b 40 38          	mov    rax,QWORD PTR [rax+0x38]
  403edd:	48 8b 4d f8          	mov    rcx,QWORD PTR [rbp-0x8]
  403ee1:	48 6b 55 c0 48       	imul   rdx,QWORD PTR [rbp-0x40],0x48
  403ee6:	48 01 d1             	add    rcx,rdx
  403ee9:	48 3b 41 38          	cmp    rax,QWORD PTR [rcx+0x38]
  403eed:	0f 8d 0c 00 00 00    	jge    403eff <replace_weaker_arc+0x2ff>
  403ef3:	48 8b 45 c0          	mov    rax,QWORD PTR [rbp-0x40]
  403ef7:	48 83 c0 01          	add    rax,0x1
  403efb:	48 89 45 c0          	mov    QWORD PTR [rbp-0x40],rax
  403eff:	e9 00 00 00 00       	jmp    403f04 <replace_weaker_arc+0x304>
  403f04:	e9 9d fd ff ff       	jmp    403ca6 <replace_weaker_arc+0xa6>
  403f09:	5d                   	pop    rbp
  403f0a:	c3                   	ret    
  403f0b:	0f 1f 44 00 00       	nop    DWORD PTR [rax+rax*1+0x0]

0000000000403f10 <calculate_max_redcost>:
  403f10:	55                   	push   rbp
  403f11:	48 89 e5             	mov    rbp,rsp
  403f14:	48 89 7d f8          	mov    QWORD PTR [rbp-0x8],rdi
  403f18:	48 89 75 f0          	mov    QWORD PTR [rbp-0x10],rsi
  403f1c:	48 89 55 e8          	mov    QWORD PTR [rbp-0x18],rdx
  403f20:	48 89 4d e0          	mov    QWORD PTR [rbp-0x20],rcx
  403f24:	48 8b 4d f0          	mov    rcx,QWORD PTR [rbp-0x10]
  403f28:	48 c7 01 00 00 00 00 	mov    QWORD PTR [rcx],0x0
  403f2f:	48 c7 45 d8 00 00 00 	mov    QWORD PTR [rbp-0x28],0x0
  403f36:	00 
  403f37:	48 8b 45 d8          	mov    rax,QWORD PTR [rbp-0x28]
  403f3b:	48 3b 45 e0          	cmp    rax,QWORD PTR [rbp-0x20]
  403f3f:	0f 8d 50 00 00 00    	jge    403f95 <calculate_max_redcost+0x85>
  403f45:	48 8b 45 e8          	mov    rax,QWORD PTR [rbp-0x18]
  403f49:	48 8b 4d d8          	mov    rcx,QWORD PTR [rbp-0x28]
  403f4d:	48 8b 04 c8          	mov    rax,QWORD PTR [rax+rcx*8]
  403f51:	48 8b 00             	mov    rax,QWORD PTR [rax]
  403f54:	48 8b 40 38          	mov    rax,QWORD PTR [rax+0x38]
  403f58:	48 8b 4d f0          	mov    rcx,QWORD PTR [rbp-0x10]
  403f5c:	48 3b 01             	cmp    rax,QWORD PTR [rcx]
  403f5f:	0f 8e 1a 00 00 00    	jle    403f7f <calculate_max_redcost+0x6f>
  403f65:	48 8b 45 e8          	mov    rax,QWORD PTR [rbp-0x18]
  403f69:	48 8b 4d d8          	mov    rcx,QWORD PTR [rbp-0x28]
  403f6d:	48 8b 04 c8          	mov    rax,QWORD PTR [rax+rcx*8]
  403f71:	48 8b 00             	mov    rax,QWORD PTR [rax]
  403f74:	48 8b 40 38          	mov    rax,QWORD PTR [rax+0x38]
  403f78:	48 8b 4d f0          	mov    rcx,QWORD PTR [rbp-0x10]
  403f7c:	48 89 01             	mov    QWORD PTR [rcx],rax
  403f7f:	e9 00 00 00 00       	jmp    403f84 <calculate_max_redcost+0x74>
  403f84:	48 8b 45 d8          	mov    rax,QWORD PTR [rbp-0x28]
  403f88:	48 83 c0 01          	add    rax,0x1
  403f8c:	48 89 45 d8          	mov    QWORD PTR [rbp-0x28],rax
  403f90:	e9 a2 ff ff ff       	jmp    403f37 <calculate_max_redcost+0x27>
  403f95:	5d                   	pop    rbp
  403f96:	c3                   	ret    
  403f97:	66 0f 1f 84 00 00 00 	nop    WORD PTR [rax+rax*1+0x0]
  403f9e:	00 00 

0000000000403fa0 <switch_arcs>:
  403fa0:	55                   	push   rbp
  403fa1:	48 89 e5             	mov    rbp,rsp
  403fa4:	48 81 ec d0 00 00 00 	sub    rsp,0xd0
  403fab:	48 8b 45 18          	mov    rax,QWORD PTR [rbp+0x18]
  403faf:	4c 8b 55 10          	mov    r10,QWORD PTR [rbp+0x10]
  403fb3:	48 89 7d f8          	mov    QWORD PTR [rbp-0x8],rdi
  403fb7:	48 89 75 f0          	mov    QWORD PTR [rbp-0x10],rsi
  403fbb:	48 89 55 e8          	mov    QWORD PTR [rbp-0x18],rdx
  403fbf:	48 89 4d e0          	mov    QWORD PTR [rbp-0x20],rcx
  403fc3:	44 89 45 dc          	mov    DWORD PTR [rbp-0x24],r8d
  403fc7:	4c 89 4d d0          	mov    QWORD PTR [rbp-0x30],r9
  403fcb:	48 c7 45 a8 00 00 00 	mov    QWORD PTR [rbp-0x58],0x0
  403fd2:	00 
  403fd3:	48 c7 45 c8 00 00 00 	mov    QWORD PTR [rbp-0x38],0x0
  403fda:	00 
  403fdb:	48 63 4d dc          	movsxd rcx,DWORD PTR [rbp-0x24]
  403fdf:	48 89 4d c0          	mov    QWORD PTR [rbp-0x40],rcx
  403fe3:	4c 89 95 50 ff ff ff 	mov    QWORD PTR [rbp-0xb0],r10
  403fea:	48 89 85 48 ff ff ff 	mov    QWORD PTR [rbp-0xb8],rax
  403ff1:	48 8b 45 c8          	mov    rax,QWORD PTR [rbp-0x38]
  403ff5:	48 3b 45 18          	cmp    rax,QWORD PTR [rbp+0x18]
  403ff9:	0f 8d 7b 01 00 00    	jge    40417a <switch_arcs+0x1da>
  403fff:	48 8b 45 f0          	mov    rax,QWORD PTR [rbp-0x10]
  404003:	48 8b 4d c0          	mov    rcx,QWORD PTR [rbp-0x40]
  404007:	48 8b 04 c8          	mov    rax,QWORD PTR [rax+rcx*8]
  40400b:	48 3b 45 10          	cmp    rax,QWORD PTR [rbp+0x10]
  40400f:	0f 8d 18 00 00 00    	jge    40402d <switch_arcs+0x8d>
  404015:	48 8b 45 f0          	mov    rax,QWORD PTR [rbp-0x10]
  404019:	48 8b 4d c0          	mov    rcx,QWORD PTR [rbp-0x40]
  40401d:	48 8b 04 c8          	mov    rax,QWORD PTR [rax+rcx*8]
  404021:	48 89 85 40 ff ff ff 	mov    QWORD PTR [rbp-0xc0],rax
  404028:	e9 0b 00 00 00       	jmp    404038 <switch_arcs+0x98>
  40402d:	48 8b 45 10          	mov    rax,QWORD PTR [rbp+0x10]
  404031:	48 89 85 40 ff ff ff 	mov    QWORD PTR [rbp-0xc0],rax
  404038:	48 8b 85 40 ff ff ff 	mov    rax,QWORD PTR [rbp-0xc0]
  40403f:	48 89 45 b0          	mov    QWORD PTR [rbp-0x50],rax
  404043:	48 c7 45 b8 00 00 00 	mov    QWORD PTR [rbp-0x48],0x0
  40404a:	00 
  40404b:	48 8b 45 b8          	mov    rax,QWORD PTR [rbp-0x48]
  40404f:	48 3b 45 b0          	cmp    rax,QWORD PTR [rbp-0x50]
  404053:	0f 8d f9 00 00 00    	jge    404152 <switch_arcs+0x1b2>
  404059:	48 8b 45 e8          	mov    rax,QWORD PTR [rbp-0x18]
  40405d:	48 8b 4d c0          	mov    rcx,QWORD PTR [rbp-0x40]
  404061:	48 8b 04 c8          	mov    rax,QWORD PTR [rax+rcx*8]
  404065:	48 6b 4d b8 48       	imul   rcx,QWORD PTR [rbp-0x48],0x48
  40406a:	48 01 c8             	add    rax,rcx
  40406d:	48 89 45 a0          	mov    QWORD PTR [rbp-0x60],rax
  404071:	48 8b 45 a0          	mov    rax,QWORD PTR [rbp-0x60]
  404075:	66 83 78 20 00       	cmp    WORD PTR [rax+0x20],0x0
  40407a:	0f 85 bc 00 00 00    	jne    40413c <switch_arcs+0x19c>
  404080:	48 8b 45 a0          	mov    rax,QWORD PTR [rbp-0x60]
  404084:	48 8b 40 38          	mov    rax,QWORD PTR [rax+0x38]
  404088:	48 8b 4d e0          	mov    rcx,QWORD PTR [rbp-0x20]
  40408c:	48 3b 41 38          	cmp    rax,QWORD PTR [rcx+0x38]
  404090:	0f 8c 28 00 00 00    	jl     4040be <switch_arcs+0x11e>
  404096:	48 8b 45 a0          	mov    rax,QWORD PTR [rbp-0x60]
  40409a:	48 8b 40 38          	mov    rax,QWORD PTR [rax+0x38]
  40409e:	48 8b 4d e0          	mov    rcx,QWORD PTR [rbp-0x20]
  4040a2:	48 3b 41 38          	cmp    rax,QWORD PTR [rcx+0x38]
  4040a6:	0f 85 90 00 00 00    	jne    40413c <switch_arcs+0x19c>
  4040ac:	48 8b 45 a0          	mov    rax,QWORD PTR [rbp-0x60]
  4040b0:	8b 08                	mov    ecx,DWORD PTR [rax]
  4040b2:	48 8b 45 e0          	mov    rax,QWORD PTR [rbp-0x20]
  4040b6:	3b 08                	cmp    ecx,DWORD PTR [rax]
  4040b8:	0f 8d 7e 00 00 00    	jge    40413c <switch_arcs+0x19c>
  4040be:	b8 48 00 00 00       	mov    eax,0x48
  4040c3:	89 c1                	mov    ecx,eax
  4040c5:	48 8b 55 a0          	mov    rdx,QWORD PTR [rbp-0x60]
  4040c9:	48 8d b5 58 ff ff ff 	lea    rsi,[rbp-0xa8]
  4040d0:	48 89 f7             	mov    rdi,rsi
  4040d3:	48 89 d6             	mov    rsi,rdx
  4040d6:	48 89 ca             	mov    rdx,rcx
  4040d9:	48 89 8d 38 ff ff ff 	mov    QWORD PTR [rbp-0xc8],rcx
  4040e0:	e8 cb cf ff ff       	call   4010b0 <memcpy@plt>
  4040e5:	48 8b 4d a8          	mov    rcx,QWORD PTR [rbp-0x58]
  4040e9:	48 83 c1 01          	add    rcx,0x1
  4040ed:	48 89 4d a8          	mov    QWORD PTR [rbp-0x58],rcx
  4040f1:	48 8b 4d a0          	mov    rcx,QWORD PTR [rbp-0x60]
  4040f5:	48 8b 55 e0          	mov    rdx,QWORD PTR [rbp-0x20]
  4040f9:	48 89 cf             	mov    rdi,rcx
  4040fc:	48 89 d6             	mov    rsi,rdx
  4040ff:	48 8b 95 38 ff ff ff 	mov    rdx,QWORD PTR [rbp-0xc8]
  404106:	e8 a5 cf ff ff       	call   4010b0 <memcpy@plt>
  40410b:	48 8b 7d e0          	mov    rdi,QWORD PTR [rbp-0x20]
  40410f:	48 8b b5 68 ff ff ff 	mov    rsi,QWORD PTR [rbp-0x98]
  404116:	48 8b 95 70 ff ff ff 	mov    rdx,QWORD PTR [rbp-0x90]
  40411d:	48 8b 8d 60 ff ff ff 	mov    rcx,QWORD PTR [rbp-0xa0]
  404124:	4c 8b 45 90          	mov    r8,QWORD PTR [rbp-0x70]
  404128:	4c 8b 4d d0          	mov    r9,QWORD PTR [rbp-0x30]
  40412c:	4c 63 95 58 ff ff ff 	movsxd r10,DWORD PTR [rbp-0xa8]
  404133:	4c 89 14 24          	mov    QWORD PTR [rsp],r10
  404137:	e8 c4 fa ff ff       	call   403c00 <replace_weaker_arc>
  40413c:	e9 00 00 00 00       	jmp    404141 <switch_arcs+0x1a1>
  404141:	48 8b 45 b8          	mov    rax,QWORD PTR [rbp-0x48]
  404145:	48 83 c0 01          	add    rax,0x1
  404149:	48 89 45 b8          	mov    QWORD PTR [rbp-0x48],rax
  40414d:	e9 f9 fe ff ff       	jmp    40404b <switch_arcs+0xab>
  404152:	e9 00 00 00 00       	jmp    404157 <switch_arcs+0x1b7>
  404157:	48 8b 45 c8          	mov    rax,QWORD PTR [rbp-0x38]
  40415b:	48 83 c0 01          	add    rax,0x1
  40415f:	48 89 45 c8          	mov    QWORD PTR [rbp-0x38],rax
  404163:	48 8b 45 c0          	mov    rax,QWORD PTR [rbp-0x40]
  404167:	48 83 c0 01          	add    rax,0x1
  40416b:	48 99                	cqo    
  40416d:	48 f7 7d 18          	idiv   QWORD PTR [rbp+0x18]
  404171:	48 89 55 c0          	mov    QWORD PTR [rbp-0x40],rdx
  404175:	e9 77 fe ff ff       	jmp    403ff1 <switch_arcs+0x51>
  40417a:	48 8b 45 a8          	mov    rax,QWORD PTR [rbp-0x58]
  40417e:	48 81 c4 d0 00 00 00 	add    rsp,0xd0
  404185:	5d                   	pop    rbp
  404186:	c3                   	ret    
  404187:	66 0f 1f 84 00 00 00 	nop    WORD PTR [rax+rax*1+0x0]
  40418e:	00 00 

0000000000404190 <price_out_impl>:
  404190:	55                   	push   rbp
  404191:	48 89 e5             	mov    rbp,rsp
  404194:	48 81 ec 70 01 00 00 	sub    rsp,0x170
  40419b:	48 89 7d f0          	mov    QWORD PTR [rbp-0x10],rdi
  40419f:	48 c7 45 d8 00 00 00 	mov    QWORD PTR [rbp-0x28],0x0
  4041a6:	00 
  4041a7:	48 c7 45 d0 00 00 00 	mov    QWORD PTR [rbp-0x30],0x0
  4041ae:	00 
  4041af:	48 c7 45 c0 0f 00 00 	mov    QWORD PTR [rbp-0x40],0xf
  4041b6:	00 
  4041b7:	66 c7 85 76 ff ff ff 	mov    WORD PTR [rbp-0x8a],0x1
  4041be:	01 00 
  4041c0:	48 c7 85 68 ff ff ff 	mov    QWORD PTR [rbp-0x98],0x0
  4041c7:	00 00 00 00 
  4041cb:	48 8b 7d f0          	mov    rdi,QWORD PTR [rbp-0x10]
  4041cf:	48 8b bf 10 02 00 00 	mov    rdi,QWORD PTR [rdi+0x210]
  4041d6:	48 89 bd 38 ff ff ff 	mov    QWORD PTR [rbp-0xc8],rdi
  4041dd:	48 c7 85 28 ff ff ff 	mov    QWORD PTR [rbp-0xd8],0x1e
  4041e4:	1e 00 00 00 
  4041e8:	48 c7 85 d0 fe ff ff 	mov    QWORD PTR [rbp-0x130],0x1
  4041ef:	01 00 00 00 
  4041f3:	48 8b bd d0 fe ff ff 	mov    rdi,QWORD PTR [rbp-0x130]
  4041fa:	48 c1 e7 03          	shl    rdi,0x3
  4041fe:	e8 bd ce ff ff       	call   4010c0 <malloc@plt>
  404203:	48 89 45 a8          	mov    QWORD PTR [rbp-0x58],rax
  404207:	48 8b 85 d0 fe ff ff 	mov    rax,QWORD PTR [rbp-0x130]
  40420e:	48 c1 e0 03          	shl    rax,0x3
  404212:	48 89 c7             	mov    rdi,rax
  404215:	e8 a6 ce ff ff       	call   4010c0 <malloc@plt>
  40421a:	48 89 45 90          	mov    QWORD PTR [rbp-0x70],rax
  40421e:	48 8b 85 d0 fe ff ff 	mov    rax,QWORD PTR [rbp-0x130]
  404225:	48 c1 e0 03          	shl    rax,0x3
  404229:	48 89 c7             	mov    rdi,rax
  40422c:	e8 8f ce ff ff       	call   4010c0 <malloc@plt>
  404231:	48 89 45 88          	mov    QWORD PTR [rbp-0x78],rax
  404235:	48 8b 85 d0 fe ff ff 	mov    rax,QWORD PTR [rbp-0x130]
  40423c:	48 c1 e0 03          	shl    rax,0x3
  404240:	48 89 c7             	mov    rdi,rax
  404243:	e8 78 ce ff ff       	call   4010c0 <malloc@plt>
  404248:	48 89 45 80          	mov    QWORD PTR [rbp-0x80],rax
  40424c:	48 8b 85 38 ff ff ff 	mov    rax,QWORD PTR [rbp-0xc8]
  404253:	48 2b 45 c0          	sub    rax,QWORD PTR [rbp-0x40]
  404257:	48 89 85 18 ff ff ff 	mov    QWORD PTR [rbp-0xe8],rax
  40425e:	48 8b 45 f0          	mov    rax,QWORD PTR [rbp-0x10]
  404262:	48 81 b8 98 01 00 00 	cmp    QWORD PTR [rax+0x198],0x3a98
  404269:	98 3a 00 00 
  40426d:	0f 8f a9 00 00 00    	jg     40431c <price_out_impl+0x18c>
  404273:	48 8b 45 f0          	mov    rax,QWORD PTR [rbp-0x10]
  404277:	48 8b 80 a8 01 00 00 	mov    rax,QWORD PTR [rax+0x1a8]
  40427e:	48 8b 4d f0          	mov    rcx,QWORD PTR [rbp-0x10]
  404282:	48 03 81 c8 01 00 00 	add    rax,QWORD PTR [rcx+0x1c8]
  404289:	48 8b 4d f0          	mov    rcx,QWORD PTR [rbp-0x10]
  40428d:	48 3b 81 a0 01 00 00 	cmp    rax,QWORD PTR [rcx+0x1a0]
  404294:	0f 8e 7d 00 00 00    	jle    404317 <price_out_impl+0x187>
  40429a:	b8 02 00 00 00       	mov    eax,0x2
  40429f:	89 c1                	mov    ecx,eax
  4042a1:	48 8b 55 f0          	mov    rdx,QWORD PTR [rbp-0x10]
  4042a5:	48 8b 92 98 01 00 00 	mov    rdx,QWORD PTR [rdx+0x198]
  4042ac:	48 8b 75 f0          	mov    rsi,QWORD PTR [rbp-0x10]
  4042b0:	48 0f af 96 98 01 00 	imul   rdx,QWORD PTR [rsi+0x198]
  4042b7:	00 
  4042b8:	48 89 d0             	mov    rax,rdx
  4042bb:	48 99                	cqo    
  4042bd:	48 f7 f9             	idiv   rcx
  4042c0:	48 8b 4d f0          	mov    rcx,QWORD PTR [rbp-0x10]
  4042c4:	48 03 81 a8 01 00 00 	add    rax,QWORD PTR [rcx+0x1a8]
  4042cb:	48 8b 4d f0          	mov    rcx,QWORD PTR [rbp-0x10]
  4042cf:	48 3b 81 a0 01 00 00 	cmp    rax,QWORD PTR [rcx+0x1a0]
  4042d6:	0f 8e 3b 00 00 00    	jle    404317 <price_out_impl+0x187>
  4042dc:	48 c7 45 d0 01 00 00 	mov    QWORD PTR [rbp-0x30],0x1
  4042e3:	00 
  4042e4:	48 8b 7d f0          	mov    rdi,QWORD PTR [rbp-0x10]
  4042e8:	e8 e3 f3 ff ff       	call   4036d0 <resize_prob>
  4042ed:	48 83 f8 00          	cmp    rax,0x0
  4042f1:	0f 84 0d 00 00 00    	je     404304 <price_out_impl+0x174>
  4042f7:	48 c7 45 f8 ff ff ff 	mov    QWORD PTR [rbp-0x8],0xffffffffffffffff
  4042fe:	ff 
  4042ff:	e9 5b 0c 00 00       	jmp    404f5f <price_out_impl+0xdcf>
  404304:	48 8b 7d f0          	mov    rdi,QWORD PTR [rbp-0x10]
  404308:	48 be c0 1a 40 00 00 	movabs rsi,0x401ac0
  40430f:	00 00 00 
  404312:	e8 69 d3 ff ff       	call   401680 <refresh_neighbour_lists>
  404317:	e9 a9 00 00 00       	jmp    4043c5 <price_out_impl+0x235>
  40431c:	48 8b 45 f0          	mov    rax,QWORD PTR [rbp-0x10]
  404320:	48 8b 80 a8 01 00 00 	mov    rax,QWORD PTR [rax+0x1a8]
  404327:	48 8b 4d f0          	mov    rcx,QWORD PTR [rbp-0x10]
  40432b:	48 03 81 c8 01 00 00 	add    rax,QWORD PTR [rcx+0x1c8]
  404332:	48 8b 4d f0          	mov    rcx,QWORD PTR [rbp-0x10]
  404336:	48 3b 81 a0 01 00 00 	cmp    rax,QWORD PTR [rcx+0x1a0]
  40433d:	0f 8e 7d 00 00 00    	jle    4043c0 <price_out_impl+0x230>
  404343:	b8 02 00 00 00       	mov    eax,0x2
  404348:	89 c1                	mov    ecx,eax
  40434a:	48 8b 55 f0          	mov    rdx,QWORD PTR [rbp-0x10]
  40434e:	48 8b 92 98 01 00 00 	mov    rdx,QWORD PTR [rdx+0x198]
  404355:	48 8b 75 f0          	mov    rsi,QWORD PTR [rbp-0x10]
  404359:	48 0f af 96 98 01 00 	imul   rdx,QWORD PTR [rsi+0x198]
  404360:	00 
  404361:	48 89 d0             	mov    rax,rdx
  404364:	48 99                	cqo    
  404366:	48 f7 f9             	idiv   rcx
  404369:	48 8b 4d f0          	mov    rcx,QWORD PTR [rbp-0x10]
  40436d:	48 03 81 a8 01 00 00 	add    rax,QWORD PTR [rcx+0x1a8]
  404374:	48 8b 4d f0          	mov    rcx,QWORD PTR [rbp-0x10]
  404378:	48 3b 81 a0 01 00 00 	cmp    rax,QWORD PTR [rcx+0x1a0]
  40437f:	0f 8e 3b 00 00 00    	jle    4043c0 <price_out_impl+0x230>
  404385:	48 c7 45 d0 01 00 00 	mov    QWORD PTR [rbp-0x30],0x1
  40438c:	00 
  40438d:	48 8b 7d f0          	mov    rdi,QWORD PTR [rbp-0x10]
  404391:	e8 3a f3 ff ff       	call   4036d0 <resize_prob>
  404396:	48 83 f8 00          	cmp    rax,0x0
  40439a:	0f 84 0d 00 00 00    	je     4043ad <price_out_impl+0x21d>
  4043a0:	48 c7 45 f8 ff ff ff 	mov    QWORD PTR [rbp-0x8],0xffffffffffffffff
  4043a7:	ff 
  4043a8:	e9 b2 0b 00 00       	jmp    404f5f <price_out_impl+0xdcf>
  4043ad:	48 8b 7d f0          	mov    rdi,QWORD PTR [rbp-0x10]
  4043b1:	48 be c0 1a 40 00 00 	movabs rsi,0x401ac0
  4043b8:	00 00 00 
  4043bb:	e8 c0 d2 ff ff       	call   401680 <refresh_neighbour_lists>
  4043c0:	e9 00 00 00 00       	jmp    4043c5 <price_out_impl+0x235>
  4043c5:	48 8b 45 f0          	mov    rax,QWORD PTR [rbp-0x10]
  4043c9:	48 81 b8 98 01 00 00 	cmp    QWORD PTR [rax+0x198],0x3a98
  4043d0:	98 3a 00 00 
  4043d4:	0f 8f 10 00 00 00    	jg     4043ea <price_out_impl+0x25a>
  4043da:	48 c7 85 60 ff ff ff 	mov    QWORD PTR [rbp-0xa0],0x3e8
  4043e1:	e8 03 00 00 
  4043e5:	e9 0b 00 00 00       	jmp    4043f5 <price_out_impl+0x265>
  4043ea:	48 c7 85 60 ff ff ff 	mov    QWORD PTR [rbp-0xa0],0x7d0
  4043f1:	d0 07 00 00 
  4043f5:	48 8b 45 f0          	mov    rax,QWORD PTR [rbp-0x10]
  4043f9:	48 8b 80 48 02 00 00 	mov    rax,QWORD PTR [rax+0x248]
  404400:	48 89 85 f0 fe ff ff 	mov    QWORD PTR [rbp-0x110],rax
  404407:	48 83 bd f0 fe ff ff 	cmp    QWORD PTR [rbp-0x110],0x0
  40440e:	00 
  40440f:	0f 85 0d 00 00 00    	jne    404422 <price_out_impl+0x292>
  404415:	48 c7 45 f8 ff ff ff 	mov    QWORD PTR [rbp-0x8],0xffffffffffffffff
  40441c:	ff 
  40441d:	e9 3d 0b 00 00       	jmp    404f5f <price_out_impl+0xdcf>
  404422:	b8 08 00 00 00       	mov    eax,0x8
  404427:	89 c6                	mov    esi,eax
  404429:	48 8b 4d f0          	mov    rcx,QWORD PTR [rbp-0x10]
  40442d:	48 8b 81 c0 01 00 00 	mov    rax,QWORD PTR [rcx+0x1c0]
  404434:	48 99                	cqo    
  404436:	48 f7 bd d0 fe ff ff 	idiv   QWORD PTR [rbp-0x130]
  40443d:	48 89 45 b8          	mov    QWORD PTR [rbp-0x48],rax
  404441:	66 c7 85 76 ff ff ff 	mov    WORD PTR [rbp-0x8a],0x1
  404448:	01 00 
  40444a:	48 8b 45 f0          	mov    rax,QWORD PTR [rbp-0x10]
  40444e:	48 8b 80 a0 01 00 00 	mov    rax,QWORD PTR [rax+0x1a0]
  404455:	48 99                	cqo    
  404457:	48 f7 bd d0 fe ff ff 	idiv   QWORD PTR [rbp-0x130]
  40445e:	48 89 85 58 ff ff ff 	mov    QWORD PTR [rbp-0xa8],rax
  404465:	66 c7 85 74 ff ff ff 	mov    WORD PTR [rbp-0x8c],0x1
  40446c:	01 00 
  40446e:	48 c7 85 78 ff ff ff 	mov    QWORD PTR [rbp-0x88],0x0
  404475:	00 00 00 00 
  404479:	48 c7 85 68 ff ff ff 	mov    QWORD PTR [rbp-0x98],0x0
  404480:	00 00 00 00 
  404484:	c7 45 b4 00 00 00 00 	mov    DWORD PTR [rbp-0x4c],0x0
  40448b:	48 8b 85 f0 fe ff ff 	mov    rax,QWORD PTR [rbp-0x110]
  404492:	48 8b 8d 58 ff ff ff 	mov    rcx,QWORD PTR [rbp-0xa8]
  404499:	48 63 7d b4          	movsxd rdi,DWORD PTR [rbp-0x4c]
  40449d:	48 0f af cf          	imul   rcx,rdi
  4044a1:	48 6b c9 48          	imul   rcx,rcx,0x48
  4044a5:	48 01 c8             	add    rax,rcx
  4044a8:	48 8b 4d 80          	mov    rcx,QWORD PTR [rbp-0x80]
  4044ac:	48 63 7d b4          	movsxd rdi,DWORD PTR [rbp-0x4c]
  4044b0:	48 89 04 f9          	mov    QWORD PTR [rcx+rdi*8],rax
  4044b4:	48 8b 45 90          	mov    rax,QWORD PTR [rbp-0x70]
  4044b8:	48 63 4d b4          	movsxd rcx,DWORD PTR [rbp-0x4c]
  4044bc:	48 c7 04 c8 00 00 00 	mov    QWORD PTR [rax+rcx*8],0x0
  4044c3:	00 
  4044c4:	48 8b 45 a8          	mov    rax,QWORD PTR [rbp-0x58]
  4044c8:	48 63 4d b4          	movsxd rcx,DWORD PTR [rbp-0x4c]
  4044cc:	48 c7 04 c8 00 00 00 	mov    QWORD PTR [rax+rcx*8],0x0
  4044d3:	00 
  4044d4:	48 8b 45 f0          	mov    rax,QWORD PTR [rbp-0x10]
  4044d8:	48 8b 80 40 02 00 00 	mov    rax,QWORD PTR [rax+0x240]
  4044df:	48 63 4d b4          	movsxd rcx,DWORD PTR [rbp-0x4c]
  4044e3:	48 0f af 4d b8       	imul   rcx,QWORD PTR [rbp-0x48]
  4044e8:	48 6b c9 48          	imul   rcx,rcx,0x48
  4044ec:	48 01 c8             	add    rax,rcx
  4044ef:	48 89 85 00 ff ff ff 	mov    QWORD PTR [rbp-0x100],rax
  4044f6:	48 8b 45 f0          	mov    rax,QWORD PTR [rbp-0x10]
  4044fa:	48 8b 80 98 01 00 00 	mov    rax,QWORD PTR [rax+0x198]
  404501:	48 89 45 e0          	mov    QWORD PTR [rbp-0x20],rax
  404505:	48 c7 45 a0 00 00 00 	mov    QWORD PTR [rbp-0x60],0x0
  40450c:	00 
  40450d:	48 c7 45 98 ff ff ff 	mov    QWORD PTR [rbp-0x68],0xffffffffffffffff
  404514:	ff 
  404515:	48 8b 7d b8          	mov    rdi,QWORD PTR [rbp-0x48]
  404519:	e8 72 cb ff ff       	call   401090 <calloc@plt>
  40451e:	48 8b 4d 88          	mov    rcx,QWORD PTR [rbp-0x78]
  404522:	48 63 75 b4          	movsxd rsi,DWORD PTR [rbp-0x4c]
  404526:	48 89 04 f1          	mov    QWORD PTR [rcx+rsi*8],rax
  40452a:	48 c7 45 e8 00 00 00 	mov    QWORD PTR [rbp-0x18],0x0
  404531:	00 
  404532:	48 8b 45 e8          	mov    rax,QWORD PTR [rbp-0x18]
  404536:	48 3b 45 b8          	cmp    rax,QWORD PTR [rbp-0x48]
  40453a:	0f 8d 34 00 00 00    	jge    404574 <price_out_impl+0x3e4>
  404540:	48 8b 85 00 ff ff ff 	mov    rax,QWORD PTR [rbp-0x100]
  404547:	48 6b 4d e8 48       	imul   rcx,QWORD PTR [rbp-0x18],0x48
  40454c:	48 01 c8             	add    rax,rcx
  40454f:	48 8b 4d 88          	mov    rcx,QWORD PTR [rbp-0x78]
  404553:	48 63 55 b4          	movsxd rdx,DWORD PTR [rbp-0x4c]
  404557:	48 8b 0c d1          	mov    rcx,QWORD PTR [rcx+rdx*8]
  40455b:	48 8b 55 e8          	mov    rdx,QWORD PTR [rbp-0x18]
  40455f:	48 89 04 d1          	mov    QWORD PTR [rcx+rdx*8],rax
  404563:	48 8b 45 e8          	mov    rax,QWORD PTR [rbp-0x18]
  404567:	48 83 c0 01          	add    rax,0x1
  40456b:	48 89 45 e8          	mov    QWORD PTR [rbp-0x18],rax
  40456f:	e9 be ff ff ff       	jmp    404532 <price_out_impl+0x3a2>
  404574:	48 8b 45 f0          	mov    rax,QWORD PTR [rbp-0x10]
  404578:	48 8b 80 38 02 00 00 	mov    rax,QWORD PTR [rax+0x238]
  40457f:	48 89 85 10 ff ff ff 	mov    QWORD PTR [rbp-0xf0],rax
  404586:	48 c7 45 e8 00 00 00 	mov    QWORD PTR [rbp-0x18],0x0
  40458d:	00 
  40458e:	31 c0                	xor    eax,eax
  404590:	88 c1                	mov    cl,al
  404592:	48 8b 55 e8          	mov    rdx,QWORD PTR [rbp-0x18]
  404596:	48 3b 55 e0          	cmp    rdx,QWORD PTR [rbp-0x20]
  40459a:	88 8d cf fe ff ff    	mov    BYTE PTR [rbp-0x131],cl
  4045a0:	0f 8d 17 00 00 00    	jge    4045bd <price_out_impl+0x42d>
  4045a6:	48 8b 85 10 ff ff ff 	mov    rax,QWORD PTR [rbp-0xf0]
  4045ad:	0f bf 48 68          	movsx  ecx,WORD PTR [rax+0x68]
  4045b1:	83 f9 ff             	cmp    ecx,0xffffffff
  4045b4:	0f 94 c2             	sete   dl
  4045b7:	88 95 cf fe ff ff    	mov    BYTE PTR [rbp-0x131],dl
  4045bd:	8a 85 cf fe ff ff    	mov    al,BYTE PTR [rbp-0x131]
  4045c3:	a8 01                	test   al,0x1
  4045c5:	0f 85 05 00 00 00    	jne    4045d0 <price_out_impl+0x440>
  4045cb:	e9 2a 00 00 00       	jmp    4045fa <price_out_impl+0x46a>
  4045d0:	e9 00 00 00 00       	jmp    4045d5 <price_out_impl+0x445>
  4045d5:	48 8b 45 e8          	mov    rax,QWORD PTR [rbp-0x18]
  4045d9:	48 83 c0 01          	add    rax,0x1
  4045dd:	48 89 45 e8          	mov    QWORD PTR [rbp-0x18],rax
  4045e1:	48 8b 85 10 ff ff ff 	mov    rax,QWORD PTR [rbp-0xf0]
  4045e8:	48 05 d8 00 00 00    	add    rax,0xd8
  4045ee:	48 89 85 10 ff ff ff 	mov    QWORD PTR [rbp-0xf0],rax
  4045f5:	e9 94 ff ff ff       	jmp    40458e <price_out_impl+0x3fe>
  4045fa:	48 c7 85 50 ff ff ff 	mov    QWORD PTR [rbp-0xb0],0x0
  404601:	00 00 00 00 
  404605:	48 8b 45 e8          	mov    rax,QWORD PTR [rbp-0x18]
  404609:	48 3b 45 e0          	cmp    rax,QWORD PTR [rbp-0x20]
  40460d:	0f 8d 0d 05 00 00    	jge    404b20 <price_out_impl+0x990>
  404613:	66 83 bd 76 ff ff ff 	cmp    WORD PTR [rbp-0x8a],0x0
  40461a:	00 
  40461b:	0f 85 1b 00 00 00    	jne    40463c <price_out_impl+0x4ac>
  404621:	48 8b 7d f0          	mov    rdi,QWORD PTR [rbp-0x10]
  404625:	48 8b 55 88          	mov    rdx,QWORD PTR [rbp-0x78]
  404629:	48 8b 8d d0 fe ff ff 	mov    rcx,QWORD PTR [rbp-0x130]
  404630:	48 8d b5 78 ff ff ff 	lea    rsi,[rbp-0x88]
  404637:	e8 d4 f8 ff ff       	call   403f10 <calculate_max_redcost>
  40463c:	48 8b 45 e8          	mov    rax,QWORD PTR [rbp-0x18]
  404640:	48 99                	cqo    
  404642:	48 f7 bd 60 ff ff ff 	idiv   QWORD PTR [rbp-0xa0]
  404649:	48 83 fa 00          	cmp    rdx,0x0
  40464d:	0f 85 9a 00 00 00    	jne    4046ed <price_out_impl+0x55d>
  404653:	48 8b 7d f0          	mov    rdi,QWORD PTR [rbp-0x10]
  404657:	48 8b 55 88          	mov    rdx,QWORD PTR [rbp-0x78]
  40465b:	48 8b 8d d0 fe ff ff 	mov    rcx,QWORD PTR [rbp-0x130]
  404662:	48 8d b5 78 ff ff ff 	lea    rsi,[rbp-0x88]
  404669:	e8 a2 f8 ff ff       	call   403f10 <calculate_max_redcost>
  40466e:	66 83 bd 76 ff ff ff 	cmp    WORD PTR [rbp-0x8a],0x0
  404675:	00 
  404676:	0f 85 6c 00 00 00    	jne    4046e8 <price_out_impl+0x558>
  40467c:	48 8b 85 68 ff ff ff 	mov    rax,QWORD PTR [rbp-0x98]
  404683:	48 8b 4d 90          	mov    rcx,QWORD PTR [rbp-0x70]
  404687:	48 63 55 b4          	movsxd rdx,DWORD PTR [rbp-0x4c]
  40468b:	48 89 04 d1          	mov    QWORD PTR [rcx+rdx*8],rax
  40468f:	48 8b 7d f0          	mov    rdi,QWORD PTR [rbp-0x10]
  404693:	48 8b 75 90          	mov    rsi,QWORD PTR [rbp-0x70]
  404697:	48 8b 55 80          	mov    rdx,QWORD PTR [rbp-0x80]
  40469b:	48 8b 8d 00 ff ff ff 	mov    rcx,QWORD PTR [rbp-0x100]
  4046a2:	44 8b 45 b4          	mov    r8d,DWORD PTR [rbp-0x4c]
  4046a6:	4c 8b 4d b8          	mov    r9,QWORD PTR [rbp-0x48]
  4046aa:	48 8b 85 58 ff ff ff 	mov    rax,QWORD PTR [rbp-0xa8]
  4046b1:	4c 8b 95 d0 fe ff ff 	mov    r10,QWORD PTR [rbp-0x130]
  4046b8:	48 89 04 24          	mov    QWORD PTR [rsp],rax
  4046bc:	4c 89 54 24 08       	mov    QWORD PTR [rsp+0x8],r10
  4046c1:	e8 da f8 ff ff       	call   403fa0 <switch_arcs>
  4046c6:	48 c7 85 68 ff ff ff 	mov    QWORD PTR [rbp-0x98],0x0
  4046cd:	00 00 00 00 
  4046d1:	48 8b 4d 90          	mov    rcx,QWORD PTR [rbp-0x70]
  4046d5:	48 63 55 b4          	movsxd rdx,DWORD PTR [rbp-0x4c]
  4046d9:	48 c7 04 d1 00 00 00 	mov    QWORD PTR [rcx+rdx*8],0x0
  4046e0:	00 
  4046e1:	48 89 85 c0 fe ff ff 	mov    QWORD PTR [rbp-0x140],rax
  4046e8:	e9 00 00 00 00       	jmp    4046ed <price_out_impl+0x55d>
  4046ed:	48 8b 85 10 ff ff ff 	mov    rax,QWORD PTR [rbp-0xf0]
  4046f4:	0f bf 48 68          	movsx  ecx,WORD PTR [rax+0x68]
  4046f8:	83 f9 ff             	cmp    ecx,0xffffffff
  4046fb:	0f 84 5b 00 00 00    	je     40475c <price_out_impl+0x5cc>
  404701:	b8 01 00 00 00       	mov    eax,0x1
  404706:	89 c7                	mov    edi,eax
  404708:	b8 10 00 00 00       	mov    eax,0x10
  40470d:	89 c6                	mov    esi,eax
  40470f:	e8 7c c9 ff ff       	call   401090 <calloc@plt>
  404714:	48 89 85 48 ff ff ff 	mov    QWORD PTR [rbp-0xb8],rax
  40471b:	48 8b 85 50 ff ff ff 	mov    rax,QWORD PTR [rbp-0xb0]
  404722:	48 8b b5 48 ff ff ff 	mov    rsi,QWORD PTR [rbp-0xb8]
  404729:	48 89 46 08          	mov    QWORD PTR [rsi+0x8],rax
  40472d:	48 8b 85 10 ff ff ff 	mov    rax,QWORD PTR [rbp-0xf0]
  404734:	48 83 c0 48          	add    rax,0x48
  404738:	48 8b b5 48 ff ff ff 	mov    rsi,QWORD PTR [rbp-0xb8]
  40473f:	48 89 06             	mov    QWORD PTR [rsi],rax
  404742:	48 8b 85 48 ff ff ff 	mov    rax,QWORD PTR [rbp-0xb8]
  404749:	48 89 85 50 ff ff ff 	mov    QWORD PTR [rbp-0xb0],rax
  404750:	48 8b 45 98          	mov    rax,QWORD PTR [rbp-0x68]
  404754:	48 83 c0 01          	add    rax,0x1
  404758:	48 89 45 98          	mov    QWORD PTR [rbp-0x68],rax
  40475c:	48 8b 85 10 ff ff ff 	mov    rax,QWORD PTR [rbp-0xf0]
  404763:	0f bf 48 20          	movsx  ecx,WORD PTR [rax+0x20]
  404767:	83 f9 ff             	cmp    ecx,0xffffffff
  40476a:	0f 84 1a 00 00 00    	je     40478a <price_out_impl+0x5fa>
  404770:	48 8b 45 e8          	mov    rax,QWORD PTR [rbp-0x18]
  404774:	48 99                	cqo    
  404776:	48 f7 bd d0 fe ff ff 	idiv   QWORD PTR [rbp-0x130]
  40477d:	48 63 4d b4          	movsxd rcx,DWORD PTR [rbp-0x4c]
  404781:	48 39 ca             	cmp    rdx,rcx
  404784:	0f 84 11 00 00 00    	je     40479b <price_out_impl+0x60b>
  40478a:	48 8b 45 98          	mov    rax,QWORD PTR [rbp-0x68]
  40478e:	48 03 45 a0          	add    rax,QWORD PTR [rbp-0x60]
  404792:	48 89 45 a0          	mov    QWORD PTR [rbp-0x60],rax
  404796:	e9 60 03 00 00       	jmp    404afb <price_out_impl+0x96b>
  40479b:	48 8b 85 10 ff ff ff 	mov    rax,QWORD PTR [rbp-0xf0]
  4047a2:	48 8b 40 18          	mov    rax,QWORD PTR [rax+0x18]
  4047a6:	48 89 85 d8 fe ff ff 	mov    QWORD PTR [rbp-0x128],rax
  4047ad:	48 8b 85 d8 fe ff ff 	mov    rax,QWORD PTR [rbp-0x128]
  4047b4:	48 63 40 64          	movsxd rax,DWORD PTR [rax+0x64]
  4047b8:	48 8b 8d 10 ff ff ff 	mov    rcx,QWORD PTR [rbp-0xf0]
  4047bf:	48 2b 41 40          	sub    rax,QWORD PTR [rcx+0x40]
  4047c3:	48 03 85 18 ff ff ff 	add    rax,QWORD PTR [rbp-0xe8]
  4047ca:	48 89 45 c8          	mov    QWORD PTR [rbp-0x38],rax
  4047ce:	48 8b 85 d8 fe ff ff 	mov    rax,QWORD PTR [rbp-0x128]
  4047d5:	48 8b 00             	mov    rax,QWORD PTR [rax]
  4047d8:	48 89 85 30 ff ff ff 	mov    QWORD PTR [rbp-0xd0],rax
  4047df:	48 8b 85 50 ff ff ff 	mov    rax,QWORD PTR [rbp-0xb0]
  4047e6:	48 8b 40 08          	mov    rax,QWORD PTR [rax+0x8]
  4047ea:	48 89 85 40 ff ff ff 	mov    QWORD PTR [rbp-0xc0],rax
  4047f1:	48 83 bd 40 ff ff ff 	cmp    QWORD PTR [rbp-0xc0],0x0
  4047f8:	00 
  4047f9:	0f 84 f7 02 00 00    	je     404af6 <price_out_impl+0x966>
  4047ff:	48 8b 85 40 ff ff ff 	mov    rax,QWORD PTR [rbp-0xc0]
  404806:	48 8b 00             	mov    rax,QWORD PTR [rax]
  404809:	48 89 85 08 ff ff ff 	mov    QWORD PTR [rbp-0xf8],rax
  404810:	48 8b 85 08 ff ff ff 	mov    rax,QWORD PTR [rbp-0xf8]
  404817:	48 8b 40 10          	mov    rax,QWORD PTR [rax+0x10]
  40481b:	48 89 85 e0 fe ff ff 	mov    QWORD PTR [rbp-0x120],rax
  404822:	48 8b 85 e0 fe ff ff 	mov    rax,QWORD PTR [rbp-0x120]
  404829:	48 63 40 64          	movsxd rax,DWORD PTR [rax+0x64]
  40482d:	48 8b 8d 08 ff ff ff 	mov    rcx,QWORD PTR [rbp-0xf8]
  404834:	48 03 41 40          	add    rax,QWORD PTR [rcx+0x40]
  404838:	48 3b 45 c8          	cmp    rax,QWORD PTR [rbp-0x38]
  40483c:	0f 8e 23 00 00 00    	jle    404865 <price_out_impl+0x6d5>
  404842:	48 8b 85 40 ff ff ff 	mov    rax,QWORD PTR [rbp-0xc0]
  404849:	48 8b 40 08          	mov    rax,QWORD PTR [rax+0x8]
  40484d:	48 89 85 40 ff ff ff 	mov    QWORD PTR [rbp-0xc0],rax
  404854:	48 8b 45 a0          	mov    rax,QWORD PTR [rbp-0x60]
  404858:	48 83 c0 01          	add    rax,0x1
  40485c:	48 89 45 a0          	mov    QWORD PTR [rbp-0x60],rax
  404860:	e9 8c ff ff ff       	jmp    4047f1 <price_out_impl+0x661>
  404865:	48 8b 85 28 ff ff ff 	mov    rax,QWORD PTR [rbp-0xd8]
  40486c:	48 8b 8d e0 fe ff ff 	mov    rcx,QWORD PTR [rbp-0x120]
  404873:	48 2b 01             	sub    rax,QWORD PTR [rcx]
  404876:	48 8b 8d d8 fe ff ff 	mov    rcx,QWORD PTR [rbp-0x128]
  40487d:	48 03 01             	add    rax,QWORD PTR [rcx]
  404880:	48 89 85 20 ff ff ff 	mov    QWORD PTR [rbp-0xe0],rax
  404887:	48 83 bd 20 ff ff ff 	cmp    QWORD PTR [rbp-0xe0],0x0
  40488e:	00 
  40488f:	0f 8d 3e 02 00 00    	jge    404ad3 <price_out_impl+0x943>
  404895:	48 8b 45 a8          	mov    rax,QWORD PTR [rbp-0x58]
  404899:	48 63 4d b4          	movsxd rcx,DWORD PTR [rbp-0x4c]
  40489d:	48 8b 04 c8          	mov    rax,QWORD PTR [rax+rcx*8]
  4048a1:	48 3b 45 b8          	cmp    rax,QWORD PTR [rbp-0x48]
  4048a5:	0f 8d 65 00 00 00    	jge    404910 <price_out_impl+0x780>
  4048ab:	48 8b bd 00 ff ff ff 	mov    rdi,QWORD PTR [rbp-0x100]
  4048b2:	48 8b 45 a8          	mov    rax,QWORD PTR [rbp-0x58]
  4048b6:	48 63 4d b4          	movsxd rcx,DWORD PTR [rbp-0x4c]
  4048ba:	48 8b 34 c8          	mov    rsi,QWORD PTR [rax+rcx*8]
  4048be:	48 8b 95 e0 fe ff ff 	mov    rdx,QWORD PTR [rbp-0x120]
  4048c5:	48 8b 8d d8 fe ff ff 	mov    rcx,QWORD PTR [rbp-0x128]
  4048cc:	4c 8b 85 28 ff ff ff 	mov    r8,QWORD PTR [rbp-0xd8]
  4048d3:	4c 8b 8d 20 ff ff ff 	mov    r9,QWORD PTR [rbp-0xe0]
  4048da:	48 8b 45 f0          	mov    rax,QWORD PTR [rbp-0x10]
  4048de:	48 8b 80 a8 01 00 00 	mov    rax,QWORD PTR [rax+0x1a8]
  4048e5:	4c 8b 55 a0          	mov    r10,QWORD PTR [rbp-0x60]
  4048e9:	48 89 04 24          	mov    QWORD PTR [rsp],rax
  4048ed:	4c 89 54 24 08       	mov    QWORD PTR [rsp+0x8],r10
  4048f2:	e8 b9 ef ff ff       	call   4038b0 <insert_new_arc>
  4048f7:	48 8b 45 a8          	mov    rax,QWORD PTR [rbp-0x58]
  4048fb:	48 63 4d b4          	movsxd rcx,DWORD PTR [rbp-0x4c]
  4048ff:	48 8b 14 c8          	mov    rdx,QWORD PTR [rax+rcx*8]
  404903:	48 83 c2 01          	add    rdx,0x1
  404907:	48 89 14 c8          	mov    QWORD PTR [rax+rcx*8],rdx
  40490b:	e9 95 01 00 00       	jmp    404aa5 <price_out_impl+0x915>
  404910:	48 8b 85 00 ff ff ff 	mov    rax,QWORD PTR [rbp-0x100]
  404917:	48 8b 40 38          	mov    rax,QWORD PTR [rax+0x38]
  40491b:	48 3b 85 20 ff ff ff 	cmp    rax,QWORD PTR [rbp-0xe0]
  404922:	0f 8e b1 00 00 00    	jle    4049d9 <price_out_impl+0x849>
  404928:	66 83 bd 74 ff ff ff 	cmp    WORD PTR [rbp-0x8c],0x0
  40492f:	00 
  404930:	0f 84 12 00 00 00    	je     404948 <price_out_impl+0x7b8>
  404936:	66 c7 85 76 ff ff ff 	mov    WORD PTR [rbp-0x8a],0x0
  40493d:	00 00 
  40493f:	66 c7 85 74 ff ff ff 	mov    WORD PTR [rbp-0x8c],0x0
  404946:	00 00 
  404948:	b8 48 00 00 00       	mov    eax,0x48
  40494d:	89 c2                	mov    edx,eax
  40494f:	48 8b 4d 80          	mov    rcx,QWORD PTR [rbp-0x80]
  404953:	48 63 75 b4          	movsxd rsi,DWORD PTR [rbp-0x4c]
  404957:	48 8b 0c f1          	mov    rcx,QWORD PTR [rcx+rsi*8]
  40495b:	48 8b 75 90          	mov    rsi,QWORD PTR [rbp-0x70]
  40495f:	48 63 7d b4          	movsxd rdi,DWORD PTR [rbp-0x4c]
  404963:	48 6b 34 fe 48       	imul   rsi,QWORD PTR [rsi+rdi*8],0x48
  404968:	48 01 f1             	add    rcx,rsi
  40496b:	48 8b b5 00 ff ff ff 	mov    rsi,QWORD PTR [rbp-0x100]
  404972:	48 89 cf             	mov    rdi,rcx
  404975:	e8 36 c7 ff ff       	call   4010b0 <memcpy@plt>
  40497a:	48 8b 4d 90          	mov    rcx,QWORD PTR [rbp-0x70]
  40497e:	48 63 55 b4          	movsxd rdx,DWORD PTR [rbp-0x4c]
  404982:	48 8b 34 d1          	mov    rsi,QWORD PTR [rcx+rdx*8]
  404986:	48 83 c6 01          	add    rsi,0x1
  40498a:	48 89 34 d1          	mov    QWORD PTR [rcx+rdx*8],rsi
  40498e:	48 8b 8d 68 ff ff ff 	mov    rcx,QWORD PTR [rbp-0x98]
  404995:	48 83 c1 01          	add    rcx,0x1
  404999:	48 89 8d 68 ff ff ff 	mov    QWORD PTR [rbp-0x98],rcx
  4049a0:	48 8b bd 00 ff ff ff 	mov    rdi,QWORD PTR [rbp-0x100]
  4049a7:	48 8b b5 e0 fe ff ff 	mov    rsi,QWORD PTR [rbp-0x120]
  4049ae:	48 8b 95 d8 fe ff ff 	mov    rdx,QWORD PTR [rbp-0x128]
  4049b5:	48 8b 8d 28 ff ff ff 	mov    rcx,QWORD PTR [rbp-0xd8]
  4049bc:	4c 8b 85 20 ff ff ff 	mov    r8,QWORD PTR [rbp-0xe0]
  4049c3:	4c 8b 4d b8          	mov    r9,QWORD PTR [rbp-0x48]
  4049c7:	4c 8b 55 a0          	mov    r10,QWORD PTR [rbp-0x60]
  4049cb:	4c 89 14 24          	mov    QWORD PTR [rsp],r10
  4049cf:	e8 2c f2 ff ff       	call   403c00 <replace_weaker_arc>
  4049d4:	e9 c7 00 00 00       	jmp    404aa0 <price_out_impl+0x910>
  4049d9:	48 8b 85 20 ff ff ff 	mov    rax,QWORD PTR [rbp-0xe0]
  4049e0:	48 3b 85 78 ff ff ff 	cmp    rax,QWORD PTR [rbp-0x88]
  4049e7:	0f 8d ae 00 00 00    	jge    404a9b <price_out_impl+0x90b>
  4049ed:	48 8b 45 80          	mov    rax,QWORD PTR [rbp-0x80]
  4049f1:	48 63 4d b4          	movsxd rcx,DWORD PTR [rbp-0x4c]
  4049f5:	48 8b 04 c8          	mov    rax,QWORD PTR [rax+rcx*8]
  4049f9:	48 8b 4d 90          	mov    rcx,QWORD PTR [rbp-0x70]
  4049fd:	48 63 55 b4          	movsxd rdx,DWORD PTR [rbp-0x4c]
  404a01:	48 8b 34 d1          	mov    rsi,QWORD PTR [rcx+rdx*8]
  404a05:	48 89 f7             	mov    rdi,rsi
  404a08:	48 83 c7 01          	add    rdi,0x1
  404a0c:	48 89 3c d1          	mov    QWORD PTR [rcx+rdx*8],rdi
  404a10:	48 6b ce 48          	imul   rcx,rsi,0x48
  404a14:	48 01 c8             	add    rax,rcx
  404a17:	48 89 85 e8 fe ff ff 	mov    QWORD PTR [rbp-0x118],rax
  404a1e:	48 8b 85 e0 fe ff ff 	mov    rax,QWORD PTR [rbp-0x120]
  404a25:	48 8b 8d e8 fe ff ff 	mov    rcx,QWORD PTR [rbp-0x118]
  404a2c:	48 89 41 10          	mov    QWORD PTR [rcx+0x10],rax
  404a30:	48 8b 85 d8 fe ff ff 	mov    rax,QWORD PTR [rbp-0x128]
  404a37:	48 8b 8d e8 fe ff ff 	mov    rcx,QWORD PTR [rbp-0x118]
  404a3e:	48 89 41 18          	mov    QWORD PTR [rcx+0x18],rax
  404a42:	48 8b 85 28 ff ff ff 	mov    rax,QWORD PTR [rbp-0xd8]
  404a49:	48 8b 8d e8 fe ff ff 	mov    rcx,QWORD PTR [rbp-0x118]
  404a50:	48 89 41 40          	mov    QWORD PTR [rcx+0x40],rax
  404a54:	48 8b 85 28 ff ff ff 	mov    rax,QWORD PTR [rbp-0xd8]
  404a5b:	48 8b 8d e8 fe ff ff 	mov    rcx,QWORD PTR [rbp-0x118]
  404a62:	48 89 41 08          	mov    QWORD PTR [rcx+0x8],rax
  404a66:	48 8b 85 20 ff ff ff 	mov    rax,QWORD PTR [rbp-0xe0]
  404a6d:	48 8b 8d e8 fe ff ff 	mov    rcx,QWORD PTR [rbp-0x118]
  404a74:	48 89 41 38          	mov    QWORD PTR [rcx+0x38],rax
  404a78:	48 8b 45 a0          	mov    rax,QWORD PTR [rbp-0x60]
  404a7c:	41 89 c0             	mov    r8d,eax
  404a7f:	48 8b 85 e8 fe ff ff 	mov    rax,QWORD PTR [rbp-0x118]
  404a86:	44 89 00             	mov    DWORD PTR [rax],r8d
  404a89:	48 8b 85 68 ff ff ff 	mov    rax,QWORD PTR [rbp-0x98]
  404a90:	48 83 c0 01          	add    rax,0x1
  404a94:	48 89 85 68 ff ff ff 	mov    QWORD PTR [rbp-0x98],rax
  404a9b:	e9 00 00 00 00       	jmp    404aa0 <price_out_impl+0x910>
  404aa0:	e9 00 00 00 00       	jmp    404aa5 <price_out_impl+0x915>
  404aa5:	48 8b 45 90          	mov    rax,QWORD PTR [rbp-0x70]
  404aa9:	48 63 4d b4          	movsxd rcx,DWORD PTR [rbp-0x4c]
  404aad:	48 8b 04 c8          	mov    rax,QWORD PTR [rax+rcx*8]
  404ab1:	48 3b 85 58 ff ff ff 	cmp    rax,QWORD PTR [rbp-0xa8]
  404ab8:	0f 85 10 00 00 00    	jne    404ace <price_out_impl+0x93e>
  404abe:	48 8b 45 90          	mov    rax,QWORD PTR [rbp-0x70]
  404ac2:	48 63 4d b4          	movsxd rcx,DWORD PTR [rbp-0x4c]
  404ac6:	48 c7 04 c8 00 00 00 	mov    QWORD PTR [rax+rcx*8],0x0
  404acd:	00 
  404ace:	e9 00 00 00 00       	jmp    404ad3 <price_out_impl+0x943>
  404ad3:	48 8b 85 40 ff ff ff 	mov    rax,QWORD PTR [rbp-0xc0]
  404ada:	48 8b 40 08          	mov    rax,QWORD PTR [rax+0x8]
  404ade:	48 89 85 40 ff ff ff 	mov    QWORD PTR [rbp-0xc0],rax
  404ae5:	48 8b 45 a0          	mov    rax,QWORD PTR [rbp-0x60]
  404ae9:	48 83 c0 01          	add    rax,0x1
  404aed:	48 89 45 a0          	mov    QWORD PTR [rbp-0x60],rax
  404af1:	e9 fb fc ff ff       	jmp    4047f1 <price_out_impl+0x661>
  404af6:	e9 00 00 00 00       	jmp    404afb <price_out_impl+0x96b>
  404afb:	48 8b 45 e8          	mov    rax,QWORD PTR [rbp-0x18]
  404aff:	48 83 c0 01          	add    rax,0x1
  404b03:	48 89 45 e8          	mov    QWORD PTR [rbp-0x18],rax
  404b07:	48 8b 85 10 ff ff ff 	mov    rax,QWORD PTR [rbp-0xf0]
  404b0e:	48 05 d8 00 00 00    	add    rax,0xd8
  404b14:	48 89 85 10 ff ff ff 	mov    QWORD PTR [rbp-0xf0],rax
  404b1b:	e9 e5 fa ff ff       	jmp    404605 <price_out_impl+0x475>
  404b20:	48 8b 85 68 ff ff ff 	mov    rax,QWORD PTR [rbp-0x98]
  404b27:	48 8b 4d 90          	mov    rcx,QWORD PTR [rbp-0x70]
  404b2b:	48 63 55 b4          	movsxd rdx,DWORD PTR [rbp-0x4c]
  404b2f:	48 89 04 d1          	mov    QWORD PTR [rcx+rdx*8],rax
  404b33:	66 83 bd 76 ff ff ff 	cmp    WORD PTR [rbp-0x8a],0x0
  404b3a:	00 
  404b3b:	0f 95 c0             	setne  al
  404b3e:	34 ff                	xor    al,0xff
  404b40:	a8 01                	test   al,0x1
  404b42:	0f 85 05 00 00 00    	jne    404b4d <price_out_impl+0x9bd>
  404b48:	e9 63 00 00 00       	jmp    404bb0 <price_out_impl+0xa20>
  404b4d:	66 c7 85 76 ff ff ff 	mov    WORD PTR [rbp-0x8a],0x1
  404b54:	01 00 
  404b56:	48 8b 7d f0          	mov    rdi,QWORD PTR [rbp-0x10]
  404b5a:	48 8b 75 90          	mov    rsi,QWORD PTR [rbp-0x70]
  404b5e:	48 8b 55 80          	mov    rdx,QWORD PTR [rbp-0x80]
  404b62:	48 8b 8d 00 ff ff ff 	mov    rcx,QWORD PTR [rbp-0x100]
  404b69:	44 8b 45 b4          	mov    r8d,DWORD PTR [rbp-0x4c]
  404b6d:	4c 8b 4d b8          	mov    r9,QWORD PTR [rbp-0x48]
  404b71:	48 8b 85 58 ff ff ff 	mov    rax,QWORD PTR [rbp-0xa8]
  404b78:	4c 8b 95 d0 fe ff ff 	mov    r10,QWORD PTR [rbp-0x130]
  404b7f:	48 89 04 24          	mov    QWORD PTR [rsp],rax
  404b83:	4c 89 54 24 08       	mov    QWORD PTR [rsp+0x8],r10
  404b88:	e8 13 f4 ff ff       	call   403fa0 <switch_arcs>
  404b8d:	48 89 85 68 ff ff ff 	mov    QWORD PTR [rbp-0x98],rax
  404b94:	48 83 bd 68 ff ff ff 	cmp    QWORD PTR [rbp-0x98],0x0
  404b9b:	00 
  404b9c:	0f 84 09 00 00 00    	je     404bab <price_out_impl+0xa1b>
  404ba2:	66 c7 85 76 ff ff ff 	mov    WORD PTR [rbp-0x8a],0x0
  404ba9:	00 00 
  404bab:	e9 83 ff ff ff       	jmp    404b33 <price_out_impl+0x9a3>
  404bb0:	e9 00 00 00 00       	jmp    404bb5 <price_out_impl+0xa25>
  404bb5:	48 8b 85 50 ff ff ff 	mov    rax,QWORD PTR [rbp-0xb0]
  404bbc:	48 83 78 08 00       	cmp    QWORD PTR [rax+0x8],0x0
  404bc1:	0f 84 34 00 00 00    	je     404bfb <price_out_impl+0xa6b>
  404bc7:	48 8b 85 50 ff ff ff 	mov    rax,QWORD PTR [rbp-0xb0]
  404bce:	48 89 85 48 ff ff ff 	mov    QWORD PTR [rbp-0xb8],rax
  404bd5:	48 8b 85 50 ff ff ff 	mov    rax,QWORD PTR [rbp-0xb0]
  404bdc:	48 8b 40 08          	mov    rax,QWORD PTR [rax+0x8]
  404be0:	48 89 85 50 ff ff ff 	mov    QWORD PTR [rbp-0xb0],rax
  404be7:	48 8b 85 48 ff ff ff 	mov    rax,QWORD PTR [rbp-0xb8]
  404bee:	48 89 c7             	mov    rdi,rax
  404bf1:	e8 3a c4 ff ff       	call   401030 <free@plt>
  404bf6:	e9 ba ff ff ff       	jmp    404bb5 <price_out_impl+0xa25>
  404bfb:	48 8b 85 50 ff ff ff 	mov    rax,QWORD PTR [rbp-0xb0]
  404c02:	48 89 c7             	mov    rdi,rax
  404c05:	e8 26 c4 ff ff       	call   401030 <free@plt>
  404c0a:	b9 08 00 00 00       	mov    ecx,0x8
  404c0f:	89 ca                	mov    edx,ecx
  404c11:	48 b8 40 36 40 00 00 	movabs rax,0x403640
  404c18:	00 00 00 
  404c1b:	48 8b 7d 88          	mov    rdi,QWORD PTR [rbp-0x78]
  404c1f:	48 63 75 b4          	movsxd rsi,DWORD PTR [rbp-0x4c]
  404c23:	48 8b 34 f7          	mov    rsi,QWORD PTR [rdi+rsi*8]
  404c27:	48 8b 7d a8          	mov    rdi,QWORD PTR [rbp-0x58]
  404c2b:	4c 63 45 b4          	movsxd r8,DWORD PTR [rbp-0x4c]
  404c2f:	4a 8b 3c c7          	mov    rdi,QWORD PTR [rdi+r8*8]
  404c33:	48 89 bd b8 fe ff ff 	mov    QWORD PTR [rbp-0x148],rdi
  404c3a:	48 89 f7             	mov    rdi,rsi
  404c3d:	48 8b b5 b8 fe ff ff 	mov    rsi,QWORD PTR [rbp-0x148]
  404c44:	48 89 c1             	mov    rcx,rax
  404c47:	e8 d4 24 00 00       	call   407120 <spec_qsort>
  404c4c:	48 8b 7d f0          	mov    rdi,QWORD PTR [rbp-0x10]
  404c50:	48 8b 55 a8          	mov    rdx,QWORD PTR [rbp-0x58]
  404c54:	48 8b 4d 88          	mov    rcx,QWORD PTR [rbp-0x78]
  404c58:	48 8d 75 d8          	lea    rsi,[rbp-0x28]
  404c5c:	e8 df e5 ff ff       	call   403240 <marc_arcs>
  404c61:	48 8b 45 88          	mov    rax,QWORD PTR [rbp-0x78]
  404c65:	48 63 4d b4          	movsxd rcx,DWORD PTR [rbp-0x4c]
  404c69:	48 8b 04 c8          	mov    rax,QWORD PTR [rax+rcx*8]
  404c6d:	48 89 c7             	mov    rdi,rax
  404c70:	e8 bb c3 ff ff       	call   401030 <free@plt>
  404c75:	48 8b 45 a8          	mov    rax,QWORD PTR [rbp-0x58]
  404c79:	48 63 4d b4          	movsxd rcx,DWORD PTR [rbp-0x4c]
  404c7d:	48 83 3c c8 00       	cmp    QWORD PTR [rax+rcx*8],0x0
  404c82:	0f 84 0c 02 00 00    	je     404e94 <price_out_impl+0xd04>
  404c88:	48 8b 45 f0          	mov    rax,QWORD PTR [rbp-0x10]
  404c8c:	48 8b 80 40 02 00 00 	mov    rax,QWORD PTR [rax+0x240]
  404c93:	48 63 4d b4          	movsxd rcx,DWORD PTR [rbp-0x4c]
  404c97:	48 0f af 4d b8       	imul   rcx,QWORD PTR [rbp-0x48]
  404c9c:	48 6b c9 48          	imul   rcx,rcx,0x48
  404ca0:	48 01 c8             	add    rax,rcx
  404ca3:	48 89 85 00 ff ff ff 	mov    QWORD PTR [rbp-0x100],rax
  404caa:	48 8b 85 00 ff ff ff 	mov    rax,QWORD PTR [rbp-0x100]
  404cb1:	48 8b 4d a8          	mov    rcx,QWORD PTR [rbp-0x58]
  404cb5:	48 63 55 b4          	movsxd rdx,DWORD PTR [rbp-0x4c]
  404cb9:	48 6b 0c d1 48       	imul   rcx,QWORD PTR [rcx+rdx*8],0x48
  404cbe:	48 01 c8             	add    rax,rcx
  404cc1:	48 89 85 f8 fe ff ff 	mov    QWORD PTR [rbp-0x108],rax
  404cc8:	48 83 7d d0 00       	cmp    QWORD PTR [rbp-0x30],0x0
  404ccd:	0f 84 ae 00 00 00    	je     404d81 <price_out_impl+0xbf1>
  404cd3:	e9 00 00 00 00       	jmp    404cd8 <price_out_impl+0xb48>
  404cd8:	48 8b 85 00 ff ff ff 	mov    rax,QWORD PTR [rbp-0x100]
  404cdf:	48 3b 85 f8 fe ff ff 	cmp    rax,QWORD PTR [rbp-0x108]
  404ce6:	0f 84 90 00 00 00    	je     404d7c <price_out_impl+0xbec>
  404cec:	48 8b 85 00 ff ff ff 	mov    rax,QWORD PTR [rbp-0x100]
  404cf3:	48 83 78 38 01       	cmp    QWORD PTR [rax+0x38],0x1
  404cf8:	0f 85 62 00 00 00    	jne    404d60 <price_out_impl+0xbd0>
  404cfe:	48 8b 85 00 ff ff ff 	mov    rax,QWORD PTR [rbp-0x100]
  404d05:	48 c7 40 38 00 00 00 	mov    QWORD PTR [rax+0x38],0x0
  404d0c:	00 
  404d0d:	48 8b 85 00 ff ff ff 	mov    rax,QWORD PTR [rbp-0x100]
  404d14:	66 c7 40 20 01 00    	mov    WORD PTR [rax+0x20],0x1
  404d1a:	48 8b 85 f0 fe ff ff 	mov    rax,QWORD PTR [rbp-0x110]
  404d21:	48 8b 7d f0          	mov    rdi,QWORD PTR [rbp-0x10]
  404d25:	48 8b 8d 00 ff ff ff 	mov    rcx,QWORD PTR [rbp-0x100]
  404d2c:	48 63 31             	movsxd rsi,DWORD PTR [rcx]
  404d2f:	48 89 85 b0 fe ff ff 	mov    QWORD PTR [rbp-0x150],rax
  404d36:	e8 c5 cc ff ff       	call   401a00 <getArcPosition>
  404d3b:	ba 48 00 00 00       	mov    edx,0x48
  404d40:	48 6b c0 48          	imul   rax,rax,0x48
  404d44:	48 8b 8d b0 fe ff ff 	mov    rcx,QWORD PTR [rbp-0x150]
  404d4b:	48 01 c1             	add    rcx,rax
  404d4e:	48 8b 85 00 ff ff ff 	mov    rax,QWORD PTR [rbp-0x100]
  404d55:	48 89 cf             	mov    rdi,rcx
  404d58:	48 89 c6             	mov    rsi,rax
  404d5b:	e8 50 c3 ff ff       	call   4010b0 <memcpy@plt>
  404d60:	e9 00 00 00 00       	jmp    404d65 <price_out_impl+0xbd5>
  404d65:	48 8b 85 00 ff ff ff 	mov    rax,QWORD PTR [rbp-0x100]
  404d6c:	48 83 c0 48          	add    rax,0x48
  404d70:	48 89 85 00 ff ff ff 	mov    QWORD PTR [rbp-0x100],rax
  404d77:	e9 5c ff ff ff       	jmp    404cd8 <price_out_impl+0xb48>
  404d7c:	e9 0e 01 00 00       	jmp    404e8f <price_out_impl+0xcff>
  404d81:	e9 00 00 00 00       	jmp    404d86 <price_out_impl+0xbf6>
  404d86:	48 8b 85 00 ff ff ff 	mov    rax,QWORD PTR [rbp-0x100]
  404d8d:	48 3b 85 f8 fe ff ff 	cmp    rax,QWORD PTR [rbp-0x108]
  404d94:	0f 84 f0 00 00 00    	je     404e8a <price_out_impl+0xcfa>
  404d9a:	48 8b 85 00 ff ff ff 	mov    rax,QWORD PTR [rbp-0x100]
  404da1:	48 83 78 38 01       	cmp    QWORD PTR [rax+0x38],0x1
  404da6:	0f 85 c2 00 00 00    	jne    404e6e <price_out_impl+0xcde>
  404dac:	48 8b 85 00 ff ff ff 	mov    rax,QWORD PTR [rbp-0x100]
  404db3:	48 c7 40 38 00 00 00 	mov    QWORD PTR [rax+0x38],0x0
  404dba:	00 
  404dbb:	48 8b 85 00 ff ff ff 	mov    rax,QWORD PTR [rbp-0x100]
  404dc2:	66 c7 40 20 01 00    	mov    WORD PTR [rax+0x20],0x1
  404dc8:	48 8b 85 00 ff ff ff 	mov    rax,QWORD PTR [rbp-0x100]
  404dcf:	48 8b 40 10          	mov    rax,QWORD PTR [rax+0x10]
  404dd3:	48 8b 40 38          	mov    rax,QWORD PTR [rax+0x38]
  404dd7:	48 8b 8d 00 ff ff ff 	mov    rcx,QWORD PTR [rbp-0x100]
  404dde:	48 89 41 28          	mov    QWORD PTR [rcx+0x28],rax
  404de2:	48 8b 85 00 ff ff ff 	mov    rax,QWORD PTR [rbp-0x100]
  404de9:	48 8b 8d 00 ff ff ff 	mov    rcx,QWORD PTR [rbp-0x100]
  404df0:	48 8b 49 10          	mov    rcx,QWORD PTR [rcx+0x10]
  404df4:	48 89 41 38          	mov    QWORD PTR [rcx+0x38],rax
  404df8:	48 8b 85 00 ff ff ff 	mov    rax,QWORD PTR [rbp-0x100]
  404dff:	48 8b 40 18          	mov    rax,QWORD PTR [rax+0x18]
  404e03:	48 8b 40 40          	mov    rax,QWORD PTR [rax+0x40]
  404e07:	48 8b 8d 00 ff ff ff 	mov    rcx,QWORD PTR [rbp-0x100]
  404e0e:	48 89 41 30          	mov    QWORD PTR [rcx+0x30],rax
  404e12:	48 8b 85 00 ff ff ff 	mov    rax,QWORD PTR [rbp-0x100]
  404e19:	48 8b 8d 00 ff ff ff 	mov    rcx,QWORD PTR [rbp-0x100]
  404e20:	48 8b 49 18          	mov    rcx,QWORD PTR [rcx+0x18]
  404e24:	48 89 41 40          	mov    QWORD PTR [rcx+0x40],rax
  404e28:	48 8b 85 f0 fe ff ff 	mov    rax,QWORD PTR [rbp-0x110]
  404e2f:	48 8b 7d f0          	mov    rdi,QWORD PTR [rbp-0x10]
  404e33:	48 8b 8d 00 ff ff ff 	mov    rcx,QWORD PTR [rbp-0x100]
  404e3a:	48 63 31             	movsxd rsi,DWORD PTR [rcx]
  404e3d:	48 89 85 a8 fe ff ff 	mov    QWORD PTR [rbp-0x158],rax
  404e44:	e8 b7 cb ff ff       	call   401a00 <getArcPosition>
  404e49:	ba 48 00 00 00       	mov    edx,0x48
  404e4e:	48 6b c0 48          	imul   rax,rax,0x48
  404e52:	48 8b 8d a8 fe ff ff 	mov    rcx,QWORD PTR [rbp-0x158]
  404e59:	48 01 c1             	add    rcx,rax
  404e5c:	48 8b 85 00 ff ff ff 	mov    rax,QWORD PTR [rbp-0x100]
  404e63:	48 89 cf             	mov    rdi,rcx
  404e66:	48 89 c6             	mov    rsi,rax
  404e69:	e8 42 c2 ff ff       	call   4010b0 <memcpy@plt>
  404e6e:	e9 00 00 00 00       	jmp    404e73 <price_out_impl+0xce3>
  404e73:	48 8b 85 00 ff ff ff 	mov    rax,QWORD PTR [rbp-0x100]
  404e7a:	48 83 c0 48          	add    rax,0x48
  404e7e:	48 89 85 00 ff ff ff 	mov    QWORD PTR [rbp-0x100],rax
  404e85:	e9 fc fe ff ff       	jmp    404d86 <price_out_impl+0xbf6>
  404e8a:	e9 00 00 00 00       	jmp    404e8f <price_out_impl+0xcff>
  404e8f:	e9 00 00 00 00       	jmp    404e94 <price_out_impl+0xd04>
  404e94:	48 8b 45 d8          	mov    rax,QWORD PTR [rbp-0x28]
  404e98:	48 8b 4d f0          	mov    rcx,QWORD PTR [rbp-0x10]
  404e9c:	48 03 81 b8 01 00 00 	add    rax,QWORD PTR [rcx+0x1b8]
  404ea3:	48 89 81 b8 01 00 00 	mov    QWORD PTR [rcx+0x1b8],rax
  404eaa:	48 8b 45 d8          	mov    rax,QWORD PTR [rbp-0x28]
  404eae:	48 8b 4d f0          	mov    rcx,QWORD PTR [rbp-0x10]
  404eb2:	48 8b 91 c0 01 00 00 	mov    rdx,QWORD PTR [rcx+0x1c0]
  404eb9:	48 29 c2             	sub    rdx,rax
  404ebc:	48 89 91 c0 01 00 00 	mov    QWORD PTR [rcx+0x1c0],rdx
  404ec3:	48 8b 7d f0          	mov    rdi,QWORD PTR [rbp-0x10]
  404ec7:	48 8b 45 f0          	mov    rax,QWORD PTR [rbp-0x10]
  404ecb:	48 8b 90 a8 01 00 00 	mov    rdx,QWORD PTR [rax+0x1a8]
  404ed2:	48 be 00 1a 40 00 00 	movabs rsi,0x401a00
  404ed9:	00 00 00 
  404edc:	e8 4f e2 ff ff       	call   403130 <refreshPositions>
  404ee1:	48 8b 4d f0          	mov    rcx,QWORD PTR [rbp-0x10]
  404ee5:	48 8b 89 a8 01 00 00 	mov    rcx,QWORD PTR [rcx+0x1a8]
  404eec:	48 03 4d d8          	add    rcx,QWORD PTR [rbp-0x28]
  404ef0:	48 8b 55 f0          	mov    rdx,QWORD PTR [rbp-0x10]
  404ef4:	48 89 8a a8 01 00 00 	mov    QWORD PTR [rdx+0x1a8],rcx
  404efb:	48 8b 4d f0          	mov    rcx,QWORD PTR [rbp-0x10]
  404eff:	48 8b 89 38 02 00 00 	mov    rcx,QWORD PTR [rcx+0x238]
  404f06:	48 8b 55 f0          	mov    rdx,QWORD PTR [rbp-0x10]
  404f0a:	48 6b 92 a8 01 00 00 	imul   rdx,QWORD PTR [rdx+0x1a8],0x48
  404f11:	48 
  404f12:	48 01 d1             	add    rcx,rdx
  404f15:	48 8b 55 f0          	mov    rdx,QWORD PTR [rbp-0x10]
  404f19:	48 89 8a 40 02 00 00 	mov    QWORD PTR [rdx+0x240],rcx
  404f20:	48 8b 4d a8          	mov    rcx,QWORD PTR [rbp-0x58]
  404f24:	48 89 cf             	mov    rdi,rcx
  404f27:	48 89 85 a0 fe ff ff 	mov    QWORD PTR [rbp-0x160],rax
  404f2e:	e8 fd c0 ff ff       	call   401030 <free@plt>
  404f33:	48 8b 45 90          	mov    rax,QWORD PTR [rbp-0x70]
  404f37:	48 89 c7             	mov    rdi,rax
  404f3a:	e8 f1 c0 ff ff       	call   401030 <free@plt>
  404f3f:	48 8b 45 88          	mov    rax,QWORD PTR [rbp-0x78]
  404f43:	48 89 c7             	mov    rdi,rax
  404f46:	e8 e5 c0 ff ff       	call   401030 <free@plt>
  404f4b:	48 8b 45 80          	mov    rax,QWORD PTR [rbp-0x80]
  404f4f:	48 89 c7             	mov    rdi,rax
  404f52:	e8 d9 c0 ff ff       	call   401030 <free@plt>
  404f57:	48 8b 45 d8          	mov    rax,QWORD PTR [rbp-0x28]
  404f5b:	48 89 45 f8          	mov    QWORD PTR [rbp-0x8],rax
  404f5f:	48 8b 45 f8          	mov    rax,QWORD PTR [rbp-0x8]
  404f63:	48 81 c4 70 01 00 00 	add    rsp,0x170
  404f6a:	5d                   	pop    rbp
  404f6b:	c3                   	ret    
  404f6c:	0f 1f 40 00          	nop    DWORD PTR [rax+0x0]

0000000000404f70 <suspend_impl>:
  404f70:	55                   	push   rbp
  404f71:	48 89 e5             	mov    rbp,rsp
  404f74:	48 83 ec 60          	sub    rsp,0x60
  404f78:	b8 a0 0f 00 00       	mov    eax,0xfa0
  404f7d:	89 c1                	mov    ecx,eax
  404f7f:	48 89 7d f8          	mov    QWORD PTR [rbp-0x8],rdi
  404f83:	48 89 75 f0          	mov    QWORD PTR [rbp-0x10],rsi
  404f87:	48 89 55 e8          	mov    QWORD PTR [rbp-0x18],rdx
  404f8b:	48 8b 55 f8          	mov    rdx,QWORD PTR [rbp-0x8]
  404f8f:	48 c7 82 80 02 00 00 	mov    QWORD PTR [rdx+0x280],0xfa0
  404f96:	a0 0f 00 00 
  404f9a:	48 8b 55 f8          	mov    rdx,QWORD PTR [rbp-0x8]
  404f9e:	48 8b 92 a8 01 00 00 	mov    rdx,QWORD PTR [rdx+0x1a8]
  404fa5:	48 83 ea 01          	sub    rdx,0x1
  404fa9:	48 89 d0             	mov    rax,rdx
  404fac:	48 99                	cqo    
  404fae:	48 f7 f9             	idiv   rcx
  404fb1:	48 83 c0 01          	add    rax,0x1
  404fb5:	48 8b 75 f8          	mov    rsi,QWORD PTR [rbp-0x8]
  404fb9:	48 89 86 70 02 00 00 	mov    QWORD PTR [rsi+0x270],rax
  404fc0:	48 8b 45 f8          	mov    rax,QWORD PTR [rbp-0x8]
  404fc4:	48 8b 80 70 02 00 00 	mov    rax,QWORD PTR [rax+0x270]
  404fcb:	48 8b 75 f8          	mov    rsi,QWORD PTR [rbp-0x8]
  404fcf:	48 8b b6 a8 01 00 00 	mov    rsi,QWORD PTR [rsi+0x1a8]
  404fd6:	48 89 45 b8          	mov    QWORD PTR [rbp-0x48],rax
  404fda:	48 89 f0             	mov    rax,rsi
  404fdd:	48 99                	cqo    
  404fdf:	48 f7 f9             	idiv   rcx
  404fe2:	48 29 d1             	sub    rcx,rdx
  404fe5:	48 8b 55 b8          	mov    rdx,QWORD PTR [rbp-0x48]
  404fe9:	48 29 ca             	sub    rdx,rcx
  404fec:	48 8b 4d f8          	mov    rcx,QWORD PTR [rbp-0x8]
  404ff0:	48 89 91 78 02 00 00 	mov    QWORD PTR [rcx+0x278],rdx
  404ff7:	48 8b 45 f8          	mov    rax,QWORD PTR [rbp-0x8]
  404ffb:	48 83 b8 78 02 00 00 	cmp    QWORD PTR [rax+0x278],0x0
  405002:	00 
  405003:	0f 8d 3c 00 00 00    	jge    405045 <suspend_impl+0xd5>
  405009:	48 8b 45 f8          	mov    rax,QWORD PTR [rbp-0x8]
  40500d:	48 8b 80 70 02 00 00 	mov    rax,QWORD PTR [rax+0x270]
  405014:	48 8b 4d f8          	mov    rcx,QWORD PTR [rbp-0x8]
  405018:	48 03 81 78 02 00 00 	add    rax,QWORD PTR [rcx+0x278]
  40501f:	48 8b 4d f8          	mov    rcx,QWORD PTR [rbp-0x8]
  405023:	48 89 81 78 02 00 00 	mov    QWORD PTR [rcx+0x278],rax
  40502a:	48 8b 45 f8          	mov    rax,QWORD PTR [rbp-0x8]
  40502e:	48 8b 88 80 02 00 00 	mov    rcx,QWORD PTR [rax+0x280]
  405035:	48 83 c1 ff          	add    rcx,0xffffffffffffffff
  405039:	48 89 88 80 02 00 00 	mov    QWORD PTR [rax+0x280],rcx
  405040:	e9 b2 ff ff ff       	jmp    404ff7 <suspend_impl+0x87>
  405045:	48 83 7d e8 00       	cmp    QWORD PTR [rbp-0x18],0x0
  40504a:	0f 84 14 00 00 00    	je     405064 <suspend_impl+0xf4>
  405050:	48 8b 45 f8          	mov    rax,QWORD PTR [rbp-0x8]
  405054:	48 8b 80 b8 01 00 00 	mov    rax,QWORD PTR [rax+0x1b8]
  40505b:	48 89 45 e0          	mov    QWORD PTR [rbp-0x20],rax
  40505f:	e9 59 01 00 00       	jmp    4051bd <suspend_impl+0x24d>
  405064:	48 8b 45 f8          	mov    rax,QWORD PTR [rbp-0x8]
  405068:	48 8b 80 a8 01 00 00 	mov    rax,QWORD PTR [rax+0x1a8]
  40506f:	48 8b 4d f8          	mov    rcx,QWORD PTR [rbp-0x8]
  405073:	48 2b 81 b8 01 00 00 	sub    rax,QWORD PTR [rcx+0x1b8]
  40507a:	48 89 45 c0          	mov    QWORD PTR [rbp-0x40],rax
  40507e:	48 8b 45 f8          	mov    rax,QWORD PTR [rbp-0x8]
  405082:	48 8b 80 a8 01 00 00 	mov    rax,QWORD PTR [rax+0x1a8]
  405089:	48 8b 4d f8          	mov    rcx,QWORD PTR [rbp-0x8]
  40508d:	48 2b 81 b8 01 00 00 	sub    rax,QWORD PTR [rcx+0x1b8]
  405094:	48 89 45 c8          	mov    QWORD PTR [rbp-0x38],rax
  405098:	48 c7 45 e0 00 00 00 	mov    QWORD PTR [rbp-0x20],0x0
  40509f:	00 
  4050a0:	48 8b 45 c8          	mov    rax,QWORD PTR [rbp-0x38]
  4050a4:	48 8b 4d f8          	mov    rcx,QWORD PTR [rbp-0x8]
  4050a8:	48 3b 81 a8 01 00 00 	cmp    rax,QWORD PTR [rcx+0x1a8]
  4050af:	0f 8d 03 01 00 00    	jge    4051b8 <suspend_impl+0x248>
  4050b5:	48 8b 45 f8          	mov    rax,QWORD PTR [rbp-0x8]
  4050b9:	48 8b 80 38 02 00 00 	mov    rax,QWORD PTR [rax+0x238]
  4050c0:	48 8b 7d f8          	mov    rdi,QWORD PTR [rbp-0x8]
  4050c4:	48 8b 75 c8          	mov    rsi,QWORD PTR [rbp-0x38]
  4050c8:	48 89 45 b0          	mov    QWORD PTR [rbp-0x50],rax
  4050cc:	e8 2f c9 ff ff       	call   401a00 <getArcPosition>
  4050d1:	48 6b c0 48          	imul   rax,rax,0x48
  4050d5:	48 8b 75 b0          	mov    rsi,QWORD PTR [rbp-0x50]
  4050d9:	48 01 c6             	add    rsi,rax
  4050dc:	48 89 75 d0          	mov    QWORD PTR [rbp-0x30],rsi
  4050e0:	48 8b 45 d0          	mov    rax,QWORD PTR [rbp-0x30]
  4050e4:	0f bf 48 20          	movsx  ecx,WORD PTR [rax+0x20]
  4050e8:	83 f9 01             	cmp    ecx,0x1
  4050eb:	0f 85 27 00 00 00    	jne    405118 <suspend_impl+0x1a8>
  4050f1:	48 8b 45 d0          	mov    rax,QWORD PTR [rbp-0x30]
  4050f5:	48 8b 40 08          	mov    rax,QWORD PTR [rax+0x8]
  4050f9:	48 8b 4d d0          	mov    rcx,QWORD PTR [rbp-0x30]
  4050fd:	48 8b 49 10          	mov    rcx,QWORD PTR [rcx+0x10]
  405101:	48 2b 01             	sub    rax,QWORD PTR [rcx]
  405104:	48 8b 4d d0          	mov    rcx,QWORD PTR [rbp-0x30]
  405108:	48 8b 49 18          	mov    rcx,QWORD PTR [rcx+0x18]
  40510c:	48 03 01             	add    rax,QWORD PTR [rcx]
  40510f:	48 89 45 d8          	mov    QWORD PTR [rbp-0x28],rax
  405113:	e9 49 00 00 00       	jmp    405161 <suspend_impl+0x1f1>
  405118:	48 c7 45 d8 fe ff ff 	mov    QWORD PTR [rbp-0x28],0xfffffffffffffffe
  40511f:	ff 
  405120:	48 8b 45 d0          	mov    rax,QWORD PTR [rbp-0x30]
  405124:	0f bf 48 20          	movsx  ecx,WORD PTR [rax+0x20]
  405128:	83 f9 00             	cmp    ecx,0x0
  40512b:	0f 85 2b 00 00 00    	jne    40515c <suspend_impl+0x1ec>
  405131:	48 8b 45 d0          	mov    rax,QWORD PTR [rbp-0x30]
  405135:	48 8b 40 10          	mov    rax,QWORD PTR [rax+0x10]
  405139:	48 8b 40 30          	mov    rax,QWORD PTR [rax+0x30]
  40513d:	48 3b 45 d0          	cmp    rax,QWORD PTR [rbp-0x30]
  405141:	0f 84 10 00 00 00    	je     405157 <suspend_impl+0x1e7>
  405147:	48 8b 45 d0          	mov    rax,QWORD PTR [rbp-0x30]
  40514b:	48 8b 4d d0          	mov    rcx,QWORD PTR [rbp-0x30]
  40514f:	48 8b 49 18          	mov    rcx,QWORD PTR [rcx+0x18]
  405153:	48 89 41 30          	mov    QWORD PTR [rcx+0x30],rax
  405157:	e9 00 00 00 00       	jmp    40515c <suspend_impl+0x1ec>
  40515c:	e9 00 00 00 00       	jmp    405161 <suspend_impl+0x1f1>
  405161:	48 8b 45 d8          	mov    rax,QWORD PTR [rbp-0x28]
  405165:	48 3b 45 f0          	cmp    rax,QWORD PTR [rbp-0x10]
  405169:	0f 8e 1b 00 00 00    	jle    40518a <suspend_impl+0x21a>
  40516f:	48 8b 45 e0          	mov    rax,QWORD PTR [rbp-0x20]
  405173:	48 83 c0 01          	add    rax,0x1
  405177:	48 89 45 e0          	mov    QWORD PTR [rbp-0x20],rax
  40517b:	48 8b 45 d0          	mov    rax,QWORD PTR [rbp-0x30]
  40517f:	c7 00 ff ff ff ff    	mov    DWORD PTR [rax],0xffffffff
  405185:	e9 18 00 00 00       	jmp    4051a2 <suspend_impl+0x232>
  40518a:	48 8b 45 c0          	mov    rax,QWORD PTR [rbp-0x40]
  40518e:	89 c1                	mov    ecx,eax
  405190:	48 8b 45 d0          	mov    rax,QWORD PTR [rbp-0x30]
  405194:	89 08                	mov    DWORD PTR [rax],ecx
  405196:	48 8b 45 c0          	mov    rax,QWORD PTR [rbp-0x40]
  40519a:	48 83 c0 01          	add    rax,0x1
  40519e:	48 89 45 c0          	mov    QWORD PTR [rbp-0x40],rax
  4051a2:	e9 00 00 00 00       	jmp    4051a7 <suspend_impl+0x237>
  4051a7:	48 8b 45 c8          	mov    rax,QWORD PTR [rbp-0x38]
  4051ab:	48 83 c0 01          	add    rax,0x1
  4051af:	48 89 45 c8          	mov    QWORD PTR [rbp-0x38],rax
  4051b3:	e9 e8 fe ff ff       	jmp    4050a0 <suspend_impl+0x130>
  4051b8:	e9 00 00 00 00       	jmp    4051bd <suspend_impl+0x24d>
  4051bd:	48 83 7d e0 00       	cmp    QWORD PTR [rbp-0x20],0x0
  4051c2:	0f 84 af 01 00 00    	je     405377 <suspend_impl+0x407>
  4051c8:	b8 a0 0f 00 00       	mov    eax,0xfa0
  4051cd:	89 c1                	mov    ecx,eax
  4051cf:	48 8b 55 e0          	mov    rdx,QWORD PTR [rbp-0x20]
  4051d3:	48 8b 75 f8          	mov    rsi,QWORD PTR [rbp-0x8]
  4051d7:	48 8b be b8 01 00 00 	mov    rdi,QWORD PTR [rsi+0x1b8]
  4051de:	48 29 d7             	sub    rdi,rdx
  4051e1:	48 89 be b8 01 00 00 	mov    QWORD PTR [rsi+0x1b8],rdi
  4051e8:	48 8b 55 e0          	mov    rdx,QWORD PTR [rbp-0x20]
  4051ec:	48 8b 75 f8          	mov    rsi,QWORD PTR [rbp-0x8]
  4051f0:	48 03 96 c0 01 00 00 	add    rdx,QWORD PTR [rsi+0x1c0]
  4051f7:	48 89 96 c0 01 00 00 	mov    QWORD PTR [rsi+0x1c0],rdx
  4051fe:	48 8b 55 f8          	mov    rdx,QWORD PTR [rbp-0x8]
  405202:	48 c7 82 80 02 00 00 	mov    QWORD PTR [rdx+0x280],0xfa0
  405209:	a0 0f 00 00 
  40520d:	48 8b 55 f8          	mov    rdx,QWORD PTR [rbp-0x8]
  405211:	48 8b 92 a8 01 00 00 	mov    rdx,QWORD PTR [rdx+0x1a8]
  405218:	48 2b 55 e0          	sub    rdx,QWORD PTR [rbp-0x20]
  40521c:	48 83 ea 01          	sub    rdx,0x1
  405220:	48 89 d0             	mov    rax,rdx
  405223:	48 99                	cqo    
  405225:	48 f7 f9             	idiv   rcx
  405228:	48 83 c0 01          	add    rax,0x1
  40522c:	48 8b 75 f8          	mov    rsi,QWORD PTR [rbp-0x8]
  405230:	48 89 86 70 02 00 00 	mov    QWORD PTR [rsi+0x270],rax
  405237:	48 8b 45 f8          	mov    rax,QWORD PTR [rbp-0x8]
  40523b:	48 8b 80 a8 01 00 00 	mov    rax,QWORD PTR [rax+0x1a8]
  405242:	48 2b 45 e0          	sub    rax,QWORD PTR [rbp-0x20]
  405246:	48 99                	cqo    
  405248:	48 f7 f9             	idiv   rcx
  40524b:	48 83 fa 00          	cmp    rdx,0x0
  40524f:	0f 84 47 00 00 00    	je     40529c <suspend_impl+0x32c>
  405255:	b8 a0 0f 00 00       	mov    eax,0xfa0
  40525a:	89 c1                	mov    ecx,eax
  40525c:	48 8b 55 f8          	mov    rdx,QWORD PTR [rbp-0x8]
  405260:	48 8b 92 70 02 00 00 	mov    rdx,QWORD PTR [rdx+0x270]
  405267:	48 8b 75 f8          	mov    rsi,QWORD PTR [rbp-0x8]
  40526b:	48 8b b6 a8 01 00 00 	mov    rsi,QWORD PTR [rsi+0x1a8]
  405272:	48 2b 75 e0          	sub    rsi,QWORD PTR [rbp-0x20]
  405276:	48 89 f0             	mov    rax,rsi
  405279:	48 89 55 a8          	mov    QWORD PTR [rbp-0x58],rdx
  40527d:	48 99                	cqo    
  40527f:	48 f7 f9             	idiv   rcx
  405282:	48 29 d1             	sub    rcx,rdx
  405285:	48 8b 55 a8          	mov    rdx,QWORD PTR [rbp-0x58]
  405289:	48 29 ca             	sub    rdx,rcx
  40528c:	48 8b 4d f8          	mov    rcx,QWORD PTR [rbp-0x8]
  405290:	48 89 91 78 02 00 00 	mov    QWORD PTR [rcx+0x278],rdx
  405297:	e9 16 00 00 00       	jmp    4052b2 <suspend_impl+0x342>
  40529c:	48 8b 45 f8          	mov    rax,QWORD PTR [rbp-0x8]
  4052a0:	48 8b 80 70 02 00 00 	mov    rax,QWORD PTR [rax+0x270]
  4052a7:	48 8b 4d f8          	mov    rcx,QWORD PTR [rbp-0x8]
  4052ab:	48 89 81 78 02 00 00 	mov    QWORD PTR [rcx+0x278],rax
  4052b2:	e9 00 00 00 00       	jmp    4052b7 <suspend_impl+0x347>
  4052b7:	48 8b 45 f8          	mov    rax,QWORD PTR [rbp-0x8]
  4052bb:	48 83 b8 78 02 00 00 	cmp    QWORD PTR [rax+0x278],0x0
  4052c2:	00 
  4052c3:	0f 8d 3c 00 00 00    	jge    405305 <suspend_impl+0x395>
  4052c9:	48 8b 45 f8          	mov    rax,QWORD PTR [rbp-0x8]
  4052cd:	48 8b 80 70 02 00 00 	mov    rax,QWORD PTR [rax+0x270]
  4052d4:	48 8b 4d f8          	mov    rcx,QWORD PTR [rbp-0x8]
  4052d8:	48 03 81 78 02 00 00 	add    rax,QWORD PTR [rcx+0x278]
  4052df:	48 8b 4d f8          	mov    rcx,QWORD PTR [rbp-0x8]
  4052e3:	48 89 81 78 02 00 00 	mov    QWORD PTR [rcx+0x278],rax
  4052ea:	48 8b 45 f8          	mov    rax,QWORD PTR [rbp-0x8]
  4052ee:	48 8b 88 80 02 00 00 	mov    rcx,QWORD PTR [rax+0x280]
  4052f5:	48 83 c1 ff          	add    rcx,0xffffffffffffffff
  4052f9:	48 89 88 80 02 00 00 	mov    QWORD PTR [rax+0x280],rcx
  405300:	e9 b2 ff ff ff       	jmp    4052b7 <suspend_impl+0x347>
  405305:	48 8b 7d f8          	mov    rdi,QWORD PTR [rbp-0x8]
  405309:	48 8b 45 f8          	mov    rax,QWORD PTR [rbp-0x8]
  40530d:	48 8b 90 a8 01 00 00 	mov    rdx,QWORD PTR [rax+0x1a8]
  405314:	48 be c0 1a 40 00 00 	movabs rsi,0x401ac0
  40531b:	00 00 00 
  40531e:	e8 0d de ff ff       	call   403130 <refreshPositions>
  405323:	31 c9                	xor    ecx,ecx
  405325:	89 ca                	mov    edx,ecx
  405327:	48 8b 75 e0          	mov    rsi,QWORD PTR [rbp-0x20]
  40532b:	48 8b 7d f8          	mov    rdi,QWORD PTR [rbp-0x8]
  40532f:	4c 8b 87 a8 01 00 00 	mov    r8,QWORD PTR [rdi+0x1a8]
  405336:	49 29 f0             	sub    r8,rsi
  405339:	4c 89 87 a8 01 00 00 	mov    QWORD PTR [rdi+0x1a8],r8
  405340:	48 8b 75 e0          	mov    rsi,QWORD PTR [rbp-0x20]
  405344:	48 8b 7d f8          	mov    rdi,QWORD PTR [rbp-0x8]
  405348:	4c 8b 87 40 02 00 00 	mov    r8,QWORD PTR [rdi+0x240]
  40534f:	48 29 f2             	sub    rdx,rsi
  405352:	48 6b d2 48          	imul   rdx,rdx,0x48
  405356:	49 01 d0             	add    r8,rdx
  405359:	4c 89 87 40 02 00 00 	mov    QWORD PTR [rdi+0x240],r8
  405360:	48 8b 7d f8          	mov    rdi,QWORD PTR [rbp-0x8]
  405364:	48 be c0 1a 40 00 00 	movabs rsi,0x401ac0
  40536b:	00 00 00 
  40536e:	48 89 45 a0          	mov    QWORD PTR [rbp-0x60],rax
  405372:	e8 09 c3 ff ff       	call   401680 <refresh_neighbour_lists>
  405377:	48 8b 45 e0          	mov    rax,QWORD PTR [rbp-0x20]
  40537b:	48 83 c4 60          	add    rsp,0x60
  40537f:	5d                   	pop    rbp
  405380:	c3                   	ret    
  405381:	66 2e 0f 1f 84 00 00 	cs nop WORD PTR [rax+rax*1+0x0]
  405388:	00 00 00 
  40538b:	0f 1f 44 00 00       	nop    DWORD PTR [rax+rax*1+0x0]

0000000000405390 <primal_start_artificial>:
  405390:	55                   	push   rbp
  405391:	48 89 e5             	mov    rbp,rsp
  405394:	48 89 7d f8          	mov    QWORD PTR [rbp-0x8],rdi
  405398:	48 8b 7d f8          	mov    rdi,QWORD PTR [rbp-0x8]
  40539c:	48 8b bf 28 02 00 00 	mov    rdi,QWORD PTR [rdi+0x228]
  4053a3:	48 89 7d f0          	mov    QWORD PTR [rbp-0x10],rdi
  4053a7:	48 89 7d e8          	mov    QWORD PTR [rbp-0x18],rdi
  4053ab:	48 8b 7d f0          	mov    rdi,QWORD PTR [rbp-0x10]
  4053af:	48 83 c7 68          	add    rdi,0x68
  4053b3:	48 89 7d f0          	mov    QWORD PTR [rbp-0x10],rdi
  4053b7:	48 8b 7d e8          	mov    rdi,QWORD PTR [rbp-0x18]
  4053bb:	48 c7 47 30 00 00 00 	mov    QWORD PTR [rdi+0x30],0x0
  4053c2:	00 
  4053c3:	48 8b 7d e8          	mov    rdi,QWORD PTR [rbp-0x18]
  4053c7:	48 c7 47 18 00 00 00 	mov    QWORD PTR [rdi+0x18],0x0
  4053ce:	00 
  4053cf:	48 8b 7d f0          	mov    rdi,QWORD PTR [rbp-0x10]
  4053d3:	48 8b 45 e8          	mov    rax,QWORD PTR [rbp-0x18]
  4053d7:	48 89 78 10          	mov    QWORD PTR [rax+0x10],rdi
  4053db:	48 8b 45 e8          	mov    rax,QWORD PTR [rbp-0x18]
  4053df:	48 c7 40 20 00 00 00 	mov    QWORD PTR [rax+0x20],0x0
  4053e6:	00 
  4053e7:	48 8b 45 e8          	mov    rax,QWORD PTR [rbp-0x18]
  4053eb:	48 c7 40 28 00 00 00 	mov    QWORD PTR [rax+0x28],0x0
  4053f2:	00 
  4053f3:	48 8b 45 f8          	mov    rax,QWORD PTR [rbp-0x8]
  4053f7:	48 8b 80 90 01 00 00 	mov    rax,QWORD PTR [rax+0x190]
  4053fe:	48 83 c0 01          	add    rax,0x1
  405402:	48 8b 7d e8          	mov    rdi,QWORD PTR [rbp-0x18]
  405406:	48 89 47 58          	mov    QWORD PTR [rdi+0x58],rax
  40540a:	48 8b 45 e8          	mov    rax,QWORD PTR [rbp-0x18]
  40540e:	c7 40 08 00 00 00 00 	mov    DWORD PTR [rax+0x8],0x0
  405415:	48 8b 45 e8          	mov    rax,QWORD PTR [rbp-0x18]
  405419:	48 c7 00 00 1f 0a fa 	mov    QWORD PTR [rax],0xfffffffffa0a1f00
  405420:	48 8b 45 e8          	mov    rax,QWORD PTR [rbp-0x18]
  405424:	48 c7 40 50 00 00 00 	mov    QWORD PTR [rax+0x50],0x0
  40542b:	00 
  40542c:	48 8b 45 f8          	mov    rax,QWORD PTR [rbp-0x8]
  405430:	48 8b 80 38 02 00 00 	mov    rax,QWORD PTR [rax+0x238]
  405437:	48 89 45 e0          	mov    QWORD PTR [rbp-0x20],rax
  40543b:	c7 45 dc 00 00 00 00 	mov    DWORD PTR [rbp-0x24],0x0
  405442:	48 63 45 dc          	movsxd rax,DWORD PTR [rbp-0x24]
  405446:	48 8b 4d f8          	mov    rcx,QWORD PTR [rbp-0x8]
  40544a:	48 3b 81 a8 01 00 00 	cmp    rax,QWORD PTR [rcx+0x1a8]
  405451:	0f 8d 44 00 00 00    	jge    40549b <primal_start_artificial+0x10b>
  405457:	48 8b 45 e0          	mov    rax,QWORD PTR [rbp-0x20]
  40545b:	48 63 4d dc          	movsxd rcx,DWORD PTR [rbp-0x24]
  40545f:	48 6b c9 48          	imul   rcx,rcx,0x48
  405463:	48 01 c8             	add    rax,rcx
  405466:	0f bf 50 20          	movsx  edx,WORD PTR [rax+0x20]
  40546a:	83 fa ff             	cmp    edx,0xffffffff
  40546d:	0f 84 15 00 00 00    	je     405488 <primal_start_artificial+0xf8>
  405473:	48 8b 45 e0          	mov    rax,QWORD PTR [rbp-0x20]
  405477:	48 63 4d dc          	movsxd rcx,DWORD PTR [rbp-0x24]
  40547b:	48 6b c9 48          	imul   rcx,rcx,0x48
  40547f:	48 01 c8             	add    rax,rcx
  405482:	66 c7 40 20 01 00    	mov    WORD PTR [rax+0x20],0x1
  405488:	e9 00 00 00 00       	jmp    40548d <primal_start_artificial+0xfd>
  40548d:	8b 45 dc             	mov    eax,DWORD PTR [rbp-0x24]
  405490:	83 c0 01             	add    eax,0x1
  405493:	89 45 dc             	mov    DWORD PTR [rbp-0x24],eax
  405496:	e9 a7 ff ff ff       	jmp    405442 <primal_start_artificial+0xb2>
  40549b:	48 8b 45 f8          	mov    rax,QWORD PTR [rbp-0x8]
  40549f:	48 8b 80 50 02 00 00 	mov    rax,QWORD PTR [rax+0x250]
  4054a6:	48 89 45 e0          	mov    QWORD PTR [rbp-0x20],rax
  4054aa:	c7 45 dc 00 00 00 00 	mov    DWORD PTR [rbp-0x24],0x0
  4054b1:	48 63 45 dc          	movsxd rax,DWORD PTR [rbp-0x24]
  4054b5:	48 8b 4d f8          	mov    rcx,QWORD PTR [rbp-0x8]
  4054b9:	48 3b 81 90 01 00 00 	cmp    rax,QWORD PTR [rcx+0x190]
  4054c0:	0f 8d 80 01 00 00    	jge    405646 <primal_start_artificial+0x2b6>
  4054c6:	48 8b 45 e0          	mov    rax,QWORD PTR [rbp-0x20]
  4054ca:	48 63 4d dc          	movsxd rcx,DWORD PTR [rbp-0x24]
  4054ce:	48 6b c9 48          	imul   rcx,rcx,0x48
  4054d2:	48 01 c8             	add    rax,rcx
  4054d5:	48 8b 4d f0          	mov    rcx,QWORD PTR [rbp-0x10]
  4054d9:	48 63 55 dc          	movsxd rdx,DWORD PTR [rbp-0x24]
  4054dd:	48 6b d2 68          	imul   rdx,rdx,0x68
  4054e1:	48 01 d1             	add    rcx,rdx
  4054e4:	48 89 41 30          	mov    QWORD PTR [rcx+0x30],rax
  4054e8:	48 8b 45 e8          	mov    rax,QWORD PTR [rbp-0x18]
  4054ec:	48 8b 4d f0          	mov    rcx,QWORD PTR [rbp-0x10]
  4054f0:	48 63 55 dc          	movsxd rdx,DWORD PTR [rbp-0x24]
  4054f4:	48 6b d2 68          	imul   rdx,rdx,0x68
  4054f8:	48 01 d1             	add    rcx,rdx
  4054fb:	48 89 41 18          	mov    QWORD PTR [rcx+0x18],rax
  4054ff:	48 8b 45 f0          	mov    rax,QWORD PTR [rbp-0x10]
  405503:	48 63 4d dc          	movsxd rcx,DWORD PTR [rbp-0x24]
  405507:	48 6b c9 68          	imul   rcx,rcx,0x68
  40550b:	48 01 c8             	add    rax,rcx
  40550e:	48 c7 40 10 00 00 00 	mov    QWORD PTR [rax+0x10],0x0
  405515:	00 
  405516:	48 8b 45 f0          	mov    rax,QWORD PTR [rbp-0x10]
  40551a:	8b 75 dc             	mov    esi,DWORD PTR [rbp-0x24]
  40551d:	83 c6 01             	add    esi,0x1
  405520:	48 63 ce             	movsxd rcx,esi
  405523:	48 6b c9 68          	imul   rcx,rcx,0x68
  405527:	48 01 c8             	add    rax,rcx
  40552a:	48 8b 4d f0          	mov    rcx,QWORD PTR [rbp-0x10]
  40552e:	48 63 55 dc          	movsxd rdx,DWORD PTR [rbp-0x24]
  405532:	48 6b d2 68          	imul   rdx,rdx,0x68
  405536:	48 01 d1             	add    rcx,rdx
  405539:	48 89 41 20          	mov    QWORD PTR [rcx+0x20],rax
  40553d:	48 8b 45 f0          	mov    rax,QWORD PTR [rbp-0x10]
  405541:	8b 75 dc             	mov    esi,DWORD PTR [rbp-0x24]
  405544:	83 ee 01             	sub    esi,0x1
  405547:	48 63 ce             	movsxd rcx,esi
  40554a:	48 6b c9 68          	imul   rcx,rcx,0x68
  40554e:	48 01 c8             	add    rax,rcx
  405551:	48 8b 4d f0          	mov    rcx,QWORD PTR [rbp-0x10]
  405555:	48 63 55 dc          	movsxd rdx,DWORD PTR [rbp-0x24]
  405559:	48 6b d2 68          	imul   rdx,rdx,0x68
  40555d:	48 01 d1             	add    rcx,rdx
  405560:	48 89 41 28          	mov    QWORD PTR [rcx+0x28],rax
  405564:	48 8b 45 f0          	mov    rax,QWORD PTR [rbp-0x10]
  405568:	48 63 4d dc          	movsxd rcx,DWORD PTR [rbp-0x24]
  40556c:	48 6b c9 68          	imul   rcx,rcx,0x68
  405570:	48 01 c8             	add    rax,rcx
  405573:	48 c7 40 58 01 00 00 	mov    QWORD PTR [rax+0x58],0x1
  40557a:	00 
  40557b:	48 8b 45 e0          	mov    rax,QWORD PTR [rbp-0x20]
  40557f:	48 63 4d dc          	movsxd rcx,DWORD PTR [rbp-0x24]
  405583:	48 6b c9 48          	imul   rcx,rcx,0x48
  405587:	48 01 c8             	add    rax,rcx
  40558a:	48 c7 40 08 00 e1 f5 	mov    QWORD PTR [rax+0x8],0x5f5e100
  405591:	05 
  405592:	48 8b 45 e0          	mov    rax,QWORD PTR [rbp-0x20]
  405596:	48 63 4d dc          	movsxd rcx,DWORD PTR [rbp-0x24]
  40559a:	48 6b c9 48          	imul   rcx,rcx,0x48
  40559e:	48 01 c8             	add    rax,rcx
  4055a1:	66 c7 40 20 00 00    	mov    WORD PTR [rax+0x20],0x0
  4055a7:	48 8b 45 f0          	mov    rax,QWORD PTR [rbp-0x10]
  4055ab:	48 63 4d dc          	movsxd rcx,DWORD PTR [rbp-0x24]
  4055af:	48 6b c9 68          	imul   rcx,rcx,0x68
  4055b3:	48 01 c8             	add    rax,rcx
  4055b6:	c7 40 08 01 00 00 00 	mov    DWORD PTR [rax+0x8],0x1
  4055bd:	48 8b 45 f0          	mov    rax,QWORD PTR [rbp-0x10]
  4055c1:	48 63 4d dc          	movsxd rcx,DWORD PTR [rbp-0x24]
  4055c5:	48 6b c9 68          	imul   rcx,rcx,0x68
  4055c9:	48 01 c8             	add    rax,rcx
  4055cc:	48 c7 00 00 00 00 00 	mov    QWORD PTR [rax],0x0
  4055d3:	48 8b 45 f0          	mov    rax,QWORD PTR [rbp-0x10]
  4055d7:	48 63 4d dc          	movsxd rcx,DWORD PTR [rbp-0x24]
  4055db:	48 6b c9 68          	imul   rcx,rcx,0x68
  4055df:	48 01 c8             	add    rax,rcx
  4055e2:	48 8b 4d e0          	mov    rcx,QWORD PTR [rbp-0x20]
  4055e6:	48 63 55 dc          	movsxd rdx,DWORD PTR [rbp-0x24]
  4055ea:	48 6b d2 48          	imul   rdx,rdx,0x48
  4055ee:	48 01 d1             	add    rcx,rdx
  4055f1:	48 89 41 10          	mov    QWORD PTR [rcx+0x10],rax
  4055f5:	48 8b 45 e8          	mov    rax,QWORD PTR [rbp-0x18]
  4055f9:	48 8b 4d e0          	mov    rcx,QWORD PTR [rbp-0x20]
  4055fd:	48 63 55 dc          	movsxd rdx,DWORD PTR [rbp-0x24]
  405601:	48 6b d2 48          	imul   rdx,rdx,0x48
  405605:	48 01 d1             	add    rcx,rdx
  405608:	48 89 41 18          	mov    QWORD PTR [rcx+0x18],rax
  40560c:	48 8b 45 e0          	mov    rax,QWORD PTR [rbp-0x20]
  405610:	48 63 4d dc          	movsxd rcx,DWORD PTR [rbp-0x24]
  405614:	48 6b c9 48          	imul   rcx,rcx,0x48
  405618:	48 01 c8             	add    rax,rcx
  40561b:	c7 00 fe ff ff ff    	mov    DWORD PTR [rax],0xfffffffe
  405621:	48 8b 45 f0          	mov    rax,QWORD PTR [rbp-0x10]
  405625:	48 63 4d dc          	movsxd rcx,DWORD PTR [rbp-0x24]
  405629:	48 6b c9 68          	imul   rcx,rcx,0x68
  40562d:	48 01 c8             	add    rax,rcx
  405630:	48 c7 40 50 00 00 00 	mov    QWORD PTR [rax+0x50],0x0
  405637:	00 
  405638:	8b 45 dc             	mov    eax,DWORD PTR [rbp-0x24]
  40563b:	83 c0 01             	add    eax,0x1
  40563e:	89 45 dc             	mov    DWORD PTR [rbp-0x24],eax
  405641:	e9 6b fe ff ff       	jmp    4054b1 <primal_start_artificial+0x121>
  405646:	31 c0                	xor    eax,eax
  405648:	48 8b 4d f0          	mov    rcx,QWORD PTR [rbp-0x10]
  40564c:	48 83 c1 98          	add    rcx,0xffffffffffffff98
  405650:	48 89 4d f0          	mov    QWORD PTR [rbp-0x10],rcx
  405654:	48 8b 4d e8          	mov    rcx,QWORD PTR [rbp-0x18]
  405658:	48 83 c1 68          	add    rcx,0x68
  40565c:	48 89 4d e8          	mov    QWORD PTR [rbp-0x18],rcx
  405660:	48 8b 4d f0          	mov    rcx,QWORD PTR [rbp-0x10]
  405664:	48 8b 55 f8          	mov    rdx,QWORD PTR [rbp-0x8]
  405668:	48 6b 92 90 01 00 00 	imul   rdx,QWORD PTR [rdx+0x190],0x68
  40566f:	68 
  405670:	48 01 d1             	add    rcx,rdx
  405673:	48 c7 41 20 00 00 00 	mov    QWORD PTR [rcx+0x20],0x0
  40567a:	00 
  40567b:	48 8b 4d e8          	mov    rcx,QWORD PTR [rbp-0x18]
  40567f:	48 c7 41 28 00 00 00 	mov    QWORD PTR [rcx+0x28],0x0
  405686:	00 
  405687:	5d                   	pop    rbp
  405688:	c3                   	ret    
  405689:	0f 1f 80 00 00 00 00 	nop    DWORD PTR [rax+0x0]

0000000000405690 <write_circulations>:
  405690:	55                   	push   rbp
  405691:	48 89 e5             	mov    rbp,rsp
  405694:	48 83 ec 60          	sub    rsp,0x60
  405698:	31 c0                	xor    eax,eax
  40569a:	89 c1                	mov    ecx,eax
  40569c:	48 89 7d f0          	mov    QWORD PTR [rbp-0x10],rdi
  4056a0:	48 89 75 e8          	mov    QWORD PTR [rbp-0x18],rsi
  4056a4:	48 c7 45 e0 00 00 00 	mov    QWORD PTR [rbp-0x20],0x0
  4056ab:	00 
  4056ac:	48 8b 75 e8          	mov    rsi,QWORD PTR [rbp-0x18]
  4056b0:	48 8b b6 40 02 00 00 	mov    rsi,QWORD PTR [rsi+0x240]
  4056b7:	48 8b 7d e8          	mov    rdi,QWORD PTR [rbp-0x18]
  4056bb:	48 2b 8f b8 01 00 00 	sub    rcx,QWORD PTR [rdi+0x1b8]
  4056c2:	48 6b c9 48          	imul   rcx,rcx,0x48
  4056c6:	48 01 ce             	add    rsi,rcx
  4056c9:	48 89 75 c0          	mov    QWORD PTR [rbp-0x40],rsi
  4056cd:	48 8b 7d f0          	mov    rdi,QWORD PTR [rbp-0x10]
  4056d1:	48 be 24 83 40 00 00 	movabs rsi,0x408324
  4056d8:	00 00 00 
  4056db:	e8 20 ba ff ff       	call   401100 <fopen@plt>
  4056e0:	48 89 45 e0          	mov    QWORD PTR [rbp-0x20],rax
  4056e4:	48 83 f8 00          	cmp    rax,0x0
  4056e8:	0f 85 0d 00 00 00    	jne    4056fb <write_circulations+0x6b>
  4056ee:	48 c7 45 f8 ff ff ff 	mov    QWORD PTR [rbp-0x8],0xffffffffffffffff
  4056f5:	ff 
  4056f6:	e9 9a 01 00 00       	jmp    405895 <write_circulations+0x205>
  4056fb:	48 8b 7d e8          	mov    rdi,QWORD PTR [rbp-0x18]
  4056ff:	48 be 00 1a 40 00 00 	movabs rsi,0x401a00
  405706:	00 00 00 
  405709:	e8 72 bf ff ff       	call   401680 <refresh_neighbour_lists>
  40570e:	48 8b 75 e8          	mov    rsi,QWORD PTR [rbp-0x18]
  405712:	48 8b b6 28 02 00 00 	mov    rsi,QWORD PTR [rsi+0x228]
  405719:	48 8b 7d e8          	mov    rdi,QWORD PTR [rbp-0x18]
  40571d:	48 6b bf 90 01 00 00 	imul   rdi,QWORD PTR [rdi+0x190],0x68
  405724:	68 
  405725:	48 01 fe             	add    rsi,rdi
  405728:	48 8b 76 38          	mov    rsi,QWORD PTR [rsi+0x38]
  40572c:	48 89 75 d8          	mov    QWORD PTR [rbp-0x28],rsi
  405730:	48 83 7d d8 00       	cmp    QWORD PTR [rbp-0x28],0x0
  405735:	0f 84 46 01 00 00    	je     405881 <write_circulations+0x1f1>
  40573b:	48 8b 45 d8          	mov    rax,QWORD PTR [rbp-0x28]
  40573f:	48 83 78 38 00       	cmp    QWORD PTR [rax+0x38],0x0
  405744:	0f 84 21 01 00 00    	je     40586b <write_circulations+0x1db>
  40574a:	48 8b 7d e0          	mov    rdi,QWORD PTR [rbp-0x20]
  40574e:	48 be 26 83 40 00 00 	movabs rsi,0x408326
  405755:	00 00 00 
  405758:	b0 00                	mov    al,0x0
  40575a:	e8 41 b9 ff ff       	call   4010a0 <fprintf@plt>
  40575f:	48 8b 75 d8          	mov    rsi,QWORD PTR [rbp-0x28]
  405763:	48 89 75 d0          	mov    QWORD PTR [rbp-0x30],rsi
  405767:	89 45 bc             	mov    DWORD PTR [rbp-0x44],eax
  40576a:	48 83 7d d0 00       	cmp    QWORD PTR [rbp-0x30],0x0
  40576f:	0f 84 f1 00 00 00    	je     405866 <write_circulations+0x1d6>
  405775:	48 8b 45 d0          	mov    rax,QWORD PTR [rbp-0x30]
  405779:	48 3b 45 c0          	cmp    rax,QWORD PTR [rbp-0x40]
  40577d:	0f 82 18 00 00 00    	jb     40579b <write_circulations+0x10b>
  405783:	48 8b 7d e0          	mov    rdi,QWORD PTR [rbp-0x20]
  405787:	48 be 2a 83 40 00 00 	movabs rsi,0x40832a
  40578e:	00 00 00 
  405791:	b0 00                	mov    al,0x0
  405793:	e8 08 b9 ff ff       	call   4010a0 <fprintf@plt>
  405798:	89 45 b8             	mov    DWORD PTR [rbp-0x48],eax
  40579b:	31 c0                	xor    eax,eax
  40579d:	48 8b 7d e0          	mov    rdi,QWORD PTR [rbp-0x20]
  4057a1:	48 8b 4d d0          	mov    rcx,QWORD PTR [rbp-0x30]
  4057a5:	48 8b 49 18          	mov    rcx,QWORD PTR [rcx+0x18]
  4057a9:	2b 41 60             	sub    eax,DWORD PTR [rcx+0x60]
  4057ac:	48 be 2f 83 40 00 00 	movabs rsi,0x40832f
  4057b3:	00 00 00 
  4057b6:	89 c2                	mov    edx,eax
  4057b8:	b0 00                	mov    al,0x0
  4057ba:	e8 e1 b8 ff ff       	call   4010a0 <fprintf@plt>
  4057bf:	48 8b 4d d0          	mov    rcx,QWORD PTR [rbp-0x30]
  4057c3:	48 8b 49 18          	mov    rcx,QWORD PTR [rcx+0x18]
  4057c7:	48 8b 75 e8          	mov    rsi,QWORD PTR [rbp-0x18]
  4057cb:	48 6b b6 98 01 00 00 	imul   rsi,QWORD PTR [rsi+0x198],0x68
  4057d2:	68 
  4057d3:	48 01 f1             	add    rcx,rsi
  4057d6:	48 8b 49 38          	mov    rcx,QWORD PTR [rcx+0x38]
  4057da:	48 89 4d c8          	mov    QWORD PTR [rbp-0x38],rcx
  4057de:	89 45 b4             	mov    DWORD PTR [rbp-0x4c],eax
  4057e1:	48 83 7d c8 00       	cmp    QWORD PTR [rbp-0x38],0x0
  4057e6:	0f 84 2a 00 00 00    	je     405816 <write_circulations+0x186>
  4057ec:	48 8b 45 c8          	mov    rax,QWORD PTR [rbp-0x38]
  4057f0:	48 83 78 38 00       	cmp    QWORD PTR [rax+0x38],0x0
  4057f5:	0f 84 05 00 00 00    	je     405800 <write_circulations+0x170>
  4057fb:	e9 16 00 00 00       	jmp    405816 <write_circulations+0x186>
  405800:	e9 00 00 00 00       	jmp    405805 <write_circulations+0x175>
  405805:	48 8b 45 c8          	mov    rax,QWORD PTR [rbp-0x38]
  405809:	48 8b 40 28          	mov    rax,QWORD PTR [rax+0x28]
  40580d:	48 89 45 c8          	mov    QWORD PTR [rbp-0x38],rax
  405811:	e9 cb ff ff ff       	jmp    4057e1 <write_circulations+0x151>
  405816:	48 83 7d c8 00       	cmp    QWORD PTR [rbp-0x38],0x0
  40581b:	0f 85 19 00 00 00    	jne    40583a <write_circulations+0x1aa>
  405821:	48 8b 7d e0          	mov    rdi,QWORD PTR [rbp-0x20]
  405825:	e8 26 b8 ff ff       	call   401050 <fclose@plt>
  40582a:	48 c7 45 f8 ff ff ff 	mov    QWORD PTR [rbp-0x8],0xffffffffffffffff
  405831:	ff 
  405832:	89 45 b0             	mov    DWORD PTR [rbp-0x50],eax
  405835:	e9 5b 00 00 00       	jmp    405895 <write_circulations+0x205>
  40583a:	48 8b 45 c8          	mov    rax,QWORD PTR [rbp-0x38]
  40583e:	48 8b 40 18          	mov    rax,QWORD PTR [rax+0x18]
  405842:	83 78 60 00          	cmp    DWORD PTR [rax+0x60],0x0
  405846:	0f 84 0d 00 00 00    	je     405859 <write_circulations+0x1c9>
  40584c:	48 8b 45 c8          	mov    rax,QWORD PTR [rbp-0x38]
  405850:	48 89 45 d0          	mov    QWORD PTR [rbp-0x30],rax
  405854:	e9 08 00 00 00       	jmp    405861 <write_circulations+0x1d1>
  405859:	48 c7 45 d0 00 00 00 	mov    QWORD PTR [rbp-0x30],0x0
  405860:	00 
  405861:	e9 04 ff ff ff       	jmp    40576a <write_circulations+0xda>
  405866:	e9 00 00 00 00       	jmp    40586b <write_circulations+0x1db>
  40586b:	e9 00 00 00 00       	jmp    405870 <write_circulations+0x1e0>
  405870:	48 8b 45 d8          	mov    rax,QWORD PTR [rbp-0x28]
  405874:	48 8b 40 28          	mov    rax,QWORD PTR [rax+0x28]
  405878:	48 89 45 d8          	mov    QWORD PTR [rbp-0x28],rax
  40587c:	e9 af fe ff ff       	jmp    405730 <write_circulations+0xa0>
  405881:	48 8b 7d e0          	mov    rdi,QWORD PTR [rbp-0x20]
  405885:	e8 c6 b7 ff ff       	call   401050 <fclose@plt>
  40588a:	48 c7 45 f8 00 00 00 	mov    QWORD PTR [rbp-0x8],0x0
  405891:	00 
  405892:	89 45 ac             	mov    DWORD PTR [rbp-0x54],eax
  405895:	48 8b 45 f8          	mov    rax,QWORD PTR [rbp-0x8]
  405899:	48 83 c4 60          	add    rsp,0x60
  40589d:	5d                   	pop    rbp
  40589e:	c3                   	ret    
  40589f:	90                   	nop

00000000004058a0 <write_objective_value>:
  4058a0:	55                   	push   rbp
  4058a1:	48 89 e5             	mov    rbp,rsp
  4058a4:	48 83 ec 30          	sub    rsp,0x30
  4058a8:	48 89 7d f0          	mov    QWORD PTR [rbp-0x10],rdi
  4058ac:	48 89 75 e8          	mov    QWORD PTR [rbp-0x18],rsi
  4058b0:	48 c7 45 e0 00 00 00 	mov    QWORD PTR [rbp-0x20],0x0
  4058b7:	00 
  4058b8:	48 8b 7d f0          	mov    rdi,QWORD PTR [rbp-0x10]
  4058bc:	48 be 24 83 40 00 00 	movabs rsi,0x408324
  4058c3:	00 00 00 
  4058c6:	e8 35 b8 ff ff       	call   401100 <fopen@plt>
  4058cb:	48 89 45 e0          	mov    QWORD PTR [rbp-0x20],rax
  4058cf:	48 83 f8 00          	cmp    rax,0x0
  4058d3:	0f 85 0d 00 00 00    	jne    4058e6 <write_objective_value+0x46>
  4058d9:	48 c7 45 f8 ff ff ff 	mov    QWORD PTR [rbp-0x8],0xffffffffffffffff
  4058e0:	ff 
  4058e1:	e9 40 00 00 00       	jmp    405926 <write_objective_value+0x86>
  4058e6:	48 8b 7d e0          	mov    rdi,QWORD PTR [rbp-0x20]
  4058ea:	48 8b 45 e8          	mov    rax,QWORD PTR [rbp-0x18]
  4058ee:	48 89 7d d8          	mov    QWORD PTR [rbp-0x28],rdi
  4058f2:	48 89 c7             	mov    rdi,rax
  4058f5:	e8 a6 be ff ff       	call   4017a0 <flow_cost>
  4058fa:	48 8b 7d d8          	mov    rdi,QWORD PTR [rbp-0x28]
  4058fe:	48 be 33 83 40 00 00 	movabs rsi,0x408333
  405905:	00 00 00 
  405908:	b0 01                	mov    al,0x1
  40590a:	e8 91 b7 ff ff       	call   4010a0 <fprintf@plt>
  40590f:	48 8b 7d e0          	mov    rdi,QWORD PTR [rbp-0x20]
  405913:	89 45 d4             	mov    DWORD PTR [rbp-0x2c],eax
  405916:	e8 35 b7 ff ff       	call   401050 <fclose@plt>
  40591b:	48 c7 45 f8 00 00 00 	mov    QWORD PTR [rbp-0x8],0x0
  405922:	00 
  405923:	89 45 d0             	mov    DWORD PTR [rbp-0x30],eax
  405926:	48 8b 45 f8          	mov    rax,QWORD PTR [rbp-0x8]
  40592a:	48 83 c4 30          	add    rsp,0x30
  40592e:	5d                   	pop    rbp
  40592f:	c3                   	ret    

0000000000405930 <update_tree>:
  405930:	55                   	push   rbp
  405931:	48 89 e5             	mov    rbp,rsp
  405934:	41 57                	push   r15
  405936:	41 56                	push   r14
  405938:	53                   	push   rbx
  405939:	48 83 ec 40          	sub    rsp,0x40
  40593d:	48 8b 45 38          	mov    rax,QWORD PTR [rbp+0x38]
  405941:	4c 8b 55 30          	mov    r10,QWORD PTR [rbp+0x30]
  405945:	4c 8b 5d 28          	mov    r11,QWORD PTR [rbp+0x28]
  405949:	48 8b 5d 20          	mov    rbx,QWORD PTR [rbp+0x20]
  40594d:	4c 8b 75 18          	mov    r14,QWORD PTR [rbp+0x18]
  405951:	4c 8b 7d 10          	mov    r15,QWORD PTR [rbp+0x10]
  405955:	48 89 7d e0          	mov    QWORD PTR [rbp-0x20],rdi
  405959:	48 89 75 d8          	mov    QWORD PTR [rbp-0x28],rsi
  40595d:	48 89 55 d0          	mov    QWORD PTR [rbp-0x30],rdx
  405961:	48 89 4d c8          	mov    QWORD PTR [rbp-0x38],rcx
  405965:	4c 89 45 c0          	mov    QWORD PTR [rbp-0x40],r8
  405969:	4c 89 4d b8          	mov    QWORD PTR [rbp-0x48],r9
  40596d:	48 8b 4d 28          	mov    rcx,QWORD PTR [rbp+0x28]
  405971:	48 8b 49 10          	mov    rcx,QWORD PTR [rcx+0x10]
  405975:	48 3b 4d b8          	cmp    rcx,QWORD PTR [rbp-0x48]
  405979:	4c 89 bd 60 ff ff ff 	mov    QWORD PTR [rbp-0xa0],r15
  405980:	48 89 85 58 ff ff ff 	mov    QWORD PTR [rbp-0xa8],rax
  405987:	4c 89 95 50 ff ff ff 	mov    QWORD PTR [rbp-0xb0],r10
  40598e:	4c 89 9d 48 ff ff ff 	mov    QWORD PTR [rbp-0xb8],r11
  405995:	48 89 9d 40 ff ff ff 	mov    QWORD PTR [rbp-0xc0],rbx
  40599c:	4c 89 b5 38 ff ff ff 	mov    QWORD PTR [rbp-0xc8],r14
  4059a3:	0f 85 0b 00 00 00    	jne    4059b4 <update_tree+0x84>
  4059a9:	48 83 7d 30 00       	cmp    QWORD PTR [rbp+0x30],0x0
  4059ae:	0f 8c 1d 00 00 00    	jl     4059d1 <update_tree+0xa1>
  4059b4:	48 8b 45 28          	mov    rax,QWORD PTR [rbp+0x28]
  4059b8:	48 8b 40 10          	mov    rax,QWORD PTR [rax+0x10]
  4059bc:	48 3b 45 c0          	cmp    rax,QWORD PTR [rbp-0x40]
  4059c0:	0f 85 45 00 00 00    	jne    405a0b <update_tree+0xdb>
  4059c6:	48 83 7d 30 00       	cmp    QWORD PTR [rbp+0x30],0x0
  4059cb:	0f 8e 3a 00 00 00    	jle    405a0b <update_tree+0xdb>
  4059d1:	48 83 7d 30 00       	cmp    QWORD PTR [rbp+0x30],0x0
  4059d6:	0f 8c 10 00 00 00    	jl     4059ec <update_tree+0xbc>
  4059dc:	48 8b 45 30          	mov    rax,QWORD PTR [rbp+0x30]
  4059e0:	48 89 85 30 ff ff ff 	mov    QWORD PTR [rbp-0xd0],rax
  4059e7:	e9 0f 00 00 00       	jmp    4059fb <update_tree+0xcb>
  4059ec:	31 c0                	xor    eax,eax
  4059ee:	89 c1                	mov    ecx,eax
  4059f0:	48 2b 4d 30          	sub    rcx,QWORD PTR [rbp+0x30]
  4059f4:	48 89 8d 30 ff ff ff 	mov    QWORD PTR [rbp-0xd0],rcx
  4059fb:	48 8b 85 30 ff ff ff 	mov    rax,QWORD PTR [rbp-0xd0]
  405a02:	48 89 45 30          	mov    QWORD PTR [rbp+0x30],rax
  405a06:	e9 3c 00 00 00       	jmp    405a47 <update_tree+0x117>
  405a0b:	48 83 7d 30 00       	cmp    QWORD PTR [rbp+0x30],0x0
  405a10:	0f 8c 10 00 00 00    	jl     405a26 <update_tree+0xf6>
  405a16:	48 8b 45 30          	mov    rax,QWORD PTR [rbp+0x30]
  405a1a:	48 89 85 28 ff ff ff 	mov    QWORD PTR [rbp-0xd8],rax
  405a21:	e9 0f 00 00 00       	jmp    405a35 <update_tree+0x105>
  405a26:	31 c0                	xor    eax,eax
  405a28:	89 c1                	mov    ecx,eax
  405a2a:	48 2b 4d 30          	sub    rcx,QWORD PTR [rbp+0x30]
  405a2e:	48 89 8d 28 ff ff ff 	mov    QWORD PTR [rbp-0xd8],rcx
  405a35:	48 8b 85 28 ff ff ff 	mov    rax,QWORD PTR [rbp-0xd8]
  405a3c:	31 c9                	xor    ecx,ecx
  405a3e:	89 ca                	mov    edx,ecx
  405a40:	48 29 c2             	sub    rdx,rax
  405a43:	48 89 55 30          	mov    QWORD PTR [rbp+0x30],rdx
  405a47:	48 8b 45 10          	mov    rax,QWORD PTR [rbp+0x10]
  405a4b:	48 89 45 a0          	mov    QWORD PTR [rbp-0x60],rax
  405a4f:	48 8b 45 30          	mov    rax,QWORD PTR [rbp+0x30]
  405a53:	48 8b 4d a0          	mov    rcx,QWORD PTR [rbp-0x60]
  405a57:	48 03 01             	add    rax,QWORD PTR [rcx]
  405a5a:	48 89 01             	mov    QWORD PTR [rcx],rax
  405a5d:	48 8b 45 a0          	mov    rax,QWORD PTR [rbp-0x60]
  405a61:	48 8b 40 10          	mov    rax,QWORD PTR [rax+0x10]
  405a65:	48 89 45 98          	mov    QWORD PTR [rbp-0x68],rax
  405a69:	48 83 7d 98 00       	cmp    QWORD PTR [rbp-0x68],0x0
  405a6e:	0f 84 20 00 00 00    	je     405a94 <update_tree+0x164>
  405a74:	e9 00 00 00 00       	jmp    405a79 <update_tree+0x149>
  405a79:	48 8b 45 30          	mov    rax,QWORD PTR [rbp+0x30]
  405a7d:	48 8b 4d 98          	mov    rcx,QWORD PTR [rbp-0x68]
  405a81:	48 03 01             	add    rax,QWORD PTR [rcx]
  405a84:	48 89 01             	mov    QWORD PTR [rcx],rax
  405a87:	48 8b 45 98          	mov    rax,QWORD PTR [rbp-0x68]
  405a8b:	48 89 45 a0          	mov    QWORD PTR [rbp-0x60],rax
  405a8f:	e9 c9 ff ff ff       	jmp    405a5d <update_tree+0x12d>
  405a94:	e9 00 00 00 00       	jmp    405a99 <update_tree+0x169>
  405a99:	48 8b 45 a0          	mov    rax,QWORD PTR [rbp-0x60]
  405a9d:	48 3b 45 10          	cmp    rax,QWORD PTR [rbp+0x10]
  405aa1:	0f 85 05 00 00 00    	jne    405aac <update_tree+0x17c>
  405aa7:	e9 2d 00 00 00       	jmp    405ad9 <update_tree+0x1a9>
  405aac:	48 8b 45 a0          	mov    rax,QWORD PTR [rbp-0x60]
  405ab0:	48 8b 40 20          	mov    rax,QWORD PTR [rax+0x20]
  405ab4:	48 89 45 98          	mov    QWORD PTR [rbp-0x68],rax
  405ab8:	48 83 7d 98 00       	cmp    QWORD PTR [rbp-0x68],0x0
  405abd:	0f 84 05 00 00 00    	je     405ac8 <update_tree+0x198>
  405ac3:	e9 b1 ff ff ff       	jmp    405a79 <update_tree+0x149>
  405ac8:	48 8b 45 a0          	mov    rax,QWORD PTR [rbp-0x60]
  405acc:	48 8b 40 18          	mov    rax,QWORD PTR [rax+0x18]
  405ad0:	48 89 45 a0          	mov    QWORD PTR [rbp-0x60],rax
  405ad4:	e9 c0 ff ff ff       	jmp    405a99 <update_tree+0x169>
  405ad9:	48 8b 45 c0          	mov    rax,QWORD PTR [rbp-0x40]
  405add:	48 89 45 98          	mov    QWORD PTR [rbp-0x68],rax
  405ae1:	48 8b 45 98          	mov    rax,QWORD PTR [rbp-0x68]
  405ae5:	48 8b 40 18          	mov    rax,QWORD PTR [rax+0x18]
  405ae9:	48 89 45 a0          	mov    QWORD PTR [rbp-0x60],rax
  405aed:	48 8b 45 10          	mov    rax,QWORD PTR [rbp+0x10]
  405af1:	48 8b 40 58          	mov    rax,QWORD PTR [rax+0x58]
  405af5:	48 89 85 78 ff ff ff 	mov    QWORD PTR [rbp-0x88],rax
  405afc:	48 89 85 70 ff ff ff 	mov    QWORD PTR [rbp-0x90],rax
  405b03:	48 8b 45 b8          	mov    rax,QWORD PTR [rbp-0x48]
  405b07:	48 89 45 90          	mov    QWORD PTR [rbp-0x70],rax
  405b0b:	48 8b 45 28          	mov    rax,QWORD PTR [rbp+0x28]
  405b0f:	48 89 45 a8          	mov    QWORD PTR [rbp-0x58],rax
  405b13:	48 8b 45 98          	mov    rax,QWORD PTR [rbp-0x68]
  405b17:	48 3b 45 18          	cmp    rax,QWORD PTR [rbp+0x18]
  405b1b:	0f 84 9c 01 00 00    	je     405cbd <update_tree+0x38d>
  405b21:	48 8b 45 98          	mov    rax,QWORD PTR [rbp-0x68]
  405b25:	48 83 78 20 00       	cmp    QWORD PTR [rax+0x20],0x0
  405b2a:	0f 84 14 00 00 00    	je     405b44 <update_tree+0x214>
  405b30:	48 8b 45 98          	mov    rax,QWORD PTR [rbp-0x68]
  405b34:	48 8b 40 28          	mov    rax,QWORD PTR [rax+0x28]
  405b38:	48 8b 4d 98          	mov    rcx,QWORD PTR [rbp-0x68]
  405b3c:	48 8b 49 20          	mov    rcx,QWORD PTR [rcx+0x20]
  405b40:	48 89 41 28          	mov    QWORD PTR [rcx+0x28],rax
  405b44:	48 8b 45 98          	mov    rax,QWORD PTR [rbp-0x68]
  405b48:	48 83 78 28 00       	cmp    QWORD PTR [rax+0x28],0x0
  405b4d:	0f 84 19 00 00 00    	je     405b6c <update_tree+0x23c>
  405b53:	48 8b 45 98          	mov    rax,QWORD PTR [rbp-0x68]
  405b57:	48 8b 40 20          	mov    rax,QWORD PTR [rax+0x20]
  405b5b:	48 8b 4d 98          	mov    rcx,QWORD PTR [rbp-0x68]
  405b5f:	48 8b 49 28          	mov    rcx,QWORD PTR [rcx+0x28]
  405b63:	48 89 41 20          	mov    QWORD PTR [rcx+0x20],rax
  405b67:	e9 10 00 00 00       	jmp    405b7c <update_tree+0x24c>
  405b6c:	48 8b 45 98          	mov    rax,QWORD PTR [rbp-0x68]
  405b70:	48 8b 40 20          	mov    rax,QWORD PTR [rax+0x20]
  405b74:	48 8b 4d a0          	mov    rcx,QWORD PTR [rbp-0x60]
  405b78:	48 89 41 10          	mov    QWORD PTR [rcx+0x10],rax
  405b7c:	48 8b 45 90          	mov    rax,QWORD PTR [rbp-0x70]
  405b80:	48 8b 4d 98          	mov    rcx,QWORD PTR [rbp-0x68]
  405b84:	48 89 41 18          	mov    QWORD PTR [rcx+0x18],rax
  405b88:	48 8b 45 90          	mov    rax,QWORD PTR [rbp-0x70]
  405b8c:	48 8b 40 10          	mov    rax,QWORD PTR [rax+0x10]
  405b90:	48 8b 4d 98          	mov    rcx,QWORD PTR [rbp-0x68]
  405b94:	48 89 41 20          	mov    QWORD PTR [rcx+0x20],rax
  405b98:	48 8b 45 98          	mov    rax,QWORD PTR [rbp-0x68]
  405b9c:	48 83 78 20 00       	cmp    QWORD PTR [rax+0x20],0x0
  405ba1:	0f 84 10 00 00 00    	je     405bb7 <update_tree+0x287>
  405ba7:	48 8b 45 98          	mov    rax,QWORD PTR [rbp-0x68]
  405bab:	48 8b 4d 98          	mov    rcx,QWORD PTR [rbp-0x68]
  405baf:	48 8b 49 20          	mov    rcx,QWORD PTR [rcx+0x20]
  405bb3:	48 89 41 28          	mov    QWORD PTR [rcx+0x28],rax
  405bb7:	48 8b 45 98          	mov    rax,QWORD PTR [rbp-0x68]
  405bbb:	48 8b 4d 90          	mov    rcx,QWORD PTR [rbp-0x70]
  405bbf:	48 89 41 10          	mov    QWORD PTR [rcx+0x10],rax
  405bc3:	48 8b 45 98          	mov    rax,QWORD PTR [rbp-0x68]
  405bc7:	48 c7 40 28 00 00 00 	mov    QWORD PTR [rax+0x28],0x0
  405bce:	00 
  405bcf:	48 8b 45 98          	mov    rax,QWORD PTR [rbp-0x68]
  405bd3:	83 78 08 00          	cmp    DWORD PTR [rax+0x8],0x0
  405bd7:	0f 95 c2             	setne  dl
  405bda:	80 f2 ff             	xor    dl,0xff
  405bdd:	80 e2 01             	and    dl,0x1
  405be0:	0f b6 f2             	movzx  esi,dl
  405be3:	48 63 c6             	movsxd rax,esi
  405be6:	48 89 45 88          	mov    QWORD PTR [rbp-0x78],rax
  405bea:	48 8b 45 88          	mov    rax,QWORD PTR [rbp-0x78]
  405bee:	48 3b 45 e0          	cmp    rax,QWORD PTR [rbp-0x20]
  405bf2:	0f 85 18 00 00 00    	jne    405c10 <update_tree+0x2e0>
  405bf8:	48 8b 45 98          	mov    rax,QWORD PTR [rbp-0x68]
  405bfc:	48 8b 40 50          	mov    rax,QWORD PTR [rax+0x50]
  405c00:	48 03 45 d0          	add    rax,QWORD PTR [rbp-0x30]
  405c04:	48 89 85 68 ff ff ff 	mov    QWORD PTR [rbp-0x98],rax
  405c0b:	e9 13 00 00 00       	jmp    405c23 <update_tree+0x2f3>
  405c10:	48 8b 45 98          	mov    rax,QWORD PTR [rbp-0x68]
  405c14:	48 8b 40 50          	mov    rax,QWORD PTR [rax+0x50]
  405c18:	48 2b 45 d0          	sub    rax,QWORD PTR [rbp-0x30]
  405c1c:	48 89 85 68 ff ff ff 	mov    QWORD PTR [rbp-0x98],rax
  405c23:	48 8b 45 98          	mov    rax,QWORD PTR [rbp-0x68]
  405c27:	48 8b 40 30          	mov    rax,QWORD PTR [rax+0x30]
  405c2b:	48 89 45 b0          	mov    QWORD PTR [rbp-0x50],rax
  405c2f:	48 8b 45 98          	mov    rax,QWORD PTR [rbp-0x68]
  405c33:	48 8b 40 58          	mov    rax,QWORD PTR [rax+0x58]
  405c37:	48 89 45 80          	mov    QWORD PTR [rbp-0x80],rax
  405c3b:	48 8b 45 d8          	mov    rax,QWORD PTR [rbp-0x28]
  405c3f:	89 c1                	mov    ecx,eax
  405c41:	48 8b 45 98          	mov    rax,QWORD PTR [rbp-0x68]
  405c45:	89 48 08             	mov    DWORD PTR [rax+0x8],ecx
  405c48:	48 8b 45 c8          	mov    rax,QWORD PTR [rbp-0x38]
  405c4c:	48 8b 55 98          	mov    rdx,QWORD PTR [rbp-0x68]
  405c50:	48 89 42 50          	mov    QWORD PTR [rdx+0x50],rax
  405c54:	48 8b 45 a8          	mov    rax,QWORD PTR [rbp-0x58]
  405c58:	48 8b 55 98          	mov    rdx,QWORD PTR [rbp-0x68]
  405c5c:	48 89 42 30          	mov    QWORD PTR [rdx+0x30],rax
  405c60:	48 8b 85 70 ff ff ff 	mov    rax,QWORD PTR [rbp-0x90]
  405c67:	48 8b 55 98          	mov    rdx,QWORD PTR [rbp-0x68]
  405c6b:	48 89 42 58          	mov    QWORD PTR [rdx+0x58],rax
  405c6f:	48 8b 45 98          	mov    rax,QWORD PTR [rbp-0x68]
  405c73:	48 89 45 90          	mov    QWORD PTR [rbp-0x70],rax
  405c77:	48 8b 45 88          	mov    rax,QWORD PTR [rbp-0x78]
  405c7b:	48 89 45 d8          	mov    QWORD PTR [rbp-0x28],rax
  405c7f:	48 8b 85 68 ff ff ff 	mov    rax,QWORD PTR [rbp-0x98]
  405c86:	48 89 45 c8          	mov    QWORD PTR [rbp-0x38],rax
  405c8a:	48 8b 45 b0          	mov    rax,QWORD PTR [rbp-0x50]
  405c8e:	48 89 45 a8          	mov    QWORD PTR [rbp-0x58],rax
  405c92:	48 8b 85 78 ff ff ff 	mov    rax,QWORD PTR [rbp-0x88]
  405c99:	48 2b 45 80          	sub    rax,QWORD PTR [rbp-0x80]
  405c9d:	48 89 85 70 ff ff ff 	mov    QWORD PTR [rbp-0x90],rax
  405ca4:	48 8b 45 a0          	mov    rax,QWORD PTR [rbp-0x60]
  405ca8:	48 89 45 98          	mov    QWORD PTR [rbp-0x68],rax
  405cac:	48 8b 45 98          	mov    rax,QWORD PTR [rbp-0x68]
  405cb0:	48 8b 40 18          	mov    rax,QWORD PTR [rax+0x18]
  405cb4:	48 89 45 a0          	mov    QWORD PTR [rbp-0x60],rax
  405cb8:	e9 56 fe ff ff       	jmp    405b13 <update_tree+0x1e3>
  405cbd:	48 8b 45 d0          	mov    rax,QWORD PTR [rbp-0x30]
  405cc1:	48 3b 45 38          	cmp    rax,QWORD PTR [rbp+0x38]
  405cc5:	0f 8e fa 00 00 00    	jle    405dc5 <update_tree+0x495>
  405ccb:	48 8b 45 18          	mov    rax,QWORD PTR [rbp+0x18]
  405ccf:	48 89 45 98          	mov    QWORD PTR [rbp-0x68],rax
  405cd3:	48 8b 45 98          	mov    rax,QWORD PTR [rbp-0x68]
  405cd7:	48 3b 45 20          	cmp    rax,QWORD PTR [rbp+0x20]
  405cdb:	0f 84 66 00 00 00    	je     405d47 <update_tree+0x417>
  405ce1:	48 8b 85 78 ff ff ff 	mov    rax,QWORD PTR [rbp-0x88]
  405ce8:	48 8b 4d 98          	mov    rcx,QWORD PTR [rbp-0x68]
  405cec:	48 8b 51 58          	mov    rdx,QWORD PTR [rcx+0x58]
  405cf0:	48 29 c2             	sub    rdx,rax
  405cf3:	48 89 51 58          	mov    QWORD PTR [rcx+0x58],rdx
  405cf7:	48 8b 45 98          	mov    rax,QWORD PTR [rbp-0x68]
  405cfb:	48 63 40 08          	movsxd rax,DWORD PTR [rax+0x8]
  405cff:	48 3b 45 e0          	cmp    rax,QWORD PTR [rbp-0x20]
  405d03:	0f 84 15 00 00 00    	je     405d1e <update_tree+0x3ee>
  405d09:	48 8b 45 d0          	mov    rax,QWORD PTR [rbp-0x30]
  405d0d:	48 8b 4d 98          	mov    rcx,QWORD PTR [rbp-0x68]
  405d11:	48 03 41 50          	add    rax,QWORD PTR [rcx+0x50]
  405d15:	48 89 41 50          	mov    QWORD PTR [rcx+0x50],rax
  405d19:	e9 13 00 00 00       	jmp    405d31 <update_tree+0x401>
  405d1e:	48 8b 45 d0          	mov    rax,QWORD PTR [rbp-0x30]
  405d22:	48 8b 4d 98          	mov    rcx,QWORD PTR [rbp-0x68]
  405d26:	48 8b 51 50          	mov    rdx,QWORD PTR [rcx+0x50]
  405d2a:	48 29 c2             	sub    rdx,rax
  405d2d:	48 89 51 50          	mov    QWORD PTR [rcx+0x50],rdx
  405d31:	e9 00 00 00 00       	jmp    405d36 <update_tree+0x406>
  405d36:	48 8b 45 98          	mov    rax,QWORD PTR [rbp-0x68]
  405d3a:	48 8b 40 18          	mov    rax,QWORD PTR [rax+0x18]
  405d3e:	48 89 45 98          	mov    QWORD PTR [rbp-0x68],rax
  405d42:	e9 8c ff ff ff       	jmp    405cd3 <update_tree+0x3a3>
  405d47:	48 8b 45 b8          	mov    rax,QWORD PTR [rbp-0x48]
  405d4b:	48 89 45 98          	mov    QWORD PTR [rbp-0x68],rax
  405d4f:	48 8b 45 98          	mov    rax,QWORD PTR [rbp-0x68]
  405d53:	48 3b 45 20          	cmp    rax,QWORD PTR [rbp+0x20]
  405d57:	0f 84 63 00 00 00    	je     405dc0 <update_tree+0x490>
  405d5d:	48 8b 85 78 ff ff ff 	mov    rax,QWORD PTR [rbp-0x88]
  405d64:	48 8b 4d 98          	mov    rcx,QWORD PTR [rbp-0x68]
  405d68:	48 03 41 58          	add    rax,QWORD PTR [rcx+0x58]
  405d6c:	48 89 41 58          	mov    QWORD PTR [rcx+0x58],rax
  405d70:	48 8b 45 98          	mov    rax,QWORD PTR [rbp-0x68]
  405d74:	48 63 40 08          	movsxd rax,DWORD PTR [rax+0x8]
  405d78:	48 3b 45 e0          	cmp    rax,QWORD PTR [rbp-0x20]
  405d7c:	0f 85 15 00 00 00    	jne    405d97 <update_tree+0x467>
  405d82:	48 8b 45 d0          	mov    rax,QWORD PTR [rbp-0x30]
  405d86:	48 8b 4d 98          	mov    rcx,QWORD PTR [rbp-0x68]
  405d8a:	48 03 41 50          	add    rax,QWORD PTR [rcx+0x50]
  405d8e:	48 89 41 50          	mov    QWORD PTR [rcx+0x50],rax
  405d92:	e9 13 00 00 00       	jmp    405daa <update_tree+0x47a>
  405d97:	48 8b 45 d0          	mov    rax,QWORD PTR [rbp-0x30]
  405d9b:	48 8b 4d 98          	mov    rcx,QWORD PTR [rbp-0x68]
  405d9f:	48 8b 51 50          	mov    rdx,QWORD PTR [rcx+0x50]
  405da3:	48 29 c2             	sub    rdx,rax
  405da6:	48 89 51 50          	mov    QWORD PTR [rcx+0x50],rdx
  405daa:	e9 00 00 00 00       	jmp    405daf <update_tree+0x47f>
  405daf:	48 8b 45 98          	mov    rax,QWORD PTR [rbp-0x68]
  405db3:	48 8b 40 18          	mov    rax,QWORD PTR [rax+0x18]
  405db7:	48 89 45 98          	mov    QWORD PTR [rbp-0x68],rax
  405dbb:	e9 8f ff ff ff       	jmp    405d4f <update_tree+0x41f>
  405dc0:	e9 7c 00 00 00       	jmp    405e41 <update_tree+0x511>
  405dc5:	48 8b 45 18          	mov    rax,QWORD PTR [rbp+0x18]
  405dc9:	48 89 45 98          	mov    QWORD PTR [rbp-0x68],rax
  405dcd:	48 8b 45 98          	mov    rax,QWORD PTR [rbp-0x68]
  405dd1:	48 3b 45 20          	cmp    rax,QWORD PTR [rbp+0x20]
  405dd5:	0f 84 27 00 00 00    	je     405e02 <update_tree+0x4d2>
  405ddb:	48 8b 85 78 ff ff ff 	mov    rax,QWORD PTR [rbp-0x88]
  405de2:	48 8b 4d 98          	mov    rcx,QWORD PTR [rbp-0x68]
  405de6:	48 8b 51 58          	mov    rdx,QWORD PTR [rcx+0x58]
  405dea:	48 29 c2             	sub    rdx,rax
  405ded:	48 89 51 58          	mov    QWORD PTR [rcx+0x58],rdx
  405df1:	48 8b 45 98          	mov    rax,QWORD PTR [rbp-0x68]
  405df5:	48 8b 40 18          	mov    rax,QWORD PTR [rax+0x18]
  405df9:	48 89 45 98          	mov    QWORD PTR [rbp-0x68],rax
  405dfd:	e9 cb ff ff ff       	jmp    405dcd <update_tree+0x49d>
  405e02:	48 8b 45 b8          	mov    rax,QWORD PTR [rbp-0x48]
  405e06:	48 89 45 98          	mov    QWORD PTR [rbp-0x68],rax
  405e0a:	48 8b 45 98          	mov    rax,QWORD PTR [rbp-0x68]
  405e0e:	48 3b 45 20          	cmp    rax,QWORD PTR [rbp+0x20]
  405e12:	0f 84 24 00 00 00    	je     405e3c <update_tree+0x50c>
  405e18:	48 8b 85 78 ff ff ff 	mov    rax,QWORD PTR [rbp-0x88]
  405e1f:	48 8b 4d 98          	mov    rcx,QWORD PTR [rbp-0x68]
  405e23:	48 03 41 58          	add    rax,QWORD PTR [rcx+0x58]
  405e27:	48 89 41 58          	mov    QWORD PTR [rcx+0x58],rax
  405e2b:	48 8b 45 98          	mov    rax,QWORD PTR [rbp-0x68]
  405e2f:	48 8b 40 18          	mov    rax,QWORD PTR [rax+0x18]
  405e33:	48 89 45 98          	mov    QWORD PTR [rbp-0x68],rax
  405e37:	e9 ce ff ff ff       	jmp    405e0a <update_tree+0x4da>
  405e3c:	e9 00 00 00 00       	jmp    405e41 <update_tree+0x511>
  405e41:	48 83 c4 40          	add    rsp,0x40
  405e45:	5b                   	pop    rbx
  405e46:	41 5e                	pop    r14
  405e48:	41 5f                	pop    r15
  405e4a:	5d                   	pop    rbp
  405e4b:	c3                   	ret    
  405e4c:	0f 1f 40 00          	nop    DWORD PTR [rax+0x0]

0000000000405e50 <primal_iminus>:
  405e50:	55                   	push   rbp
  405e51:	48 89 e5             	mov    rbp,rsp
  405e54:	48 89 7d f8          	mov    QWORD PTR [rbp-0x8],rdi
  405e58:	48 89 75 f0          	mov    QWORD PTR [rbp-0x10],rsi
  405e5c:	48 89 55 e8          	mov    QWORD PTR [rbp-0x18],rdx
  405e60:	48 89 4d e0          	mov    QWORD PTR [rbp-0x20],rcx
  405e64:	4c 89 45 d8          	mov    QWORD PTR [rbp-0x28],r8
  405e68:	48 c7 45 d0 00 00 00 	mov    QWORD PTR [rbp-0x30],0x0
  405e6f:	00 
  405e70:	48 8b 45 e8          	mov    rax,QWORD PTR [rbp-0x18]
  405e74:	48 3b 45 e0          	cmp    rax,QWORD PTR [rbp-0x20]
  405e78:	0f 84 96 01 00 00    	je     406014 <primal_iminus+0x1c4>
  405e7e:	48 8b 45 e8          	mov    rax,QWORD PTR [rbp-0x18]
  405e82:	48 8b 40 58          	mov    rax,QWORD PTR [rax+0x58]
  405e86:	48 8b 4d e0          	mov    rcx,QWORD PTR [rbp-0x20]
  405e8a:	48 3b 41 58          	cmp    rax,QWORD PTR [rcx+0x58]
  405e8e:	0f 8d c0 00 00 00    	jge    405f54 <primal_iminus+0x104>
  405e94:	48 8b 45 e8          	mov    rax,QWORD PTR [rbp-0x18]
  405e98:	83 78 08 00          	cmp    DWORD PTR [rax+0x8],0x0
  405e9c:	0f 84 3c 00 00 00    	je     405ede <primal_iminus+0x8e>
  405ea2:	48 8b 45 f8          	mov    rax,QWORD PTR [rbp-0x8]
  405ea6:	48 8b 00             	mov    rax,QWORD PTR [rax]
  405ea9:	48 8b 4d e8          	mov    rcx,QWORD PTR [rbp-0x18]
  405ead:	48 3b 41 50          	cmp    rax,QWORD PTR [rcx+0x50]
  405eb1:	0f 8e 22 00 00 00    	jle    405ed9 <primal_iminus+0x89>
  405eb7:	48 8b 45 e8          	mov    rax,QWORD PTR [rbp-0x18]
  405ebb:	48 89 45 d0          	mov    QWORD PTR [rbp-0x30],rax
  405ebf:	48 8b 45 e8          	mov    rax,QWORD PTR [rbp-0x18]
  405ec3:	48 8b 40 50          	mov    rax,QWORD PTR [rax+0x50]
  405ec7:	48 8b 4d f8          	mov    rcx,QWORD PTR [rbp-0x8]
  405ecb:	48 89 01             	mov    QWORD PTR [rcx],rax
  405ece:	48 8b 45 f0          	mov    rax,QWORD PTR [rbp-0x10]
  405ed2:	48 c7 00 00 00 00 00 	mov    QWORD PTR [rax],0x0
  405ed9:	e9 65 00 00 00       	jmp    405f43 <primal_iminus+0xf3>
  405ede:	48 8b 45 e8          	mov    rax,QWORD PTR [rbp-0x18]
  405ee2:	48 8b 40 18          	mov    rax,QWORD PTR [rax+0x18]
  405ee6:	48 83 78 18 00       	cmp    QWORD PTR [rax+0x18],0x0
  405eeb:	0f 84 4d 00 00 00    	je     405f3e <primal_iminus+0xee>
  405ef1:	b8 01 00 00 00       	mov    eax,0x1
  405ef6:	89 c1                	mov    ecx,eax
  405ef8:	48 8b 55 f8          	mov    rdx,QWORD PTR [rbp-0x8]
  405efc:	48 8b 12             	mov    rdx,QWORD PTR [rdx]
  405eff:	48 8b 75 e8          	mov    rsi,QWORD PTR [rbp-0x18]
  405f03:	48 2b 4e 50          	sub    rcx,QWORD PTR [rsi+0x50]
  405f07:	48 39 ca             	cmp    rdx,rcx
  405f0a:	0f 8e 29 00 00 00    	jle    405f39 <primal_iminus+0xe9>
  405f10:	b8 01 00 00 00       	mov    eax,0x1
  405f15:	89 c1                	mov    ecx,eax
  405f17:	48 8b 55 e8          	mov    rdx,QWORD PTR [rbp-0x18]
  405f1b:	48 89 55 d0          	mov    QWORD PTR [rbp-0x30],rdx
  405f1f:	48 8b 55 e8          	mov    rdx,QWORD PTR [rbp-0x18]
  405f23:	48 2b 4a 50          	sub    rcx,QWORD PTR [rdx+0x50]
  405f27:	48 8b 55 f8          	mov    rdx,QWORD PTR [rbp-0x8]
  405f2b:	48 89 0a             	mov    QWORD PTR [rdx],rcx
  405f2e:	48 8b 4d f0          	mov    rcx,QWORD PTR [rbp-0x10]
  405f32:	48 c7 01 00 00 00 00 	mov    QWORD PTR [rcx],0x0
  405f39:	e9 00 00 00 00       	jmp    405f3e <primal_iminus+0xee>
  405f3e:	e9 00 00 00 00       	jmp    405f43 <primal_iminus+0xf3>
  405f43:	48 8b 45 e8          	mov    rax,QWORD PTR [rbp-0x18]
  405f47:	48 8b 40 18          	mov    rax,QWORD PTR [rax+0x18]
  405f4b:	48 89 45 e8          	mov    QWORD PTR [rbp-0x18],rax
  405f4f:	e9 bb 00 00 00       	jmp    40600f <primal_iminus+0x1bf>
  405f54:	48 8b 45 e0          	mov    rax,QWORD PTR [rbp-0x20]
  405f58:	83 78 08 00          	cmp    DWORD PTR [rax+0x8],0x0
  405f5c:	0f 85 3c 00 00 00    	jne    405f9e <primal_iminus+0x14e>
  405f62:	48 8b 45 f8          	mov    rax,QWORD PTR [rbp-0x8]
  405f66:	48 8b 00             	mov    rax,QWORD PTR [rax]
  405f69:	48 8b 4d e0          	mov    rcx,QWORD PTR [rbp-0x20]
  405f6d:	48 3b 41 50          	cmp    rax,QWORD PTR [rcx+0x50]
  405f71:	0f 8c 22 00 00 00    	jl     405f99 <primal_iminus+0x149>
  405f77:	48 8b 45 e0          	mov    rax,QWORD PTR [rbp-0x20]
  405f7b:	48 89 45 d0          	mov    QWORD PTR [rbp-0x30],rax
  405f7f:	48 8b 45 e0          	mov    rax,QWORD PTR [rbp-0x20]
  405f83:	48 8b 40 50          	mov    rax,QWORD PTR [rax+0x50]
  405f87:	48 8b 4d f8          	mov    rcx,QWORD PTR [rbp-0x8]
  405f8b:	48 89 01             	mov    QWORD PTR [rcx],rax
  405f8e:	48 8b 45 f0          	mov    rax,QWORD PTR [rbp-0x10]
  405f92:	48 c7 00 01 00 00 00 	mov    QWORD PTR [rax],0x1
  405f99:	e9 65 00 00 00       	jmp    406003 <primal_iminus+0x1b3>
  405f9e:	48 8b 45 e0          	mov    rax,QWORD PTR [rbp-0x20]
  405fa2:	48 8b 40 18          	mov    rax,QWORD PTR [rax+0x18]
  405fa6:	48 83 78 18 00       	cmp    QWORD PTR [rax+0x18],0x0
  405fab:	0f 84 4d 00 00 00    	je     405ffe <primal_iminus+0x1ae>
  405fb1:	b8 01 00 00 00       	mov    eax,0x1
  405fb6:	89 c1                	mov    ecx,eax
  405fb8:	48 8b 55 f8          	mov    rdx,QWORD PTR [rbp-0x8]
  405fbc:	48 8b 12             	mov    rdx,QWORD PTR [rdx]
  405fbf:	48 8b 75 e0          	mov    rsi,QWORD PTR [rbp-0x20]
  405fc3:	48 2b 4e 50          	sub    rcx,QWORD PTR [rsi+0x50]
  405fc7:	48 39 ca             	cmp    rdx,rcx
  405fca:	0f 8c 29 00 00 00    	jl     405ff9 <primal_iminus+0x1a9>
  405fd0:	b8 01 00 00 00       	mov    eax,0x1
  405fd5:	89 c1                	mov    ecx,eax
  405fd7:	48 8b 55 e0          	mov    rdx,QWORD PTR [rbp-0x20]
  405fdb:	48 89 55 d0          	mov    QWORD PTR [rbp-0x30],rdx
  405fdf:	48 8b 55 e0          	mov    rdx,QWORD PTR [rbp-0x20]
  405fe3:	48 2b 4a 50          	sub    rcx,QWORD PTR [rdx+0x50]
  405fe7:	48 8b 55 f8          	mov    rdx,QWORD PTR [rbp-0x8]
  405feb:	48 89 0a             	mov    QWORD PTR [rdx],rcx
  405fee:	48 8b 4d f0          	mov    rcx,QWORD PTR [rbp-0x10]
  405ff2:	48 c7 01 01 00 00 00 	mov    QWORD PTR [rcx],0x1
  405ff9:	e9 00 00 00 00       	jmp    405ffe <primal_iminus+0x1ae>
  405ffe:	e9 00 00 00 00       	jmp    406003 <primal_iminus+0x1b3>
  406003:	48 8b 45 e0          	mov    rax,QWORD PTR [rbp-0x20]
  406007:	48 8b 40 18          	mov    rax,QWORD PTR [rax+0x18]
  40600b:	48 89 45 e0          	mov    QWORD PTR [rbp-0x20],rax
  40600f:	e9 5c fe ff ff       	jmp    405e70 <primal_iminus+0x20>
  406014:	48 8b 45 e8          	mov    rax,QWORD PTR [rbp-0x18]
  406018:	48 8b 4d d8          	mov    rcx,QWORD PTR [rbp-0x28]
  40601c:	48 89 01             	mov    QWORD PTR [rcx],rax
  40601f:	48 8b 45 d0          	mov    rax,QWORD PTR [rbp-0x30]
  406023:	5d                   	pop    rbp
  406024:	c3                   	ret    
  406025:	66 2e 0f 1f 84 00 00 	cs nop WORD PTR [rax+rax*1+0x0]
  40602c:	00 00 00 
  40602f:	90                   	nop

0000000000406030 <primal_update_flow>:
  406030:	55                   	push   rbp
  406031:	48 89 e5             	mov    rbp,rsp
  406034:	48 89 7d f8          	mov    QWORD PTR [rbp-0x8],rdi
  406038:	48 89 75 f0          	mov    QWORD PTR [rbp-0x10],rsi
  40603c:	48 89 55 e8          	mov    QWORD PTR [rbp-0x18],rdx
  406040:	48 8b 45 f8          	mov    rax,QWORD PTR [rbp-0x8]
  406044:	48 3b 45 e8          	cmp    rax,QWORD PTR [rbp-0x18]
  406048:	0f 84 41 00 00 00    	je     40608f <primal_update_flow+0x5f>
  40604e:	48 8b 45 f8          	mov    rax,QWORD PTR [rbp-0x8]
  406052:	83 78 08 00          	cmp    DWORD PTR [rax+0x8],0x0
  406056:	0f 84 11 00 00 00    	je     40606d <primal_update_flow+0x3d>
  40605c:	48 8b 45 f8          	mov    rax,QWORD PTR [rbp-0x8]
  406060:	48 c7 40 50 00 00 00 	mov    QWORD PTR [rax+0x50],0x0
  406067:	00 
  406068:	e9 0c 00 00 00       	jmp    406079 <primal_update_flow+0x49>
  40606d:	48 8b 45 f8          	mov    rax,QWORD PTR [rbp-0x8]
  406071:	48 c7 40 50 01 00 00 	mov    QWORD PTR [rax+0x50],0x1
  406078:	00 
  406079:	e9 00 00 00 00       	jmp    40607e <primal_update_flow+0x4e>
  40607e:	48 8b 45 f8          	mov    rax,QWORD PTR [rbp-0x8]
  406082:	48 8b 40 18          	mov    rax,QWORD PTR [rax+0x18]
  406086:	48 89 45 f8          	mov    QWORD PTR [rbp-0x8],rax
  40608a:	e9 b1 ff ff ff       	jmp    406040 <primal_update_flow+0x10>
  40608f:	e9 00 00 00 00       	jmp    406094 <primal_update_flow+0x64>
  406094:	48 8b 45 f0          	mov    rax,QWORD PTR [rbp-0x10]
  406098:	48 3b 45 e8          	cmp    rax,QWORD PTR [rbp-0x18]
  40609c:	0f 84 41 00 00 00    	je     4060e3 <primal_update_flow+0xb3>
  4060a2:	48 8b 45 f0          	mov    rax,QWORD PTR [rbp-0x10]
  4060a6:	83 78 08 00          	cmp    DWORD PTR [rax+0x8],0x0
  4060aa:	0f 84 11 00 00 00    	je     4060c1 <primal_update_flow+0x91>
  4060b0:	48 8b 45 f0          	mov    rax,QWORD PTR [rbp-0x10]
  4060b4:	48 c7 40 50 01 00 00 	mov    QWORD PTR [rax+0x50],0x1
  4060bb:	00 
  4060bc:	e9 0c 00 00 00       	jmp    4060cd <primal_update_flow+0x9d>
  4060c1:	48 8b 45 f0          	mov    rax,QWORD PTR [rbp-0x10]
  4060c5:	48 c7 40 50 00 00 00 	mov    QWORD PTR [rax+0x50],0x0
  4060cc:	00 
  4060cd:	e9 00 00 00 00       	jmp    4060d2 <primal_update_flow+0xa2>
  4060d2:	48 8b 45 f0          	mov    rax,QWORD PTR [rbp-0x10]
  4060d6:	48 8b 40 18          	mov    rax,QWORD PTR [rax+0x18]
  4060da:	48 89 45 f0          	mov    QWORD PTR [rbp-0x10],rax
  4060de:	e9 b1 ff ff ff       	jmp    406094 <primal_update_flow+0x64>
  4060e3:	5d                   	pop    rbp
  4060e4:	c3                   	ret    
  4060e5:	66 2e 0f 1f 84 00 00 	cs nop WORD PTR [rax+rax*1+0x0]
  4060ec:	00 00 00 
  4060ef:	90                   	nop

00000000004060f0 <markBaskets>:
  4060f0:	55                   	push   rbp
  4060f1:	48 89 e5             	mov    rbp,rsp
  4060f4:	48 83 ec 30          	sub    rsp,0x30
  4060f8:	48 89 7d f8          	mov    QWORD PTR [rbp-0x8],rdi
  4060fc:	48 c7 45 e0 00 00 00 	mov    QWORD PTR [rbp-0x20],0x0
  406103:	00 
  406104:	48 c7 45 f0 01 00 00 	mov    QWORD PTR [rbp-0x10],0x1
  40610b:	00 
  40610c:	48 83 7d f0 3c       	cmp    QWORD PTR [rbp-0x10],0x3c
  406111:	0f 8f 0d 01 00 00    	jg     406224 <markBaskets+0x134>
  406117:	48 8b 04 25 00 a1 40 	mov    rax,QWORD PTR ds:0x40a100
  40611e:	00 
  40611f:	48 8b 00             	mov    rax,QWORD PTR [rax]
  406122:	48 8b 00             	mov    rax,QWORD PTR [rax]
  406125:	48 83 78 18 00       	cmp    QWORD PTR [rax+0x18],0x0
  40612a:	0f 8c 1f 00 00 00    	jl     40614f <markBaskets+0x5f>
  406130:	48 8b 04 25 00 a1 40 	mov    rax,QWORD PTR ds:0x40a100
  406137:	00 
  406138:	48 8b 00             	mov    rax,QWORD PTR [rax]
  40613b:	48 8b 00             	mov    rax,QWORD PTR [rax]
  40613e:	48 89 45 d8          	mov    QWORD PTR [rbp-0x28],rax
  406142:	48 c7 45 e0 00 00 00 	mov    QWORD PTR [rbp-0x20],0x0
  406149:	00 
  40614a:	e9 08 00 00 00       	jmp    406157 <markBaskets+0x67>
  40614f:	48 c7 45 d8 00 00 00 	mov    QWORD PTR [rbp-0x28],0x0
  406156:	00 
  406157:	48 c7 45 e8 01 00 00 	mov    QWORD PTR [rbp-0x18],0x1
  40615e:	00 
  40615f:	48 8b 45 e8          	mov    rax,QWORD PTR [rbp-0x18]
  406163:	48 3b 45 f8          	cmp    rax,QWORD PTR [rbp-0x8]
  406167:	0f 8d 72 00 00 00    	jge    4061df <markBaskets+0xef>
  40616d:	48 8b 04 25 00 a1 40 	mov    rax,QWORD PTR ds:0x40a100
  406174:	00 
  406175:	48 8b 4d e8          	mov    rcx,QWORD PTR [rbp-0x18]
  406179:	48 8b 04 c8          	mov    rax,QWORD PTR [rax+rcx*8]
  40617d:	48 8b 00             	mov    rax,QWORD PTR [rax]
  406180:	48 89 45 d0          	mov    QWORD PTR [rbp-0x30],rax
  406184:	48 8b 45 d0          	mov    rax,QWORD PTR [rbp-0x30]
  406188:	48 83 78 18 00       	cmp    QWORD PTR [rax+0x18],0x0
  40618d:	0f 8c 36 00 00 00    	jl     4061c9 <markBaskets+0xd9>
  406193:	48 83 7d d8 00       	cmp    QWORD PTR [rbp-0x28],0x0
  406198:	0f 84 16 00 00 00    	je     4061b4 <markBaskets+0xc4>
  40619e:	48 8d 7d d0          	lea    rdi,[rbp-0x30]
  4061a2:	48 8d 75 d8          	lea    rsi,[rbp-0x28]
  4061a6:	e8 45 0a 00 00       	call   406bf0 <cost_compare>
  4061ab:	83 f8 00             	cmp    eax,0x0
  4061ae:	0f 8d 10 00 00 00    	jge    4061c4 <markBaskets+0xd4>
  4061b4:	48 8b 45 d0          	mov    rax,QWORD PTR [rbp-0x30]
  4061b8:	48 89 45 d8          	mov    QWORD PTR [rbp-0x28],rax
  4061bc:	48 8b 45 e8          	mov    rax,QWORD PTR [rbp-0x18]
  4061c0:	48 89 45 e0          	mov    QWORD PTR [rbp-0x20],rax
  4061c4:	e9 00 00 00 00       	jmp    4061c9 <markBaskets+0xd9>
  4061c9:	e9 00 00 00 00       	jmp    4061ce <markBaskets+0xde>
  4061ce:	48 8b 45 e8          	mov    rax,QWORD PTR [rbp-0x18]
  4061d2:	48 83 c0 01          	add    rax,0x1
  4061d6:	48 89 45 e8          	mov    QWORD PTR [rbp-0x18],rax
  4061da:	e9 80 ff ff ff       	jmp    40615f <markBaskets+0x6f>
  4061df:	48 83 7d d8 00       	cmp    QWORD PTR [rbp-0x28],0x0
  4061e4:	0f 85 05 00 00 00    	jne    4061ef <markBaskets+0xff>
  4061ea:	e9 35 00 00 00       	jmp    406224 <markBaskets+0x134>
  4061ef:	48 8b 45 f0          	mov    rax,QWORD PTR [rbp-0x10]
  4061f3:	48 8b 4d d8          	mov    rcx,QWORD PTR [rbp-0x28]
  4061f7:	48 89 41 18          	mov    QWORD PTR [rcx+0x18],rax
  4061fb:	48 8b 04 25 00 a1 40 	mov    rax,QWORD PTR ds:0x40a100
  406202:	00 
  406203:	48 8b 4d e0          	mov    rcx,QWORD PTR [rbp-0x20]
  406207:	48 8b 14 c8          	mov    rdx,QWORD PTR [rax+rcx*8]
  40620b:	48 83 c2 08          	add    rdx,0x8
  40620f:	48 89 14 c8          	mov    QWORD PTR [rax+rcx*8],rdx
  406213:	48 8b 45 f0          	mov    rax,QWORD PTR [rbp-0x10]
  406217:	48 83 c0 01          	add    rax,0x1
  40621b:	48 89 45 f0          	mov    QWORD PTR [rbp-0x10],rax
  40621f:	e9 e8 fe ff ff       	jmp    40610c <markBaskets+0x1c>
  406224:	48 83 c4 30          	add    rsp,0x30
  406228:	5d                   	pop    rbp
  406229:	c3                   	ret    
  40622a:	66 0f 1f 44 00 00    	nop    WORD PTR [rax+rax*1+0x0]

0000000000406230 <worker>:
  406230:	55                   	push   rbp
  406231:	48 89 e5             	mov    rbp,rsp
  406234:	41 56                	push   r14
  406236:	53                   	push   rbx
  406237:	48 81 ec 80 7f 00 00 	sub    rsp,0x7f80
  40623e:	48 89 7d e8          	mov    QWORD PTR [rbp-0x18],rdi
  406242:	89 75 e4             	mov    DWORD PTR [rbp-0x1c],esi
  406245:	89 55 e0             	mov    DWORD PTR [rbp-0x20],edx
  406248:	48 8b 7d e8          	mov    rdi,QWORD PTR [rbp-0x18]
  40624c:	48 8b bf 38 02 00 00 	mov    rdi,QWORD PTR [rdi+0x238]
  406253:	48 89 7d d8          	mov    QWORD PTR [rbp-0x28],rdi
  406257:	48 8b 7d e8          	mov    rdi,QWORD PTR [rbp-0x18]
  40625b:	48 8b bf 40 02 00 00 	mov    rdi,QWORD PTR [rdi+0x240]
  406262:	48 89 7d d0          	mov    QWORD PTR [rbp-0x30],rdi
  406266:	48 8b 7d e8          	mov    rdi,QWORD PTR [rbp-0x18]
  40626a:	48 8b bf a8 01 00 00 	mov    rdi,QWORD PTR [rdi+0x1a8]
  406271:	48 89 7d c8          	mov    QWORD PTR [rbp-0x38],rdi
  406275:	48 8b 7d e8          	mov    rdi,QWORD PTR [rbp-0x18]
  406279:	48 81 c7 60 02 00 00 	add    rdi,0x260
  406280:	48 89 7d c0          	mov    QWORD PTR [rbp-0x40],rdi
  406284:	48 8b 7d e8          	mov    rdi,QWORD PTR [rbp-0x18]
  406288:	48 8b bf 38 02 00 00 	mov    rdi,QWORD PTR [rdi+0x238]
  40628f:	48 89 bd c8 80 ff ff 	mov    QWORD PTR [rbp-0x7f38],rdi
  406296:	48 8b 3c 25 08 a1 40 	mov    rdi,QWORD PTR ds:0x40a108
  40629d:	00 
  40629e:	48 63 45 e4          	movsxd rax,DWORD PTR [rbp-0x1c]
  4062a2:	48 c7 04 c7 00 00 00 	mov    QWORD PTR [rdi+rax*8],0x0
  4062a9:	00 
  4062aa:	8b 55 e4             	mov    edx,DWORD PTR [rbp-0x1c]
  4062ad:	b8 a0 0f 00 00       	mov    eax,0xfa0
  4062b2:	89 95 b4 80 ff ff    	mov    DWORD PTR [rbp-0x7f4c],edx
  4062b8:	99                   	cdq    
  4062b9:	f7 7d e0             	idiv   DWORD PTR [rbp-0x20]
  4062bc:	83 c0 3c             	add    eax,0x3c
  4062bf:	83 c0 01             	add    eax,0x1
  4062c2:	05 c8 00 00 00       	add    eax,0xc8
  4062c7:	8b b5 b4 80 ff ff    	mov    esi,DWORD PTR [rbp-0x7f4c]
  4062cd:	0f af f0             	imul   esi,eax
  4062d0:	83 c6 01             	add    esi,0x1
  4062d3:	48 63 fe             	movsxd rdi,esi
  4062d6:	48 89 bd b8 80 ff ff 	mov    QWORD PTR [rbp-0x7f48],rdi
  4062dd:	48 c7 85 c0 80 ff ff 	mov    QWORD PTR [rbp-0x7f40],0x1
  4062e4:	01 00 00 00 
  4062e8:	48 8b 85 c0 80 ff ff 	mov    rax,QWORD PTR [rbp-0x7f40]
  4062ef:	b9 a0 0f 00 00       	mov    ecx,0xfa0
  4062f4:	48 89 85 a8 80 ff ff 	mov    QWORD PTR [rbp-0x7f58],rax
  4062fb:	89 c8                	mov    eax,ecx
  4062fd:	99                   	cdq    
  4062fe:	f7 7d e0             	idiv   DWORD PTR [rbp-0x20]
  406301:	83 c0 3c             	add    eax,0x3c
  406304:	83 c0 01             	add    eax,0x1
  406307:	48 63 f0             	movsxd rsi,eax
  40630a:	48 8b bd a8 80 ff ff 	mov    rdi,QWORD PTR [rbp-0x7f58]
  406311:	48 39 f7             	cmp    rdi,rsi
  406314:	0f 8d 4e 00 00 00    	jge    406368 <worker+0x138>
  40631a:	48 8b 04 25 10 a1 40 	mov    rax,QWORD PTR ds:0x40a110
  406321:	00 
  406322:	48 8b 8d b8 80 ff ff 	mov    rcx,QWORD PTR [rbp-0x7f48]
  406329:	48 c1 e1 05          	shl    rcx,0x5
  40632d:	48 01 c8             	add    rax,rcx
  406330:	48 8b 8d c0 80 ff ff 	mov    rcx,QWORD PTR [rbp-0x7f40]
  406337:	48 89 84 cd d0 80 ff 	mov    QWORD PTR [rbp+rcx*8-0x7f30],rax
  40633e:	ff 
  40633f:	48 8b 85 c0 80 ff ff 	mov    rax,QWORD PTR [rbp-0x7f40]
  406346:	48 83 c0 01          	add    rax,0x1
  40634a:	48 89 85 c0 80 ff ff 	mov    QWORD PTR [rbp-0x7f40],rax
  406351:	48 8b 85 b8 80 ff ff 	mov    rax,QWORD PTR [rbp-0x7f48]
  406358:	48 83 c0 01          	add    rax,0x1
  40635c:	48 89 85 b8 80 ff ff 	mov    QWORD PTR [rbp-0x7f48],rax
  406363:	e9 80 ff ff ff       	jmp    4062e8 <worker+0xb8>
  406368:	e9 00 00 00 00       	jmp    40636d <worker+0x13d>
  40636d:	48 83 3c 25 18 a1 40 	cmp    QWORD PTR ds:0x40a118,0x0
  406374:	00 00 
  406376:	0f 95 c0             	setne  al
  406379:	34 ff                	xor    al,0xff
  40637b:	a8 01                	test   al,0x1
  40637d:	0f 85 05 00 00 00    	jne    406388 <worker+0x158>
  406383:	e9 c6 00 00 00       	jmp    40644e <worker+0x21e>
  406388:	4c 8d 85 d0 80 ff ff 	lea    r8,[rbp-0x7f30]
  40638f:	48 8b 7d c8          	mov    rdi,QWORD PTR [rbp-0x38]
  406393:	48 8b 75 d8          	mov    rsi,QWORD PTR [rbp-0x28]
  406397:	48 8b 55 d0          	mov    rdx,QWORD PTR [rbp-0x30]
  40639b:	48 8b 0c 25 08 a1 40 	mov    rcx,QWORD PTR ds:0x40a108
  4063a2:	00 
  4063a3:	44 8b 4d e4          	mov    r9d,DWORD PTR [rbp-0x1c]
  4063a7:	48 8b 45 c0          	mov    rax,QWORD PTR [rbp-0x40]
  4063ab:	48 8b 00             	mov    rax,QWORD PTR [rax]
  4063ae:	4c 63 55 e4          	movsxd r10,DWORD PTR [rbp-0x1c]
  4063b2:	4c 01 d0             	add    rax,r10
  4063b5:	4c 63 55 e0          	movsxd r10,DWORD PTR [rbp-0x20]
  4063b9:	48 89 95 a0 80 ff ff 	mov    QWORD PTR [rbp-0x7f60],rdx
  4063c0:	48 99                	cqo    
  4063c2:	49 f7 fa             	idiv   r10
  4063c5:	4c 63 55 e0          	movsxd r10,DWORD PTR [rbp-0x20]
  4063c9:	4c 8b 5d e8          	mov    r11,QWORD PTR [rbp-0x18]
  4063cd:	4d 8b 9b 80 02 00 00 	mov    r11,QWORD PTR [r11+0x280]
  4063d4:	48 8b 9d a0 80 ff ff 	mov    rbx,QWORD PTR [rbp-0x7f60]
  4063db:	48 89 95 98 80 ff ff 	mov    QWORD PTR [rbp-0x7f68],rdx
  4063e2:	48 89 da             	mov    rdx,rbx
  4063e5:	4c 8d b5 c8 80 ff ff 	lea    r14,[rbp-0x7f38]
  4063ec:	4c 89 34 24          	mov    QWORD PTR [rsp],r14
  4063f0:	4c 8b b5 98 80 ff ff 	mov    r14,QWORD PTR [rbp-0x7f68]
  4063f7:	4c 89 74 24 08       	mov    QWORD PTR [rsp+0x8],r14
  4063fc:	4c 89 54 24 10       	mov    QWORD PTR [rsp+0x10],r10
  406401:	4c 89 5c 24 18       	mov    QWORD PTR [rsp+0x18],r11
  406406:	e8 85 08 00 00       	call   406c90 <primal_bea_mpp>
  40640b:	48 8d 8d d0 80 ff ff 	lea    rcx,[rbp-0x7f30]
  406412:	48 8b 14 25 20 a1 40 	mov    rdx,QWORD PTR ds:0x40a120
  406419:	00 
  40641a:	48 63 75 e4          	movsxd rsi,DWORD PTR [rbp-0x1c]
  40641e:	48 89 04 f2          	mov    QWORD PTR [rdx+rsi*8],rax
  406422:	48 83 c1 08          	add    rcx,0x8
  406426:	48 8b 04 25 00 a1 40 	mov    rax,QWORD PTR ds:0x40a100
  40642d:	00 
  40642e:	48 63 55 e4          	movsxd rdx,DWORD PTR [rbp-0x1c]
  406432:	48 89 0c d0          	mov    QWORD PTR [rax+rdx*8],rcx
  406436:	83 7d e4 01          	cmp    DWORD PTR [rbp-0x1c],0x1
  40643a:	0f 85 09 00 00 00    	jne    406449 <worker+0x219>
  406440:	48 63 7d e0          	movsxd rdi,DWORD PTR [rbp-0x20]
  406444:	e8 a7 fc ff ff       	call   4060f0 <markBaskets>
  406449:	e9 1f ff ff ff       	jmp    40636d <worker+0x13d>
  40644e:	48 81 c4 80 7f 00 00 	add    rsp,0x7f80
  406455:	5b                   	pop    rbx
  406456:	41 5e                	pop    r14
  406458:	5d                   	pop    rbp
  406459:	c3                   	ret    
  40645a:	66 0f 1f 44 00 00    	nop    WORD PTR [rax+rax*1+0x0]

0000000000406460 <master>:
  406460:	55                   	push   rbp
  406461:	48 89 e5             	mov    rbp,rsp
  406464:	41 57                	push   r15
  406466:	41 56                	push   r14
  406468:	41 55                	push   r13
  40646a:	41 54                	push   r12
  40646c:	53                   	push   rbx
  40646d:	48 81 ec f8 7f 00 00 	sub    rsp,0x7ff8
  406474:	48 89 7d d0          	mov    QWORD PTR [rbp-0x30],rdi
  406478:	89 75 cc             	mov    DWORD PTR [rbp-0x34],esi
  40647b:	48 8b 7d d0          	mov    rdi,QWORD PTR [rbp-0x30]
  40647f:	48 8b bf 38 02 00 00 	mov    rdi,QWORD PTR [rdi+0x238]
  406486:	48 89 bd 68 ff ff ff 	mov    QWORD PTR [rbp-0x98],rdi
  40648d:	48 8b 7d d0          	mov    rdi,QWORD PTR [rbp-0x30]
  406491:	48 8b bf 40 02 00 00 	mov    rdi,QWORD PTR [rdi+0x240]
  406498:	48 89 bd 60 ff ff ff 	mov    QWORD PTR [rbp-0xa0],rdi
  40649f:	48 8b 7d d0          	mov    rdi,QWORD PTR [rbp-0x30]
  4064a3:	48 8b bf a8 01 00 00 	mov    rdi,QWORD PTR [rdi+0x1a8]
  4064aa:	48 89 bd 50 ff ff ff 	mov    QWORD PTR [rbp-0xb0],rdi
  4064b1:	48 8b 7d d0          	mov    rdi,QWORD PTR [rbp-0x30]
  4064b5:	48 81 c7 60 02 00 00 	add    rdi,0x260
  4064bc:	48 89 bd 38 ff ff ff 	mov    QWORD PTR [rbp-0xc8],rdi
  4064c3:	48 8b 7d d0          	mov    rdi,QWORD PTR [rbp-0x30]
  4064c7:	48 81 c7 68 02 00 00 	add    rdi,0x268
  4064ce:	48 89 bd 30 ff ff ff 	mov    QWORD PTR [rbp-0xd0],rdi
  4064d5:	48 8b 7d d0          	mov    rdi,QWORD PTR [rbp-0x30]
  4064d9:	48 8b bf 38 02 00 00 	mov    rdi,QWORD PTR [rdi+0x238]
  4064e0:	48 89 bd 38 80 ff ff 	mov    QWORD PTR [rbp-0x7fc8],rdi
  4064e7:	48 8b 3c 25 08 a1 40 	mov    rdi,QWORD PTR ds:0x40a108
  4064ee:	00 
  4064ef:	48 c7 07 00 00 00 00 	mov    QWORD PTR [rdi],0x0
  4064f6:	48 c7 85 28 80 ff ff 	mov    QWORD PTR [rbp-0x7fd8],0x1
  4064fd:	01 00 00 00 
  406501:	48 c7 85 30 80 ff ff 	mov    QWORD PTR [rbp-0x7fd0],0x1
  406508:	01 00 00 00 
  40650c:	48 8b 85 30 80 ff ff 	mov    rax,QWORD PTR [rbp-0x7fd0]
  406513:	b9 a0 0f 00 00       	mov    ecx,0xfa0
  406518:	48 89 85 20 80 ff ff 	mov    QWORD PTR [rbp-0x7fe0],rax
  40651f:	89 c8                	mov    eax,ecx
  406521:	99                   	cdq    
  406522:	f7 7d cc             	idiv   DWORD PTR [rbp-0x34]
  406525:	83 c0 3c             	add    eax,0x3c
  406528:	83 c0 01             	add    eax,0x1
  40652b:	48 63 f0             	movsxd rsi,eax
  40652e:	48 8b bd 20 80 ff ff 	mov    rdi,QWORD PTR [rbp-0x7fe0]
  406535:	48 39 f7             	cmp    rdi,rsi
  406538:	0f 8d 4e 00 00 00    	jge    40658c <master+0x12c>
  40653e:	48 8b 04 25 10 a1 40 	mov    rax,QWORD PTR ds:0x40a110
  406545:	00 
  406546:	48 8b 8d 28 80 ff ff 	mov    rcx,QWORD PTR [rbp-0x7fd8]
  40654d:	48 c1 e1 05          	shl    rcx,0x5
  406551:	48 01 c8             	add    rax,rcx
  406554:	48 8b 8d 30 80 ff ff 	mov    rcx,QWORD PTR [rbp-0x7fd0]
  40655b:	48 89 84 cd 40 80 ff 	mov    QWORD PTR [rbp+rcx*8-0x7fc0],rax
  406562:	ff 
  406563:	48 8b 85 30 80 ff ff 	mov    rax,QWORD PTR [rbp-0x7fd0]
  40656a:	48 83 c0 01          	add    rax,0x1
  40656e:	48 89 85 30 80 ff ff 	mov    QWORD PTR [rbp-0x7fd0],rax
  406575:	48 8b 85 28 80 ff ff 	mov    rax,QWORD PTR [rbp-0x7fd8]
  40657c:	48 83 c0 01          	add    rax,0x1
  406580:	48 89 85 28 80 ff ff 	mov    QWORD PTR [rbp-0x7fd8],rax
  406587:	e9 80 ff ff ff       	jmp    40650c <master+0xac>
  40658c:	e9 00 00 00 00       	jmp    406591 <master+0x131>
  406591:	48 83 3c 25 18 a1 40 	cmp    QWORD PTR ds:0x40a118,0x0
  406598:	00 00 
  40659a:	0f 95 c0             	setne  al
  40659d:	34 ff                	xor    al,0xff
  40659f:	a8 01                	test   al,0x1
  4065a1:	0f 85 05 00 00 00    	jne    4065ac <master+0x14c>
  4065a7:	e9 44 04 00 00       	jmp    4069f0 <master+0x590>
  4065ac:	45 31 c9             	xor    r9d,r9d
  4065af:	4c 8d 85 40 80 ff ff 	lea    r8,[rbp-0x7fc0]
  4065b6:	48 8b bd 50 ff ff ff 	mov    rdi,QWORD PTR [rbp-0xb0]
  4065bd:	48 8b b5 68 ff ff ff 	mov    rsi,QWORD PTR [rbp-0x98]
  4065c4:	48 8b 95 60 ff ff ff 	mov    rdx,QWORD PTR [rbp-0xa0]
  4065cb:	48 8b 0c 25 08 a1 40 	mov    rcx,QWORD PTR ds:0x40a108
  4065d2:	00 
  4065d3:	48 8b 85 38 ff ff ff 	mov    rax,QWORD PTR [rbp-0xc8]
  4065da:	48 8b 00             	mov    rax,QWORD PTR [rax]
  4065dd:	4c 63 55 cc          	movsxd r10,DWORD PTR [rbp-0x34]
  4065e1:	48 89 95 18 80 ff ff 	mov    QWORD PTR [rbp-0x7fe8],rdx
  4065e8:	48 99                	cqo    
  4065ea:	49 f7 fa             	idiv   r10
  4065ed:	4c 63 55 cc          	movsxd r10,DWORD PTR [rbp-0x34]
  4065f1:	4c 8b 5d d0          	mov    r11,QWORD PTR [rbp-0x30]
  4065f5:	4d 8b 9b 80 02 00 00 	mov    r11,QWORD PTR [r11+0x280]
  4065fc:	48 8b 9d 18 80 ff ff 	mov    rbx,QWORD PTR [rbp-0x7fe8]
  406603:	48 89 95 10 80 ff ff 	mov    QWORD PTR [rbp-0x7ff0],rdx
  40660a:	48 89 da             	mov    rdx,rbx
  40660d:	4c 8d b5 38 80 ff ff 	lea    r14,[rbp-0x7fc8]
  406614:	4c 89 34 24          	mov    QWORD PTR [rsp],r14
  406618:	4c 8b b5 10 80 ff ff 	mov    r14,QWORD PTR [rbp-0x7ff0]
  40661f:	4c 89 74 24 08       	mov    QWORD PTR [rsp+0x8],r14
  406624:	4c 89 54 24 10       	mov    QWORD PTR [rsp+0x10],r10
  406629:	4c 89 5c 24 18       	mov    QWORD PTR [rsp+0x18],r11
  40662e:	e8 5d 06 00 00       	call   406c90 <primal_bea_mpp>
  406633:	48 8d 8d 40 80 ff ff 	lea    rcx,[rbp-0x7fc0]
  40663a:	48 8b 14 25 20 a1 40 	mov    rdx,QWORD PTR ds:0x40a120
  406641:	00 
  406642:	48 89 02             	mov    QWORD PTR [rdx],rax
  406645:	48 83 c1 08          	add    rcx,0x8
  406649:	48 8b 04 25 00 a1 40 	mov    rax,QWORD PTR ds:0x40a100
  406650:	00 
  406651:	48 89 08             	mov    QWORD PTR [rax],rcx
  406654:	48 c7 85 28 ff ff ff 	mov    QWORD PTR [rbp-0xd8],0x0
  40665b:	00 00 00 00 
  40665f:	48 c7 85 30 80 ff ff 	mov    QWORD PTR [rbp-0x7fd0],0x0
  406666:	00 00 00 00 
  40666a:	48 8b 85 30 80 ff ff 	mov    rax,QWORD PTR [rbp-0x7fd0]
  406671:	48 63 4d cc          	movsxd rcx,DWORD PTR [rbp-0x34]
  406675:	48 39 c8             	cmp    rax,rcx
  406678:	0f 8d a6 00 00 00    	jge    406724 <master+0x2c4>
  40667e:	48 83 bd 28 ff ff ff 	cmp    QWORD PTR [rbp-0xd8],0x0
  406685:	00 
  406686:	0f 85 1a 00 00 00    	jne    4066a6 <master+0x246>
  40668c:	48 8b 04 25 20 a1 40 	mov    rax,QWORD PTR ds:0x40a120
  406693:	00 
  406694:	48 8b 8d 30 80 ff ff 	mov    rcx,QWORD PTR [rbp-0x7fd0]
  40669b:	48 83 3c c8 00       	cmp    QWORD PTR [rax+rcx*8],0x0
  4066a0:	0f 85 48 00 00 00    	jne    4066ee <master+0x28e>
  4066a6:	48 8b 04 25 20 a1 40 	mov    rax,QWORD PTR ds:0x40a120
  4066ad:	00 
  4066ae:	48 8b 8d 30 80 ff ff 	mov    rcx,QWORD PTR [rbp-0x7fd0]
  4066b5:	48 83 3c c8 00       	cmp    QWORD PTR [rax+rcx*8],0x0
  4066ba:	0f 84 48 00 00 00    	je     406708 <master+0x2a8>
  4066c0:	48 8b 04 25 20 a1 40 	mov    rax,QWORD PTR ds:0x40a120
  4066c7:	00 
  4066c8:	48 8b 8d 30 80 ff ff 	mov    rcx,QWORD PTR [rbp-0x7fd0]
  4066cf:	48 c1 e1 03          	shl    rcx,0x3
  4066d3:	48 01 c8             	add    rax,rcx
  4066d6:	48 89 c7             	mov    rdi,rax
  4066d9:	48 8d b5 28 ff ff ff 	lea    rsi,[rbp-0xd8]
  4066e0:	e8 0b 05 00 00       	call   406bf0 <cost_compare>
  4066e5:	83 f8 00             	cmp    eax,0x0
  4066e8:	0f 8d 1a 00 00 00    	jge    406708 <master+0x2a8>
  4066ee:	48 8b 04 25 20 a1 40 	mov    rax,QWORD PTR ds:0x40a120
  4066f5:	00 
  4066f6:	48 8b 8d 30 80 ff ff 	mov    rcx,QWORD PTR [rbp-0x7fd0]
  4066fd:	48 8b 04 c8          	mov    rax,QWORD PTR [rax+rcx*8]
  406701:	48 89 85 28 ff ff ff 	mov    QWORD PTR [rbp-0xd8],rax
  406708:	e9 00 00 00 00       	jmp    40670d <master+0x2ad>
  40670d:	48 8b 85 30 80 ff ff 	mov    rax,QWORD PTR [rbp-0x7fd0]
  406714:	48 83 c0 01          	add    rax,0x1
  406718:	48 89 85 30 80 ff ff 	mov    QWORD PTR [rbp-0x7fd0],rax
  40671f:	e9 46 ff ff ff       	jmp    40666a <master+0x20a>
  406724:	48 83 bd 28 ff ff ff 	cmp    QWORD PTR [rbp-0xd8],0x0
  40672b:	00 
  40672c:	0f 85 10 00 00 00    	jne    406742 <master+0x2e2>
  406732:	48 c7 85 40 ff ff ff 	mov    QWORD PTR [rbp-0xc0],0x0
  406739:	00 00 00 00 
  40673d:	e9 3b 00 00 00       	jmp    40677d <master+0x31d>
  406742:	48 8b 85 28 ff ff ff 	mov    rax,QWORD PTR [rbp-0xd8]
  406749:	48 8b 40 08          	mov    rax,QWORD PTR [rax+0x8]
  40674d:	48 89 85 40 ff ff ff 	mov    QWORD PTR [rbp-0xc0],rax
  406754:	48 8b 85 28 ff ff ff 	mov    rax,QWORD PTR [rbp-0xd8]
  40675b:	48 8b 00             	mov    rax,QWORD PTR [rax]
  40675e:	48 89 85 78 ff ff ff 	mov    QWORD PTR [rbp-0x88],rax
  406765:	83 7d cc 01          	cmp    DWORD PTR [rbp-0x34],0x1
  406769:	0f 85 09 00 00 00    	jne    406778 <master+0x318>
  40676f:	48 63 7d cc          	movsxd rdi,DWORD PTR [rbp-0x34]
  406773:	e8 78 f9 ff ff       	call   4060f0 <markBaskets>
  406778:	e9 00 00 00 00       	jmp    40677d <master+0x31d>
  40677d:	48 83 bd 40 ff ff ff 	cmp    QWORD PTR [rbp-0xc0],0x0
  406784:	00 
  406785:	0f 84 54 02 00 00    	je     4069df <master+0x57f>
  40678b:	48 8b 85 38 ff ff ff 	mov    rax,QWORD PTR [rbp-0xc8]
  406792:	48 8b 08             	mov    rcx,QWORD PTR [rax]
  406795:	48 83 c1 01          	add    rcx,0x1
  406799:	48 89 08             	mov    QWORD PTR [rax],rcx
  40679c:	48 83 bd 40 ff ff ff 	cmp    QWORD PTR [rbp-0xc0],0x0
  4067a3:	00 
  4067a4:	0f 8e 23 00 00 00    	jle    4067cd <master+0x36d>
  4067aa:	48 8b 85 78 ff ff ff 	mov    rax,QWORD PTR [rbp-0x88]
  4067b1:	48 8b 40 18          	mov    rax,QWORD PTR [rax+0x18]
  4067b5:	48 89 45 a0          	mov    QWORD PTR [rbp-0x60],rax
  4067b9:	48 8b 85 78 ff ff ff 	mov    rax,QWORD PTR [rbp-0x88]
  4067c0:	48 8b 40 10          	mov    rax,QWORD PTR [rax+0x10]
  4067c4:	48 89 45 98          	mov    QWORD PTR [rbp-0x68],rax
  4067c8:	e9 1e 00 00 00       	jmp    4067eb <master+0x38b>
  4067cd:	48 8b 85 78 ff ff ff 	mov    rax,QWORD PTR [rbp-0x88]
  4067d4:	48 8b 40 10          	mov    rax,QWORD PTR [rax+0x10]
  4067d8:	48 89 45 a0          	mov    QWORD PTR [rbp-0x60],rax
  4067dc:	48 8b 85 78 ff ff ff 	mov    rax,QWORD PTR [rbp-0x88]
  4067e3:	48 8b 40 18          	mov    rax,QWORD PTR [rax+0x18]
  4067e7:	48 89 45 98          	mov    QWORD PTR [rbp-0x68],rax
  4067eb:	48 c7 45 c0 01 00 00 	mov    QWORD PTR [rbp-0x40],0x1
  4067f2:	00 
  4067f3:	48 8b 55 a0          	mov    rdx,QWORD PTR [rbp-0x60]
  4067f7:	48 8b 4d 98          	mov    rcx,QWORD PTR [rbp-0x68]
  4067fb:	48 8d 7d c0          	lea    rdi,[rbp-0x40]
  4067ff:	48 8d 75 b0          	lea    rsi,[rbp-0x50]
  406803:	4c 8d 45 80          	lea    r8,[rbp-0x80]
  406807:	e8 44 f6 ff ff       	call   405e50 <primal_iminus>
  40680c:	48 89 45 90          	mov    QWORD PTR [rbp-0x70],rax
  406810:	48 83 7d 90 00       	cmp    QWORD PTR [rbp-0x70],0x0
  406815:	0f 85 65 00 00 00    	jne    406880 <master+0x420>
  40681b:	48 8b 85 30 ff ff ff 	mov    rax,QWORD PTR [rbp-0xd0]
  406822:	48 8b 08             	mov    rcx,QWORD PTR [rax]
  406825:	48 83 c1 01          	add    rcx,0x1
  406829:	48 89 08             	mov    QWORD PTR [rax],rcx
  40682c:	48 8b 85 78 ff ff ff 	mov    rax,QWORD PTR [rbp-0x88]
  406833:	0f bf 50 20          	movsx  edx,WORD PTR [rax+0x20]
  406837:	83 fa 02             	cmp    edx,0x2
  40683a:	0f 85 12 00 00 00    	jne    406852 <master+0x3f2>
  406840:	48 8b 85 78 ff ff ff 	mov    rax,QWORD PTR [rbp-0x88]
  406847:	66 c7 40 20 01 00    	mov    WORD PTR [rax+0x20],0x1
  40684d:	e9 0d 00 00 00       	jmp    40685f <master+0x3ff>
  406852:	48 8b 85 78 ff ff ff 	mov    rax,QWORD PTR [rbp-0x88]
  406859:	66 c7 40 20 02 00    	mov    WORD PTR [rax+0x20],0x2
  40685f:	48 83 7d c0 00       	cmp    QWORD PTR [rbp-0x40],0x0
  406864:	0f 84 11 00 00 00    	je     40687b <master+0x41b>
  40686a:	48 8b 7d a0          	mov    rdi,QWORD PTR [rbp-0x60]
  40686e:	48 8b 75 98          	mov    rsi,QWORD PTR [rbp-0x68]
  406872:	48 8b 55 80          	mov    rdx,QWORD PTR [rbp-0x80]
  406876:	e8 b5 f7 ff ff       	call   406030 <primal_update_flow>
  40687b:	e9 5a 01 00 00       	jmp    4069da <master+0x57a>
  406880:	48 83 7d b0 00       	cmp    QWORD PTR [rbp-0x50],0x0
  406885:	0f 84 1e 00 00 00    	je     4068a9 <master+0x449>
  40688b:	48 8b 45 98          	mov    rax,QWORD PTR [rbp-0x68]
  40688f:	48 89 85 58 ff ff ff 	mov    QWORD PTR [rbp-0xa8],rax
  406896:	48 8b 45 a0          	mov    rax,QWORD PTR [rbp-0x60]
  40689a:	48 89 45 98          	mov    QWORD PTR [rbp-0x68],rax
  40689e:	48 8b 85 58 ff ff ff 	mov    rax,QWORD PTR [rbp-0xa8]
  4068a5:	48 89 45 a0          	mov    QWORD PTR [rbp-0x60],rax
  4068a9:	48 8b 45 90          	mov    rax,QWORD PTR [rbp-0x70]
  4068ad:	48 8b 40 18          	mov    rax,QWORD PTR [rax+0x18]
  4068b1:	48 89 45 88          	mov    QWORD PTR [rbp-0x78],rax
  4068b5:	48 8b 45 90          	mov    rax,QWORD PTR [rbp-0x70]
  4068b9:	48 8b 40 30          	mov    rax,QWORD PTR [rax+0x30]
  4068bd:	48 89 85 70 ff ff ff 	mov    QWORD PTR [rbp-0x90],rax
  4068c4:	48 8b 45 b0          	mov    rax,QWORD PTR [rbp-0x50]
  4068c8:	48 8b 4d 90          	mov    rcx,QWORD PTR [rbp-0x70]
  4068cc:	48 63 49 08          	movsxd rcx,DWORD PTR [rcx+0x8]
  4068d0:	48 39 c8             	cmp    rax,rcx
  4068d3:	0f 84 10 00 00 00    	je     4068e9 <master+0x489>
  4068d9:	48 c7 85 48 ff ff ff 	mov    QWORD PTR [rbp-0xb8],0x1
  4068e0:	01 00 00 00 
  4068e4:	e9 0b 00 00 00       	jmp    4068f4 <master+0x494>
  4068e9:	48 c7 85 48 ff ff ff 	mov    QWORD PTR [rbp-0xb8],0x2
  4068f0:	02 00 00 00 
  4068f4:	48 83 bd 40 ff ff ff 	cmp    QWORD PTR [rbp-0xc0],0x0
  4068fb:	00 
  4068fc:	0f 8e 14 00 00 00    	jle    406916 <master+0x4b6>
  406902:	b8 01 00 00 00       	mov    eax,0x1
  406907:	89 c1                	mov    ecx,eax
  406909:	48 2b 4d c0          	sub    rcx,QWORD PTR [rbp-0x40]
  40690d:	48 89 4d b8          	mov    QWORD PTR [rbp-0x48],rcx
  406911:	e9 08 00 00 00       	jmp    40691e <master+0x4be>
  406916:	48 8b 45 c0          	mov    rax,QWORD PTR [rbp-0x40]
  40691a:	48 89 45 b8          	mov    QWORD PTR [rbp-0x48],rax
  40691e:	48 8b 85 78 ff ff ff 	mov    rax,QWORD PTR [rbp-0x88]
  406925:	48 8b 40 10          	mov    rax,QWORD PTR [rax+0x10]
  406929:	48 3b 45 a0          	cmp    rax,QWORD PTR [rbp-0x60]
  40692d:	0f 85 0d 00 00 00    	jne    406940 <master+0x4e0>
  406933:	48 c7 45 a8 01 00 00 	mov    QWORD PTR [rbp-0x58],0x1
  40693a:	00 
  40693b:	e9 08 00 00 00       	jmp    406948 <master+0x4e8>
  406940:	48 c7 45 a8 00 00 00 	mov    QWORD PTR [rbp-0x58],0x0
  406947:	00 
  406948:	48 83 7d b0 00       	cmp    QWORD PTR [rbp-0x50],0x0
  40694d:	0f 95 c0             	setne  al
  406950:	34 ff                	xor    al,0xff
  406952:	24 01                	and    al,0x1
  406954:	0f b6 c8             	movzx  ecx,al
  406957:	48 63 f9             	movsxd rdi,ecx
  40695a:	48 8b 75 a8          	mov    rsi,QWORD PTR [rbp-0x58]
  40695e:	48 8b 55 c0          	mov    rdx,QWORD PTR [rbp-0x40]
  406962:	48 8b 4d b8          	mov    rcx,QWORD PTR [rbp-0x48]
  406966:	4c 8b 45 a0          	mov    r8,QWORD PTR [rbp-0x60]
  40696a:	4c 8b 4d 98          	mov    r9,QWORD PTR [rbp-0x68]
  40696e:	4c 8b 55 90          	mov    r10,QWORD PTR [rbp-0x70]
  406972:	4c 8b 5d 88          	mov    r11,QWORD PTR [rbp-0x78]
  406976:	48 8b 5d 80          	mov    rbx,QWORD PTR [rbp-0x80]
  40697a:	4c 8b b5 78 ff ff ff 	mov    r14,QWORD PTR [rbp-0x88]
  406981:	4c 8b bd 40 ff ff ff 	mov    r15,QWORD PTR [rbp-0xc0]
  406988:	4c 8b 65 d0          	mov    r12,QWORD PTR [rbp-0x30]
  40698c:	4d 8b a4 24 00 02 00 	mov    r12,QWORD PTR [r12+0x200]
  406993:	00 
  406994:	4c 89 14 24          	mov    QWORD PTR [rsp],r10
  406998:	4c 89 5c 24 08       	mov    QWORD PTR [rsp+0x8],r11
  40699d:	48 89 5c 24 10       	mov    QWORD PTR [rsp+0x10],rbx
  4069a2:	4c 89 74 24 18       	mov    QWORD PTR [rsp+0x18],r14
  4069a7:	4c 89 7c 24 20       	mov    QWORD PTR [rsp+0x20],r15
  4069ac:	4c 89 64 24 28       	mov    QWORD PTR [rsp+0x28],r12
  4069b1:	e8 7a ef ff ff       	call   405930 <update_tree>
  4069b6:	48 8b 8d 78 ff ff ff 	mov    rcx,QWORD PTR [rbp-0x88]
  4069bd:	66 c7 41 20 00 00    	mov    WORD PTR [rcx+0x20],0x0
  4069c3:	48 8b 8d 48 ff ff ff 	mov    rcx,QWORD PTR [rbp-0xb8]
  4069ca:	66 41 89 cd          	mov    r13w,cx
  4069ce:	48 8b 8d 70 ff ff ff 	mov    rcx,QWORD PTR [rbp-0x90]
  4069d5:	66 44 89 69 20       	mov    WORD PTR [rcx+0x20],r13w
  4069da:	e9 0c 00 00 00       	jmp    4069eb <master+0x58b>
  4069df:	48 c7 04 25 18 a1 40 	mov    QWORD PTR ds:0x40a118,0x1
  4069e6:	00 01 00 00 00 
  4069eb:	e9 a1 fb ff ff       	jmp    406591 <master+0x131>
  4069f0:	48 81 c4 f8 7f 00 00 	add    rsp,0x7ff8
  4069f7:	5b                   	pop    rbx
  4069f8:	41 5c                	pop    r12
  4069fa:	41 5d                	pop    r13
  4069fc:	41 5e                	pop    r14
  4069fe:	41 5f                	pop    r15
  406a00:	5d                   	pop    rbp
  406a01:	c3                   	ret    
  406a02:	66 2e 0f 1f 84 00 00 	cs nop WORD PTR [rax+rax*1+0x0]
  406a09:	00 00 00 
  406a0c:	0f 1f 40 00          	nop    DWORD PTR [rax+0x0]

0000000000406a10 <primal_net_simplex>:
  406a10:	55                   	push   rbp
  406a11:	48 89 e5             	mov    rbp,rsp
  406a14:	48 83 ec 20          	sub    rsp,0x20
  406a18:	b8 08 00 00 00       	mov    eax,0x8
  406a1d:	89 c6                	mov    esi,eax
  406a1f:	48 89 7d f8          	mov    QWORD PTR [rbp-0x8],rdi
  406a23:	c7 45 f0 01 00 00 00 	mov    DWORD PTR [rbp-0x10],0x1
  406a2a:	48 63 7d f0          	movsxd rdi,DWORD PTR [rbp-0x10]
  406a2e:	e8 5d a6 ff ff       	call   401090 <calloc@plt>
  406a33:	b9 08 00 00 00       	mov    ecx,0x8
  406a38:	89 ce                	mov    esi,ecx
  406a3a:	48 89 04 25 00 a1 40 	mov    QWORD PTR ds:0x40a100,rax
  406a41:	00 
  406a42:	48 63 7d f0          	movsxd rdi,DWORD PTR [rbp-0x10]
  406a46:	e8 45 a6 ff ff       	call   401090 <calloc@plt>
  406a4b:	b9 08 00 00 00       	mov    ecx,0x8
  406a50:	89 ce                	mov    esi,ecx
  406a52:	48 89 04 25 20 a1 40 	mov    QWORD PTR ds:0x40a120,rax
  406a59:	00 
  406a5a:	48 63 7d f0          	movsxd rdi,DWORD PTR [rbp-0x10]
  406a5e:	e8 2d a6 ff ff       	call   401090 <calloc@plt>
  406a63:	b9 20 00 00 00       	mov    ecx,0x20
  406a68:	89 ce                	mov    esi,ecx
  406a6a:	48 89 04 25 08 a1 40 	mov    QWORD PTR ds:0x40a108,rax
  406a71:	00 
  406a72:	8b 4d f0             	mov    ecx,DWORD PTR [rbp-0x10]
  406a75:	b8 a0 0f 00 00       	mov    eax,0xfa0
  406a7a:	99                   	cdq    
  406a7b:	f7 7d f0             	idiv   DWORD PTR [rbp-0x10]
  406a7e:	83 c0 3c             	add    eax,0x3c
  406a81:	05 c8 00 00 00       	add    eax,0xc8
  406a86:	83 c0 01             	add    eax,0x1
  406a89:	0f af c8             	imul   ecx,eax
  406a8c:	48 63 f9             	movsxd rdi,ecx
  406a8f:	e8 fc a5 ff ff       	call   401090 <calloc@plt>
  406a94:	48 89 04 25 10 a1 40 	mov    QWORD PTR ds:0x40a110,rax
  406a9b:	00 
  406a9c:	48 8b 7d f8          	mov    rdi,QWORD PTR [rbp-0x8]
  406aa0:	48 8b 45 f8          	mov    rax,QWORD PTR [rbp-0x8]
  406aa4:	48 8b b0 38 02 00 00 	mov    rsi,QWORD PTR [rax+0x238]
  406aab:	e8 a0 00 00 00       	call   406b50 <set_static_vars>
  406ab0:	c7 45 f4 00 00 00 00 	mov    DWORD PTR [rbp-0xc],0x0
  406ab7:	83 7d f4 00          	cmp    DWORD PTR [rbp-0xc],0x0
  406abb:	0f 85 11 00 00 00    	jne    406ad2 <primal_net_simplex+0xc2>
  406ac1:	48 8b 7d f8          	mov    rdi,QWORD PTR [rbp-0x8]
  406ac5:	8b 75 f0             	mov    esi,DWORD PTR [rbp-0x10]
  406ac8:	e8 93 f9 ff ff       	call   406460 <master>
  406acd:	e9 0f 00 00 00       	jmp    406ae1 <primal_net_simplex+0xd1>
  406ad2:	48 8b 7d f8          	mov    rdi,QWORD PTR [rbp-0x8]
  406ad6:	8b 75 f4             	mov    esi,DWORD PTR [rbp-0xc]
  406ad9:	8b 55 f0             	mov    edx,DWORD PTR [rbp-0x10]
  406adc:	e8 4f f7 ff ff       	call   406230 <worker>
  406ae1:	48 8b 7d f8          	mov    rdi,QWORD PTR [rbp-0x8]
  406ae5:	e8 86 b2 ff ff       	call   401d70 <primal_feasible>
  406aea:	48 8b 7d f8          	mov    rdi,QWORD PTR [rbp-0x8]
  406aee:	48 89 45 e8          	mov    QWORD PTR [rbp-0x18],rax
  406af2:	e8 49 b4 ff ff       	call   401f40 <dual_feasible>
  406af7:	48 c7 04 25 18 a1 40 	mov    QWORD PTR ds:0x40a118,0x0
  406afe:	00 00 00 00 00 
  406b03:	48 8b 3c 25 00 a1 40 	mov    rdi,QWORD PTR ds:0x40a100
  406b0a:	00 
  406b0b:	48 89 45 e0          	mov    QWORD PTR [rbp-0x20],rax
  406b0f:	e8 1c a5 ff ff       	call   401030 <free@plt>
  406b14:	48 8b 04 25 20 a1 40 	mov    rax,QWORD PTR ds:0x40a120
  406b1b:	00 
  406b1c:	48 89 c7             	mov    rdi,rax
  406b1f:	e8 0c a5 ff ff       	call   401030 <free@plt>
  406b24:	48 8b 04 25 08 a1 40 	mov    rax,QWORD PTR ds:0x40a108
  406b2b:	00 
  406b2c:	48 89 c7             	mov    rdi,rax
  406b2f:	e8 fc a4 ff ff       	call   401030 <free@plt>
  406b34:	48 8b 04 25 10 a1 40 	mov    rax,QWORD PTR ds:0x40a110
  406b3b:	00 
  406b3c:	48 89 c7             	mov    rdi,rax
  406b3f:	e8 ec a4 ff ff       	call   401030 <free@plt>
  406b44:	31 c9                	xor    ecx,ecx
  406b46:	89 c8                	mov    eax,ecx
  406b48:	48 83 c4 20          	add    rsp,0x20
  406b4c:	5d                   	pop    rbp
  406b4d:	c3                   	ret    
  406b4e:	66 90                	xchg   ax,ax

0000000000406b50 <set_static_vars>:
  406b50:	55                   	push   rbp
  406b51:	48 89 e5             	mov    rbp,rsp
  406b54:	48 89 7d f8          	mov    QWORD PTR [rbp-0x8],rdi
  406b58:	48 89 75 f0          	mov    QWORD PTR [rbp-0x10],rsi
  406b5c:	48 8b 75 f0          	mov    rsi,QWORD PTR [rbp-0x10]
  406b60:	48 8b 7d f8          	mov    rdi,QWORD PTR [rbp-0x8]
  406b64:	48 8b bf 78 02 00 00 	mov    rdi,QWORD PTR [rdi+0x278]
  406b6b:	48 8b 45 f8          	mov    rax,QWORD PTR [rbp-0x8]
  406b6f:	48 0f af b8 80 02 00 	imul   rdi,QWORD PTR [rax+0x280]
  406b76:	00 
  406b77:	48 6b c7 48          	imul   rax,rdi,0x48
  406b7b:	48 01 c6             	add    rsi,rax
  406b7e:	48 89 34 25 28 a1 40 	mov    QWORD PTR ds:0x40a128,rsi
  406b85:	00 
  406b86:	5d                   	pop    rbp
  406b87:	c3                   	ret    
  406b88:	0f 1f 84 00 00 00 00 	nop    DWORD PTR [rax+rax*1+0x0]
  406b8f:	00 

0000000000406b90 <bea_is_dual_infeasible>:
  406b90:	55                   	push   rbp
  406b91:	48 89 e5             	mov    rbp,rsp
  406b94:	48 89 7d f8          	mov    QWORD PTR [rbp-0x8],rdi
  406b98:	48 89 75 f0          	mov    QWORD PTR [rbp-0x10],rsi
  406b9c:	48 83 7d f0 00       	cmp    QWORD PTR [rbp-0x10],0x0
  406ba1:	0f 8d 16 00 00 00    	jge    406bbd <bea_is_dual_infeasible+0x2d>
  406ba7:	48 8b 45 f8          	mov    rax,QWORD PTR [rbp-0x8]
  406bab:	0f bf 48 20          	movsx  ecx,WORD PTR [rax+0x20]
  406baf:	83 f9 01             	cmp    ecx,0x1
  406bb2:	b2 01                	mov    dl,0x1
  406bb4:	88 55 ef             	mov    BYTE PTR [rbp-0x11],dl
  406bb7:	0f 84 29 00 00 00    	je     406be6 <bea_is_dual_infeasible+0x56>
  406bbd:	31 c0                	xor    eax,eax
  406bbf:	88 c1                	mov    cl,al
  406bc1:	48 83 7d f0 00       	cmp    QWORD PTR [rbp-0x10],0x0
  406bc6:	88 4d ee             	mov    BYTE PTR [rbp-0x12],cl
  406bc9:	0f 8e 11 00 00 00    	jle    406be0 <bea_is_dual_infeasible+0x50>
  406bcf:	48 8b 45 f8          	mov    rax,QWORD PTR [rbp-0x8]
  406bd3:	0f bf 48 20          	movsx  ecx,WORD PTR [rax+0x20]
  406bd7:	83 f9 02             	cmp    ecx,0x2
  406bda:	0f 94 c2             	sete   dl
  406bdd:	88 55 ee             	mov    BYTE PTR [rbp-0x12],dl
  406be0:	8a 45 ee             	mov    al,BYTE PTR [rbp-0x12]
  406be3:	88 45 ef             	mov    BYTE PTR [rbp-0x11],al
  406be6:	8a 45 ef             	mov    al,BYTE PTR [rbp-0x11]
  406be9:	24 01                	and    al,0x1
  406beb:	0f b6 c0             	movzx  eax,al
  406bee:	5d                   	pop    rbp
  406bef:	c3                   	ret    

0000000000406bf0 <cost_compare>:
  406bf0:	55                   	push   rbp
  406bf1:	48 89 e5             	mov    rbp,rsp
  406bf4:	48 89 7d f0          	mov    QWORD PTR [rbp-0x10],rdi
  406bf8:	48 89 75 e8          	mov    QWORD PTR [rbp-0x18],rsi
  406bfc:	48 8b 75 f0          	mov    rsi,QWORD PTR [rbp-0x10]
  406c00:	48 8b 36             	mov    rsi,QWORD PTR [rsi]
  406c03:	48 8b 76 10          	mov    rsi,QWORD PTR [rsi+0x10]
  406c07:	48 8b 7d e8          	mov    rdi,QWORD PTR [rbp-0x18]
  406c0b:	48 8b 3f             	mov    rdi,QWORD PTR [rdi]
  406c0e:	48 3b 77 10          	cmp    rsi,QWORD PTR [rdi+0x10]
  406c12:	0f 8d 0c 00 00 00    	jge    406c24 <cost_compare+0x34>
  406c18:	c7 45 fc 01 00 00 00 	mov    DWORD PTR [rbp-0x4],0x1
  406c1f:	e9 59 00 00 00       	jmp    406c7d <cost_compare+0x8d>
  406c24:	48 8b 45 f0          	mov    rax,QWORD PTR [rbp-0x10]
  406c28:	48 8b 00             	mov    rax,QWORD PTR [rax]
  406c2b:	48 8b 40 10          	mov    rax,QWORD PTR [rax+0x10]
  406c2f:	48 8b 4d e8          	mov    rcx,QWORD PTR [rbp-0x18]
  406c33:	48 8b 09             	mov    rcx,QWORD PTR [rcx]
  406c36:	48 3b 41 10          	cmp    rax,QWORD PTR [rcx+0x10]
  406c3a:	0f 8e 0c 00 00 00    	jle    406c4c <cost_compare+0x5c>
  406c40:	c7 45 fc ff ff ff ff 	mov    DWORD PTR [rbp-0x4],0xffffffff
  406c47:	e9 31 00 00 00       	jmp    406c7d <cost_compare+0x8d>
  406c4c:	48 8b 45 f0          	mov    rax,QWORD PTR [rbp-0x10]
  406c50:	48 8b 00             	mov    rax,QWORD PTR [rax]
  406c53:	48 8b 00             	mov    rax,QWORD PTR [rax]
  406c56:	8b 08                	mov    ecx,DWORD PTR [rax]
  406c58:	48 8b 45 e8          	mov    rax,QWORD PTR [rbp-0x18]
  406c5c:	48 8b 00             	mov    rax,QWORD PTR [rax]
  406c5f:	48 8b 00             	mov    rax,QWORD PTR [rax]
  406c62:	3b 08                	cmp    ecx,DWORD PTR [rax]
  406c64:	0f 8e 0c 00 00 00    	jle    406c76 <cost_compare+0x86>
  406c6a:	c7 45 fc 01 00 00 00 	mov    DWORD PTR [rbp-0x4],0x1
  406c71:	e9 07 00 00 00       	jmp    406c7d <cost_compare+0x8d>
  406c76:	c7 45 fc ff ff ff ff 	mov    DWORD PTR [rbp-0x4],0xffffffff
  406c7d:	8b 45 fc             	mov    eax,DWORD PTR [rbp-0x4]
  406c80:	5d                   	pop    rbp
  406c81:	c3                   	ret    
  406c82:	66 2e 0f 1f 84 00 00 	cs nop WORD PTR [rax+rax*1+0x0]
  406c89:	00 00 00 
  406c8c:	0f 1f 40 00          	nop    DWORD PTR [rax+0x0]

0000000000406c90 <primal_bea_mpp>:
  406c90:	55                   	push   rbp
  406c91:	48 89 e5             	mov    rbp,rsp
  406c94:	53                   	push   rbx
  406c95:	48 81 ec b8 00 00 00 	sub    rsp,0xb8
  406c9c:	48 8b 45 28          	mov    rax,QWORD PTR [rbp+0x28]
  406ca0:	4c 8b 55 20          	mov    r10,QWORD PTR [rbp+0x20]
  406ca4:	4c 8b 5d 18          	mov    r11,QWORD PTR [rbp+0x18]
  406ca8:	48 8b 5d 10          	mov    rbx,QWORD PTR [rbp+0x10]
  406cac:	48 89 7d e8          	mov    QWORD PTR [rbp-0x18],rdi
  406cb0:	48 89 75 e0          	mov    QWORD PTR [rbp-0x20],rsi
  406cb4:	48 89 55 d8          	mov    QWORD PTR [rbp-0x28],rdx
  406cb8:	48 89 4d d0          	mov    QWORD PTR [rbp-0x30],rcx
  406cbc:	4c 89 45 c8          	mov    QWORD PTR [rbp-0x38],r8
  406cc0:	44 89 4d c4          	mov    DWORD PTR [rbp-0x3c],r9d
  406cc4:	48 c7 45 b8 01 00 00 	mov    QWORD PTR [rbp-0x48],0x1
  406ccb:	00 
  406ccc:	48 c7 45 98 00 00 00 	mov    QWORD PTR [rbp-0x68],0x0
  406cd3:	00 
  406cd4:	48 89 9d 78 ff ff ff 	mov    QWORD PTR [rbp-0x88],rbx
  406cdb:	4c 89 95 70 ff ff ff 	mov    QWORD PTR [rbp-0x90],r10
  406ce2:	4c 89 9d 68 ff ff ff 	mov    QWORD PTR [rbp-0x98],r11
  406ce9:	48 89 85 60 ff ff ff 	mov    QWORD PTR [rbp-0xa0],rax
  406cf0:	31 c0                	xor    eax,eax
  406cf2:	88 c1                	mov    cl,al
  406cf4:	48 83 7d b8 3c       	cmp    QWORD PTR [rbp-0x48],0x3c
  406cf9:	88 8d 5f ff ff ff    	mov    BYTE PTR [rbp-0xa1],cl
  406cff:	0f 8f 1b 00 00 00    	jg     406d20 <primal_bea_mpp+0x90>
  406d05:	48 8b 45 b8          	mov    rax,QWORD PTR [rbp-0x48]
  406d09:	48 8b 4d d0          	mov    rcx,QWORD PTR [rbp-0x30]
  406d0d:	48 63 55 c4          	movsxd rdx,DWORD PTR [rbp-0x3c]
  406d11:	48 3b 04 d1          	cmp    rax,QWORD PTR [rcx+rdx*8]
  406d15:	40 0f 9e c6          	setle  sil
  406d19:	40 88 b5 5f ff ff ff 	mov    BYTE PTR [rbp-0xa1],sil
  406d20:	8a 85 5f ff ff ff    	mov    al,BYTE PTR [rbp-0xa1]
  406d26:	a8 01                	test   al,0x1
  406d28:	0f 85 05 00 00 00    	jne    406d33 <primal_bea_mpp+0xa3>
  406d2e:	e9 2a 01 00 00       	jmp    406e5d <primal_bea_mpp+0x1cd>
  406d33:	48 8b 45 c8          	mov    rax,QWORD PTR [rbp-0x38]
  406d37:	48 8b 4d b8          	mov    rcx,QWORD PTR [rbp-0x48]
  406d3b:	48 8b 04 c8          	mov    rax,QWORD PTR [rax+rcx*8]
  406d3f:	48 8b 00             	mov    rax,QWORD PTR [rax]
  406d42:	48 89 45 90          	mov    QWORD PTR [rbp-0x70],rax
  406d46:	48 8b 45 c8          	mov    rax,QWORD PTR [rbp-0x38]
  406d4a:	48 8b 4d b8          	mov    rcx,QWORD PTR [rbp-0x48]
  406d4e:	48 8b 04 c8          	mov    rax,QWORD PTR [rax+rcx*8]
  406d52:	48 8b 40 18          	mov    rax,QWORD PTR [rax+0x18]
  406d56:	48 89 45 a8          	mov    QWORD PTR [rbp-0x58],rax
  406d5a:	48 8b 45 90          	mov    rax,QWORD PTR [rbp-0x70]
  406d5e:	48 8b 40 08          	mov    rax,QWORD PTR [rax+0x8]
  406d62:	48 8b 4d 90          	mov    rcx,QWORD PTR [rbp-0x70]
  406d66:	48 8b 49 10          	mov    rcx,QWORD PTR [rcx+0x10]
  406d6a:	48 2b 01             	sub    rax,QWORD PTR [rcx]
  406d6d:	48 8b 4d 90          	mov    rcx,QWORD PTR [rbp-0x70]
  406d71:	48 8b 49 18          	mov    rcx,QWORD PTR [rcx+0x18]
  406d75:	48 03 01             	add    rax,QWORD PTR [rcx]
  406d78:	48 89 45 80          	mov    QWORD PTR [rbp-0x80],rax
  406d7c:	48 83 7d a8 00       	cmp    QWORD PTR [rbp-0x58],0x0
  406d81:	0f 8e c0 00 00 00    	jle    406e47 <primal_bea_mpp+0x1b7>
  406d87:	48 83 7d 80 00       	cmp    QWORD PTR [rbp-0x80],0x0
  406d8c:	0f 8d 11 00 00 00    	jge    406da3 <primal_bea_mpp+0x113>
  406d92:	48 8b 45 90          	mov    rax,QWORD PTR [rbp-0x70]
  406d96:	0f bf 48 20          	movsx  ecx,WORD PTR [rax+0x20]
  406d9a:	83 f9 01             	cmp    ecx,0x1
  406d9d:	0f 84 1c 00 00 00    	je     406dbf <primal_bea_mpp+0x12f>
  406da3:	48 83 7d 80 00       	cmp    QWORD PTR [rbp-0x80],0x0
  406da8:	0f 8e 99 00 00 00    	jle    406e47 <primal_bea_mpp+0x1b7>
  406dae:	48 8b 45 90          	mov    rax,QWORD PTR [rbp-0x70]
  406db2:	0f bf 48 20          	movsx  ecx,WORD PTR [rax+0x20]
  406db6:	83 f9 02             	cmp    ecx,0x2
  406db9:	0f 85 88 00 00 00    	jne    406e47 <primal_bea_mpp+0x1b7>
  406dbf:	48 8b 45 98          	mov    rax,QWORD PTR [rbp-0x68]
  406dc3:	48 83 c0 01          	add    rax,0x1
  406dc7:	48 89 45 98          	mov    QWORD PTR [rbp-0x68],rax
  406dcb:	48 8b 45 90          	mov    rax,QWORD PTR [rbp-0x70]
  406dcf:	48 8b 4d c8          	mov    rcx,QWORD PTR [rbp-0x38]
  406dd3:	48 8b 55 98          	mov    rdx,QWORD PTR [rbp-0x68]
  406dd7:	48 8b 0c d1          	mov    rcx,QWORD PTR [rcx+rdx*8]
  406ddb:	48 89 01             	mov    QWORD PTR [rcx],rax
  406dde:	48 8b 45 80          	mov    rax,QWORD PTR [rbp-0x80]
  406de2:	48 8b 4d c8          	mov    rcx,QWORD PTR [rbp-0x38]
  406de6:	48 8b 55 98          	mov    rdx,QWORD PTR [rbp-0x68]
  406dea:	48 8b 0c d1          	mov    rcx,QWORD PTR [rcx+rdx*8]
  406dee:	48 89 41 08          	mov    QWORD PTR [rcx+0x8],rax
  406df2:	48 83 7d 80 00       	cmp    QWORD PTR [rbp-0x80],0x0
  406df7:	0f 8c 10 00 00 00    	jl     406e0d <primal_bea_mpp+0x17d>
  406dfd:	48 8b 45 80          	mov    rax,QWORD PTR [rbp-0x80]
  406e01:	48 89 85 50 ff ff ff 	mov    QWORD PTR [rbp-0xb0],rax
  406e08:	e9 0f 00 00 00       	jmp    406e1c <primal_bea_mpp+0x18c>
  406e0d:	31 c0                	xor    eax,eax
  406e0f:	89 c1                	mov    ecx,eax
  406e11:	48 2b 4d 80          	sub    rcx,QWORD PTR [rbp-0x80]
  406e15:	48 89 8d 50 ff ff ff 	mov    QWORD PTR [rbp-0xb0],rcx
  406e1c:	48 8b 85 50 ff ff ff 	mov    rax,QWORD PTR [rbp-0xb0]
  406e23:	48 8b 4d c8          	mov    rcx,QWORD PTR [rbp-0x38]
  406e27:	48 8b 55 98          	mov    rdx,QWORD PTR [rbp-0x68]
  406e2b:	48 8b 0c d1          	mov    rcx,QWORD PTR [rcx+rdx*8]
  406e2f:	48 89 41 10          	mov    QWORD PTR [rcx+0x10],rax
  406e33:	48 8b 45 c8          	mov    rax,QWORD PTR [rbp-0x38]
  406e37:	48 8b 4d 98          	mov    rcx,QWORD PTR [rbp-0x68]
  406e3b:	48 8b 04 c8          	mov    rax,QWORD PTR [rax+rcx*8]
  406e3f:	48 c7 40 18 00 00 00 	mov    QWORD PTR [rax+0x18],0x0
  406e46:	00 
  406e47:	e9 00 00 00 00       	jmp    406e4c <primal_bea_mpp+0x1bc>
  406e4c:	48 8b 45 b8          	mov    rax,QWORD PTR [rbp-0x48]
  406e50:	48 83 c0 01          	add    rax,0x1
  406e54:	48 89 45 b8          	mov    QWORD PTR [rbp-0x48],rax
  406e58:	e9 93 fe ff ff       	jmp    406cf0 <primal_bea_mpp+0x60>
  406e5d:	48 8b 45 98          	mov    rax,QWORD PTR [rbp-0x68]
  406e61:	48 8b 4d d0          	mov    rcx,QWORD PTR [rbp-0x30]
  406e65:	48 63 55 c4          	movsxd rdx,DWORD PTR [rbp-0x3c]
  406e69:	48 89 04 d1          	mov    QWORD PTR [rcx+rdx*8],rax
  406e6d:	48 8b 45 10          	mov    rax,QWORD PTR [rbp+0x10]
  406e71:	48 8b 00             	mov    rax,QWORD PTR [rax]
  406e74:	48 89 45 88          	mov    QWORD PTR [rbp-0x78],rax
  406e78:	48 8b 45 10          	mov    rax,QWORD PTR [rbp+0x10]
  406e7c:	48 8b 00             	mov    rax,QWORD PTR [rax]
  406e7f:	48 6b 4d 18 48       	imul   rcx,QWORD PTR [rbp+0x18],0x48
  406e84:	48 01 c8             	add    rax,rcx
  406e87:	48 89 45 90          	mov    QWORD PTR [rbp-0x70],rax
  406e8b:	48 8b 45 10          	mov    rax,QWORD PTR [rbp+0x10]
  406e8f:	48 8b 00             	mov    rax,QWORD PTR [rax]
  406e92:	48 3b 04 25 28 a1 40 	cmp    rax,QWORD PTR ds:0x40a128
  406e99:	00 
  406e9a:	0f 82 1f 00 00 00    	jb     406ebf <primal_bea_mpp+0x22f>
  406ea0:	48 8b 45 10          	mov    rax,QWORD PTR [rbp+0x10]
  406ea4:	48 8b 00             	mov    rax,QWORD PTR [rax]
  406ea7:	48 6b 4d 28 48       	imul   rcx,QWORD PTR [rbp+0x28],0x48
  406eac:	48 01 c8             	add    rax,rcx
  406eaf:	48 83 c0 b8          	add    rax,0xffffffffffffffb8
  406eb3:	48 8b 4d 10          	mov    rcx,QWORD PTR [rbp+0x10]
  406eb7:	48 89 01             	mov    QWORD PTR [rcx],rax
  406eba:	e9 16 00 00 00       	jmp    406ed5 <primal_bea_mpp+0x245>
  406ebf:	48 8b 45 10          	mov    rax,QWORD PTR [rbp+0x10]
  406ec3:	48 8b 00             	mov    rax,QWORD PTR [rax]
  406ec6:	48 6b 4d 28 48       	imul   rcx,QWORD PTR [rbp+0x28],0x48
  406ecb:	48 01 c8             	add    rax,rcx
  406ece:	48 8b 4d 10          	mov    rcx,QWORD PTR [rbp+0x10]
  406ed2:	48 89 01             	mov    QWORD PTR [rcx],rax
  406ed5:	e9 00 00 00 00       	jmp    406eda <primal_bea_mpp+0x24a>
  406eda:	48 8b 45 90          	mov    rax,QWORD PTR [rbp-0x70]
  406ede:	48 8b 4d 10          	mov    rcx,QWORD PTR [rbp+0x10]
  406ee2:	48 3b 01             	cmp    rax,QWORD PTR [rcx]
  406ee5:	0f 83 18 01 00 00    	jae    407003 <primal_bea_mpp+0x373>
  406eeb:	48 8b 45 90          	mov    rax,QWORD PTR [rbp-0x70]
  406eef:	0f bf 48 20          	movsx  ecx,WORD PTR [rax+0x20]
  406ef3:	83 f9 00             	cmp    ecx,0x0
  406ef6:	0f 8e ed 00 00 00    	jle    406fe9 <primal_bea_mpp+0x359>
  406efc:	48 8b 45 90          	mov    rax,QWORD PTR [rbp-0x70]
  406f00:	48 8b 40 08          	mov    rax,QWORD PTR [rax+0x8]
  406f04:	48 8b 4d 90          	mov    rcx,QWORD PTR [rbp-0x70]
  406f08:	48 8b 49 10          	mov    rcx,QWORD PTR [rcx+0x10]
  406f0c:	48 2b 01             	sub    rax,QWORD PTR [rcx]
  406f0f:	48 8b 4d 90          	mov    rcx,QWORD PTR [rbp-0x70]
  406f13:	48 8b 49 18          	mov    rcx,QWORD PTR [rcx+0x18]
  406f17:	48 03 01             	add    rax,QWORD PTR [rcx]
  406f1a:	48 89 45 80          	mov    QWORD PTR [rbp-0x80],rax
  406f1e:	48 8b 7d 90          	mov    rdi,QWORD PTR [rbp-0x70]
  406f22:	48 8b 75 80          	mov    rsi,QWORD PTR [rbp-0x80]
  406f26:	e8 65 fc ff ff       	call   406b90 <bea_is_dual_infeasible>
  406f2b:	83 f8 00             	cmp    eax,0x0
  406f2e:	0f 84 b0 00 00 00    	je     406fe4 <primal_bea_mpp+0x354>
  406f34:	48 8b 45 d0          	mov    rax,QWORD PTR [rbp-0x30]
  406f38:	48 63 4d c4          	movsxd rcx,DWORD PTR [rbp-0x3c]
  406f3c:	48 8b 14 c8          	mov    rdx,QWORD PTR [rax+rcx*8]
  406f40:	48 83 c2 01          	add    rdx,0x1
  406f44:	48 89 14 c8          	mov    QWORD PTR [rax+rcx*8],rdx
  406f48:	48 8b 45 90          	mov    rax,QWORD PTR [rbp-0x70]
  406f4c:	48 8b 4d c8          	mov    rcx,QWORD PTR [rbp-0x38]
  406f50:	48 8b 55 d0          	mov    rdx,QWORD PTR [rbp-0x30]
  406f54:	48 63 75 c4          	movsxd rsi,DWORD PTR [rbp-0x3c]
  406f58:	48 8b 14 f2          	mov    rdx,QWORD PTR [rdx+rsi*8]
  406f5c:	48 8b 0c d1          	mov    rcx,QWORD PTR [rcx+rdx*8]
  406f60:	48 89 01             	mov    QWORD PTR [rcx],rax
  406f63:	48 8b 45 80          	mov    rax,QWORD PTR [rbp-0x80]
  406f67:	48 8b 4d c8          	mov    rcx,QWORD PTR [rbp-0x38]
  406f6b:	48 8b 55 d0          	mov    rdx,QWORD PTR [rbp-0x30]
  406f6f:	48 63 75 c4          	movsxd rsi,DWORD PTR [rbp-0x3c]
  406f73:	48 8b 14 f2          	mov    rdx,QWORD PTR [rdx+rsi*8]
  406f77:	48 8b 0c d1          	mov    rcx,QWORD PTR [rcx+rdx*8]
  406f7b:	48 89 41 08          	mov    QWORD PTR [rcx+0x8],rax
  406f7f:	48 83 7d 80 00       	cmp    QWORD PTR [rbp-0x80],0x0
  406f84:	0f 8c 10 00 00 00    	jl     406f9a <primal_bea_mpp+0x30a>
  406f8a:	48 8b 45 80          	mov    rax,QWORD PTR [rbp-0x80]
  406f8e:	48 89 85 48 ff ff ff 	mov    QWORD PTR [rbp-0xb8],rax
  406f95:	e9 0f 00 00 00       	jmp    406fa9 <primal_bea_mpp+0x319>
  406f9a:	31 c0                	xor    eax,eax
  406f9c:	89 c1                	mov    ecx,eax
  406f9e:	48 2b 4d 80          	sub    rcx,QWORD PTR [rbp-0x80]
  406fa2:	48 89 8d 48 ff ff ff 	mov    QWORD PTR [rbp-0xb8],rcx
  406fa9:	48 8b 85 48 ff ff ff 	mov    rax,QWORD PTR [rbp-0xb8]
  406fb0:	48 8b 4d c8          	mov    rcx,QWORD PTR [rbp-0x38]
  406fb4:	48 8b 55 d0          	mov    rdx,QWORD PTR [rbp-0x30]
  406fb8:	48 63 75 c4          	movsxd rsi,DWORD PTR [rbp-0x3c]
  406fbc:	48 8b 14 f2          	mov    rdx,QWORD PTR [rdx+rsi*8]
  406fc0:	48 8b 0c d1          	mov    rcx,QWORD PTR [rcx+rdx*8]
  406fc4:	48 89 41 10          	mov    QWORD PTR [rcx+0x10],rax
  406fc8:	48 8b 45 c8          	mov    rax,QWORD PTR [rbp-0x38]
  406fcc:	48 8b 4d d0          	mov    rcx,QWORD PTR [rbp-0x30]
  406fd0:	48 63 55 c4          	movsxd rdx,DWORD PTR [rbp-0x3c]
  406fd4:	48 8b 0c d1          	mov    rcx,QWORD PTR [rcx+rdx*8]
  406fd8:	48 8b 04 c8          	mov    rax,QWORD PTR [rax+rcx*8]
  406fdc:	48 c7 40 18 00 00 00 	mov    QWORD PTR [rax+0x18],0x0
  406fe3:	00 
  406fe4:	e9 00 00 00 00       	jmp    406fe9 <primal_bea_mpp+0x359>
  406fe9:	e9 00 00 00 00       	jmp    406fee <primal_bea_mpp+0x35e>
  406fee:	48 8b 45 20          	mov    rax,QWORD PTR [rbp+0x20]
  406ff2:	48 6b c0 48          	imul   rax,rax,0x48
  406ff6:	48 03 45 90          	add    rax,QWORD PTR [rbp-0x70]
  406ffa:	48 89 45 90          	mov    QWORD PTR [rbp-0x70],rax
  406ffe:	e9 d7 fe ff ff       	jmp    406eda <primal_bea_mpp+0x24a>
  407003:	48 8b 45 10          	mov    rax,QWORD PTR [rbp+0x10]
  407007:	48 8b 00             	mov    rax,QWORD PTR [rax]
  40700a:	48 3b 45 d8          	cmp    rax,QWORD PTR [rbp-0x28]
  40700e:	0f 82 0b 00 00 00    	jb     40701f <primal_bea_mpp+0x38f>
  407014:	48 8b 45 e0          	mov    rax,QWORD PTR [rbp-0x20]
  407018:	48 8b 4d 10          	mov    rcx,QWORD PTR [rbp+0x10]
  40701c:	48 89 01             	mov    QWORD PTR [rcx],rax
  40701f:	48 8b 45 10          	mov    rax,QWORD PTR [rbp+0x10]
  407023:	48 8b 00             	mov    rax,QWORD PTR [rax]
  407026:	48 3b 45 88          	cmp    rax,QWORD PTR [rbp-0x78]
  40702a:	0f 84 58 00 00 00    	je     407088 <primal_bea_mpp+0x3f8>
  407030:	48 c7 45 a0 00 00 00 	mov    QWORD PTR [rbp-0x60],0x0
  407037:	00 
  407038:	48 c7 45 b0 00 00 00 	mov    QWORD PTR [rbp-0x50],0x0
  40703f:	00 
  407040:	48 8b 45 b0          	mov    rax,QWORD PTR [rbp-0x50]
  407044:	48 3b 45 20          	cmp    rax,QWORD PTR [rbp+0x20]
  407048:	0f 8d 25 00 00 00    	jge    407073 <primal_bea_mpp+0x3e3>
  40704e:	48 8b 45 d0          	mov    rax,QWORD PTR [rbp-0x30]
  407052:	48 8b 4d b0          	mov    rcx,QWORD PTR [rbp-0x50]
  407056:	48 8b 04 c8          	mov    rax,QWORD PTR [rax+rcx*8]
  40705a:	48 03 45 a0          	add    rax,QWORD PTR [rbp-0x60]
  40705e:	48 89 45 a0          	mov    QWORD PTR [rbp-0x60],rax
  407062:	48 8b 45 b0          	mov    rax,QWORD PTR [rbp-0x50]
  407066:	48 83 c0 01          	add    rax,0x1
  40706a:	48 89 45 b0          	mov    QWORD PTR [rbp-0x50],rax
  40706e:	e9 cd ff ff ff       	jmp    407040 <primal_bea_mpp+0x3b0>
  407073:	48 83 7d a0 3c       	cmp    QWORD PTR [rbp-0x60],0x3c
  407078:	0f 8c 05 00 00 00    	jl     407083 <primal_bea_mpp+0x3f3>
  40707e:	e9 0a 00 00 00       	jmp    40708d <primal_bea_mpp+0x3fd>
  407083:	e9 f0 fd ff ff       	jmp    406e78 <primal_bea_mpp+0x1e8>
  407088:	e9 00 00 00 00       	jmp    40708d <primal_bea_mpp+0x3fd>
  40708d:	48 8b 45 c8          	mov    rax,QWORD PTR [rbp-0x38]
  407091:	48 8b 4d d0          	mov    rcx,QWORD PTR [rbp-0x30]
  407095:	48 63 55 c4          	movsxd rdx,DWORD PTR [rbp-0x3c]
  407099:	48 8b 0c d1          	mov    rcx,QWORD PTR [rcx+rdx*8]
  40709d:	48 8b 44 c8 08       	mov    rax,QWORD PTR [rax+rcx*8+0x8]
  4070a2:	48 c7 40 18 ff ff ff 	mov    QWORD PTR [rax+0x18],0xffffffffffffffff
  4070a9:	ff 
  4070aa:	48 8b 45 d0          	mov    rax,QWORD PTR [rbp-0x30]
  4070ae:	48 63 4d c4          	movsxd rcx,DWORD PTR [rbp-0x3c]
  4070b2:	48 83 3c c8 00       	cmp    QWORD PTR [rax+rcx*8],0x0
  4070b7:	0f 85 0d 00 00 00    	jne    4070ca <primal_bea_mpp+0x43a>
  4070bd:	48 c7 45 f0 00 00 00 	mov    QWORD PTR [rbp-0x10],0x0
  4070c4:	00 
  4070c5:	e9 47 00 00 00       	jmp    407111 <primal_bea_mpp+0x481>
  4070ca:	b8 08 00 00 00       	mov    eax,0x8
  4070cf:	89 c2                	mov    edx,eax
  4070d1:	48 b9 f0 6b 40 00 00 	movabs rcx,0x406bf0
  4070d8:	00 00 00 
  4070db:	48 8b 75 c8          	mov    rsi,QWORD PTR [rbp-0x38]
  4070df:	48 83 c6 08          	add    rsi,0x8
  4070e3:	48 8b 7d d0          	mov    rdi,QWORD PTR [rbp-0x30]
  4070e7:	4c 63 45 c4          	movsxd r8,DWORD PTR [rbp-0x3c]
  4070eb:	4a 8b 3c c7          	mov    rdi,QWORD PTR [rdi+r8*8]
  4070ef:	48 89 bd 40 ff ff ff 	mov    QWORD PTR [rbp-0xc0],rdi
  4070f6:	48 89 f7             	mov    rdi,rsi
  4070f9:	48 8b b5 40 ff ff ff 	mov    rsi,QWORD PTR [rbp-0xc0]
  407100:	e8 1b 00 00 00       	call   407120 <spec_qsort>
  407105:	48 8b 4d c8          	mov    rcx,QWORD PTR [rbp-0x38]
  407109:	48 8b 49 08          	mov    rcx,QWORD PTR [rcx+0x8]
  40710d:	48 89 4d f0          	mov    QWORD PTR [rbp-0x10],rcx
  407111:	48 8b 45 f0          	mov    rax,QWORD PTR [rbp-0x10]
  407115:	48 81 c4 b8 00 00 00 	add    rsp,0xb8
  40711c:	5b                   	pop    rbx
  40711d:	5d                   	pop    rbp
  40711e:	c3                   	ret    
  40711f:	90                   	nop

0000000000407120 <spec_qsort>:
  407120:	55                   	push   rbp
  407121:	48 89 e5             	mov    rbp,rsp
  407124:	48 81 ec 30 01 00 00 	sub    rsp,0x130
  40712b:	48 89 7d f8          	mov    QWORD PTR [rbp-0x8],rdi
  40712f:	48 89 75 f0          	mov    QWORD PTR [rbp-0x10],rsi
  407133:	48 89 55 e8          	mov    QWORD PTR [rbp-0x18],rdx
  407137:	48 89 4d e0          	mov    QWORD PTR [rbp-0x20],rcx
  40713b:	48 8b 45 f8          	mov    rax,QWORD PTR [rbp-0x8]
  40713f:	48 83 e8 00          	sub    rax,0x0
  407143:	48 83 e0 07          	and    rax,0x7
  407147:	48 83 f8 00          	cmp    rax,0x0
  40714b:	0f 85 12 00 00 00    	jne    407163 <spec_qsort+0x43>
  407151:	48 8b 45 e8          	mov    rax,QWORD PTR [rbp-0x18]
  407155:	48 83 e0 07          	and    rax,0x7
  407159:	48 83 f8 00          	cmp    rax,0x0
  40715d:	0f 84 10 00 00 00    	je     407173 <spec_qsort+0x53>
  407163:	b8 02 00 00 00       	mov    eax,0x2
  407168:	89 85 28 ff ff ff    	mov    DWORD PTR [rbp-0xd8],eax
  40716e:	e9 18 00 00 00       	jmp    40718b <spec_qsort+0x6b>
  407173:	31 c0                	xor    eax,eax
  407175:	48 8b 4d e8          	mov    rcx,QWORD PTR [rbp-0x18]
  407179:	48 83 f9 08          	cmp    rcx,0x8
  40717d:	ba 01 00 00 00       	mov    edx,0x1
  407182:	0f 44 d0             	cmove  edx,eax
  407185:	89 95 28 ff ff ff    	mov    DWORD PTR [rbp-0xd8],edx
  40718b:	8b 85 28 ff ff ff    	mov    eax,DWORD PTR [rbp-0xd8]
  407191:	89 45 90             	mov    DWORD PTR [rbp-0x70],eax
  407194:	48 8b 4d f8          	mov    rcx,QWORD PTR [rbp-0x8]
  407198:	48 83 e9 00          	sub    rcx,0x0
  40719c:	48 83 e1 03          	and    rcx,0x3
  4071a0:	48 83 f9 00          	cmp    rcx,0x0
  4071a4:	0f 85 12 00 00 00    	jne    4071bc <spec_qsort+0x9c>
  4071aa:	48 8b 45 e8          	mov    rax,QWORD PTR [rbp-0x18]
  4071ae:	48 83 e0 03          	and    rax,0x3
  4071b2:	48 83 f8 00          	cmp    rax,0x0
  4071b6:	0f 84 10 00 00 00    	je     4071cc <spec_qsort+0xac>
  4071bc:	b8 02 00 00 00       	mov    eax,0x2
  4071c1:	89 85 24 ff ff ff    	mov    DWORD PTR [rbp-0xdc],eax
  4071c7:	e9 18 00 00 00       	jmp    4071e4 <spec_qsort+0xc4>
  4071cc:	31 c0                	xor    eax,eax
  4071ce:	48 8b 4d e8          	mov    rcx,QWORD PTR [rbp-0x18]
  4071d2:	48 83 f9 04          	cmp    rcx,0x4
  4071d6:	ba 01 00 00 00       	mov    edx,0x1
  4071db:	0f 44 d0             	cmove  edx,eax
  4071de:	89 95 24 ff ff ff    	mov    DWORD PTR [rbp-0xdc],edx
  4071e4:	8b 85 24 ff ff ff    	mov    eax,DWORD PTR [rbp-0xdc]
  4071ea:	89 45 8c             	mov    DWORD PTR [rbp-0x74],eax
  4071ed:	c7 45 88 00 00 00 00 	mov    DWORD PTR [rbp-0x78],0x0
  4071f4:	48 83 7d f0 07       	cmp    QWORD PTR [rbp-0x10],0x7
  4071f9:	0f 83 7b 01 00 00    	jae    40737a <spec_qsort+0x25a>
  4071ff:	48 8b 45 f8          	mov    rax,QWORD PTR [rbp-0x8]
  407203:	48 03 45 e8          	add    rax,QWORD PTR [rbp-0x18]
  407207:	48 89 45 b0          	mov    QWORD PTR [rbp-0x50],rax
  40720b:	48 8b 45 b0          	mov    rax,QWORD PTR [rbp-0x50]
  40720f:	48 8b 4d f8          	mov    rcx,QWORD PTR [rbp-0x8]
  407213:	48 8b 55 f0          	mov    rdx,QWORD PTR [rbp-0x10]
  407217:	48 0f af 55 e8       	imul   rdx,QWORD PTR [rbp-0x18]
  40721c:	48 01 d1             	add    rcx,rdx
  40721f:	48 39 c8             	cmp    rax,rcx
  407222:	0f 83 4d 01 00 00    	jae    407375 <spec_qsort+0x255>
  407228:	48 8b 45 b0          	mov    rax,QWORD PTR [rbp-0x50]
  40722c:	48 89 45 b8          	mov    QWORD PTR [rbp-0x48],rax
  407230:	31 c0                	xor    eax,eax
  407232:	88 c1                	mov    cl,al
  407234:	48 8b 55 b8          	mov    rdx,QWORD PTR [rbp-0x48]
  407238:	48 3b 55 f8          	cmp    rdx,QWORD PTR [rbp-0x8]
  40723c:	88 8d 23 ff ff ff    	mov    BYTE PTR [rbp-0xdd],cl
  407242:	0f 86 2d 00 00 00    	jbe    407275 <spec_qsort+0x155>
  407248:	31 c0                	xor    eax,eax
  40724a:	89 c1                	mov    ecx,eax
  40724c:	48 8b 55 e0          	mov    rdx,QWORD PTR [rbp-0x20]
  407250:	48 8b 75 b8          	mov    rsi,QWORD PTR [rbp-0x48]
  407254:	48 2b 4d e8          	sub    rcx,QWORD PTR [rbp-0x18]
  407258:	48 01 ce             	add    rsi,rcx
  40725b:	48 8b 4d b8          	mov    rcx,QWORD PTR [rbp-0x48]
  40725f:	48 89 f7             	mov    rdi,rsi
  407262:	48 89 ce             	mov    rsi,rcx
  407265:	ff d2                	call   rdx
  407267:	83 f8 00             	cmp    eax,0x0
  40726a:	41 0f 9f c0          	setg   r8b
  40726e:	44 88 85 23 ff ff ff 	mov    BYTE PTR [rbp-0xdd],r8b
  407275:	8a 85 23 ff ff ff    	mov    al,BYTE PTR [rbp-0xdd]
  40727b:	a8 01                	test   al,0x1
  40727d:	0f 85 05 00 00 00    	jne    407288 <spec_qsort+0x168>
  407283:	e9 d7 00 00 00       	jmp    40735f <spec_qsort+0x23f>
  407288:	83 7d 90 00          	cmp    DWORD PTR [rbp-0x70],0x0
  40728c:	0f 85 3a 00 00 00    	jne    4072cc <spec_qsort+0x1ac>
  407292:	31 c0                	xor    eax,eax
  407294:	89 c1                	mov    ecx,eax
  407296:	48 8b 55 b8          	mov    rdx,QWORD PTR [rbp-0x48]
  40729a:	48 8b 12             	mov    rdx,QWORD PTR [rdx]
  40729d:	48 89 55 80          	mov    QWORD PTR [rbp-0x80],rdx
  4072a1:	48 8b 55 b8          	mov    rdx,QWORD PTR [rbp-0x48]
  4072a5:	48 89 ce             	mov    rsi,rcx
  4072a8:	48 2b 75 e8          	sub    rsi,QWORD PTR [rbp-0x18]
  4072ac:	48 8b 14 32          	mov    rdx,QWORD PTR [rdx+rsi*1]
  4072b0:	48 8b 75 b8          	mov    rsi,QWORD PTR [rbp-0x48]
  4072b4:	48 89 16             	mov    QWORD PTR [rsi],rdx
  4072b7:	48 8b 55 80          	mov    rdx,QWORD PTR [rbp-0x80]
  4072bb:	48 8b 75 b8          	mov    rsi,QWORD PTR [rbp-0x48]
  4072bf:	48 2b 4d e8          	sub    rcx,QWORD PTR [rbp-0x18]
  4072c3:	48 89 14 0e          	mov    QWORD PTR [rsi+rcx*1],rdx
  4072c7:	e9 73 00 00 00       	jmp    40733f <spec_qsort+0x21f>
  4072cc:	83 7d 8c 00          	cmp    DWORD PTR [rbp-0x74],0x0
  4072d0:	0f 85 3a 00 00 00    	jne    407310 <spec_qsort+0x1f0>
  4072d6:	31 c0                	xor    eax,eax
  4072d8:	89 c1                	mov    ecx,eax
  4072da:	48 8b 55 b8          	mov    rdx,QWORD PTR [rbp-0x48]
  4072de:	8b 02                	mov    eax,DWORD PTR [rdx]
  4072e0:	89 85 7c ff ff ff    	mov    DWORD PTR [rbp-0x84],eax
  4072e6:	48 8b 55 b8          	mov    rdx,QWORD PTR [rbp-0x48]
  4072ea:	48 89 ce             	mov    rsi,rcx
  4072ed:	48 2b 75 e8          	sub    rsi,QWORD PTR [rbp-0x18]
  4072f1:	8b 04 32             	mov    eax,DWORD PTR [rdx+rsi*1]
  4072f4:	48 8b 55 b8          	mov    rdx,QWORD PTR [rbp-0x48]
  4072f8:	89 02                	mov    DWORD PTR [rdx],eax
  4072fa:	8b 85 7c ff ff ff    	mov    eax,DWORD PTR [rbp-0x84]
  407300:	48 8b 55 b8          	mov    rdx,QWORD PTR [rbp-0x48]
  407304:	48 2b 4d e8          	sub    rcx,QWORD PTR [rbp-0x18]
  407308:	89 04 0a             	mov    DWORD PTR [rdx+rcx*1],eax
  40730b:	e9 2a 00 00 00       	jmp    40733a <spec_qsort+0x21a>
  407310:	31 c0                	xor    eax,eax
  407312:	89 c1                	mov    ecx,eax
  407314:	48 8b 7d b8          	mov    rdi,QWORD PTR [rbp-0x48]
  407318:	48 8b 55 b8          	mov    rdx,QWORD PTR [rbp-0x48]
  40731c:	48 2b 4d e8          	sub    rcx,QWORD PTR [rbp-0x18]
  407320:	48 01 ca             	add    rdx,rcx
  407323:	48 8b 4d e8          	mov    rcx,QWORD PTR [rbp-0x18]
  407327:	89 c8                	mov    eax,ecx
  407329:	8b 4d 90             	mov    ecx,DWORD PTR [rbp-0x70]
  40732c:	44 8b 45 8c          	mov    r8d,DWORD PTR [rbp-0x74]
  407330:	48 89 d6             	mov    rsi,rdx
  407333:	89 c2                	mov    edx,eax
  407335:	e8 a6 08 00 00       	call   407be0 <swapfunc>
  40733a:	e9 00 00 00 00       	jmp    40733f <spec_qsort+0x21f>
  40733f:	e9 00 00 00 00       	jmp    407344 <spec_qsort+0x224>
  407344:	31 c0                	xor    eax,eax
  407346:	89 c1                	mov    ecx,eax
  407348:	48 8b 55 e8          	mov    rdx,QWORD PTR [rbp-0x18]
  40734c:	48 8b 75 b8          	mov    rsi,QWORD PTR [rbp-0x48]
  407350:	48 29 d1             	sub    rcx,rdx
  407353:	48 01 ce             	add    rsi,rcx
  407356:	48 89 75 b8          	mov    QWORD PTR [rbp-0x48],rsi
  40735a:	e9 d1 fe ff ff       	jmp    407230 <spec_qsort+0x110>
  40735f:	e9 00 00 00 00       	jmp    407364 <spec_qsort+0x244>
  407364:	48 8b 45 e8          	mov    rax,QWORD PTR [rbp-0x18]
  407368:	48 03 45 b0          	add    rax,QWORD PTR [rbp-0x50]
  40736c:	48 89 45 b0          	mov    QWORD PTR [rbp-0x50],rax
  407370:	e9 96 fe ff ff       	jmp    40720b <spec_qsort+0xeb>
  407375:	e9 5d 08 00 00       	jmp    407bd7 <spec_qsort+0xab7>
  40737a:	48 8b 45 f8          	mov    rax,QWORD PTR [rbp-0x8]
  40737e:	48 8b 4d f0          	mov    rcx,QWORD PTR [rbp-0x10]
  407382:	48 c1 e9 01          	shr    rcx,0x1
  407386:	48 0f af 4d e8       	imul   rcx,QWORD PTR [rbp-0x18]
  40738b:	48 01 c8             	add    rax,rcx
  40738e:	48 89 45 b0          	mov    QWORD PTR [rbp-0x50],rax
  407392:	48 83 7d f0 07       	cmp    QWORD PTR [rbp-0x10],0x7
  407397:	0f 86 1d 01 00 00    	jbe    4074ba <spec_qsort+0x39a>
  40739d:	48 8b 45 f8          	mov    rax,QWORD PTR [rbp-0x8]
  4073a1:	48 89 45 b8          	mov    QWORD PTR [rbp-0x48],rax
  4073a5:	48 8b 45 f8          	mov    rax,QWORD PTR [rbp-0x8]
  4073a9:	48 8b 4d f0          	mov    rcx,QWORD PTR [rbp-0x10]
  4073ad:	48 83 e9 01          	sub    rcx,0x1
  4073b1:	48 0f af 4d e8       	imul   rcx,QWORD PTR [rbp-0x18]
  4073b6:	48 01 c8             	add    rax,rcx
  4073b9:	48 89 45 a8          	mov    QWORD PTR [rbp-0x58],rax
  4073bd:	48 83 7d f0 28       	cmp    QWORD PTR [rbp-0x10],0x28
  4073c2:	0f 86 d9 00 00 00    	jbe    4074a1 <spec_qsort+0x381>
  4073c8:	48 8b 45 f0          	mov    rax,QWORD PTR [rbp-0x10]
  4073cc:	48 c1 e8 03          	shr    rax,0x3
  4073d0:	48 0f af 45 e8       	imul   rax,QWORD PTR [rbp-0x18]
  4073d5:	48 89 45 a0          	mov    QWORD PTR [rbp-0x60],rax
  4073d9:	48 8b 7d b8          	mov    rdi,QWORD PTR [rbp-0x48]
  4073dd:	48 8b 45 b8          	mov    rax,QWORD PTR [rbp-0x48]
  4073e1:	48 03 45 a0          	add    rax,QWORD PTR [rbp-0x60]
  4073e5:	48 8b 4d b8          	mov    rcx,QWORD PTR [rbp-0x48]
  4073e9:	48 8b 55 a0          	mov    rdx,QWORD PTR [rbp-0x60]
  4073ed:	48 c1 e2 01          	shl    rdx,0x1
  4073f1:	48 01 d1             	add    rcx,rdx
  4073f4:	48 8b 55 e0          	mov    rdx,QWORD PTR [rbp-0x20]
  4073f8:	48 89 c6             	mov    rsi,rax
  4073fb:	48 89 95 18 ff ff ff 	mov    QWORD PTR [rbp-0xe8],rdx
  407402:	48 89 ca             	mov    rdx,rcx
  407405:	48 8b 8d 18 ff ff ff 	mov    rcx,QWORD PTR [rbp-0xe8]
  40740c:	e8 4f 09 00 00       	call   407d60 <med3>
  407411:	45 31 c0             	xor    r8d,r8d
  407414:	44 89 c1             	mov    ecx,r8d
  407417:	48 89 45 b8          	mov    QWORD PTR [rbp-0x48],rax
  40741b:	48 8b 45 b0          	mov    rax,QWORD PTR [rbp-0x50]
  40741f:	48 2b 4d a0          	sub    rcx,QWORD PTR [rbp-0x60]
  407423:	48 01 c8             	add    rax,rcx
  407426:	48 8b 75 b0          	mov    rsi,QWORD PTR [rbp-0x50]
  40742a:	48 8b 4d b0          	mov    rcx,QWORD PTR [rbp-0x50]
  40742e:	48 03 4d a0          	add    rcx,QWORD PTR [rbp-0x60]
  407432:	48 8b 55 e0          	mov    rdx,QWORD PTR [rbp-0x20]
  407436:	48 89 c7             	mov    rdi,rax
  407439:	48 89 95 10 ff ff ff 	mov    QWORD PTR [rbp-0xf0],rdx
  407440:	48 89 ca             	mov    rdx,rcx
  407443:	48 8b 8d 10 ff ff ff 	mov    rcx,QWORD PTR [rbp-0xf0]
  40744a:	e8 11 09 00 00       	call   407d60 <med3>
  40744f:	45 31 c0             	xor    r8d,r8d
  407452:	44 89 c1             	mov    ecx,r8d
  407455:	48 89 45 b0          	mov    QWORD PTR [rbp-0x50],rax
  407459:	48 8b 45 a8          	mov    rax,QWORD PTR [rbp-0x58]
  40745d:	48 8b 55 a0          	mov    rdx,QWORD PTR [rbp-0x60]
  407461:	48 c1 e2 01          	shl    rdx,0x1
  407465:	48 89 ce             	mov    rsi,rcx
  407468:	48 29 d6             	sub    rsi,rdx
  40746b:	48 01 f0             	add    rax,rsi
  40746e:	48 8b 55 a8          	mov    rdx,QWORD PTR [rbp-0x58]
  407472:	48 2b 4d a0          	sub    rcx,QWORD PTR [rbp-0x60]
  407476:	48 01 ca             	add    rdx,rcx
  407479:	48 8b 4d a8          	mov    rcx,QWORD PTR [rbp-0x58]
  40747d:	48 8b 75 e0          	mov    rsi,QWORD PTR [rbp-0x20]
  407481:	48 89 c7             	mov    rdi,rax
  407484:	48 89 b5 08 ff ff ff 	mov    QWORD PTR [rbp-0xf8],rsi
  40748b:	48 89 d6             	mov    rsi,rdx
  40748e:	48 89 ca             	mov    rdx,rcx
  407491:	48 8b 8d 08 ff ff ff 	mov    rcx,QWORD PTR [rbp-0xf8]
  407498:	e8 c3 08 00 00       	call   407d60 <med3>
  40749d:	48 89 45 a8          	mov    QWORD PTR [rbp-0x58],rax
  4074a1:	48 8b 7d b8          	mov    rdi,QWORD PTR [rbp-0x48]
  4074a5:	48 8b 75 b0          	mov    rsi,QWORD PTR [rbp-0x50]
  4074a9:	48 8b 55 a8          	mov    rdx,QWORD PTR [rbp-0x58]
  4074ad:	48 8b 4d e0          	mov    rcx,QWORD PTR [rbp-0x20]
  4074b1:	e8 aa 08 00 00       	call   407d60 <med3>
  4074b6:	48 89 45 b0          	mov    QWORD PTR [rbp-0x50],rax
  4074ba:	83 7d 90 00          	cmp    DWORD PTR [rbp-0x70],0x0
  4074be:	0f 85 2f 00 00 00    	jne    4074f3 <spec_qsort+0x3d3>
  4074c4:	48 8b 45 f8          	mov    rax,QWORD PTR [rbp-0x8]
  4074c8:	48 8b 00             	mov    rax,QWORD PTR [rax]
  4074cb:	48 89 85 70 ff ff ff 	mov    QWORD PTR [rbp-0x90],rax
  4074d2:	48 8b 45 b0          	mov    rax,QWORD PTR [rbp-0x50]
  4074d6:	48 8b 00             	mov    rax,QWORD PTR [rax]
  4074d9:	48 8b 4d f8          	mov    rcx,QWORD PTR [rbp-0x8]
  4074dd:	48 89 01             	mov    QWORD PTR [rcx],rax
  4074e0:	48 8b 85 70 ff ff ff 	mov    rax,QWORD PTR [rbp-0x90]
  4074e7:	48 8b 4d b0          	mov    rcx,QWORD PTR [rbp-0x50]
  4074eb:	48 89 01             	mov    QWORD PTR [rcx],rax
  4074ee:	e9 60 00 00 00       	jmp    407553 <spec_qsort+0x433>
  4074f3:	83 7d 8c 00          	cmp    DWORD PTR [rbp-0x74],0x0
  4074f7:	0f 85 29 00 00 00    	jne    407526 <spec_qsort+0x406>
  4074fd:	48 8b 45 f8          	mov    rax,QWORD PTR [rbp-0x8]
  407501:	8b 08                	mov    ecx,DWORD PTR [rax]
  407503:	89 8d 6c ff ff ff    	mov    DWORD PTR [rbp-0x94],ecx
  407509:	48 8b 45 b0          	mov    rax,QWORD PTR [rbp-0x50]
  40750d:	8b 08                	mov    ecx,DWORD PTR [rax]
  40750f:	48 8b 45 f8          	mov    rax,QWORD PTR [rbp-0x8]
  407513:	89 08                	mov    DWORD PTR [rax],ecx
  407515:	8b 8d 6c ff ff ff    	mov    ecx,DWORD PTR [rbp-0x94]
  40751b:	48 8b 45 b0          	mov    rax,QWORD PTR [rbp-0x50]
  40751f:	89 08                	mov    DWORD PTR [rax],ecx
  407521:	e9 28 00 00 00       	jmp    40754e <spec_qsort+0x42e>
  407526:	48 8b 7d f8          	mov    rdi,QWORD PTR [rbp-0x8]
  40752a:	48 8b 75 b0          	mov    rsi,QWORD PTR [rbp-0x50]
  40752e:	48 8b 45 e8          	mov    rax,QWORD PTR [rbp-0x18]
  407532:	89 c1                	mov    ecx,eax
  407534:	8b 55 90             	mov    edx,DWORD PTR [rbp-0x70]
  407537:	44 8b 45 8c          	mov    r8d,DWORD PTR [rbp-0x74]
  40753b:	89 95 04 ff ff ff    	mov    DWORD PTR [rbp-0xfc],edx
  407541:	89 ca                	mov    edx,ecx
  407543:	8b 8d 04 ff ff ff    	mov    ecx,DWORD PTR [rbp-0xfc]
  407549:	e8 92 06 00 00       	call   407be0 <swapfunc>
  40754e:	e9 00 00 00 00       	jmp    407553 <spec_qsort+0x433>
  407553:	48 8b 45 f8          	mov    rax,QWORD PTR [rbp-0x8]
  407557:	48 03 45 e8          	add    rax,QWORD PTR [rbp-0x18]
  40755b:	48 89 45 d0          	mov    QWORD PTR [rbp-0x30],rax
  40755f:	48 89 45 d8          	mov    QWORD PTR [rbp-0x28],rax
  407563:	48 8b 45 f8          	mov    rax,QWORD PTR [rbp-0x8]
  407567:	48 8b 4d f0          	mov    rcx,QWORD PTR [rbp-0x10]
  40756b:	48 83 e9 01          	sub    rcx,0x1
  40756f:	48 0f af 4d e8       	imul   rcx,QWORD PTR [rbp-0x18]
  407574:	48 01 c8             	add    rax,rcx
  407577:	48 89 45 c0          	mov    QWORD PTR [rbp-0x40],rax
  40757b:	48 89 45 c8          	mov    QWORD PTR [rbp-0x38],rax
  40757f:	e9 00 00 00 00       	jmp    407584 <spec_qsort+0x464>
  407584:	31 c0                	xor    eax,eax
  407586:	88 c1                	mov    cl,al
  407588:	48 8b 55 d0          	mov    rdx,QWORD PTR [rbp-0x30]
  40758c:	48 3b 55 c8          	cmp    rdx,QWORD PTR [rbp-0x38]
  407590:	88 8d 03 ff ff ff    	mov    BYTE PTR [rbp-0xfd],cl
  407596:	0f 87 1d 00 00 00    	ja     4075b9 <spec_qsort+0x499>
  40759c:	48 8b 45 e0          	mov    rax,QWORD PTR [rbp-0x20]
  4075a0:	48 8b 7d d0          	mov    rdi,QWORD PTR [rbp-0x30]
  4075a4:	48 8b 75 f8          	mov    rsi,QWORD PTR [rbp-0x8]
  4075a8:	ff d0                	call   rax
  4075aa:	89 45 94             	mov    DWORD PTR [rbp-0x6c],eax
  4075ad:	83 f8 00             	cmp    eax,0x0
  4075b0:	0f 9e c1             	setle  cl
  4075b3:	88 8d 03 ff ff ff    	mov    BYTE PTR [rbp-0xfd],cl
  4075b9:	8a 85 03 ff ff ff    	mov    al,BYTE PTR [rbp-0xfd]
  4075bf:	a8 01                	test   al,0x1
  4075c1:	0f 85 05 00 00 00    	jne    4075cc <spec_qsort+0x4ac>
  4075c7:	e9 c7 00 00 00       	jmp    407693 <spec_qsort+0x573>
  4075cc:	83 7d 94 00          	cmp    DWORD PTR [rbp-0x6c],0x0
  4075d0:	0f 85 ac 00 00 00    	jne    407682 <spec_qsort+0x562>
  4075d6:	c7 45 88 01 00 00 00 	mov    DWORD PTR [rbp-0x78],0x1
  4075dd:	83 7d 90 00          	cmp    DWORD PTR [rbp-0x70],0x0
  4075e1:	0f 85 2f 00 00 00    	jne    407616 <spec_qsort+0x4f6>
  4075e7:	48 8b 45 d8          	mov    rax,QWORD PTR [rbp-0x28]
  4075eb:	48 8b 00             	mov    rax,QWORD PTR [rax]
  4075ee:	48 89 85 60 ff ff ff 	mov    QWORD PTR [rbp-0xa0],rax
  4075f5:	48 8b 45 d0          	mov    rax,QWORD PTR [rbp-0x30]
  4075f9:	48 8b 00             	mov    rax,QWORD PTR [rax]
  4075fc:	48 8b 4d d8          	mov    rcx,QWORD PTR [rbp-0x28]
  407600:	48 89 01             	mov    QWORD PTR [rcx],rax
  407603:	48 8b 85 60 ff ff ff 	mov    rax,QWORD PTR [rbp-0xa0]
  40760a:	48 8b 4d d0          	mov    rcx,QWORD PTR [rbp-0x30]
  40760e:	48 89 01             	mov    QWORD PTR [rcx],rax
  407611:	e9 60 00 00 00       	jmp    407676 <spec_qsort+0x556>
  407616:	83 7d 8c 00          	cmp    DWORD PTR [rbp-0x74],0x0
  40761a:	0f 85 29 00 00 00    	jne    407649 <spec_qsort+0x529>
  407620:	48 8b 45 d8          	mov    rax,QWORD PTR [rbp-0x28]
  407624:	8b 08                	mov    ecx,DWORD PTR [rax]
  407626:	89 8d 5c ff ff ff    	mov    DWORD PTR [rbp-0xa4],ecx
  40762c:	48 8b 45 d0          	mov    rax,QWORD PTR [rbp-0x30]
  407630:	8b 08                	mov    ecx,DWORD PTR [rax]
  407632:	48 8b 45 d8          	mov    rax,QWORD PTR [rbp-0x28]
  407636:	89 08                	mov    DWORD PTR [rax],ecx
  407638:	8b 8d 5c ff ff ff    	mov    ecx,DWORD PTR [rbp-0xa4]
  40763e:	48 8b 45 d0          	mov    rax,QWORD PTR [rbp-0x30]
  407642:	89 08                	mov    DWORD PTR [rax],ecx
  407644:	e9 28 00 00 00       	jmp    407671 <spec_qsort+0x551>
  407649:	48 8b 7d d8          	mov    rdi,QWORD PTR [rbp-0x28]
  40764d:	48 8b 75 d0          	mov    rsi,QWORD PTR [rbp-0x30]
  407651:	48 8b 45 e8          	mov    rax,QWORD PTR [rbp-0x18]
  407655:	89 c1                	mov    ecx,eax
  407657:	8b 55 90             	mov    edx,DWORD PTR [rbp-0x70]
  40765a:	44 8b 45 8c          	mov    r8d,DWORD PTR [rbp-0x74]
  40765e:	89 95 fc fe ff ff    	mov    DWORD PTR [rbp-0x104],edx
  407664:	89 ca                	mov    edx,ecx
  407666:	8b 8d fc fe ff ff    	mov    ecx,DWORD PTR [rbp-0x104]
  40766c:	e8 6f 05 00 00       	call   407be0 <swapfunc>
  407671:	e9 00 00 00 00       	jmp    407676 <spec_qsort+0x556>
  407676:	48 8b 45 e8          	mov    rax,QWORD PTR [rbp-0x18]
  40767a:	48 03 45 d8          	add    rax,QWORD PTR [rbp-0x28]
  40767e:	48 89 45 d8          	mov    QWORD PTR [rbp-0x28],rax
  407682:	48 8b 45 e8          	mov    rax,QWORD PTR [rbp-0x18]
  407686:	48 03 45 d0          	add    rax,QWORD PTR [rbp-0x30]
  40768a:	48 89 45 d0          	mov    QWORD PTR [rbp-0x30],rax
  40768e:	e9 f1 fe ff ff       	jmp    407584 <spec_qsort+0x464>
  407693:	e9 00 00 00 00       	jmp    407698 <spec_qsort+0x578>
  407698:	31 c0                	xor    eax,eax
  40769a:	88 c1                	mov    cl,al
  40769c:	48 8b 55 d0          	mov    rdx,QWORD PTR [rbp-0x30]
  4076a0:	48 3b 55 c8          	cmp    rdx,QWORD PTR [rbp-0x38]
  4076a4:	88 8d fb fe ff ff    	mov    BYTE PTR [rbp-0x105],cl
  4076aa:	0f 87 1d 00 00 00    	ja     4076cd <spec_qsort+0x5ad>
  4076b0:	48 8b 45 e0          	mov    rax,QWORD PTR [rbp-0x20]
  4076b4:	48 8b 7d c8          	mov    rdi,QWORD PTR [rbp-0x38]
  4076b8:	48 8b 75 f8          	mov    rsi,QWORD PTR [rbp-0x8]
  4076bc:	ff d0                	call   rax
  4076be:	89 45 94             	mov    DWORD PTR [rbp-0x6c],eax
  4076c1:	83 f8 00             	cmp    eax,0x0
  4076c4:	0f 9d c1             	setge  cl
  4076c7:	88 8d fb fe ff ff    	mov    BYTE PTR [rbp-0x105],cl
  4076cd:	8a 85 fb fe ff ff    	mov    al,BYTE PTR [rbp-0x105]
  4076d3:	a8 01                	test   al,0x1
  4076d5:	0f 85 05 00 00 00    	jne    4076e0 <spec_qsort+0x5c0>
  4076db:	e9 db 00 00 00       	jmp    4077bb <spec_qsort+0x69b>
  4076e0:	83 7d 94 00          	cmp    DWORD PTR [rbp-0x6c],0x0
  4076e4:	0f 85 b6 00 00 00    	jne    4077a0 <spec_qsort+0x680>
  4076ea:	c7 45 88 01 00 00 00 	mov    DWORD PTR [rbp-0x78],0x1
  4076f1:	83 7d 90 00          	cmp    DWORD PTR [rbp-0x70],0x0
  4076f5:	0f 85 2f 00 00 00    	jne    40772a <spec_qsort+0x60a>
  4076fb:	48 8b 45 c8          	mov    rax,QWORD PTR [rbp-0x38]
  4076ff:	48 8b 00             	mov    rax,QWORD PTR [rax]
  407702:	48 89 85 50 ff ff ff 	mov    QWORD PTR [rbp-0xb0],rax
  407709:	48 8b 45 c0          	mov    rax,QWORD PTR [rbp-0x40]
  40770d:	48 8b 00             	mov    rax,QWORD PTR [rax]
  407710:	48 8b 4d c8          	mov    rcx,QWORD PTR [rbp-0x38]
  407714:	48 89 01             	mov    QWORD PTR [rcx],rax
  407717:	48 8b 85 50 ff ff ff 	mov    rax,QWORD PTR [rbp-0xb0]
  40771e:	48 8b 4d c0          	mov    rcx,QWORD PTR [rbp-0x40]
  407722:	48 89 01             	mov    QWORD PTR [rcx],rax
  407725:	e9 60 00 00 00       	jmp    40778a <spec_qsort+0x66a>
  40772a:	83 7d 8c 00          	cmp    DWORD PTR [rbp-0x74],0x0
  40772e:	0f 85 29 00 00 00    	jne    40775d <spec_qsort+0x63d>
  407734:	48 8b 45 c8          	mov    rax,QWORD PTR [rbp-0x38]
  407738:	8b 08                	mov    ecx,DWORD PTR [rax]
  40773a:	89 8d 4c ff ff ff    	mov    DWORD PTR [rbp-0xb4],ecx
  407740:	48 8b 45 c0          	mov    rax,QWORD PTR [rbp-0x40]
  407744:	8b 08                	mov    ecx,DWORD PTR [rax]
  407746:	48 8b 45 c8          	mov    rax,QWORD PTR [rbp-0x38]
  40774a:	89 08                	mov    DWORD PTR [rax],ecx
  40774c:	8b 8d 4c ff ff ff    	mov    ecx,DWORD PTR [rbp-0xb4]
  407752:	48 8b 45 c0          	mov    rax,QWORD PTR [rbp-0x40]
  407756:	89 08                	mov    DWORD PTR [rax],ecx
  407758:	e9 28 00 00 00       	jmp    407785 <spec_qsort+0x665>
  40775d:	48 8b 7d c8          	mov    rdi,QWORD PTR [rbp-0x38]
  407761:	48 8b 75 c0          	mov    rsi,QWORD PTR [rbp-0x40]
  407765:	48 8b 45 e8          	mov    rax,QWORD PTR [rbp-0x18]
  407769:	89 c1                	mov    ecx,eax
  40776b:	8b 55 90             	mov    edx,DWORD PTR [rbp-0x70]
  40776e:	44 8b 45 8c          	mov    r8d,DWORD PTR [rbp-0x74]
  407772:	89 95 f4 fe ff ff    	mov    DWORD PTR [rbp-0x10c],edx
  407778:	89 ca                	mov    edx,ecx
  40777a:	8b 8d f4 fe ff ff    	mov    ecx,DWORD PTR [rbp-0x10c]
  407780:	e8 5b 04 00 00       	call   407be0 <swapfunc>
  407785:	e9 00 00 00 00       	jmp    40778a <spec_qsort+0x66a>
  40778a:	31 c0                	xor    eax,eax
  40778c:	89 c1                	mov    ecx,eax
  40778e:	48 8b 55 e8          	mov    rdx,QWORD PTR [rbp-0x18]
  407792:	48 8b 75 c0          	mov    rsi,QWORD PTR [rbp-0x40]
  407796:	48 29 d1             	sub    rcx,rdx
  407799:	48 01 ce             	add    rsi,rcx
  40779c:	48 89 75 c0          	mov    QWORD PTR [rbp-0x40],rsi
  4077a0:	31 c0                	xor    eax,eax
  4077a2:	89 c1                	mov    ecx,eax
  4077a4:	48 8b 55 e8          	mov    rdx,QWORD PTR [rbp-0x18]
  4077a8:	48 8b 75 c8          	mov    rsi,QWORD PTR [rbp-0x38]
  4077ac:	48 29 d1             	sub    rcx,rdx
  4077af:	48 01 ce             	add    rsi,rcx
  4077b2:	48 89 75 c8          	mov    QWORD PTR [rbp-0x38],rsi
  4077b6:	e9 dd fe ff ff       	jmp    407698 <spec_qsort+0x578>
  4077bb:	48 8b 45 d0          	mov    rax,QWORD PTR [rbp-0x30]
  4077bf:	48 3b 45 c8          	cmp    rax,QWORD PTR [rbp-0x38]
  4077c3:	0f 86 05 00 00 00    	jbe    4077ce <spec_qsort+0x6ae>
  4077c9:	e9 c7 00 00 00       	jmp    407895 <spec_qsort+0x775>
  4077ce:	83 7d 90 00          	cmp    DWORD PTR [rbp-0x70],0x0
  4077d2:	0f 85 2f 00 00 00    	jne    407807 <spec_qsort+0x6e7>
  4077d8:	48 8b 45 d0          	mov    rax,QWORD PTR [rbp-0x30]
  4077dc:	48 8b 00             	mov    rax,QWORD PTR [rax]
  4077df:	48 89 85 40 ff ff ff 	mov    QWORD PTR [rbp-0xc0],rax
  4077e6:	48 8b 45 c8          	mov    rax,QWORD PTR [rbp-0x38]
  4077ea:	48 8b 00             	mov    rax,QWORD PTR [rax]
  4077ed:	48 8b 4d d0          	mov    rcx,QWORD PTR [rbp-0x30]
  4077f1:	48 89 01             	mov    QWORD PTR [rcx],rax
  4077f4:	48 8b 85 40 ff ff ff 	mov    rax,QWORD PTR [rbp-0xc0]
  4077fb:	48 8b 4d c8          	mov    rcx,QWORD PTR [rbp-0x38]
  4077ff:	48 89 01             	mov    QWORD PTR [rcx],rax
  407802:	e9 60 00 00 00       	jmp    407867 <spec_qsort+0x747>
  407807:	83 7d 8c 00          	cmp    DWORD PTR [rbp-0x74],0x0
  40780b:	0f 85 29 00 00 00    	jne    40783a <spec_qsort+0x71a>
  407811:	48 8b 45 d0          	mov    rax,QWORD PTR [rbp-0x30]
  407815:	8b 08                	mov    ecx,DWORD PTR [rax]
  407817:	89 8d 3c ff ff ff    	mov    DWORD PTR [rbp-0xc4],ecx
  40781d:	48 8b 45 c8          	mov    rax,QWORD PTR [rbp-0x38]
  407821:	8b 08                	mov    ecx,DWORD PTR [rax]
  407823:	48 8b 45 d0          	mov    rax,QWORD PTR [rbp-0x30]
  407827:	89 08                	mov    DWORD PTR [rax],ecx
  407829:	8b 8d 3c ff ff ff    	mov    ecx,DWORD PTR [rbp-0xc4]
  40782f:	48 8b 45 c8          	mov    rax,QWORD PTR [rbp-0x38]
  407833:	89 08                	mov    DWORD PTR [rax],ecx
  407835:	e9 28 00 00 00       	jmp    407862 <spec_qsort+0x742>
  40783a:	48 8b 7d d0          	mov    rdi,QWORD PTR [rbp-0x30]
  40783e:	48 8b 75 c8          	mov    rsi,QWORD PTR [rbp-0x38]
  407842:	48 8b 45 e8          	mov    rax,QWORD PTR [rbp-0x18]
  407846:	89 c1                	mov    ecx,eax
  407848:	8b 55 90             	mov    edx,DWORD PTR [rbp-0x70]
  40784b:	44 8b 45 8c          	mov    r8d,DWORD PTR [rbp-0x74]
  40784f:	89 95 f0 fe ff ff    	mov    DWORD PTR [rbp-0x110],edx
  407855:	89 ca                	mov    edx,ecx
  407857:	8b 8d f0 fe ff ff    	mov    ecx,DWORD PTR [rbp-0x110]
  40785d:	e8 7e 03 00 00       	call   407be0 <swapfunc>
  407862:	e9 00 00 00 00       	jmp    407867 <spec_qsort+0x747>
  407867:	31 c0                	xor    eax,eax
  407869:	89 c1                	mov    ecx,eax
  40786b:	c7 45 88 01 00 00 00 	mov    DWORD PTR [rbp-0x78],0x1
  407872:	48 8b 55 e8          	mov    rdx,QWORD PTR [rbp-0x18]
  407876:	48 03 55 d0          	add    rdx,QWORD PTR [rbp-0x30]
  40787a:	48 89 55 d0          	mov    QWORD PTR [rbp-0x30],rdx
  40787e:	48 8b 55 e8          	mov    rdx,QWORD PTR [rbp-0x18]
  407882:	48 8b 75 c8          	mov    rsi,QWORD PTR [rbp-0x38]
  407886:	48 29 d1             	sub    rcx,rdx
  407889:	48 01 ce             	add    rsi,rcx
  40788c:	48 89 75 c8          	mov    QWORD PTR [rbp-0x38],rsi
  407890:	e9 ea fc ff ff       	jmp    40757f <spec_qsort+0x45f>
  407895:	83 7d 88 00          	cmp    DWORD PTR [rbp-0x78],0x0
  407899:	0f 85 81 01 00 00    	jne    407a20 <spec_qsort+0x900>
  40789f:	48 8b 45 f8          	mov    rax,QWORD PTR [rbp-0x8]
  4078a3:	48 03 45 e8          	add    rax,QWORD PTR [rbp-0x18]
  4078a7:	48 89 45 b0          	mov    QWORD PTR [rbp-0x50],rax
  4078ab:	48 8b 45 b0          	mov    rax,QWORD PTR [rbp-0x50]
  4078af:	48 8b 4d f8          	mov    rcx,QWORD PTR [rbp-0x8]
  4078b3:	48 8b 55 f0          	mov    rdx,QWORD PTR [rbp-0x10]
  4078b7:	48 0f af 55 e8       	imul   rdx,QWORD PTR [rbp-0x18]
  4078bc:	48 01 d1             	add    rcx,rdx
  4078bf:	48 39 c8             	cmp    rax,rcx
  4078c2:	0f 83 53 01 00 00    	jae    407a1b <spec_qsort+0x8fb>
  4078c8:	48 8b 45 b0          	mov    rax,QWORD PTR [rbp-0x50]
  4078cc:	48 89 45 b8          	mov    QWORD PTR [rbp-0x48],rax
  4078d0:	31 c0                	xor    eax,eax
  4078d2:	88 c1                	mov    cl,al
  4078d4:	48 8b 55 b8          	mov    rdx,QWORD PTR [rbp-0x48]
  4078d8:	48 3b 55 f8          	cmp    rdx,QWORD PTR [rbp-0x8]
  4078dc:	88 8d ef fe ff ff    	mov    BYTE PTR [rbp-0x111],cl
  4078e2:	0f 86 2d 00 00 00    	jbe    407915 <spec_qsort+0x7f5>
  4078e8:	31 c0                	xor    eax,eax
  4078ea:	89 c1                	mov    ecx,eax
  4078ec:	48 8b 55 e0          	mov    rdx,QWORD PTR [rbp-0x20]
  4078f0:	48 8b 75 b8          	mov    rsi,QWORD PTR [rbp-0x48]
  4078f4:	48 2b 4d e8          	sub    rcx,QWORD PTR [rbp-0x18]
  4078f8:	48 01 ce             	add    rsi,rcx
  4078fb:	48 8b 4d b8          	mov    rcx,QWORD PTR [rbp-0x48]
  4078ff:	48 89 f7             	mov    rdi,rsi
  407902:	48 89 ce             	mov    rsi,rcx
  407905:	ff d2                	call   rdx
  407907:	83 f8 00             	cmp    eax,0x0
  40790a:	41 0f 9f c0          	setg   r8b
  40790e:	44 88 85 ef fe ff ff 	mov    BYTE PTR [rbp-0x111],r8b
  407915:	8a 85 ef fe ff ff    	mov    al,BYTE PTR [rbp-0x111]
  40791b:	a8 01                	test   al,0x1
  40791d:	0f 85 05 00 00 00    	jne    407928 <spec_qsort+0x808>
  407923:	e9 dd 00 00 00       	jmp    407a05 <spec_qsort+0x8e5>
  407928:	83 7d 90 00          	cmp    DWORD PTR [rbp-0x70],0x0
  40792c:	0f 85 40 00 00 00    	jne    407972 <spec_qsort+0x852>
  407932:	31 c0                	xor    eax,eax
  407934:	89 c1                	mov    ecx,eax
  407936:	48 8b 55 b8          	mov    rdx,QWORD PTR [rbp-0x48]
  40793a:	48 8b 12             	mov    rdx,QWORD PTR [rdx]
  40793d:	48 89 95 30 ff ff ff 	mov    QWORD PTR [rbp-0xd0],rdx
  407944:	48 8b 55 b8          	mov    rdx,QWORD PTR [rbp-0x48]
  407948:	48 89 ce             	mov    rsi,rcx
  40794b:	48 2b 75 e8          	sub    rsi,QWORD PTR [rbp-0x18]
  40794f:	48 8b 14 32          	mov    rdx,QWORD PTR [rdx+rsi*1]
  407953:	48 8b 75 b8          	mov    rsi,QWORD PTR [rbp-0x48]
  407957:	48 89 16             	mov    QWORD PTR [rsi],rdx
  40795a:	48 8b 95 30 ff ff ff 	mov    rdx,QWORD PTR [rbp-0xd0]
  407961:	48 8b 75 b8          	mov    rsi,QWORD PTR [rbp-0x48]
  407965:	48 2b 4d e8          	sub    rcx,QWORD PTR [rbp-0x18]
  407969:	48 89 14 0e          	mov    QWORD PTR [rsi+rcx*1],rdx
  40796d:	e9 73 00 00 00       	jmp    4079e5 <spec_qsort+0x8c5>
  407972:	83 7d 8c 00          	cmp    DWORD PTR [rbp-0x74],0x0
  407976:	0f 85 3a 00 00 00    	jne    4079b6 <spec_qsort+0x896>
  40797c:	31 c0                	xor    eax,eax
  40797e:	89 c1                	mov    ecx,eax
  407980:	48 8b 55 b8          	mov    rdx,QWORD PTR [rbp-0x48]
  407984:	8b 02                	mov    eax,DWORD PTR [rdx]
  407986:	89 85 2c ff ff ff    	mov    DWORD PTR [rbp-0xd4],eax
  40798c:	48 8b 55 b8          	mov    rdx,QWORD PTR [rbp-0x48]
  407990:	48 89 ce             	mov    rsi,rcx
  407993:	48 2b 75 e8          	sub    rsi,QWORD PTR [rbp-0x18]
  407997:	8b 04 32             	mov    eax,DWORD PTR [rdx+rsi*1]
  40799a:	48 8b 55 b8          	mov    rdx,QWORD PTR [rbp-0x48]
  40799e:	89 02                	mov    DWORD PTR [rdx],eax
  4079a0:	8b 85 2c ff ff ff    	mov    eax,DWORD PTR [rbp-0xd4]
  4079a6:	48 8b 55 b8          	mov    rdx,QWORD PTR [rbp-0x48]
  4079aa:	48 2b 4d e8          	sub    rcx,QWORD PTR [rbp-0x18]
  4079ae:	89 04 0a             	mov    DWORD PTR [rdx+rcx*1],eax
  4079b1:	e9 2a 00 00 00       	jmp    4079e0 <spec_qsort+0x8c0>
  4079b6:	31 c0                	xor    eax,eax
  4079b8:	89 c1                	mov    ecx,eax
  4079ba:	48 8b 7d b8          	mov    rdi,QWORD PTR [rbp-0x48]
  4079be:	48 8b 55 b8          	mov    rdx,QWORD PTR [rbp-0x48]
  4079c2:	48 2b 4d e8          	sub    rcx,QWORD PTR [rbp-0x18]
  4079c6:	48 01 ca             	add    rdx,rcx
  4079c9:	48 8b 4d e8          	mov    rcx,QWORD PTR [rbp-0x18]
  4079cd:	89 c8                	mov    eax,ecx
  4079cf:	8b 4d 90             	mov    ecx,DWORD PTR [rbp-0x70]
  4079d2:	44 8b 45 8c          	mov    r8d,DWORD PTR [rbp-0x74]
  4079d6:	48 89 d6             	mov    rsi,rdx
  4079d9:	89 c2                	mov    edx,eax
  4079db:	e8 00 02 00 00       	call   407be0 <swapfunc>
  4079e0:	e9 00 00 00 00       	jmp    4079e5 <spec_qsort+0x8c5>
  4079e5:	e9 00 00 00 00       	jmp    4079ea <spec_qsort+0x8ca>
  4079ea:	31 c0                	xor    eax,eax
  4079ec:	89 c1                	mov    ecx,eax
  4079ee:	48 8b 55 e8          	mov    rdx,QWORD PTR [rbp-0x18]
  4079f2:	48 8b 75 b8          	mov    rsi,QWORD PTR [rbp-0x48]
  4079f6:	48 29 d1             	sub    rcx,rdx
  4079f9:	48 01 ce             	add    rsi,rcx
  4079fc:	48 89 75 b8          	mov    QWORD PTR [rbp-0x48],rsi
  407a00:	e9 cb fe ff ff       	jmp    4078d0 <spec_qsort+0x7b0>
  407a05:	e9 00 00 00 00       	jmp    407a0a <spec_qsort+0x8ea>
  407a0a:	48 8b 45 e8          	mov    rax,QWORD PTR [rbp-0x18]
  407a0e:	48 03 45 b0          	add    rax,QWORD PTR [rbp-0x50]
  407a12:	48 89 45 b0          	mov    QWORD PTR [rbp-0x50],rax
  407a16:	e9 90 fe ff ff       	jmp    4078ab <spec_qsort+0x78b>
  407a1b:	e9 b7 01 00 00       	jmp    407bd7 <spec_qsort+0xab7>
  407a20:	48 8b 45 f8          	mov    rax,QWORD PTR [rbp-0x8]
  407a24:	48 8b 4d f0          	mov    rcx,QWORD PTR [rbp-0x10]
  407a28:	48 0f af 4d e8       	imul   rcx,QWORD PTR [rbp-0x18]
  407a2d:	48 01 c8             	add    rax,rcx
  407a30:	48 89 45 a8          	mov    QWORD PTR [rbp-0x58],rax
  407a34:	48 8b 45 d8          	mov    rax,QWORD PTR [rbp-0x28]
  407a38:	48 8b 4d f8          	mov    rcx,QWORD PTR [rbp-0x8]
  407a3c:	48 29 c8             	sub    rax,rcx
  407a3f:	48 8b 4d d0          	mov    rcx,QWORD PTR [rbp-0x30]
  407a43:	48 8b 55 d8          	mov    rdx,QWORD PTR [rbp-0x28]
  407a47:	48 29 d1             	sub    rcx,rdx
  407a4a:	48 39 c8             	cmp    rax,rcx
  407a4d:	0f 8d 17 00 00 00    	jge    407a6a <spec_qsort+0x94a>
  407a53:	48 8b 45 d8          	mov    rax,QWORD PTR [rbp-0x28]
  407a57:	48 8b 4d f8          	mov    rcx,QWORD PTR [rbp-0x8]
  407a5b:	48 29 c8             	sub    rax,rcx
  407a5e:	48 89 85 e0 fe ff ff 	mov    QWORD PTR [rbp-0x120],rax
  407a65:	e9 12 00 00 00       	jmp    407a7c <spec_qsort+0x95c>
  407a6a:	48 8b 45 d0          	mov    rax,QWORD PTR [rbp-0x30]
  407a6e:	48 8b 4d d8          	mov    rcx,QWORD PTR [rbp-0x28]
  407a72:	48 29 c8             	sub    rax,rcx
  407a75:	48 89 85 e0 fe ff ff 	mov    QWORD PTR [rbp-0x120],rax
  407a7c:	48 8b 85 e0 fe ff ff 	mov    rax,QWORD PTR [rbp-0x120]
  407a83:	48 89 45 98          	mov    QWORD PTR [rbp-0x68],rax
  407a87:	48 83 7d 98 00       	cmp    QWORD PTR [rbp-0x68],0x0
  407a8c:	0f 86 2a 00 00 00    	jbe    407abc <spec_qsort+0x99c>
  407a92:	31 c0                	xor    eax,eax
  407a94:	89 c1                	mov    ecx,eax
  407a96:	48 8b 7d f8          	mov    rdi,QWORD PTR [rbp-0x8]
  407a9a:	48 8b 55 d0          	mov    rdx,QWORD PTR [rbp-0x30]
  407a9e:	48 2b 4d 98          	sub    rcx,QWORD PTR [rbp-0x68]
  407aa2:	48 01 ca             	add    rdx,rcx
  407aa5:	48 8b 4d 98          	mov    rcx,QWORD PTR [rbp-0x68]
  407aa9:	89 c8                	mov    eax,ecx
  407aab:	8b 4d 90             	mov    ecx,DWORD PTR [rbp-0x70]
  407aae:	44 8b 45 8c          	mov    r8d,DWORD PTR [rbp-0x74]
  407ab2:	48 89 d6             	mov    rsi,rdx
  407ab5:	89 c2                	mov    edx,eax
  407ab7:	e8 24 01 00 00       	call   407be0 <swapfunc>
  407abc:	48 8b 45 c0          	mov    rax,QWORD PTR [rbp-0x40]
  407ac0:	48 8b 4d c8          	mov    rcx,QWORD PTR [rbp-0x38]
  407ac4:	48 29 c8             	sub    rax,rcx
  407ac7:	48 8b 4d a8          	mov    rcx,QWORD PTR [rbp-0x58]
  407acb:	48 8b 55 c0          	mov    rdx,QWORD PTR [rbp-0x40]
  407acf:	48 29 d1             	sub    rcx,rdx
  407ad2:	48 2b 4d e8          	sub    rcx,QWORD PTR [rbp-0x18]
  407ad6:	48 39 c8             	cmp    rax,rcx
  407ad9:	0f 8d 17 00 00 00    	jge    407af6 <spec_qsort+0x9d6>
  407adf:	48 8b 45 c0          	mov    rax,QWORD PTR [rbp-0x40]
  407ae3:	48 8b 4d c8          	mov    rcx,QWORD PTR [rbp-0x38]
  407ae7:	48 29 c8             	sub    rax,rcx
  407aea:	48 89 85 d8 fe ff ff 	mov    QWORD PTR [rbp-0x128],rax
  407af1:	e9 16 00 00 00       	jmp    407b0c <spec_qsort+0x9ec>
  407af6:	48 8b 45 a8          	mov    rax,QWORD PTR [rbp-0x58]
  407afa:	48 8b 4d c0          	mov    rcx,QWORD PTR [rbp-0x40]
  407afe:	48 29 c8             	sub    rax,rcx
  407b01:	48 2b 45 e8          	sub    rax,QWORD PTR [rbp-0x18]
  407b05:	48 89 85 d8 fe ff ff 	mov    QWORD PTR [rbp-0x128],rax
  407b0c:	48 8b 85 d8 fe ff ff 	mov    rax,QWORD PTR [rbp-0x128]
  407b13:	48 89 45 98          	mov    QWORD PTR [rbp-0x68],rax
  407b17:	48 83 7d 98 00       	cmp    QWORD PTR [rbp-0x68],0x0
  407b1c:	0f 86 2a 00 00 00    	jbe    407b4c <spec_qsort+0xa2c>
  407b22:	31 c0                	xor    eax,eax
  407b24:	89 c1                	mov    ecx,eax
  407b26:	48 8b 7d d0          	mov    rdi,QWORD PTR [rbp-0x30]
  407b2a:	48 8b 55 a8          	mov    rdx,QWORD PTR [rbp-0x58]
  407b2e:	48 2b 4d 98          	sub    rcx,QWORD PTR [rbp-0x68]
  407b32:	48 01 ca             	add    rdx,rcx
  407b35:	48 8b 4d 98          	mov    rcx,QWORD PTR [rbp-0x68]
  407b39:	89 c8                	mov    eax,ecx
  407b3b:	8b 4d 90             	mov    ecx,DWORD PTR [rbp-0x70]
  407b3e:	44 8b 45 8c          	mov    r8d,DWORD PTR [rbp-0x74]
  407b42:	48 89 d6             	mov    rsi,rdx
  407b45:	89 c2                	mov    edx,eax
  407b47:	e8 94 00 00 00       	call   407be0 <swapfunc>
  407b4c:	48 8b 45 d0          	mov    rax,QWORD PTR [rbp-0x30]
  407b50:	48 8b 4d d8          	mov    rcx,QWORD PTR [rbp-0x28]
  407b54:	48 29 c8             	sub    rax,rcx
  407b57:	48 89 45 98          	mov    QWORD PTR [rbp-0x68],rax
  407b5b:	48 3b 45 e8          	cmp    rax,QWORD PTR [rbp-0x18]
  407b5f:	0f 86 31 00 00 00    	jbe    407b96 <spec_qsort+0xa76>
  407b65:	48 8b 7d f8          	mov    rdi,QWORD PTR [rbp-0x8]
  407b69:	48 8b 45 98          	mov    rax,QWORD PTR [rbp-0x68]
  407b6d:	31 c9                	xor    ecx,ecx
  407b6f:	89 ca                	mov    edx,ecx
  407b71:	48 f7 75 e8          	div    QWORD PTR [rbp-0x18]
  407b75:	48 8b 75 e8          	mov    rsi,QWORD PTR [rbp-0x18]
  407b79:	48 8b 4d e0          	mov    rcx,QWORD PTR [rbp-0x20]
  407b7d:	48 89 b5 d0 fe ff ff 	mov    QWORD PTR [rbp-0x130],rsi
  407b84:	48 89 c6             	mov    rsi,rax
  407b87:	48 8b 85 d0 fe ff ff 	mov    rax,QWORD PTR [rbp-0x130]
  407b8e:	48 89 c2             	mov    rdx,rax
  407b91:	e8 8a f5 ff ff       	call   407120 <spec_qsort>
  407b96:	48 8b 45 c0          	mov    rax,QWORD PTR [rbp-0x40]
  407b9a:	48 8b 4d c8          	mov    rcx,QWORD PTR [rbp-0x38]
  407b9e:	48 29 c8             	sub    rax,rcx
  407ba1:	48 89 45 98          	mov    QWORD PTR [rbp-0x68],rax
  407ba5:	48 3b 45 e8          	cmp    rax,QWORD PTR [rbp-0x18]
  407ba9:	0f 86 28 00 00 00    	jbe    407bd7 <spec_qsort+0xab7>
  407baf:	31 c0                	xor    eax,eax
  407bb1:	89 c1                	mov    ecx,eax
  407bb3:	48 8b 55 a8          	mov    rdx,QWORD PTR [rbp-0x58]
  407bb7:	48 2b 4d 98          	sub    rcx,QWORD PTR [rbp-0x68]
  407bbb:	48 01 ca             	add    rdx,rcx
  407bbe:	48 89 55 f8          	mov    QWORD PTR [rbp-0x8],rdx
  407bc2:	48 8b 45 98          	mov    rax,QWORD PTR [rbp-0x68]
  407bc6:	31 f6                	xor    esi,esi
  407bc8:	89 f2                	mov    edx,esi
  407bca:	48 f7 75 e8          	div    QWORD PTR [rbp-0x18]
  407bce:	48 89 45 f0          	mov    QWORD PTR [rbp-0x10],rax
  407bd2:	e9 64 f5 ff ff       	jmp    40713b <spec_qsort+0x1b>
  407bd7:	48 81 c4 30 01 00 00 	add    rsp,0x130
  407bde:	5d                   	pop    rbp
  407bdf:	c3                   	ret    

0000000000407be0 <swapfunc>:
  407be0:	55                   	push   rbp
  407be1:	48 89 e5             	mov    rbp,rsp
  407be4:	48 89 7d f8          	mov    QWORD PTR [rbp-0x8],rdi
  407be8:	48 89 75 f0          	mov    QWORD PTR [rbp-0x10],rsi
  407bec:	89 55 ec             	mov    DWORD PTR [rbp-0x14],edx
  407bef:	89 4d e8             	mov    DWORD PTR [rbp-0x18],ecx
  407bf2:	44 89 45 e4          	mov    DWORD PTR [rbp-0x1c],r8d
  407bf6:	83 7d e8 01          	cmp    DWORD PTR [rbp-0x18],0x1
  407bfa:	0f 8f 71 00 00 00    	jg     407c71 <swapfunc+0x91>
  407c00:	48 63 45 ec          	movsxd rax,DWORD PTR [rbp-0x14]
  407c04:	48 c1 e8 03          	shr    rax,0x3
  407c08:	48 89 45 d8          	mov    QWORD PTR [rbp-0x28],rax
  407c0c:	48 8b 45 f8          	mov    rax,QWORD PTR [rbp-0x8]
  407c10:	48 89 45 d0          	mov    QWORD PTR [rbp-0x30],rax
  407c14:	48 8b 45 f0          	mov    rax,QWORD PTR [rbp-0x10]
  407c18:	48 89 45 c8          	mov    QWORD PTR [rbp-0x38],rax
  407c1c:	48 8b 45 d0          	mov    rax,QWORD PTR [rbp-0x30]
  407c20:	48 8b 00             	mov    rax,QWORD PTR [rax]
  407c23:	48 89 45 c0          	mov    QWORD PTR [rbp-0x40],rax
  407c27:	48 8b 45 c8          	mov    rax,QWORD PTR [rbp-0x38]
  407c2b:	48 8b 00             	mov    rax,QWORD PTR [rax]
  407c2e:	48 8b 4d d0          	mov    rcx,QWORD PTR [rbp-0x30]
  407c32:	48 89 ca             	mov    rdx,rcx
  407c35:	48 83 c2 08          	add    rdx,0x8
  407c39:	48 89 55 d0          	mov    QWORD PTR [rbp-0x30],rdx
  407c3d:	48 89 01             	mov    QWORD PTR [rcx],rax
  407c40:	48 8b 45 c0          	mov    rax,QWORD PTR [rbp-0x40]
  407c44:	48 8b 4d c8          	mov    rcx,QWORD PTR [rbp-0x38]
  407c48:	48 89 ca             	mov    rdx,rcx
  407c4b:	48 83 c2 08          	add    rdx,0x8
  407c4f:	48 89 55 c8          	mov    QWORD PTR [rbp-0x38],rdx
  407c53:	48 89 01             	mov    QWORD PTR [rcx],rax
  407c56:	48 8b 45 d8          	mov    rax,QWORD PTR [rbp-0x28]
  407c5a:	48 83 c0 ff          	add    rax,0xffffffffffffffff
  407c5e:	48 89 45 d8          	mov    QWORD PTR [rbp-0x28],rax
  407c62:	48 83 f8 00          	cmp    rax,0x0
  407c66:	0f 8f b0 ff ff ff    	jg     407c1c <swapfunc+0x3c>
  407c6c:	e9 e5 00 00 00       	jmp    407d56 <swapfunc+0x176>
  407c71:	83 7d e4 01          	cmp    DWORD PTR [rbp-0x1c],0x1
  407c75:	0f 8f 6b 00 00 00    	jg     407ce6 <swapfunc+0x106>
  407c7b:	48 63 45 ec          	movsxd rax,DWORD PTR [rbp-0x14]
  407c7f:	48 c1 e8 02          	shr    rax,0x2
  407c83:	48 89 45 b8          	mov    QWORD PTR [rbp-0x48],rax
  407c87:	48 8b 45 f8          	mov    rax,QWORD PTR [rbp-0x8]
  407c8b:	48 89 45 b0          	mov    QWORD PTR [rbp-0x50],rax
  407c8f:	48 8b 45 f0          	mov    rax,QWORD PTR [rbp-0x10]
  407c93:	48 89 45 a8          	mov    QWORD PTR [rbp-0x58],rax
  407c97:	48 8b 45 b0          	mov    rax,QWORD PTR [rbp-0x50]
  407c9b:	8b 08                	mov    ecx,DWORD PTR [rax]
  407c9d:	89 4d a4             	mov    DWORD PTR [rbp-0x5c],ecx
  407ca0:	48 8b 45 a8          	mov    rax,QWORD PTR [rbp-0x58]
  407ca4:	8b 08                	mov    ecx,DWORD PTR [rax]
  407ca6:	48 8b 45 b0          	mov    rax,QWORD PTR [rbp-0x50]
  407caa:	48 89 c2             	mov    rdx,rax
  407cad:	48 83 c2 04          	add    rdx,0x4
  407cb1:	48 89 55 b0          	mov    QWORD PTR [rbp-0x50],rdx
  407cb5:	89 08                	mov    DWORD PTR [rax],ecx
  407cb7:	8b 4d a4             	mov    ecx,DWORD PTR [rbp-0x5c]
  407cba:	48 8b 45 a8          	mov    rax,QWORD PTR [rbp-0x58]
  407cbe:	48 89 c2             	mov    rdx,rax
  407cc1:	48 83 c2 04          	add    rdx,0x4
  407cc5:	48 89 55 a8          	mov    QWORD PTR [rbp-0x58],rdx
  407cc9:	89 08                	mov    DWORD PTR [rax],ecx
  407ccb:	48 8b 45 b8          	mov    rax,QWORD PTR [rbp-0x48]
  407ccf:	48 83 c0 ff          	add    rax,0xffffffffffffffff
  407cd3:	48 89 45 b8          	mov    QWORD PTR [rbp-0x48],rax
  407cd7:	48 83 f8 00          	cmp    rax,0x0
  407cdb:	0f 8f b6 ff ff ff    	jg     407c97 <swapfunc+0xb7>
  407ce1:	e9 6b 00 00 00       	jmp    407d51 <swapfunc+0x171>
  407ce6:	48 63 45 ec          	movsxd rax,DWORD PTR [rbp-0x14]
  407cea:	48 c1 e8 00          	shr    rax,0x0
  407cee:	48 89 45 98          	mov    QWORD PTR [rbp-0x68],rax
  407cf2:	48 8b 45 f8          	mov    rax,QWORD PTR [rbp-0x8]
  407cf6:	48 89 45 90          	mov    QWORD PTR [rbp-0x70],rax
  407cfa:	48 8b 45 f0          	mov    rax,QWORD PTR [rbp-0x10]
  407cfe:	48 89 45 88          	mov    QWORD PTR [rbp-0x78],rax
  407d02:	48 8b 45 90          	mov    rax,QWORD PTR [rbp-0x70]
  407d06:	8a 08                	mov    cl,BYTE PTR [rax]
  407d08:	88 4d 87             	mov    BYTE PTR [rbp-0x79],cl
  407d0b:	48 8b 45 88          	mov    rax,QWORD PTR [rbp-0x78]
  407d0f:	8a 08                	mov    cl,BYTE PTR [rax]
  407d11:	48 8b 45 90          	mov    rax,QWORD PTR [rbp-0x70]
  407d15:	48 89 c2             	mov    rdx,rax
  407d18:	48 83 c2 01          	add    rdx,0x1
  407d1c:	48 89 55 90          	mov    QWORD PTR [rbp-0x70],rdx
  407d20:	88 08                	mov    BYTE PTR [rax],cl
  407d22:	8a 4d 87             	mov    cl,BYTE PTR [rbp-0x79]
  407d25:	48 8b 45 88          	mov    rax,QWORD PTR [rbp-0x78]
  407d29:	48 89 c2             	mov    rdx,rax
  407d2c:	48 83 c2 01          	add    rdx,0x1
  407d30:	48 89 55 88          	mov    QWORD PTR [rbp-0x78],rdx
  407d34:	88 08                	mov    BYTE PTR [rax],cl
  407d36:	48 8b 45 98          	mov    rax,QWORD PTR [rbp-0x68]
  407d3a:	48 83 c0 ff          	add    rax,0xffffffffffffffff
  407d3e:	48 89 45 98          	mov    QWORD PTR [rbp-0x68],rax
  407d42:	48 83 f8 00          	cmp    rax,0x0
  407d46:	0f 8f b6 ff ff ff    	jg     407d02 <swapfunc+0x122>
  407d4c:	e9 00 00 00 00       	jmp    407d51 <swapfunc+0x171>
  407d51:	e9 00 00 00 00       	jmp    407d56 <swapfunc+0x176>
  407d56:	5d                   	pop    rbp
  407d57:	c3                   	ret    
  407d58:	0f 1f 84 00 00 00 00 	nop    DWORD PTR [rax+rax*1+0x0]
  407d5f:	00 

0000000000407d60 <med3>:
  407d60:	55                   	push   rbp
  407d61:	48 89 e5             	mov    rbp,rsp
  407d64:	48 83 ec 50          	sub    rsp,0x50
  407d68:	48 89 7d f8          	mov    QWORD PTR [rbp-0x8],rdi
  407d6c:	48 89 75 f0          	mov    QWORD PTR [rbp-0x10],rsi
  407d70:	48 89 55 e8          	mov    QWORD PTR [rbp-0x18],rdx
  407d74:	48 89 4d e0          	mov    QWORD PTR [rbp-0x20],rcx
  407d78:	48 8b 4d e0          	mov    rcx,QWORD PTR [rbp-0x20]
  407d7c:	48 8b 7d f8          	mov    rdi,QWORD PTR [rbp-0x8]
  407d80:	48 8b 75 f0          	mov    rsi,QWORD PTR [rbp-0x10]
  407d84:	ff d1                	call   rcx
  407d86:	83 f8 00             	cmp    eax,0x0
  407d89:	0f 8d 65 00 00 00    	jge    407df4 <med3+0x94>
  407d8f:	48 8b 45 e0          	mov    rax,QWORD PTR [rbp-0x20]
  407d93:	48 8b 7d f0          	mov    rdi,QWORD PTR [rbp-0x10]
  407d97:	48 8b 75 e8          	mov    rsi,QWORD PTR [rbp-0x18]
  407d9b:	ff d0                	call   rax
  407d9d:	83 f8 00             	cmp    eax,0x0
  407da0:	0f 8d 0d 00 00 00    	jge    407db3 <med3+0x53>
  407da6:	48 8b 45 f0          	mov    rax,QWORD PTR [rbp-0x10]
  407daa:	48 89 45 d8          	mov    QWORD PTR [rbp-0x28],rax
  407dae:	e9 34 00 00 00       	jmp    407de7 <med3+0x87>
  407db3:	48 8b 45 e0          	mov    rax,QWORD PTR [rbp-0x20]
  407db7:	48 8b 7d f8          	mov    rdi,QWORD PTR [rbp-0x8]
  407dbb:	48 8b 75 e8          	mov    rsi,QWORD PTR [rbp-0x18]
  407dbf:	ff d0                	call   rax
  407dc1:	83 f8 00             	cmp    eax,0x0
  407dc4:	0f 8d 0d 00 00 00    	jge    407dd7 <med3+0x77>
  407dca:	48 8b 45 e8          	mov    rax,QWORD PTR [rbp-0x18]
  407dce:	48 89 45 d0          	mov    QWORD PTR [rbp-0x30],rax
  407dd2:	e9 08 00 00 00       	jmp    407ddf <med3+0x7f>
  407dd7:	48 8b 45 f8          	mov    rax,QWORD PTR [rbp-0x8]
  407ddb:	48 89 45 d0          	mov    QWORD PTR [rbp-0x30],rax
  407ddf:	48 8b 45 d0          	mov    rax,QWORD PTR [rbp-0x30]
  407de3:	48 89 45 d8          	mov    QWORD PTR [rbp-0x28],rax
  407de7:	48 8b 45 d8          	mov    rax,QWORD PTR [rbp-0x28]
  407deb:	48 89 45 c8          	mov    QWORD PTR [rbp-0x38],rax
  407def:	e9 60 00 00 00       	jmp    407e54 <med3+0xf4>
  407df4:	48 8b 45 e0          	mov    rax,QWORD PTR [rbp-0x20]
  407df8:	48 8b 7d f0          	mov    rdi,QWORD PTR [rbp-0x10]
  407dfc:	48 8b 75 e8          	mov    rsi,QWORD PTR [rbp-0x18]
  407e00:	ff d0                	call   rax
  407e02:	83 f8 00             	cmp    eax,0x0
  407e05:	0f 8e 0d 00 00 00    	jle    407e18 <med3+0xb8>
  407e0b:	48 8b 45 f0          	mov    rax,QWORD PTR [rbp-0x10]
  407e0f:	48 89 45 c0          	mov    QWORD PTR [rbp-0x40],rax
  407e13:	e9 34 00 00 00       	jmp    407e4c <med3+0xec>
  407e18:	48 8b 45 e0          	mov    rax,QWORD PTR [rbp-0x20]
  407e1c:	48 8b 7d f8          	mov    rdi,QWORD PTR [rbp-0x8]
  407e20:	48 8b 75 e8          	mov    rsi,QWORD PTR [rbp-0x18]
  407e24:	ff d0                	call   rax
  407e26:	83 f8 00             	cmp    eax,0x0
  407e29:	0f 8d 0d 00 00 00    	jge    407e3c <med3+0xdc>
  407e2f:	48 8b 45 f8          	mov    rax,QWORD PTR [rbp-0x8]
  407e33:	48 89 45 b8          	mov    QWORD PTR [rbp-0x48],rax
  407e37:	e9 08 00 00 00       	jmp    407e44 <med3+0xe4>
  407e3c:	48 8b 45 e8          	mov    rax,QWORD PTR [rbp-0x18]
  407e40:	48 89 45 b8          	mov    QWORD PTR [rbp-0x48],rax
  407e44:	48 8b 45 b8          	mov    rax,QWORD PTR [rbp-0x48]
  407e48:	48 89 45 c0          	mov    QWORD PTR [rbp-0x40],rax
  407e4c:	48 8b 45 c0          	mov    rax,QWORD PTR [rbp-0x40]
  407e50:	48 89 45 c8          	mov    QWORD PTR [rbp-0x38],rax
  407e54:	48 8b 45 c8          	mov    rax,QWORD PTR [rbp-0x38]
  407e58:	48 83 c4 50          	add    rsp,0x50
  407e5c:	5d                   	pop    rbp
  407e5d:	c3                   	ret    
  407e5e:	66 90                	xchg   ax,ax

0000000000407e60 <__libc_csu_init>:
  407e60:	f3 0f 1e fa          	endbr64 
  407e64:	41 57                	push   r15
  407e66:	4c 8d 3d 83 1f 00 00 	lea    r15,[rip+0x1f83]        # 409df0 <__frame_dummy_init_array_entry>
  407e6d:	41 56                	push   r14
  407e6f:	49 89 d6             	mov    r14,rdx
  407e72:	41 55                	push   r13
  407e74:	49 89 f5             	mov    r13,rsi
  407e77:	41 54                	push   r12
  407e79:	41 89 fc             	mov    r12d,edi
  407e7c:	55                   	push   rbp
  407e7d:	48 8d 2d 74 1f 00 00 	lea    rbp,[rip+0x1f74]        # 409df8 <__do_global_dtors_aux_fini_array_entry>
  407e84:	53                   	push   rbx
  407e85:	4c 29 fd             	sub    rbp,r15
  407e88:	48 83 ec 08          	sub    rsp,0x8
  407e8c:	e8 6f 91 ff ff       	call   401000 <_init>
  407e91:	48 c1 fd 03          	sar    rbp,0x3
  407e95:	74 1f                	je     407eb6 <__libc_csu_init+0x56>
  407e97:	31 db                	xor    ebx,ebx
  407e99:	0f 1f 80 00 00 00 00 	nop    DWORD PTR [rax+0x0]
  407ea0:	4c 89 f2             	mov    rdx,r14
  407ea3:	4c 89 ee             	mov    rsi,r13
  407ea6:	44 89 e7             	mov    edi,r12d
  407ea9:	41 ff 14 df          	call   QWORD PTR [r15+rbx*8]
  407ead:	48 83 c3 01          	add    rbx,0x1
  407eb1:	48 39 dd             	cmp    rbp,rbx
  407eb4:	75 ea                	jne    407ea0 <__libc_csu_init+0x40>
  407eb6:	48 83 c4 08          	add    rsp,0x8
  407eba:	5b                   	pop    rbx
  407ebb:	5d                   	pop    rbp
  407ebc:	41 5c                	pop    r12
  407ebe:	41 5d                	pop    r13
  407ec0:	41 5e                	pop    r14
  407ec2:	41 5f                	pop    r15
  407ec4:	c3                   	ret    
  407ec5:	66 66 2e 0f 1f 84 00 	data16 cs nop WORD PTR [rax+rax*1+0x0]
  407ecc:	00 00 00 00 

0000000000407ed0 <__libc_csu_fini>:
  407ed0:	f3 0f 1e fa          	endbr64 
  407ed4:	c3                   	ret    

Disassembly of section .fini:

0000000000407ed8 <_fini>:
  407ed8:	f3 0f 1e fa          	endbr64 
  407edc:	48 83 ec 08          	sub    rsp,0x8
  407ee0:	48 83 c4 08          	add    rsp,0x8
  407ee4:	c3                   	ret    
