
/home/jjang/Desktop/sample/llvm/531/deepsjeng_r_op1:     file format elf64-x86-64


Disassembly of section .init:

0000000000401000 <_init>:
  401000:	f3 0f 1e fa          	endbr64 
  401004:	48 83 ec 08          	sub    rsp,0x8
  401008:	48 8b 05 e9 3f 01 00 	mov    rax,QWORD PTR [rip+0x13fe9]        # 414ff8 <__gmon_start__@Base>
  40100f:	48 85 c0             	test   rax,rax
  401012:	74 02                	je     401016 <_init+0x16>
  401014:	ff d0                	call   rax
  401016:	48 83 c4 08          	add    rsp,0x8
  40101a:	c3                   	ret    

Disassembly of section .plt:

0000000000401020 <ungetc@plt-0x10>:
  401020:	ff 35 e2 3f 01 00    	push   QWORD PTR [rip+0x13fe2]        # 415008 <_GLOBAL_OFFSET_TABLE_+0x8>
  401026:	ff 25 e4 3f 01 00    	jmp    QWORD PTR [rip+0x13fe4]        # 415010 <_GLOBAL_OFFSET_TABLE_+0x10>
  40102c:	0f 1f 40 00          	nop    DWORD PTR [rax+0x0]

0000000000401030 <ungetc@plt>:
  401030:	ff 25 e2 3f 01 00    	jmp    QWORD PTR [rip+0x13fe2]        # 415018 <ungetc@GLIBC_2.2.5>
  401036:	68 00 00 00 00       	push   0x0
  40103b:	e9 e0 ff ff ff       	jmp    401020 <_init+0x20>

0000000000401040 <sprintf@plt>:
  401040:	ff 25 da 3f 01 00    	jmp    QWORD PTR [rip+0x13fda]        # 415020 <sprintf@GLIBC_2.2.5>
  401046:	68 01 00 00 00       	push   0x1
  40104b:	e9 d0 ff ff ff       	jmp    401020 <_init+0x20>

0000000000401050 <strstr@plt>:
  401050:	ff 25 d2 3f 01 00    	jmp    QWORD PTR [rip+0x13fd2]        # 415028 <strstr@GLIBC_2.2.5>
  401056:	68 02 00 00 00       	push   0x2
  40105b:	e9 c0 ff ff ff       	jmp    401020 <_init+0x20>

0000000000401060 <getc@plt>:
  401060:	ff 25 ca 3f 01 00    	jmp    QWORD PTR [rip+0x13fca]        # 415030 <getc@GLIBC_2.2.5>
  401066:	68 03 00 00 00       	push   0x3
  40106b:	e9 b0 ff ff ff       	jmp    401020 <_init+0x20>

0000000000401070 <fgets_unlocked@plt>:
  401070:	ff 25 c2 3f 01 00    	jmp    QWORD PTR [rip+0x13fc2]        # 415038 <fgets_unlocked@GLIBC_2.2.5>
  401076:	68 04 00 00 00       	push   0x4
  40107b:	e9 a0 ff ff ff       	jmp    401020 <_init+0x20>

0000000000401080 <strlen@plt>:
  401080:	ff 25 ba 3f 01 00    	jmp    QWORD PTR [rip+0x13fba]        # 415040 <strlen@GLIBC_2.2.5>
  401086:	68 05 00 00 00       	push   0x5
  40108b:	e9 90 ff ff ff       	jmp    401020 <_init+0x20>

0000000000401090 <strncmp@plt>:
  401090:	ff 25 b2 3f 01 00    	jmp    QWORD PTR [rip+0x13fb2]        # 415048 <strncmp@GLIBC_2.2.5>
  401096:	68 06 00 00 00       	push   0x6
  40109b:	e9 80 ff ff ff       	jmp    401020 <_init+0x20>

00000000004010a0 <strncpy@plt>:
  4010a0:	ff 25 aa 3f 01 00    	jmp    QWORD PTR [rip+0x13faa]        # 415050 <strncpy@GLIBC_2.2.5>
  4010a6:	68 07 00 00 00       	push   0x7
  4010ab:	e9 70 ff ff ff       	jmp    401020 <_init+0x20>

00000000004010b0 <memset@plt>:
  4010b0:	ff 25 a2 3f 01 00    	jmp    QWORD PTR [rip+0x13fa2]        # 415058 <memset@GLIBC_2.2.5>
  4010b6:	68 08 00 00 00       	push   0x8
  4010bb:	e9 60 ff ff ff       	jmp    401020 <_init+0x20>

00000000004010c0 <strcpy@plt>:
  4010c0:	ff 25 9a 3f 01 00    	jmp    QWORD PTR [rip+0x13f9a]        # 415060 <strcpy@GLIBC_2.2.5>
  4010c6:	68 09 00 00 00       	push   0x9
  4010cb:	e9 50 ff ff ff       	jmp    401020 <_init+0x20>

00000000004010d0 <__isoc99_sscanf@plt>:
  4010d0:	ff 25 92 3f 01 00    	jmp    QWORD PTR [rip+0x13f92]        # 415068 <__isoc99_sscanf@GLIBC_2.7>
  4010d6:	68 0a 00 00 00       	push   0xa
  4010db:	e9 40 ff ff ff       	jmp    401020 <_init+0x20>

00000000004010e0 <fclose@plt>:
  4010e0:	ff 25 8a 3f 01 00    	jmp    QWORD PTR [rip+0x13f8a]        # 415070 <fclose@GLIBC_2.2.5>
  4010e6:	68 0b 00 00 00       	push   0xb
  4010eb:	e9 30 ff ff ff       	jmp    401020 <_init+0x20>

00000000004010f0 <vprintf@plt>:
  4010f0:	ff 25 82 3f 01 00    	jmp    QWORD PTR [rip+0x13f82]        # 415078 <vprintf@GLIBC_2.2.5>
  4010f6:	68 0c 00 00 00       	push   0xc
  4010fb:	e9 20 ff ff ff       	jmp    401020 <_init+0x20>

0000000000401100 <fopen@plt>:
  401100:	ff 25 7a 3f 01 00    	jmp    QWORD PTR [rip+0x13f7a]        # 415080 <fopen@GLIBC_2.2.5>
  401106:	68 0d 00 00 00       	push   0xd
  40110b:	e9 10 ff ff ff       	jmp    401020 <_init+0x20>

0000000000401110 <free@plt>:
  401110:	ff 25 72 3f 01 00    	jmp    QWORD PTR [rip+0x13f72]        # 415088 <free@GLIBC_2.2.5>
  401116:	68 0e 00 00 00       	push   0xe
  40111b:	e9 00 ff ff ff       	jmp    401020 <_init+0x20>

0000000000401120 <exit@plt>:
  401120:	ff 25 6a 3f 01 00    	jmp    QWORD PTR [rip+0x13f6a]        # 415090 <exit@GLIBC_2.2.5>
  401126:	68 0f 00 00 00       	push   0xf
  40112b:	e9 f0 fe ff ff       	jmp    401020 <_init+0x20>

0000000000401130 <malloc@plt>:
  401130:	ff 25 62 3f 01 00    	jmp    QWORD PTR [rip+0x13f62]        # 415098 <malloc@GLIBC_2.2.5>
  401136:	68 10 00 00 00       	push   0x10
  40113b:	e9 e0 fe ff ff       	jmp    401020 <_init+0x20>

0000000000401140 <vfprintf@plt>:
  401140:	ff 25 5a 3f 01 00    	jmp    QWORD PTR [rip+0x13f5a]        # 4150a0 <vfprintf@GLIBC_2.2.5>
  401146:	68 11 00 00 00       	push   0x11
  40114b:	e9 d0 fe ff ff       	jmp    401020 <_init+0x20>

0000000000401150 <strcmp@plt>:
  401150:	ff 25 52 3f 01 00    	jmp    QWORD PTR [rip+0x13f52]        # 4150a8 <strcmp@GLIBC_2.2.5>
  401156:	68 12 00 00 00       	push   0x12
  40115b:	e9 c0 fe ff ff       	jmp    401020 <_init+0x20>

0000000000401160 <setbuf@plt>:
  401160:	ff 25 4a 3f 01 00    	jmp    QWORD PTR [rip+0x13f4a]        # 4150b0 <setbuf@GLIBC_2.2.5>
  401166:	68 13 00 00 00       	push   0x13
  40116b:	e9 b0 fe ff ff       	jmp    401020 <_init+0x20>

0000000000401170 <fprintf@plt>:
  401170:	ff 25 42 3f 01 00    	jmp    QWORD PTR [rip+0x13f42]        # 4150b8 <fprintf@GLIBC_2.2.5>
  401176:	68 14 00 00 00       	push   0x14
  40117b:	e9 a0 fe ff ff       	jmp    401020 <_init+0x20>

0000000000401180 <atoi@plt>:
  401180:	ff 25 3a 3f 01 00    	jmp    QWORD PTR [rip+0x13f3a]        # 4150c0 <atoi@GLIBC_2.2.5>
  401186:	68 15 00 00 00       	push   0x15
  40118b:	e9 90 fe ff ff       	jmp    401020 <_init+0x20>

0000000000401190 <isalpha@plt>:
  401190:	ff 25 32 3f 01 00    	jmp    QWORD PTR [rip+0x13f32]        # 4150c8 <isalpha@GLIBC_2.2.5>
  401196:	68 16 00 00 00       	push   0x16
  40119b:	e9 80 fe ff ff       	jmp    401020 <_init+0x20>

00000000004011a0 <strcat@plt>:
  4011a0:	ff 25 2a 3f 01 00    	jmp    QWORD PTR [rip+0x13f2a]        # 4150d0 <strcat@GLIBC_2.2.5>
  4011a6:	68 17 00 00 00       	push   0x17
  4011ab:	e9 70 fe ff ff       	jmp    401020 <_init+0x20>

Disassembly of section .text:

00000000004011b0 <_start>:
  4011b0:	f3 0f 1e fa          	endbr64 
  4011b4:	31 ed                	xor    ebp,ebp
  4011b6:	49 89 d1             	mov    r9,rdx
  4011b9:	5e                   	pop    rsi
  4011ba:	48 89 e2             	mov    rdx,rsp
  4011bd:	48 83 e4 f0          	and    rsp,0xfffffffffffffff0
  4011c1:	50                   	push   rax
  4011c2:	54                   	push   rsp
  4011c3:	49 c7 c0 d0 fb 40 00 	mov    r8,0x40fbd0
  4011ca:	48 c7 c1 60 fb 40 00 	mov    rcx,0x40fb60
  4011d1:	48 c7 c7 10 d5 40 00 	mov    rdi,0x40d510
  4011d8:	ff 15 12 3e 01 00    	call   QWORD PTR [rip+0x13e12]        # 414ff0 <__libc_start_main@GLIBC_2.2.5>
  4011de:	f4                   	hlt    
  4011df:	90                   	nop

00000000004011e0 <_dl_relocate_static_pie>:
  4011e0:	f3 0f 1e fa          	endbr64 
  4011e4:	c3                   	ret    
  4011e5:	66 2e 0f 1f 84 00 00 	cs nop WORD PTR [rax+rax*1+0x0]
  4011ec:	00 00 00 
  4011ef:	90                   	nop

00000000004011f0 <deregister_tm_clones>:
  4011f0:	b8 e8 50 41 00       	mov    eax,0x4150e8
  4011f5:	48 3d e8 50 41 00    	cmp    rax,0x4150e8
  4011fb:	74 13                	je     401210 <deregister_tm_clones+0x20>
  4011fd:	b8 00 00 00 00       	mov    eax,0x0
  401202:	48 85 c0             	test   rax,rax
  401205:	74 09                	je     401210 <deregister_tm_clones+0x20>
  401207:	bf e8 50 41 00       	mov    edi,0x4150e8
  40120c:	ff e0                	jmp    rax
  40120e:	66 90                	xchg   ax,ax
  401210:	c3                   	ret    
  401211:	66 66 2e 0f 1f 84 00 	data16 cs nop WORD PTR [rax+rax*1+0x0]
  401218:	00 00 00 00 
  40121c:	0f 1f 40 00          	nop    DWORD PTR [rax+0x0]

0000000000401220 <register_tm_clones>:
  401220:	be e8 50 41 00       	mov    esi,0x4150e8
  401225:	48 81 ee e8 50 41 00 	sub    rsi,0x4150e8
  40122c:	48 89 f0             	mov    rax,rsi
  40122f:	48 c1 ee 3f          	shr    rsi,0x3f
  401233:	48 c1 f8 03          	sar    rax,0x3
  401237:	48 01 c6             	add    rsi,rax
  40123a:	48 d1 fe             	sar    rsi,1
  40123d:	74 11                	je     401250 <register_tm_clones+0x30>
  40123f:	b8 00 00 00 00       	mov    eax,0x0
  401244:	48 85 c0             	test   rax,rax
  401247:	74 07                	je     401250 <register_tm_clones+0x30>
  401249:	bf e8 50 41 00       	mov    edi,0x4150e8
  40124e:	ff e0                	jmp    rax
  401250:	c3                   	ret    
  401251:	66 66 2e 0f 1f 84 00 	data16 cs nop WORD PTR [rax+rax*1+0x0]
  401258:	00 00 00 00 
  40125c:	0f 1f 40 00          	nop    DWORD PTR [rax+0x0]

0000000000401260 <__do_global_dtors_aux>:
  401260:	f3 0f 1e fa          	endbr64 
  401264:	80 3d 9d 3e 01 00 00 	cmp    BYTE PTR [rip+0x13e9d],0x0        # 415108 <completed.8060>
  40126b:	75 13                	jne    401280 <__do_global_dtors_aux+0x20>
  40126d:	55                   	push   rbp
  40126e:	48 89 e5             	mov    rbp,rsp
  401271:	e8 7a ff ff ff       	call   4011f0 <deregister_tm_clones>
  401276:	c6 05 8b 3e 01 00 01 	mov    BYTE PTR [rip+0x13e8b],0x1        # 415108 <completed.8060>
  40127d:	5d                   	pop    rbp
  40127e:	c3                   	ret    
  40127f:	90                   	nop
  401280:	c3                   	ret    
  401281:	66 66 2e 0f 1f 84 00 	data16 cs nop WORD PTR [rax+rax*1+0x0]
  401288:	00 00 00 00 
  40128c:	0f 1f 40 00          	nop    DWORD PTR [rax+0x0]

0000000000401290 <frame_dummy>:
  401290:	f3 0f 1e fa          	endbr64 
  401294:	eb 8a                	jmp    401220 <register_tm_clones>
  401296:	66 2e 0f 1f 84 00 00 	cs nop WORD PTR [rax+rax*1+0x0]
  40129d:	00 00 00 

00000000004012a0 <_Z11is_attackedP7state_tii>:
  4012a0:	55                   	push   rbp
  4012a1:	41 57                	push   r15
  4012a3:	41 56                	push   r14
  4012a5:	41 54                	push   r12
  4012a7:	53                   	push   rbx
  4012a8:	41 89 f4             	mov    r12d,esi
  4012ab:	48 89 fb             	mov    rbx,rdi
  4012ae:	4c 8b b7 08 01 00 00 	mov    r14,QWORD PTR [rdi+0x108]
  4012b5:	85 d2                	test   edx,edx
  4012b7:	0f 84 14 01 00 00    	je     4013d1 <_Z11is_attackedP7state_tii+0x131>
  4012bd:	48 8b 8b 28 01 00 00 	mov    rcx,QWORD PTR [rbx+0x128]
  4012c4:	49 63 ec             	movsxd rbp,r12d
  4012c7:	b8 01 00 00 00       	mov    eax,0x1
  4012cc:	48 85 0c ed 10 55 41 	test   QWORD PTR [rbp*8+0x415510],rcx
  4012d3:	00 
  4012d4:	0f 85 3c 01 00 00    	jne    401416 <_Z11is_attackedP7state_tii+0x176>
  4012da:	48 8b 8b 38 01 00 00 	mov    rcx,QWORD PTR [rbx+0x138]
  4012e1:	b8 03 00 00 00       	mov    eax,0x3
  4012e6:	48 85 0c ed 10 51 41 	test   QWORD PTR [rbp*8+0x415110],rcx
  4012ed:	00 
  4012ee:	0f 85 22 01 00 00    	jne    401416 <_Z11is_attackedP7state_tii+0x176>
  4012f4:	48 8b 8b 48 01 00 00 	mov    rcx,QWORD PTR [rbx+0x148]
  4012fb:	b8 05 00 00 00       	mov    eax,0x5
  401300:	48 85 0c ed 10 53 41 	test   QWORD PTR [rbp*8+0x415310],rcx
  401307:	00 
  401308:	0f 85 08 01 00 00    	jne    401416 <_Z11is_attackedP7state_tii+0x176>
  40130e:	4c 8b bb 68 01 00 00 	mov    r15,QWORD PTR [rbx+0x168]
  401315:	4c 0b bb 58 01 00 00 	or     r15,QWORD PTR [rbx+0x158]
  40131c:	44 89 e0             	mov    eax,r12d
  40131f:	c1 f8 03             	sar    eax,0x3
  401322:	48 98                	cdqe   
  401324:	4c 85 3c c5 50 87 41 	test   QWORD PTR [rax*8+0x418750],r15
  40132b:	00 
  40132c:	74 1c                	je     40134a <_Z11is_attackedP7state_tii+0xaa>
  40132e:	4c 89 f7             	mov    rdi,r14
  401331:	44 89 e6             	mov    esi,r12d
  401334:	e8 17 12 00 00       	call   402550 <_Z11RankAttacksyj>
  401339:	48 89 c1             	mov    rcx,rax
  40133c:	b8 07 00 00 00       	mov    eax,0x7
  401341:	4c 85 f9             	test   rcx,r15
  401344:	0f 85 cc 00 00 00    	jne    401416 <_Z11is_attackedP7state_tii+0x176>
  40134a:	44 89 e0             	mov    eax,r12d
  40134d:	83 e0 07             	and    eax,0x7
  401350:	4c 85 3c c5 10 87 41 	test   QWORD PTR [rax*8+0x418710],r15
  401357:	00 
  401358:	74 1c                	je     401376 <_Z11is_attackedP7state_tii+0xd6>
  40135a:	4c 89 f7             	mov    rdi,r14
  40135d:	44 89 e6             	mov    esi,r12d
  401360:	e8 0b 12 00 00       	call   402570 <_Z11FileAttacksyj>
  401365:	48 89 c1             	mov    rcx,rax
  401368:	b8 07 00 00 00       	mov    eax,0x7
  40136d:	4c 85 f9             	test   rcx,r15
  401370:	0f 85 a0 00 00 00    	jne    401416 <_Z11is_attackedP7state_tii+0x176>
  401376:	4c 8b bb 68 01 00 00 	mov    r15,QWORD PTR [rbx+0x168]
  40137d:	4c 0b bb 78 01 00 00 	or     r15,QWORD PTR [rbx+0x178]
  401384:	4c 85 3c ed 10 83 41 	test   QWORD PTR [rbp*8+0x418310],r15
  40138b:	00 
  40138c:	74 18                	je     4013a6 <_Z11is_attackedP7state_tii+0x106>
  40138e:	4c 89 f7             	mov    rdi,r14
  401391:	44 89 e6             	mov    esi,r12d
  401394:	e8 17 12 00 00       	call   4025b0 <_Z15DiagonalAttacksyj>
  401399:	48 89 c1             	mov    rcx,rax
  40139c:	b8 0b 00 00 00       	mov    eax,0xb
  4013a1:	4c 85 f9             	test   rcx,r15
  4013a4:	75 70                	jne    401416 <_Z11is_attackedP7state_tii+0x176>
  4013a6:	4c 85 3c ed 10 85 41 	test   QWORD PTR [rbp*8+0x418510],r15
  4013ad:	00 
  4013ae:	0f 84 25 01 00 00    	je     4014d9 <_Z11is_attackedP7state_tii+0x239>
  4013b4:	4c 89 f7             	mov    rdi,r14
  4013b7:	44 89 e6             	mov    esi,r12d
  4013ba:	e8 21 12 00 00       	call   4025e0 <_Z15AntiDiagAttacksyj>
  4013bf:	48 89 c1             	mov    rcx,rax
  4013c2:	b8 0b 00 00 00       	mov    eax,0xb
  4013c7:	4c 85 f9             	test   rcx,r15
  4013ca:	75 4a                	jne    401416 <_Z11is_attackedP7state_tii+0x176>
  4013cc:	e9 08 01 00 00       	jmp    4014d9 <_Z11is_attackedP7state_tii+0x239>
  4013d1:	48 8b 8b 30 01 00 00 	mov    rcx,QWORD PTR [rbx+0x130]
  4013d8:	4d 63 fc             	movsxd r15,r12d
  4013db:	b8 02 00 00 00       	mov    eax,0x2
  4013e0:	4a 85 0c fd 10 57 41 	test   QWORD PTR [r15*8+0x415710],rcx
  4013e7:	00 
  4013e8:	75 2c                	jne    401416 <_Z11is_attackedP7state_tii+0x176>
  4013ea:	48 8b 8b 40 01 00 00 	mov    rcx,QWORD PTR [rbx+0x140]
  4013f1:	b8 04 00 00 00       	mov    eax,0x4
  4013f6:	4a 85 0c fd 10 51 41 	test   QWORD PTR [r15*8+0x415110],rcx
  4013fd:	00 
  4013fe:	75 16                	jne    401416 <_Z11is_attackedP7state_tii+0x176>
  401400:	48 8b 8b 50 01 00 00 	mov    rcx,QWORD PTR [rbx+0x150]
  401407:	b8 06 00 00 00       	mov    eax,0x6
  40140c:	4a 85 0c fd 10 53 41 	test   QWORD PTR [r15*8+0x415310],rcx
  401413:	00 
  401414:	74 09                	je     40141f <_Z11is_attackedP7state_tii+0x17f>
  401416:	5b                   	pop    rbx
  401417:	41 5c                	pop    r12
  401419:	41 5e                	pop    r14
  40141b:	41 5f                	pop    r15
  40141d:	5d                   	pop    rbp
  40141e:	c3                   	ret    
  40141f:	44 89 e0             	mov    eax,r12d
  401422:	48 8b ab 70 01 00 00 	mov    rbp,QWORD PTR [rbx+0x170]
  401429:	48 0b ab 60 01 00 00 	or     rbp,QWORD PTR [rbx+0x160]
  401430:	c1 f8 03             	sar    eax,0x3
  401433:	48 98                	cdqe   
  401435:	48 85 2c c5 50 87 41 	test   QWORD PTR [rax*8+0x418750],rbp
  40143c:	00 
  40143d:	74 18                	je     401457 <_Z11is_attackedP7state_tii+0x1b7>
  40143f:	4c 89 f7             	mov    rdi,r14
  401442:	44 89 e6             	mov    esi,r12d
  401445:	e8 06 11 00 00       	call   402550 <_Z11RankAttacksyj>
  40144a:	48 89 c1             	mov    rcx,rax
  40144d:	b8 08 00 00 00       	mov    eax,0x8
  401452:	48 85 e9             	test   rcx,rbp
  401455:	75 bf                	jne    401416 <_Z11is_attackedP7state_tii+0x176>
  401457:	44 89 e0             	mov    eax,r12d
  40145a:	83 e0 07             	and    eax,0x7
  40145d:	48 85 2c c5 10 87 41 	test   QWORD PTR [rax*8+0x418710],rbp
  401464:	00 
  401465:	74 18                	je     40147f <_Z11is_attackedP7state_tii+0x1df>
  401467:	4c 89 f7             	mov    rdi,r14
  40146a:	44 89 e6             	mov    esi,r12d
  40146d:	e8 fe 10 00 00       	call   402570 <_Z11FileAttacksyj>
  401472:	48 89 c1             	mov    rcx,rax
  401475:	b8 08 00 00 00       	mov    eax,0x8
  40147a:	48 85 e9             	test   rcx,rbp
  40147d:	75 97                	jne    401416 <_Z11is_attackedP7state_tii+0x176>
  40147f:	48 8b ab 70 01 00 00 	mov    rbp,QWORD PTR [rbx+0x170]
  401486:	48 0b ab 80 01 00 00 	or     rbp,QWORD PTR [rbx+0x180]
  40148d:	4a 85 2c fd 10 83 41 	test   QWORD PTR [r15*8+0x418310],rbp
  401494:	00 
  401495:	74 1c                	je     4014b3 <_Z11is_attackedP7state_tii+0x213>
  401497:	4c 89 f7             	mov    rdi,r14
  40149a:	44 89 e6             	mov    esi,r12d
  40149d:	e8 0e 11 00 00       	call   4025b0 <_Z15DiagonalAttacksyj>
  4014a2:	48 89 c1             	mov    rcx,rax
  4014a5:	b8 0c 00 00 00       	mov    eax,0xc
  4014aa:	48 85 e9             	test   rcx,rbp
  4014ad:	0f 85 63 ff ff ff    	jne    401416 <_Z11is_attackedP7state_tii+0x176>
  4014b3:	4a 85 2c fd 10 85 41 	test   QWORD PTR [r15*8+0x418510],rbp
  4014ba:	00 
  4014bb:	74 1c                	je     4014d9 <_Z11is_attackedP7state_tii+0x239>
  4014bd:	4c 89 f7             	mov    rdi,r14
  4014c0:	44 89 e6             	mov    esi,r12d
  4014c3:	e8 18 11 00 00       	call   4025e0 <_Z15AntiDiagAttacksyj>
  4014c8:	48 89 c1             	mov    rcx,rax
  4014cb:	b8 0c 00 00 00       	mov    eax,0xc
  4014d0:	48 85 e9             	test   rcx,rbp
  4014d3:	0f 85 3d ff ff ff    	jne    401416 <_Z11is_attackedP7state_tii+0x176>
  4014d9:	31 c0                	xor    eax,eax
  4014db:	e9 36 ff ff ff       	jmp    401416 <_Z11is_attackedP7state_tii+0x176>

00000000004014e0 <_Z8in_checkP7state_t>:
  4014e0:	83 bf cc 01 00 00 00 	cmp    DWORD PTR [rdi+0x1cc],0x0
  4014e7:	74 0d                	je     4014f6 <_Z8in_checkP7state_t+0x16>
  4014e9:	8b b7 d0 01 00 00    	mov    esi,DWORD PTR [rdi+0x1d0]
  4014ef:	31 d2                	xor    edx,edx
  4014f1:	e9 aa fd ff ff       	jmp    4012a0 <_Z11is_attackedP7state_tii>
  4014f6:	8b b7 d4 01 00 00    	mov    esi,DWORD PTR [rdi+0x1d4]
  4014fc:	ba 01 00 00 00       	mov    edx,0x1
  401501:	e9 9a fd ff ff       	jmp    4012a0 <_Z11is_attackedP7state_tii>
  401506:	66 2e 0f 1f 84 00 00 	cs nop WORD PTR [rax+rax*1+0x0]
  40150d:	00 00 00 

0000000000401510 <_Z10attacks_toP7state_ti>:
  401510:	55                   	push   rbp
  401511:	41 57                	push   r15
  401513:	41 56                	push   r14
  401515:	41 55                	push   r13
  401517:	41 54                	push   r12
  401519:	53                   	push   rbx
  40151a:	50                   	push   rax
  40151b:	41 89 f7             	mov    r15d,esi
  40151e:	41 89 f5             	mov    r13d,esi
  401521:	41 83 e5 07          	and    r13d,0x7
  401525:	89 f0                	mov    eax,esi
  401527:	4c 63 e6             	movsxd r12,esi
  40152a:	4a 8b 0c e5 10 57 41 	mov    rcx,QWORD PTR [r12*8+0x415710]
  401531:	00 
  401532:	48 23 8f 30 01 00 00 	and    rcx,QWORD PTR [rdi+0x130]
  401539:	48 8b 97 38 01 00 00 	mov    rdx,QWORD PTR [rdi+0x138]
  401540:	4a 8b 34 e5 10 55 41 	mov    rsi,QWORD PTR [r12*8+0x415510]
  401547:	00 
  401548:	48 23 b7 28 01 00 00 	and    rsi,QWORD PTR [rdi+0x128]
  40154f:	48 0b 97 40 01 00 00 	or     rdx,QWORD PTR [rdi+0x140]
  401556:	4a 23 14 e5 10 51 41 	and    rdx,QWORD PTR [r12*8+0x415110]
  40155d:	00 
  40155e:	48 09 ce             	or     rsi,rcx
  401561:	48 8b 9f 48 01 00 00 	mov    rbx,QWORD PTR [rdi+0x148]
  401568:	48 0b 9f 50 01 00 00 	or     rbx,QWORD PTR [rdi+0x150]
  40156f:	4a 23 1c e5 10 53 41 	and    rbx,QWORD PTR [r12*8+0x415310]
  401576:	00 
  401577:	48 09 d3             	or     rbx,rdx
  40157a:	48 8b af 68 01 00 00 	mov    rbp,QWORD PTR [rdi+0x168]
  401581:	48 0b af 70 01 00 00 	or     rbp,QWORD PTR [rdi+0x170]
  401588:	4c 8b b7 60 01 00 00 	mov    r14,QWORD PTR [rdi+0x160]
  40158f:	49 09 ee             	or     r14,rbp
  401592:	4c 0b b7 58 01 00 00 	or     r14,QWORD PTR [rdi+0x158]
  401599:	48 0b af 80 01 00 00 	or     rbp,QWORD PTR [rdi+0x180]
  4015a0:	c1 f8 03             	sar    eax,0x3
  4015a3:	48 0b af 78 01 00 00 	or     rbp,QWORD PTR [rdi+0x178]
  4015aa:	48 8b bf 08 01 00 00 	mov    rdi,QWORD PTR [rdi+0x108]
  4015b1:	48 09 f3             	or     rbx,rsi
  4015b4:	48 98                	cdqe   
  4015b6:	4c 85 34 c5 50 87 41 	test   QWORD PTR [rax*8+0x418750],r14
  4015bd:	00 
  4015be:	48 89 3c 24          	mov    QWORD PTR [rsp],rdi
  4015c2:	74 0e                	je     4015d2 <_Z10attacks_toP7state_ti+0xc2>
  4015c4:	44 89 fe             	mov    esi,r15d
  4015c7:	e8 84 0f 00 00       	call   402550 <_Z11RankAttacksyj>
  4015cc:	4c 21 f0             	and    rax,r14
  4015cf:	48 09 c3             	or     rbx,rax
  4015d2:	44 89 e8             	mov    eax,r13d
  4015d5:	4c 85 34 c5 10 87 41 	test   QWORD PTR [rax*8+0x418710],r14
  4015dc:	00 
  4015dd:	74 5d                	je     40163c <_Z10attacks_toP7state_ti+0x12c>
  4015df:	4c 8b 2c 24          	mov    r13,QWORD PTR [rsp]
  4015e3:	4c 89 ef             	mov    rdi,r13
  4015e6:	44 89 fe             	mov    esi,r15d
  4015e9:	e8 82 0f 00 00       	call   402570 <_Z11FileAttacksyj>
  4015ee:	4c 21 f0             	and    rax,r14
  4015f1:	48 09 c3             	or     rbx,rax
  4015f4:	4a 85 2c e5 10 83 41 	test   QWORD PTR [r12*8+0x418310],rbp
  4015fb:	00 
  4015fc:	74 11                	je     40160f <_Z10attacks_toP7state_ti+0xff>
  4015fe:	4c 89 ef             	mov    rdi,r13
  401601:	44 89 fe             	mov    esi,r15d
  401604:	e8 a7 0f 00 00       	call   4025b0 <_Z15DiagonalAttacksyj>
  401609:	48 21 e8             	and    rax,rbp
  40160c:	48 09 c3             	or     rbx,rax
  40160f:	4a 85 2c e5 10 85 41 	test   QWORD PTR [r12*8+0x418510],rbp
  401616:	00 
  401617:	74 11                	je     40162a <_Z10attacks_toP7state_ti+0x11a>
  401619:	4c 89 ef             	mov    rdi,r13
  40161c:	44 89 fe             	mov    esi,r15d
  40161f:	e8 bc 0f 00 00       	call   4025e0 <_Z15AntiDiagAttacksyj>
  401624:	48 21 e8             	and    rax,rbp
  401627:	48 09 c3             	or     rbx,rax
  40162a:	48 89 d8             	mov    rax,rbx
  40162d:	48 83 c4 08          	add    rsp,0x8
  401631:	5b                   	pop    rbx
  401632:	41 5c                	pop    r12
  401634:	41 5d                	pop    r13
  401636:	41 5e                	pop    r14
  401638:	41 5f                	pop    r15
  40163a:	5d                   	pop    rbp
  40163b:	c3                   	ret    
  40163c:	4c 8b 2c 24          	mov    r13,QWORD PTR [rsp]
  401640:	4a 85 2c e5 10 83 41 	test   QWORD PTR [r12*8+0x418310],rbp
  401647:	00 
  401648:	75 b4                	jne    4015fe <_Z10attacks_toP7state_ti+0xee>
  40164a:	eb c3                	jmp    40160f <_Z10attacks_toP7state_ti+0xff>
  40164c:	0f 1f 40 00          	nop    DWORD PTR [rax+0x0]

0000000000401650 <_Z13PrintBitboardy>:
  401650:	41 56                	push   r14
  401652:	53                   	push   rbx
  401653:	50                   	push   rax
  401654:	49 89 fe             	mov    r14,rdi
  401657:	31 db                	xor    ebx,ebx
  401659:	0f 1f 80 00 00 00 00 	nop    DWORD PTR [rax+0x0]
  401660:	49 0f a3 de          	bt     r14,rbx
  401664:	73 0a                	jae    401670 <_Z13PrintBitboardy+0x20>
  401666:	bf 04 00 41 00       	mov    edi,0x410004
  40166b:	eb 08                	jmp    401675 <_Z13PrintBitboardy+0x25>
  40166d:	0f 1f 00             	nop    DWORD PTR [rax]
  401670:	bf 06 00 41 00       	mov    edi,0x410006
  401675:	31 c0                	xor    eax,eax
  401677:	e8 54 ce 00 00       	call   40e4d0 <_Z8myprintfPKcz>
  40167c:	89 d8                	mov    eax,ebx
  40167e:	83 e0 07             	and    eax,0x7
  401681:	48 83 f8 07          	cmp    rax,0x7
  401685:	75 0c                	jne    401693 <_Z13PrintBitboardy+0x43>
  401687:	bf 61 19 41 00       	mov    edi,0x411961
  40168c:	31 c0                	xor    eax,eax
  40168e:	e8 3d ce 00 00       	call   40e4d0 <_Z8myprintfPKcz>
  401693:	48 83 c3 01          	add    rbx,0x1
  401697:	48 83 fb 40          	cmp    rbx,0x40
  40169b:	75 c3                	jne    401660 <_Z13PrintBitboardy+0x10>
  40169d:	bf 61 19 41 00       	mov    edi,0x411961
  4016a2:	31 c0                	xor    eax,eax
  4016a4:	48 83 c4 08          	add    rsp,0x8
  4016a8:	5b                   	pop    rbx
  4016a9:	41 5e                	pop    r14
  4016ab:	e9 20 ce 00 00       	jmp    40e4d0 <_Z8myprintfPKcz>

00000000004016b0 <_Z17PrintRotBitboardsP7state_t>:
  4016b0:	53                   	push   rbx
  4016b1:	48 89 fb             	mov    rbx,rdi
  4016b4:	bf 08 00 41 00       	mov    edi,0x410008
  4016b9:	31 c0                	xor    eax,eax
  4016bb:	e8 10 ce 00 00       	call   40e4d0 <_Z8myprintfPKcz>
  4016c0:	48 8b bb 08 01 00 00 	mov    rdi,QWORD PTR [rbx+0x108]
  4016c7:	5b                   	pop    rbx
  4016c8:	eb 86                	jmp    401650 <_Z13PrintBitboardy>
  4016ca:	66 0f 1f 44 00 00    	nop    WORD PTR [rax+rax*1+0x0]

00000000004016d0 <_Z17PrintAllBitboardsP7state_t>:
  4016d0:	53                   	push   rbx
  4016d1:	48 89 fb             	mov    rbx,rdi
  4016d4:	bf 0d 00 41 00       	mov    edi,0x41000d
  4016d9:	31 c0                	xor    eax,eax
  4016db:	e8 f0 cd 00 00       	call   40e4d0 <_Z8myprintfPKcz>
  4016e0:	48 8b bb 18 01 00 00 	mov    rdi,QWORD PTR [rbx+0x118]
  4016e7:	e8 64 ff ff ff       	call   401650 <_Z13PrintBitboardy>
  4016ec:	bf 1a 00 41 00       	mov    edi,0x41001a
  4016f1:	31 c0                	xor    eax,eax
  4016f3:	e8 d8 cd 00 00       	call   40e4d0 <_Z8myprintfPKcz>
  4016f8:	48 8b bb 10 01 00 00 	mov    rdi,QWORD PTR [rbx+0x110]
  4016ff:	e8 4c ff ff ff       	call   401650 <_Z13PrintBitboardy>
  401704:	bf 08 00 41 00       	mov    edi,0x410008
  401709:	31 c0                	xor    eax,eax
  40170b:	e8 c0 cd 00 00       	call   40e4d0 <_Z8myprintfPKcz>
  401710:	48 8b bb 08 01 00 00 	mov    rdi,QWORD PTR [rbx+0x108]
  401717:	e8 34 ff ff ff       	call   401650 <_Z13PrintBitboardy>
  40171c:	bf 27 00 41 00       	mov    edi,0x410027
  401721:	31 c0                	xor    eax,eax
  401723:	e8 a8 cd 00 00       	call   40e4d0 <_Z8myprintfPKcz>
  401728:	48 8b bb 28 01 00 00 	mov    rdi,QWORD PTR [rbx+0x128]
  40172f:	e8 1c ff ff ff       	call   401650 <_Z13PrintBitboardy>
  401734:	bf 33 00 41 00       	mov    edi,0x410033
  401739:	31 c0                	xor    eax,eax
  40173b:	e8 90 cd 00 00       	call   40e4d0 <_Z8myprintfPKcz>
  401740:	48 8b bb 30 01 00 00 	mov    rdi,QWORD PTR [rbx+0x130]
  401747:	e8 04 ff ff ff       	call   401650 <_Z13PrintBitboardy>
  40174c:	bf 3f 00 41 00       	mov    edi,0x41003f
  401751:	31 c0                	xor    eax,eax
  401753:	e8 78 cd 00 00       	call   40e4d0 <_Z8myprintfPKcz>
  401758:	48 8b bb 38 01 00 00 	mov    rdi,QWORD PTR [rbx+0x138]
  40175f:	e8 ec fe ff ff       	call   401650 <_Z13PrintBitboardy>
  401764:	bf 4d 00 41 00       	mov    edi,0x41004d
  401769:	31 c0                	xor    eax,eax
  40176b:	e8 60 cd 00 00       	call   40e4d0 <_Z8myprintfPKcz>
  401770:	48 8b bb 40 01 00 00 	mov    rdi,QWORD PTR [rbx+0x140]
  401777:	e8 d4 fe ff ff       	call   401650 <_Z13PrintBitboardy>
  40177c:	bf 5b 00 41 00       	mov    edi,0x41005b
  401781:	31 c0                	xor    eax,eax
  401783:	e8 48 cd 00 00       	call   40e4d0 <_Z8myprintfPKcz>
  401788:	48 8b bb 78 01 00 00 	mov    rdi,QWORD PTR [rbx+0x178]
  40178f:	e8 bc fe ff ff       	call   401650 <_Z13PrintBitboardy>
  401794:	bf 69 00 41 00       	mov    edi,0x410069
  401799:	31 c0                	xor    eax,eax
  40179b:	e8 30 cd 00 00       	call   40e4d0 <_Z8myprintfPKcz>
  4017a0:	48 8b bb 80 01 00 00 	mov    rdi,QWORD PTR [rbx+0x180]
  4017a7:	e8 a4 fe ff ff       	call   401650 <_Z13PrintBitboardy>
  4017ac:	bf 77 00 41 00       	mov    edi,0x410077
  4017b1:	31 c0                	xor    eax,eax
  4017b3:	e8 18 cd 00 00       	call   40e4d0 <_Z8myprintfPKcz>
  4017b8:	48 8b bb 58 01 00 00 	mov    rdi,QWORD PTR [rbx+0x158]
  4017bf:	e8 8c fe ff ff       	call   401650 <_Z13PrintBitboardy>
  4017c4:	bf 83 00 41 00       	mov    edi,0x410083
  4017c9:	31 c0                	xor    eax,eax
  4017cb:	e8 00 cd 00 00       	call   40e4d0 <_Z8myprintfPKcz>
  4017d0:	48 8b bb 60 01 00 00 	mov    rdi,QWORD PTR [rbx+0x160]
  4017d7:	e8 74 fe ff ff       	call   401650 <_Z13PrintBitboardy>
  4017dc:	bf 8f 00 41 00       	mov    edi,0x41008f
  4017e1:	31 c0                	xor    eax,eax
  4017e3:	e8 e8 cc 00 00       	call   40e4d0 <_Z8myprintfPKcz>
  4017e8:	48 8b bb 68 01 00 00 	mov    rdi,QWORD PTR [rbx+0x168]
  4017ef:	e8 5c fe ff ff       	call   401650 <_Z13PrintBitboardy>
  4017f4:	bf 9c 00 41 00       	mov    edi,0x41009c
  4017f9:	31 c0                	xor    eax,eax
  4017fb:	e8 d0 cc 00 00       	call   40e4d0 <_Z8myprintfPKcz>
  401800:	48 8b bb 70 01 00 00 	mov    rdi,QWORD PTR [rbx+0x170]
  401807:	5b                   	pop    rbx
  401808:	e9 43 fe ff ff       	jmp    401650 <_Z13PrintBitboardy>
  40180d:	0f 1f 00             	nop    DWORD PTR [rax]

0000000000401810 <_Z22SetupPrecalculatedDatav>:
  401810:	31 c9                	xor    ecx,ecx
  401812:	66 2e 0f 1f 84 00 00 	cs nop WORD PTR [rax+rax*1+0x0]
  401819:	00 00 00 
  40181c:	0f 1f 40 00          	nop    DWORD PTR [rax+0x0]
  401820:	b8 01 00 00 00       	mov    eax,0x1
  401825:	48 d3 e0             	shl    rax,cl
  401828:	48 c7 c2 fe ff ff ff 	mov    rdx,0xfffffffffffffffe
  40182f:	48 d3 c2             	rol    rdx,cl
  401832:	48 89 04 cd 10 7f 41 	mov    QWORD PTR [rcx*8+0x417f10],rax
  401839:	00 
  40183a:	48 89 14 cd 10 81 41 	mov    QWORD PTR [rcx*8+0x418110],rdx
  401841:	00 
  401842:	48 83 c1 01          	add    rcx,0x1
  401846:	48 83 f9 40          	cmp    rcx,0x40
  40184a:	75 d4                	jne    401820 <_Z22SetupPrecalculatedDatav+0x10>
  40184c:	31 c0                	xor    eax,eax
  40184e:	66 90                	xchg   ax,ax
  401850:	48 c7 04 c5 10 87 41 	mov    QWORD PTR [rax*8+0x418710],0x0
  401857:	00 00 00 00 00 
  40185c:	48 89 c1             	mov    rcx,rax
  40185f:	31 d2                	xor    edx,edx
  401861:	66 2e 0f 1f 84 00 00 	cs nop WORD PTR [rax+rax*1+0x0]
  401868:	00 00 00 
  40186b:	0f 1f 44 00 00       	nop    DWORD PTR [rax+rax*1+0x0]
  401870:	48 0b 14 cd 10 7f 41 	or     rdx,QWORD PTR [rcx*8+0x417f10]
  401877:	00 
  401878:	48 83 c1 08          	add    rcx,0x8
  40187c:	48 83 f9 40          	cmp    rcx,0x40
  401880:	72 ee                	jb     401870 <_Z22SetupPrecalculatedDatav+0x60>
  401882:	89 c1                	mov    ecx,eax
  401884:	c0 e1 03             	shl    cl,0x3
  401887:	be ff 00 00 00       	mov    esi,0xff
  40188c:	48 d3 e6             	shl    rsi,cl
  40188f:	48 89 14 c5 10 87 41 	mov    QWORD PTR [rax*8+0x418710],rdx
  401896:	00 
  401897:	48 89 34 c5 50 87 41 	mov    QWORD PTR [rax*8+0x418750],rsi
  40189e:	00 
  40189f:	48 83 c0 01          	add    rax,0x1
  4018a3:	48 83 f8 08          	cmp    rax,0x8
  4018a7:	75 a7                	jne    401850 <_Z22SetupPrecalculatedDatav+0x40>
  4018a9:	31 c0                	xor    eax,eax
  4018ab:	b9 08 00 00 00       	mov    ecx,0x8
  4018b0:	48 c7 04 c5 b0 8e 41 	mov    QWORD PTR [rax*8+0x418eb0],0x0
  4018b7:	00 00 00 00 00 
  4018bc:	48 c7 04 c5 b0 90 41 	mov    QWORD PTR [rax*8+0x4190b0],0x0
  4018c3:	00 00 00 00 00 
  4018c8:	48 83 f8 08          	cmp    rax,0x8
  4018cc:	72 36                	jb     401904 <_Z22SetupPrecalculatedDatav+0xf4>
  4018ce:	48 8b 14 c5 b0 8e 41 	mov    rdx,QWORD PTR [rax*8+0x418eb0]
  4018d5:	00 
  4018d6:	48 89 ce             	mov    rsi,rcx
  4018d9:	0f 1f 80 00 00 00 00 	nop    DWORD PTR [rax+0x0]
  4018e0:	48 0b 14 f5 90 7e 41 	or     rdx,QWORD PTR [rsi*8+0x417e90]
  4018e7:	00 
  4018e8:	48 83 c6 f8          	add    rsi,0xfffffffffffffff8
  4018ec:	48 83 fe 0f          	cmp    rsi,0xf
  4018f0:	7f ee                	jg     4018e0 <_Z22SetupPrecalculatedDatav+0xd0>
  4018f2:	48 89 14 c5 b0 8e 41 	mov    QWORD PTR [rax*8+0x418eb0],rdx
  4018f9:	00 
  4018fa:	48 8d 50 08          	lea    rdx,[rax+0x8]
  4018fe:	48 83 fa 3f          	cmp    rdx,0x3f
  401902:	77 26                	ja     40192a <_Z22SetupPrecalculatedDatav+0x11a>
  401904:	48 8b 14 c5 b0 90 41 	mov    rdx,QWORD PTR [rax*8+0x4190b0]
  40190b:	00 
  40190c:	48 89 ce             	mov    rsi,rcx
  40190f:	90                   	nop
  401910:	48 0b 14 f5 10 7f 41 	or     rdx,QWORD PTR [rsi*8+0x417f10]
  401917:	00 
  401918:	48 83 c6 08          	add    rsi,0x8
  40191c:	48 83 fe 40          	cmp    rsi,0x40
  401920:	72 ee                	jb     401910 <_Z22SetupPrecalculatedDatav+0x100>
  401922:	48 89 14 c5 b0 90 41 	mov    QWORD PTR [rax*8+0x4190b0],rdx
  401929:	00 
  40192a:	48 83 c0 01          	add    rax,0x1
  40192e:	48 83 c1 01          	add    rcx,0x1
  401932:	48 83 f8 40          	cmp    rax,0x40
  401936:	0f 85 74 ff ff ff    	jne    4018b0 <_Z22SetupPrecalculatedDatav+0xa0>
  40193c:	55                   	push   rbp
  40193d:	41 57                	push   r15
  40193f:	41 56                	push   r14
  401941:	41 55                	push   r13
  401943:	41 54                	push   r12
  401945:	53                   	push   rbx
  401946:	48 81 ec 98 00 00 00 	sub    rsp,0x98
  40194d:	31 db                	xor    ebx,ebx
  40194f:	4c 8d 74 24 04       	lea    r14,[rsp+0x4]
  401954:	49 89 e7             	mov    r15,rsp
  401957:	66 0f 1f 84 00 00 00 	nop    WORD PTR [rax+rax*1+0x0]
  40195e:	00 00 
  401960:	48 c7 04 dd 10 83 41 	mov    QWORD PTR [rbx*8+0x418310],0x0
  401967:	00 00 00 00 00 
  40196c:	48 c7 04 dd 10 85 41 	mov    QWORD PTR [rbx*8+0x418510],0x0
  401973:	00 00 00 00 00 
  401978:	41 89 dc             	mov    r12d,ebx
  40197b:	41 83 e4 07          	and    r12d,0x7
  40197f:	44 89 64 24 04       	mov    DWORD PTR [rsp+0x4],r12d
  401984:	89 dd                	mov    ebp,ebx
  401986:	c1 ed 03             	shr    ebp,0x3
  401989:	b8 07 00 00 00       	mov    eax,0x7
  40198e:	29 e8                	sub    eax,ebp
  401990:	89 04 24             	mov    DWORD PTR [rsp],eax
  401993:	4c 89 f7             	mov    rdi,r14
  401996:	4c 89 fe             	mov    rsi,r15
  401999:	e8 d2 0c 00 00       	call   402670 <_ZSt3minIiERKT_S2_S2_>
  40199e:	8b 30                	mov    esi,DWORD PTR [rax]
  4019a0:	48 63 0c 9d b0 00 41 	movsxd rcx,DWORD PTR [rbx*4+0x4100b0]
  4019a7:	00 
  4019a8:	48 8b 04 dd 10 83 41 	mov    rax,QWORD PTR [rbx*8+0x418310]
  4019af:	00 
  4019b0:	8d 14 f5 00 00 00 00 	lea    edx,[rsi*8+0x0]
  4019b7:	29 f2                	sub    edx,esi
  4019b9:	01 da                	add    edx,ebx
  4019bb:	31 f6                	xor    esi,esi
  4019bd:	0f 1f 00             	nop    DWORD PTR [rax]
  4019c0:	48 63 d2             	movsxd rdx,edx
  4019c3:	48 0b 04 d5 10 7f 41 	or     rax,QWORD PTR [rdx*8+0x417f10]
  4019ca:	00 
  4019cb:	48 83 c6 01          	add    rsi,0x1
  4019cf:	83 c2 f9             	add    edx,0xfffffff9
  4019d2:	48 39 ce             	cmp    rsi,rcx
  4019d5:	7c e9                	jl     4019c0 <_Z22SetupPrecalculatedDatav+0x1b0>
  4019d7:	48 89 04 dd 10 83 41 	mov    QWORD PTR [rbx*8+0x418310],rax
  4019de:	00 
  4019df:	44 89 64 24 04       	mov    DWORD PTR [rsp+0x4],r12d
  4019e4:	89 2c 24             	mov    DWORD PTR [rsp],ebp
  4019e7:	4c 89 f7             	mov    rdi,r14
  4019ea:	4c 89 fe             	mov    rsi,r15
  4019ed:	e8 7e 0c 00 00       	call   402670 <_ZSt3minIiERKT_S2_S2_>
  4019f2:	8b 10                	mov    edx,DWORD PTR [rax]
  4019f4:	48 63 0c 9d b0 01 41 	movsxd rcx,DWORD PTR [rbx*4+0x4101b0]
  4019fb:	00 
  4019fc:	48 8b 04 dd 10 85 41 	mov    rax,QWORD PTR [rbx*8+0x418510]
  401a03:	00 
  401a04:	8d 34 d2             	lea    esi,[rdx+rdx*8]
  401a07:	89 da                	mov    edx,ebx
  401a09:	29 f2                	sub    edx,esi
  401a0b:	31 f6                	xor    esi,esi
  401a0d:	0f 1f 00             	nop    DWORD PTR [rax]
  401a10:	48 63 d2             	movsxd rdx,edx
  401a13:	48 0b 04 d5 10 7f 41 	or     rax,QWORD PTR [rdx*8+0x417f10]
  401a1a:	00 
  401a1b:	48 83 c6 01          	add    rsi,0x1
  401a1f:	83 c2 09             	add    edx,0x9
  401a22:	48 39 ce             	cmp    rsi,rcx
  401a25:	7c e9                	jl     401a10 <_Z22SetupPrecalculatedDatav+0x200>
  401a27:	48 89 04 dd 10 85 41 	mov    QWORD PTR [rbx*8+0x418510],rax
  401a2e:	00 
  401a2f:	48 83 c3 01          	add    rbx,0x1
  401a33:	48 83 fb 40          	cmp    rbx,0x40
  401a37:	0f 85 23 ff ff ff    	jne    401960 <_Z22SetupPrecalculatedDatav+0x150>
  401a3d:	31 c0                	xor    eax,eax
  401a3f:	49 b8 00 00 00 00 03 	movabs r8,0x300000000
  401a46:	00 00 00 
  401a49:	0f 1f 80 00 00 00 00 	nop    DWORD PTR [rax+0x0]
  401a50:	48 89 c2             	mov    rdx,rax
  401a53:	48 c1 ea 03          	shr    rdx,0x3
  401a57:	41 89 c2             	mov    r10d,eax
  401a5a:	41 83 e2 07          	and    r10d,0x7
  401a5e:	49 8d 0c d2          	lea    rcx,[r10+rdx*8]
  401a62:	48 83 c1 ee          	add    rcx,0xffffffffffffffee
  401a66:	48 c7 04 c5 d0 92 41 	mov    QWORD PTR [rax*8+0x4192d0],0x0
  401a6d:	00 00 00 00 00 
  401a72:	49 8d 6a fe          	lea    rbp,[r10-0x2]
  401a76:	49 83 c2 02          	add    r10,0x2
  401a7a:	4c 8d 4a fe          	lea    r9,[rdx-0x2]
  401a7e:	48 c1 e2 20          	shl    rdx,0x20
  401a82:	4c 01 c2             	add    rdx,r8
  401a85:	48 c1 fa 20          	sar    rdx,0x20
  401a89:	0f 1f 80 00 00 00 00 	nop    DWORD PTR [rax+0x0]
  401a90:	83 fd 07             	cmp    ebp,0x7
  401a93:	77 34                	ja     401ac9 <_Z22SetupPrecalculatedDatav+0x2b9>
  401a95:	48 89 cf             	mov    rdi,rcx
  401a98:	4c 89 cb             	mov    rbx,r9
  401a9b:	0f 1f 44 00 00       	nop    DWORD PTR [rax+rax*1+0x0]
  401aa0:	83 fb 07             	cmp    ebx,0x7
  401aa3:	77 17                	ja     401abc <_Z22SetupPrecalculatedDatav+0x2ac>
  401aa5:	89 fe                	mov    esi,edi
  401aa7:	48 39 f0             	cmp    rax,rsi
  401aaa:	74 10                	je     401abc <_Z22SetupPrecalculatedDatav+0x2ac>
  401aac:	48 8b 34 fd 10 7f 41 	mov    rsi,QWORD PTR [rdi*8+0x417f10]
  401ab3:	00 
  401ab4:	48 09 34 c5 d0 92 41 	or     QWORD PTR [rax*8+0x4192d0],rsi
  401abb:	00 
  401abc:	48 83 c3 01          	add    rbx,0x1
  401ac0:	48 83 c7 08          	add    rdi,0x8
  401ac4:	48 39 da             	cmp    rdx,rbx
  401ac7:	75 d7                	jne    401aa0 <_Z22SetupPrecalculatedDatav+0x290>
  401ac9:	48 83 c1 01          	add    rcx,0x1
  401acd:	4c 39 d5             	cmp    rbp,r10
  401ad0:	48 8d 6d 01          	lea    rbp,[rbp+0x1]
  401ad4:	75 ba                	jne    401a90 <_Z22SetupPrecalculatedDatav+0x280>
  401ad6:	48 83 c0 01          	add    rax,0x1
  401ada:	48 83 f8 40          	cmp    rax,0x40
  401ade:	0f 85 6c ff ff ff    	jne    401a50 <_Z22SetupPrecalculatedDatav+0x240>
  401ae4:	31 c0                	xor    eax,eax
  401ae6:	66 2e 0f 1f 84 00 00 	cs nop WORD PTR [rax+rax*1+0x0]
  401aed:	00 00 00 
  401af0:	48 89 c1             	mov    rcx,rax
  401af3:	48 c1 e9 03          	shr    rcx,0x3
  401af7:	41 89 c0             	mov    r8d,eax
  401afa:	41 83 e0 07          	and    r8d,0x7
  401afe:	49 8d 2c c8          	lea    rbp,[r8+rcx*8]
  401b02:	48 83 c5 f7          	add    rbp,0xfffffffffffffff7
  401b06:	48 83 c1 ff          	add    rcx,0xffffffffffffffff
  401b0a:	48 c7 04 c5 d0 94 41 	mov    QWORD PTR [rax*8+0x4194d0],0x0
  401b11:	00 00 00 00 00 
  401b16:	49 8d 78 ff          	lea    rdi,[r8-0x1]
  401b1a:	49 83 c0 01          	add    r8,0x1
  401b1e:	66 90                	xchg   ax,ax
  401b20:	83 ff 07             	cmp    edi,0x7
  401b23:	77 38                	ja     401b5d <_Z22SetupPrecalculatedDatav+0x34d>
  401b25:	48 89 ee             	mov    rsi,rbp
  401b28:	31 db                	xor    ebx,ebx
  401b2a:	66 0f 1f 44 00 00    	nop    WORD PTR [rax+rax*1+0x0]
  401b30:	8d 14 19             	lea    edx,[rcx+rbx*1]
  401b33:	83 fa 07             	cmp    edx,0x7
  401b36:	77 17                	ja     401b4f <_Z22SetupPrecalculatedDatav+0x33f>
  401b38:	89 f2                	mov    edx,esi
  401b3a:	48 39 d0             	cmp    rax,rdx
  401b3d:	74 10                	je     401b4f <_Z22SetupPrecalculatedDatav+0x33f>
  401b3f:	48 8b 14 f5 10 7f 41 	mov    rdx,QWORD PTR [rsi*8+0x417f10]
  401b46:	00 
  401b47:	48 09 14 c5 d0 94 41 	or     QWORD PTR [rax*8+0x4194d0],rdx
  401b4e:	00 
  401b4f:	48 83 c3 01          	add    rbx,0x1
  401b53:	48 83 c6 08          	add    rsi,0x8
  401b57:	48 83 fb 03          	cmp    rbx,0x3
  401b5b:	75 d3                	jne    401b30 <_Z22SetupPrecalculatedDatav+0x320>
  401b5d:	48 83 c5 01          	add    rbp,0x1
  401b61:	4c 39 c7             	cmp    rdi,r8
  401b64:	48 8d 7f 01          	lea    rdi,[rdi+0x1]
  401b68:	75 b6                	jne    401b20 <_Z22SetupPrecalculatedDatav+0x310>
  401b6a:	48 83 c0 01          	add    rax,0x1
  401b6e:	48 83 f8 40          	cmp    rax,0x40
  401b72:	0f 85 78 ff ff ff    	jne    401af0 <_Z22SetupPrecalculatedDatav+0x2e0>
  401b78:	31 c0                	xor    eax,eax
  401b7a:	66 0f 1f 44 00 00    	nop    WORD PTR [rax+rax*1+0x0]
  401b80:	b9 0f 00 00 00       	mov    ecx,0xf
  401b85:	66 2e 0f 1f 84 00 00 	cs nop WORD PTR [rax+rax*1+0x0]
  401b8c:	00 00 00 
  401b8f:	90                   	nop
  401b90:	0f a3 c8             	bt     eax,ecx
  401b93:	72 0b                	jb     401ba0 <_Z22SetupPrecalculatedDatav+0x390>
  401b95:	83 c1 ff             	add    ecx,0xffffffff
  401b98:	83 f9 ff             	cmp    ecx,0xffffffff
  401b9b:	75 f3                	jne    401b90 <_Z22SetupPrecalculatedDatav+0x380>
  401b9d:	eb 07                	jmp    401ba6 <_Z22SetupPrecalculatedDatav+0x396>
  401b9f:	90                   	nop
  401ba0:	88 88 60 9b 41 00    	mov    BYTE PTR [rax+0x419b60],cl
  401ba6:	48 83 c0 01          	add    rax,0x1
  401baa:	48 3d ff ff 00 00    	cmp    rax,0xffff
  401bb0:	75 ce                	jne    401b80 <_Z22SetupPrecalculatedDatav+0x370>
  401bb2:	31 c0                	xor    eax,eax
  401bb4:	66 2e 0f 1f 84 00 00 	cs nop WORD PTR [rax+rax*1+0x0]
  401bbb:	00 00 00 
  401bbe:	66 90                	xchg   ax,ax
  401bc0:	48 c7 04 c5 10 55 41 	mov    QWORD PTR [rax*8+0x415510],0x0
  401bc7:	00 00 00 00 00 
  401bcc:	48 c7 04 c5 10 57 41 	mov    QWORD PTR [rax*8+0x415710],0x0
  401bd3:	00 00 00 00 00 
  401bd8:	48 c7 04 c5 10 59 41 	mov    QWORD PTR [rax*8+0x415910],0x0
  401bdf:	00 00 00 00 00 
  401be4:	48 c7 04 c5 10 5b 41 	mov    QWORD PTR [rax*8+0x415b10],0x0
  401beb:	00 00 00 00 00 
  401bf0:	89 c1                	mov    ecx,eax
  401bf2:	83 e1 07             	and    ecx,0x7
  401bf5:	74 31                	je     401c28 <_Z22SetupPrecalculatedDatav+0x418>
  401bf7:	48 83 f8 37          	cmp    rax,0x37
  401bfb:	77 16                	ja     401c13 <_Z22SetupPrecalculatedDatav+0x403>
  401bfd:	48 8b 14 c5 48 7f 41 	mov    rdx,QWORD PTR [rax*8+0x417f48]
  401c04:	00 
  401c05:	48 89 14 c5 10 55 41 	mov    QWORD PTR [rax*8+0x415510],rdx
  401c0c:	00 
  401c0d:	48 83 f8 08          	cmp    rax,0x8
  401c11:	72 10                	jb     401c23 <_Z22SetupPrecalculatedDatav+0x413>
  401c13:	48 8b 14 c5 c8 7e 41 	mov    rdx,QWORD PTR [rax*8+0x417ec8]
  401c1a:	00 
  401c1b:	48 89 14 c5 10 57 41 	mov    QWORD PTR [rax*8+0x415710],rdx
  401c22:	00 
  401c23:	83 f9 07             	cmp    ecx,0x7
  401c26:	74 2c                	je     401c54 <_Z22SetupPrecalculatedDatav+0x444>
  401c28:	48 83 f8 37          	cmp    rax,0x37
  401c2c:	77 16                	ja     401c44 <_Z22SetupPrecalculatedDatav+0x434>
  401c2e:	48 8b 0c c5 58 7f 41 	mov    rcx,QWORD PTR [rax*8+0x417f58]
  401c35:	00 
  401c36:	48 09 0c c5 10 55 41 	or     QWORD PTR [rax*8+0x415510],rcx
  401c3d:	00 
  401c3e:	48 83 f8 08          	cmp    rax,0x8
  401c42:	72 10                	jb     401c54 <_Z22SetupPrecalculatedDatav+0x444>
  401c44:	48 8b 0c c5 d8 7e 41 	mov    rcx,QWORD PTR [rax*8+0x417ed8]
  401c4b:	00 
  401c4c:	48 09 0c c5 10 57 41 	or     QWORD PTR [rax*8+0x415710],rcx
  401c53:	00 
  401c54:	89 c1                	mov    ecx,eax
  401c56:	c1 e9 03             	shr    ecx,0x3
  401c59:	81 e1 ff ff ff 0f    	and    ecx,0xfffffff
  401c5f:	74 5f                	je     401cc0 <_Z22SetupPrecalculatedDatav+0x4b0>
  401c61:	83 f9 07             	cmp    ecx,0x7
  401c64:	74 5a                	je     401cc0 <_Z22SetupPrecalculatedDatav+0x4b0>
  401c66:	48 8b 14 c5 50 7f 41 	mov    rdx,QWORD PTR [rax*8+0x417f50]
  401c6d:	00 
  401c6e:	48 89 14 c5 10 59 41 	mov    QWORD PTR [rax*8+0x415910],rdx
  401c75:	00 
  401c76:	48 8b 34 c5 d0 7e 41 	mov    rsi,QWORD PTR [rax*8+0x417ed0]
  401c7d:	00 
  401c7e:	48 89 34 c5 10 5b 41 	mov    QWORD PTR [rax*8+0x415b10],rsi
  401c85:	00 
  401c86:	83 f9 06             	cmp    ecx,0x6
  401c89:	74 17                	je     401ca2 <_Z22SetupPrecalculatedDatav+0x492>
  401c8b:	83 f9 01             	cmp    ecx,0x1
  401c8e:	75 30                	jne    401cc0 <_Z22SetupPrecalculatedDatav+0x4b0>
  401c90:	48 0b 14 c5 90 7f 41 	or     rdx,QWORD PTR [rax*8+0x417f90]
  401c97:	00 
  401c98:	48 89 14 c5 10 59 41 	mov    QWORD PTR [rax*8+0x415910],rdx
  401c9f:	00 
  401ca0:	eb 1e                	jmp    401cc0 <_Z22SetupPrecalculatedDatav+0x4b0>
  401ca2:	48 0b 34 c5 90 7e 41 	or     rsi,QWORD PTR [rax*8+0x417e90]
  401ca9:	00 
  401caa:	48 89 34 c5 10 5b 41 	mov    QWORD PTR [rax*8+0x415b10],rsi
  401cb1:	00 
  401cb2:	66 2e 0f 1f 84 00 00 	cs nop WORD PTR [rax+rax*1+0x0]
  401cb9:	00 00 00 
  401cbc:	0f 1f 40 00          	nop    DWORD PTR [rax+0x0]
  401cc0:	48 83 c0 01          	add    rax,0x1
  401cc4:	48 83 f8 40          	cmp    rax,0x40
  401cc8:	0f 85 f2 fe ff ff    	jne    401bc0 <_Z22SetupPrecalculatedDatav+0x3b0>
  401cce:	31 c0                	xor    eax,eax
  401cd0:	48 c7 04 c5 10 51 41 	mov    QWORD PTR [rax*8+0x415110],0x0
  401cd7:	00 00 00 00 00 
  401cdc:	89 c1                	mov    ecx,eax
  401cde:	c1 e9 03             	shr    ecx,0x3
  401ce1:	81 e1 ff ff ff 0f    	and    ecx,0xfffffff
  401ce7:	74 60                	je     401d49 <_Z22SetupPrecalculatedDatav+0x539>
  401ce9:	83 f9 01             	cmp    ecx,0x1
  401cec:	74 2c                	je     401d1a <_Z22SetupPrecalculatedDatav+0x50a>
  401cee:	89 c1                	mov    ecx,eax
  401cf0:	83 e1 07             	and    ecx,0x7
  401cf3:	74 15                	je     401d0a <_Z22SetupPrecalculatedDatav+0x4fa>
  401cf5:	48 8b 14 c5 88 7e 41 	mov    rdx,QWORD PTR [rax*8+0x417e88]
  401cfc:	00 
  401cfd:	48 89 14 c5 10 51 41 	mov    QWORD PTR [rax*8+0x415110],rdx
  401d04:	00 
  401d05:	83 f9 07             	cmp    ecx,0x7
  401d08:	74 10                	je     401d1a <_Z22SetupPrecalculatedDatav+0x50a>
  401d0a:	48 8b 0c c5 98 7e 41 	mov    rcx,QWORD PTR [rax*8+0x417e98]
  401d11:	00 
  401d12:	48 09 0c c5 10 51 41 	or     QWORD PTR [rax*8+0x415110],rcx
  401d19:	00 
  401d1a:	89 c1                	mov    ecx,eax
  401d1c:	83 e1 07             	and    ecx,0x7
  401d1f:	83 f9 02             	cmp    ecx,0x2
  401d22:	72 15                	jb     401d39 <_Z22SetupPrecalculatedDatav+0x529>
  401d24:	48 8b 14 c5 c0 7e 41 	mov    rdx,QWORD PTR [rax*8+0x417ec0]
  401d2b:	00 
  401d2c:	48 09 14 c5 10 51 41 	or     QWORD PTR [rax*8+0x415110],rdx
  401d33:	00 
  401d34:	83 f9 05             	cmp    ecx,0x5
  401d37:	77 10                	ja     401d49 <_Z22SetupPrecalculatedDatav+0x539>
  401d39:	48 8b 0c c5 e0 7e 41 	mov    rcx,QWORD PTR [rax*8+0x417ee0]
  401d40:	00 
  401d41:	48 09 0c c5 10 51 41 	or     QWORD PTR [rax*8+0x415110],rcx
  401d48:	00 
  401d49:	48 83 f8 37          	cmp    rax,0x37
  401d4d:	77 61                	ja     401db0 <_Z22SetupPrecalculatedDatav+0x5a0>
  401d4f:	48 83 f8 2f          	cmp    rax,0x2f
  401d53:	77 2c                	ja     401d81 <_Z22SetupPrecalculatedDatav+0x571>
  401d55:	89 c1                	mov    ecx,eax
  401d57:	83 e1 07             	and    ecx,0x7
  401d5a:	74 15                	je     401d71 <_Z22SetupPrecalculatedDatav+0x561>
  401d5c:	48 8b 14 c5 88 7f 41 	mov    rdx,QWORD PTR [rax*8+0x417f88]
  401d63:	00 
  401d64:	48 09 14 c5 10 51 41 	or     QWORD PTR [rax*8+0x415110],rdx
  401d6b:	00 
  401d6c:	83 f9 07             	cmp    ecx,0x7
  401d6f:	74 10                	je     401d81 <_Z22SetupPrecalculatedDatav+0x571>
  401d71:	48 8b 0c c5 98 7f 41 	mov    rcx,QWORD PTR [rax*8+0x417f98]
  401d78:	00 
  401d79:	48 09 0c c5 10 51 41 	or     QWORD PTR [rax*8+0x415110],rcx
  401d80:	00 
  401d81:	89 c1                	mov    ecx,eax
  401d83:	83 e1 07             	and    ecx,0x7
  401d86:	83 f9 02             	cmp    ecx,0x2
  401d89:	72 15                	jb     401da0 <_Z22SetupPrecalculatedDatav+0x590>
  401d8b:	48 8b 14 c5 40 7f 41 	mov    rdx,QWORD PTR [rax*8+0x417f40]
  401d92:	00 
  401d93:	48 09 14 c5 10 51 41 	or     QWORD PTR [rax*8+0x415110],rdx
  401d9a:	00 
  401d9b:	83 f9 05             	cmp    ecx,0x5
  401d9e:	77 10                	ja     401db0 <_Z22SetupPrecalculatedDatav+0x5a0>
  401da0:	48 8b 0c c5 60 7f 41 	mov    rcx,QWORD PTR [rax*8+0x417f60]
  401da7:	00 
  401da8:	48 09 0c c5 10 51 41 	or     QWORD PTR [rax*8+0x415110],rcx
  401daf:	00 
  401db0:	48 83 c0 01          	add    rax,0x1
  401db4:	48 83 f8 40          	cmp    rax,0x40
  401db8:	0f 85 12 ff ff ff    	jne    401cd0 <_Z22SetupPrecalculatedDatav+0x4c0>
  401dbe:	31 c9                	xor    ecx,ecx
  401dc0:	48 c7 04 cd 10 53 41 	mov    QWORD PTR [rcx*8+0x415310],0x0
  401dc7:	00 00 00 00 00 
  401dcc:	f7 c1 f8 ff ff 7f    	test   ecx,0x7ffffff8
  401dd2:	74 3c                	je     401e10 <_Z22SetupPrecalculatedDatav+0x600>
  401dd4:	89 c8                	mov    eax,ecx
  401dd6:	83 e0 07             	and    eax,0x7
  401dd9:	74 15                	je     401df0 <_Z22SetupPrecalculatedDatav+0x5e0>
  401ddb:	48 8b 14 cd c8 7e 41 	mov    rdx,QWORD PTR [rcx*8+0x417ec8]
  401de2:	00 
  401de3:	48 89 14 cd 10 53 41 	mov    QWORD PTR [rcx*8+0x415310],rdx
  401dea:	00 
  401deb:	83 f8 07             	cmp    eax,0x7
  401dee:	74 10                	je     401e00 <_Z22SetupPrecalculatedDatav+0x5f0>
  401df0:	48 8b 04 cd d8 7e 41 	mov    rax,QWORD PTR [rcx*8+0x417ed8]
  401df7:	00 
  401df8:	48 09 04 cd 10 53 41 	or     QWORD PTR [rcx*8+0x415310],rax
  401dff:	00 
  401e00:	48 8b 04 cd d0 7e 41 	mov    rax,QWORD PTR [rcx*8+0x417ed0]
  401e07:	00 
  401e08:	48 09 04 cd 10 53 41 	or     QWORD PTR [rcx*8+0x415310],rax
  401e0f:	00 
  401e10:	48 83 f9 37          	cmp    rcx,0x37
  401e14:	77 3c                	ja     401e52 <_Z22SetupPrecalculatedDatav+0x642>
  401e16:	89 c8                	mov    eax,ecx
  401e18:	83 e0 07             	and    eax,0x7
  401e1b:	74 15                	je     401e32 <_Z22SetupPrecalculatedDatav+0x622>
  401e1d:	48 8b 14 cd 48 7f 41 	mov    rdx,QWORD PTR [rcx*8+0x417f48]
  401e24:	00 
  401e25:	48 09 14 cd 10 53 41 	or     QWORD PTR [rcx*8+0x415310],rdx
  401e2c:	00 
  401e2d:	83 f8 07             	cmp    eax,0x7
  401e30:	74 10                	je     401e42 <_Z22SetupPrecalculatedDatav+0x632>
  401e32:	48 8b 04 cd 58 7f 41 	mov    rax,QWORD PTR [rcx*8+0x417f58]
  401e39:	00 
  401e3a:	48 09 04 cd 10 53 41 	or     QWORD PTR [rcx*8+0x415310],rax
  401e41:	00 
  401e42:	b8 00 01 00 00       	mov    eax,0x100
  401e47:	48 d3 e0             	shl    rax,cl
  401e4a:	48 01 04 cd 10 53 41 	add    QWORD PTR [rcx*8+0x415310],rax
  401e51:	00 
  401e52:	89 c8                	mov    eax,ecx
  401e54:	83 e0 07             	and    eax,0x7
  401e57:	74 15                	je     401e6e <_Z22SetupPrecalculatedDatav+0x65e>
  401e59:	48 8b 14 cd 08 7f 41 	mov    rdx,QWORD PTR [rcx*8+0x417f08]
  401e60:	00 
  401e61:	48 09 14 cd 10 53 41 	or     QWORD PTR [rcx*8+0x415310],rdx
  401e68:	00 
  401e69:	83 f8 07             	cmp    eax,0x7
  401e6c:	74 10                	je     401e7e <_Z22SetupPrecalculatedDatav+0x66e>
  401e6e:	48 8b 04 cd 18 7f 41 	mov    rax,QWORD PTR [rcx*8+0x417f18]
  401e75:	00 
  401e76:	48 09 04 cd 10 53 41 	or     QWORD PTR [rcx*8+0x415310],rax
  401e7d:	00 
  401e7e:	48 83 c1 01          	add    rcx,0x1
  401e82:	48 83 f9 40          	cmp    rcx,0x40
  401e86:	0f 85 34 ff ff ff    	jne    401dc0 <_Z22SetupPrecalculatedDatav+0x5b0>
  401e8c:	31 c0                	xor    eax,eax
  401e8e:	bd 01 00 00 00       	mov    ebp,0x1
  401e93:	66 2e 0f 1f 84 00 00 	cs nop WORD PTR [rax+rax*1+0x0]
  401e9a:	00 00 00 
  401e9d:	0f 1f 00             	nop    DWORD PTR [rax]
  401ea0:	31 f6                	xor    esi,esi
  401ea2:	66 2e 0f 1f 84 00 00 	cs nop WORD PTR [rax+rax*1+0x0]
  401ea9:	00 00 00 
  401eac:	0f 1f 40 00          	nop    DWORD PTR [rax+0x0]
  401eb0:	48 89 c1             	mov    rcx,rax
  401eb3:	31 ff                	xor    edi,edi
  401eb5:	66 2e 0f 1f 84 00 00 	cs nop WORD PTR [rax+rax*1+0x0]
  401ebc:	00 00 00 
  401ebf:	90                   	nop
  401ec0:	48 85 c9             	test   rcx,rcx
  401ec3:	7e 14                	jle    401ed9 <_Z22SetupPrecalculatedDatav+0x6c9>
  401ec5:	48 0b 3c cd 08 7f 41 	or     rdi,QWORD PTR [rcx*8+0x417f08]
  401ecc:	00 
  401ecd:	8d 51 ff             	lea    edx,[rcx-0x1]
  401ed0:	48 8d 49 ff          	lea    rcx,[rcx-0x1]
  401ed4:	0f a3 d6             	bt     esi,edx
  401ed7:	73 e7                	jae    401ec0 <_Z22SetupPrecalculatedDatav+0x6b0>
  401ed9:	48 89 ea             	mov    rdx,rbp
  401edc:	0f 1f 40 00          	nop    DWORD PTR [rax+0x0]
  401ee0:	48 83 fa 07          	cmp    rdx,0x7
  401ee4:	77 1a                	ja     401f00 <_Z22SetupPrecalculatedDatav+0x6f0>
  401ee6:	8d 4a ff             	lea    ecx,[rdx-0x1]
  401ee9:	bb 02 00 00 00       	mov    ebx,0x2
  401eee:	d3 e3                	shl    ebx,cl
  401ef0:	48 0b 3c d5 10 7f 41 	or     rdi,QWORD PTR [rdx*8+0x417f10]
  401ef7:	00 
  401ef8:	48 83 c2 01          	add    rdx,0x1
  401efc:	85 f3                	test   ebx,esi
  401efe:	74 e0                	je     401ee0 <_Z22SetupPrecalculatedDatav+0x6d0>
  401f00:	89 f1                	mov    ecx,esi
  401f02:	d1 e9                	shr    ecx,1
  401f04:	83 e1 3f             	and    ecx,0x3f
  401f07:	40 88 bc c8 10 7d 41 	mov    BYTE PTR [rax+rcx*8+0x417d10],dil
  401f0e:	00 
  401f0f:	83 c6 01             	add    esi,0x1
  401f12:	81 fe 00 01 00 00    	cmp    esi,0x100
  401f18:	75 96                	jne    401eb0 <_Z22SetupPrecalculatedDatav+0x6a0>
  401f1a:	48 83 c0 01          	add    rax,0x1
  401f1e:	48 83 c5 01          	add    rbp,0x1
  401f22:	48 83 f8 08          	cmp    rax,0x8
  401f26:	0f 85 74 ff ff ff    	jne    401ea0 <_Z22SetupPrecalculatedDatav+0x690>
  401f2c:	b8 10 5d 41 00       	mov    eax,0x415d10
  401f31:	48 b9 01 01 01 01 01 	movabs rcx,0x101010101010101
  401f38:	01 01 01 
  401f3b:	31 d2                	xor    edx,edx
  401f3d:	49 b8 01 02 04 08 10 	movabs r8,0x8040201008040201
  401f44:	20 40 80 
  401f47:	66 0f 1f 84 00 00 00 	nop    WORD PTR [rax+rax*1+0x0]
  401f4e:	00 00 
  401f50:	89 d7                	mov    edi,edx
  401f52:	48 83 f7 07          	xor    rdi,0x7
  401f56:	48 8d 3c fd 10 6d 41 	lea    rdi,[rdi*8+0x416d10]
  401f5d:	00 
  401f5e:	31 ed                	xor    ebp,ebp
  401f60:	0f b6 b4 2a 10 7d 41 	movzx  esi,BYTE PTR [rdx+rbp*1+0x417d10]
  401f67:	00 
  401f68:	48 89 f3             	mov    rbx,rsi
  401f6b:	48 0f af d9          	imul   rbx,rcx
  401f6f:	48 89 1c e8          	mov    QWORD PTR [rax+rbp*8],rbx
  401f73:	49 0f af f0          	imul   rsi,r8
  401f77:	48 c1 ee 07          	shr    rsi,0x7
  401f7b:	48 21 ce             	and    rsi,rcx
  401f7e:	48 89 34 ef          	mov    QWORD PTR [rdi+rbp*8],rsi
  401f82:	48 83 c5 08          	add    rbp,0x8
  401f86:	48 81 fd 00 02 00 00 	cmp    rbp,0x200
  401f8d:	75 d1                	jne    401f60 <_Z22SetupPrecalculatedDatav+0x750>
  401f8f:	48 83 c2 01          	add    rdx,0x1
  401f93:	48 83 c0 08          	add    rax,0x8
  401f97:	48 83 fa 08          	cmp    rdx,0x8
  401f9b:	75 b3                	jne    401f50 <_Z22SetupPrecalculatedDatav+0x740>
  401f9d:	31 c0                	xor    eax,eax
  401f9f:	90                   	nop
  401fa0:	89 c1                	mov    ecx,eax
  401fa2:	83 e1 07             	and    ecx,0x7
  401fa5:	89 c2                	mov    edx,eax
  401fa7:	83 e2 f8             	and    edx,0xfffffff8
  401faa:	48 8b 92 50 87 41 00 	mov    rdx,QWORD PTR [rdx+0x418750]
  401fb1:	48 0b 14 cd 10 87 41 	or     rdx,QWORD PTR [rcx*8+0x418710]
  401fb8:	00 
  401fb9:	48 89 14 c5 90 88 41 	mov    QWORD PTR [rax*8+0x418890],rdx
  401fc0:	00 
  401fc1:	48 8b 0c c5 10 85 41 	mov    rcx,QWORD PTR [rax*8+0x418510]
  401fc8:	00 
  401fc9:	48 0b 0c c5 10 83 41 	or     rcx,QWORD PTR [rax*8+0x418310]
  401fd0:	00 
  401fd1:	48 89 0c c5 90 8a 41 	mov    QWORD PTR [rax*8+0x418a90],rcx
  401fd8:	00 
  401fd9:	48 09 d1             	or     rcx,rdx
  401fdc:	48 89 0c c5 90 8c 41 	mov    QWORD PTR [rax*8+0x418c90],rcx
  401fe3:	00 
  401fe4:	48 83 c0 01          	add    rax,0x1
  401fe8:	48 83 f8 40          	cmp    rax,0x40
  401fec:	75 b2                	jne    401fa0 <_Z22SetupPrecalculatedDatav+0x790>
  401fee:	31 c0                	xor    eax,eax
  401ff0:	48 c7 04 c5 90 87 41 	mov    QWORD PTR [rax*8+0x418790],0x0
  401ff7:	00 00 00 00 00 
  401ffc:	48 c7 04 c5 d0 87 41 	mov    QWORD PTR [rax*8+0x4187d0],0x0
  402003:	00 00 00 00 00 
  402008:	48 c7 04 c5 10 88 41 	mov    QWORD PTR [rax*8+0x418810],0x0
  40200f:	00 00 00 00 00 
  402014:	48 c7 04 c5 50 88 41 	mov    QWORD PTR [rax*8+0x418850],0x0
  40201b:	00 00 00 00 00 
  402020:	48 85 c0             	test   rax,rax
  402023:	74 4a                	je     40206f <_Z22SetupPrecalculatedDatav+0x85f>
  402025:	48 8b 14 c5 90 87 41 	mov    rdx,QWORD PTR [rax*8+0x418790]
  40202c:	00 
  40202d:	48 8b 0c c5 10 88 41 	mov    rcx,QWORD PTR [rax*8+0x418810]
  402034:	00 
  402035:	31 f6                	xor    esi,esi
  402037:	66 0f 1f 84 00 00 00 	nop    WORD PTR [rax+rax*1+0x0]
  40203e:	00 00 
  402040:	48 0b 14 f5 50 87 41 	or     rdx,QWORD PTR [rsi*8+0x418750]
  402047:	00 
  402048:	48 0b 0c f5 10 87 41 	or     rcx,QWORD PTR [rsi*8+0x418710]
  40204f:	00 
  402050:	48 83 c6 01          	add    rsi,0x1
  402054:	48 39 f0             	cmp    rax,rsi
  402057:	75 e7                	jne    402040 <_Z22SetupPrecalculatedDatav+0x830>
  402059:	48 89 14 c5 90 87 41 	mov    QWORD PTR [rax*8+0x418790],rdx
  402060:	00 
  402061:	48 89 0c c5 10 88 41 	mov    QWORD PTR [rax*8+0x418810],rcx
  402068:	00 
  402069:	48 83 f8 06          	cmp    rax,0x6
  40206d:	77 4a                	ja     4020b9 <_Z22SetupPrecalculatedDatav+0x8a9>
  40206f:	48 8b 14 c5 d0 87 41 	mov    rdx,QWORD PTR [rax*8+0x4187d0]
  402076:	00 
  402077:	48 8b 0c c5 50 88 41 	mov    rcx,QWORD PTR [rax*8+0x418850]
  40207e:	00 
  40207f:	be 07 00 00 00       	mov    esi,0x7
  402084:	66 2e 0f 1f 84 00 00 	cs nop WORD PTR [rax+rax*1+0x0]
  40208b:	00 00 00 
  40208e:	66 90                	xchg   ax,ax
  402090:	48 0b 14 f5 50 87 41 	or     rdx,QWORD PTR [rsi*8+0x418750]
  402097:	00 
  402098:	48 0b 0c f5 10 87 41 	or     rcx,QWORD PTR [rsi*8+0x418710]
  40209f:	00 
  4020a0:	48 83 c6 ff          	add    rsi,0xffffffffffffffff
  4020a4:	48 39 c6             	cmp    rsi,rax
  4020a7:	77 e7                	ja     402090 <_Z22SetupPrecalculatedDatav+0x880>
  4020a9:	48 89 14 c5 d0 87 41 	mov    QWORD PTR [rax*8+0x4187d0],rdx
  4020b0:	00 
  4020b1:	48 89 0c c5 50 88 41 	mov    QWORD PTR [rax*8+0x418850],rcx
  4020b8:	00 
  4020b9:	48 83 c0 01          	add    rax,0x1
  4020bd:	48 83 f8 08          	cmp    rax,0x8
  4020c1:	0f 85 29 ff ff ff    	jne    401ff0 <_Z22SetupPrecalculatedDatav+0x7e0>
  4020c7:	48 c7 05 0e 76 01 00 	mov    QWORD PTR [rip+0x1760e],0x0        # 4196e0 <WhiteSqMask>
  4020ce:	00 00 00 00 
  4020d2:	48 c7 05 0b 76 01 00 	mov    QWORD PTR [rip+0x1760b],0x0        # 4196e8 <BlackSqMask>
  4020d9:	00 00 00 00 
  4020dd:	31 c0                	xor    eax,eax
  4020df:	b9 e0 96 41 00       	mov    ecx,0x4196e0
  4020e4:	66 2e 0f 1f 84 00 00 	cs nop WORD PTR [rax+rax*1+0x0]
  4020eb:	00 00 00 
  4020ee:	66 90                	xchg   ax,ax
  4020f0:	89 c2                	mov    edx,eax
  4020f2:	c1 ea 03             	shr    edx,0x3
  4020f5:	01 c2                	add    edx,eax
  4020f7:	f6 c2 01             	test   dl,0x1
  4020fa:	ba e8 96 41 00       	mov    edx,0x4196e8
  4020ff:	48 0f 44 d1          	cmove  rdx,rcx
  402103:	48 8b 34 c5 10 7f 41 	mov    rsi,QWORD PTR [rax*8+0x417f10]
  40210a:	00 
  40210b:	48 09 32             	or     QWORD PTR [rdx],rsi
  40210e:	48 83 c0 01          	add    rax,0x1
  402112:	48 83 f8 40          	cmp    rax,0x40
  402116:	75 d8                	jne    4020f0 <_Z22SetupPrecalculatedDatav+0x8e0>
  402118:	48 8b 05 c9 66 01 00 	mov    rax,QWORD PTR [rip+0x166c9]        # 4187e8 <BelowMask+0x18>
  40211f:	48 8b 0d 42 67 01 00 	mov    rcx,QWORD PTR [rip+0x16742]        # 418868 <RightMask+0x18>
  402126:	48 89 ca             	mov    rdx,rcx
  402129:	48 21 c2             	and    rdx,rax
  40212c:	48 89 15 7d 71 01 00 	mov    QWORD PTR [rip+0x1717d],rdx        # 4192b0 <WhiteKingSide>
  402133:	48 8b 15 f6 66 01 00 	mov    rdx,QWORD PTR [rip+0x166f6]        # 418830 <LeftMask+0x20>
  40213a:	48 21 d0             	and    rax,rdx
  40213d:	48 89 05 74 71 01 00 	mov    QWORD PTR [rip+0x17174],rax        # 4192b8 <WhiteQueenSide>
  402144:	48 8b 05 65 66 01 00 	mov    rax,QWORD PTR [rip+0x16665]        # 4187b0 <AboveMask+0x20>
  40214b:	48 21 c1             	and    rcx,rax
  40214e:	48 89 0d 6b 71 01 00 	mov    QWORD PTR [rip+0x1716b],rcx        # 4192c0 <BlackKingSide>
  402155:	48 21 d0             	and    rax,rdx
  402158:	48 89 05 69 71 01 00 	mov    QWORD PTR [rip+0x17169],rax        # 4192c8 <BlackQueenSide>
  40215f:	48 8b 15 b2 65 01 00 	mov    rdx,QWORD PTR [rip+0x165b2]        # 418718 <FileMask+0x8>
  402166:	48 0b 15 a3 65 01 00 	or     rdx,QWORD PTR [rip+0x165a3]        # 418710 <FileMask>
  40216d:	48 8b 05 ac 65 01 00 	mov    rax,QWORD PTR [rip+0x165ac]        # 418720 <FileMask+0x10>
  402174:	48 09 c2             	or     rdx,rax
  402177:	48 8b 0d aa 65 01 00 	mov    rcx,QWORD PTR [rip+0x165aa]        # 418728 <FileMask+0x18>
  40217e:	48 89 4c 24 08       	mov    QWORD PTR [rsp+0x8],rcx
  402183:	48 89 15 76 75 01 00 	mov    QWORD PTR [rip+0x17576],rdx        # 419700 <KingFilesMask>
  40218a:	48 89 15 77 75 01 00 	mov    QWORD PTR [rip+0x17577],rdx        # 419708 <KingFilesMask+0x8>
  402191:	48 89 15 78 75 01 00 	mov    QWORD PTR [rip+0x17578],rdx        # 419710 <KingFilesMask+0x10>
  402198:	48 09 ca             	or     rdx,rcx
  40219b:	48 89 15 56 75 01 00 	mov    QWORD PTR [rip+0x17556],rdx        # 4196f8 <QSMask>
  4021a2:	48 8b 2d 8f 65 01 00 	mov    rbp,QWORD PTR [rip+0x1658f]        # 418738 <FileMask+0x28>
  4021a9:	4c 8b 15 80 65 01 00 	mov    r10,QWORD PTR [rip+0x16580]        # 418730 <FileMask+0x20>
  4021b0:	49 09 ea             	or     r10,rbp
  4021b3:	48 8b 1d 86 65 01 00 	mov    rbx,QWORD PTR [rip+0x16586]        # 418740 <FileMask+0x30>
  4021ba:	4c 8b 05 87 65 01 00 	mov    r8,QWORD PTR [rip+0x16587]        # 418748 <FileMask+0x38>
  4021c1:	48 89 d9             	mov    rcx,rbx
  4021c4:	4c 09 c1             	or     rcx,r8
  4021c7:	4c 09 d1             	or     rcx,r10
  4021ca:	48 8b 3d 57 5e 01 00 	mov    rdi,QWORD PTR [rip+0x15e57]        # 418028 <Mask+0x118>
  4021d1:	48 0b 3d 58 5e 01 00 	or     rdi,QWORD PTR [rip+0x15e58]        # 418030 <Mask+0x120>
  4021d8:	48 89 0d 11 75 01 00 	mov    QWORD PTR [rip+0x17511],rcx        # 4196f0 <KSMask>
  4021df:	48 8b 35 02 5e 01 00 	mov    rsi,QWORD PTR [rip+0x15e02]        # 417fe8 <Mask+0xd8>
  4021e6:	48 8b 15 f3 5d 01 00 	mov    rdx,QWORD PTR [rip+0x15df3]        # 417fe0 <Mask+0xd0>
  4021ed:	48 09 f2             	or     rdx,rsi
  4021f0:	49 89 fb             	mov    r11,rdi
  4021f3:	49 09 d3             	or     r11,rdx
  4021f6:	4c 8b 35 f3 5d 01 00 	mov    r14,QWORD PTR [rip+0x15df3]        # 417ff0 <Mask+0xe0>
  4021fd:	4c 8b 0d f4 5d 01 00 	mov    r9,QWORD PTR [rip+0x15df4]        # 417ff8 <Mask+0xe8>
  402204:	4c 89 f1             	mov    rcx,r14
  402207:	4c 89 4c 24 50       	mov    QWORD PTR [rsp+0x50],r9
  40220c:	4c 09 c9             	or     rcx,r9
  40220f:	4c 8b 0d 8a 5d 01 00 	mov    r9,QWORD PTR [rip+0x15d8a]        # 417fa0 <Mask+0x90>
  402216:	4c 89 4c 24 58       	mov    QWORD PTR [rsp+0x58],r9
  40221b:	4c 09 c9             	or     rcx,r9
  40221e:	4c 09 d9             	or     rcx,r11
  402221:	4c 8b 0d 80 5d 01 00 	mov    r9,QWORD PTR [rip+0x15d80]        # 417fa8 <Mask+0x98>
  402228:	4c 8b 1d 81 5d 01 00 	mov    r11,QWORD PTR [rip+0x15d81]        # 417fb0 <Mask+0xa0>
  40222f:	4c 89 4c 24 60       	mov    QWORD PTR [rsp+0x60],r9
  402234:	4c 89 5c 24 68       	mov    QWORD PTR [rsp+0x68],r11
  402239:	4d 09 d9             	or     r9,r11
  40223c:	4c 8b 1d 75 5d 01 00 	mov    r11,QWORD PTR [rip+0x15d75]        # 417fb8 <Mask+0xa8>
  402243:	4c 89 5c 24 70       	mov    QWORD PTR [rsp+0x70],r11
  402248:	4d 09 d9             	or     r9,r11
  40224b:	49 09 c9             	or     r9,rcx
  40224e:	48 8b 0d 0b 5d 01 00 	mov    rcx,QWORD PTR [rip+0x15d0b]        # 417f60 <Mask+0x50>
  402255:	4c 8b 1d 0c 5d 01 00 	mov    r11,QWORD PTR [rip+0x15d0c]        # 417f68 <Mask+0x58>
  40225c:	48 89 4c 24 78       	mov    QWORD PTR [rsp+0x78],rcx
  402261:	4c 89 9c 24 80 00 00 	mov    QWORD PTR [rsp+0x80],r11
  402268:	00 
  402269:	4c 09 d9             	or     rcx,r11
  40226c:	4c 8b 1d fd 5c 01 00 	mov    r11,QWORD PTR [rip+0x15cfd]        # 417f70 <Mask+0x60>
  402273:	4c 89 9c 24 88 00 00 	mov    QWORD PTR [rsp+0x88],r11
  40227a:	00 
  40227b:	4c 09 d9             	or     rcx,r11
  40227e:	4c 8b 1d f3 5c 01 00 	mov    r11,QWORD PTR [rip+0x15cf3]        # 417f78 <Mask+0x68>
  402285:	4c 89 9c 24 90 00 00 	mov    QWORD PTR [rsp+0x90],r11
  40228c:	00 
  40228d:	4c 09 d9             	or     rcx,r11
  402290:	4c 09 c9             	or     rcx,r9
  402293:	48 89 0d 36 74 01 00 	mov    QWORD PTR [rip+0x17436],rcx        # 4196d0 <WhiteStrongSquareMask>
  40229a:	4c 89 74 24 48       	mov    QWORD PTR [rsp+0x48],r14
  40229f:	4c 09 f6             	or     rsi,r14
  4022a2:	48 09 fe             	or     rsi,rdi
  4022a5:	48 8b 0d 74 5d 01 00 	mov    rcx,QWORD PTR [rip+0x15d74]        # 418020 <Mask+0x110>
  4022ac:	4c 8b 1d 85 5d 01 00 	mov    r11,QWORD PTR [rip+0x15d85]        # 418038 <Mask+0x128>
  4022b3:	48 89 4c 24 10       	mov    QWORD PTR [rsp+0x10],rcx
  4022b8:	4c 89 5c 24 18       	mov    QWORD PTR [rsp+0x18],r11
  4022bd:	4c 09 d9             	or     rcx,r11
  4022c0:	4c 8b 1d 99 5d 01 00 	mov    r11,QWORD PTR [rip+0x15d99]        # 418060 <Mask+0x150>
  4022c7:	4c 89 5c 24 20       	mov    QWORD PTR [rsp+0x20],r11
  4022cc:	4c 09 d9             	or     rcx,r11
  4022cf:	48 09 ce             	or     rsi,rcx
  4022d2:	4c 8b 2d 8f 5d 01 00 	mov    r13,QWORD PTR [rip+0x15d8f]        # 418068 <Mask+0x158>
  4022d9:	4c 8b 35 90 5d 01 00 	mov    r14,QWORD PTR [rip+0x15d90]        # 418070 <Mask+0x160>
  4022e0:	4d 89 ef             	mov    r15,r13
  4022e3:	4d 09 f7             	or     r15,r14
  4022e6:	4c 8b 1d 8b 5d 01 00 	mov    r11,QWORD PTR [rip+0x15d8b]        # 418078 <Mask+0x168>
  4022ed:	4d 09 df             	or     r15,r11
  4022f0:	4c 8b 25 a9 5d 01 00 	mov    r12,QWORD PTR [rip+0x15da9]        # 4180a0 <Mask+0x190>
  4022f7:	4c 89 64 24 28       	mov    QWORD PTR [rsp+0x28],r12
  4022fc:	4d 09 e7             	or     r15,r12
  4022ff:	49 09 f7             	or     r15,rsi
  402302:	48 8b 35 9f 5d 01 00 	mov    rsi,QWORD PTR [rip+0x15d9f]        # 4180a8 <Mask+0x198>
  402309:	4c 8b 25 a0 5d 01 00 	mov    r12,QWORD PTR [rip+0x15da0]        # 4180b0 <Mask+0x1a0>
  402310:	48 89 74 24 30       	mov    QWORD PTR [rsp+0x30],rsi
  402315:	4c 89 64 24 38       	mov    QWORD PTR [rsp+0x38],r12
  40231a:	4c 09 e6             	or     rsi,r12
  40231d:	4c 8b 25 94 5d 01 00 	mov    r12,QWORD PTR [rip+0x15d94]        # 4180b8 <Mask+0x1a8>
  402324:	4c 89 64 24 40       	mov    QWORD PTR [rsp+0x40],r12
  402329:	4c 09 e6             	or     rsi,r12
  40232c:	4c 09 fe             	or     rsi,r15
  40232f:	48 89 35 a2 73 01 00 	mov    QWORD PTR [rip+0x173a2],rsi        # 4196d8 <BlackStrongSquareMask>
  402336:	4c 09 e9             	or     rcx,r13
  402339:	4c 09 f1             	or     rcx,r14
  40233c:	4c 09 c9             	or     rcx,r9
  40233f:	4c 09 d9             	or     rcx,r11
  402342:	48 89 0d f7 77 01 00 	mov    QWORD PTR [rip+0x177f7],rcx        # 419b40 <CenterMask>
  402349:	48 0b 44 24 08       	or     rax,QWORD PTR [rsp+0x8]
  40234e:	4c 09 d0             	or     rax,r10
  402351:	48 89 05 c0 73 01 00 	mov    QWORD PTR [rip+0x173c0],rax        # 419718 <KingFilesMask+0x18>
  402358:	48 89 05 c1 73 01 00 	mov    QWORD PTR [rip+0x173c1],rax        # 419720 <KingFilesMask+0x20>
  40235f:	48 09 eb             	or     rbx,rbp
  402362:	4c 09 c3             	or     rbx,r8
  402365:	48 89 1d bc 73 01 00 	mov    QWORD PTR [rip+0x173bc],rbx        # 419728 <KingFilesMask+0x28>
  40236c:	48 89 1d bd 73 01 00 	mov    QWORD PTR [rip+0x173bd],rbx        # 419730 <KingFilesMask+0x30>
  402373:	48 89 1d be 73 01 00 	mov    QWORD PTR [rip+0x173be],rbx        # 419738 <KingFilesMask+0x38>
  40237a:	31 c0                	xor    eax,eax
  40237c:	0f 1f 40 00          	nop    DWORD PTR [rax+0x0]
  402380:	89 c3                	mov    ebx,eax
  402382:	80 e3 07             	and    bl,0x7
  402385:	74 19                	je     4023a0 <_Z22SetupPrecalculatedDatav+0xb90>
  402387:	48 89 c5             	mov    rbp,rax
  40238a:	80 fb 07             	cmp    bl,0x7
  40238d:	75 15                	jne    4023a4 <_Z22SetupPrecalculatedDatav+0xb94>
  40238f:	48 8d 68 ff          	lea    rbp,[rax-0x1]
  402393:	eb 0f                	jmp    4023a4 <_Z22SetupPrecalculatedDatav+0xb94>
  402395:	66 2e 0f 1f 84 00 00 	cs nop WORD PTR [rax+rax*1+0x0]
  40239c:	00 00 00 
  40239f:	90                   	nop
  4023a0:	48 8d 68 01          	lea    rbp,[rax+0x1]
  4023a4:	48 8b 0c ed d0 92 41 	mov    rcx,QWORD PTR [rbp*8+0x4192d0]
  4023ab:	00 
  4023ac:	48 89 0c c5 40 97 41 	mov    QWORD PTR [rax*8+0x419740],rcx
  4023b3:	00 
  4023b4:	48 83 c0 01          	add    rax,0x1
  4023b8:	48 83 f8 40          	cmp    rax,0x40
  4023bc:	75 c2                	jne    402380 <_Z22SetupPrecalculatedDatav+0xb70>
  4023be:	31 c0                	xor    eax,eax
  4023c0:	89 c3                	mov    ebx,eax
  4023c2:	80 e3 07             	and    bl,0x7
  4023c5:	74 19                	je     4023e0 <_Z22SetupPrecalculatedDatav+0xbd0>
  4023c7:	48 89 c5             	mov    rbp,rax
  4023ca:	80 fb 07             	cmp    bl,0x7
  4023cd:	75 15                	jne    4023e4 <_Z22SetupPrecalculatedDatav+0xbd4>
  4023cf:	48 8d 68 ff          	lea    rbp,[rax-0x1]
  4023d3:	eb 0f                	jmp    4023e4 <_Z22SetupPrecalculatedDatav+0xbd4>
  4023d5:	66 2e 0f 1f 84 00 00 	cs nop WORD PTR [rax+rax*1+0x0]
  4023dc:	00 00 00 
  4023df:	90                   	nop
  4023e0:	48 8d 68 01          	lea    rbp,[rax+0x1]
  4023e4:	48 8b 0c ed d0 94 41 	mov    rcx,QWORD PTR [rbp*8+0x4194d0]
  4023eb:	00 
  4023ec:	48 89 0c c5 40 99 41 	mov    QWORD PTR [rax*8+0x419940],rcx
  4023f3:	00 
  4023f4:	48 83 c0 01          	add    rax,0x1
  4023f8:	48 83 f8 40          	cmp    rax,0x40
  4023fc:	75 c2                	jne    4023c0 <_Z22SetupPrecalculatedDatav+0xbb0>
  4023fe:	48 0b 7c 24 10       	or     rdi,QWORD PTR [rsp+0x10]
  402403:	48 0b 7c 24 18       	or     rdi,QWORD PTR [rsp+0x18]
  402408:	48 0b 7c 24 20       	or     rdi,QWORD PTR [rsp+0x20]
  40240d:	4c 09 ef             	or     rdi,r13
  402410:	4c 09 f7             	or     rdi,r14
  402413:	4c 09 df             	or     rdi,r11
  402416:	48 0b 7c 24 28       	or     rdi,QWORD PTR [rsp+0x28]
  40241b:	48 0b 7c 24 30       	or     rdi,QWORD PTR [rsp+0x30]
  402420:	48 0b 7c 24 38       	or     rdi,QWORD PTR [rsp+0x38]
  402425:	48 0b 7c 24 40       	or     rdi,QWORD PTR [rsp+0x40]
  40242a:	48 89 3d 1f 77 01 00 	mov    QWORD PTR [rip+0x1771f],rdi        # 419b50 <SpaceMask>
  402431:	48 0b 54 24 48       	or     rdx,QWORD PTR [rsp+0x48]
  402436:	48 0b 54 24 50       	or     rdx,QWORD PTR [rsp+0x50]
  40243b:	48 0b 54 24 58       	or     rdx,QWORD PTR [rsp+0x58]
  402440:	48 0b 54 24 60       	or     rdx,QWORD PTR [rsp+0x60]
  402445:	48 0b 54 24 68       	or     rdx,QWORD PTR [rsp+0x68]
  40244a:	48 0b 54 24 70       	or     rdx,QWORD PTR [rsp+0x70]
  40244f:	48 0b 54 24 78       	or     rdx,QWORD PTR [rsp+0x78]
  402454:	48 0b 94 24 80 00 00 	or     rdx,QWORD PTR [rsp+0x80]
  40245b:	00 
  40245c:	48 0b 94 24 88 00 00 	or     rdx,QWORD PTR [rsp+0x88]
  402463:	00 
  402464:	48 0b 94 24 90 00 00 	or     rdx,QWORD PTR [rsp+0x90]
  40246b:	00 
  40246c:	48 89 15 e5 76 01 00 	mov    QWORD PTR [rip+0x176e5],rdx        # 419b58 <SpaceMask+0x8>
  402473:	48 81 c4 98 00 00 00 	add    rsp,0x98
  40247a:	5b                   	pop    rbx
  40247b:	41 5c                	pop    r12
  40247d:	41 5d                	pop    r13
  40247f:	41 5e                	pop    r14
  402481:	41 5f                	pop    r15
  402483:	5d                   	pop    rbp
  402484:	c3                   	ret    
  402485:	66 2e 0f 1f 84 00 00 	cs nop WORD PTR [rax+rax*1+0x0]
  40248c:	00 00 00 
  40248f:	90                   	nop

0000000000402490 <_Z16SetupCastleMasksP7state_t>:
  402490:	48 63 87 14 11 00 00 	movsxd rax,DWORD PTR [rdi+0x1114]
  402497:	48 8b 04 c5 10 7f 41 	mov    rax,QWORD PTR [rax*8+0x417f10]
  40249e:	00 
  40249f:	48 8b 0d 5a 5c 01 00 	mov    rcx,QWORD PTR [rip+0x15c5a]        # 418100 <Mask+0x1f0>
  4024a6:	48 31 c1             	xor    rcx,rax
  4024a9:	48 63 97 20 11 00 00 	movsxd rdx,DWORD PTR [rdi+0x1120]
  4024b0:	48 33 0c d5 10 7f 41 	xor    rcx,QWORD PTR [rdx*8+0x417f10]
  4024b7:	00 
  4024b8:	48 33 0d 39 5c 01 00 	xor    rcx,QWORD PTR [rip+0x15c39]        # 4180f8 <Mask+0x1e8>
  4024bf:	48 89 0d ca 69 01 00 	mov    QWORD PTR [rip+0x169ca],rcx        # 418e90 <CastleMask>
  4024c6:	48 33 05 13 5c 01 00 	xor    rax,QWORD PTR [rip+0x15c13]        # 4180e0 <Mask+0x1d0>
  4024cd:	48 63 8f 1c 11 00 00 	movsxd rcx,DWORD PTR [rdi+0x111c]
  4024d4:	48 33 04 cd 10 7f 41 	xor    rax,QWORD PTR [rcx*8+0x417f10]
  4024db:	00 
  4024dc:	48 33 05 05 5c 01 00 	xor    rax,QWORD PTR [rip+0x15c05]        # 4180e8 <Mask+0x1d8>
  4024e3:	48 89 05 ae 69 01 00 	mov    QWORD PTR [rip+0x169ae],rax        # 418e98 <CastleMask+0x8>
  4024ea:	48 63 87 18 11 00 00 	movsxd rax,DWORD PTR [rdi+0x1118]
  4024f1:	48 8b 04 c5 10 7f 41 	mov    rax,QWORD PTR [rax*8+0x417f10]
  4024f8:	00 
  4024f9:	48 8b 0d 40 5a 01 00 	mov    rcx,QWORD PTR [rip+0x15a40]        # 417f40 <Mask+0x30>
  402500:	48 31 c1             	xor    rcx,rax
  402503:	48 63 97 28 11 00 00 	movsxd rdx,DWORD PTR [rdi+0x1128]
  40250a:	48 33 0c d5 10 7f 41 	xor    rcx,QWORD PTR [rdx*8+0x417f10]
  402511:	00 
  402512:	48 33 0d 1f 5a 01 00 	xor    rcx,QWORD PTR [rip+0x15a1f]        # 417f38 <Mask+0x28>
  402519:	48 33 05 00 5a 01 00 	xor    rax,QWORD PTR [rip+0x15a00]        # 417f20 <Mask+0x10>
  402520:	48 89 0d 79 69 01 00 	mov    QWORD PTR [rip+0x16979],rcx        # 418ea0 <CastleMask+0x10>
  402527:	48 63 8f 24 11 00 00 	movsxd rcx,DWORD PTR [rdi+0x1124]
  40252e:	48 33 04 cd 10 7f 41 	xor    rax,QWORD PTR [rcx*8+0x417f10]
  402535:	00 
  402536:	48 33 05 eb 59 01 00 	xor    rax,QWORD PTR [rip+0x159eb]        # 417f28 <Mask+0x18>
  40253d:	48 89 05 64 69 01 00 	mov    QWORD PTR [rip+0x16964],rax        # 418ea8 <CastleMask+0x18>
  402544:	c3                   	ret    
  402545:	66 2e 0f 1f 84 00 00 	cs nop WORD PTR [rax+rax*1+0x0]
  40254c:	00 00 00 
  40254f:	90                   	nop

0000000000402550 <_Z11RankAttacksyj>:
  402550:	89 f0                	mov    eax,esi
  402552:	83 e0 07             	and    eax,0x7
  402555:	83 e6 f8             	and    esi,0xfffffff8
  402558:	8d 4e 01             	lea    ecx,[rsi+0x1]
  40255b:	48 d3 ef             	shr    rdi,cl
  40255e:	83 e7 3f             	and    edi,0x3f
  402561:	0f b6 84 f8 10 7d 41 	movzx  eax,BYTE PTR [rax+rdi*8+0x417d10]
  402568:	00 
  402569:	89 f1                	mov    ecx,esi
  40256b:	48 d3 e0             	shl    rax,cl
  40256e:	c3                   	ret    
  40256f:	90                   	nop

0000000000402570 <_Z11FileAttacksyj>:
  402570:	89 f1                	mov    ecx,esi
  402572:	83 e1 07             	and    ecx,0x7
  402575:	48 d3 ef             	shr    rdi,cl
  402578:	48 b8 01 01 01 01 01 	movabs rax,0x101010101010101
  40257f:	01 01 01 
  402582:	48 21 f8             	and    rax,rdi
  402585:	48 ba 00 04 08 10 20 	movabs rdx,0x80402010080400
  40258c:	40 80 00 
  40258f:	48 0f af d0          	imul   rdx,rax
  402593:	48 c1 ea 34          	shr    rdx,0x34
  402597:	83 e2 c0             	and    edx,0xffffffc0
  40259a:	83 e6 f8             	and    esi,0xfffffff8
  40259d:	48 8b 84 32 10 6d 41 	mov    rax,QWORD PTR [rdx+rsi*1+0x416d10]
  4025a4:	00 
  4025a5:	48 d3 e0             	shl    rax,cl
  4025a8:	c3                   	ret    
  4025a9:	0f 1f 80 00 00 00 00 	nop    DWORD PTR [rax+0x0]

00000000004025b0 <_Z15DiagonalAttacksyj>:
  4025b0:	89 f0                	mov    eax,esi
  4025b2:	83 e6 07             	and    esi,0x7
  4025b5:	48 8b 04 c5 10 83 41 	mov    rax,QWORD PTR [rax*8+0x418310]
  4025bc:	00 
  4025bd:	48 21 c7             	and    rdi,rax
  4025c0:	48 b9 02 02 02 02 02 	movabs rcx,0x202020202020202
  4025c7:	02 02 02 
  4025ca:	48 0f af cf          	imul   rcx,rdi
  4025ce:	48 c1 e9 34          	shr    rcx,0x34
  4025d2:	83 e1 c0             	and    ecx,0xffffffc0
  4025d5:	48 23 84 f1 10 5d 41 	and    rax,QWORD PTR [rcx+rsi*8+0x415d10]
  4025dc:	00 
  4025dd:	c3                   	ret    
  4025de:	66 90                	xchg   ax,ax

00000000004025e0 <_Z15AntiDiagAttacksyj>:
  4025e0:	89 f0                	mov    eax,esi
  4025e2:	83 e6 07             	and    esi,0x7
  4025e5:	48 8b 04 c5 10 85 41 	mov    rax,QWORD PTR [rax*8+0x418510]
  4025ec:	00 
  4025ed:	48 21 c7             	and    rdi,rax
  4025f0:	48 b9 02 02 02 02 02 	movabs rcx,0x202020202020202
  4025f7:	02 02 02 
  4025fa:	48 0f af cf          	imul   rcx,rdi
  4025fe:	48 c1 e9 34          	shr    rcx,0x34
  402602:	83 e1 c0             	and    ecx,0xffffffc0
  402605:	48 23 84 f1 10 5d 41 	and    rax,QWORD PTR [rcx+rsi*8+0x415d10]
  40260c:	00 
  40260d:	c3                   	ret    
  40260e:	66 90                	xchg   ax,ax

0000000000402610 <_Z13BishopAttacksP7state_ti>:
  402610:	55                   	push   rbp
  402611:	41 56                	push   r14
  402613:	53                   	push   rbx
  402614:	89 f5                	mov    ebp,esi
  402616:	48 8b 9f 08 01 00 00 	mov    rbx,QWORD PTR [rdi+0x108]
  40261d:	48 89 df             	mov    rdi,rbx
  402620:	e8 8b ff ff ff       	call   4025b0 <_Z15DiagonalAttacksyj>
  402625:	49 89 c6             	mov    r14,rax
  402628:	48 89 df             	mov    rdi,rbx
  40262b:	89 ee                	mov    esi,ebp
  40262d:	e8 ae ff ff ff       	call   4025e0 <_Z15AntiDiagAttacksyj>
  402632:	4c 09 f0             	or     rax,r14
  402635:	5b                   	pop    rbx
  402636:	41 5e                	pop    r14
  402638:	5d                   	pop    rbp
  402639:	c3                   	ret    
  40263a:	66 0f 1f 44 00 00    	nop    WORD PTR [rax+rax*1+0x0]

0000000000402640 <_Z11RookAttacksP7state_ti>:
  402640:	55                   	push   rbp
  402641:	41 56                	push   r14
  402643:	53                   	push   rbx
  402644:	89 f5                	mov    ebp,esi
  402646:	48 8b 9f 08 01 00 00 	mov    rbx,QWORD PTR [rdi+0x108]
  40264d:	48 89 df             	mov    rdi,rbx
  402650:	e8 fb fe ff ff       	call   402550 <_Z11RankAttacksyj>
  402655:	49 89 c6             	mov    r14,rax
  402658:	48 89 df             	mov    rdi,rbx
  40265b:	89 ee                	mov    esi,ebp
  40265d:	e8 0e ff ff ff       	call   402570 <_Z11FileAttacksyj>
  402662:	4c 09 f0             	or     rax,r14
  402665:	5b                   	pop    rbx
  402666:	41 5e                	pop    r14
  402668:	5d                   	pop    rbp
  402669:	c3                   	ret    
  40266a:	66 0f 1f 44 00 00    	nop    WORD PTR [rax+rax*1+0x0]

0000000000402670 <_ZSt3minIiERKT_S2_S2_>:
  402670:	8b 06                	mov    eax,DWORD PTR [rsi]
  402672:	3b 07                	cmp    eax,DWORD PTR [rdi]
  402674:	48 0f 4c fe          	cmovl  rdi,rsi
  402678:	48 89 f8             	mov    rax,rdi
  40267b:	c3                   	ret    
  40267c:	0f 1f 40 00          	nop    DWORD PTR [rax+0x0]

0000000000402680 <_Z8PopCounty>:
  402680:	f3 48 0f b8 c7       	popcnt rax,rdi
  402685:	c3                   	ret    
  402686:	66 2e 0f 1f 84 00 00 	cs nop WORD PTR [rax+rax*1+0x0]
  40268d:	00 00 00 

0000000000402690 <_Z9FindFirsty>:
  402690:	48 89 f8             	mov    rax,rdi
  402693:	48 f7 d8             	neg    rax
  402696:	48 21 f8             	and    rax,rdi
  402699:	48 b9 cd 56 f7 92 53 	movabs rcx,0x3f08c5392f756cd
  4026a0:	8c f0 03 
  4026a3:	48 0f af c8          	imul   rcx,rax
  4026a7:	48 c1 e9 3a          	shr    rcx,0x3a
  4026ab:	8b 04 8d b0 02 41 00 	mov    eax,DWORD PTR [rcx*4+0x4102b0]
  4026b2:	c3                   	ret    
  4026b3:	66 2e 0f 1f 84 00 00 	cs nop WORD PTR [rax+rax*1+0x0]
  4026ba:	00 00 00 
  4026bd:	0f 1f 00             	nop    DWORD PTR [rax]

00000000004026c0 <_Z15FindFirstRemovePy>:
  4026c0:	48 8b 07             	mov    rax,QWORD PTR [rdi]
  4026c3:	48 89 c1             	mov    rcx,rax
  4026c6:	48 f7 d9             	neg    rcx
  4026c9:	48 21 c1             	and    rcx,rax
  4026cc:	48 31 c8             	xor    rax,rcx
  4026cf:	48 89 07             	mov    QWORD PTR [rdi],rax
  4026d2:	48 b8 cd 56 f7 92 53 	movabs rax,0x3f08c5392f756cd
  4026d9:	8c f0 03 
  4026dc:	48 0f af c1          	imul   rax,rcx
  4026e0:	48 c1 e8 3a          	shr    rax,0x3a
  4026e4:	8b 04 85 b0 02 41 00 	mov    eax,DWORD PTR [rax*4+0x4102b0]
  4026eb:	c3                   	ret    
  4026ec:	0f 1f 40 00          	nop    DWORD PTR [rax+0x0]

00000000004026f0 <_Z8FindLasty>:
  4026f0:	31 c0                	xor    eax,eax
  4026f2:	48 89 f9             	mov    rcx,rdi
  4026f5:	48 c1 e9 20          	shr    rcx,0x20
  4026f9:	0f 95 c0             	setne  al
  4026fc:	48 0f 44 cf          	cmove  rcx,rdi
  402700:	c1 e0 05             	shl    eax,0x5
  402703:	48 89 ca             	mov    rdx,rcx
  402706:	48 c1 ea 10          	shr    rdx,0x10
  40270a:	48 81 f9 ff ff 00 00 	cmp    rcx,0xffff
  402711:	48 0f 46 d1          	cmovbe rdx,rcx
  402715:	8d 48 10             	lea    ecx,[rax+0x10]
  402718:	0f 46 c8             	cmovbe ecx,eax
  40271b:	0f b6 82 60 9b 41 00 	movzx  eax,BYTE PTR [rdx+0x419b60]
  402722:	01 c8                	add    eax,ecx
  402724:	c3                   	ret    
  402725:	66 2e 0f 1f 84 00 00 	cs nop WORD PTR [rax+rax*1+0x0]
  40272c:	00 00 00 
  40272f:	90                   	nop

0000000000402730 <_Z13ThickPopCounty>:
  402730:	48 89 f8             	mov    rax,rdi
  402733:	48 d1 e8             	shr    rax,1
  402736:	48 b9 55 55 55 55 55 	movabs rcx,0x5555555555555555
  40273d:	55 55 55 
  402740:	48 21 c1             	and    rcx,rax
  402743:	48 29 cf             	sub    rdi,rcx
  402746:	48 89 f8             	mov    rax,rdi
  402749:	48 c1 e8 02          	shr    rax,0x2
  40274d:	48 b9 33 33 33 33 33 	movabs rcx,0x3333333333333333
  402754:	33 33 33 
  402757:	48 21 c8             	and    rax,rcx
  40275a:	48 21 cf             	and    rdi,rcx
  40275d:	48 01 c7             	add    rdi,rax
  402760:	48 89 f8             	mov    rax,rdi
  402763:	48 c1 e8 04          	shr    rax,0x4
  402767:	48 8d 04 38          	lea    rax,[rax+rdi*1]
  40276b:	48 b9 0f 0f 0f 0f 0f 	movabs rcx,0xf0f0f0f0f0f0f0f
  402772:	0f 0f 0f 
  402775:	48 21 c1             	and    rcx,rax
  402778:	48 b8 01 01 01 01 01 	movabs rax,0x101010101010101
  40277f:	01 01 01 
  402782:	48 0f af c1          	imul   rax,rcx
  402786:	48 c1 e8 38          	shr    rax,0x38
  40278a:	c3                   	ret    
  40278b:	0f 1f 44 00 00       	nop    DWORD PTR [rax+rax*1+0x0]

0000000000402790 <_Z4ranki>:
  402790:	c1 ff 03             	sar    edi,0x3
  402793:	b8 08 00 00 00       	mov    eax,0x8
  402798:	29 f8                	sub    eax,edi
  40279a:	c3                   	ret    
  40279b:	0f 1f 44 00 00       	nop    DWORD PTR [rax+rax*1+0x0]

00000000004027a0 <_Z4filei>:
  4027a0:	83 e7 07             	and    edi,0x7
  4027a3:	8d 47 01             	lea    eax,[rdi+0x1]
  4027a6:	c3                   	ret    
  4027a7:	66 0f 1f 84 00 00 00 	nop    WORD PTR [rax+rax*1+0x0]
  4027ae:	00 00 

00000000004027b0 <_Z8sum_distii>:
  4027b0:	55                   	push   rbp
  4027b1:	41 57                	push   r15
  4027b3:	41 56                	push   r14
  4027b5:	53                   	push   rbx
  4027b6:	50                   	push   rax
  4027b7:	41 89 f6             	mov    r14d,esi
  4027ba:	41 89 ff             	mov    r15d,edi
  4027bd:	e8 de ff ff ff       	call   4027a0 <_Z4filei>
  4027c2:	89 c3                	mov    ebx,eax
  4027c4:	44 89 f7             	mov    edi,r14d
  4027c7:	e8 d4 ff ff ff       	call   4027a0 <_Z4filei>
  4027cc:	29 c3                	sub    ebx,eax
  4027ce:	89 dd                	mov    ebp,ebx
  4027d0:	f7 dd                	neg    ebp
  4027d2:	0f 4c eb             	cmovl  ebp,ebx
  4027d5:	44 89 ff             	mov    edi,r15d
  4027d8:	e8 b3 ff ff ff       	call   402790 <_Z4ranki>
  4027dd:	89 c3                	mov    ebx,eax
  4027df:	44 89 f7             	mov    edi,r14d
  4027e2:	e8 a9 ff ff ff       	call   402790 <_Z4ranki>
  4027e7:	29 c3                	sub    ebx,eax
  4027e9:	89 d8                	mov    eax,ebx
  4027eb:	f7 d8                	neg    eax
  4027ed:	0f 4c c3             	cmovl  eax,ebx
  4027f0:	01 e8                	add    eax,ebp
  4027f2:	48 83 c4 08          	add    rsp,0x8
  4027f6:	5b                   	pop    rbx
  4027f7:	41 5e                	pop    r14
  4027f9:	41 5f                	pop    r15
  4027fb:	5d                   	pop    rbp
  4027fc:	c3                   	ret    
  4027fd:	0f 1f 00             	nop    DWORD PTR [rax]

0000000000402800 <_Z12taxicab_distii>:
  402800:	55                   	push   rbp
  402801:	41 57                	push   r15
  402803:	41 56                	push   r14
  402805:	53                   	push   rbx
  402806:	50                   	push   rax
  402807:	41 89 f6             	mov    r14d,esi
  40280a:	41 89 ff             	mov    r15d,edi
  40280d:	e8 8e ff ff ff       	call   4027a0 <_Z4filei>
  402812:	89 c5                	mov    ebp,eax
  402814:	44 89 f7             	mov    edi,r14d
  402817:	e8 84 ff ff ff       	call   4027a0 <_Z4filei>
  40281c:	29 c5                	sub    ebp,eax
  40281e:	89 eb                	mov    ebx,ebp
  402820:	f7 db                	neg    ebx
  402822:	0f 4c dd             	cmovl  ebx,ebp
  402825:	44 89 ff             	mov    edi,r15d
  402828:	e8 63 ff ff ff       	call   402790 <_Z4ranki>
  40282d:	89 c5                	mov    ebp,eax
  40282f:	44 89 f7             	mov    edi,r14d
  402832:	e8 59 ff ff ff       	call   402790 <_Z4ranki>
  402837:	29 c5                	sub    ebp,eax
  402839:	89 e8                	mov    eax,ebp
  40283b:	f7 d8                	neg    eax
  40283d:	0f 4c c5             	cmovl  eax,ebp
  402840:	39 c3                	cmp    ebx,eax
  402842:	0f 4d c3             	cmovge eax,ebx
  402845:	48 83 c4 08          	add    rsp,0x8
  402849:	5b                   	pop    rbx
  40284a:	41 5e                	pop    r14
  40284c:	41 5f                	pop    r15
  40284e:	5d                   	pop    rbp
  40284f:	c3                   	ret    

0000000000402850 <_Z16taxicab_dist_bitii>:
  402850:	eb ae                	jmp    402800 <_Z12taxicab_distii>
  402852:	66 2e 0f 1f 84 00 00 	cs nop WORD PTR [rax+rax*1+0x0]
  402859:	00 00 00 
  40285c:	0f 1f 40 00          	nop    DWORD PTR [rax+0x0]

0000000000402860 <_Z11check_phaseP11gamestate_tP7state_t>:
  402860:	55                   	push   rbp
  402861:	41 57                	push   r15
  402863:	41 56                	push   r14
  402865:	41 55                	push   r13
  402867:	41 54                	push   r12
  402869:	53                   	push   rbx
  40286a:	48 83 ec 18          	sub    rsp,0x18
  40286e:	48 8b 86 08 01 00 00 	mov    rax,QWORD PTR [rsi+0x108]
  402875:	48 89 44 24 10       	mov    QWORD PTR [rsp+0x10],rax
  40287a:	48 85 c0             	test   rax,rax
  40287d:	0f 84 ee 00 00 00    	je     402971 <_Z11check_phaseP11gamestate_tP7state_t+0x111>
  402883:	48 89 f3             	mov    rbx,rsi
  402886:	48 89 7c 24 08       	mov    QWORD PTR [rsp+0x8],rdi
  40288b:	c7 44 24 04 00 00 00 	mov    DWORD PTR [rsp+0x4],0x0
  402892:	00 
  402893:	4c 8d 7c 24 10       	lea    r15,[rsp+0x10]
  402898:	bd 06 20 00 00       	mov    ebp,0x2006
  40289d:	41 be 60 00 00 00    	mov    r14d,0x60
  4028a3:	45 31 e4             	xor    r12d,r12d
  4028a6:	45 31 ed             	xor    r13d,r13d
  4028a9:	0f 1f 80 00 00 00 00 	nop    DWORD PTR [rax+0x0]
  4028b0:	4c 89 ff             	mov    rdi,r15
  4028b3:	e8 08 fe ff ff       	call   4026c0 <_Z15FindFirstRemovePy>
  4028b8:	48 98                	cdqe   
  4028ba:	48 63 44 83 04       	movsxd rax,DWORD PTR [rbx+rax*4+0x4]
  4028bf:	48 83 f8 0d          	cmp    rax,0xd
  4028c3:	77 21                	ja     4028e6 <_Z11check_phaseP11gamestate_tP7state_t+0x86>
  4028c5:	0f a3 c5             	bt     ebp,eax
  4028c8:	73 16                	jae    4028e0 <_Z11check_phaseP11gamestate_tP7state_t+0x80>
  4028ca:	48 83 7c 24 10 00    	cmp    QWORD PTR [rsp+0x10],0x0
  4028d0:	75 de                	jne    4028b0 <_Z11check_phaseP11gamestate_tP7state_t+0x50>
  4028d2:	eb 48                	jmp    40291c <_Z11check_phaseP11gamestate_tP7state_t+0xbc>
  4028d4:	66 2e 0f 1f 84 00 00 	cs nop WORD PTR [rax+rax*1+0x0]
  4028db:	00 00 00 
  4028de:	66 90                	xchg   ax,ax
  4028e0:	41 0f a3 c6          	bt     r14d,eax
  4028e4:	72 2a                	jb     402910 <_Z11check_phaseP11gamestate_tP7state_t+0xb0>
  4028e6:	89 c1                	mov    ecx,eax
  4028e8:	c1 e9 1f             	shr    ecx,0x1f
  4028eb:	01 c1                	add    ecx,eax
  4028ed:	83 e1 fe             	and    ecx,0xfffffffe
  4028f0:	89 c2                	mov    edx,eax
  4028f2:	29 ca                	sub    edx,ecx
  4028f4:	8b 0c 85 00 08 41 00 	mov    ecx,DWORD PTR [rax*4+0x410800]
  4028fb:	89 c8                	mov    eax,ecx
  4028fd:	f7 d8                	neg    eax
  4028ff:	0f 4c c1             	cmovl  eax,ecx
  402902:	83 fa 01             	cmp    edx,0x1
  402905:	75 06                	jne    40290d <_Z11check_phaseP11gamestate_tP7state_t+0xad>
  402907:	01 44 24 04          	add    DWORD PTR [rsp+0x4],eax
  40290b:	eb 03                	jmp    402910 <_Z11check_phaseP11gamestate_tP7state_t+0xb0>
  40290d:	41 01 c5             	add    r13d,eax
  402910:	41 83 c4 01          	add    r12d,0x1
  402914:	48 83 7c 24 10 00    	cmp    QWORD PTR [rsp+0x10],0x0
  40291a:	75 94                	jne    4028b0 <_Z11check_phaseP11gamestate_tP7state_t+0x50>
  40291c:	41 83 fc 0c          	cmp    r12d,0xc
  402920:	7c 2d                	jl     40294f <_Z11check_phaseP11gamestate_tP7state_t+0xef>
  402922:	83 bb d0 01 00 00 3c 	cmp    DWORD PTR [rbx+0x1d0],0x3c
  402929:	74 09                	je     402934 <_Z11check_phaseP11gamestate_tP7state_t+0xd4>
  40292b:	83 bb d4 01 00 00 04 	cmp    DWORD PTR [rbx+0x1d4],0x4
  402932:	75 1b                	jne    40294f <_Z11check_phaseP11gamestate_tP7state_t+0xef>
  402934:	83 bb c4 01 00 00 00 	cmp    DWORD PTR [rbx+0x1c4],0x0
  40293b:	48 8b 7c 24 08       	mov    rdi,QWORD PTR [rsp+0x8]
  402940:	8b 44 24 04          	mov    eax,DWORD PTR [rsp+0x4]
  402944:	7e 12                	jle    402958 <_Z11check_phaseP11gamestate_tP7state_t+0xf8>
  402946:	c7 47 04 00 00 00 00 	mov    DWORD PTR [rdi+0x4],0x0
  40294d:	eb 37                	jmp    402986 <_Z11check_phaseP11gamestate_tP7state_t+0x126>
  40294f:	48 8b 7c 24 08       	mov    rdi,QWORD PTR [rsp+0x8]
  402954:	8b 44 24 04          	mov    eax,DWORD PTR [rsp+0x4]
  402958:	41 81 fd a4 06 00 00 	cmp    r13d,0x6a4
  40295f:	7f 1e                	jg     40297f <_Z11check_phaseP11gamestate_tP7state_t+0x11f>
  402961:	3d a4 06 00 00       	cmp    eax,0x6a4
  402966:	7f 17                	jg     40297f <_Z11check_phaseP11gamestate_tP7state_t+0x11f>
  402968:	c7 47 04 02 00 00 00 	mov    DWORD PTR [rdi+0x4],0x2
  40296f:	eb 15                	jmp    402986 <_Z11check_phaseP11gamestate_tP7state_t+0x126>
  402971:	31 c0                	xor    eax,eax
  402973:	45 31 ed             	xor    r13d,r13d
  402976:	41 81 fd a4 06 00 00 	cmp    r13d,0x6a4
  40297d:	7e e2                	jle    402961 <_Z11check_phaseP11gamestate_tP7state_t+0x101>
  40297f:	c7 47 04 01 00 00 00 	mov    DWORD PTR [rdi+0x4],0x1
  402986:	48 83 c4 18          	add    rsp,0x18
  40298a:	5b                   	pop    rbx
  40298b:	41 5c                	pop    r12
  40298d:	41 5d                	pop    r13
  40298f:	41 5e                	pop    r14
  402991:	41 5f                	pop    r15
  402993:	5d                   	pop    rbp
  402994:	c3                   	ret    
  402995:	66 2e 0f 1f 84 00 00 	cs nop WORD PTR [rax+rax*1+0x0]
  40299c:	00 00 00 
  40299f:	90                   	nop

00000000004029a0 <_Z7is_drawP11gamestate_tP7state_t>:
  4029a0:	44 8b 8e dc 01 00 00 	mov    r9d,DWORD PTR [rsi+0x1dc]
  4029a7:	31 c0                	xor    eax,eax
  4029a9:	41 83 f9 04          	cmp    r9d,0x4
  4029ad:	0f 8c bf 00 00 00    	jl     402a72 <_Z7is_drawP11gamestate_tP7state_t+0xd2>
  4029b3:	8b 96 d8 01 00 00    	mov    edx,DWORD PTR [rsi+0x1d8]
  4029b9:	83 fa 02             	cmp    edx,0x2
  4029bc:	7c 5b                	jl     402a19 <_Z7is_drawP11gamestate_tP7state_t+0x79>
  4029be:	44 8b 47 3c          	mov    r8d,DWORD PTR [rdi+0x3c]
  4029c2:	45 8d 14 10          	lea    r10d,[r8+rdx*1]
  4029c6:	41 83 fa 03          	cmp    r10d,0x3
  4029ca:	7c 4d                	jl     402a19 <_Z7is_drawP11gamestate_tP7state_t+0x79>
  4029cc:	44 89 c9             	mov    ecx,r9d
  4029cf:	f7 d1                	not    ecx
  4029d1:	41 01 ca             	add    r10d,ecx
  4029d4:	41 8d 0c 10          	lea    ecx,[r8+rdx*1]
  4029d8:	83 c1 fd             	add    ecx,0xfffffffd
  4029db:	44 39 d1             	cmp    ecx,r10d
  4029de:	7c 39                	jl     402a19 <_Z7is_drawP11gamestate_tP7state_t+0x79>
  4029e0:	4c 8b 9e e0 01 00 00 	mov    r11,QWORD PTR [rsi+0x1e0]
  4029e7:	41 8d 0c 10          	lea    ecx,[r8+rdx*1]
  4029eb:	83 c1 fd             	add    ecx,0xfffffffd
  4029ee:	48 63 d1             	movsxd rdx,ecx
  4029f1:	49 63 ca             	movsxd rcx,r10d
  4029f4:	66 2e 0f 1f 84 00 00 	cs nop WORD PTR [rax+rax*1+0x0]
  4029fb:	00 00 00 
  4029fe:	66 90                	xchg   ax,ax
  402a00:	4c 3b 9c d6 30 11 00 	cmp    r11,QWORD PTR [rsi+rdx*8+0x1130]
  402a07:	00 
  402a08:	74 69                	je     402a73 <_Z7is_drawP11gamestate_tP7state_t+0xd3>
  402a0a:	48 83 fa 02          	cmp    rdx,0x2
  402a0e:	7c 09                	jl     402a19 <_Z7is_drawP11gamestate_tP7state_t+0x79>
  402a10:	48 83 c2 fe          	add    rdx,0xfffffffffffffffe
  402a14:	48 39 ca             	cmp    rdx,rcx
  402a17:	7d e7                	jge    402a00 <_Z7is_drawP11gamestate_tP7state_t+0x60>
  402a19:	41 83 f9 06          	cmp    r9d,0x6
  402a1d:	7c 53                	jl     402a72 <_Z7is_drawP11gamestate_tP7state_t+0xd2>
  402a1f:	8b 8e d8 01 00 00    	mov    ecx,DWORD PTR [rsi+0x1d8]
  402a25:	83 f9 01             	cmp    ecx,0x1
  402a28:	7f 48                	jg     402a72 <_Z7is_drawP11gamestate_tP7state_t+0xd2>
  402a2a:	03 4f 3c             	add    ecx,DWORD PTR [rdi+0x3c]
  402a2d:	89 ca                	mov    edx,ecx
  402a2f:	44 09 ca             	or     edx,r9d
  402a32:	78 3e                	js     402a72 <_Z7is_drawP11gamestate_tP7state_t+0xd2>
  402a34:	4c 8b 86 e0 01 00 00 	mov    r8,QWORD PTR [rsi+0x1e0]
  402a3b:	48 63 f9             	movsxd rdi,ecx
  402a3e:	44 29 c9             	sub    ecx,r9d
  402a41:	48 63 c9             	movsxd rcx,ecx
  402a44:	31 d2                	xor    edx,edx
  402a46:	66 2e 0f 1f 84 00 00 	cs nop WORD PTR [rax+rax*1+0x0]
  402a4d:	00 00 00 
  402a50:	4c 3b 84 fe 30 11 00 	cmp    r8,QWORD PTR [rsi+rdi*8+0x1130]
  402a57:	00 
  402a58:	75 07                	jne    402a61 <_Z7is_drawP11gamestate_tP7state_t+0xc1>
  402a5a:	85 d2                	test   edx,edx
  402a5c:	7f 1b                	jg     402a79 <_Z7is_drawP11gamestate_tP7state_t+0xd9>
  402a5e:	83 c2 01             	add    edx,0x1
  402a61:	31 c0                	xor    eax,eax
  402a63:	48 83 ff 02          	cmp    rdi,0x2
  402a67:	7c 09                	jl     402a72 <_Z7is_drawP11gamestate_tP7state_t+0xd2>
  402a69:	48 83 c7 fe          	add    rdi,0xfffffffffffffffe
  402a6d:	48 39 cf             	cmp    rdi,rcx
  402a70:	7d de                	jge    402a50 <_Z7is_drawP11gamestate_tP7state_t+0xb0>
  402a72:	c3                   	ret    
  402a73:	b8 01 00 00 00       	mov    eax,0x1
  402a78:	c3                   	ret    
  402a79:	b8 01 00 00 00       	mov    eax,0x1
  402a7e:	c3                   	ret    
  402a7f:	90                   	nop

0000000000402a80 <_Z21insufficient_materialP7state_t>:
  402a80:	83 bf 94 01 00 00 00 	cmp    DWORD PTR [rdi+0x194],0x0
  402a87:	75 72                	jne    402afb <_Z21insufficient_materialP7state_t+0x7b>
  402a89:	83 bf 98 01 00 00 00 	cmp    DWORD PTR [rdi+0x198],0x0
  402a90:	75 69                	jne    402afb <_Z21insufficient_materialP7state_t+0x7b>
  402a92:	83 bf ac 01 00 00 00 	cmp    DWORD PTR [rdi+0x1ac],0x0
  402a99:	75 60                	jne    402afb <_Z21insufficient_materialP7state_t+0x7b>
  402a9b:	83 bf b0 01 00 00 00 	cmp    DWORD PTR [rdi+0x1b0],0x0
  402aa2:	75 57                	jne    402afb <_Z21insufficient_materialP7state_t+0x7b>
  402aa4:	83 bf b4 01 00 00 00 	cmp    DWORD PTR [rdi+0x1b4],0x0
  402aab:	75 4e                	jne    402afb <_Z21insufficient_materialP7state_t+0x7b>
  402aad:	83 bf b8 01 00 00 00 	cmp    DWORD PTR [rdi+0x1b8],0x0
  402ab4:	75 45                	jne    402afb <_Z21insufficient_materialP7state_t+0x7b>
  402ab6:	8b 87 c0 01 00 00    	mov    eax,DWORD PTR [rdi+0x1c0]
  402abc:	83 f8 01             	cmp    eax,0x1
  402abf:	7f 1b                	jg     402adc <_Z21insufficient_materialP7state_t+0x5c>
  402ac1:	83 bf bc 01 00 00 01 	cmp    DWORD PTR [rdi+0x1bc],0x1
  402ac8:	7f 12                	jg     402adc <_Z21insufficient_materialP7state_t+0x5c>
  402aca:	83 bf a0 01 00 00 00 	cmp    DWORD PTR [rdi+0x1a0],0x0
  402ad1:	75 09                	jne    402adc <_Z21insufficient_materialP7state_t+0x5c>
  402ad3:	83 bf 9c 01 00 00 00 	cmp    DWORD PTR [rdi+0x19c],0x0
  402ada:	74 22                	je     402afe <_Z21insufficient_materialP7state_t+0x7e>
  402adc:	0b 87 bc 01 00 00    	or     eax,DWORD PTR [rdi+0x1bc]
  402ae2:	75 17                	jne    402afb <_Z21insufficient_materialP7state_t+0x7b>
  402ae4:	83 bf 9c 01 00 00 02 	cmp    DWORD PTR [rdi+0x19c],0x2
  402aeb:	7f 0e                	jg     402afb <_Z21insufficient_materialP7state_t+0x7b>
  402aed:	b8 01 00 00 00       	mov    eax,0x1
  402af2:	83 bf a0 01 00 00 03 	cmp    DWORD PTR [rdi+0x1a0],0x3
  402af9:	7c 02                	jl     402afd <_Z21insufficient_materialP7state_t+0x7d>
  402afb:	31 c0                	xor    eax,eax
  402afd:	c3                   	ret    
  402afe:	b8 01 00 00 00       	mov    eax,0x1
  402b03:	c3                   	ret    
  402b04:	66 2e 0f 1f 84 00 00 	cs nop WORD PTR [rax+rax*1+0x0]
  402b0b:	00 00 00 
  402b0e:	66 90                	xchg   ax,ax

0000000000402b10 <_Z14drawn_endgamesP7state_tiii>:
  402b10:	55                   	push   rbp
  402b11:	41 57                	push   r15
  402b13:	41 56                	push   r14
  402b15:	41 55                	push   r13
  402b17:	41 54                	push   r12
  402b19:	53                   	push   rbx
  402b1a:	48 83 ec 28          	sub    rsp,0x28
  402b1e:	41 89 cd             	mov    r13d,ecx
  402b21:	41 89 d7             	mov    r15d,edx
  402b24:	41 89 f6             	mov    r14d,esi
  402b27:	48 89 fb             	mov    rbx,rdi
  402b2a:	4c 63 87 d0 01 00 00 	movsxd r8,DWORD PTR [rdi+0x1d0]
  402b31:	48 63 b7 d4 01 00 00 	movsxd rsi,DWORD PTR [rdi+0x1d4]
  402b38:	8b bf cc 01 00 00    	mov    edi,DWORD PTR [rdi+0x1cc]
  402b3e:	8b 83 94 01 00 00    	mov    eax,DWORD PTR [rbx+0x194]
  402b44:	8b 8b 98 01 00 00    	mov    ecx,DWORD PTR [rbx+0x198]
  402b4a:	85 c0                	test   eax,eax
  402b4c:	0f 84 02 01 00 00    	je     402c54 <_Z14drawn_endgamesP7state_tiii+0x144>
  402b52:	85 c9                	test   ecx,ecx
  402b54:	0f 84 53 01 00 00    	je     402cad <_Z14drawn_endgamesP7state_tiii+0x19d>
  402b5a:	41 83 ff 04          	cmp    r15d,0x4
  402b5e:	0f 85 12 03 00 00    	jne    402e76 <_Z14drawn_endgamesP7state_tiii+0x366>
  402b64:	83 bb bc 01 00 00 01 	cmp    DWORD PTR [rbx+0x1bc],0x1
  402b6b:	0f 85 05 03 00 00    	jne    402e76 <_Z14drawn_endgamesP7state_tiii+0x366>
  402b71:	83 bb 94 01 00 00 01 	cmp    DWORD PTR [rbx+0x194],0x1
  402b78:	0f 85 f8 02 00 00    	jne    402e76 <_Z14drawn_endgamesP7state_tiii+0x366>
  402b7e:	48 8b 83 28 01 00 00 	mov    rax,QWORD PTR [rbx+0x128]
  402b85:	48 8b 15 bc 5b 01 00 	mov    rdx,QWORD PTR [rip+0x15bbc]        # 418748 <FileMask+0x38>
  402b8c:	48 8b 2d 7d 5b 01 00 	mov    rbp,QWORD PTR [rip+0x15b7d]        # 418710 <FileMask>
  402b93:	48 89 e9             	mov    rcx,rbp
  402b96:	48 09 d1             	or     rcx,rdx
  402b99:	48 85 c1             	test   rcx,rax
  402b9c:	0f 84 07 09 00 00    	je     4034a9 <_Z14drawn_endgamesP7state_tiii+0x999>
  402ba2:	48 85 c2             	test   rdx,rax
  402ba5:	74 14                	je     402bbb <_Z14drawn_endgamesP7state_tiii+0xab>
  402ba7:	48 8b 93 30 01 00 00 	mov    rdx,QWORD PTR [rbx+0x130]
  402bae:	48 85 15 8b 5b 01 00 	test   QWORD PTR [rip+0x15b8b],rdx        # 418740 <FileMask+0x30>
  402bb5:	0f 84 a0 04 00 00    	je     40305b <_Z14drawn_endgamesP7state_tiii+0x54b>
  402bbb:	48 85 c5             	test   rbp,rax
  402bbe:	0f 84 e5 08 00 00    	je     4034a9 <_Z14drawn_endgamesP7state_tiii+0x999>
  402bc4:	48 8b 83 30 01 00 00 	mov    rax,QWORD PTR [rbx+0x130]
  402bcb:	48 85 05 46 5b 01 00 	test   QWORD PTR [rip+0x15b46],rax        # 418718 <FileMask+0x8>
  402bd2:	0f 85 d1 08 00 00    	jne    4034a9 <_Z14drawn_endgamesP7state_tiii+0x999>
  402bd8:	48 8b 83 78 01 00 00 	mov    rax,QWORD PTR [rbx+0x178]
  402bdf:	48 85 05 fa 6a 01 00 	test   QWORD PTR [rip+0x16afa],rax        # 4196e0 <WhiteSqMask>
  402be6:	0f 85 bd 08 00 00    	jne    4034a9 <_Z14drawn_endgamesP7state_tiii+0x999>
  402bec:	44 89 7c 24 08       	mov    DWORD PTR [rsp+0x8],r15d
  402bf1:	4d 89 c7             	mov    r15,r8
  402bf4:	41 89 fc             	mov    r12d,edi
  402bf7:	31 ff                	xor    edi,edi
  402bf9:	e8 02 fc ff ff       	call   402800 <_Z12taxicab_distii>
  402bfe:	83 f8 02             	cmp    eax,0x2
  402c01:	0f 8c 73 0a 00 00    	jl     40367a <_Z14drawn_endgamesP7state_tiii+0xb6a>
  402c07:	89 c5                	mov    ebp,eax
  402c09:	31 ff                	xor    edi,edi
  402c0b:	44 89 fe             	mov    esi,r15d
  402c0e:	e8 ed fb ff ff       	call   402800 <_Z12taxicab_distii>
  402c13:	41 89 c7             	mov    r15d,eax
  402c16:	48 8b bb 28 01 00 00 	mov    rdi,QWORD PTR [rbx+0x128]
  402c1d:	e8 6e fa ff ff       	call   402690 <_Z9FindFirsty>
  402c22:	31 ff                	xor    edi,edi
  402c24:	89 c6                	mov    esi,eax
  402c26:	e8 d5 fb ff ff       	call   402800 <_Z12taxicab_distii>
  402c2b:	45 29 e7             	sub    r15d,r12d
  402c2e:	44 39 fd             	cmp    ebp,r15d
  402c31:	0f 8f 4f 0a 00 00    	jg     403686 <_Z14drawn_endgamesP7state_tiii+0xb76>
  402c37:	83 c5 ff             	add    ebp,0xffffffff
  402c3a:	44 29 e0             	sub    eax,r12d
  402c3d:	39 c5                	cmp    ebp,eax
  402c3f:	b8 00 00 00 00       	mov    eax,0x0
  402c44:	41 0f 4f c6          	cmovg  eax,r14d
  402c48:	45 85 f6             	test   r14d,r14d
  402c4b:	41 0f 4e c6          	cmovle eax,r14d
  402c4f:	e9 2f 0a 00 00       	jmp    403683 <_Z14drawn_endgamesP7state_tiii+0xb73>
  402c54:	85 c9                	test   ecx,ecx
  402c56:	0f 84 9b 00 00 00    	je     402cf7 <_Z14drawn_endgamesP7state_tiii+0x1e7>
  402c5c:	83 bb ac 01 00 00 00 	cmp    DWORD PTR [rbx+0x1ac],0x0
  402c63:	0f 85 e7 05 00 00    	jne    403250 <_Z14drawn_endgamesP7state_tiii+0x740>
  402c69:	83 bb b4 01 00 00 00 	cmp    DWORD PTR [rbx+0x1b4],0x0
  402c70:	0f 85 da 05 00 00    	jne    403250 <_Z14drawn_endgamesP7state_tiii+0x740>
  402c76:	8b 83 bc 01 00 00    	mov    eax,DWORD PTR [rbx+0x1bc]
  402c7c:	83 f8 01             	cmp    eax,0x1
  402c7f:	75 0d                	jne    402c8e <_Z14drawn_endgamesP7state_tiii+0x17e>
  402c81:	83 bb 9c 01 00 00 00 	cmp    DWORD PTR [rbx+0x19c],0x0
  402c88:	0f 84 b6 05 00 00    	je     403244 <_Z14drawn_endgamesP7state_tiii+0x734>
  402c8e:	83 bb 9c 01 00 00 01 	cmp    DWORD PTR [rbx+0x19c],0x1
  402c95:	0f 85 b5 05 00 00    	jne    403250 <_Z14drawn_endgamesP7state_tiii+0x740>
  402c9b:	85 c0                	test   eax,eax
  402c9d:	41 0f 45 c6          	cmovne eax,r14d
  402ca1:	45 85 f6             	test   r14d,r14d
  402ca4:	41 0f 4e c6          	cmovle eax,r14d
  402ca8:	e9 a0 05 00 00       	jmp    40324d <_Z14drawn_endgamesP7state_tiii+0x73d>
  402cad:	83 bb b0 01 00 00 00 	cmp    DWORD PTR [rbx+0x1b0],0x0
  402cb4:	0f 85 ed 06 00 00    	jne    4033a7 <_Z14drawn_endgamesP7state_tiii+0x897>
  402cba:	83 bb b8 01 00 00 00 	cmp    DWORD PTR [rbx+0x1b8],0x0
  402cc1:	0f 85 e0 06 00 00    	jne    4033a7 <_Z14drawn_endgamesP7state_tiii+0x897>
  402cc7:	8b 8b c0 01 00 00    	mov    ecx,DWORD PTR [rbx+0x1c0]
  402ccd:	83 f9 01             	cmp    ecx,0x1
  402cd0:	75 0d                	jne    402cdf <_Z14drawn_endgamesP7state_tiii+0x1cf>
  402cd2:	83 bb a0 01 00 00 00 	cmp    DWORD PTR [rbx+0x1a0],0x0
  402cd9:	0f 84 bc 06 00 00    	je     40339b <_Z14drawn_endgamesP7state_tiii+0x88b>
  402cdf:	83 bb a0 01 00 00 01 	cmp    DWORD PTR [rbx+0x1a0],0x1
  402ce6:	0f 85 bb 06 00 00    	jne    4033a7 <_Z14drawn_endgamesP7state_tiii+0x897>
  402cec:	85 c9                	test   ecx,ecx
  402cee:	41 0f 45 ce          	cmovne ecx,r14d
  402cf2:	e9 a6 06 00 00       	jmp    40339d <_Z14drawn_endgamesP7state_tiii+0x88d>
  402cf7:	45 39 ef             	cmp    r15d,r13d
  402cfa:	89 7c 24 04          	mov    DWORD PTR [rsp+0x4],edi
  402cfe:	4c 89 44 24 18       	mov    QWORD PTR [rsp+0x18],r8
  402d03:	48 89 74 24 10       	mov    QWORD PTR [rsp+0x10],rsi
  402d08:	7e 0d                	jle    402d17 <_Z14drawn_endgamesP7state_tiii+0x207>
  402d0a:	bd 78 00 00 00       	mov    ebp,0x78
  402d0f:	41 bc f1 ff ff ff    	mov    r12d,0xfffffff1
  402d15:	eb 10                	jmp    402d27 <_Z14drawn_endgamesP7state_tiii+0x217>
  402d17:	45 39 fd             	cmp    r13d,r15d
  402d1a:	7e 21                	jle    402d3d <_Z14drawn_endgamesP7state_tiii+0x22d>
  402d1c:	bd 88 ff ff ff       	mov    ebp,0xffffff88
  402d21:	41 bc 0f 00 00 00    	mov    r12d,0xf
  402d27:	48 8b 7c 24 18       	mov    rdi,QWORD PTR [rsp+0x18]
  402d2c:	e8 cf fa ff ff       	call   402800 <_Z12taxicab_distii>
  402d31:	41 0f af c4          	imul   eax,r12d
  402d35:	44 01 f5             	add    ebp,r14d
  402d38:	01 c5                	add    ebp,eax
  402d3a:	41 89 ee             	mov    r14d,ebp
  402d3d:	44 8b 9b ac 01 00 00 	mov    r11d,DWORD PTR [rbx+0x1ac]
  402d44:	8b 8b b0 01 00 00    	mov    ecx,DWORD PTR [rbx+0x1b0]
  402d4a:	8b ab b4 01 00 00    	mov    ebp,DWORD PTR [rbx+0x1b4]
  402d50:	41 8d 14 6b          	lea    edx,[r11+rbp*2]
  402d54:	8b bb b8 01 00 00    	mov    edi,DWORD PTR [rbx+0x1b8]
  402d5a:	44 8d 14 79          	lea    r10d,[rcx+rdi*2]
  402d5e:	44 39 d2             	cmp    edx,r10d
  402d61:	75 71                	jne    402dd4 <_Z14drawn_endgamesP7state_tiii+0x2c4>
  402d63:	8b 83 9c 01 00 00    	mov    eax,DWORD PTR [rbx+0x19c]
  402d69:	44 8b a3 a0 01 00 00 	mov    r12d,DWORD PTR [rbx+0x1a0]
  402d70:	44 8b 83 bc 01 00 00 	mov    r8d,DWORD PTR [rbx+0x1bc]
  402d77:	48 89 44 24 20       	mov    QWORD PTR [rsp+0x20],rax
  402d7c:	45 8d 0c 00          	lea    r9d,[r8+rax*1]
  402d80:	8b 83 c0 01 00 00    	mov    eax,DWORD PTR [rbx+0x1c0]
  402d86:	48 89 44 24 08       	mov    QWORD PTR [rsp+0x8],rax
  402d8b:	42 8d 04 20          	lea    eax,[rax+r12*1]
  402d8f:	44 89 ce             	mov    esi,r9d
  402d92:	29 c6                	sub    esi,eax
  402d94:	83 fe 01             	cmp    esi,0x1
  402d97:	75 1c                	jne    402db5 <_Z14drawn_endgamesP7state_tiii+0x2a5>
  402d99:	41 83 f8 02          	cmp    r8d,0x2
  402d9d:	75 0d                	jne    402dac <_Z14drawn_endgamesP7state_tiii+0x29c>
  402d9f:	45 85 f6             	test   r14d,r14d
  402da2:	7e 11                	jle    402db5 <_Z14drawn_endgamesP7state_tiii+0x2a5>
  402da4:	41 83 fc 01          	cmp    r12d,0x1
  402da8:	75 07                	jne    402db1 <_Z14drawn_endgamesP7state_tiii+0x2a1>
  402daa:	eb 09                	jmp    402db5 <_Z14drawn_endgamesP7state_tiii+0x2a5>
  402dac:	45 85 f6             	test   r14d,r14d
  402daf:	7e 04                	jle    402db5 <_Z14drawn_endgamesP7state_tiii+0x2a5>
  402db1:	41 c1 ee 03          	shr    r14d,0x3
  402db5:	44 29 c8             	sub    eax,r9d
  402db8:	83 f8 01             	cmp    eax,0x1
  402dbb:	75 17                	jne    402dd4 <_Z14drawn_endgamesP7state_tiii+0x2c4>
  402dbd:	83 7c 24 08 02       	cmp    DWORD PTR [rsp+0x8],0x2
  402dc2:	75 07                	jne    402dcb <_Z14drawn_endgamesP7state_tiii+0x2bb>
  402dc4:	83 7c 24 20 01       	cmp    DWORD PTR [rsp+0x20],0x1
  402dc9:	74 09                	je     402dd4 <_Z14drawn_endgamesP7state_tiii+0x2c4>
  402dcb:	45 85 f6             	test   r14d,r14d
  402dce:	79 04                	jns    402dd4 <_Z14drawn_endgamesP7state_tiii+0x2c4>
  402dd0:	41 c1 fe 03          	sar    r14d,0x3
  402dd4:	09 ef                	or     edi,ebp
  402dd6:	89 c8                	mov    eax,ecx
  402dd8:	44 09 d8             	or     eax,r11d
  402ddb:	74 70                	je     402e4d <_Z14drawn_endgamesP7state_tiii+0x33d>
  402ddd:	85 ff                	test   edi,edi
  402ddf:	4c 8b 44 24 18       	mov    r8,QWORD PTR [rsp+0x18]
  402de4:	75 74                	jne    402e5a <_Z14drawn_endgamesP7state_tiii+0x34a>
  402de6:	41 83 fb 01          	cmp    r11d,0x1
  402dea:	0f 85 fd 01 00 00    	jne    402fed <_Z14drawn_endgamesP7state_tiii+0x4dd>
  402df0:	85 c9                	test   ecx,ecx
  402df2:	0f 85 f5 01 00 00    	jne    402fed <_Z14drawn_endgamesP7state_tiii+0x4dd>
  402df8:	8b 83 bc 01 00 00    	mov    eax,DWORD PTR [rbx+0x1bc]
  402dfe:	03 83 9c 01 00 00    	add    eax,DWORD PTR [rbx+0x19c]
  402e04:	0f 85 d6 02 00 00    	jne    4030e0 <_Z14drawn_endgamesP7state_tiii+0x5d0>
  402e0a:	8b 8b a0 01 00 00    	mov    ecx,DWORD PTR [rbx+0x1a0]
  402e10:	8b 93 c0 01 00 00    	mov    edx,DWORD PTR [rbx+0x1c0]
  402e16:	8d 0c 11             	lea    ecx,[rcx+rdx*1]
  402e19:	83 c1 ff             	add    ecx,0xffffffff
  402e1c:	83 f9 01             	cmp    ecx,0x1
  402e1f:	0f 87 bb 02 00 00    	ja     4030e0 <_Z14drawn_endgamesP7state_tiii+0x5d0>
  402e25:	41 c1 fe 03          	sar    r14d,0x3
  402e29:	48 8b 83 80 01 00 00 	mov    rax,QWORD PTR [rbx+0x180]
  402e30:	48 0b 83 40 01 00 00 	or     rax,QWORD PTR [rbx+0x140]
  402e37:	41 8d 4e 14          	lea    ecx,[r14+0x14]
  402e3b:	48 8b 74 24 10       	mov    rsi,QWORD PTR [rsp+0x10]
  402e40:	48 85 04 f5 d0 92 41 	test   QWORD PTR [rsi*8+0x4192d0],rax
  402e47:	00 
  402e48:	e9 02 02 00 00       	jmp    40304f <_Z14drawn_endgamesP7state_tiii+0x53f>
  402e4d:	85 ff                	test   edi,edi
  402e4f:	4c 8b 44 24 18       	mov    r8,QWORD PTR [rsp+0x18]
  402e54:	0f 84 57 01 00 00    	je     402fb1 <_Z14drawn_endgamesP7state_tiii+0x4a1>
  402e5a:	44 29 d2             	sub    edx,r10d
  402e5d:	48 8b 74 24 10       	mov    rsi,QWORD PTR [rsp+0x10]
  402e62:	0f 85 e6 00 00 00    	jne    402f4e <_Z14drawn_endgamesP7state_tiii+0x43e>
  402e68:	8b 7c 24 04          	mov    edi,DWORD PTR [rsp+0x4]
  402e6c:	41 83 ff 04          	cmp    r15d,0x4
  402e70:	0f 84 ee fc ff ff    	je     402b64 <_Z14drawn_endgamesP7state_tiii+0x54>
  402e76:	41 83 fd 04          	cmp    r13d,0x4
  402e7a:	0f 85 29 06 00 00    	jne    4034a9 <_Z14drawn_endgamesP7state_tiii+0x999>
  402e80:	83 bb c0 01 00 00 01 	cmp    DWORD PTR [rbx+0x1c0],0x1
  402e87:	0f 85 1c 06 00 00    	jne    4034a9 <_Z14drawn_endgamesP7state_tiii+0x999>
  402e8d:	83 bb 98 01 00 00 01 	cmp    DWORD PTR [rbx+0x198],0x1
  402e94:	0f 85 0f 06 00 00    	jne    4034a9 <_Z14drawn_endgamesP7state_tiii+0x999>
  402e9a:	48 8b 83 30 01 00 00 	mov    rax,QWORD PTR [rbx+0x130]
  402ea1:	48 8b 15 a0 58 01 00 	mov    rdx,QWORD PTR [rip+0x158a0]        # 418748 <FileMask+0x38>
  402ea8:	48 8b 2d 61 58 01 00 	mov    rbp,QWORD PTR [rip+0x15861]        # 418710 <FileMask>
  402eaf:	48 89 e9             	mov    rcx,rbp
  402eb2:	48 09 d1             	or     rcx,rdx
  402eb5:	48 85 c1             	test   rcx,rax
  402eb8:	0f 84 eb 05 00 00    	je     4034a9 <_Z14drawn_endgamesP7state_tiii+0x999>
  402ebe:	48 85 c2             	test   rdx,rax
  402ec1:	74 14                	je     402ed7 <_Z14drawn_endgamesP7state_tiii+0x3c7>
  402ec3:	48 8b 93 28 01 00 00 	mov    rdx,QWORD PTR [rbx+0x128]
  402eca:	48 85 15 6f 58 01 00 	test   QWORD PTR [rip+0x1586f],rdx        # 418740 <FileMask+0x30>
  402ed1:	0f 84 33 02 00 00    	je     40310a <_Z14drawn_endgamesP7state_tiii+0x5fa>
  402ed7:	48 85 c5             	test   rbp,rax
  402eda:	0f 84 c9 05 00 00    	je     4034a9 <_Z14drawn_endgamesP7state_tiii+0x999>
  402ee0:	48 8b 83 28 01 00 00 	mov    rax,QWORD PTR [rbx+0x128]
  402ee7:	48 85 05 2a 58 01 00 	test   QWORD PTR [rip+0x1582a],rax        # 418718 <FileMask+0x8>
  402eee:	0f 85 b5 05 00 00    	jne    4034a9 <_Z14drawn_endgamesP7state_tiii+0x999>
  402ef4:	48 8b 83 80 01 00 00 	mov    rax,QWORD PTR [rbx+0x180]
  402efb:	48 85 05 e6 67 01 00 	test   QWORD PTR [rip+0x167e6],rax        # 4196e8 <BlackSqMask>
  402f02:	0f 85 a1 05 00 00    	jne    4034a9 <_Z14drawn_endgamesP7state_tiii+0x999>
  402f08:	49 89 f4             	mov    r12,rsi
  402f0b:	89 7c 24 04          	mov    DWORD PTR [rsp+0x4],edi
  402f0f:	bf 38 00 00 00       	mov    edi,0x38
  402f14:	44 89 c6             	mov    esi,r8d
  402f17:	e8 e4 f8 ff ff       	call   402800 <_Z12taxicab_distii>
  402f1c:	83 f8 02             	cmp    eax,0x2
  402f1f:	0f 8c 70 07 00 00    	jl     403695 <_Z14drawn_endgamesP7state_tiii+0xb85>
  402f25:	89 c5                	mov    ebp,eax
  402f27:	bf 38 00 00 00       	mov    edi,0x38
  402f2c:	44 89 e6             	mov    esi,r12d
  402f2f:	e8 cc f8 ff ff       	call   402800 <_Z12taxicab_distii>
  402f34:	89 44 24 18          	mov    DWORD PTR [rsp+0x18],eax
  402f38:	48 8b bb 30 01 00 00 	mov    rdi,QWORD PTR [rbx+0x130]
  402f3f:	e8 ac f7 ff ff       	call   4026f0 <_Z8FindLasty>
  402f44:	bf 38 00 00 00       	mov    edi,0x38
  402f49:	e9 11 02 00 00       	jmp    40315f <_Z14drawn_endgamesP7state_tiii+0x64f>
  402f4e:	8b 83 a0 01 00 00    	mov    eax,DWORD PTR [rbx+0x1a0]
  402f54:	03 83 c0 01 00 00    	add    eax,DWORD PTR [rbx+0x1c0]
  402f5a:	2b 83 bc 01 00 00    	sub    eax,DWORD PTR [rbx+0x1bc]
  402f60:	2b 83 9c 01 00 00    	sub    eax,DWORD PTR [rbx+0x19c]
  402f66:	39 c2                	cmp    edx,eax
  402f68:	8b 7c 24 04          	mov    edi,DWORD PTR [rsp+0x4]
  402f6c:	0f 85 e8 fb ff ff    	jne    402b5a <_Z14drawn_endgamesP7state_tiii+0x4a>
  402f72:	44 89 f0             	mov    eax,r14d
  402f75:	c1 f8 02             	sar    eax,0x2
  402f78:	83 bb 94 01 00 00 00 	cmp    DWORD PTR [rbx+0x194],0x0
  402f7f:	41 0f 45 c6          	cmovne eax,r14d
  402f83:	45 85 f6             	test   r14d,r14d
  402f86:	41 0f 4e c6          	cmovle eax,r14d
  402f8a:	41 89 c6             	mov    r14d,eax
  402f8d:	41 c1 fe 02          	sar    r14d,0x2
  402f91:	85 c0                	test   eax,eax
  402f93:	44 0f 49 f0          	cmovns r14d,eax
  402f97:	83 bb 98 01 00 00 00 	cmp    DWORD PTR [rbx+0x198],0x0
  402f9e:	44 0f 45 f0          	cmovne r14d,eax
  402fa2:	41 83 ff 04          	cmp    r15d,0x4
  402fa6:	0f 84 b8 fb ff ff    	je     402b64 <_Z14drawn_endgamesP7state_tiii+0x54>
  402fac:	e9 c5 fe ff ff       	jmp    402e76 <_Z14drawn_endgamesP7state_tiii+0x366>
  402fb1:	8b 83 c0 01 00 00    	mov    eax,DWORD PTR [rbx+0x1c0]
  402fb7:	85 c0                	test   eax,eax
  402fb9:	75 0d                	jne    402fc8 <_Z14drawn_endgamesP7state_tiii+0x4b8>
  402fbb:	83 bb bc 01 00 00 00 	cmp    DWORD PTR [rbx+0x1bc],0x0
  402fc2:	0f 84 e3 06 00 00    	je     4036ab <_Z14drawn_endgamesP7state_tiii+0xb9b>
  402fc8:	8b 8b 9c 01 00 00    	mov    ecx,DWORD PTR [rbx+0x19c]
  402fce:	85 c9                	test   ecx,ecx
  402fd0:	48 8b 74 24 10       	mov    rsi,QWORD PTR [rsp+0x10]
  402fd5:	0f 84 0a 02 00 00    	je     4031e5 <_Z14drawn_endgamesP7state_tiii+0x6d5>
  402fdb:	83 f9 02             	cmp    ecx,0x2
  402fde:	8b 7c 24 04          	mov    edi,DWORD PTR [rsp+0x4]
  402fe2:	0f 8e 0e 02 00 00    	jle    4031f6 <_Z14drawn_endgamesP7state_tiii+0x6e6>
  402fe8:	e9 03 07 00 00       	jmp    4036f0 <_Z14drawn_endgamesP7state_tiii+0xbe0>
  402fed:	45 85 db             	test   r11d,r11d
  402ff0:	0f 85 aa 01 00 00    	jne    4031a0 <_Z14drawn_endgamesP7state_tiii+0x690>
  402ff6:	83 f9 01             	cmp    ecx,0x1
  402ff9:	0f 85 a1 01 00 00    	jne    4031a0 <_Z14drawn_endgamesP7state_tiii+0x690>
  402fff:	8b 83 c0 01 00 00    	mov    eax,DWORD PTR [rbx+0x1c0]
  403005:	03 83 a0 01 00 00    	add    eax,DWORD PTR [rbx+0x1a0]
  40300b:	48 8b 74 24 10       	mov    rsi,QWORD PTR [rsp+0x10]
  403010:	0f 85 3a 06 00 00    	jne    403650 <_Z14drawn_endgamesP7state_tiii+0xb40>
  403016:	8b 8b 9c 01 00 00    	mov    ecx,DWORD PTR [rbx+0x19c]
  40301c:	8b 93 bc 01 00 00    	mov    edx,DWORD PTR [rbx+0x1bc]
  403022:	8d 0c 11             	lea    ecx,[rcx+rdx*1]
  403025:	83 c1 ff             	add    ecx,0xffffffff
  403028:	83 f9 01             	cmp    ecx,0x1
  40302b:	0f 87 1f 06 00 00    	ja     403650 <_Z14drawn_endgamesP7state_tiii+0xb40>
  403031:	41 c1 fe 03          	sar    r14d,0x3
  403035:	48 8b 83 78 01 00 00 	mov    rax,QWORD PTR [rbx+0x178]
  40303c:	48 0b 83 38 01 00 00 	or     rax,QWORD PTR [rbx+0x138]
  403043:	41 8d 4e ec          	lea    ecx,[r14-0x14]
  403047:	4a 85 04 c5 d0 92 41 	test   QWORD PTR [r8*8+0x4192d0],rax
  40304e:	00 
  40304f:	41 0f 45 ce          	cmovne ecx,r14d
  403053:	41 89 ce             	mov    r14d,ecx
  403056:	e9 0d fe ff ff       	jmp    402e68 <_Z14drawn_endgamesP7state_tiii+0x358>
  40305b:	48 8b 83 78 01 00 00 	mov    rax,QWORD PTR [rbx+0x178]
  403062:	48 85 05 7f 66 01 00 	test   QWORD PTR [rip+0x1667f],rax        # 4196e8 <BlackSqMask>
  403069:	0f 85 3a 04 00 00    	jne    4034a9 <_Z14drawn_endgamesP7state_tiii+0x999>
  40306f:	44 89 7c 24 08       	mov    DWORD PTR [rsp+0x8],r15d
  403074:	4d 89 c7             	mov    r15,r8
  403077:	41 89 fc             	mov    r12d,edi
  40307a:	bf 07 00 00 00       	mov    edi,0x7
  40307f:	e8 7c f7 ff ff       	call   402800 <_Z12taxicab_distii>
  403084:	83 f8 02             	cmp    eax,0x2
  403087:	0f 8c ed 05 00 00    	jl     40367a <_Z14drawn_endgamesP7state_tiii+0xb6a>
  40308d:	89 c5                	mov    ebp,eax
  40308f:	bf 07 00 00 00       	mov    edi,0x7
  403094:	44 89 fe             	mov    esi,r15d
  403097:	e8 64 f7 ff ff       	call   402800 <_Z12taxicab_distii>
  40309c:	41 89 c7             	mov    r15d,eax
  40309f:	48 8b bb 28 01 00 00 	mov    rdi,QWORD PTR [rbx+0x128]
  4030a6:	e8 e5 f5 ff ff       	call   402690 <_Z9FindFirsty>
  4030ab:	bf 07 00 00 00       	mov    edi,0x7
  4030b0:	89 c6                	mov    esi,eax
  4030b2:	e8 49 f7 ff ff       	call   402800 <_Z12taxicab_distii>
  4030b7:	45 29 e7             	sub    r15d,r12d
  4030ba:	44 39 fd             	cmp    ebp,r15d
  4030bd:	0f 8f c3 05 00 00    	jg     403686 <_Z14drawn_endgamesP7state_tiii+0xb76>
  4030c3:	83 c5 ff             	add    ebp,0xffffffff
  4030c6:	44 29 e0             	sub    eax,r12d
  4030c9:	31 c9                	xor    ecx,ecx
  4030cb:	39 c5                	cmp    ebp,eax
  4030cd:	41 0f 4f ce          	cmovg  ecx,r14d
  4030d1:	45 85 f6             	test   r14d,r14d
  4030d4:	41 0f 4e ce          	cmovle ecx,r14d
  4030d8:	41 89 ce             	mov    r14d,ecx
  4030db:	e9 a6 05 00 00       	jmp    403686 <_Z14drawn_endgamesP7state_tiii+0xb76>
  4030e0:	8b 8b c0 01 00 00    	mov    ecx,DWORD PTR [rbx+0x1c0]
  4030e6:	29 c1                	sub    ecx,eax
  4030e8:	03 8b a0 01 00 00    	add    ecx,DWORD PTR [rbx+0x1a0]
  4030ee:	44 89 f0             	mov    eax,r14d
  4030f1:	c1 f8 02             	sar    eax,0x2
  4030f4:	83 f9 01             	cmp    ecx,0x1
  4030f7:	41 0f 45 c6          	cmovne eax,r14d
  4030fb:	45 85 f6             	test   r14d,r14d
  4030fe:	41 0f 4e c6          	cmovle eax,r14d
  403102:	41 89 c6             	mov    r14d,eax
  403105:	e9 c3 00 00 00       	jmp    4031cd <_Z14drawn_endgamesP7state_tiii+0x6bd>
  40310a:	48 8b 83 80 01 00 00 	mov    rax,QWORD PTR [rbx+0x180]
  403111:	48 85 05 c8 65 01 00 	test   QWORD PTR [rip+0x165c8],rax        # 4196e0 <WhiteSqMask>
  403118:	0f 85 8b 03 00 00    	jne    4034a9 <_Z14drawn_endgamesP7state_tiii+0x999>
  40311e:	49 89 f4             	mov    r12,rsi
  403121:	89 7c 24 04          	mov    DWORD PTR [rsp+0x4],edi
  403125:	bf 3f 00 00 00       	mov    edi,0x3f
  40312a:	44 89 c6             	mov    esi,r8d
  40312d:	e8 ce f6 ff ff       	call   402800 <_Z12taxicab_distii>
  403132:	83 f8 02             	cmp    eax,0x2
  403135:	0f 8c 5a 05 00 00    	jl     403695 <_Z14drawn_endgamesP7state_tiii+0xb85>
  40313b:	89 c5                	mov    ebp,eax
  40313d:	bf 3f 00 00 00       	mov    edi,0x3f
  403142:	44 89 e6             	mov    esi,r12d
  403145:	e8 b6 f6 ff ff       	call   402800 <_Z12taxicab_distii>
  40314a:	89 44 24 18          	mov    DWORD PTR [rsp+0x18],eax
  40314e:	48 8b bb 30 01 00 00 	mov    rdi,QWORD PTR [rbx+0x130]
  403155:	e8 96 f5 ff ff       	call   4026f0 <_Z8FindLasty>
  40315a:	bf 3f 00 00 00       	mov    edi,0x3f
  40315f:	89 c6                	mov    esi,eax
  403161:	e8 9a f6 ff ff       	call   402800 <_Z12taxicab_distii>
  403166:	44 8b 64 24 04       	mov    r12d,DWORD PTR [rsp+0x4]
  40316b:	8b 4c 24 18          	mov    ecx,DWORD PTR [rsp+0x18]
  40316f:	44 01 e1             	add    ecx,r12d
  403172:	39 cd                	cmp    ebp,ecx
  403174:	0f 8f 2f 03 00 00    	jg     4034a9 <_Z14drawn_endgamesP7state_tiii+0x999>
  40317a:	83 c5 ff             	add    ebp,0xffffffff
  40317d:	44 01 e0             	add    eax,r12d
  403180:	31 c9                	xor    ecx,ecx
  403182:	39 c5                	cmp    ebp,eax
  403184:	41 0f 4f ce          	cmovg  ecx,r14d
  403188:	45 85 f6             	test   r14d,r14d
  40318b:	41 0f 49 ce          	cmovns ecx,r14d
  40318f:	41 89 ce             	mov    r14d,ecx
  403192:	45 09 fd             	or     r13d,r15d
  403195:	0f 85 a3 04 00 00    	jne    40363e <_Z14drawn_endgamesP7state_tiii+0xb2e>
  40319b:	e9 12 03 00 00       	jmp    4034b2 <_Z14drawn_endgamesP7state_tiii+0x9a2>
  4031a0:	41 29 cb             	sub    r11d,ecx
  4031a3:	74 28                	je     4031cd <_Z14drawn_endgamesP7state_tiii+0x6bd>
  4031a5:	8b 83 a0 01 00 00    	mov    eax,DWORD PTR [rbx+0x1a0]
  4031ab:	03 83 c0 01 00 00    	add    eax,DWORD PTR [rbx+0x1c0]
  4031b1:	2b 83 bc 01 00 00    	sub    eax,DWORD PTR [rbx+0x1bc]
  4031b7:	2b 83 9c 01 00 00    	sub    eax,DWORD PTR [rbx+0x19c]
  4031bd:	44 89 f1             	mov    ecx,r14d
  4031c0:	c1 f9 02             	sar    ecx,0x2
  4031c3:	41 39 c3             	cmp    r11d,eax
  4031c6:	41 0f 45 ce          	cmovne ecx,r14d
  4031ca:	41 89 ce             	mov    r14d,ecx
  4031cd:	8b 7c 24 04          	mov    edi,DWORD PTR [rsp+0x4]
  4031d1:	48 8b 74 24 10       	mov    rsi,QWORD PTR [rsp+0x10]
  4031d6:	41 83 ff 04          	cmp    r15d,0x4
  4031da:	0f 84 84 f9 ff ff    	je     402b64 <_Z14drawn_endgamesP7state_tiii+0x54>
  4031e0:	e9 91 fc ff ff       	jmp    402e76 <_Z14drawn_endgamesP7state_tiii+0x366>
  4031e5:	83 bb a0 01 00 00 00 	cmp    DWORD PTR [rbx+0x1a0],0x0
  4031ec:	8b 7c 24 04          	mov    edi,DWORD PTR [rsp+0x4]
  4031f0:	0f 84 e2 04 00 00    	je     4036d8 <_Z14drawn_endgamesP7state_tiii+0xbc8>
  4031f6:	83 bb bc 01 00 00 00 	cmp    DWORD PTR [rbx+0x1bc],0x0
  4031fd:	74 15                	je     403214 <_Z14drawn_endgamesP7state_tiii+0x704>
  4031ff:	83 bb bc 01 00 00 01 	cmp    DWORD PTR [rbx+0x1bc],0x1
  403206:	0f 85 e4 04 00 00    	jne    4036f0 <_Z14drawn_endgamesP7state_tiii+0xbe0>
  40320c:	85 c9                	test   ecx,ecx
  40320e:	0f 85 dc 04 00 00    	jne    4036f0 <_Z14drawn_endgamesP7state_tiii+0xbe0>
  403214:	8b 8b a0 01 00 00    	mov    ecx,DWORD PTR [rbx+0x1a0]
  40321a:	83 f9 02             	cmp    ecx,0x2
  40321d:	7f 04                	jg     403223 <_Z14drawn_endgamesP7state_tiii+0x713>
  40321f:	85 c0                	test   eax,eax
  403221:	74 11                	je     403234 <_Z14drawn_endgamesP7state_tiii+0x724>
  403223:	83 f8 01             	cmp    eax,0x1
  403226:	0f 85 c4 04 00 00    	jne    4036f0 <_Z14drawn_endgamesP7state_tiii+0xbe0>
  40322c:	85 c9                	test   ecx,ecx
  40322e:	0f 85 bc 04 00 00    	jne    4036f0 <_Z14drawn_endgamesP7state_tiii+0xbe0>
  403234:	45 31 f6             	xor    r14d,r14d
  403237:	85 c0                	test   eax,eax
  403239:	0f 85 be 04 00 00    	jne    4036fd <_Z14drawn_endgamesP7state_tiii+0xbed>
  40323f:	e9 b0 04 00 00       	jmp    4036f4 <_Z14drawn_endgamesP7state_tiii+0xbe4>
  403244:	44 89 f0             	mov    eax,r14d
  403247:	c1 f8 1f             	sar    eax,0x1f
  40324a:	44 21 f0             	and    eax,r14d
  40324d:	41 89 c6             	mov    r14d,eax
  403250:	41 83 ff 0a          	cmp    r15d,0xa
  403254:	0f 85 e2 00 00 00    	jne    40333c <_Z14drawn_endgamesP7state_tiii+0x82c>
  40325a:	41 83 fd 06          	cmp    r13d,0x6
  40325e:	0f 85 d8 00 00 00    	jne    40333c <_Z14drawn_endgamesP7state_tiii+0x82c>
  403264:	44 89 f0             	mov    eax,r14d
  403267:	c1 f8 02             	sar    eax,0x2
  40326a:	83 bb 98 01 00 00 00 	cmp    DWORD PTR [rbx+0x198],0x0
  403271:	41 0f 4e c6          	cmovle eax,r14d
  403275:	45 85 f6             	test   r14d,r14d
  403278:	41 0f 4e c6          	cmovle eax,r14d
  40327c:	44 89 f9             	mov    ecx,r15d
  40327f:	44 29 e9             	sub    ecx,r13d
  403282:	83 f9 05             	cmp    ecx,0x5
  403285:	0f 9c c1             	setl   cl
  403288:	41 89 c6             	mov    r14d,eax
  40328b:	41 83 ff 10          	cmp    r15d,0x10
  40328f:	7f 10                	jg     4032a1 <_Z14drawn_endgamesP7state_tiii+0x791>
  403291:	45 39 ef             	cmp    r15d,r13d
  403294:	7e 0b                	jle    4032a1 <_Z14drawn_endgamesP7state_tiii+0x791>
  403296:	45 85 f6             	test   r14d,r14d
  403299:	0f 9f c0             	setg   al
  40329c:	20 c1                	and    cl,al
  40329e:	41 d3 fe             	sar    r14d,cl
  4032a1:	41 83 ff 06          	cmp    r15d,0x6
  4032a5:	0f 85 af f8 ff ff    	jne    402b5a <_Z14drawn_endgamesP7state_tiii+0x4a>
  4032ab:	41 83 fd 06          	cmp    r13d,0x6
  4032af:	0f 85 a5 f8 ff ff    	jne    402b5a <_Z14drawn_endgamesP7state_tiii+0x4a>
  4032b5:	83 bb 98 01 00 00 01 	cmp    DWORD PTR [rbx+0x198],0x1
  4032bc:	0f 85 98 f8 ff ff    	jne    402b5a <_Z14drawn_endgamesP7state_tiii+0x4a>
  4032c2:	48 89 74 24 10       	mov    QWORD PTR [rsp+0x10],rsi
  4032c7:	44 89 7c 24 08       	mov    DWORD PTR [rsp+0x8],r15d
  4032cc:	48 8b bb 30 01 00 00 	mov    rdi,QWORD PTR [rbx+0x130]
  4032d3:	4d 89 c7             	mov    r15,r8
  4032d6:	e8 15 f4 ff ff       	call   4026f0 <_Z8FindLasty>
  4032db:	41 89 c4             	mov    r12d,eax
  4032de:	44 89 ff             	mov    edi,r15d
  4032e1:	e8 ba f4 ff ff       	call   4027a0 <_Z4filei>
  4032e6:	89 c5                	mov    ebp,eax
  4032e8:	44 89 e7             	mov    edi,r12d
  4032eb:	e8 b0 f4 ff ff       	call   4027a0 <_Z4filei>
  4032f0:	29 c5                	sub    ebp,eax
  4032f2:	89 e8                	mov    eax,ebp
  4032f4:	f7 d8                	neg    eax
  4032f6:	0f 4c c5             	cmovl  eax,ebp
  4032f9:	83 f8 01             	cmp    eax,0x1
  4032fc:	7f 1a                	jg     403318 <_Z14drawn_endgamesP7state_tiii+0x808>
  4032fe:	44 89 ff             	mov    edi,r15d
  403301:	e8 8a f4 ff ff       	call   402790 <_Z4ranki>
  403306:	89 c5                	mov    ebp,eax
  403308:	44 89 e7             	mov    edi,r12d
  40330b:	e8 80 f4 ff ff       	call   402790 <_Z4ranki>
  403310:	39 c5                	cmp    ebp,eax
  403312:	0f 8c 89 01 00 00    	jl     4034a1 <_Z14drawn_endgamesP7state_tiii+0x991>
  403318:	4c 8b 7c 24 10       	mov    r15,QWORD PTR [rsp+0x10]
  40331d:	44 89 ff             	mov    edi,r15d
  403320:	e8 6b f4 ff ff       	call   402790 <_Z4ranki>
  403325:	89 c5                	mov    ebp,eax
  403327:	44 89 e7             	mov    edi,r12d
  40332a:	e8 61 f4 ff ff       	call   402790 <_Z4ranki>
  40332f:	39 c5                	cmp    ebp,eax
  403331:	0f 8f 6a 01 00 00    	jg     4034a1 <_Z14drawn_endgamesP7state_tiii+0x991>
  403337:	e9 41 01 00 00       	jmp    40347d <_Z14drawn_endgamesP7state_tiii+0x96d>
  40333c:	41 83 ff 08          	cmp    r15d,0x8
  403340:	75 1b                	jne    40335d <_Z14drawn_endgamesP7state_tiii+0x84d>
  403342:	44 89 f0             	mov    eax,r14d
  403345:	c1 f8 03             	sar    eax,0x3
  403348:	83 bb bc 01 00 00 00 	cmp    DWORD PTR [rbx+0x1bc],0x0
  40334f:	41 0f 45 c6          	cmovne eax,r14d
  403353:	45 85 f6             	test   r14d,r14d
  403356:	41 0f 4e c6          	cmovle eax,r14d
  40335a:	41 89 c6             	mov    r14d,eax
  40335d:	44 89 f8             	mov    eax,r15d
  403360:	44 29 e8             	sub    eax,r13d
  403363:	83 f8 05             	cmp    eax,0x5
  403366:	0f 9c c1             	setl   cl
  403369:	41 83 ff 08          	cmp    r15d,0x8
  40336d:	0f 8f 18 ff ff ff    	jg     40328b <_Z14drawn_endgamesP7state_tiii+0x77b>
  403373:	83 f8 04             	cmp    eax,0x4
  403376:	0f 8f 0f ff ff ff    	jg     40328b <_Z14drawn_endgamesP7state_tiii+0x77b>
  40337c:	44 89 f0             	mov    eax,r14d
  40337f:	c1 f8 03             	sar    eax,0x3
  403382:	45 85 f6             	test   r14d,r14d
  403385:	41 0f 4e c6          	cmovle eax,r14d
  403389:	41 89 c6             	mov    r14d,eax
  40338c:	41 83 ff 06          	cmp    r15d,0x6
  403390:	0f 84 15 ff ff ff    	je     4032ab <_Z14drawn_endgamesP7state_tiii+0x79b>
  403396:	e9 bf f7 ff ff       	jmp    402b5a <_Z14drawn_endgamesP7state_tiii+0x4a>
  40339b:	31 c9                	xor    ecx,ecx
  40339d:	45 85 f6             	test   r14d,r14d
  4033a0:	41 0f 49 ce          	cmovns ecx,r14d
  4033a4:	41 89 ce             	mov    r14d,ecx
  4033a7:	41 83 ff 06          	cmp    r15d,0x6
  4033ab:	0f 85 51 01 00 00    	jne    403502 <_Z14drawn_endgamesP7state_tiii+0x9f2>
  4033b1:	41 83 fd 0a          	cmp    r13d,0xa
  4033b5:	0f 85 47 01 00 00    	jne    403502 <_Z14drawn_endgamesP7state_tiii+0x9f2>
  4033bb:	44 89 f2             	mov    edx,r14d
  4033be:	c1 fa 02             	sar    edx,0x2
  4033c1:	45 85 f6             	test   r14d,r14d
  4033c4:	41 0f 49 d6          	cmovns edx,r14d
  4033c8:	85 c0                	test   eax,eax
  4033ca:	41 0f 4e d6          	cmovle edx,r14d
  4033ce:	44 89 e9             	mov    ecx,r13d
  4033d1:	44 29 f9             	sub    ecx,r15d
  4033d4:	83 f9 05             	cmp    ecx,0x5
  4033d7:	0f 9c c1             	setl   cl
  4033da:	41 89 d6             	mov    r14d,edx
  4033dd:	41 83 fd 10          	cmp    r13d,0x10
  4033e1:	7f 10                	jg     4033f3 <_Z14drawn_endgamesP7state_tiii+0x8e3>
  4033e3:	45 39 fd             	cmp    r13d,r15d
  4033e6:	7e 0b                	jle    4033f3 <_Z14drawn_endgamesP7state_tiii+0x8e3>
  4033e8:	45 85 f6             	test   r14d,r14d
  4033eb:	0f 98 c2             	sets   dl
  4033ee:	20 d1                	and    cl,dl
  4033f0:	41 d3 fe             	sar    r14d,cl
  4033f3:	41 83 fd 06          	cmp    r13d,0x6
  4033f7:	0f 85 5d f7 ff ff    	jne    402b5a <_Z14drawn_endgamesP7state_tiii+0x4a>
  4033fd:	41 83 ff 06          	cmp    r15d,0x6
  403401:	0f 85 53 f7 ff ff    	jne    402b5a <_Z14drawn_endgamesP7state_tiii+0x4a>
  403407:	83 f8 01             	cmp    eax,0x1
  40340a:	0f 85 4a f7 ff ff    	jne    402b5a <_Z14drawn_endgamesP7state_tiii+0x4a>
  403410:	44 89 7c 24 08       	mov    DWORD PTR [rsp+0x8],r15d
  403415:	4c 89 44 24 18       	mov    QWORD PTR [rsp+0x18],r8
  40341a:	48 8b bb 28 01 00 00 	mov    rdi,QWORD PTR [rbx+0x128]
  403421:	49 89 f7             	mov    r15,rsi
  403424:	e8 67 f2 ff ff       	call   402690 <_Z9FindFirsty>
  403429:	41 89 c4             	mov    r12d,eax
  40342c:	44 89 ff             	mov    edi,r15d
  40342f:	e8 6c f3 ff ff       	call   4027a0 <_Z4filei>
  403434:	89 c5                	mov    ebp,eax
  403436:	44 89 e7             	mov    edi,r12d
  403439:	e8 62 f3 ff ff       	call   4027a0 <_Z4filei>
  40343e:	29 c5                	sub    ebp,eax
  403440:	89 e8                	mov    eax,ebp
  403442:	f7 d8                	neg    eax
  403444:	0f 4c c5             	cmovl  eax,ebp
  403447:	83 f8 01             	cmp    eax,0x1
  40344a:	7f 16                	jg     403462 <_Z14drawn_endgamesP7state_tiii+0x952>
  40344c:	44 89 ff             	mov    edi,r15d
  40344f:	e8 3c f3 ff ff       	call   402790 <_Z4ranki>
  403454:	89 c5                	mov    ebp,eax
  403456:	44 89 e7             	mov    edi,r12d
  403459:	e8 32 f3 ff ff       	call   402790 <_Z4ranki>
  40345e:	39 c5                	cmp    ebp,eax
  403460:	7f 3f                	jg     4034a1 <_Z14drawn_endgamesP7state_tiii+0x991>
  403462:	4c 8b 7c 24 18       	mov    r15,QWORD PTR [rsp+0x18]
  403467:	44 89 ff             	mov    edi,r15d
  40346a:	e8 21 f3 ff ff       	call   402790 <_Z4ranki>
  40346f:	89 c5                	mov    ebp,eax
  403471:	44 89 e7             	mov    edi,r12d
  403474:	e8 17 f3 ff ff       	call   402790 <_Z4ranki>
  403479:	39 c5                	cmp    ebp,eax
  40347b:	7c 24                	jl     4034a1 <_Z14drawn_endgamesP7state_tiii+0x991>
  40347d:	44 89 ff             	mov    edi,r15d
  403480:	e8 1b f3 ff ff       	call   4027a0 <_Z4filei>
  403485:	89 c5                	mov    ebp,eax
  403487:	44 89 e7             	mov    edi,r12d
  40348a:	e8 11 f3 ff ff       	call   4027a0 <_Z4filei>
  40348f:	29 c5                	sub    ebp,eax
  403491:	89 e8                	mov    eax,ebp
  403493:	f7 d8                	neg    eax
  403495:	0f 4c c5             	cmovl  eax,ebp
  403498:	83 f8 02             	cmp    eax,0x2
  40349b:	0f 8c e5 01 00 00    	jl     403686 <_Z14drawn_endgamesP7state_tiii+0xb76>
  4034a1:	41 d1 fe             	sar    r14d,1
  4034a4:	44 8b 7c 24 08       	mov    r15d,DWORD PTR [rsp+0x8]
  4034a9:	45 09 fd             	or     r13d,r15d
  4034ac:	0f 85 8c 01 00 00    	jne    40363e <_Z14drawn_endgamesP7state_tiii+0xb2e>
  4034b2:	83 bb 94 01 00 00 01 	cmp    DWORD PTR [rbx+0x194],0x1
  4034b9:	0f 85 ec 00 00 00    	jne    4035ab <_Z14drawn_endgamesP7state_tiii+0xa9b>
  4034bf:	48 8b 83 28 01 00 00 	mov    rax,QWORD PTR [rbx+0x128]
  4034c6:	48 85 05 7b 52 01 00 	test   QWORD PTR [rip+0x1527b],rax        # 418748 <FileMask+0x38>
  4034cd:	0f 84 8e 00 00 00    	je     403561 <_Z14drawn_endgamesP7state_tiii+0xa51>
  4034d3:	48 8b 05 ae 4a 01 00 	mov    rax,QWORD PTR [rip+0x14aae]        # 417f88 <Mask+0x78>
  4034da:	48 0b 05 67 4a 01 00 	or     rax,QWORD PTR [rip+0x14a67]        # 417f48 <Mask+0x38>
  4034e1:	48 0b 05 98 4a 01 00 	or     rax,QWORD PTR [rip+0x14a98]        # 417f80 <Mask+0x70>
  4034e8:	48 0b 05 51 4a 01 00 	or     rax,QWORD PTR [rip+0x14a51]        # 417f40 <Mask+0x30>
  4034ef:	48 0b 05 42 4a 01 00 	or     rax,QWORD PTR [rip+0x14a42]        # 417f38 <Mask+0x28>
  4034f6:	48 0b 05 cb 4a 01 00 	or     rax,QWORD PTR [rip+0x14acb]        # 417fc8 <Mask+0xb8>
  4034fd:	e9 92 00 00 00       	jmp    403594 <_Z14drawn_endgamesP7state_tiii+0xa84>
  403502:	41 83 fd 08          	cmp    r13d,0x8
  403506:	75 1b                	jne    403523 <_Z14drawn_endgamesP7state_tiii+0xa13>
  403508:	44 89 f1             	mov    ecx,r14d
  40350b:	c1 f9 03             	sar    ecx,0x3
  40350e:	83 bb c0 01 00 00 00 	cmp    DWORD PTR [rbx+0x1c0],0x0
  403515:	41 0f 45 ce          	cmovne ecx,r14d
  403519:	45 85 f6             	test   r14d,r14d
  40351c:	41 0f 49 ce          	cmovns ecx,r14d
  403520:	41 89 ce             	mov    r14d,ecx
  403523:	44 89 ea             	mov    edx,r13d
  403526:	44 29 fa             	sub    edx,r15d
  403529:	83 fa 05             	cmp    edx,0x5
  40352c:	0f 9c c1             	setl   cl
  40352f:	41 83 fd 08          	cmp    r13d,0x8
  403533:	0f 8f a4 fe ff ff    	jg     4033dd <_Z14drawn_endgamesP7state_tiii+0x8cd>
  403539:	83 fa 04             	cmp    edx,0x4
  40353c:	0f 8f 9b fe ff ff    	jg     4033dd <_Z14drawn_endgamesP7state_tiii+0x8cd>
  403542:	44 89 f1             	mov    ecx,r14d
  403545:	c1 f9 03             	sar    ecx,0x3
  403548:	45 85 f6             	test   r14d,r14d
  40354b:	41 0f 49 ce          	cmovns ecx,r14d
  40354f:	41 89 ce             	mov    r14d,ecx
  403552:	41 83 fd 06          	cmp    r13d,0x6
  403556:	0f 84 a1 fe ff ff    	je     4033fd <_Z14drawn_endgamesP7state_tiii+0x8ed>
  40355c:	e9 f9 f5 ff ff       	jmp    402b5a <_Z14drawn_endgamesP7state_tiii+0x4a>
  403561:	48 85 05 a8 51 01 00 	test   QWORD PTR [rip+0x151a8],rax        # 418710 <FileMask>
  403568:	74 3e                	je     4035a8 <_Z14drawn_endgamesP7state_tiii+0xa98>
  40356a:	48 8b 05 df 49 01 00 	mov    rax,QWORD PTR [rip+0x149df]        # 417f50 <Mask+0x40>
  403571:	48 0b 05 98 49 01 00 	or     rax,QWORD PTR [rip+0x14998]        # 417f10 <Mask>
  403578:	48 0b 05 d9 49 01 00 	or     rax,QWORD PTR [rip+0x149d9]        # 417f58 <Mask+0x48>
  40357f:	48 0b 05 92 49 01 00 	or     rax,QWORD PTR [rip+0x14992]        # 417f18 <Mask+0x8>
  403586:	48 0b 05 93 49 01 00 	or     rax,QWORD PTR [rip+0x14993]        # 417f20 <Mask+0x10>
  40358d:	48 0b 05 fc 49 01 00 	or     rax,QWORD PTR [rip+0x149fc]        # 417f90 <Mask+0x80>
  403594:	44 89 f1             	mov    ecx,r14d
  403597:	c1 f9 02             	sar    ecx,0x2
  40359a:	48 85 83 50 01 00 00 	test   QWORD PTR [rbx+0x150],rax
  4035a1:	41 0f 44 ce          	cmove  ecx,r14d
  4035a5:	41 89 ce             	mov    r14d,ecx
  4035a8:	41 d1 fe             	sar    r14d,1
  4035ab:	83 bb 98 01 00 00 01 	cmp    DWORD PTR [rbx+0x198],0x1
  4035b2:	0f 85 86 00 00 00    	jne    40363e <_Z14drawn_endgamesP7state_tiii+0xb2e>
  4035b8:	48 8b 83 30 01 00 00 	mov    rax,QWORD PTR [rbx+0x130]
  4035bf:	48 85 05 82 51 01 00 	test   QWORD PTR [rip+0x15182],rax        # 418748 <FileMask+0x38>
  4035c6:	74 2c                	je     4035f4 <_Z14drawn_endgamesP7state_tiii+0xae4>
  4035c8:	48 8b 05 f9 4a 01 00 	mov    rax,QWORD PTR [rip+0x14af9]        # 4180c8 <Mask+0x1b8>
  4035cf:	48 0b 05 32 4b 01 00 	or     rax,QWORD PTR [rip+0x14b32]        # 418108 <Mask+0x1f8>
  4035d6:	48 0b 05 23 4b 01 00 	or     rax,QWORD PTR [rip+0x14b23]        # 418100 <Mask+0x1f0>
  4035dd:	48 0b 05 dc 4a 01 00 	or     rax,QWORD PTR [rip+0x14adc]        # 4180c0 <Mask+0x1b0>
  4035e4:	48 0b 05 0d 4b 01 00 	or     rax,QWORD PTR [rip+0x14b0d]        # 4180f8 <Mask+0x1e8>
  4035eb:	48 0b 05 96 4a 01 00 	or     rax,QWORD PTR [rip+0x14a96]        # 418088 <Mask+0x178>
  4035f2:	eb 33                	jmp    403627 <_Z14drawn_endgamesP7state_tiii+0xb17>
  4035f4:	48 85 05 15 51 01 00 	test   QWORD PTR [rip+0x15115],rax        # 418710 <FileMask>
  4035fb:	74 3e                	je     40363b <_Z14drawn_endgamesP7state_tiii+0xb2b>
  4035fd:	48 8b 05 8c 4a 01 00 	mov    rax,QWORD PTR [rip+0x14a8c]        # 418090 <Mask+0x180>
  403604:	48 0b 05 c5 4a 01 00 	or     rax,QWORD PTR [rip+0x14ac5]        # 4180d0 <Mask+0x1c0>
  40360b:	48 0b 05 c6 4a 01 00 	or     rax,QWORD PTR [rip+0x14ac6]        # 4180d8 <Mask+0x1c8>
  403612:	48 0b 05 7f 4a 01 00 	or     rax,QWORD PTR [rip+0x14a7f]        # 418098 <Mask+0x188>
  403619:	48 0b 05 c0 4a 01 00 	or     rax,QWORD PTR [rip+0x14ac0]        # 4180e0 <Mask+0x1d0>
  403620:	48 0b 05 29 4a 01 00 	or     rax,QWORD PTR [rip+0x14a29]        # 418050 <Mask+0x140>
  403627:	44 89 f1             	mov    ecx,r14d
  40362a:	c1 f9 02             	sar    ecx,0x2
  40362d:	48 85 83 48 01 00 00 	test   QWORD PTR [rbx+0x148],rax
  403634:	41 0f 44 ce          	cmove  ecx,r14d
  403638:	41 89 ce             	mov    r14d,ecx
  40363b:	41 d1 fe             	sar    r14d,1
  40363e:	44 89 f0             	mov    eax,r14d
  403641:	48 83 c4 28          	add    rsp,0x28
  403645:	5b                   	pop    rbx
  403646:	41 5c                	pop    r12
  403648:	41 5d                	pop    r13
  40364a:	41 5e                	pop    r14
  40364c:	41 5f                	pop    r15
  40364e:	5d                   	pop    rbp
  40364f:	c3                   	ret    
  403650:	8b 8b bc 01 00 00    	mov    ecx,DWORD PTR [rbx+0x1bc]
  403656:	29 c1                	sub    ecx,eax
  403658:	03 8b 9c 01 00 00    	add    ecx,DWORD PTR [rbx+0x19c]
  40365e:	44 89 f0             	mov    eax,r14d
  403661:	c1 f8 02             	sar    eax,0x2
  403664:	83 f9 01             	cmp    ecx,0x1
  403667:	41 0f 45 c6          	cmovne eax,r14d
  40366b:	45 85 f6             	test   r14d,r14d
  40366e:	41 0f 49 c6          	cmovns eax,r14d
  403672:	41 89 c6             	mov    r14d,eax
  403675:	e9 ee f7 ff ff       	jmp    402e68 <_Z14drawn_endgamesP7state_tiii+0x358>
  40367a:	44 89 f0             	mov    eax,r14d
  40367d:	c1 f8 1f             	sar    eax,0x1f
  403680:	44 21 f0             	and    eax,r14d
  403683:	41 89 c6             	mov    r14d,eax
  403686:	44 8b 7c 24 08       	mov    r15d,DWORD PTR [rsp+0x8]
  40368b:	45 09 fd             	or     r13d,r15d
  40368e:	75 ae                	jne    40363e <_Z14drawn_endgamesP7state_tiii+0xb2e>
  403690:	e9 1d fe ff ff       	jmp    4034b2 <_Z14drawn_endgamesP7state_tiii+0x9a2>
  403695:	31 c0                	xor    eax,eax
  403697:	45 85 f6             	test   r14d,r14d
  40369a:	41 0f 49 c6          	cmovns eax,r14d
  40369e:	41 89 c6             	mov    r14d,eax
  4036a1:	45 09 fd             	or     r13d,r15d
  4036a4:	75 98                	jne    40363e <_Z14drawn_endgamesP7state_tiii+0xb2e>
  4036a6:	e9 07 fe ff ff       	jmp    4034b2 <_Z14drawn_endgamesP7state_tiii+0x9a2>
  4036ab:	83 bb 9c 01 00 00 02 	cmp    DWORD PTR [rbx+0x19c],0x2
  4036b2:	48 8b 74 24 10       	mov    rsi,QWORD PTR [rsp+0x10]
  4036b7:	7f 0d                	jg     4036c6 <_Z14drawn_endgamesP7state_tiii+0xbb6>
  4036b9:	31 c9                	xor    ecx,ecx
  4036bb:	83 bb a0 01 00 00 03 	cmp    DWORD PTR [rbx+0x1a0],0x3
  4036c2:	44 0f 4c f1          	cmovl  r14d,ecx
  4036c6:	8b 7c 24 04          	mov    edi,DWORD PTR [rsp+0x4]
  4036ca:	83 bb a0 01 00 00 00 	cmp    DWORD PTR [rbx+0x1a0],0x0
  4036d1:	75 2a                	jne    4036fd <_Z14drawn_endgamesP7state_tiii+0xbed>
  4036d3:	e9 9b 00 00 00       	jmp    403773 <_Z14drawn_endgamesP7state_tiii+0xc63>
  4036d8:	8b 8b bc 01 00 00    	mov    ecx,DWORD PTR [rbx+0x1bc]
  4036de:	29 c1                	sub    ecx,eax
  4036e0:	89 ca                	mov    edx,ecx
  4036e2:	f7 da                	neg    edx
  4036e4:	0f 4c d1             	cmovl  edx,ecx
  4036e7:	31 c9                	xor    ecx,ecx
  4036e9:	83 fa 02             	cmp    edx,0x2
  4036ec:	44 0f 4c f1          	cmovl  r14d,ecx
  4036f0:	85 c0                	test   eax,eax
  4036f2:	75 09                	jne    4036fd <_Z14drawn_endgamesP7state_tiii+0xbed>
  4036f4:	83 bb a0 01 00 00 00 	cmp    DWORD PTR [rbx+0x1a0],0x0
  4036fb:	74 76                	je     403773 <_Z14drawn_endgamesP7state_tiii+0xc63>
  4036fd:	83 bb bc 01 00 00 00 	cmp    DWORD PTR [rbx+0x1bc],0x0
  403704:	0f 85 50 f4 ff ff    	jne    402b5a <_Z14drawn_endgamesP7state_tiii+0x4a>
  40370a:	83 f8 01             	cmp    eax,0x1
  40370d:	0f 85 47 f4 ff ff    	jne    402b5a <_Z14drawn_endgamesP7state_tiii+0x4a>
  403713:	8b 83 9c 01 00 00    	mov    eax,DWORD PTR [rbx+0x19c]
  403719:	85 c0                	test   eax,eax
  40371b:	0f 85 39 f4 ff ff    	jne    402b5a <_Z14drawn_endgamesP7state_tiii+0x4a>
  403721:	83 bb a0 01 00 00 01 	cmp    DWORD PTR [rbx+0x1a0],0x1
  403728:	0f 85 2c f4 ff ff    	jne    402b5a <_Z14drawn_endgamesP7state_tiii+0x4a>
  40372e:	48 8b 83 80 01 00 00 	mov    rax,QWORD PTR [rbx+0x180]
  403735:	48 85 05 ac 5f 01 00 	test   QWORD PTR [rip+0x15fac],rax        # 4196e8 <BlackSqMask>
  40373c:	0f 84 91 00 00 00    	je     4037d3 <_Z14drawn_endgamesP7state_tiii+0xcc3>
  403742:	bf 38 00 00 00       	mov    edi,0x38
  403747:	44 89 c6             	mov    esi,r8d
  40374a:	4d 89 c4             	mov    r12,r8
  40374d:	e8 5e f0 ff ff       	call   4027b0 <_Z8sum_distii>
  403752:	89 c5                	mov    ebp,eax
  403754:	bf 07 00 00 00       	mov    edi,0x7
  403759:	44 89 e6             	mov    esi,r12d
  40375c:	e8 4f f0 ff ff       	call   4027b0 <_Z8sum_distii>
  403761:	39 c5                	cmp    ebp,eax
  403763:	0f 8d 8e 00 00 00    	jge    4037f7 <_Z14drawn_endgamesP7state_tiii+0xce7>
  403769:	bf 38 00 00 00       	mov    edi,0x38
  40376e:	e9 b1 00 00 00       	jmp    403824 <_Z14drawn_endgamesP7state_tiii+0xd14>
  403773:	83 bb bc 01 00 00 01 	cmp    DWORD PTR [rbx+0x1bc],0x1
  40377a:	0f 85 da f3 ff ff    	jne    402b5a <_Z14drawn_endgamesP7state_tiii+0x4a>
  403780:	83 bb 9c 01 00 00 01 	cmp    DWORD PTR [rbx+0x19c],0x1
  403787:	0f 85 cd f3 ff ff    	jne    402b5a <_Z14drawn_endgamesP7state_tiii+0x4a>
  40378d:	44 89 7c 24 08       	mov    DWORD PTR [rsp+0x8],r15d
  403792:	41 89 ff             	mov    r15d,edi
  403795:	48 8b 83 78 01 00 00 	mov    rax,QWORD PTR [rbx+0x178]
  40379c:	48 85 05 45 5f 01 00 	test   QWORD PTR [rip+0x15f45],rax        # 4196e8 <BlackSqMask>
  4037a3:	74 59                	je     4037fe <_Z14drawn_endgamesP7state_tiii+0xcee>
  4037a5:	bf 38 00 00 00       	mov    edi,0x38
  4037aa:	49 89 f4             	mov    r12,rsi
  4037ad:	e8 fe ef ff ff       	call   4027b0 <_Z8sum_distii>
  4037b2:	89 c5                	mov    ebp,eax
  4037b4:	bf 07 00 00 00       	mov    edi,0x7
  4037b9:	44 89 e6             	mov    esi,r12d
  4037bc:	e8 ef ef ff ff       	call   4027b0 <_Z8sum_distii>
  4037c1:	39 c5                	cmp    ebp,eax
  4037c3:	0f 8d 83 00 00 00    	jge    40384c <_Z14drawn_endgamesP7state_tiii+0xd3c>
  4037c9:	bf 38 00 00 00       	mov    edi,0x38
  4037ce:	e9 85 00 00 00       	jmp    403858 <_Z14drawn_endgamesP7state_tiii+0xd48>
  4037d3:	31 ff                	xor    edi,edi
  4037d5:	44 89 c6             	mov    esi,r8d
  4037d8:	4d 89 c4             	mov    r12,r8
  4037db:	e8 d0 ef ff ff       	call   4027b0 <_Z8sum_distii>
  4037e0:	89 c5                	mov    ebp,eax
  4037e2:	bf 3f 00 00 00       	mov    edi,0x3f
  4037e7:	44 89 e6             	mov    esi,r12d
  4037ea:	e8 c1 ef ff ff       	call   4027b0 <_Z8sum_distii>
  4037ef:	39 c5                	cmp    ebp,eax
  4037f1:	7d 2c                	jge    40381f <_Z14drawn_endgamesP7state_tiii+0xd0f>
  4037f3:	31 ff                	xor    edi,edi
  4037f5:	eb 2d                	jmp    403824 <_Z14drawn_endgamesP7state_tiii+0xd14>
  4037f7:	bf 07 00 00 00       	mov    edi,0x7
  4037fc:	eb 26                	jmp    403824 <_Z14drawn_endgamesP7state_tiii+0xd14>
  4037fe:	31 ff                	xor    edi,edi
  403800:	49 89 f4             	mov    r12,rsi
  403803:	e8 a8 ef ff ff       	call   4027b0 <_Z8sum_distii>
  403808:	89 c5                	mov    ebp,eax
  40380a:	bf 3f 00 00 00       	mov    edi,0x3f
  40380f:	44 89 e6             	mov    esi,r12d
  403812:	e8 99 ef ff ff       	call   4027b0 <_Z8sum_distii>
  403817:	39 c5                	cmp    ebp,eax
  403819:	7d 38                	jge    403853 <_Z14drawn_endgamesP7state_tiii+0xd43>
  40381b:	31 ff                	xor    edi,edi
  40381d:	eb 39                	jmp    403858 <_Z14drawn_endgamesP7state_tiii+0xd48>
  40381f:	bf 3f 00 00 00       	mov    edi,0x3f
  403824:	44 89 e6             	mov    esi,r12d
  403827:	e8 84 ef ff ff       	call   4027b0 <_Z8sum_distii>
  40382c:	89 c1                	mov    ecx,eax
  40382e:	c1 e1 05             	shl    ecx,0x5
  403831:	29 c1                	sub    ecx,eax
  403833:	29 c1                	sub    ecx,eax
  403835:	45 8d 34 0e          	lea    r14d,[r14+rcx*1]
  403839:	41 81 c6 10 ff ff ff 	add    r14d,0xffffff10
  403840:	8b 7c 24 04          	mov    edi,DWORD PTR [rsp+0x4]
  403844:	4d 89 e0             	mov    r8,r12
  403847:	e9 85 f9 ff ff       	jmp    4031d1 <_Z14drawn_endgamesP7state_tiii+0x6c1>
  40384c:	bf 07 00 00 00       	mov    edi,0x7
  403851:	eb 05                	jmp    403858 <_Z14drawn_endgamesP7state_tiii+0xd48>
  403853:	bf 3f 00 00 00       	mov    edi,0x3f
  403858:	44 89 e6             	mov    esi,r12d
  40385b:	e8 50 ef ff ff       	call   4027b0 <_Z8sum_distii>
  403860:	6b c0 e2             	imul   eax,eax,0xffffffe2
  403863:	45 8d 34 06          	lea    r14d,[r14+rax*1]
  403867:	41 81 c6 f0 00 00 00 	add    r14d,0xf0
  40386e:	44 89 ff             	mov    edi,r15d
  403871:	4c 8b 44 24 18       	mov    r8,QWORD PTR [rsp+0x18]
  403876:	44 8b 7c 24 08       	mov    r15d,DWORD PTR [rsp+0x8]
  40387b:	4c 89 e6             	mov    rsi,r12
  40387e:	41 83 ff 04          	cmp    r15d,0x4
  403882:	0f 84 dc f2 ff ff    	je     402b64 <_Z14drawn_endgamesP7state_tiii+0x54>
  403888:	e9 e9 f5 ff ff       	jmp    402e76 <_Z14drawn_endgamesP7state_tiii+0x366>
  40388d:	0f 1f 00             	nop    DWORD PTR [rax]

0000000000403890 <_Z14setup_epd_lineP11gamestate_tP7state_tPKc>:
  403890:	55                   	push   rbp
  403891:	41 57                	push   r15
  403893:	41 56                	push   r14
  403895:	41 55                	push   r13
  403897:	41 54                	push   r12
  403899:	53                   	push   rbx
  40389a:	48 83 ec 38          	sub    rsp,0x38
  40389e:	49 89 d4             	mov    r12,rdx
  4038a1:	48 89 f3             	mov    rbx,rsi
  4038a4:	48 89 7c 24 30       	mov    QWORD PTR [rsp+0x30],rdi
  4038a9:	e8 02 ad 00 00       	call   40e5b0 <_Z9init_gameP11gamestate_tP7state_t>
  4038ae:	48 8d 43 04          	lea    rax,[rbx+0x4]
  4038b2:	48 89 44 24 28       	mov    QWORD PTR [rsp+0x28],rax
  4038b7:	c5 f8 57 c0          	vxorps xmm0,xmm0,xmm0
  4038bb:	c5 fc 11 83 e4 00 00 	vmovups YMMWORD PTR [rbx+0xe4],ymm0
  4038c2:	00 
  4038c3:	c5 fc 11 83 c4 00 00 	vmovups YMMWORD PTR [rbx+0xc4],ymm0
  4038ca:	00 
  4038cb:	c5 fc 11 83 a4 00 00 	vmovups YMMWORD PTR [rbx+0xa4],ymm0
  4038d2:	00 
  4038d3:	c5 fc 11 83 84 00 00 	vmovups YMMWORD PTR [rbx+0x84],ymm0
  4038da:	00 
  4038db:	c5 fc 11 43 64       	vmovups YMMWORD PTR [rbx+0x64],ymm0
  4038e0:	c5 fc 11 43 44       	vmovups YMMWORD PTR [rbx+0x44],ymm0
  4038e5:	c5 fc 11 43 24       	vmovups YMMWORD PTR [rbx+0x24],ymm0
  4038ea:	c5 fc 11 43 04       	vmovups YMMWORD PTR [rbx+0x4],ymm0
  4038ef:	c7 83 c4 01 00 00 00 	mov    DWORD PTR [rbx+0x1c4],0x0
  4038f6:	00 00 00 
  4038f9:	c5 f8 28 05 af ca 00 	vmovaps xmm0,XMMWORD PTR [rip+0xcaaf]        # 4103b0 <_ZL10magictable+0x100>
  403900:	00 
  403901:	c5 f8 11 83 1c 11 00 	vmovups XMMWORD PTR [rbx+0x111c],xmm0
  403908:	00 
  403909:	41 be ff ff ff ff    	mov    r14d,0xffffffff
  40390f:	4c 89 e0             	mov    rax,r12
  403912:	66 2e 0f 1f 84 00 00 	cs nop WORD PTR [rax+rax*1+0x0]
  403919:	00 00 00 
  40391c:	0f 1f 40 00          	nop    DWORD PTR [rax+0x0]
  403920:	41 83 c6 01          	add    r14d,0x1
  403924:	80 38 20             	cmp    BYTE PTR [rax],0x20
  403927:	48 8d 40 01          	lea    rax,[rax+0x1]
  40392b:	74 f3                	je     403920 <_Z14setup_epd_lineP11gamestate_tP7state_tPKc+0x90>
  40392d:	4d 8d 6c 24 01       	lea    r13,[r12+0x1]
  403932:	31 c0                	xor    eax,eax
  403934:	48 89 44 24 08       	mov    QWORD PTR [rsp+0x8],rax
  403939:	31 c0                	xor    eax,eax
  40393b:	48 89 44 24 10       	mov    QWORD PTR [rsp+0x10],rax
  403940:	c7 44 24 24 00 00 00 	mov    DWORD PTR [rsp+0x24],0x0
  403947:	00 
  403948:	31 ed                	xor    ebp,ebp
  40394a:	c7 44 24 04 00 00 00 	mov    DWORD PTR [rsp+0x4],0x0
  403951:	00 
  403952:	4c 89 6c 24 18       	mov    QWORD PTR [rsp+0x18],r13
  403957:	eb 0b                	jmp    403964 <_Z14setup_epd_lineP11gamestate_tP7state_tPKc+0xd4>
  403959:	0f 1f 80 00 00 00 00 	nop    DWORD PTR [rax+0x0]
  403960:	41 83 c6 01          	add    r14d,0x1
  403964:	49 63 c6             	movsxd rax,r14d
  403967:	41 8a 0c 04          	mov    cl,BYTE PTR [r12+rax*1]
  40396b:	80 f9 20             	cmp    cl,0x20
  40396e:	0f 84 9c 00 00 00    	je     403a10 <_Z14setup_epd_lineP11gamestate_tP7state_tPKc+0x180>
  403974:	84 c9                	test   cl,cl
  403976:	0f 84 a0 04 00 00    	je     403e1c <_Z14setup_epd_lineP11gamestate_tP7state_tPKc+0x58c>
  40397c:	80 f9 0a             	cmp    cl,0xa
  40397f:	0f 84 97 04 00 00    	je     403e1c <_Z14setup_epd_lineP11gamestate_tP7state_tPKc+0x58c>
  403985:	83 fd 04             	cmp    ebp,0x4
  403988:	0f 87 72 04 00 00    	ja     403e00 <_Z14setup_epd_lineP11gamestate_tP7state_tPKc+0x570>
  40398e:	89 e8                	mov    eax,ebp
  403990:	ff 24 c5 c0 03 41 00 	jmp    QWORD PTR [rax*8+0x4103c0]
  403997:	89 2c 24             	mov    DWORD PTR [rsp],ebp
  40399a:	4d 63 fe             	movsxd r15,r14d
  40399d:	47 0f be 2c 3c       	movsx  r13d,BYTE PTR [r12+r15*1]
  4039a2:	41 8d 45 d0          	lea    eax,[r13-0x30]
  4039a6:	83 f8 09             	cmp    eax,0x9
  4039a9:	0f 87 2b 01 00 00    	ja     403ada <_Z14setup_epd_lineP11gamestate_tP7state_tPKc+0x24a>
  4039af:	4d 01 e7             	add    r15,r12
  4039b2:	4c 89 ff             	mov    rdi,r15
  4039b5:	c5 f8 77             	vzeroupper 
  4039b8:	e8 c3 d7 ff ff       	call   401180 <atoi@plt>
  4039bd:	85 c0                	test   eax,eax
  4039bf:	0f 8e 40 01 00 00    	jle    403b05 <_Z14setup_epd_lineP11gamestate_tP7state_tPKc+0x275>
  4039c5:	49 89 dd             	mov    r13,rbx
  4039c8:	48 63 44 24 08       	movsxd rax,DWORD PTR [rsp+0x8]
  4039cd:	48 63 4c 24 10       	movsxd rcx,DWORD PTR [rsp+0x10]
  4039d2:	48 01 c1             	add    rcx,rax
  4039d5:	48 8b 44 24 28       	mov    rax,QWORD PTR [rsp+0x28]
  4039da:	48 8d 1c 88          	lea    rbx,[rax+rcx*4]
  4039de:	31 ed                	xor    ebp,ebp
  4039e0:	c7 04 ab 0d 00 00 00 	mov    DWORD PTR [rbx+rbp*4],0xd
  4039e7:	4c 89 ff             	mov    rdi,r15
  4039ea:	e8 91 d7 ff ff       	call   401180 <atoi@plt>
  4039ef:	48 83 c5 01          	add    rbp,0x1
  4039f3:	39 c5                	cmp    ebp,eax
  4039f5:	7c e9                	jl     4039e0 <_Z14setup_epd_lineP11gamestate_tP7state_tPKc+0x150>
  4039f7:	48 8b 44 24 08       	mov    rax,QWORD PTR [rsp+0x8]
  4039fc:	01 e8                	add    eax,ebp
  4039fe:	48 89 44 24 08       	mov    QWORD PTR [rsp+0x8],rax
  403a03:	4c 89 eb             	mov    rbx,r13
  403a06:	e9 fa 00 00 00       	jmp    403b05 <_Z14setup_epd_lineP11gamestate_tP7state_tPKc+0x275>
  403a0b:	0f 1f 44 00 00       	nop    DWORD PTR [rax+rax*1+0x0]
  403a10:	4c 01 e8             	add    rax,r13
  403a13:	66 2e 0f 1f 84 00 00 	cs nop WORD PTR [rax+rax*1+0x0]
  403a1a:	00 00 00 
  403a1d:	0f 1f 00             	nop    DWORD PTR [rax]
  403a20:	41 83 c6 01          	add    r14d,0x1
  403a24:	80 38 20             	cmp    BYTE PTR [rax],0x20
  403a27:	48 8d 40 01          	lea    rax,[rax+0x1]
  403a2b:	74 f3                	je     403a20 <_Z14setup_epd_lineP11gamestate_tP7state_tPKc+0x190>
  403a2d:	83 c5 01             	add    ebp,0x1
  403a30:	83 fd 04             	cmp    ebp,0x4
  403a33:	0f 86 55 ff ff ff    	jbe    40398e <_Z14setup_epd_lineP11gamestate_tP7state_tPKc+0xfe>
  403a39:	e9 c2 03 00 00       	jmp    403e00 <_Z14setup_epd_lineP11gamestate_tP7state_tPKc+0x570>
  403a3e:	49 63 c6             	movsxd rax,r14d
  403a41:	41 80 3c 04 77       	cmp    BYTE PTR [r12+rax*1],0x77
  403a46:	0f 85 c6 00 00 00    	jne    403b12 <_Z14setup_epd_lineP11gamestate_tP7state_tPKc+0x282>
  403a4c:	c7 83 cc 01 00 00 01 	mov    DWORD PTR [rbx+0x1cc],0x1
  403a53:	00 00 00 
  403a56:	e9 a5 03 00 00       	jmp    403e00 <_Z14setup_epd_lineP11gamestate_tP7state_tPKc+0x570>
  403a5b:	48 89 d9             	mov    rcx,rbx
  403a5e:	49 63 c6             	movsxd rax,r14d
  403a61:	41 0f be 1c 04       	movsx  ebx,BYTE PTR [r12+rax*1]
  403a66:	8d 43 b5             	lea    eax,[rbx-0x4b]
  403a69:	83 f8 26             	cmp    eax,0x26
  403a6c:	0f 87 d2 00 00 00    	ja     403b44 <_Z14setup_epd_lineP11gamestate_tP7state_tPKc+0x2b4>
  403a72:	ff 24 c5 e8 03 41 00 	jmp    QWORD PTR [rax*8+0x4103e8]
  403a79:	48 89 cb             	mov    rbx,rcx
  403a7c:	80 89 c4 01 00 00 02 	or     BYTE PTR [rcx+0x1c4],0x2
  403a83:	c7 44 24 04 01 00 00 	mov    DWORD PTR [rsp+0x4],0x1
  403a8a:	00 
  403a8b:	e9 70 03 00 00       	jmp    403e00 <_Z14setup_epd_lineP11gamestate_tP7state_tPKc+0x570>
  403a90:	49 63 c6             	movsxd rax,r14d
  403a93:	41 0f be 0c 04       	movsx  ecx,BYTE PTR [r12+rax*1]
  403a98:	83 f9 2d             	cmp    ecx,0x2d
  403a9b:	0f 85 80 00 00 00    	jne    403b21 <_Z14setup_epd_lineP11gamestate_tP7state_tPKc+0x291>
  403aa1:	c7 83 c8 01 00 00 00 	mov    DWORD PTR [rbx+0x1c8],0x0
  403aa8:	00 00 00 
  403aab:	e9 50 03 00 00       	jmp    403e00 <_Z14setup_epd_lineP11gamestate_tP7state_tPKc+0x570>
  403ab0:	49 63 fe             	movsxd rdi,r14d
  403ab3:	41 0f be 04 3c       	movsx  eax,BYTE PTR [r12+rdi*1]
  403ab8:	83 c0 d0             	add    eax,0xffffffd0
  403abb:	83 f8 09             	cmp    eax,0x9
  403abe:	0f 87 3c 03 00 00    	ja     403e00 <_Z14setup_epd_lineP11gamestate_tP7state_tPKc+0x570>
  403ac4:	4c 01 e7             	add    rdi,r12
  403ac7:	c5 f8 77             	vzeroupper 
  403aca:	e8 b1 d6 ff ff       	call   401180 <atoi@plt>
  403acf:	89 83 dc 01 00 00    	mov    DWORD PTR [rbx+0x1dc],eax
  403ad5:	e9 26 03 00 00       	jmp    403e00 <_Z14setup_epd_lineP11gamestate_tP7state_tPKc+0x570>
  403ada:	41 80 fd 2f          	cmp    r13b,0x2f
  403ade:	0f 85 b8 00 00 00    	jne    403b9c <_Z14setup_epd_lineP11gamestate_tP7state_tPKc+0x30c>
  403ae4:	8b 4c 24 24          	mov    ecx,DWORD PTR [rsp+0x24]
  403ae8:	48 63 c1             	movsxd rax,ecx
  403aeb:	83 c1 01             	add    ecx,0x1
  403aee:	89 4c 24 24          	mov    DWORD PTR [rsp+0x24],ecx
  403af2:	8b 04 85 d4 06 41 00 	mov    eax,DWORD PTR [rax*4+0x4106d4]
  403af9:	48 89 44 24 10       	mov    QWORD PTR [rsp+0x10],rax
  403afe:	31 c0                	xor    eax,eax
  403b00:	48 89 44 24 08       	mov    QWORD PTR [rsp+0x8],rax
  403b05:	4c 8b 6c 24 18       	mov    r13,QWORD PTR [rsp+0x18]
  403b0a:	8b 2c 24             	mov    ebp,DWORD PTR [rsp]
  403b0d:	e9 ee 02 00 00       	jmp    403e00 <_Z14setup_epd_lineP11gamestate_tP7state_tPKc+0x570>
  403b12:	c7 83 cc 01 00 00 00 	mov    DWORD PTR [rbx+0x1cc],0x0
  403b19:	00 00 00 
  403b1c:	e9 df 02 00 00       	jmp    403e00 <_Z14setup_epd_lineP11gamestate_tP7state_tPKc+0x570>
  403b21:	41 0f be 54 04 01    	movsx  edx,BYTE PTR [r12+rax*1+0x1]
  403b27:	48 83 c0 01          	add    rax,0x1
  403b2b:	c1 e2 03             	shl    edx,0x3
  403b2e:	81 c1 5f 01 00 00    	add    ecx,0x15f
  403b34:	29 d1                	sub    ecx,edx
  403b36:	89 8b c8 01 00 00    	mov    DWORD PTR [rbx+0x1c8],ecx
  403b3c:	41 89 c6             	mov    r14d,eax
  403b3f:	e9 bc 02 00 00       	jmp    403e00 <_Z14setup_epd_lineP11gamestate_tP7state_tPKc+0x570>
  403b44:	83 fb 2d             	cmp    ebx,0x2d
  403b47:	0f 84 13 01 00 00    	je     403c60 <_Z14setup_epd_lineP11gamestate_tP7state_tPKc+0x3d0>
  403b4d:	83 3d 34 03 b6 00 00 	cmp    DWORD PTR [rip+0xb60334],0x0        # f63e88 <uci_chess960_mode>
  403b54:	0f 84 06 01 00 00    	je     403c60 <_Z14setup_epd_lineP11gamestate_tP7state_tPKc+0x3d0>
  403b5a:	89 d8                	mov    eax,ebx
  403b5c:	04 bf                	add    al,0xbf
  403b5e:	3c 07                	cmp    al,0x7
  403b60:	0f 87 c3 00 00 00    	ja     403c29 <_Z14setup_epd_lineP11gamestate_tP7state_tPKc+0x399>
  403b66:	89 2c 24             	mov    DWORD PTR [rsp],ebp
  403b69:	48 89 cd             	mov    rbp,rcx
  403b6c:	44 8d 7b c0          	lea    r15d,[rbx-0x40]
  403b70:	83 c3 f7             	add    ebx,0xfffffff7
  403b73:	8b b9 d0 01 00 00    	mov    edi,DWORD PTR [rcx+0x1d0]
  403b79:	c5 f8 77             	vzeroupper 
  403b7c:	e8 1f ec ff ff       	call   4027a0 <_Z4filei>
  403b81:	41 39 c7             	cmp    r15d,eax
  403b84:	0f 8d de 00 00 00    	jge    403c68 <_Z14setup_epd_lineP11gamestate_tP7state_tPKc+0x3d8>
  403b8a:	89 9d 1c 11 00 00    	mov    DWORD PTR [rbp+0x111c],ebx
  403b90:	80 8d c4 01 00 00 04 	or     BYTE PTR [rbp+0x1c4],0x4
  403b97:	e9 e9 00 00 00       	jmp    403c85 <_Z14setup_epd_lineP11gamestate_tP7state_tPKc+0x3f5>
  403b9c:	44 89 ef             	mov    edi,r13d
  403b9f:	c5 f8 77             	vzeroupper 
  403ba2:	e8 e9 d5 ff ff       	call   401190 <isalpha@plt>
  403ba7:	85 c0                	test   eax,eax
  403ba9:	8b 2c 24             	mov    ebp,DWORD PTR [rsp]
  403bac:	0f 84 3a 02 00 00    	je     403dec <_Z14setup_epd_lineP11gamestate_tP7state_tPKc+0x55c>
  403bb2:	41 83 c5 be          	add    r13d,0xffffffbe
  403bb6:	41 83 fd 30          	cmp    r13d,0x30
  403bba:	0f 87 1f 02 00 00    	ja     403ddf <_Z14setup_epd_lineP11gamestate_tP7state_tPKc+0x54f>
  403bc0:	42 ff 24 ed 20 05 41 	jmp    QWORD PTR [r13*8+0x410520]
  403bc7:	00 
  403bc8:	48 8b 44 24 08       	mov    rax,QWORD PTR [rsp+0x8]
  403bcd:	48 8b 4c 24 10       	mov    rcx,QWORD PTR [rsp+0x10]
  403bd2:	8d 04 01             	lea    eax,[rcx+rax*1]
  403bd5:	48 98                	cdqe   
  403bd7:	c7 44 83 04 0b 00 00 	mov    DWORD PTR [rbx+rax*4+0x4],0xb
  403bde:	00 
  403bdf:	e9 fb 01 00 00       	jmp    403ddf <_Z14setup_epd_lineP11gamestate_tP7state_tPKc+0x54f>
  403be4:	48 89 cb             	mov    rbx,rcx
  403be7:	80 89 c4 01 00 00 04 	or     BYTE PTR [rcx+0x1c4],0x4
  403bee:	c7 44 24 04 01 00 00 	mov    DWORD PTR [rsp+0x4],0x1
  403bf5:	00 
  403bf6:	e9 05 02 00 00       	jmp    403e00 <_Z14setup_epd_lineP11gamestate_tP7state_tPKc+0x570>
  403bfb:	48 89 cb             	mov    rbx,rcx
  403bfe:	80 89 c4 01 00 00 08 	or     BYTE PTR [rcx+0x1c4],0x8
  403c05:	c7 44 24 04 01 00 00 	mov    DWORD PTR [rsp+0x4],0x1
  403c0c:	00 
  403c0d:	e9 ee 01 00 00       	jmp    403e00 <_Z14setup_epd_lineP11gamestate_tP7state_tPKc+0x570>
  403c12:	48 89 cb             	mov    rbx,rcx
  403c15:	80 89 c4 01 00 00 10 	or     BYTE PTR [rcx+0x1c4],0x10
  403c1c:	c7 44 24 04 01 00 00 	mov    DWORD PTR [rsp+0x4],0x1
  403c23:	00 
  403c24:	e9 d7 01 00 00       	jmp    403e00 <_Z14setup_epd_lineP11gamestate_tP7state_tPKc+0x570>
  403c29:	89 d8                	mov    eax,ebx
  403c2b:	04 9f                	add    al,0x9f
  403c2d:	3c 07                	cmp    al,0x7
  403c2f:	77 2f                	ja     403c60 <_Z14setup_epd_lineP11gamestate_tP7state_tPKc+0x3d0>
  403c31:	89 2c 24             	mov    DWORD PTR [rsp],ebp
  403c34:	48 89 cd             	mov    rbp,rcx
  403c37:	44 8d 7b 9f          	lea    r15d,[rbx-0x61]
  403c3b:	83 c3 a0             	add    ebx,0xffffffa0
  403c3e:	8b b9 d4 01 00 00    	mov    edi,DWORD PTR [rcx+0x1d4]
  403c44:	c5 f8 77             	vzeroupper 
  403c47:	e8 54 eb ff ff       	call   4027a0 <_Z4filei>
  403c4c:	39 c3                	cmp    ebx,eax
  403c4e:	7d 27                	jge    403c77 <_Z14setup_epd_lineP11gamestate_tP7state_tPKc+0x3e7>
  403c50:	44 89 bd 24 11 00 00 	mov    DWORD PTR [rbp+0x1124],r15d
  403c57:	80 8d c4 01 00 00 10 	or     BYTE PTR [rbp+0x1c4],0x10
  403c5e:	eb 25                	jmp    403c85 <_Z14setup_epd_lineP11gamestate_tP7state_tPKc+0x3f5>
  403c60:	48 89 cb             	mov    rbx,rcx
  403c63:	e9 98 01 00 00       	jmp    403e00 <_Z14setup_epd_lineP11gamestate_tP7state_tPKc+0x570>
  403c68:	89 9d 20 11 00 00    	mov    DWORD PTR [rbp+0x1120],ebx
  403c6e:	80 8d c4 01 00 00 02 	or     BYTE PTR [rbp+0x1c4],0x2
  403c75:	eb 0e                	jmp    403c85 <_Z14setup_epd_lineP11gamestate_tP7state_tPKc+0x3f5>
  403c77:	44 89 bd 28 11 00 00 	mov    DWORD PTR [rbp+0x1128],r15d
  403c7e:	80 8d c4 01 00 00 08 	or     BYTE PTR [rbp+0x1c4],0x8
  403c85:	c7 44 24 04 01 00 00 	mov    DWORD PTR [rsp+0x4],0x1
  403c8c:	00 
  403c8d:	48 89 eb             	mov    rbx,rbp
  403c90:	8b 2c 24             	mov    ebp,DWORD PTR [rsp]
  403c93:	e9 68 01 00 00       	jmp    403e00 <_Z14setup_epd_lineP11gamestate_tP7state_tPKc+0x570>
  403c98:	48 8b 44 24 08       	mov    rax,QWORD PTR [rsp+0x8]
  403c9d:	48 8b 4c 24 10       	mov    rcx,QWORD PTR [rsp+0x10]
  403ca2:	8d 04 01             	lea    eax,[rcx+rax*1]
  403ca5:	89 83 d0 01 00 00    	mov    DWORD PTR [rbx+0x1d0],eax
  403cab:	48 98                	cdqe   
  403cad:	c7 44 83 04 05 00 00 	mov    DWORD PTR [rbx+rax*4+0x4],0x5
  403cb4:	00 
  403cb5:	8b 83 d0 01 00 00    	mov    eax,DWORD PTR [rbx+0x1d0]
  403cbb:	89 83 14 11 00 00    	mov    DWORD PTR [rbx+0x1114],eax
  403cc1:	e9 19 01 00 00       	jmp    403ddf <_Z14setup_epd_lineP11gamestate_tP7state_tPKc+0x54f>
  403cc6:	48 8b 44 24 08       	mov    rax,QWORD PTR [rsp+0x8]
  403ccb:	48 8b 4c 24 10       	mov    rcx,QWORD PTR [rsp+0x10]
  403cd0:	8d 04 01             	lea    eax,[rcx+rax*1]
  403cd3:	48 98                	cdqe   
  403cd5:	c7 44 83 04 03 00 00 	mov    DWORD PTR [rbx+rax*4+0x4],0x3
  403cdc:	00 
  403cdd:	e9 fd 00 00 00       	jmp    403ddf <_Z14setup_epd_lineP11gamestate_tP7state_tPKc+0x54f>
  403ce2:	48 8b 44 24 08       	mov    rax,QWORD PTR [rsp+0x8]
  403ce7:	48 8b 4c 24 10       	mov    rcx,QWORD PTR [rsp+0x10]
  403cec:	8d 04 01             	lea    eax,[rcx+rax*1]
  403cef:	48 98                	cdqe   
  403cf1:	c7 44 83 04 01 00 00 	mov    DWORD PTR [rbx+rax*4+0x4],0x1
  403cf8:	00 
  403cf9:	e9 e1 00 00 00       	jmp    403ddf <_Z14setup_epd_lineP11gamestate_tP7state_tPKc+0x54f>
  403cfe:	48 8b 44 24 08       	mov    rax,QWORD PTR [rsp+0x8]
  403d03:	48 8b 4c 24 10       	mov    rcx,QWORD PTR [rsp+0x10]
  403d08:	8d 04 01             	lea    eax,[rcx+rax*1]
  403d0b:	48 98                	cdqe   
  403d0d:	c7 44 83 04 09 00 00 	mov    DWORD PTR [rbx+rax*4+0x4],0x9
  403d14:	00 
  403d15:	e9 c5 00 00 00       	jmp    403ddf <_Z14setup_epd_lineP11gamestate_tP7state_tPKc+0x54f>
  403d1a:	48 8b 44 24 08       	mov    rax,QWORD PTR [rsp+0x8]
  403d1f:	48 8b 4c 24 10       	mov    rcx,QWORD PTR [rsp+0x10]
  403d24:	8d 04 01             	lea    eax,[rcx+rax*1]
  403d27:	48 98                	cdqe   
  403d29:	c7 44 83 04 07 00 00 	mov    DWORD PTR [rbx+rax*4+0x4],0x7
  403d30:	00 
  403d31:	e9 a9 00 00 00       	jmp    403ddf <_Z14setup_epd_lineP11gamestate_tP7state_tPKc+0x54f>
  403d36:	48 8b 44 24 08       	mov    rax,QWORD PTR [rsp+0x8]
  403d3b:	48 8b 4c 24 10       	mov    rcx,QWORD PTR [rsp+0x10]
  403d40:	8d 04 01             	lea    eax,[rcx+rax*1]
  403d43:	48 98                	cdqe   
  403d45:	c7 44 83 04 0c 00 00 	mov    DWORD PTR [rbx+rax*4+0x4],0xc
  403d4c:	00 
  403d4d:	e9 8d 00 00 00       	jmp    403ddf <_Z14setup_epd_lineP11gamestate_tP7state_tPKc+0x54f>
  403d52:	48 8b 44 24 08       	mov    rax,QWORD PTR [rsp+0x8]
  403d57:	48 8b 4c 24 10       	mov    rcx,QWORD PTR [rsp+0x10]
  403d5c:	8d 04 01             	lea    eax,[rcx+rax*1]
  403d5f:	89 83 d4 01 00 00    	mov    DWORD PTR [rbx+0x1d4],eax
  403d65:	48 98                	cdqe   
  403d67:	c7 44 83 04 06 00 00 	mov    DWORD PTR [rbx+rax*4+0x4],0x6
  403d6e:	00 
  403d6f:	8b 83 d4 01 00 00    	mov    eax,DWORD PTR [rbx+0x1d4]
  403d75:	89 83 18 11 00 00    	mov    DWORD PTR [rbx+0x1118],eax
  403d7b:	eb 62                	jmp    403ddf <_Z14setup_epd_lineP11gamestate_tP7state_tPKc+0x54f>
  403d7d:	48 8b 44 24 08       	mov    rax,QWORD PTR [rsp+0x8]
  403d82:	48 8b 4c 24 10       	mov    rcx,QWORD PTR [rsp+0x10]
  403d87:	8d 04 01             	lea    eax,[rcx+rax*1]
  403d8a:	48 98                	cdqe   
  403d8c:	c7 44 83 04 04 00 00 	mov    DWORD PTR [rbx+rax*4+0x4],0x4
  403d93:	00 
  403d94:	eb 49                	jmp    403ddf <_Z14setup_epd_lineP11gamestate_tP7state_tPKc+0x54f>
  403d96:	48 8b 44 24 08       	mov    rax,QWORD PTR [rsp+0x8]
  403d9b:	48 8b 4c 24 10       	mov    rcx,QWORD PTR [rsp+0x10]
  403da0:	8d 04 01             	lea    eax,[rcx+rax*1]
  403da3:	48 98                	cdqe   
  403da5:	c7 44 83 04 02 00 00 	mov    DWORD PTR [rbx+rax*4+0x4],0x2
  403dac:	00 
  403dad:	eb 30                	jmp    403ddf <_Z14setup_epd_lineP11gamestate_tP7state_tPKc+0x54f>
  403daf:	48 8b 44 24 08       	mov    rax,QWORD PTR [rsp+0x8]
  403db4:	48 8b 4c 24 10       	mov    rcx,QWORD PTR [rsp+0x10]
  403db9:	8d 04 01             	lea    eax,[rcx+rax*1]
  403dbc:	48 98                	cdqe   
  403dbe:	c7 44 83 04 0a 00 00 	mov    DWORD PTR [rbx+rax*4+0x4],0xa
  403dc5:	00 
  403dc6:	eb 17                	jmp    403ddf <_Z14setup_epd_lineP11gamestate_tP7state_tPKc+0x54f>
  403dc8:	48 8b 44 24 08       	mov    rax,QWORD PTR [rsp+0x8]
  403dcd:	48 8b 4c 24 10       	mov    rcx,QWORD PTR [rsp+0x10]
  403dd2:	8d 04 01             	lea    eax,[rcx+rax*1]
  403dd5:	48 98                	cdqe   
  403dd7:	c7 44 83 04 08 00 00 	mov    DWORD PTR [rbx+rax*4+0x4],0x8
  403dde:	00 
  403ddf:	48 8b 44 24 08       	mov    rax,QWORD PTR [rsp+0x8]
  403de4:	83 c0 01             	add    eax,0x1
  403de7:	48 89 44 24 08       	mov    QWORD PTR [rsp+0x8],rax
  403dec:	4c 8b 6c 24 18       	mov    r13,QWORD PTR [rsp+0x18]
  403df1:	66 2e 0f 1f 84 00 00 	cs nop WORD PTR [rax+rax*1+0x0]
  403df8:	00 00 00 
  403dfb:	0f 1f 44 00 00       	nop    DWORD PTR [rax+rax*1+0x0]
  403e00:	49 63 c6             	movsxd rax,r14d
  403e03:	41 8a 04 04          	mov    al,BYTE PTR [r12+rax*1]
  403e07:	84 c0                	test   al,al
  403e09:	0f 84 55 fb ff ff    	je     403964 <_Z14setup_epd_lineP11gamestate_tP7state_tPKc+0xd4>
  403e0f:	3c 0a                	cmp    al,0xa
  403e11:	0f 85 49 fb ff ff    	jne    403960 <_Z14setup_epd_lineP11gamestate_tP7state_tPKc+0xd0>
  403e17:	e9 48 fb ff ff       	jmp    403964 <_Z14setup_epd_lineP11gamestate_tP7state_tPKc+0xd4>
  403e1c:	8b 44 24 04          	mov    eax,DWORD PTR [rsp+0x4]
  403e20:	0b 05 5e 00 b6 00    	or     eax,DWORD PTR [rip+0xb6005e]        # f63e84 <uci_mode>
  403e26:	75 5c                	jne    403e84 <_Z14setup_epd_lineP11gamestate_tP7state_tPKc+0x5f4>
  403e28:	48 8b 44 24 28       	mov    rax,QWORD PTR [rsp+0x28]
  403e2d:	83 38 08             	cmp    DWORD PTR [rax],0x8
  403e30:	75 0d                	jne    403e3f <_Z14setup_epd_lineP11gamestate_tP7state_tPKc+0x5af>
  403e32:	83 7b 14 06          	cmp    DWORD PTR [rbx+0x14],0x6
  403e36:	75 07                	jne    403e3f <_Z14setup_epd_lineP11gamestate_tP7state_tPKc+0x5af>
  403e38:	80 8b c4 01 00 00 10 	or     BYTE PTR [rbx+0x1c4],0x10
  403e3f:	83 7b 20 08          	cmp    DWORD PTR [rbx+0x20],0x8
  403e43:	75 0d                	jne    403e52 <_Z14setup_epd_lineP11gamestate_tP7state_tPKc+0x5c2>
  403e45:	83 7b 14 06          	cmp    DWORD PTR [rbx+0x14],0x6
  403e49:	75 07                	jne    403e52 <_Z14setup_epd_lineP11gamestate_tP7state_tPKc+0x5c2>
  403e4b:	80 8b c4 01 00 00 08 	or     BYTE PTR [rbx+0x1c4],0x8
  403e52:	83 bb e4 00 00 00 07 	cmp    DWORD PTR [rbx+0xe4],0x7
  403e59:	75 10                	jne    403e6b <_Z14setup_epd_lineP11gamestate_tP7state_tPKc+0x5db>
  403e5b:	83 bb f4 00 00 00 05 	cmp    DWORD PTR [rbx+0xf4],0x5
  403e62:	75 07                	jne    403e6b <_Z14setup_epd_lineP11gamestate_tP7state_tPKc+0x5db>
  403e64:	80 8b c4 01 00 00 04 	or     BYTE PTR [rbx+0x1c4],0x4
  403e6b:	83 bb 00 01 00 00 07 	cmp    DWORD PTR [rbx+0x100],0x7
  403e72:	75 10                	jne    403e84 <_Z14setup_epd_lineP11gamestate_tP7state_tPKc+0x5f4>
  403e74:	83 bb f4 00 00 00 05 	cmp    DWORD PTR [rbx+0xf4],0x5
  403e7b:	75 07                	jne    403e84 <_Z14setup_epd_lineP11gamestate_tP7state_tPKc+0x5f4>
  403e7d:	80 8b c4 01 00 00 02 	or     BYTE PTR [rbx+0x1c4],0x2
  403e84:	48 89 df             	mov    rdi,rbx
  403e87:	c5 f8 77             	vzeroupper 
  403e8a:	e8 01 e6 ff ff       	call   402490 <_Z16SetupCastleMasksP7state_t>
  403e8f:	48 89 df             	mov    rdi,rbx
  403e92:	e8 19 a8 00 00       	call   40e6b0 <_Z18reset_piece_squareP7state_t>
  403e97:	48 89 df             	mov    rdi,rbx
  403e9a:	e8 d1 98 00 00       	call   40d770 <_Z15initialize_hashP7state_t>
  403e9f:	48 8b 83 e0 01 00 00 	mov    rax,QWORD PTR [rbx+0x1e0]
  403ea6:	48 8b 54 24 30       	mov    rdx,QWORD PTR [rsp+0x30]
  403eab:	48 63 4a 3c          	movsxd rcx,DWORD PTR [rdx+0x3c]
  403eaf:	48 89 84 cb 30 11 00 	mov    QWORD PTR [rbx+rcx*8+0x1130],rax
  403eb6:	00 
  403eb7:	8b 83 cc 01 00 00    	mov    eax,DWORD PTR [rbx+0x1cc]
  403ebd:	89 42 08             	mov    DWORD PTR [rdx+0x8],eax
  403ec0:	48 83 c4 38          	add    rsp,0x38
  403ec4:	5b                   	pop    rbx
  403ec5:	41 5c                	pop    r12
  403ec7:	41 5d                	pop    r13
  403ec9:	41 5e                	pop    r14
  403ecb:	41 5f                	pop    r15
  403ecd:	5d                   	pop    rbp
  403ece:	c3                   	ret    
  403ecf:	90                   	nop

0000000000403ed0 <_Z14check_solutionP7state_tPci>:
  403ed0:	41 57                	push   r15
  403ed2:	41 56                	push   r14
  403ed4:	53                   	push   rbx
  403ed5:	48 83 ec 10          	sub    rsp,0x10
  403ed9:	49 89 f7             	mov    r15,rsi
  403edc:	48 8d 5c 24 06       	lea    rbx,[rsp+0x6]
  403ee1:	89 d6                	mov    esi,edx
  403ee3:	48 89 da             	mov    rdx,rbx
  403ee6:	e8 b5 9f 00 00       	call   40dea0 <_Z11comp_to_sanP7state_tiPc>
  403eeb:	48 89 df             	mov    rdi,rbx
  403eee:	e8 8d d1 ff ff       	call   401080 <strlen@plt>
  403ef3:	49 89 c6             	mov    r14,rax
  403ef6:	be f0 06 41 00       	mov    esi,0x4106f0
  403efb:	4c 89 ff             	mov    rdi,r15
  403efe:	e8 4d d1 ff ff       	call   401050 <strstr@plt>
  403f03:	48 85 c0             	test   rax,rax
  403f06:	74 29                	je     403f31 <_Z14check_solutionP7state_tPci+0x61>
  403f08:	48 83 c0 02          	add    rax,0x2
  403f0c:	0f 1f 40 00          	nop    DWORD PTR [rax+0x0]
  403f10:	80 78 01 20          	cmp    BYTE PTR [rax+0x1],0x20
  403f14:	48 8d 40 01          	lea    rax,[rax+0x1]
  403f18:	74 f6                	je     403f10 <_Z14check_solutionP7state_tPci+0x40>
  403f1a:	49 63 d6             	movsxd rdx,r14d
  403f1d:	48 8d 74 24 06       	lea    rsi,[rsp+0x6]
  403f22:	48 89 c7             	mov    rdi,rax
  403f25:	e8 66 d1 ff ff       	call   401090 <strncmp@plt>
  403f2a:	85 c0                	test   eax,eax
  403f2c:	0f 94 c3             	sete   bl
  403f2f:	eb 4e                	jmp    403f7f <_Z14check_solutionP7state_tPci+0xaf>
  403f31:	be f4 06 41 00       	mov    esi,0x4106f4
  403f36:	4c 89 ff             	mov    rdi,r15
  403f39:	e8 12 d1 ff ff       	call   401050 <strstr@plt>
  403f3e:	48 85 c0             	test   rax,rax
  403f41:	74 2e                	je     403f71 <_Z14check_solutionP7state_tPci+0xa1>
  403f43:	48 83 c0 02          	add    rax,0x2
  403f47:	66 0f 1f 84 00 00 00 	nop    WORD PTR [rax+rax*1+0x0]
  403f4e:	00 00 
  403f50:	80 78 01 20          	cmp    BYTE PTR [rax+0x1],0x20
  403f54:	48 8d 40 01          	lea    rax,[rax+0x1]
  403f58:	74 f6                	je     403f50 <_Z14check_solutionP7state_tPci+0x80>
  403f5a:	49 63 d6             	movsxd rdx,r14d
  403f5d:	48 8d 74 24 06       	lea    rsi,[rsp+0x6]
  403f62:	48 89 c7             	mov    rdi,rax
  403f65:	e8 26 d1 ff ff       	call   401090 <strncmp@plt>
  403f6a:	85 c0                	test   eax,eax
  403f6c:	0f 95 c3             	setne  bl
  403f6f:	eb 0e                	jmp    403f7f <_Z14check_solutionP7state_tPci+0xaf>
  403f71:	31 db                	xor    ebx,ebx
  403f73:	bf f8 06 41 00       	mov    edi,0x4106f8
  403f78:	31 c0                	xor    eax,eax
  403f7a:	e8 51 a5 00 00       	call   40e4d0 <_Z8myprintfPKcz>
  403f7f:	0f b6 c3             	movzx  eax,bl
  403f82:	48 83 c4 10          	add    rsp,0x10
  403f86:	5b                   	pop    rbx
  403f87:	41 5e                	pop    r14
  403f89:	41 5f                	pop    r15
  403f8b:	c3                   	ret    
  403f8c:	0f 1f 40 00          	nop    DWORD PTR [rax+0x0]

0000000000403f90 <_Z17run_epd_testsuiteP11gamestate_tP7state_tPKc>:
  403f90:	41 57                	push   r15
  403f92:	41 56                	push   r14
  403f94:	41 55                	push   r13
  403f96:	41 54                	push   r12
  403f98:	53                   	push   rbx
  403f99:	48 81 ec 10 02 00 00 	sub    rsp,0x210
  403fa0:	48 89 f3             	mov    rbx,rsi
  403fa3:	49 89 fe             	mov    r14,rdi
  403fa6:	be 93 18 41 00       	mov    esi,0x411893
  403fab:	48 89 d7             	mov    rdi,rdx
  403fae:	e8 4d d1 ff ff       	call   401100 <fopen@plt>
  403fb3:	48 85 c0             	test   rax,rax
  403fb6:	0f 84 56 01 00 00    	je     404112 <_Z17run_epd_testsuiteP11gamestate_tP7state_tPKc+0x182>
  403fbc:	49 89 c7             	mov    r15,rax
  403fbf:	48 8d 7c 24 10       	lea    rdi,[rsp+0x10]
  403fc4:	be 00 02 00 00       	mov    esi,0x200
  403fc9:	48 89 c2             	mov    rdx,rax
  403fcc:	e8 9f d0 ff ff       	call   401070 <fgets_unlocked@plt>
  403fd1:	48 85 c0             	test   rax,rax
  403fd4:	0f 84 2e 01 00 00    	je     404108 <_Z17run_epd_testsuiteP11gamestate_tP7state_tPKc+0x178>
  403fda:	4c 8d 64 24 10       	lea    r12,[rsp+0x10]
  403fdf:	4c 8d 6c 24 0c       	lea    r13,[rsp+0xc]
  403fe4:	66 2e 0f 1f 84 00 00 	cs nop WORD PTR [rax+rax*1+0x0]
  403feb:	00 00 00 
  403fee:	66 90                	xchg   ax,ax
  403ff0:	e8 8b 96 00 00       	call   40d680 <_Z8clear_ttv>
  403ff5:	4c 89 f7             	mov    rdi,r14
  403ff8:	48 89 de             	mov    rsi,rbx
  403ffb:	4c 89 e2             	mov    rdx,r12
  403ffe:	e8 8d f8 ff ff       	call   403890 <_Z14setup_epd_lineP11gamestate_tP7state_tPKc>
  404003:	be 00 02 00 00       	mov    esi,0x200
  404008:	4c 89 e7             	mov    rdi,r12
  40400b:	4c 89 fa             	mov    rdx,r15
  40400e:	e8 5d d0 ff ff       	call   401070 <fgets_unlocked@plt>
  404013:	be e3 1c 41 00       	mov    esi,0x411ce3
  404018:	31 c0                	xor    eax,eax
  40401a:	4c 89 e7             	mov    rdi,r12
  40401d:	4c 89 ea             	mov    rdx,r13
  404020:	e8 ab d0 ff ff       	call   4010d0 <__isoc99_sscanf@plt>
  404025:	8b 74 24 0c          	mov    esi,DWORD PTR [rsp+0xc]
  404029:	bf 2e 07 41 00       	mov    edi,0x41072e
  40402e:	31 c0                	xor    eax,eax
  404030:	e8 9b a4 00 00       	call   40e4d0 <_Z8myprintfPKcz>
  404035:	be 01 00 00 00       	mov    esi,0x1
  40403a:	48 89 df             	mov    rdi,rbx
  40403d:	e8 7e a3 00 00       	call   40e3c0 <_Z13display_boardP7state_ti>
  404042:	41 c7 46 34 ff e0 f5 	mov    DWORD PTR [r14+0x34],0x5f5e0ff
  404049:	05 
  40404a:	8b 44 24 0c          	mov    eax,DWORD PTR [rsp+0xc]
  40404e:	41 89 46 38          	mov    DWORD PTR [r14+0x38],eax
  404052:	4c 89 f7             	mov    rdi,r14
  404055:	48 89 de             	mov    rsi,rbx
  404058:	e8 33 87 00 00       	call   40c790 <_Z5thinkP11gamestate_tP7state_t>
  40405d:	48 8b b3 f0 0f 00 00 	mov    rsi,QWORD PTR [rbx+0xff0]
  404064:	48 8b 83 f8 0f 00 00 	mov    rax,QWORD PTR [rbx+0xff8]
  40406b:	48 85 c0             	test   rax,rax
  40406e:	78 30                	js     4040a0 <_Z17run_epd_testsuiteP11gamestate_tP7state_tPKc+0x110>
  404070:	c4 e1 ea 2a c0       	vcvtsi2ss xmm0,xmm2,rax
  404075:	48 85 f6             	test   rsi,rsi
  404078:	79 40                	jns    4040ba <_Z17run_epd_testsuiteP11gamestate_tP7state_tPKc+0x12a>
  40407a:	48 89 f0             	mov    rax,rsi
  40407d:	48 d1 e8             	shr    rax,1
  404080:	89 f1                	mov    ecx,esi
  404082:	83 e1 01             	and    ecx,0x1
  404085:	48 09 c1             	or     rcx,rax
  404088:	c4 e1 ea 2a c9       	vcvtsi2ss xmm1,xmm2,rcx
  40408d:	c5 f2 58 c9          	vaddss xmm1,xmm1,xmm1
  404091:	eb 2c                	jmp    4040bf <_Z17run_epd_testsuiteP11gamestate_tP7state_tPKc+0x12f>
  404093:	66 2e 0f 1f 84 00 00 	cs nop WORD PTR [rax+rax*1+0x0]
  40409a:	00 00 00 
  40409d:	0f 1f 00             	nop    DWORD PTR [rax]
  4040a0:	48 89 c1             	mov    rcx,rax
  4040a3:	48 d1 e9             	shr    rcx,1
  4040a6:	83 e0 01             	and    eax,0x1
  4040a9:	48 09 c8             	or     rax,rcx
  4040ac:	c4 e1 ea 2a c0       	vcvtsi2ss xmm0,xmm2,rax
  4040b1:	c5 fa 58 c0          	vaddss xmm0,xmm0,xmm0
  4040b5:	48 85 f6             	test   rsi,rsi
  4040b8:	78 c0                	js     40407a <_Z17run_epd_testsuiteP11gamestate_tP7state_tPKc+0xea>
  4040ba:	c4 e1 ea 2a ce       	vcvtsi2ss xmm1,xmm2,rsi
  4040bf:	c5 fa 5e c1          	vdivss xmm0,xmm0,xmm1
  4040c3:	c5 fa 59 05 f5 c5 00 	vmulss xmm0,xmm0,DWORD PTR [rip+0xc5f5]        # 4106c0 <_ZZ15position_to_fenP7state_tPcE9str_empty+0xa>
  4040ca:	00 
  4040cb:	c5 fa 5a c0          	vcvtss2sd xmm0,xmm0,xmm0
  4040cf:	bf 45 07 41 00       	mov    edi,0x410745
  4040d4:	b0 01                	mov    al,0x1
  4040d6:	e8 f5 a3 00 00       	call   40e4d0 <_Z8myprintfPKcz>
  4040db:	48 89 df             	mov    rdi,rbx
  4040de:	e8 6d 9c 00 00       	call   40dd50 <_Z14dumpsearchstatP7state_t>
  4040e3:	bf 61 19 41 00       	mov    edi,0x411961
  4040e8:	31 c0                	xor    eax,eax
  4040ea:	e8 e1 a3 00 00       	call   40e4d0 <_Z8myprintfPKcz>
  4040ef:	be 00 02 00 00       	mov    esi,0x200
  4040f4:	4c 89 e7             	mov    rdi,r12
  4040f7:	4c 89 fa             	mov    rdx,r15
  4040fa:	e8 71 cf ff ff       	call   401070 <fgets_unlocked@plt>
  4040ff:	48 85 c0             	test   rax,rax
  404102:	0f 85 e8 fe ff ff    	jne    403ff0 <_Z17run_epd_testsuiteP11gamestate_tP7state_tPKc+0x60>
  404108:	4c 89 ff             	mov    rdi,r15
  40410b:	e8 d0 cf ff ff       	call   4010e0 <fclose@plt>
  404110:	eb 0c                	jmp    40411e <_Z17run_epd_testsuiteP11gamestate_tP7state_tPKc+0x18e>
  404112:	bf 1a 07 41 00       	mov    edi,0x41071a
  404117:	31 c0                	xor    eax,eax
  404119:	e8 b2 a3 00 00       	call   40e4d0 <_Z8myprintfPKcz>
  40411e:	48 81 c4 10 02 00 00 	add    rsp,0x210
  404125:	5b                   	pop    rbx
  404126:	41 5c                	pop    r12
  404128:	41 5d                	pop    r13
  40412a:	41 5e                	pop    r14
  40412c:	41 5f                	pop    r15
  40412e:	c3                   	ret    
  40412f:	90                   	nop

0000000000404130 <_Z15position_to_fenP7state_tPc>:
  404130:	55                   	push   rbp
  404131:	41 56                	push   r14
  404133:	53                   	push   rbx
  404134:	48 89 f3             	mov    rbx,rsi
  404137:	49 89 fe             	mov    r14,rdi
  40413a:	4c 8d 47 04          	lea    r8,[rdi+0x4]
  40413e:	b9 08 00 00 00       	mov    ecx,0x8
  404143:	66 2e 0f 1f 84 00 00 	cs nop WORD PTR [rax+rax*1+0x0]
  40414a:	00 00 00 
  40414d:	0f 1f 00             	nop    DWORD PTR [rax]
  404150:	4c 8d 49 ff          	lea    r9,[rcx-0x1]
  404154:	48 63 04 8d 7c 07 41 	movsxd rax,DWORD PTR [rcx*4+0x41077c]
  40415b:	00 
  40415c:	49 8d 34 80          	lea    rsi,[r8+rax*4]
  404160:	31 ff                	xor    edi,edi
  404162:	31 ed                	xor    ebp,ebp
  404164:	66 2e 0f 1f 84 00 00 	cs nop WORD PTR [rax+rax*1+0x0]
  40416b:	00 00 00 
  40416e:	66 90                	xchg   ax,ax
  404170:	48 63 04 be          	movsxd rax,DWORD PTR [rsi+rdi*4]
  404174:	48 83 f8 0d          	cmp    rax,0xd
  404178:	75 06                	jne    404180 <_Z15position_to_fenP7state_tPc+0x50>
  40417a:	83 c5 01             	add    ebp,0x1
  40417d:	eb 2c                	jmp    4041ab <_Z15position_to_fenP7state_tPc+0x7b>
  40417f:	90                   	nop
  404180:	85 ed                	test   ebp,ebp
  404182:	74 14                	je     404198 <_Z15position_to_fenP7state_tPc+0x68>
  404184:	48 63 ed             	movsxd rbp,ebp
  404187:	0f b6 95 b6 06 41 00 	movzx  edx,BYTE PTR [rbp+0x4106b6]
  40418e:	88 13                	mov    BYTE PTR [rbx],dl
  404190:	c6 43 01 00          	mov    BYTE PTR [rbx+0x1],0x0
  404194:	48 83 c3 01          	add    rbx,0x1
  404198:	0f b6 80 a8 06 41 00 	movzx  eax,BYTE PTR [rax+0x4106a8]
  40419f:	88 03                	mov    BYTE PTR [rbx],al
  4041a1:	c6 43 01 00          	mov    BYTE PTR [rbx+0x1],0x0
  4041a5:	48 83 c3 01          	add    rbx,0x1
  4041a9:	31 ed                	xor    ebp,ebp
  4041ab:	48 83 c7 01          	add    rdi,0x1
  4041af:	48 83 ff 08          	cmp    rdi,0x8
  4041b3:	75 bb                	jne    404170 <_Z15position_to_fenP7state_tPc+0x40>
  4041b5:	85 ed                	test   ebp,ebp
  4041b7:	74 13                	je     4041cc <_Z15position_to_fenP7state_tPc+0x9c>
  4041b9:	48 63 c5             	movsxd rax,ebp
  4041bc:	8a 80 b6 06 41 00    	mov    al,BYTE PTR [rax+0x4106b6]
  4041c2:	88 03                	mov    BYTE PTR [rbx],al
  4041c4:	c6 43 01 00          	mov    BYTE PTR [rbx+0x1],0x0
  4041c8:	48 83 c3 01          	add    rbx,0x1
  4041cc:	48 83 f9 01          	cmp    rcx,0x1
  4041d0:	74 15                	je     4041e7 <_Z15position_to_fenP7state_tPc+0xb7>
  4041d2:	66 c7 03 2f 00       	mov    WORD PTR [rbx],0x2f
  4041d7:	48 83 c3 01          	add    rbx,0x1
  4041db:	48 85 c9             	test   rcx,rcx
  4041de:	4c 89 c9             	mov    rcx,r9
  4041e1:	0f 85 69 ff ff ff    	jne    404150 <_Z15position_to_fenP7state_tPc+0x20>
  4041e7:	41 83 be cc 01 00 00 	cmp    DWORD PTR [r14+0x1cc],0x0
  4041ee:	00 
  4041ef:	b8 62 00 00 00       	mov    eax,0x62
  4041f4:	ba 77 00 00 00       	mov    edx,0x77
  4041f9:	0f 44 d0             	cmove  edx,eax
  4041fc:	31 ed                	xor    ebp,ebp
  4041fe:	be 64 07 41 00       	mov    esi,0x410764
  404203:	31 c0                	xor    eax,eax
  404205:	48 89 df             	mov    rdi,rbx
  404208:	e8 33 ce ff ff       	call   401040 <sprintf@plt>
  40420d:	41 f6 86 c4 01 00 00 	test   BYTE PTR [r14+0x1c4],0x2
  404214:	02 
  404215:	75 10                	jne    404227 <_Z15position_to_fenP7state_tPc+0xf7>
  404217:	48 83 c3 03          	add    rbx,0x3
  40421b:	41 f6 86 c4 01 00 00 	test   BYTE PTR [r14+0x1c4],0x4
  404222:	04 
  404223:	75 1b                	jne    404240 <_Z15position_to_fenP7state_tPc+0x110>
  404225:	eb 27                	jmp    40424e <_Z15position_to_fenP7state_tPc+0x11e>
  404227:	66 c7 43 03 4b 00    	mov    WORD PTR [rbx+0x3],0x4b
  40422d:	48 83 c3 04          	add    rbx,0x4
  404231:	bd 01 00 00 00       	mov    ebp,0x1
  404236:	41 f6 86 c4 01 00 00 	test   BYTE PTR [r14+0x1c4],0x4
  40423d:	04 
  40423e:	74 0e                	je     40424e <_Z15position_to_fenP7state_tPc+0x11e>
  404240:	66 c7 03 51 00       	mov    WORD PTR [rbx],0x51
  404245:	48 83 c3 01          	add    rbx,0x1
  404249:	bd 01 00 00 00       	mov    ebp,0x1
  40424e:	41 f6 86 c4 01 00 00 	test   BYTE PTR [r14+0x1c4],0x8
  404255:	08 
  404256:	74 0e                	je     404266 <_Z15position_to_fenP7state_tPc+0x136>
  404258:	66 c7 03 6b 00       	mov    WORD PTR [rbx],0x6b
  40425d:	48 83 c3 01          	add    rbx,0x1
  404261:	bd 01 00 00 00       	mov    ebp,0x1
  404266:	66 b8 71 00          	mov    ax,0x71
  40426a:	41 f6 86 c4 01 00 00 	test   BYTE PTR [r14+0x1c4],0x10
  404271:	10 
  404272:	75 08                	jne    40427c <_Z15position_to_fenP7state_tPc+0x14c>
  404274:	85 ed                	test   ebp,ebp
  404276:	75 0b                	jne    404283 <_Z15position_to_fenP7state_tPc+0x153>
  404278:	66 b8 2d 00          	mov    ax,0x2d
  40427c:	66 89 03             	mov    WORD PTR [rbx],ax
  40427f:	48 83 c3 01          	add    rbx,0x1
  404283:	41 8b be c8 01 00 00 	mov    edi,DWORD PTR [r14+0x1c8]
  40428a:	85 ff                	test   edi,edi
  40428c:	74 2c                	je     4042ba <_Z15position_to_fenP7state_tPc+0x18a>
  40428e:	e8 0d e5 ff ff       	call   4027a0 <_Z4filei>
  404293:	8d 68 60             	lea    ebp,[rax+0x60]
  404296:	41 8b be c8 01 00 00 	mov    edi,DWORD PTR [r14+0x1c8]
  40429d:	e8 ee e4 ff ff       	call   402790 <_Z4ranki>
  4042a2:	8d 48 30             	lea    ecx,[rax+0x30]
  4042a5:	be 69 07 41 00       	mov    esi,0x410769
  4042aa:	31 c0                	xor    eax,eax
  4042ac:	48 89 df             	mov    rdi,rbx
  4042af:	89 ea                	mov    edx,ebp
  4042b1:	5b                   	pop    rbx
  4042b2:	41 5e                	pop    r14
  4042b4:	5d                   	pop    rbp
  4042b5:	e9 86 cd ff ff       	jmp    401040 <sprintf@plt>
  4042ba:	c6 43 02 00          	mov    BYTE PTR [rbx+0x2],0x0
  4042be:	66 c7 03 20 2d       	mov    WORD PTR [rbx],0x2d20
  4042c3:	5b                   	pop    rbx
  4042c4:	41 5e                	pop    r14
  4042c6:	5d                   	pop    rbp
  4042c7:	c3                   	ret    
  4042c8:	0f 1f 84 00 00 00 00 	nop    DWORD PTR [rax+rax*1+0x0]
  4042cf:	00 

00000000004042d0 <_Z9gen_quietP7state_tPi>:
  4042d0:	55                   	push   rbp
  4042d1:	41 57                	push   r15
  4042d3:	41 56                	push   r14
  4042d5:	41 55                	push   r13
  4042d7:	41 54                	push   r12
  4042d9:	53                   	push   rbx
  4042da:	48 83 ec 18          	sub    rsp,0x18
  4042de:	48 89 f3             	mov    rbx,rsi
  4042e1:	49 89 ff             	mov    r15,rdi
  4042e4:	48 8b 87 08 01 00 00 	mov    rax,QWORD PTR [rdi+0x108]
  4042eb:	49 89 c6             	mov    r14,rax
  4042ee:	49 f7 d6             	not    r14
  4042f1:	83 bf cc 01 00 00 00 	cmp    DWORD PTR [rdi+0x1cc],0x0
  4042f8:	48 89 74 24 10       	mov    QWORD PTR [rsp+0x10],rsi
  4042fd:	0f 84 0f 01 00 00    	je     404412 <_Z9gen_quietP7state_tPi+0x142>
  404303:	49 8b 8f 28 01 00 00 	mov    rcx,QWORD PTR [r15+0x128]
  40430a:	48 89 ca             	mov    rdx,rcx
  40430d:	48 c1 ea 08          	shr    rdx,0x8
  404311:	4c 21 f2             	and    rdx,r14
  404314:	48 23 0d 65 44 01 00 	and    rcx,QWORD PTR [rip+0x14465]        # 418780 <RankMask+0x30>
  40431b:	48 c1 e9 10          	shr    rcx,0x10
  40431f:	48 c1 e8 08          	shr    rax,0x8
  404323:	48 f7 d0             	not    rax
  404326:	4c 21 f0             	and    rax,r14
  404329:	48 21 c8             	and    rax,rcx
  40432c:	48 89 44 24 08       	mov    QWORD PTR [rsp+0x8],rax
  404331:	48 09 d0             	or     rax,rdx
  404334:	48 89 04 24          	mov    QWORD PTR [rsp],rax
  404338:	0f 84 ef 01 00 00    	je     40452d <_Z9gen_quietP7state_tPi+0x25d>
  40433e:	48 8b 5c 24 10       	mov    rbx,QWORD PTR [rsp+0x10]
  404343:	66 2e 0f 1f 84 00 00 	cs nop WORD PTR [rax+rax*1+0x0]
  40434a:	00 00 00 
  40434d:	0f 1f 00             	nop    DWORD PTR [rax]
  404350:	48 89 e7             	mov    rdi,rsp
  404353:	e8 68 e3 ff ff       	call   4026c0 <_Z15FindFirstRemovePy>
  404358:	41 89 c5             	mov    r13d,eax
  40435b:	49 8b 87 28 01 00 00 	mov    rax,QWORD PTR [r15+0x128]
  404362:	4d 63 e5             	movsxd r12,r13d
  404365:	44 89 e9             	mov    ecx,r13d
  404368:	83 c1 08             	add    ecx,0x8
  40436b:	4a 85 04 e5 50 7f 41 	test   QWORD PTR [r12*8+0x417f50],rax
  404372:	00 
  404373:	41 8d 6c 24 10       	lea    ebp,[r12+0x10]
  404378:	0f 45 e9             	cmovne ebp,ecx
  40437b:	41 83 fc 07          	cmp    r12d,0x7
  40437f:	77 6f                	ja     4043f0 <_Z9gen_quietP7state_tPi+0x120>
  404381:	43 8b 4c a7 04       	mov    ecx,DWORD PTR [r15+r12*4+0x4]
  404386:	41 b8 09 00 00 00    	mov    r8d,0x9
  40438c:	45 31 c9             	xor    r9d,r9d
  40438f:	48 89 df             	mov    rdi,rbx
  404392:	89 ee                	mov    esi,ebp
  404394:	44 89 ea             	mov    edx,r13d
  404397:	e8 74 04 00 00       	call   404810 <_Z11add_capturePiiiiii>
  40439c:	43 8b 4c a7 04       	mov    ecx,DWORD PTR [r15+r12*4+0x4]
  4043a1:	41 b8 07 00 00 00    	mov    r8d,0x7
  4043a7:	45 31 c9             	xor    r9d,r9d
  4043aa:	48 89 c7             	mov    rdi,rax
  4043ad:	89 ee                	mov    esi,ebp
  4043af:	44 89 ea             	mov    edx,r13d
  4043b2:	e8 59 04 00 00       	call   404810 <_Z11add_capturePiiiiii>
  4043b7:	43 8b 4c a7 04       	mov    ecx,DWORD PTR [r15+r12*4+0x4]
  4043bc:	41 b8 0b 00 00 00    	mov    r8d,0xb
  4043c2:	45 31 c9             	xor    r9d,r9d
  4043c5:	48 89 c7             	mov    rdi,rax
  4043c8:	89 ee                	mov    esi,ebp
  4043ca:	44 89 ea             	mov    edx,r13d
  4043cd:	e8 3e 04 00 00       	call   404810 <_Z11add_capturePiiiiii>
  4043d2:	43 8b 4c a7 04       	mov    ecx,DWORD PTR [r15+r12*4+0x4]
  4043d7:	41 b8 03 00 00 00    	mov    r8d,0x3
  4043dd:	45 31 c9             	xor    r9d,r9d
  4043e0:	48 89 c7             	mov    rdi,rax
  4043e3:	89 ee                	mov    esi,ebp
  4043e5:	44 89 ea             	mov    edx,r13d
  4043e8:	e8 23 04 00 00       	call   404810 <_Z11add_capturePiiiiii>
  4043ed:	eb 10                	jmp    4043ff <_Z9gen_quietP7state_tPi+0x12f>
  4043ef:	90                   	nop
  4043f0:	31 c9                	xor    ecx,ecx
  4043f2:	48 89 df             	mov    rdi,rbx
  4043f5:	89 ee                	mov    esi,ebp
  4043f7:	44 89 ea             	mov    edx,r13d
  4043fa:	e8 31 04 00 00       	call   404830 <_Z8add_movePiiii>
  4043ff:	48 89 c3             	mov    rbx,rax
  404402:	48 83 3c 24 00       	cmp    QWORD PTR [rsp],0x0
  404407:	0f 85 43 ff ff ff    	jne    404350 <_Z9gen_quietP7state_tPi+0x80>
  40440d:	e9 1b 01 00 00       	jmp    40452d <_Z9gen_quietP7state_tPi+0x25d>
  404412:	49 8b 8f 30 01 00 00 	mov    rcx,QWORD PTR [r15+0x130]
  404419:	48 89 ca             	mov    rdx,rcx
  40441c:	48 c1 e2 08          	shl    rdx,0x8
  404420:	4c 21 f2             	and    rdx,r14
  404423:	48 23 0d 2e 43 01 00 	and    rcx,QWORD PTR [rip+0x1432e]        # 418758 <RankMask+0x8>
  40442a:	48 c1 e1 10          	shl    rcx,0x10
  40442e:	48 c1 e0 08          	shl    rax,0x8
  404432:	48 f7 d0             	not    rax
  404435:	4c 21 f0             	and    rax,r14
  404438:	48 21 c8             	and    rax,rcx
  40443b:	48 89 44 24 08       	mov    QWORD PTR [rsp+0x8],rax
  404440:	48 09 d0             	or     rax,rdx
  404443:	48 89 04 24          	mov    QWORD PTR [rsp],rax
  404447:	0f 84 e0 00 00 00    	je     40452d <_Z9gen_quietP7state_tPi+0x25d>
  40444d:	48 8b 5c 24 10       	mov    rbx,QWORD PTR [rsp+0x10]
  404452:	66 2e 0f 1f 84 00 00 	cs nop WORD PTR [rax+rax*1+0x0]
  404459:	00 00 00 
  40445c:	0f 1f 40 00          	nop    DWORD PTR [rax+0x0]
  404460:	48 89 e7             	mov    rdi,rsp
  404463:	e8 58 e2 ff ff       	call   4026c0 <_Z15FindFirstRemovePy>
  404468:	41 89 c5             	mov    r13d,eax
  40446b:	49 8b 87 30 01 00 00 	mov    rax,QWORD PTR [r15+0x130]
  404472:	4d 63 e5             	movsxd r12,r13d
  404475:	44 89 e9             	mov    ecx,r13d
  404478:	83 c1 f8             	add    ecx,0xfffffff8
  40447b:	41 8d 6c 24 f0       	lea    ebp,[r12-0x10]
  404480:	4a 85 04 e5 d0 7e 41 	test   QWORD PTR [r12*8+0x417ed0],rax
  404487:	00 
  404488:	0f 45 e9             	cmovne ebp,ecx
  40448b:	44 89 e0             	mov    eax,r12d
  40448e:	83 e0 f8             	and    eax,0xfffffff8
  404491:	83 f8 38             	cmp    eax,0x38
  404494:	75 7a                	jne    404510 <_Z9gen_quietP7state_tPi+0x240>
  404496:	43 8b 4c a7 04       	mov    ecx,DWORD PTR [r15+r12*4+0x4]
  40449b:	41 b8 0a 00 00 00    	mov    r8d,0xa
  4044a1:	45 31 c9             	xor    r9d,r9d
  4044a4:	48 89 df             	mov    rdi,rbx
  4044a7:	89 ee                	mov    esi,ebp
  4044a9:	44 89 ea             	mov    edx,r13d
  4044ac:	e8 5f 03 00 00       	call   404810 <_Z11add_capturePiiiiii>
  4044b1:	43 8b 4c a7 04       	mov    ecx,DWORD PTR [r15+r12*4+0x4]
  4044b6:	41 b8 08 00 00 00    	mov    r8d,0x8
  4044bc:	45 31 c9             	xor    r9d,r9d
  4044bf:	48 89 c7             	mov    rdi,rax
  4044c2:	89 ee                	mov    esi,ebp
  4044c4:	44 89 ea             	mov    edx,r13d
  4044c7:	e8 44 03 00 00       	call   404810 <_Z11add_capturePiiiiii>
  4044cc:	43 8b 4c a7 04       	mov    ecx,DWORD PTR [r15+r12*4+0x4]
  4044d1:	41 b8 0c 00 00 00    	mov    r8d,0xc
  4044d7:	45 31 c9             	xor    r9d,r9d
  4044da:	48 89 c7             	mov    rdi,rax
  4044dd:	89 ee                	mov    esi,ebp
  4044df:	44 89 ea             	mov    edx,r13d
  4044e2:	e8 29 03 00 00       	call   404810 <_Z11add_capturePiiiiii>
  4044e7:	43 8b 4c a7 04       	mov    ecx,DWORD PTR [r15+r12*4+0x4]
  4044ec:	41 b8 04 00 00 00    	mov    r8d,0x4
  4044f2:	45 31 c9             	xor    r9d,r9d
  4044f5:	48 89 c7             	mov    rdi,rax
  4044f8:	89 ee                	mov    esi,ebp
  4044fa:	44 89 ea             	mov    edx,r13d
  4044fd:	e8 0e 03 00 00       	call   404810 <_Z11add_capturePiiiiii>
  404502:	eb 1b                	jmp    40451f <_Z9gen_quietP7state_tPi+0x24f>
  404504:	66 2e 0f 1f 84 00 00 	cs nop WORD PTR [rax+rax*1+0x0]
  40450b:	00 00 00 
  40450e:	66 90                	xchg   ax,ax
  404510:	31 c9                	xor    ecx,ecx
  404512:	48 89 df             	mov    rdi,rbx
  404515:	89 ee                	mov    esi,ebp
  404517:	44 89 ea             	mov    edx,r13d
  40451a:	e8 11 03 00 00       	call   404830 <_Z8add_movePiiii>
  40451f:	48 89 c3             	mov    rbx,rax
  404522:	48 83 3c 24 00       	cmp    QWORD PTR [rsp],0x0
  404527:	0f 85 33 ff ff ff    	jne    404460 <_Z9gen_quietP7state_tPi+0x190>
  40452d:	31 c0                	xor    eax,eax
  40452f:	41 83 bf cc 01 00 00 	cmp    DWORD PTR [r15+0x1cc],0x0
  404536:	00 
  404537:	0f 94 c0             	sete   al
  40453a:	49 8b 84 c7 38 01 00 	mov    rax,QWORD PTR [r15+rax*8+0x138]
  404541:	00 
  404542:	48 89 04 24          	mov    QWORD PTR [rsp],rax
  404546:	48 85 c0             	test   rax,rax
  404549:	74 67                	je     4045b2 <_Z9gen_quietP7state_tPi+0x2e2>
  40454b:	49 89 e4             	mov    r12,rsp
  40454e:	4c 8d 6c 24 08       	lea    r13,[rsp+0x8]
  404553:	66 2e 0f 1f 84 00 00 	cs nop WORD PTR [rax+rax*1+0x0]
  40455a:	00 00 00 
  40455d:	0f 1f 00             	nop    DWORD PTR [rax]
  404560:	4c 89 e7             	mov    rdi,r12
  404563:	e8 58 e1 ff ff       	call   4026c0 <_Z15FindFirstRemovePy>
  404568:	89 c5                	mov    ebp,eax
  40456a:	48 98                	cdqe   
  40456c:	48 8b 04 c5 10 51 41 	mov    rax,QWORD PTR [rax*8+0x415110]
  404573:	00 
  404574:	4c 21 f0             	and    rax,r14
  404577:	48 89 44 24 08       	mov    QWORD PTR [rsp+0x8],rax
  40457c:	74 2d                	je     4045ab <_Z9gen_quietP7state_tPi+0x2db>
  40457e:	66 90                	xchg   ax,ax
  404580:	4c 89 ef             	mov    rdi,r13
  404583:	e8 38 e1 ff ff       	call   4026c0 <_Z15FindFirstRemovePy>
  404588:	48 63 d0             	movsxd rdx,eax
  40458b:	41 8b 4c 97 04       	mov    ecx,DWORD PTR [r15+rdx*4+0x4]
  404590:	45 31 c0             	xor    r8d,r8d
  404593:	45 31 c9             	xor    r9d,r9d
  404596:	48 89 df             	mov    rdi,rbx
  404599:	89 ee                	mov    esi,ebp
  40459b:	e8 70 02 00 00       	call   404810 <_Z11add_capturePiiiiii>
  4045a0:	48 89 c3             	mov    rbx,rax
  4045a3:	48 83 7c 24 08 00    	cmp    QWORD PTR [rsp+0x8],0x0
  4045a9:	75 d5                	jne    404580 <_Z9gen_quietP7state_tPi+0x2b0>
  4045ab:	48 83 3c 24 00       	cmp    QWORD PTR [rsp],0x0
  4045b0:	75 ae                	jne    404560 <_Z9gen_quietP7state_tPi+0x290>
  4045b2:	31 c0                	xor    eax,eax
  4045b4:	41 83 bf cc 01 00 00 	cmp    DWORD PTR [r15+0x1cc],0x0
  4045bb:	00 
  4045bc:	0f 94 c0             	sete   al
  4045bf:	49 8b 8c c7 68 01 00 	mov    rcx,QWORD PTR [r15+rax*8+0x168]
  4045c6:	00 
  4045c7:	49 0b 8c c7 78 01 00 	or     rcx,QWORD PTR [r15+rax*8+0x178]
  4045ce:	00 
  4045cf:	48 89 0c 24          	mov    QWORD PTR [rsp],rcx
  4045d3:	74 5d                	je     404632 <_Z9gen_quietP7state_tPi+0x362>
  4045d5:	49 89 e4             	mov    r12,rsp
  4045d8:	4c 8d 6c 24 08       	lea    r13,[rsp+0x8]
  4045dd:	0f 1f 00             	nop    DWORD PTR [rax]
  4045e0:	4c 89 e7             	mov    rdi,r12
  4045e3:	e8 d8 e0 ff ff       	call   4026c0 <_Z15FindFirstRemovePy>
  4045e8:	89 c5                	mov    ebp,eax
  4045ea:	4c 89 ff             	mov    rdi,r15
  4045ed:	89 c6                	mov    esi,eax
  4045ef:	e8 1c e0 ff ff       	call   402610 <_Z13BishopAttacksP7state_ti>
  4045f4:	4c 21 f0             	and    rax,r14
  4045f7:	48 89 44 24 08       	mov    QWORD PTR [rsp+0x8],rax
  4045fc:	74 2d                	je     40462b <_Z9gen_quietP7state_tPi+0x35b>
  4045fe:	66 90                	xchg   ax,ax
  404600:	4c 89 ef             	mov    rdi,r13
  404603:	e8 b8 e0 ff ff       	call   4026c0 <_Z15FindFirstRemovePy>
  404608:	48 63 d0             	movsxd rdx,eax
  40460b:	41 8b 4c 97 04       	mov    ecx,DWORD PTR [r15+rdx*4+0x4]
  404610:	45 31 c0             	xor    r8d,r8d
  404613:	45 31 c9             	xor    r9d,r9d
  404616:	48 89 df             	mov    rdi,rbx
  404619:	89 ee                	mov    esi,ebp
  40461b:	e8 f0 01 00 00       	call   404810 <_Z11add_capturePiiiiii>
  404620:	48 89 c3             	mov    rbx,rax
  404623:	48 83 7c 24 08 00    	cmp    QWORD PTR [rsp+0x8],0x0
  404629:	75 d5                	jne    404600 <_Z9gen_quietP7state_tPi+0x330>
  40462b:	48 83 3c 24 00       	cmp    QWORD PTR [rsp],0x0
  404630:	75 ae                	jne    4045e0 <_Z9gen_quietP7state_tPi+0x310>
  404632:	31 c0                	xor    eax,eax
  404634:	41 83 bf cc 01 00 00 	cmp    DWORD PTR [r15+0x1cc],0x0
  40463b:	00 
  40463c:	0f 94 c0             	sete   al
  40463f:	49 8b 8c c7 68 01 00 	mov    rcx,QWORD PTR [r15+rax*8+0x168]
  404646:	00 
  404647:	49 0b 8c c7 58 01 00 	or     rcx,QWORD PTR [r15+rax*8+0x158]
  40464e:	00 
  40464f:	48 89 0c 24          	mov    QWORD PTR [rsp],rcx
  404653:	74 5d                	je     4046b2 <_Z9gen_quietP7state_tPi+0x3e2>
  404655:	49 89 e4             	mov    r12,rsp
  404658:	4c 8d 6c 24 08       	lea    r13,[rsp+0x8]
  40465d:	0f 1f 00             	nop    DWORD PTR [rax]
  404660:	4c 89 e7             	mov    rdi,r12
  404663:	e8 58 e0 ff ff       	call   4026c0 <_Z15FindFirstRemovePy>
  404668:	89 c5                	mov    ebp,eax
  40466a:	4c 89 ff             	mov    rdi,r15
  40466d:	89 c6                	mov    esi,eax
  40466f:	e8 cc df ff ff       	call   402640 <_Z11RookAttacksP7state_ti>
  404674:	4c 21 f0             	and    rax,r14
  404677:	48 89 44 24 08       	mov    QWORD PTR [rsp+0x8],rax
  40467c:	74 2d                	je     4046ab <_Z9gen_quietP7state_tPi+0x3db>
  40467e:	66 90                	xchg   ax,ax
  404680:	4c 89 ef             	mov    rdi,r13
  404683:	e8 38 e0 ff ff       	call   4026c0 <_Z15FindFirstRemovePy>
  404688:	48 63 d0             	movsxd rdx,eax
  40468b:	41 8b 4c 97 04       	mov    ecx,DWORD PTR [r15+rdx*4+0x4]
  404690:	45 31 c0             	xor    r8d,r8d
  404693:	45 31 c9             	xor    r9d,r9d
  404696:	48 89 df             	mov    rdi,rbx
  404699:	89 ee                	mov    esi,ebp
  40469b:	e8 70 01 00 00       	call   404810 <_Z11add_capturePiiiiii>
  4046a0:	48 89 c3             	mov    rbx,rax
  4046a3:	48 83 7c 24 08 00    	cmp    QWORD PTR [rsp+0x8],0x0
  4046a9:	75 d5                	jne    404680 <_Z9gen_quietP7state_tPi+0x3b0>
  4046ab:	48 83 3c 24 00       	cmp    QWORD PTR [rsp],0x0
  4046b0:	75 ae                	jne    404660 <_Z9gen_quietP7state_tPi+0x390>
  4046b2:	41 83 bf cc 01 00 00 	cmp    DWORD PTR [r15+0x1cc],0x0
  4046b9:	00 
  4046ba:	41 8b 87 c4 01 00 00 	mov    eax,DWORD PTR [r15+0x1c4]
  4046c1:	74 71                	je     404734 <_Z9gen_quietP7state_tPi+0x464>
  4046c3:	a8 02                	test   al,0x2
  4046c5:	74 2d                	je     4046f4 <_Z9gen_quietP7state_tPi+0x424>
  4046c7:	be 01 00 00 00       	mov    esi,0x1
  4046cc:	4c 89 ff             	mov    rdi,r15
  4046cf:	e8 ac 24 00 00       	call   406b80 <_Z20check_castle_blockerP7state_ti>
  4046d4:	85 c0                	test   eax,eax
  4046d6:	75 1c                	jne    4046f4 <_Z9gen_quietP7state_tPi+0x424>
  4046d8:	41 8b b7 d0 01 00 00 	mov    esi,DWORD PTR [r15+0x1d0]
  4046df:	ba 3e 00 00 00       	mov    edx,0x3e
  4046e4:	b9 01 00 00 00       	mov    ecx,0x1
  4046e9:	48 89 df             	mov    rdi,rbx
  4046ec:	e8 5f 01 00 00       	call   404850 <_Z15add_king_castlePiiii>
  4046f1:	48 89 c3             	mov    rbx,rax
  4046f4:	41 f6 87 c4 01 00 00 	test   BYTE PTR [r15+0x1c4],0x4
  4046fb:	04 
  4046fc:	74 2d                	je     40472b <_Z9gen_quietP7state_tPi+0x45b>
  4046fe:	be 02 00 00 00       	mov    esi,0x2
  404703:	4c 89 ff             	mov    rdi,r15
  404706:	e8 75 24 00 00       	call   406b80 <_Z20check_castle_blockerP7state_ti>
  40470b:	85 c0                	test   eax,eax
  40470d:	75 1c                	jne    40472b <_Z9gen_quietP7state_tPi+0x45b>
  40470f:	41 8b b7 d0 01 00 00 	mov    esi,DWORD PTR [r15+0x1d0]
  404716:	ba 3a 00 00 00       	mov    edx,0x3a
  40471b:	b9 02 00 00 00       	mov    ecx,0x2
  404720:	48 89 df             	mov    rdi,rbx
  404723:	e8 28 01 00 00       	call   404850 <_Z15add_king_castlePiiii>
  404728:	48 89 c3             	mov    rbx,rax
  40472b:	49 8d 87 d0 01 00 00 	lea    rax,[r15+0x1d0]
  404732:	eb 6f                	jmp    4047a3 <_Z9gen_quietP7state_tPi+0x4d3>
  404734:	a8 08                	test   al,0x8
  404736:	74 2d                	je     404765 <_Z9gen_quietP7state_tPi+0x495>
  404738:	be 03 00 00 00       	mov    esi,0x3
  40473d:	4c 89 ff             	mov    rdi,r15
  404740:	e8 3b 24 00 00       	call   406b80 <_Z20check_castle_blockerP7state_ti>
  404745:	85 c0                	test   eax,eax
  404747:	75 1c                	jne    404765 <_Z9gen_quietP7state_tPi+0x495>
  404749:	41 8b b7 d4 01 00 00 	mov    esi,DWORD PTR [r15+0x1d4]
  404750:	ba 06 00 00 00       	mov    edx,0x6
  404755:	b9 03 00 00 00       	mov    ecx,0x3
  40475a:	48 89 df             	mov    rdi,rbx
  40475d:	e8 ee 00 00 00       	call   404850 <_Z15add_king_castlePiiii>
  404762:	48 89 c3             	mov    rbx,rax
  404765:	41 f6 87 c4 01 00 00 	test   BYTE PTR [r15+0x1c4],0x10
  40476c:	10 
  40476d:	74 2d                	je     40479c <_Z9gen_quietP7state_tPi+0x4cc>
  40476f:	be 04 00 00 00       	mov    esi,0x4
  404774:	4c 89 ff             	mov    rdi,r15
  404777:	e8 04 24 00 00       	call   406b80 <_Z20check_castle_blockerP7state_ti>
  40477c:	85 c0                	test   eax,eax
  40477e:	75 1c                	jne    40479c <_Z9gen_quietP7state_tPi+0x4cc>
  404780:	41 8b b7 d4 01 00 00 	mov    esi,DWORD PTR [r15+0x1d4]
  404787:	ba 02 00 00 00       	mov    edx,0x2
  40478c:	b9 04 00 00 00       	mov    ecx,0x4
  404791:	48 89 df             	mov    rdi,rbx
  404794:	e8 b7 00 00 00       	call   404850 <_Z15add_king_castlePiiii>
  404799:	48 89 c3             	mov    rbx,rax
  40479c:	49 8d 87 d4 01 00 00 	lea    rax,[r15+0x1d4]
  4047a3:	48 63 28             	movsxd rbp,DWORD PTR [rax]
  4047a6:	4c 23 34 ed 10 53 41 	and    r14,QWORD PTR [rbp*8+0x415310]
  4047ad:	00 
  4047ae:	4c 89 34 24          	mov    QWORD PTR [rsp],r14
  4047b2:	74 36                	je     4047ea <_Z9gen_quietP7state_tPi+0x51a>
  4047b4:	49 89 e4             	mov    r12,rsp
  4047b7:	66 0f 1f 84 00 00 00 	nop    WORD PTR [rax+rax*1+0x0]
  4047be:	00 00 
  4047c0:	4c 89 e7             	mov    rdi,r12
  4047c3:	e8 f8 de ff ff       	call   4026c0 <_Z15FindFirstRemovePy>
  4047c8:	48 63 d0             	movsxd rdx,eax
  4047cb:	41 8b 4c 97 04       	mov    ecx,DWORD PTR [r15+rdx*4+0x4]
  4047d0:	45 31 c0             	xor    r8d,r8d
  4047d3:	45 31 c9             	xor    r9d,r9d
  4047d6:	48 89 df             	mov    rdi,rbx
  4047d9:	89 ee                	mov    esi,ebp
  4047db:	e8 30 00 00 00       	call   404810 <_Z11add_capturePiiiiii>
  4047e0:	48 89 c3             	mov    rbx,rax
  4047e3:	48 83 3c 24 00       	cmp    QWORD PTR [rsp],0x0
  4047e8:	75 d6                	jne    4047c0 <_Z9gen_quietP7state_tPi+0x4f0>
  4047ea:	48 2b 5c 24 10       	sub    rbx,QWORD PTR [rsp+0x10]
  4047ef:	48 c1 eb 02          	shr    rbx,0x2
  4047f3:	89 d8                	mov    eax,ebx
  4047f5:	48 83 c4 18          	add    rsp,0x18
  4047f9:	5b                   	pop    rbx
  4047fa:	41 5c                	pop    r12
  4047fc:	41 5d                	pop    r13
  4047fe:	41 5e                	pop    r14
  404800:	41 5f                	pop    r15
  404802:	5d                   	pop    rbp
  404803:	c3                   	ret    
  404804:	66 2e 0f 1f 84 00 00 	cs nop WORD PTR [rax+rax*1+0x0]
  40480b:	00 00 00 
  40480e:	66 90                	xchg   ax,ax

0000000000404810 <_Z11add_capturePiiiiii>:
  404810:	41 c1 e1 17          	shl    r9d,0x17
  404814:	c1 e1 13             	shl    ecx,0x13
  404817:	41 c1 e0 0c          	shl    r8d,0xc
  40481b:	41 09 c8             	or     r8d,ecx
  40481e:	c1 e6 06             	shl    esi,0x6
  404821:	09 d6                	or     esi,edx
  404823:	44 09 c6             	or     esi,r8d
  404826:	44 09 ce             	or     esi,r9d
  404829:	89 37                	mov    DWORD PTR [rdi],esi
  40482b:	48 8d 47 04          	lea    rax,[rdi+0x4]
  40482f:	c3                   	ret    

0000000000404830 <_Z8add_movePiiii>:
  404830:	c1 e1 0c             	shl    ecx,0xc
  404833:	c1 e6 06             	shl    esi,0x6
  404836:	09 d6                	or     esi,edx
  404838:	09 ce                	or     esi,ecx
  40483a:	81 ce 00 00 68 00    	or     esi,0x680000
  404840:	89 37                	mov    DWORD PTR [rdi],esi
  404842:	48 8d 47 04          	lea    rax,[rdi+0x4]
  404846:	c3                   	ret    
  404847:	66 0f 1f 84 00 00 00 	nop    WORD PTR [rax+rax*1+0x0]
  40484e:	00 00 

0000000000404850 <_Z15add_king_castlePiiii>:
  404850:	c1 e1 10             	shl    ecx,0x10
  404853:	c1 e6 06             	shl    esi,0x6
  404856:	09 d6                	or     esi,edx
  404858:	09 ce                	or     esi,ecx
  40485a:	81 ce 00 00 68 00    	or     esi,0x680000
  404860:	89 37                	mov    DWORD PTR [rdi],esi
  404862:	48 8d 47 04          	lea    rax,[rdi+0x4]
  404866:	c3                   	ret    
  404867:	66 0f 1f 84 00 00 00 	nop    WORD PTR [rax+rax*1+0x0]
  40486e:	00 00 

0000000000404870 <_Z3genP7state_tPi>:
  404870:	55                   	push   rbp
  404871:	41 57                	push   r15
  404873:	41 56                	push   r14
  404875:	41 55                	push   r13
  404877:	41 54                	push   r12
  404879:	53                   	push   rbx
  40487a:	48 83 ec 28          	sub    rsp,0x28
  40487e:	48 89 f3             	mov    rbx,rsi
  404881:	49 89 ff             	mov    r15,rdi
  404884:	31 c0                	xor    eax,eax
  404886:	83 bf cc 01 00 00 00 	cmp    DWORD PTR [rdi+0x1cc],0x0
  40488d:	0f 95 c0             	setne  al
  404890:	48 8b 84 c7 10 01 00 	mov    rax,QWORD PTR [rdi+rax*8+0x110]
  404897:	00 
  404898:	48 89 44 24 10       	mov    QWORD PTR [rsp+0x10],rax
  40489d:	48 89 74 24 20       	mov    QWORD PTR [rsp+0x20],rsi
  4048a2:	0f 84 2c 01 00 00    	je     4049d4 <_Z3genP7state_tPi+0x164>
  4048a8:	49 8b 87 08 01 00 00 	mov    rax,QWORD PTR [r15+0x108]
  4048af:	49 8b 8f 28 01 00 00 	mov    rcx,QWORD PTR [r15+0x128]
  4048b6:	48 89 ca             	mov    rdx,rcx
  4048b9:	48 c1 ea 08          	shr    rdx,0x8
  4048bd:	48 89 c7             	mov    rdi,rax
  4048c0:	48 f7 d7             	not    rdi
  4048c3:	48 21 fa             	and    rdx,rdi
  4048c6:	48 23 0d b3 3e 01 00 	and    rcx,QWORD PTR [rip+0x13eb3]        # 418780 <RankMask+0x30>
  4048cd:	48 c1 e9 10          	shr    rcx,0x10
  4048d1:	48 c1 e8 08          	shr    rax,0x8
  4048d5:	48 f7 d0             	not    rax
  4048d8:	48 21 f8             	and    rax,rdi
  4048db:	48 21 c8             	and    rax,rcx
  4048de:	48 89 44 24 18       	mov    QWORD PTR [rsp+0x18],rax
  4048e3:	48 09 d0             	or     rax,rdx
  4048e6:	48 89 44 24 08       	mov    QWORD PTR [rsp+0x8],rax
  4048eb:	0f 84 0e 02 00 00    	je     404aff <_Z3genP7state_tPi+0x28f>
  4048f1:	4c 8d 64 24 08       	lea    r12,[rsp+0x8]
  4048f6:	48 8b 5c 24 20       	mov    rbx,QWORD PTR [rsp+0x20]
  4048fb:	0f 1f 44 00 00       	nop    DWORD PTR [rax+rax*1+0x0]
  404900:	4c 89 e7             	mov    rdi,r12
  404903:	e8 b8 dd ff ff       	call   4026c0 <_Z15FindFirstRemovePy>
  404908:	41 89 c5             	mov    r13d,eax
  40490b:	49 8b 87 28 01 00 00 	mov    rax,QWORD PTR [r15+0x128]
  404912:	49 63 ed             	movsxd rbp,r13d
  404915:	44 89 e9             	mov    ecx,r13d
  404918:	83 c1 08             	add    ecx,0x8
  40491b:	48 85 04 ed 50 7f 41 	test   QWORD PTR [rbp*8+0x417f50],rax
  404922:	00 
  404923:	44 8d 75 10          	lea    r14d,[rbp+0x10]
  404927:	44 0f 45 f1          	cmovne r14d,ecx
  40492b:	83 fd 07             	cmp    ebp,0x7
  40492e:	0f 87 7c 00 00 00    	ja     4049b0 <_Z3genP7state_tPi+0x140>
  404934:	41 8b 4c af 04       	mov    ecx,DWORD PTR [r15+rbp*4+0x4]
  404939:	41 b8 09 00 00 00    	mov    r8d,0x9
  40493f:	45 31 c9             	xor    r9d,r9d
  404942:	48 89 df             	mov    rdi,rbx
  404945:	44 89 f6             	mov    esi,r14d
  404948:	44 89 ea             	mov    edx,r13d
  40494b:	e8 c0 fe ff ff       	call   404810 <_Z11add_capturePiiiiii>
  404950:	41 8b 4c af 04       	mov    ecx,DWORD PTR [r15+rbp*4+0x4]
  404955:	41 b8 07 00 00 00    	mov    r8d,0x7
  40495b:	45 31 c9             	xor    r9d,r9d
  40495e:	48 89 c7             	mov    rdi,rax
  404961:	44 89 f6             	mov    esi,r14d
  404964:	44 89 ea             	mov    edx,r13d
  404967:	e8 a4 fe ff ff       	call   404810 <_Z11add_capturePiiiiii>
  40496c:	41 8b 4c af 04       	mov    ecx,DWORD PTR [r15+rbp*4+0x4]
  404971:	41 b8 0b 00 00 00    	mov    r8d,0xb
  404977:	45 31 c9             	xor    r9d,r9d
  40497a:	48 89 c7             	mov    rdi,rax
  40497d:	44 89 f6             	mov    esi,r14d
  404980:	44 89 ea             	mov    edx,r13d
  404983:	e8 88 fe ff ff       	call   404810 <_Z11add_capturePiiiiii>
  404988:	41 8b 4c af 04       	mov    ecx,DWORD PTR [r15+rbp*4+0x4]
  40498d:	41 b8 03 00 00 00    	mov    r8d,0x3
  404993:	45 31 c9             	xor    r9d,r9d
  404996:	48 89 c7             	mov    rdi,rax
  404999:	44 89 f6             	mov    esi,r14d
  40499c:	44 89 ea             	mov    edx,r13d
  40499f:	e8 6c fe ff ff       	call   404810 <_Z11add_capturePiiiiii>
  4049a4:	eb 1a                	jmp    4049c0 <_Z3genP7state_tPi+0x150>
  4049a6:	66 2e 0f 1f 84 00 00 	cs nop WORD PTR [rax+rax*1+0x0]
  4049ad:	00 00 00 
  4049b0:	31 c9                	xor    ecx,ecx
  4049b2:	48 89 df             	mov    rdi,rbx
  4049b5:	44 89 f6             	mov    esi,r14d
  4049b8:	44 89 ea             	mov    edx,r13d
  4049bb:	e8 70 fe ff ff       	call   404830 <_Z8add_movePiiii>
  4049c0:	48 89 c3             	mov    rbx,rax
  4049c3:	48 83 7c 24 08 00    	cmp    QWORD PTR [rsp+0x8],0x0
  4049c9:	0f 85 31 ff ff ff    	jne    404900 <_Z3genP7state_tPi+0x90>
  4049cf:	e9 2b 01 00 00       	jmp    404aff <_Z3genP7state_tPi+0x28f>
  4049d4:	49 8b 87 08 01 00 00 	mov    rax,QWORD PTR [r15+0x108]
  4049db:	49 8b 8f 30 01 00 00 	mov    rcx,QWORD PTR [r15+0x130]
  4049e2:	48 89 ca             	mov    rdx,rcx
  4049e5:	48 c1 e2 08          	shl    rdx,0x8
  4049e9:	48 89 c7             	mov    rdi,rax
  4049ec:	48 f7 d7             	not    rdi
  4049ef:	48 21 fa             	and    rdx,rdi
  4049f2:	48 23 0d 5f 3d 01 00 	and    rcx,QWORD PTR [rip+0x13d5f]        # 418758 <RankMask+0x8>
  4049f9:	48 c1 e1 10          	shl    rcx,0x10
  4049fd:	48 c1 e0 08          	shl    rax,0x8
  404a01:	48 f7 d0             	not    rax
  404a04:	48 21 f8             	and    rax,rdi
  404a07:	48 21 c8             	and    rax,rcx
  404a0a:	48 89 44 24 18       	mov    QWORD PTR [rsp+0x18],rax
  404a0f:	48 09 d0             	or     rax,rdx
  404a12:	48 89 44 24 08       	mov    QWORD PTR [rsp+0x8],rax
  404a17:	0f 84 e2 00 00 00    	je     404aff <_Z3genP7state_tPi+0x28f>
  404a1d:	4c 8d 64 24 08       	lea    r12,[rsp+0x8]
  404a22:	48 8b 5c 24 20       	mov    rbx,QWORD PTR [rsp+0x20]
  404a27:	66 0f 1f 84 00 00 00 	nop    WORD PTR [rax+rax*1+0x0]
  404a2e:	00 00 
  404a30:	4c 89 e7             	mov    rdi,r12
  404a33:	e8 88 dc ff ff       	call   4026c0 <_Z15FindFirstRemovePy>
  404a38:	41 89 c5             	mov    r13d,eax
  404a3b:	49 8b 87 30 01 00 00 	mov    rax,QWORD PTR [r15+0x130]
  404a42:	49 63 ed             	movsxd rbp,r13d
  404a45:	44 89 e9             	mov    ecx,r13d
  404a48:	83 c1 f8             	add    ecx,0xfffffff8
  404a4b:	44 8d 75 f0          	lea    r14d,[rbp-0x10]
  404a4f:	48 85 04 ed d0 7e 41 	test   QWORD PTR [rbp*8+0x417ed0],rax
  404a56:	00 
  404a57:	44 0f 45 f1          	cmovne r14d,ecx
  404a5b:	89 e8                	mov    eax,ebp
  404a5d:	83 e0 f8             	and    eax,0xfffffff8
  404a60:	83 f8 38             	cmp    eax,0x38
  404a63:	75 7b                	jne    404ae0 <_Z3genP7state_tPi+0x270>
  404a65:	41 8b 4c af 04       	mov    ecx,DWORD PTR [r15+rbp*4+0x4]
  404a6a:	41 b8 0a 00 00 00    	mov    r8d,0xa
  404a70:	45 31 c9             	xor    r9d,r9d
  404a73:	48 89 df             	mov    rdi,rbx
  404a76:	44 89 f6             	mov    esi,r14d
  404a79:	44 89 ea             	mov    edx,r13d
  404a7c:	e8 8f fd ff ff       	call   404810 <_Z11add_capturePiiiiii>
  404a81:	41 8b 4c af 04       	mov    ecx,DWORD PTR [r15+rbp*4+0x4]
  404a86:	41 b8 08 00 00 00    	mov    r8d,0x8
  404a8c:	45 31 c9             	xor    r9d,r9d
  404a8f:	48 89 c7             	mov    rdi,rax
  404a92:	44 89 f6             	mov    esi,r14d
  404a95:	44 89 ea             	mov    edx,r13d
  404a98:	e8 73 fd ff ff       	call   404810 <_Z11add_capturePiiiiii>
  404a9d:	41 8b 4c af 04       	mov    ecx,DWORD PTR [r15+rbp*4+0x4]
  404aa2:	41 b8 0c 00 00 00    	mov    r8d,0xc
  404aa8:	45 31 c9             	xor    r9d,r9d
  404aab:	48 89 c7             	mov    rdi,rax
  404aae:	44 89 f6             	mov    esi,r14d
  404ab1:	44 89 ea             	mov    edx,r13d
  404ab4:	e8 57 fd ff ff       	call   404810 <_Z11add_capturePiiiiii>
  404ab9:	41 8b 4c af 04       	mov    ecx,DWORD PTR [r15+rbp*4+0x4]
  404abe:	41 b8 04 00 00 00    	mov    r8d,0x4
  404ac4:	45 31 c9             	xor    r9d,r9d
  404ac7:	48 89 c7             	mov    rdi,rax
  404aca:	44 89 f6             	mov    esi,r14d
  404acd:	44 89 ea             	mov    edx,r13d
  404ad0:	e8 3b fd ff ff       	call   404810 <_Z11add_capturePiiiiii>
  404ad5:	eb 19                	jmp    404af0 <_Z3genP7state_tPi+0x280>
  404ad7:	66 0f 1f 84 00 00 00 	nop    WORD PTR [rax+rax*1+0x0]
  404ade:	00 00 
  404ae0:	31 c9                	xor    ecx,ecx
  404ae2:	48 89 df             	mov    rdi,rbx
  404ae5:	44 89 f6             	mov    esi,r14d
  404ae8:	44 89 ea             	mov    edx,r13d
  404aeb:	e8 40 fd ff ff       	call   404830 <_Z8add_movePiiii>
  404af0:	48 89 c3             	mov    rbx,rax
  404af3:	48 83 7c 24 08 00    	cmp    QWORD PTR [rsp+0x8],0x0
  404af9:	0f 85 31 ff ff ff    	jne    404a30 <_Z3genP7state_tPi+0x1c0>
  404aff:	41 83 bf cc 01 00 00 	cmp    DWORD PTR [r15+0x1cc],0x0
  404b06:	00 
  404b07:	0f 84 1e 02 00 00    	je     404d2b <_Z3genP7state_tPi+0x4bb>
  404b0d:	49 8b 8f 28 01 00 00 	mov    rcx,QWORD PTR [r15+0x128]
  404b14:	48 8b 15 2d 3c 01 00 	mov    rdx,QWORD PTR [rip+0x13c2d]        # 418748 <FileMask+0x38>
  404b1b:	48 f7 d2             	not    rdx
  404b1e:	48 21 ca             	and    rdx,rcx
  404b21:	48 c1 ea 07          	shr    rdx,0x7
  404b25:	48 8b 05 e4 3b 01 00 	mov    rax,QWORD PTR [rip+0x13be4]        # 418710 <FileMask>
  404b2c:	48 f7 d0             	not    rax
  404b2f:	48 21 c8             	and    rax,rcx
  404b32:	48 c1 e8 09          	shr    rax,0x9
  404b36:	48 09 d0             	or     rax,rdx
  404b39:	48 89 44 24 08       	mov    QWORD PTR [rsp+0x8],rax
  404b3e:	49 63 97 c8 01 00 00 	movsxd rdx,DWORD PTR [r15+0x1c8]
  404b45:	49 8b 8f 10 01 00 00 	mov    rcx,QWORD PTR [r15+0x110]
  404b4c:	48 85 d2             	test   rdx,rdx
  404b4f:	4c 8b 74 24 10       	mov    r14,QWORD PTR [rsp+0x10]
  404b54:	7e 08                	jle    404b5e <_Z3genP7state_tPi+0x2ee>
  404b56:	48 0b 0c d5 10 7f 41 	or     rcx,QWORD PTR [rdx*8+0x417f10]
  404b5d:	00 
  404b5e:	48 21 c1             	and    rcx,rax
  404b61:	48 89 4c 24 08       	mov    QWORD PTR [rsp+0x8],rcx
  404b66:	0f 84 ea 03 00 00    	je     404f56 <_Z3genP7state_tPi+0x6e6>
  404b6c:	0f 1f 40 00          	nop    DWORD PTR [rax+0x0]
  404b70:	48 8d 7c 24 08       	lea    rdi,[rsp+0x8]
  404b75:	e8 46 db ff ff       	call   4026c0 <_Z15FindFirstRemovePy>
  404b7a:	41 89 c5             	mov    r13d,eax
  404b7d:	41 89 c4             	mov    r12d,eax
  404b80:	41 83 e4 07          	and    r12d,0x7
  404b84:	0f 84 cd 00 00 00    	je     404c57 <_Z3genP7state_tPi+0x3e7>
  404b8a:	49 8b 87 28 01 00 00 	mov    rax,QWORD PTR [r15+0x128]
  404b91:	49 63 ed             	movsxd rbp,r13d
  404b94:	48 85 04 ed 48 7f 41 	test   QWORD PTR [rbp*8+0x417f48],rax
  404b9b:	00 
  404b9c:	0f 84 ab 00 00 00    	je     404c4d <_Z3genP7state_tPi+0x3dd>
  404ba2:	45 8d 75 07          	lea    r14d,[r13+0x7]
  404ba6:	41 83 fd 07          	cmp    r13d,0x7
  404baa:	77 67                	ja     404c13 <_Z3genP7state_tPi+0x3a3>
  404bac:	41 8b 4c af 04       	mov    ecx,DWORD PTR [r15+rbp*4+0x4]
  404bb1:	41 b8 09 00 00 00    	mov    r8d,0x9
  404bb7:	45 31 c9             	xor    r9d,r9d
  404bba:	48 89 df             	mov    rdi,rbx
  404bbd:	44 89 f6             	mov    esi,r14d
  404bc0:	44 89 ea             	mov    edx,r13d
  404bc3:	e8 48 fc ff ff       	call   404810 <_Z11add_capturePiiiiii>
  404bc8:	41 8b 4c af 04       	mov    ecx,DWORD PTR [r15+rbp*4+0x4]
  404bcd:	41 b8 07 00 00 00    	mov    r8d,0x7
  404bd3:	45 31 c9             	xor    r9d,r9d
  404bd6:	48 89 c7             	mov    rdi,rax
  404bd9:	44 89 f6             	mov    esi,r14d
  404bdc:	44 89 ea             	mov    edx,r13d
  404bdf:	e8 2c fc ff ff       	call   404810 <_Z11add_capturePiiiiii>
  404be4:	41 8b 4c af 04       	mov    ecx,DWORD PTR [r15+rbp*4+0x4]
  404be9:	41 b8 0b 00 00 00    	mov    r8d,0xb
  404bef:	45 31 c9             	xor    r9d,r9d
  404bf2:	48 89 c7             	mov    rdi,rax
  404bf5:	44 89 f6             	mov    esi,r14d
  404bf8:	44 89 ea             	mov    edx,r13d
  404bfb:	e8 10 fc ff ff       	call   404810 <_Z11add_capturePiiiiii>
  404c00:	41 8b 4c af 04       	mov    ecx,DWORD PTR [r15+rbp*4+0x4]
  404c05:	41 b8 03 00 00 00    	mov    r8d,0x3
  404c0b:	45 31 c9             	xor    r9d,r9d
  404c0e:	48 89 c7             	mov    rdi,rax
  404c11:	eb 27                	jmp    404c3a <_Z3genP7state_tPi+0x3ca>
  404c13:	45 3b af c8 01 00 00 	cmp    r13d,DWORD PTR [r15+0x1c8]
  404c1a:	75 10                	jne    404c2c <_Z3genP7state_tPi+0x3bc>
  404c1c:	b9 02 00 00 00       	mov    ecx,0x2
  404c21:	45 31 c0             	xor    r8d,r8d
  404c24:	41 b9 01 00 00 00    	mov    r9d,0x1
  404c2a:	eb 0b                	jmp    404c37 <_Z3genP7state_tPi+0x3c7>
  404c2c:	41 8b 4c af 04       	mov    ecx,DWORD PTR [r15+rbp*4+0x4]
  404c31:	45 31 c0             	xor    r8d,r8d
  404c34:	45 31 c9             	xor    r9d,r9d
  404c37:	48 89 df             	mov    rdi,rbx
  404c3a:	44 89 f6             	mov    esi,r14d
  404c3d:	44 89 ea             	mov    edx,r13d
  404c40:	e8 cb fb ff ff       	call   404810 <_Z11add_capturePiiiiii>
  404c45:	48 89 c3             	mov    rbx,rax
  404c48:	4c 8b 74 24 10       	mov    r14,QWORD PTR [rsp+0x10]
  404c4d:	41 83 fc 07          	cmp    r12d,0x7
  404c51:	0f 84 c3 00 00 00    	je     404d1a <_Z3genP7state_tPi+0x4aa>
  404c57:	49 8b 87 28 01 00 00 	mov    rax,QWORD PTR [r15+0x128]
  404c5e:	49 63 ed             	movsxd rbp,r13d
  404c61:	48 85 04 ed 58 7f 41 	test   QWORD PTR [rbp*8+0x417f58],rax
  404c68:	00 
  404c69:	0f 84 ab 00 00 00    	je     404d1a <_Z3genP7state_tPi+0x4aa>
  404c6f:	45 8d 75 09          	lea    r14d,[r13+0x9]
  404c73:	41 83 fd 07          	cmp    r13d,0x7
  404c77:	77 67                	ja     404ce0 <_Z3genP7state_tPi+0x470>
  404c79:	41 8b 4c af 04       	mov    ecx,DWORD PTR [r15+rbp*4+0x4]
  404c7e:	41 b8 09 00 00 00    	mov    r8d,0x9
  404c84:	45 31 c9             	xor    r9d,r9d
  404c87:	48 89 df             	mov    rdi,rbx
  404c8a:	44 89 f6             	mov    esi,r14d
  404c8d:	44 89 ea             	mov    edx,r13d
  404c90:	e8 7b fb ff ff       	call   404810 <_Z11add_capturePiiiiii>
  404c95:	41 8b 4c af 04       	mov    ecx,DWORD PTR [r15+rbp*4+0x4]
  404c9a:	41 b8 07 00 00 00    	mov    r8d,0x7
  404ca0:	45 31 c9             	xor    r9d,r9d
  404ca3:	48 89 c7             	mov    rdi,rax
  404ca6:	44 89 f6             	mov    esi,r14d
  404ca9:	44 89 ea             	mov    edx,r13d
  404cac:	e8 5f fb ff ff       	call   404810 <_Z11add_capturePiiiiii>
  404cb1:	41 8b 4c af 04       	mov    ecx,DWORD PTR [r15+rbp*4+0x4]
  404cb6:	41 b8 0b 00 00 00    	mov    r8d,0xb
  404cbc:	45 31 c9             	xor    r9d,r9d
  404cbf:	48 89 c7             	mov    rdi,rax
  404cc2:	44 89 f6             	mov    esi,r14d
  404cc5:	44 89 ea             	mov    edx,r13d
  404cc8:	e8 43 fb ff ff       	call   404810 <_Z11add_capturePiiiiii>
  404ccd:	41 8b 4c af 04       	mov    ecx,DWORD PTR [r15+rbp*4+0x4]
  404cd2:	41 b8 03 00 00 00    	mov    r8d,0x3
  404cd8:	45 31 c9             	xor    r9d,r9d
  404cdb:	48 89 c7             	mov    rdi,rax
  404cde:	eb 27                	jmp    404d07 <_Z3genP7state_tPi+0x497>
  404ce0:	45 3b af c8 01 00 00 	cmp    r13d,DWORD PTR [r15+0x1c8]
  404ce7:	75 10                	jne    404cf9 <_Z3genP7state_tPi+0x489>
  404ce9:	b9 02 00 00 00       	mov    ecx,0x2
  404cee:	45 31 c0             	xor    r8d,r8d
  404cf1:	41 b9 01 00 00 00    	mov    r9d,0x1
  404cf7:	eb 0b                	jmp    404d04 <_Z3genP7state_tPi+0x494>
  404cf9:	41 8b 4c af 04       	mov    ecx,DWORD PTR [r15+rbp*4+0x4]
  404cfe:	45 31 c0             	xor    r8d,r8d
  404d01:	45 31 c9             	xor    r9d,r9d
  404d04:	48 89 df             	mov    rdi,rbx
  404d07:	44 89 f6             	mov    esi,r14d
  404d0a:	44 89 ea             	mov    edx,r13d
  404d0d:	e8 fe fa ff ff       	call   404810 <_Z11add_capturePiiiiii>
  404d12:	48 89 c3             	mov    rbx,rax
  404d15:	4c 8b 74 24 10       	mov    r14,QWORD PTR [rsp+0x10]
  404d1a:	48 83 7c 24 08 00    	cmp    QWORD PTR [rsp+0x8],0x0
  404d20:	0f 85 4a fe ff ff    	jne    404b70 <_Z3genP7state_tPi+0x300>
  404d26:	e9 2b 02 00 00       	jmp    404f56 <_Z3genP7state_tPi+0x6e6>
  404d2b:	49 8b 8f 30 01 00 00 	mov    rcx,QWORD PTR [r15+0x130]
  404d32:	48 8b 15 0f 3a 01 00 	mov    rdx,QWORD PTR [rip+0x13a0f]        # 418748 <FileMask+0x38>
  404d39:	48 f7 d2             	not    rdx
  404d3c:	48 21 ca             	and    rdx,rcx
  404d3f:	48 c1 e2 09          	shl    rdx,0x9
  404d43:	48 8b 05 c6 39 01 00 	mov    rax,QWORD PTR [rip+0x139c6]        # 418710 <FileMask>
  404d4a:	48 f7 d0             	not    rax
  404d4d:	48 21 c8             	and    rax,rcx
  404d50:	48 c1 e0 07          	shl    rax,0x7
  404d54:	48 09 d0             	or     rax,rdx
  404d57:	48 89 44 24 08       	mov    QWORD PTR [rsp+0x8],rax
  404d5c:	49 63 97 c8 01 00 00 	movsxd rdx,DWORD PTR [r15+0x1c8]
  404d63:	49 8b 8f 18 01 00 00 	mov    rcx,QWORD PTR [r15+0x118]
  404d6a:	48 85 d2             	test   rdx,rdx
  404d6d:	4c 8b 74 24 10       	mov    r14,QWORD PTR [rsp+0x10]
  404d72:	7e 08                	jle    404d7c <_Z3genP7state_tPi+0x50c>
  404d74:	48 0b 0c d5 10 7f 41 	or     rcx,QWORD PTR [rdx*8+0x417f10]
  404d7b:	00 
  404d7c:	48 21 c1             	and    rcx,rax
  404d7f:	48 89 4c 24 08       	mov    QWORD PTR [rsp+0x8],rcx
  404d84:	0f 84 cc 01 00 00    	je     404f56 <_Z3genP7state_tPi+0x6e6>
  404d8a:	66 0f 1f 44 00 00    	nop    WORD PTR [rax+rax*1+0x0]
  404d90:	48 8d 7c 24 08       	lea    rdi,[rsp+0x8]
  404d95:	e8 26 d9 ff ff       	call   4026c0 <_Z15FindFirstRemovePy>
  404d9a:	41 89 c5             	mov    r13d,eax
  404d9d:	41 89 c4             	mov    r12d,eax
  404da0:	41 83 e4 07          	and    r12d,0x7
  404da4:	0f 84 ce 00 00 00    	je     404e78 <_Z3genP7state_tPi+0x608>
  404daa:	49 8b 87 30 01 00 00 	mov    rax,QWORD PTR [r15+0x130]
  404db1:	4d 63 f5             	movsxd r14,r13d
  404db4:	4a 85 04 f5 c8 7e 41 	test   QWORD PTR [r14*8+0x417ec8],rax
  404dbb:	00 
  404dbc:	0f 84 a7 00 00 00    	je     404e69 <_Z3genP7state_tPi+0x5f9>
  404dc2:	41 8d 6d f7          	lea    ebp,[r13-0x9]
  404dc6:	44 89 e8             	mov    eax,r13d
  404dc9:	83 e0 f8             	and    eax,0xfffffff8
  404dcc:	83 f8 38             	cmp    eax,0x38
  404dcf:	75 64                	jne    404e35 <_Z3genP7state_tPi+0x5c5>
  404dd1:	43 8b 4c b7 04       	mov    ecx,DWORD PTR [r15+r14*4+0x4]
  404dd6:	41 b8 0a 00 00 00    	mov    r8d,0xa
  404ddc:	45 31 c9             	xor    r9d,r9d
  404ddf:	48 89 df             	mov    rdi,rbx
  404de2:	89 ee                	mov    esi,ebp
  404de4:	44 89 ea             	mov    edx,r13d
  404de7:	e8 24 fa ff ff       	call   404810 <_Z11add_capturePiiiiii>
  404dec:	43 8b 4c b7 04       	mov    ecx,DWORD PTR [r15+r14*4+0x4]
  404df1:	41 b8 08 00 00 00    	mov    r8d,0x8
  404df7:	45 31 c9             	xor    r9d,r9d
  404dfa:	48 89 c7             	mov    rdi,rax
  404dfd:	89 ee                	mov    esi,ebp
  404dff:	44 89 ea             	mov    edx,r13d
  404e02:	e8 09 fa ff ff       	call   404810 <_Z11add_capturePiiiiii>
  404e07:	43 8b 4c b7 04       	mov    ecx,DWORD PTR [r15+r14*4+0x4]
  404e0c:	41 b8 0c 00 00 00    	mov    r8d,0xc
  404e12:	45 31 c9             	xor    r9d,r9d
  404e15:	48 89 c7             	mov    rdi,rax
  404e18:	89 ee                	mov    esi,ebp
  404e1a:	44 89 ea             	mov    edx,r13d
  404e1d:	e8 ee f9 ff ff       	call   404810 <_Z11add_capturePiiiiii>
  404e22:	43 8b 4c b7 04       	mov    ecx,DWORD PTR [r15+r14*4+0x4]
  404e27:	41 b8 04 00 00 00    	mov    r8d,0x4
  404e2d:	45 31 c9             	xor    r9d,r9d
  404e30:	48 89 c7             	mov    rdi,rax
  404e33:	eb 27                	jmp    404e5c <_Z3genP7state_tPi+0x5ec>
  404e35:	45 3b af c8 01 00 00 	cmp    r13d,DWORD PTR [r15+0x1c8]
  404e3c:	75 10                	jne    404e4e <_Z3genP7state_tPi+0x5de>
  404e3e:	b9 01 00 00 00       	mov    ecx,0x1
  404e43:	45 31 c0             	xor    r8d,r8d
  404e46:	41 b9 01 00 00 00    	mov    r9d,0x1
  404e4c:	eb 0b                	jmp    404e59 <_Z3genP7state_tPi+0x5e9>
  404e4e:	43 8b 4c b7 04       	mov    ecx,DWORD PTR [r15+r14*4+0x4]
  404e53:	45 31 c0             	xor    r8d,r8d
  404e56:	45 31 c9             	xor    r9d,r9d
  404e59:	48 89 df             	mov    rdi,rbx
  404e5c:	89 ee                	mov    esi,ebp
  404e5e:	44 89 ea             	mov    edx,r13d
  404e61:	e8 aa f9 ff ff       	call   404810 <_Z11add_capturePiiiiii>
  404e66:	48 89 c3             	mov    rbx,rax
  404e69:	4c 8b 74 24 10       	mov    r14,QWORD PTR [rsp+0x10]
  404e6e:	41 83 fc 07          	cmp    r12d,0x7
  404e72:	0f 84 d2 00 00 00    	je     404f4a <_Z3genP7state_tPi+0x6da>
  404e78:	49 8b 87 30 01 00 00 	mov    rax,QWORD PTR [r15+0x130]
  404e7f:	49 63 ed             	movsxd rbp,r13d
  404e82:	48 85 04 ed d8 7e 41 	test   QWORD PTR [rbp*8+0x417ed8],rax
  404e89:	00 
  404e8a:	0f 84 ba 00 00 00    	je     404f4a <_Z3genP7state_tPi+0x6da>
  404e90:	45 8d 75 f9          	lea    r14d,[r13-0x7]
  404e94:	44 89 e8             	mov    eax,r13d
  404e97:	83 e0 f8             	and    eax,0xfffffff8
  404e9a:	83 f8 38             	cmp    eax,0x38
  404e9d:	75 71                	jne    404f10 <_Z3genP7state_tPi+0x6a0>
  404e9f:	41 8b 4c af 04       	mov    ecx,DWORD PTR [r15+rbp*4+0x4]
  404ea4:	41 b8 0a 00 00 00    	mov    r8d,0xa
  404eaa:	45 31 c9             	xor    r9d,r9d
  404ead:	48 89 df             	mov    rdi,rbx
  404eb0:	44 89 f6             	mov    esi,r14d
  404eb3:	44 89 ea             	mov    edx,r13d
  404eb6:	e8 55 f9 ff ff       	call   404810 <_Z11add_capturePiiiiii>
  404ebb:	41 8b 4c af 04       	mov    ecx,DWORD PTR [r15+rbp*4+0x4]
  404ec0:	41 b8 08 00 00 00    	mov    r8d,0x8
  404ec6:	45 31 c9             	xor    r9d,r9d
  404ec9:	48 89 c7             	mov    rdi,rax
  404ecc:	44 89 f6             	mov    esi,r14d
  404ecf:	44 89 ea             	mov    edx,r13d
  404ed2:	e8 39 f9 ff ff       	call   404810 <_Z11add_capturePiiiiii>
  404ed7:	41 8b 4c af 04       	mov    ecx,DWORD PTR [r15+rbp*4+0x4]
  404edc:	41 b8 0c 00 00 00    	mov    r8d,0xc
  404ee2:	45 31 c9             	xor    r9d,r9d
  404ee5:	48 89 c7             	mov    rdi,rax
  404ee8:	44 89 f6             	mov    esi,r14d
  404eeb:	44 89 ea             	mov    edx,r13d
  404eee:	e8 1d f9 ff ff       	call   404810 <_Z11add_capturePiiiiii>
  404ef3:	41 8b 4c af 04       	mov    ecx,DWORD PTR [r15+rbp*4+0x4]
  404ef8:	41 b8 04 00 00 00    	mov    r8d,0x4
  404efe:	45 31 c9             	xor    r9d,r9d
  404f01:	48 89 c7             	mov    rdi,rax
  404f04:	eb 31                	jmp    404f37 <_Z3genP7state_tPi+0x6c7>
  404f06:	66 2e 0f 1f 84 00 00 	cs nop WORD PTR [rax+rax*1+0x0]
  404f0d:	00 00 00 
  404f10:	45 3b af c8 01 00 00 	cmp    r13d,DWORD PTR [r15+0x1c8]
  404f17:	75 10                	jne    404f29 <_Z3genP7state_tPi+0x6b9>
  404f19:	b9 01 00 00 00       	mov    ecx,0x1
  404f1e:	45 31 c0             	xor    r8d,r8d
  404f21:	41 b9 01 00 00 00    	mov    r9d,0x1
  404f27:	eb 0b                	jmp    404f34 <_Z3genP7state_tPi+0x6c4>
  404f29:	41 8b 4c af 04       	mov    ecx,DWORD PTR [r15+rbp*4+0x4]
  404f2e:	45 31 c0             	xor    r8d,r8d
  404f31:	45 31 c9             	xor    r9d,r9d
  404f34:	48 89 df             	mov    rdi,rbx
  404f37:	44 89 f6             	mov    esi,r14d
  404f3a:	44 89 ea             	mov    edx,r13d
  404f3d:	e8 ce f8 ff ff       	call   404810 <_Z11add_capturePiiiiii>
  404f42:	48 89 c3             	mov    rbx,rax
  404f45:	4c 8b 74 24 10       	mov    r14,QWORD PTR [rsp+0x10]
  404f4a:	48 83 7c 24 08 00    	cmp    QWORD PTR [rsp+0x8],0x0
  404f50:	0f 85 3a fe ff ff    	jne    404d90 <_Z3genP7state_tPi+0x520>
  404f56:	49 f7 d6             	not    r14
  404f59:	31 c0                	xor    eax,eax
  404f5b:	41 83 bf cc 01 00 00 	cmp    DWORD PTR [r15+0x1cc],0x0
  404f62:	00 
  404f63:	0f 94 c0             	sete   al
  404f66:	49 8b 84 c7 38 01 00 	mov    rax,QWORD PTR [r15+rax*8+0x138]
  404f6d:	00 
  404f6e:	48 89 44 24 08       	mov    QWORD PTR [rsp+0x8],rax
  404f73:	48 85 c0             	test   rax,rax
  404f76:	74 6b                	je     404fe3 <_Z3genP7state_tPi+0x773>
  404f78:	4c 8d 64 24 08       	lea    r12,[rsp+0x8]
  404f7d:	4c 8d 6c 24 18       	lea    r13,[rsp+0x18]
  404f82:	66 2e 0f 1f 84 00 00 	cs nop WORD PTR [rax+rax*1+0x0]
  404f89:	00 00 00 
  404f8c:	0f 1f 40 00          	nop    DWORD PTR [rax+0x0]
  404f90:	4c 89 e7             	mov    rdi,r12
  404f93:	e8 28 d7 ff ff       	call   4026c0 <_Z15FindFirstRemovePy>
  404f98:	89 c5                	mov    ebp,eax
  404f9a:	48 98                	cdqe   
  404f9c:	48 8b 04 c5 10 51 41 	mov    rax,QWORD PTR [rax*8+0x415110]
  404fa3:	00 
  404fa4:	4c 21 f0             	and    rax,r14
  404fa7:	48 89 44 24 18       	mov    QWORD PTR [rsp+0x18],rax
  404fac:	74 2d                	je     404fdb <_Z3genP7state_tPi+0x76b>
  404fae:	66 90                	xchg   ax,ax
  404fb0:	4c 89 ef             	mov    rdi,r13
  404fb3:	e8 08 d7 ff ff       	call   4026c0 <_Z15FindFirstRemovePy>
  404fb8:	48 63 d0             	movsxd rdx,eax
  404fbb:	41 8b 4c 97 04       	mov    ecx,DWORD PTR [r15+rdx*4+0x4]
  404fc0:	45 31 c0             	xor    r8d,r8d
  404fc3:	45 31 c9             	xor    r9d,r9d
  404fc6:	48 89 df             	mov    rdi,rbx
  404fc9:	89 ee                	mov    esi,ebp
  404fcb:	e8 40 f8 ff ff       	call   404810 <_Z11add_capturePiiiiii>
  404fd0:	48 89 c3             	mov    rbx,rax
  404fd3:	48 83 7c 24 18 00    	cmp    QWORD PTR [rsp+0x18],0x0
  404fd9:	75 d5                	jne    404fb0 <_Z3genP7state_tPi+0x740>
  404fdb:	48 83 7c 24 08 00    	cmp    QWORD PTR [rsp+0x8],0x0
  404fe1:	75 ad                	jne    404f90 <_Z3genP7state_tPi+0x720>
  404fe3:	31 c0                	xor    eax,eax
  404fe5:	41 83 bf cc 01 00 00 	cmp    DWORD PTR [r15+0x1cc],0x0
  404fec:	00 
  404fed:	0f 94 c0             	sete   al
  404ff0:	49 8b 8c c7 68 01 00 	mov    rcx,QWORD PTR [r15+rax*8+0x168]
  404ff7:	00 
  404ff8:	49 0b 8c c7 78 01 00 	or     rcx,QWORD PTR [r15+rax*8+0x178]
  404fff:	00 
  405000:	48 89 4c 24 08       	mov    QWORD PTR [rsp+0x8],rcx
  405005:	74 6c                	je     405073 <_Z3genP7state_tPi+0x803>
  405007:	4c 8d 64 24 08       	lea    r12,[rsp+0x8]
  40500c:	4c 8d 6c 24 18       	lea    r13,[rsp+0x18]
  405011:	66 2e 0f 1f 84 00 00 	cs nop WORD PTR [rax+rax*1+0x0]
  405018:	00 00 00 
  40501b:	0f 1f 44 00 00       	nop    DWORD PTR [rax+rax*1+0x0]
  405020:	4c 89 e7             	mov    rdi,r12
  405023:	e8 98 d6 ff ff       	call   4026c0 <_Z15FindFirstRemovePy>
  405028:	89 c5                	mov    ebp,eax
  40502a:	4c 89 ff             	mov    rdi,r15
  40502d:	89 c6                	mov    esi,eax
  40502f:	e8 dc d5 ff ff       	call   402610 <_Z13BishopAttacksP7state_ti>
  405034:	4c 21 f0             	and    rax,r14
  405037:	48 89 44 24 18       	mov    QWORD PTR [rsp+0x18],rax
  40503c:	74 2d                	je     40506b <_Z3genP7state_tPi+0x7fb>
  40503e:	66 90                	xchg   ax,ax
  405040:	4c 89 ef             	mov    rdi,r13
  405043:	e8 78 d6 ff ff       	call   4026c0 <_Z15FindFirstRemovePy>
  405048:	48 63 d0             	movsxd rdx,eax
  40504b:	41 8b 4c 97 04       	mov    ecx,DWORD PTR [r15+rdx*4+0x4]
  405050:	45 31 c0             	xor    r8d,r8d
  405053:	45 31 c9             	xor    r9d,r9d
  405056:	48 89 df             	mov    rdi,rbx
  405059:	89 ee                	mov    esi,ebp
  40505b:	e8 b0 f7 ff ff       	call   404810 <_Z11add_capturePiiiiii>
  405060:	48 89 c3             	mov    rbx,rax
  405063:	48 83 7c 24 18 00    	cmp    QWORD PTR [rsp+0x18],0x0
  405069:	75 d5                	jne    405040 <_Z3genP7state_tPi+0x7d0>
  40506b:	48 83 7c 24 08 00    	cmp    QWORD PTR [rsp+0x8],0x0
  405071:	75 ad                	jne    405020 <_Z3genP7state_tPi+0x7b0>
  405073:	31 c0                	xor    eax,eax
  405075:	41 83 bf cc 01 00 00 	cmp    DWORD PTR [r15+0x1cc],0x0
  40507c:	00 
  40507d:	0f 94 c0             	sete   al
  405080:	49 8b 8c c7 68 01 00 	mov    rcx,QWORD PTR [r15+rax*8+0x168]
  405087:	00 
  405088:	49 0b 8c c7 58 01 00 	or     rcx,QWORD PTR [r15+rax*8+0x158]
  40508f:	00 
  405090:	48 89 4c 24 08       	mov    QWORD PTR [rsp+0x8],rcx
  405095:	74 6c                	je     405103 <_Z3genP7state_tPi+0x893>
  405097:	4c 8d 64 24 08       	lea    r12,[rsp+0x8]
  40509c:	4c 8d 6c 24 18       	lea    r13,[rsp+0x18]
  4050a1:	66 2e 0f 1f 84 00 00 	cs nop WORD PTR [rax+rax*1+0x0]
  4050a8:	00 00 00 
  4050ab:	0f 1f 44 00 00       	nop    DWORD PTR [rax+rax*1+0x0]
  4050b0:	4c 89 e7             	mov    rdi,r12
  4050b3:	e8 08 d6 ff ff       	call   4026c0 <_Z15FindFirstRemovePy>
  4050b8:	89 c5                	mov    ebp,eax
  4050ba:	4c 89 ff             	mov    rdi,r15
  4050bd:	89 c6                	mov    esi,eax
  4050bf:	e8 7c d5 ff ff       	call   402640 <_Z11RookAttacksP7state_ti>
  4050c4:	4c 21 f0             	and    rax,r14
  4050c7:	48 89 44 24 18       	mov    QWORD PTR [rsp+0x18],rax
  4050cc:	74 2d                	je     4050fb <_Z3genP7state_tPi+0x88b>
  4050ce:	66 90                	xchg   ax,ax
  4050d0:	4c 89 ef             	mov    rdi,r13
  4050d3:	e8 e8 d5 ff ff       	call   4026c0 <_Z15FindFirstRemovePy>
  4050d8:	48 63 d0             	movsxd rdx,eax
  4050db:	41 8b 4c 97 04       	mov    ecx,DWORD PTR [r15+rdx*4+0x4]
  4050e0:	45 31 c0             	xor    r8d,r8d
  4050e3:	45 31 c9             	xor    r9d,r9d
  4050e6:	48 89 df             	mov    rdi,rbx
  4050e9:	89 ee                	mov    esi,ebp
  4050eb:	e8 20 f7 ff ff       	call   404810 <_Z11add_capturePiiiiii>
  4050f0:	48 89 c3             	mov    rbx,rax
  4050f3:	48 83 7c 24 18 00    	cmp    QWORD PTR [rsp+0x18],0x0
  4050f9:	75 d5                	jne    4050d0 <_Z3genP7state_tPi+0x860>
  4050fb:	48 83 7c 24 08 00    	cmp    QWORD PTR [rsp+0x8],0x0
  405101:	75 ad                	jne    4050b0 <_Z3genP7state_tPi+0x840>
  405103:	41 83 bf cc 01 00 00 	cmp    DWORD PTR [r15+0x1cc],0x0
  40510a:	00 
  40510b:	41 8b 87 c4 01 00 00 	mov    eax,DWORD PTR [r15+0x1c4]
  405112:	74 71                	je     405185 <_Z3genP7state_tPi+0x915>
  405114:	a8 02                	test   al,0x2
  405116:	74 2d                	je     405145 <_Z3genP7state_tPi+0x8d5>
  405118:	be 01 00 00 00       	mov    esi,0x1
  40511d:	4c 89 ff             	mov    rdi,r15
  405120:	e8 5b 1a 00 00       	call   406b80 <_Z20check_castle_blockerP7state_ti>
  405125:	85 c0                	test   eax,eax
  405127:	75 1c                	jne    405145 <_Z3genP7state_tPi+0x8d5>
  405129:	41 8b b7 d0 01 00 00 	mov    esi,DWORD PTR [r15+0x1d0]
  405130:	ba 3e 00 00 00       	mov    edx,0x3e
  405135:	b9 01 00 00 00       	mov    ecx,0x1
  40513a:	48 89 df             	mov    rdi,rbx
  40513d:	e8 0e f7 ff ff       	call   404850 <_Z15add_king_castlePiiii>
  405142:	48 89 c3             	mov    rbx,rax
  405145:	41 f6 87 c4 01 00 00 	test   BYTE PTR [r15+0x1c4],0x4
  40514c:	04 
  40514d:	74 2d                	je     40517c <_Z3genP7state_tPi+0x90c>
  40514f:	be 02 00 00 00       	mov    esi,0x2
  405154:	4c 89 ff             	mov    rdi,r15
  405157:	e8 24 1a 00 00       	call   406b80 <_Z20check_castle_blockerP7state_ti>
  40515c:	85 c0                	test   eax,eax
  40515e:	75 1c                	jne    40517c <_Z3genP7state_tPi+0x90c>
  405160:	41 8b b7 d0 01 00 00 	mov    esi,DWORD PTR [r15+0x1d0]
  405167:	ba 3a 00 00 00       	mov    edx,0x3a
  40516c:	b9 02 00 00 00       	mov    ecx,0x2
  405171:	48 89 df             	mov    rdi,rbx
  405174:	e8 d7 f6 ff ff       	call   404850 <_Z15add_king_castlePiiii>
  405179:	48 89 c3             	mov    rbx,rax
  40517c:	49 8d 87 d0 01 00 00 	lea    rax,[r15+0x1d0]
  405183:	eb 6f                	jmp    4051f4 <_Z3genP7state_tPi+0x984>
  405185:	a8 08                	test   al,0x8
  405187:	74 2d                	je     4051b6 <_Z3genP7state_tPi+0x946>
  405189:	be 03 00 00 00       	mov    esi,0x3
  40518e:	4c 89 ff             	mov    rdi,r15
  405191:	e8 ea 19 00 00       	call   406b80 <_Z20check_castle_blockerP7state_ti>
  405196:	85 c0                	test   eax,eax
  405198:	75 1c                	jne    4051b6 <_Z3genP7state_tPi+0x946>
  40519a:	41 8b b7 d4 01 00 00 	mov    esi,DWORD PTR [r15+0x1d4]
  4051a1:	ba 06 00 00 00       	mov    edx,0x6
  4051a6:	b9 03 00 00 00       	mov    ecx,0x3
  4051ab:	48 89 df             	mov    rdi,rbx
  4051ae:	e8 9d f6 ff ff       	call   404850 <_Z15add_king_castlePiiii>
  4051b3:	48 89 c3             	mov    rbx,rax
  4051b6:	41 f6 87 c4 01 00 00 	test   BYTE PTR [r15+0x1c4],0x10
  4051bd:	10 
  4051be:	74 2d                	je     4051ed <_Z3genP7state_tPi+0x97d>
  4051c0:	be 04 00 00 00       	mov    esi,0x4
  4051c5:	4c 89 ff             	mov    rdi,r15
  4051c8:	e8 b3 19 00 00       	call   406b80 <_Z20check_castle_blockerP7state_ti>
  4051cd:	85 c0                	test   eax,eax
  4051cf:	75 1c                	jne    4051ed <_Z3genP7state_tPi+0x97d>
  4051d1:	41 8b b7 d4 01 00 00 	mov    esi,DWORD PTR [r15+0x1d4]
  4051d8:	ba 02 00 00 00       	mov    edx,0x2
  4051dd:	b9 04 00 00 00       	mov    ecx,0x4
  4051e2:	48 89 df             	mov    rdi,rbx
  4051e5:	e8 66 f6 ff ff       	call   404850 <_Z15add_king_castlePiiii>
  4051ea:	48 89 c3             	mov    rbx,rax
  4051ed:	49 8d 87 d4 01 00 00 	lea    rax,[r15+0x1d4]
  4051f4:	48 63 28             	movsxd rbp,DWORD PTR [rax]
  4051f7:	4c 23 34 ed 10 53 41 	and    r14,QWORD PTR [rbp*8+0x415310]
  4051fe:	00 
  4051ff:	4c 89 74 24 08       	mov    QWORD PTR [rsp+0x8],r14
  405204:	74 35                	je     40523b <_Z3genP7state_tPi+0x9cb>
  405206:	4c 8d 64 24 08       	lea    r12,[rsp+0x8]
  40520b:	0f 1f 44 00 00       	nop    DWORD PTR [rax+rax*1+0x0]
  405210:	4c 89 e7             	mov    rdi,r12
  405213:	e8 a8 d4 ff ff       	call   4026c0 <_Z15FindFirstRemovePy>
  405218:	48 63 d0             	movsxd rdx,eax
  40521b:	41 8b 4c 97 04       	mov    ecx,DWORD PTR [r15+rdx*4+0x4]
  405220:	45 31 c0             	xor    r8d,r8d
  405223:	45 31 c9             	xor    r9d,r9d
  405226:	48 89 df             	mov    rdi,rbx
  405229:	89 ee                	mov    esi,ebp
  40522b:	e8 e0 f5 ff ff       	call   404810 <_Z11add_capturePiiiiii>
  405230:	48 89 c3             	mov    rbx,rax
  405233:	48 83 7c 24 08 00    	cmp    QWORD PTR [rsp+0x8],0x0
  405239:	75 d5                	jne    405210 <_Z3genP7state_tPi+0x9a0>
  40523b:	48 2b 5c 24 20       	sub    rbx,QWORD PTR [rsp+0x20]
  405240:	48 c1 eb 02          	shr    rbx,0x2
  405244:	89 d8                	mov    eax,ebx
  405246:	48 83 c4 28          	add    rsp,0x28
  40524a:	5b                   	pop    rbx
  40524b:	41 5c                	pop    r12
  40524d:	41 5d                	pop    r13
  40524f:	41 5e                	pop    r14
  405251:	41 5f                	pop    r15
  405253:	5d                   	pop    rbp
  405254:	c3                   	ret    
  405255:	66 2e 0f 1f 84 00 00 	cs nop WORD PTR [rax+rax*1+0x0]
  40525c:	00 00 00 
  40525f:	90                   	nop

0000000000405260 <_Z12gen_capturesP7state_tPi>:
  405260:	55                   	push   rbp
  405261:	41 57                	push   r15
  405263:	41 56                	push   r14
  405265:	41 55                	push   r13
  405267:	41 54                	push   r12
  405269:	53                   	push   rbx
  40526a:	48 83 ec 18          	sub    rsp,0x18
  40526e:	49 89 f4             	mov    r12,rsi
  405271:	49 89 ff             	mov    r15,rdi
  405274:	83 bf cc 01 00 00 00 	cmp    DWORD PTR [rdi+0x1cc],0x0
  40527b:	48 89 74 24 10       	mov    QWORD PTR [rsp+0x10],rsi
  405280:	0f 84 ac 01 00 00    	je     405432 <_Z12gen_capturesP7state_tPi+0x1d2>
  405286:	49 8b 87 08 01 00 00 	mov    rax,QWORD PTR [r15+0x108]
  40528d:	4d 8b b7 10 01 00 00 	mov    r14,QWORD PTR [r15+0x110]
  405294:	48 8b 0d bd 34 01 00 	mov    rcx,QWORD PTR [rip+0x134bd]        # 418758 <RankMask+0x8>
  40529b:	49 23 8f 28 01 00 00 	and    rcx,QWORD PTR [r15+0x128]
  4052a2:	48 c1 e9 08          	shr    rcx,0x8
  4052a6:	48 f7 d0             	not    rax
  4052a9:	4c 89 e3             	mov    rbx,r12
  4052ac:	48 21 c8             	and    rax,rcx
  4052af:	48 89 04 24          	mov    QWORD PTR [rsp],rax
  4052b3:	74 38                	je     4052ed <_Z12gen_capturesP7state_tPi+0x8d>
  4052b5:	48 89 e5             	mov    rbp,rsp
  4052b8:	4c 89 e3             	mov    rbx,r12
  4052bb:	0f 1f 44 00 00       	nop    DWORD PTR [rax+rax*1+0x0]
  4052c0:	48 89 ef             	mov    rdi,rbp
  4052c3:	e8 f8 d3 ff ff       	call   4026c0 <_Z15FindFirstRemovePy>
  4052c8:	8d 70 08             	lea    esi,[rax+0x8]
  4052cb:	b9 0d 00 00 00       	mov    ecx,0xd
  4052d0:	41 b8 09 00 00 00    	mov    r8d,0x9
  4052d6:	45 31 c9             	xor    r9d,r9d
  4052d9:	48 89 df             	mov    rdi,rbx
  4052dc:	89 c2                	mov    edx,eax
  4052de:	e8 2d f5 ff ff       	call   404810 <_Z11add_capturePiiiiii>
  4052e3:	48 89 c3             	mov    rbx,rax
  4052e6:	48 83 3c 24 00       	cmp    QWORD PTR [rsp],0x0
  4052eb:	75 d3                	jne    4052c0 <_Z12gen_capturesP7state_tPi+0x60>
  4052ed:	49 8b 8f 28 01 00 00 	mov    rcx,QWORD PTR [r15+0x128]
  4052f4:	48 8b 15 4d 34 01 00 	mov    rdx,QWORD PTR [rip+0x1344d]        # 418748 <FileMask+0x38>
  4052fb:	48 f7 d2             	not    rdx
  4052fe:	48 21 ca             	and    rdx,rcx
  405301:	48 c1 ea 07          	shr    rdx,0x7
  405305:	48 8b 05 04 34 01 00 	mov    rax,QWORD PTR [rip+0x13404]        # 418710 <FileMask>
  40530c:	48 f7 d0             	not    rax
  40530f:	48 21 c8             	and    rax,rcx
  405312:	48 c1 e8 09          	shr    rax,0x9
  405316:	48 09 d0             	or     rax,rdx
  405319:	48 89 04 24          	mov    QWORD PTR [rsp],rax
  40531d:	49 63 97 c8 01 00 00 	movsxd rdx,DWORD PTR [r15+0x1c8]
  405324:	4c 89 f1             	mov    rcx,r14
  405327:	48 85 d2             	test   rdx,rdx
  40532a:	7e 0b                	jle    405337 <_Z12gen_capturesP7state_tPi+0xd7>
  40532c:	48 8b 0c d5 10 7f 41 	mov    rcx,QWORD PTR [rdx*8+0x417f10]
  405333:	00 
  405334:	4c 09 f1             	or     rcx,r14
  405337:	48 21 c1             	and    rcx,rax
  40533a:	48 89 0c 24          	mov    QWORD PTR [rsp],rcx
  40533e:	0f 84 a9 02 00 00    	je     4055ed <_Z12gen_capturesP7state_tPi+0x38d>
  405344:	49 89 e4             	mov    r12,rsp
  405347:	66 0f 1f 84 00 00 00 	nop    WORD PTR [rax+rax*1+0x0]
  40534e:	00 00 
  405350:	4c 89 e7             	mov    rdi,r12
  405353:	e8 68 d3 ff ff       	call   4026c0 <_Z15FindFirstRemovePy>
  405358:	41 89 c5             	mov    r13d,eax
  40535b:	89 c5                	mov    ebp,eax
  40535d:	83 e5 07             	and    ebp,0x7
  405360:	74 62                	je     4053c4 <_Z12gen_capturesP7state_tPi+0x164>
  405362:	49 8b 8f 28 01 00 00 	mov    rcx,QWORD PTR [r15+0x128]
  405369:	49 63 c5             	movsxd rax,r13d
  40536c:	48 85 0c c5 48 7f 41 	test   QWORD PTR [rax*8+0x417f48],rcx
  405373:	00 
  405374:	74 49                	je     4053bf <_Z12gen_capturesP7state_tPi+0x15f>
  405376:	41 8d 75 07          	lea    esi,[r13+0x7]
  40537a:	41 83 fd 07          	cmp    r13d,0x7
  40537e:	77 0d                	ja     40538d <_Z12gen_capturesP7state_tPi+0x12d>
  405380:	41 8b 4c 87 04       	mov    ecx,DWORD PTR [r15+rax*4+0x4]
  405385:	41 b8 09 00 00 00    	mov    r8d,0x9
  40538b:	eb 21                	jmp    4053ae <_Z12gen_capturesP7state_tPi+0x14e>
  40538d:	45 3b af c8 01 00 00 	cmp    r13d,DWORD PTR [r15+0x1c8]
  405394:	75 10                	jne    4053a6 <_Z12gen_capturesP7state_tPi+0x146>
  405396:	b9 02 00 00 00       	mov    ecx,0x2
  40539b:	45 31 c0             	xor    r8d,r8d
  40539e:	41 b9 01 00 00 00    	mov    r9d,0x1
  4053a4:	eb 0b                	jmp    4053b1 <_Z12gen_capturesP7state_tPi+0x151>
  4053a6:	41 8b 4c 87 04       	mov    ecx,DWORD PTR [r15+rax*4+0x4]
  4053ab:	45 31 c0             	xor    r8d,r8d
  4053ae:	45 31 c9             	xor    r9d,r9d
  4053b1:	48 89 df             	mov    rdi,rbx
  4053b4:	44 89 ea             	mov    edx,r13d
  4053b7:	e8 54 f4 ff ff       	call   404810 <_Z11add_capturePiiiiii>
  4053bc:	48 89 c3             	mov    rbx,rax
  4053bf:	83 fd 07             	cmp    ebp,0x7
  4053c2:	74 5e                	je     405422 <_Z12gen_capturesP7state_tPi+0x1c2>
  4053c4:	49 8b 8f 28 01 00 00 	mov    rcx,QWORD PTR [r15+0x128]
  4053cb:	49 63 c5             	movsxd rax,r13d
  4053ce:	48 85 0c c5 58 7f 41 	test   QWORD PTR [rax*8+0x417f58],rcx
  4053d5:	00 
  4053d6:	74 4a                	je     405422 <_Z12gen_capturesP7state_tPi+0x1c2>
  4053d8:	41 8d 75 09          	lea    esi,[r13+0x9]
  4053dc:	41 83 fd 07          	cmp    r13d,0x7
  4053e0:	77 0e                	ja     4053f0 <_Z12gen_capturesP7state_tPi+0x190>
  4053e2:	41 8b 4c 87 04       	mov    ecx,DWORD PTR [r15+rax*4+0x4]
  4053e7:	41 b8 09 00 00 00    	mov    r8d,0x9
  4053ed:	eb 22                	jmp    405411 <_Z12gen_capturesP7state_tPi+0x1b1>
  4053ef:	90                   	nop
  4053f0:	45 3b af c8 01 00 00 	cmp    r13d,DWORD PTR [r15+0x1c8]
  4053f7:	75 10                	jne    405409 <_Z12gen_capturesP7state_tPi+0x1a9>
  4053f9:	b9 02 00 00 00       	mov    ecx,0x2
  4053fe:	45 31 c0             	xor    r8d,r8d
  405401:	41 b9 01 00 00 00    	mov    r9d,0x1
  405407:	eb 0b                	jmp    405414 <_Z12gen_capturesP7state_tPi+0x1b4>
  405409:	41 8b 4c 87 04       	mov    ecx,DWORD PTR [r15+rax*4+0x4]
  40540e:	45 31 c0             	xor    r8d,r8d
  405411:	45 31 c9             	xor    r9d,r9d
  405414:	48 89 df             	mov    rdi,rbx
  405417:	44 89 ea             	mov    edx,r13d
  40541a:	e8 f1 f3 ff ff       	call   404810 <_Z11add_capturePiiiiii>
  40541f:	48 89 c3             	mov    rbx,rax
  405422:	48 83 3c 24 00       	cmp    QWORD PTR [rsp],0x0
  405427:	0f 85 23 ff ff ff    	jne    405350 <_Z12gen_capturesP7state_tPi+0xf0>
  40542d:	e9 bb 01 00 00       	jmp    4055ed <_Z12gen_capturesP7state_tPi+0x38d>
  405432:	49 8b 87 08 01 00 00 	mov    rax,QWORD PTR [r15+0x108]
  405439:	4d 8b b7 18 01 00 00 	mov    r14,QWORD PTR [r15+0x118]
  405440:	48 8b 0d 39 33 01 00 	mov    rcx,QWORD PTR [rip+0x13339]        # 418780 <RankMask+0x30>
  405447:	49 23 8f 30 01 00 00 	and    rcx,QWORD PTR [r15+0x130]
  40544e:	48 c1 e1 08          	shl    rcx,0x8
  405452:	48 f7 d0             	not    rax
  405455:	4c 89 e3             	mov    rbx,r12
  405458:	48 21 c8             	and    rax,rcx
  40545b:	48 89 04 24          	mov    QWORD PTR [rsp],rax
  40545f:	74 3c                	je     40549d <_Z12gen_capturesP7state_tPi+0x23d>
  405461:	48 89 e5             	mov    rbp,rsp
  405464:	4c 89 e3             	mov    rbx,r12
  405467:	66 0f 1f 84 00 00 00 	nop    WORD PTR [rax+rax*1+0x0]
  40546e:	00 00 
  405470:	48 89 ef             	mov    rdi,rbp
  405473:	e8 48 d2 ff ff       	call   4026c0 <_Z15FindFirstRemovePy>
  405478:	8d 70 f8             	lea    esi,[rax-0x8]
  40547b:	b9 0d 00 00 00       	mov    ecx,0xd
  405480:	41 b8 0a 00 00 00    	mov    r8d,0xa
  405486:	45 31 c9             	xor    r9d,r9d
  405489:	48 89 df             	mov    rdi,rbx
  40548c:	89 c2                	mov    edx,eax
  40548e:	e8 7d f3 ff ff       	call   404810 <_Z11add_capturePiiiiii>
  405493:	48 89 c3             	mov    rbx,rax
  405496:	48 83 3c 24 00       	cmp    QWORD PTR [rsp],0x0
  40549b:	75 d3                	jne    405470 <_Z12gen_capturesP7state_tPi+0x210>
  40549d:	49 8b 8f 30 01 00 00 	mov    rcx,QWORD PTR [r15+0x130]
  4054a4:	48 8b 15 9d 32 01 00 	mov    rdx,QWORD PTR [rip+0x1329d]        # 418748 <FileMask+0x38>
  4054ab:	48 f7 d2             	not    rdx
  4054ae:	48 21 ca             	and    rdx,rcx
  4054b1:	48 c1 e2 09          	shl    rdx,0x9
  4054b5:	48 8b 05 54 32 01 00 	mov    rax,QWORD PTR [rip+0x13254]        # 418710 <FileMask>
  4054bc:	48 f7 d0             	not    rax
  4054bf:	48 21 c8             	and    rax,rcx
  4054c2:	48 c1 e0 07          	shl    rax,0x7
  4054c6:	48 09 d0             	or     rax,rdx
  4054c9:	48 89 04 24          	mov    QWORD PTR [rsp],rax
  4054cd:	49 63 97 c8 01 00 00 	movsxd rdx,DWORD PTR [r15+0x1c8]
  4054d4:	4c 89 f1             	mov    rcx,r14
  4054d7:	48 85 d2             	test   rdx,rdx
  4054da:	7e 0b                	jle    4054e7 <_Z12gen_capturesP7state_tPi+0x287>
  4054dc:	48 8b 0c d5 10 7f 41 	mov    rcx,QWORD PTR [rdx*8+0x417f10]
  4054e3:	00 
  4054e4:	4c 09 f1             	or     rcx,r14
  4054e7:	48 21 c1             	and    rcx,rax
  4054ea:	48 89 0c 24          	mov    QWORD PTR [rsp],rcx
  4054ee:	0f 84 f9 00 00 00    	je     4055ed <_Z12gen_capturesP7state_tPi+0x38d>
  4054f4:	49 89 e4             	mov    r12,rsp
  4054f7:	66 0f 1f 84 00 00 00 	nop    WORD PTR [rax+rax*1+0x0]
  4054fe:	00 00 
  405500:	4c 89 e7             	mov    rdi,r12
  405503:	e8 b8 d1 ff ff       	call   4026c0 <_Z15FindFirstRemovePy>
  405508:	41 89 c5             	mov    r13d,eax
  40550b:	89 c5                	mov    ebp,eax
  40550d:	83 e5 07             	and    ebp,0x7
  405510:	74 67                	je     405579 <_Z12gen_capturesP7state_tPi+0x319>
  405512:	49 8b 8f 30 01 00 00 	mov    rcx,QWORD PTR [r15+0x130]
  405519:	49 63 c5             	movsxd rax,r13d
  40551c:	48 85 0c c5 c8 7e 41 	test   QWORD PTR [rax*8+0x417ec8],rcx
  405523:	00 
  405524:	74 4e                	je     405574 <_Z12gen_capturesP7state_tPi+0x314>
  405526:	41 8d 75 f7          	lea    esi,[r13-0x9]
  40552a:	44 89 e9             	mov    ecx,r13d
  40552d:	83 e1 f8             	and    ecx,0xfffffff8
  405530:	83 f9 38             	cmp    ecx,0x38
  405533:	75 0d                	jne    405542 <_Z12gen_capturesP7state_tPi+0x2e2>
  405535:	41 8b 4c 87 04       	mov    ecx,DWORD PTR [r15+rax*4+0x4]
  40553a:	41 b8 0a 00 00 00    	mov    r8d,0xa
  405540:	eb 21                	jmp    405563 <_Z12gen_capturesP7state_tPi+0x303>
  405542:	45 3b af c8 01 00 00 	cmp    r13d,DWORD PTR [r15+0x1c8]
  405549:	75 10                	jne    40555b <_Z12gen_capturesP7state_tPi+0x2fb>
  40554b:	b9 01 00 00 00       	mov    ecx,0x1
  405550:	45 31 c0             	xor    r8d,r8d
  405553:	41 b9 01 00 00 00    	mov    r9d,0x1
  405559:	eb 0b                	jmp    405566 <_Z12gen_capturesP7state_tPi+0x306>
  40555b:	41 8b 4c 87 04       	mov    ecx,DWORD PTR [r15+rax*4+0x4]
  405560:	45 31 c0             	xor    r8d,r8d
  405563:	45 31 c9             	xor    r9d,r9d
  405566:	48 89 df             	mov    rdi,rbx
  405569:	44 89 ea             	mov    edx,r13d
  40556c:	e8 9f f2 ff ff       	call   404810 <_Z11add_capturePiiiiii>
  405571:	48 89 c3             	mov    rbx,rax
  405574:	83 fd 07             	cmp    ebp,0x7
  405577:	74 69                	je     4055e2 <_Z12gen_capturesP7state_tPi+0x382>
  405579:	49 8b 8f 30 01 00 00 	mov    rcx,QWORD PTR [r15+0x130]
  405580:	49 63 c5             	movsxd rax,r13d
  405583:	48 85 0c c5 d8 7e 41 	test   QWORD PTR [rax*8+0x417ed8],rcx
  40558a:	00 
  40558b:	74 55                	je     4055e2 <_Z12gen_capturesP7state_tPi+0x382>
  40558d:	41 8d 75 f9          	lea    esi,[r13-0x7]
  405591:	44 89 e9             	mov    ecx,r13d
  405594:	83 e1 f8             	and    ecx,0xfffffff8
  405597:	83 f9 38             	cmp    ecx,0x38
  40559a:	75 14                	jne    4055b0 <_Z12gen_capturesP7state_tPi+0x350>
  40559c:	41 8b 4c 87 04       	mov    ecx,DWORD PTR [r15+rax*4+0x4]
  4055a1:	41 b8 0a 00 00 00    	mov    r8d,0xa
  4055a7:	eb 28                	jmp    4055d1 <_Z12gen_capturesP7state_tPi+0x371>
  4055a9:	0f 1f 80 00 00 00 00 	nop    DWORD PTR [rax+0x0]
  4055b0:	45 3b af c8 01 00 00 	cmp    r13d,DWORD PTR [r15+0x1c8]
  4055b7:	75 10                	jne    4055c9 <_Z12gen_capturesP7state_tPi+0x369>
  4055b9:	b9 01 00 00 00       	mov    ecx,0x1
  4055be:	45 31 c0             	xor    r8d,r8d
  4055c1:	41 b9 01 00 00 00    	mov    r9d,0x1
  4055c7:	eb 0b                	jmp    4055d4 <_Z12gen_capturesP7state_tPi+0x374>
  4055c9:	41 8b 4c 87 04       	mov    ecx,DWORD PTR [r15+rax*4+0x4]
  4055ce:	45 31 c0             	xor    r8d,r8d
  4055d1:	45 31 c9             	xor    r9d,r9d
  4055d4:	48 89 df             	mov    rdi,rbx
  4055d7:	44 89 ea             	mov    edx,r13d
  4055da:	e8 31 f2 ff ff       	call   404810 <_Z11add_capturePiiiiii>
  4055df:	48 89 c3             	mov    rbx,rax
  4055e2:	48 83 3c 24 00       	cmp    QWORD PTR [rsp],0x0
  4055e7:	0f 85 13 ff ff ff    	jne    405500 <_Z12gen_capturesP7state_tPi+0x2a0>
  4055ed:	31 c0                	xor    eax,eax
  4055ef:	41 83 bf cc 01 00 00 	cmp    DWORD PTR [r15+0x1cc],0x0
  4055f6:	00 
  4055f7:	0f 94 c0             	sete   al
  4055fa:	49 63 ac 87 d0 01 00 	movsxd rbp,DWORD PTR [r15+rax*4+0x1d0]
  405601:	00 
  405602:	48 8b 04 ed 10 53 41 	mov    rax,QWORD PTR [rbp*8+0x415310]
  405609:	00 
  40560a:	4c 21 f0             	and    rax,r14
  40560d:	48 89 04 24          	mov    QWORD PTR [rsp],rax
  405611:	74 37                	je     40564a <_Z12gen_capturesP7state_tPi+0x3ea>
  405613:	49 89 e4             	mov    r12,rsp
  405616:	66 2e 0f 1f 84 00 00 	cs nop WORD PTR [rax+rax*1+0x0]
  40561d:	00 00 00 
  405620:	4c 89 e7             	mov    rdi,r12
  405623:	e8 98 d0 ff ff       	call   4026c0 <_Z15FindFirstRemovePy>
  405628:	48 63 d0             	movsxd rdx,eax
  40562b:	41 8b 4c 97 04       	mov    ecx,DWORD PTR [r15+rdx*4+0x4]
  405630:	45 31 c0             	xor    r8d,r8d
  405633:	45 31 c9             	xor    r9d,r9d
  405636:	48 89 df             	mov    rdi,rbx
  405639:	89 ee                	mov    esi,ebp
  40563b:	e8 d0 f1 ff ff       	call   404810 <_Z11add_capturePiiiiii>
  405640:	48 89 c3             	mov    rbx,rax
  405643:	48 83 3c 24 00       	cmp    QWORD PTR [rsp],0x0
  405648:	75 d6                	jne    405620 <_Z12gen_capturesP7state_tPi+0x3c0>
  40564a:	31 c0                	xor    eax,eax
  40564c:	41 83 bf cc 01 00 00 	cmp    DWORD PTR [r15+0x1cc],0x0
  405653:	00 
  405654:	0f 94 c0             	sete   al
  405657:	49 8b 84 c7 38 01 00 	mov    rax,QWORD PTR [r15+rax*8+0x138]
  40565e:	00 
  40565f:	48 89 04 24          	mov    QWORD PTR [rsp],rax
  405663:	48 85 c0             	test   rax,rax
  405666:	74 5a                	je     4056c2 <_Z12gen_capturesP7state_tPi+0x462>
  405668:	49 89 e4             	mov    r12,rsp
  40566b:	4c 8d 6c 24 08       	lea    r13,[rsp+0x8]
  405670:	4c 89 e7             	mov    rdi,r12
  405673:	e8 48 d0 ff ff       	call   4026c0 <_Z15FindFirstRemovePy>
  405678:	89 c5                	mov    ebp,eax
  40567a:	48 98                	cdqe   
  40567c:	48 8b 04 c5 10 51 41 	mov    rax,QWORD PTR [rax*8+0x415110]
  405683:	00 
  405684:	4c 21 f0             	and    rax,r14
  405687:	48 89 44 24 08       	mov    QWORD PTR [rsp+0x8],rax
  40568c:	74 2d                	je     4056bb <_Z12gen_capturesP7state_tPi+0x45b>
  40568e:	66 90                	xchg   ax,ax
  405690:	4c 89 ef             	mov    rdi,r13
  405693:	e8 28 d0 ff ff       	call   4026c0 <_Z15FindFirstRemovePy>
  405698:	48 63 d0             	movsxd rdx,eax
  40569b:	41 8b 4c 97 04       	mov    ecx,DWORD PTR [r15+rdx*4+0x4]
  4056a0:	45 31 c0             	xor    r8d,r8d
  4056a3:	45 31 c9             	xor    r9d,r9d
  4056a6:	48 89 df             	mov    rdi,rbx
  4056a9:	89 ee                	mov    esi,ebp
  4056ab:	e8 60 f1 ff ff       	call   404810 <_Z11add_capturePiiiiii>
  4056b0:	48 89 c3             	mov    rbx,rax
  4056b3:	48 83 7c 24 08 00    	cmp    QWORD PTR [rsp+0x8],0x0
  4056b9:	75 d5                	jne    405690 <_Z12gen_capturesP7state_tPi+0x430>
  4056bb:	48 83 3c 24 00       	cmp    QWORD PTR [rsp],0x0
  4056c0:	75 ae                	jne    405670 <_Z12gen_capturesP7state_tPi+0x410>
  4056c2:	31 c0                	xor    eax,eax
  4056c4:	41 83 bf cc 01 00 00 	cmp    DWORD PTR [r15+0x1cc],0x0
  4056cb:	00 
  4056cc:	0f 94 c0             	sete   al
  4056cf:	49 8b 8c c7 68 01 00 	mov    rcx,QWORD PTR [r15+rax*8+0x168]
  4056d6:	00 
  4056d7:	49 0b 8c c7 58 01 00 	or     rcx,QWORD PTR [r15+rax*8+0x158]
  4056de:	00 
  4056df:	48 89 0c 24          	mov    QWORD PTR [rsp],rcx
  4056e3:	74 5d                	je     405742 <_Z12gen_capturesP7state_tPi+0x4e2>
  4056e5:	49 89 e4             	mov    r12,rsp
  4056e8:	4c 8d 6c 24 08       	lea    r13,[rsp+0x8]
  4056ed:	0f 1f 00             	nop    DWORD PTR [rax]
  4056f0:	4c 89 e7             	mov    rdi,r12
  4056f3:	e8 c8 cf ff ff       	call   4026c0 <_Z15FindFirstRemovePy>
  4056f8:	89 c5                	mov    ebp,eax
  4056fa:	4c 89 ff             	mov    rdi,r15
  4056fd:	89 c6                	mov    esi,eax
  4056ff:	e8 3c cf ff ff       	call   402640 <_Z11RookAttacksP7state_ti>
  405704:	4c 21 f0             	and    rax,r14
  405707:	48 89 44 24 08       	mov    QWORD PTR [rsp+0x8],rax
  40570c:	74 2d                	je     40573b <_Z12gen_capturesP7state_tPi+0x4db>
  40570e:	66 90                	xchg   ax,ax
  405710:	4c 89 ef             	mov    rdi,r13
  405713:	e8 a8 cf ff ff       	call   4026c0 <_Z15FindFirstRemovePy>
  405718:	48 63 d0             	movsxd rdx,eax
  40571b:	41 8b 4c 97 04       	mov    ecx,DWORD PTR [r15+rdx*4+0x4]
  405720:	45 31 c0             	xor    r8d,r8d
  405723:	45 31 c9             	xor    r9d,r9d
  405726:	48 89 df             	mov    rdi,rbx
  405729:	89 ee                	mov    esi,ebp
  40572b:	e8 e0 f0 ff ff       	call   404810 <_Z11add_capturePiiiiii>
  405730:	48 89 c3             	mov    rbx,rax
  405733:	48 83 7c 24 08 00    	cmp    QWORD PTR [rsp+0x8],0x0
  405739:	75 d5                	jne    405710 <_Z12gen_capturesP7state_tPi+0x4b0>
  40573b:	48 83 3c 24 00       	cmp    QWORD PTR [rsp],0x0
  405740:	75 ae                	jne    4056f0 <_Z12gen_capturesP7state_tPi+0x490>
  405742:	31 c0                	xor    eax,eax
  405744:	41 83 bf cc 01 00 00 	cmp    DWORD PTR [r15+0x1cc],0x0
  40574b:	00 
  40574c:	0f 94 c0             	sete   al
  40574f:	49 8b 8c c7 68 01 00 	mov    rcx,QWORD PTR [r15+rax*8+0x168]
  405756:	00 
  405757:	49 0b 8c c7 78 01 00 	or     rcx,QWORD PTR [r15+rax*8+0x178]
  40575e:	00 
  40575f:	48 89 0c 24          	mov    QWORD PTR [rsp],rcx
  405763:	74 5d                	je     4057c2 <_Z12gen_capturesP7state_tPi+0x562>
  405765:	49 89 e4             	mov    r12,rsp
  405768:	4c 8d 6c 24 08       	lea    r13,[rsp+0x8]
  40576d:	0f 1f 00             	nop    DWORD PTR [rax]
  405770:	4c 89 e7             	mov    rdi,r12
  405773:	e8 48 cf ff ff       	call   4026c0 <_Z15FindFirstRemovePy>
  405778:	89 c5                	mov    ebp,eax
  40577a:	4c 89 ff             	mov    rdi,r15
  40577d:	89 c6                	mov    esi,eax
  40577f:	e8 8c ce ff ff       	call   402610 <_Z13BishopAttacksP7state_ti>
  405784:	4c 21 f0             	and    rax,r14
  405787:	48 89 44 24 08       	mov    QWORD PTR [rsp+0x8],rax
  40578c:	74 2d                	je     4057bb <_Z12gen_capturesP7state_tPi+0x55b>
  40578e:	66 90                	xchg   ax,ax
  405790:	4c 89 ef             	mov    rdi,r13
  405793:	e8 28 cf ff ff       	call   4026c0 <_Z15FindFirstRemovePy>
  405798:	48 63 d0             	movsxd rdx,eax
  40579b:	41 8b 4c 97 04       	mov    ecx,DWORD PTR [r15+rdx*4+0x4]
  4057a0:	45 31 c0             	xor    r8d,r8d
  4057a3:	45 31 c9             	xor    r9d,r9d
  4057a6:	48 89 df             	mov    rdi,rbx
  4057a9:	89 ee                	mov    esi,ebp
  4057ab:	e8 60 f0 ff ff       	call   404810 <_Z11add_capturePiiiiii>
  4057b0:	48 89 c3             	mov    rbx,rax
  4057b3:	48 83 7c 24 08 00    	cmp    QWORD PTR [rsp+0x8],0x0
  4057b9:	75 d5                	jne    405790 <_Z12gen_capturesP7state_tPi+0x530>
  4057bb:	48 83 3c 24 00       	cmp    QWORD PTR [rsp],0x0
  4057c0:	75 ae                	jne    405770 <_Z12gen_capturesP7state_tPi+0x510>
  4057c2:	48 2b 5c 24 10       	sub    rbx,QWORD PTR [rsp+0x10]
  4057c7:	48 c1 eb 02          	shr    rbx,0x2
  4057cb:	89 d8                	mov    eax,ebx
  4057cd:	48 83 c4 18          	add    rsp,0x18
  4057d1:	5b                   	pop    rbx
  4057d2:	41 5c                	pop    r12
  4057d4:	41 5d                	pop    r13
  4057d6:	41 5e                	pop    r14
  4057d8:	41 5f                	pop    r15
  4057da:	5d                   	pop    rbp
  4057db:	c3                   	ret    
  4057dc:	0f 1f 40 00          	nop    DWORD PTR [rax+0x0]

00000000004057e0 <_Z15gen_good_checksP7state_tPi>:
  4057e0:	55                   	push   rbp
  4057e1:	41 57                	push   r15
  4057e3:	41 56                	push   r14
  4057e5:	41 55                	push   r13
  4057e7:	41 54                	push   r12
  4057e9:	53                   	push   rbx
  4057ea:	48 83 ec 38          	sub    rsp,0x38
  4057ee:	48 89 f3             	mov    rbx,rsi
  4057f1:	49 89 ff             	mov    r15,rdi
  4057f4:	31 c0                	xor    eax,eax
  4057f6:	31 c9                	xor    ecx,ecx
  4057f8:	83 bf cc 01 00 00 00 	cmp    DWORD PTR [rdi+0x1cc],0x0
  4057ff:	0f 94 c0             	sete   al
  405802:	0f 95 c1             	setne  cl
  405805:	4c 8b b4 cf 10 01 00 	mov    r14,QWORD PTR [rdi+rcx*8+0x110]
  40580c:	00 
  40580d:	48 63 94 8f d0 01 00 	movsxd rdx,DWORD PTR [rdi+rcx*4+0x1d0]
  405814:	00 
  405815:	49 f7 d6             	not    r14
  405818:	48 8b 0c d5 90 8a 41 	mov    rcx,QWORD PTR [rdx*8+0x418a90]
  40581f:	00 
  405820:	4c 21 f1             	and    rcx,r14
  405823:	48 89 4c 24 30       	mov    QWORD PTR [rsp+0x30],rcx
  405828:	48 8b 0c d5 90 88 41 	mov    rcx,QWORD PTR [rdx*8+0x418890]
  40582f:	00 
  405830:	4c 21 f1             	and    rcx,r14
  405833:	48 89 4c 24 28       	mov    QWORD PTR [rsp+0x28],rcx
  405838:	48 89 54 24 20       	mov    QWORD PTR [rsp+0x20],rdx
  40583d:	4c 8b 24 d5 10 7f 41 	mov    r12,QWORD PTR [rdx*8+0x417f10]
  405844:	00 
  405845:	48 8b 84 c7 38 01 00 	mov    rax,QWORD PTR [rdi+rax*8+0x138]
  40584c:	00 
  40584d:	48 89 44 24 08       	mov    QWORD PTR [rsp+0x8],rax
  405852:	48 89 74 24 18       	mov    QWORD PTR [rsp+0x18],rsi
  405857:	48 85 c0             	test   rax,rax
  40585a:	74 77                	je     4058d3 <_Z15gen_good_checksP7state_tPi+0xf3>
  40585c:	4c 8d 6c 24 10       	lea    r13,[rsp+0x10]
  405861:	48 8b 5c 24 18       	mov    rbx,QWORD PTR [rsp+0x18]
  405866:	66 2e 0f 1f 84 00 00 	cs nop WORD PTR [rax+rax*1+0x0]
  40586d:	00 00 00 
  405870:	48 8d 7c 24 08       	lea    rdi,[rsp+0x8]
  405875:	e8 46 ce ff ff       	call   4026c0 <_Z15FindFirstRemovePy>
  40587a:	89 c5                	mov    ebp,eax
  40587c:	48 98                	cdqe   
  40587e:	48 8b 04 c5 10 51 41 	mov    rax,QWORD PTR [rax*8+0x415110]
  405885:	00 
  405886:	4c 21 f0             	and    rax,r14
  405889:	48 8b 4c 24 20       	mov    rcx,QWORD PTR [rsp+0x20]
  40588e:	48 23 04 cd 10 51 41 	and    rax,QWORD PTR [rcx*8+0x415110]
  405895:	00 
  405896:	48 89 44 24 10       	mov    QWORD PTR [rsp+0x10],rax
  40589b:	74 2e                	je     4058cb <_Z15gen_good_checksP7state_tPi+0xeb>
  40589d:	0f 1f 00             	nop    DWORD PTR [rax]
  4058a0:	4c 89 ef             	mov    rdi,r13
  4058a3:	e8 18 ce ff ff       	call   4026c0 <_Z15FindFirstRemovePy>
  4058a8:	48 63 d0             	movsxd rdx,eax
  4058ab:	41 8b 4c 97 04       	mov    ecx,DWORD PTR [r15+rdx*4+0x4]
  4058b0:	45 31 c0             	xor    r8d,r8d
  4058b3:	45 31 c9             	xor    r9d,r9d
  4058b6:	48 89 df             	mov    rdi,rbx
  4058b9:	89 ee                	mov    esi,ebp
  4058bb:	e8 50 ef ff ff       	call   404810 <_Z11add_capturePiiiiii>
  4058c0:	48 89 c3             	mov    rbx,rax
  4058c3:	48 83 7c 24 10 00    	cmp    QWORD PTR [rsp+0x10],0x0
  4058c9:	75 d5                	jne    4058a0 <_Z15gen_good_checksP7state_tPi+0xc0>
  4058cb:	48 83 7c 24 08 00    	cmp    QWORD PTR [rsp+0x8],0x0
  4058d1:	75 9d                	jne    405870 <_Z15gen_good_checksP7state_tPi+0x90>
  4058d3:	41 83 bf cc 01 00 00 	cmp    DWORD PTR [r15+0x1cc],0x0
  4058da:	00 
  4058db:	74 1f                	je     4058fc <_Z15gen_good_checksP7state_tPi+0x11c>
  4058dd:	49 8b 87 08 01 00 00 	mov    rax,QWORD PTR [r15+0x108]
  4058e4:	49 8b 8f 28 01 00 00 	mov    rcx,QWORD PTR [r15+0x128]
  4058eb:	48 c1 e9 08          	shr    rcx,0x8
  4058ef:	48 f7 d0             	not    rax
  4058f2:	48 21 c8             	and    rax,rcx
  4058f5:	b9 10 55 41 00       	mov    ecx,0x415510
  4058fa:	eb 1d                	jmp    405919 <_Z15gen_good_checksP7state_tPi+0x139>
  4058fc:	49 8b 87 08 01 00 00 	mov    rax,QWORD PTR [r15+0x108]
  405903:	49 8b 8f 30 01 00 00 	mov    rcx,QWORD PTR [r15+0x130]
  40590a:	48 c1 e1 08          	shl    rcx,0x8
  40590e:	48 f7 d0             	not    rax
  405911:	48 21 c8             	and    rax,rcx
  405914:	b9 10 57 41 00       	mov    ecx,0x415710
  405919:	48 89 44 24 08       	mov    QWORD PTR [rsp+0x8],rax
  40591e:	48 8b 54 24 20       	mov    rdx,QWORD PTR [rsp+0x20]
  405923:	48 23 04 d1          	and    rax,QWORD PTR [rcx+rdx*8]
  405927:	48 89 44 24 08       	mov    QWORD PTR [rsp+0x8],rax
  40592c:	74 47                	je     405975 <_Z15gen_good_checksP7state_tPi+0x195>
  40592e:	48 8d 6c 24 08       	lea    rbp,[rsp+0x8]
  405933:	66 2e 0f 1f 84 00 00 	cs nop WORD PTR [rax+rax*1+0x0]
  40593a:	00 00 00 
  40593d:	0f 1f 00             	nop    DWORD PTR [rax]
  405940:	48 89 ef             	mov    rdi,rbp
  405943:	e8 78 cd ff ff       	call   4026c0 <_Z15FindFirstRemovePy>
  405948:	31 c9                	xor    ecx,ecx
  40594a:	41 83 bf cc 01 00 00 	cmp    DWORD PTR [r15+0x1cc],0x0
  405951:	00 
  405952:	0f 95 c1             	setne  cl
  405955:	c1 e1 04             	shl    ecx,0x4
  405958:	8d 34 01             	lea    esi,[rcx+rax*1]
  40595b:	83 c6 f8             	add    esi,0xfffffff8
  40595e:	31 c9                	xor    ecx,ecx
  405960:	48 89 df             	mov    rdi,rbx
  405963:	89 c2                	mov    edx,eax
  405965:	e8 c6 ee ff ff       	call   404830 <_Z8add_movePiiii>
  40596a:	48 89 c3             	mov    rbx,rax
  40596d:	48 83 7c 24 08 00    	cmp    QWORD PTR [rsp+0x8],0x0
  405973:	75 cb                	jne    405940 <_Z15gen_good_checksP7state_tPi+0x160>
  405975:	31 c0                	xor    eax,eax
  405977:	41 83 bf cc 01 00 00 	cmp    DWORD PTR [r15+0x1cc],0x0
  40597e:	00 
  40597f:	0f 94 c0             	sete   al
  405982:	49 8b 8c c7 68 01 00 	mov    rcx,QWORD PTR [r15+rax*8+0x168]
  405989:	00 
  40598a:	49 0b 8c c7 58 01 00 	or     rcx,QWORD PTR [r15+rax*8+0x158]
  405991:	00 
  405992:	48 89 4c 24 08       	mov    QWORD PTR [rsp+0x8],rcx
  405997:	74 7f                	je     405a18 <_Z15gen_good_checksP7state_tPi+0x238>
  405999:	4c 8d 6c 24 10       	lea    r13,[rsp+0x10]
  40599e:	66 90                	xchg   ax,ax
  4059a0:	48 8d 7c 24 08       	lea    rdi,[rsp+0x8]
  4059a5:	e8 16 cd ff ff       	call   4026c0 <_Z15FindFirstRemovePy>
  4059aa:	89 c5                	mov    ebp,eax
  4059ac:	4c 89 ff             	mov    rdi,r15
  4059af:	89 c6                	mov    esi,eax
  4059b1:	e8 8a cc ff ff       	call   402640 <_Z11RookAttacksP7state_ti>
  4059b6:	48 23 44 24 28       	and    rax,QWORD PTR [rsp+0x28]
  4059bb:	48 89 44 24 10       	mov    QWORD PTR [rsp+0x10],rax
  4059c0:	74 4e                	je     405a10 <_Z15gen_good_checksP7state_tPi+0x230>
  4059c2:	66 2e 0f 1f 84 00 00 	cs nop WORD PTR [rax+rax*1+0x0]
  4059c9:	00 00 00 
  4059cc:	0f 1f 40 00          	nop    DWORD PTR [rax+0x0]
  4059d0:	4c 89 ef             	mov    rdi,r13
  4059d3:	e8 e8 cc ff ff       	call   4026c0 <_Z15FindFirstRemovePy>
  4059d8:	41 89 c6             	mov    r14d,eax
  4059db:	4c 89 ff             	mov    rdi,r15
  4059de:	89 c6                	mov    esi,eax
  4059e0:	e8 5b cc ff ff       	call   402640 <_Z11RookAttacksP7state_ti>
  4059e5:	4c 85 e0             	test   rax,r12
  4059e8:	74 1e                	je     405a08 <_Z15gen_good_checksP7state_tPi+0x228>
  4059ea:	49 63 c6             	movsxd rax,r14d
  4059ed:	41 8b 4c 87 04       	mov    ecx,DWORD PTR [r15+rax*4+0x4]
  4059f2:	45 31 c0             	xor    r8d,r8d
  4059f5:	45 31 c9             	xor    r9d,r9d
  4059f8:	48 89 df             	mov    rdi,rbx
  4059fb:	89 ee                	mov    esi,ebp
  4059fd:	44 89 f2             	mov    edx,r14d
  405a00:	e8 0b ee ff ff       	call   404810 <_Z11add_capturePiiiiii>
  405a05:	48 89 c3             	mov    rbx,rax
  405a08:	48 83 7c 24 10 00    	cmp    QWORD PTR [rsp+0x10],0x0
  405a0e:	75 c0                	jne    4059d0 <_Z15gen_good_checksP7state_tPi+0x1f0>
  405a10:	48 83 7c 24 08 00    	cmp    QWORD PTR [rsp+0x8],0x0
  405a16:	75 88                	jne    4059a0 <_Z15gen_good_checksP7state_tPi+0x1c0>
  405a18:	31 c0                	xor    eax,eax
  405a1a:	41 83 bf cc 01 00 00 	cmp    DWORD PTR [r15+0x1cc],0x0
  405a21:	00 
  405a22:	0f 94 c0             	sete   al
  405a25:	49 8b 8c c7 68 01 00 	mov    rcx,QWORD PTR [r15+rax*8+0x168]
  405a2c:	00 
  405a2d:	49 0b 8c c7 78 01 00 	or     rcx,QWORD PTR [r15+rax*8+0x178]
  405a34:	00 
  405a35:	48 89 4c 24 08       	mov    QWORD PTR [rsp+0x8],rcx
  405a3a:	0f 84 87 00 00 00    	je     405ac7 <_Z15gen_good_checksP7state_tPi+0x2e7>
  405a40:	4c 8d 6c 24 10       	lea    r13,[rsp+0x10]
  405a45:	66 2e 0f 1f 84 00 00 	cs nop WORD PTR [rax+rax*1+0x0]
  405a4c:	00 00 00 
  405a4f:	90                   	nop
  405a50:	48 8d 7c 24 08       	lea    rdi,[rsp+0x8]
  405a55:	e8 66 cc ff ff       	call   4026c0 <_Z15FindFirstRemovePy>
  405a5a:	41 89 c6             	mov    r14d,eax
  405a5d:	4c 89 ff             	mov    rdi,r15
  405a60:	89 c6                	mov    esi,eax
  405a62:	e8 a9 cb ff ff       	call   402610 <_Z13BishopAttacksP7state_ti>
  405a67:	48 23 44 24 30       	and    rax,QWORD PTR [rsp+0x30]
  405a6c:	48 89 44 24 10       	mov    QWORD PTR [rsp+0x10],rax
  405a71:	74 4c                	je     405abf <_Z15gen_good_checksP7state_tPi+0x2df>
  405a73:	66 2e 0f 1f 84 00 00 	cs nop WORD PTR [rax+rax*1+0x0]
  405a7a:	00 00 00 
  405a7d:	0f 1f 00             	nop    DWORD PTR [rax]
  405a80:	4c 89 ef             	mov    rdi,r13
  405a83:	e8 38 cc ff ff       	call   4026c0 <_Z15FindFirstRemovePy>
  405a88:	89 c5                	mov    ebp,eax
  405a8a:	4c 89 ff             	mov    rdi,r15
  405a8d:	89 c6                	mov    esi,eax
  405a8f:	e8 7c cb ff ff       	call   402610 <_Z13BishopAttacksP7state_ti>
  405a94:	4c 85 e0             	test   rax,r12
  405a97:	74 1e                	je     405ab7 <_Z15gen_good_checksP7state_tPi+0x2d7>
  405a99:	48 63 c5             	movsxd rax,ebp
  405a9c:	41 8b 4c 87 04       	mov    ecx,DWORD PTR [r15+rax*4+0x4]
  405aa1:	45 31 c0             	xor    r8d,r8d
  405aa4:	45 31 c9             	xor    r9d,r9d
  405aa7:	48 89 df             	mov    rdi,rbx
  405aaa:	44 89 f6             	mov    esi,r14d
  405aad:	89 ea                	mov    edx,ebp
  405aaf:	e8 5c ed ff ff       	call   404810 <_Z11add_capturePiiiiii>
  405ab4:	48 89 c3             	mov    rbx,rax
  405ab7:	48 83 7c 24 10 00    	cmp    QWORD PTR [rsp+0x10],0x0
  405abd:	75 c1                	jne    405a80 <_Z15gen_good_checksP7state_tPi+0x2a0>
  405abf:	48 83 7c 24 08 00    	cmp    QWORD PTR [rsp+0x8],0x0
  405ac5:	75 89                	jne    405a50 <_Z15gen_good_checksP7state_tPi+0x270>
  405ac7:	48 2b 5c 24 18       	sub    rbx,QWORD PTR [rsp+0x18]
  405acc:	48 c1 eb 02          	shr    rbx,0x2
  405ad0:	89 d8                	mov    eax,ebx
  405ad2:	48 83 c4 38          	add    rsp,0x38
  405ad6:	5b                   	pop    rbx
  405ad7:	41 5c                	pop    r12
  405ad9:	41 5d                	pop    r13
  405adb:	41 5e                	pop    r14
  405add:	41 5f                	pop    r15
  405adf:	5d                   	pop    rbp
  405ae0:	c3                   	ret    
  405ae1:	66 2e 0f 1f 84 00 00 	cs nop WORD PTR [rax+rax*1+0x0]
  405ae8:	00 00 00 
  405aeb:	0f 1f 44 00 00       	nop    DWORD PTR [rax+rax*1+0x0]

0000000000405af0 <_Z16gen_check_blocksP7state_tPii>:
  405af0:	55                   	push   rbp
  405af1:	41 57                	push   r15
  405af3:	41 56                	push   r14
  405af5:	41 55                	push   r13
  405af7:	41 54                	push   r12
  405af9:	53                   	push   rbx
  405afa:	48 83 ec 18          	sub    rsp,0x18
  405afe:	89 d5                	mov    ebp,edx
  405b00:	49 89 f5             	mov    r13,rsi
  405b03:	49 89 ff             	mov    r15,rdi
  405b06:	31 c0                	xor    eax,eax
  405b08:	83 bf cc 01 00 00 00 	cmp    DWORD PTR [rdi+0x1cc],0x0
  405b0f:	0f 94 c0             	sete   al
  405b12:	8b 9c 87 d0 01 00 00 	mov    ebx,DWORD PTR [rdi+rax*4+0x1d0]
  405b19:	89 df                	mov    edi,ebx
  405b1b:	e8 70 cc ff ff       	call   402790 <_Z4ranki>
  405b20:	8d 45 f5             	lea    eax,[rbp-0xb]
  405b23:	83 f8 02             	cmp    eax,0x2
  405b26:	73 07                	jae    405b2f <_Z16gen_check_blocksP7state_tPii+0x3f>
  405b28:	b8 90 8a 41 00       	mov    eax,0x418a90
  405b2d:	eb 14                	jmp    405b43 <_Z16gen_check_blocksP7state_tPii+0x53>
  405b2f:	83 c5 f9             	add    ebp,0xfffffff9
  405b32:	49 c7 c6 ff ff ff ff 	mov    r14,0xffffffffffffffff
  405b39:	83 fd 01             	cmp    ebp,0x1
  405b3c:	77 0c                	ja     405b4a <_Z16gen_check_blocksP7state_tPii+0x5a>
  405b3e:	b8 90 88 41 00       	mov    eax,0x418890
  405b43:	48 63 cb             	movsxd rcx,ebx
  405b46:	4c 8b 34 c8          	mov    r14,QWORD PTR [rax+rcx*8]
  405b4a:	49 8b 87 08 01 00 00 	mov    rax,QWORD PTR [r15+0x108]
  405b51:	48 89 c5             	mov    rbp,rax
  405b54:	48 f7 d5             	not    rbp
  405b57:	41 83 bf cc 01 00 00 	cmp    DWORD PTR [r15+0x1cc],0x0
  405b5e:	00 
  405b5f:	0f 84 a9 00 00 00    	je     405c0e <_Z16gen_check_blocksP7state_tPii+0x11e>
  405b65:	49 8b 8f 28 01 00 00 	mov    rcx,QWORD PTR [r15+0x128]
  405b6c:	48 89 ca             	mov    rdx,rcx
  405b6f:	48 c1 ea 08          	shr    rdx,0x8
  405b73:	48 21 ea             	and    rdx,rbp
  405b76:	48 8b 35 d3 2b 01 00 	mov    rsi,QWORD PTR [rip+0x12bd3]        # 418750 <RankMask>
  405b7d:	48 f7 d6             	not    rsi
  405b80:	48 21 d6             	and    rsi,rdx
  405b83:	48 23 0d f6 2b 01 00 	and    rcx,QWORD PTR [rip+0x12bf6]        # 418780 <RankMask+0x30>
  405b8a:	48 c1 e9 10          	shr    rcx,0x10
  405b8e:	48 c1 e8 08          	shr    rax,0x8
  405b92:	48 f7 d0             	not    rax
  405b95:	48 21 e8             	and    rax,rbp
  405b98:	48 21 c8             	and    rax,rcx
  405b9b:	48 89 44 24 08       	mov    QWORD PTR [rsp+0x8],rax
  405ba0:	48 09 f0             	or     rax,rsi
  405ba3:	4c 89 eb             	mov    rbx,r13
  405ba6:	4c 21 f0             	and    rax,r14
  405ba9:	48 89 04 24          	mov    QWORD PTR [rsp],rax
  405bad:	0f 84 f6 00 00 00    	je     405ca9 <_Z16gen_check_blocksP7state_tPii+0x1b9>
  405bb3:	49 89 e4             	mov    r12,rsp
  405bb6:	4c 89 eb             	mov    rbx,r13
  405bb9:	0f 1f 80 00 00 00 00 	nop    DWORD PTR [rax+0x0]
  405bc0:	4c 89 e7             	mov    rdi,r12
  405bc3:	e8 f8 ca ff ff       	call   4026c0 <_Z15FindFirstRemovePy>
  405bc8:	49 8b 8f 28 01 00 00 	mov    rcx,QWORD PTR [r15+0x128]
  405bcf:	48 63 d0             	movsxd rdx,eax
  405bd2:	48 85 0c d5 50 7f 41 	test   QWORD PTR [rdx*8+0x417f50],rcx
  405bd9:	00 
  405bda:	74 14                	je     405bf0 <_Z16gen_check_blocksP7state_tPii+0x100>
  405bdc:	8d 70 08             	lea    esi,[rax+0x8]
  405bdf:	eb 12                	jmp    405bf3 <_Z16gen_check_blocksP7state_tPii+0x103>
  405be1:	66 2e 0f 1f 84 00 00 	cs nop WORD PTR [rax+rax*1+0x0]
  405be8:	00 00 00 
  405beb:	0f 1f 44 00 00       	nop    DWORD PTR [rax+rax*1+0x0]
  405bf0:	8d 70 10             	lea    esi,[rax+0x10]
  405bf3:	31 c9                	xor    ecx,ecx
  405bf5:	48 89 df             	mov    rdi,rbx
  405bf8:	89 c2                	mov    edx,eax
  405bfa:	e8 31 ec ff ff       	call   404830 <_Z8add_movePiiii>
  405bff:	48 89 c3             	mov    rbx,rax
  405c02:	48 83 3c 24 00       	cmp    QWORD PTR [rsp],0x0
  405c07:	75 b7                	jne    405bc0 <_Z16gen_check_blocksP7state_tPii+0xd0>
  405c09:	e9 9b 00 00 00       	jmp    405ca9 <_Z16gen_check_blocksP7state_tPii+0x1b9>
  405c0e:	49 8b 8f 30 01 00 00 	mov    rcx,QWORD PTR [r15+0x130]
  405c15:	48 89 ca             	mov    rdx,rcx
  405c18:	48 c1 e2 08          	shl    rdx,0x8
  405c1c:	48 21 ea             	and    rdx,rbp
  405c1f:	48 8b 35 62 2b 01 00 	mov    rsi,QWORD PTR [rip+0x12b62]        # 418788 <RankMask+0x38>
  405c26:	48 f7 d6             	not    rsi
  405c29:	48 21 d6             	and    rsi,rdx
  405c2c:	48 23 0d 25 2b 01 00 	and    rcx,QWORD PTR [rip+0x12b25]        # 418758 <RankMask+0x8>
  405c33:	48 c1 e1 10          	shl    rcx,0x10
  405c37:	48 c1 e0 08          	shl    rax,0x8
  405c3b:	48 f7 d0             	not    rax
  405c3e:	48 21 e8             	and    rax,rbp
  405c41:	48 21 c8             	and    rax,rcx
  405c44:	48 89 44 24 08       	mov    QWORD PTR [rsp+0x8],rax
  405c49:	48 09 f0             	or     rax,rsi
  405c4c:	4c 89 eb             	mov    rbx,r13
  405c4f:	4c 21 f0             	and    rax,r14
  405c52:	48 89 04 24          	mov    QWORD PTR [rsp],rax
  405c56:	74 51                	je     405ca9 <_Z16gen_check_blocksP7state_tPii+0x1b9>
  405c58:	49 89 e4             	mov    r12,rsp
  405c5b:	4c 89 eb             	mov    rbx,r13
  405c5e:	66 90                	xchg   ax,ax
  405c60:	4c 89 e7             	mov    rdi,r12
  405c63:	e8 58 ca ff ff       	call   4026c0 <_Z15FindFirstRemovePy>
  405c68:	49 8b 8f 30 01 00 00 	mov    rcx,QWORD PTR [r15+0x130]
  405c6f:	48 63 d0             	movsxd rdx,eax
  405c72:	48 85 0c d5 d0 7e 41 	test   QWORD PTR [rdx*8+0x417ed0],rcx
  405c79:	00 
  405c7a:	74 14                	je     405c90 <_Z16gen_check_blocksP7state_tPii+0x1a0>
  405c7c:	8d 70 f8             	lea    esi,[rax-0x8]
  405c7f:	eb 12                	jmp    405c93 <_Z16gen_check_blocksP7state_tPii+0x1a3>
  405c81:	66 2e 0f 1f 84 00 00 	cs nop WORD PTR [rax+rax*1+0x0]
  405c88:	00 00 00 
  405c8b:	0f 1f 44 00 00       	nop    DWORD PTR [rax+rax*1+0x0]
  405c90:	8d 70 f0             	lea    esi,[rax-0x10]
  405c93:	31 c9                	xor    ecx,ecx
  405c95:	48 89 df             	mov    rdi,rbx
  405c98:	89 c2                	mov    edx,eax
  405c9a:	e8 91 eb ff ff       	call   404830 <_Z8add_movePiiii>
  405c9f:	48 89 c3             	mov    rbx,rax
  405ca2:	48 83 3c 24 00       	cmp    QWORD PTR [rsp],0x0
  405ca7:	75 b7                	jne    405c60 <_Z16gen_check_blocksP7state_tPii+0x170>
  405ca9:	49 21 ee             	and    r14,rbp
  405cac:	31 c0                	xor    eax,eax
  405cae:	41 83 bf cc 01 00 00 	cmp    DWORD PTR [r15+0x1cc],0x0
  405cb5:	00 
  405cb6:	0f 94 c0             	sete   al
  405cb9:	49 8b 84 c7 38 01 00 	mov    rax,QWORD PTR [r15+rax*8+0x138]
  405cc0:	00 
  405cc1:	48 89 04 24          	mov    QWORD PTR [rsp],rax
  405cc5:	48 85 c0             	test   rax,rax
  405cc8:	4c 89 6c 24 10       	mov    QWORD PTR [rsp+0x10],r13
  405ccd:	74 59                	je     405d28 <_Z16gen_check_blocksP7state_tPii+0x238>
  405ccf:	49 89 e4             	mov    r12,rsp
  405cd2:	4c 8d 6c 24 08       	lea    r13,[rsp+0x8]
  405cd7:	66 0f 1f 84 00 00 00 	nop    WORD PTR [rax+rax*1+0x0]
  405cde:	00 00 
  405ce0:	4c 89 e7             	mov    rdi,r12
  405ce3:	e8 d8 c9 ff ff       	call   4026c0 <_Z15FindFirstRemovePy>
  405ce8:	89 c5                	mov    ebp,eax
  405cea:	48 98                	cdqe   
  405cec:	48 8b 04 c5 10 51 41 	mov    rax,QWORD PTR [rax*8+0x415110]
  405cf3:	00 
  405cf4:	4c 21 f0             	and    rax,r14
  405cf7:	48 89 44 24 08       	mov    QWORD PTR [rsp+0x8],rax
  405cfc:	74 23                	je     405d21 <_Z16gen_check_blocksP7state_tPii+0x231>
  405cfe:	66 90                	xchg   ax,ax
  405d00:	4c 89 ef             	mov    rdi,r13
  405d03:	e8 b8 c9 ff ff       	call   4026c0 <_Z15FindFirstRemovePy>
  405d08:	31 c9                	xor    ecx,ecx
  405d0a:	48 89 df             	mov    rdi,rbx
  405d0d:	89 ee                	mov    esi,ebp
  405d0f:	89 c2                	mov    edx,eax
  405d11:	e8 1a eb ff ff       	call   404830 <_Z8add_movePiiii>
  405d16:	48 89 c3             	mov    rbx,rax
  405d19:	48 83 7c 24 08 00    	cmp    QWORD PTR [rsp+0x8],0x0
  405d1f:	75 df                	jne    405d00 <_Z16gen_check_blocksP7state_tPii+0x210>
  405d21:	48 83 3c 24 00       	cmp    QWORD PTR [rsp],0x0
  405d26:	75 b8                	jne    405ce0 <_Z16gen_check_blocksP7state_tPii+0x1f0>
  405d28:	31 c0                	xor    eax,eax
  405d2a:	41 83 bf cc 01 00 00 	cmp    DWORD PTR [r15+0x1cc],0x0
  405d31:	00 
  405d32:	0f 94 c0             	sete   al
  405d35:	49 8b 8c c7 68 01 00 	mov    rcx,QWORD PTR [r15+rax*8+0x168]
  405d3c:	00 
  405d3d:	49 0b 8c c7 58 01 00 	or     rcx,QWORD PTR [r15+rax*8+0x158]
  405d44:	00 
  405d45:	48 89 0c 24          	mov    QWORD PTR [rsp],rcx
  405d49:	74 5d                	je     405da8 <_Z16gen_check_blocksP7state_tPii+0x2b8>
  405d4b:	49 89 e4             	mov    r12,rsp
  405d4e:	4c 8d 6c 24 08       	lea    r13,[rsp+0x8]
  405d53:	66 2e 0f 1f 84 00 00 	cs nop WORD PTR [rax+rax*1+0x0]
  405d5a:	00 00 00 
  405d5d:	0f 1f 00             	nop    DWORD PTR [rax]
  405d60:	4c 89 e7             	mov    rdi,r12
  405d63:	e8 58 c9 ff ff       	call   4026c0 <_Z15FindFirstRemovePy>
  405d68:	89 c5                	mov    ebp,eax
  405d6a:	4c 89 ff             	mov    rdi,r15
  405d6d:	89 c6                	mov    esi,eax
  405d6f:	e8 cc c8 ff ff       	call   402640 <_Z11RookAttacksP7state_ti>
  405d74:	4c 21 f0             	and    rax,r14
  405d77:	48 89 44 24 08       	mov    QWORD PTR [rsp+0x8],rax
  405d7c:	74 23                	je     405da1 <_Z16gen_check_blocksP7state_tPii+0x2b1>
  405d7e:	66 90                	xchg   ax,ax
  405d80:	4c 89 ef             	mov    rdi,r13
  405d83:	e8 38 c9 ff ff       	call   4026c0 <_Z15FindFirstRemovePy>
  405d88:	31 c9                	xor    ecx,ecx
  405d8a:	48 89 df             	mov    rdi,rbx
  405d8d:	89 ee                	mov    esi,ebp
  405d8f:	89 c2                	mov    edx,eax
  405d91:	e8 9a ea ff ff       	call   404830 <_Z8add_movePiiii>
  405d96:	48 89 c3             	mov    rbx,rax
  405d99:	48 83 7c 24 08 00    	cmp    QWORD PTR [rsp+0x8],0x0
  405d9f:	75 df                	jne    405d80 <_Z16gen_check_blocksP7state_tPii+0x290>
  405da1:	48 83 3c 24 00       	cmp    QWORD PTR [rsp],0x0
  405da6:	75 b8                	jne    405d60 <_Z16gen_check_blocksP7state_tPii+0x270>
  405da8:	31 c0                	xor    eax,eax
  405daa:	41 83 bf cc 01 00 00 	cmp    DWORD PTR [r15+0x1cc],0x0
  405db1:	00 
  405db2:	0f 94 c0             	sete   al
  405db5:	49 8b 8c c7 68 01 00 	mov    rcx,QWORD PTR [r15+rax*8+0x168]
  405dbc:	00 
  405dbd:	49 0b 8c c7 78 01 00 	or     rcx,QWORD PTR [r15+rax*8+0x178]
  405dc4:	00 
  405dc5:	48 89 0c 24          	mov    QWORD PTR [rsp],rcx
  405dc9:	74 5d                	je     405e28 <_Z16gen_check_blocksP7state_tPii+0x338>
  405dcb:	49 89 e4             	mov    r12,rsp
  405dce:	4c 8d 6c 24 08       	lea    r13,[rsp+0x8]
  405dd3:	66 2e 0f 1f 84 00 00 	cs nop WORD PTR [rax+rax*1+0x0]
  405dda:	00 00 00 
  405ddd:	0f 1f 00             	nop    DWORD PTR [rax]
  405de0:	4c 89 e7             	mov    rdi,r12
  405de3:	e8 d8 c8 ff ff       	call   4026c0 <_Z15FindFirstRemovePy>
  405de8:	89 c5                	mov    ebp,eax
  405dea:	4c 89 ff             	mov    rdi,r15
  405ded:	89 c6                	mov    esi,eax
  405def:	e8 1c c8 ff ff       	call   402610 <_Z13BishopAttacksP7state_ti>
  405df4:	4c 21 f0             	and    rax,r14
  405df7:	48 89 44 24 08       	mov    QWORD PTR [rsp+0x8],rax
  405dfc:	74 23                	je     405e21 <_Z16gen_check_blocksP7state_tPii+0x331>
  405dfe:	66 90                	xchg   ax,ax
  405e00:	4c 89 ef             	mov    rdi,r13
  405e03:	e8 b8 c8 ff ff       	call   4026c0 <_Z15FindFirstRemovePy>
  405e08:	31 c9                	xor    ecx,ecx
  405e0a:	48 89 df             	mov    rdi,rbx
  405e0d:	89 ee                	mov    esi,ebp
  405e0f:	89 c2                	mov    edx,eax
  405e11:	e8 1a ea ff ff       	call   404830 <_Z8add_movePiiii>
  405e16:	48 89 c3             	mov    rbx,rax
  405e19:	48 83 7c 24 08 00    	cmp    QWORD PTR [rsp+0x8],0x0
  405e1f:	75 df                	jne    405e00 <_Z16gen_check_blocksP7state_tPii+0x310>
  405e21:	48 83 3c 24 00       	cmp    QWORD PTR [rsp],0x0
  405e26:	75 b8                	jne    405de0 <_Z16gen_check_blocksP7state_tPii+0x2f0>
  405e28:	48 2b 5c 24 10       	sub    rbx,QWORD PTR [rsp+0x10]
  405e2d:	48 c1 eb 02          	shr    rbx,0x2
  405e31:	89 d8                	mov    eax,ebx
  405e33:	48 83 c4 18          	add    rsp,0x18
  405e37:	5b                   	pop    rbx
  405e38:	41 5c                	pop    r12
  405e3a:	41 5d                	pop    r13
  405e3c:	41 5e                	pop    r14
  405e3e:	41 5f                	pop    r15
  405e40:	5d                   	pop    rbp
  405e41:	c3                   	ret    
  405e42:	66 2e 0f 1f 84 00 00 	cs nop WORD PTR [rax+rax*1+0x0]
  405e49:	00 00 00 
  405e4c:	0f 1f 40 00          	nop    DWORD PTR [rax+0x0]

0000000000405e50 <_Z12gen_evasionsP7state_tPii>:
  405e50:	55                   	push   rbp
  405e51:	41 57                	push   r15
  405e53:	41 56                	push   r14
  405e55:	41 55                	push   r13
  405e57:	41 54                	push   r12
  405e59:	53                   	push   rbx
  405e5a:	50                   	push   rax
  405e5b:	49 89 fc             	mov    r12,rdi
  405e5e:	31 c0                	xor    eax,eax
  405e60:	83 bf cc 01 00 00 00 	cmp    DWORD PTR [rdi+0x1cc],0x0
  405e67:	41 89 d7             	mov    r15d,edx
  405e6a:	49 89 f6             	mov    r14,rsi
  405e6d:	0f 94 c0             	sete   al
  405e70:	48 63 8c 87 d0 01 00 	movsxd rcx,DWORD PTR [rdi+rax*4+0x1d0]
  405e77:	00 
  405e78:	48 8b 97 08 01 00 00 	mov    rdx,QWORD PTR [rdi+0x108]
  405e7f:	48 f7 d2             	not    rdx
  405e82:	48 89 f3             	mov    rbx,rsi
  405e85:	48 23 14 cd 10 53 41 	and    rdx,QWORD PTR [rcx*8+0x415310]
  405e8c:	00 
  405e8d:	48 89 14 24          	mov    QWORD PTR [rsp],rdx
  405e91:	74 3d                	je     405ed0 <_Z12gen_evasionsP7state_tPii+0x80>
  405e93:	41 8b ac 84 d0 01 00 	mov    ebp,DWORD PTR [r12+rax*4+0x1d0]
  405e9a:	00 
  405e9b:	49 89 e5             	mov    r13,rsp
  405e9e:	4c 89 f3             	mov    rbx,r14
  405ea1:	66 2e 0f 1f 84 00 00 	cs nop WORD PTR [rax+rax*1+0x0]
  405ea8:	00 00 00 
  405eab:	0f 1f 44 00 00       	nop    DWORD PTR [rax+rax*1+0x0]
  405eb0:	4c 89 ef             	mov    rdi,r13
  405eb3:	e8 08 c8 ff ff       	call   4026c0 <_Z15FindFirstRemovePy>
  405eb8:	31 c9                	xor    ecx,ecx
  405eba:	48 89 df             	mov    rdi,rbx
  405ebd:	89 ee                	mov    esi,ebp
  405ebf:	89 c2                	mov    edx,eax
  405ec1:	e8 6a e9 ff ff       	call   404830 <_Z8add_movePiiii>
  405ec6:	48 89 c3             	mov    rbx,rax
  405ec9:	48 83 3c 24 00       	cmp    QWORD PTR [rsp],0x0
  405ece:	75 e0                	jne    405eb0 <_Z12gen_evasionsP7state_tPii+0x60>
  405ed0:	4c 89 e7             	mov    rdi,r12
  405ed3:	48 89 de             	mov    rsi,rbx
  405ed6:	e8 85 f3 ff ff       	call   405260 <_Z12gen_capturesP7state_tPi>
  405edb:	48 98                	cdqe   
  405edd:	48 8d 1c 83          	lea    rbx,[rbx+rax*4]
  405ee1:	41 8d 47 ff          	lea    eax,[r15-0x1]
  405ee5:	83 f8 05             	cmp    eax,0x5
  405ee8:	77 09                	ja     405ef3 <_Z12gen_evasionsP7state_tPii+0xa3>
  405eea:	4c 29 f3             	sub    rbx,r14
  405eed:	48 c1 fb 02          	sar    rbx,0x2
  405ef1:	eb 1b                	jmp    405f0e <_Z12gen_evasionsP7state_tPii+0xbe>
  405ef3:	4c 89 e7             	mov    rdi,r12
  405ef6:	48 89 de             	mov    rsi,rbx
  405ef9:	44 89 fa             	mov    edx,r15d
  405efc:	e8 ef fb ff ff       	call   405af0 <_Z16gen_check_blocksP7state_tPii>
  405f01:	48 98                	cdqe   
  405f03:	48 8d 1c 83          	lea    rbx,[rbx+rax*4]
  405f07:	4c 29 f3             	sub    rbx,r14
  405f0a:	48 c1 eb 02          	shr    rbx,0x2
  405f0e:	89 d8                	mov    eax,ebx
  405f10:	48 83 c4 08          	add    rsp,0x8
  405f14:	5b                   	pop    rbx
  405f15:	41 5c                	pop    r12
  405f17:	41 5d                	pop    r13
  405f19:	41 5e                	pop    r14
  405f1b:	41 5f                	pop    r15
  405f1d:	5d                   	pop    rbp
  405f1e:	c3                   	ret    
  405f1f:	90                   	nop

0000000000405f20 <_Z15init_parametersP11gamestate_t>:
  405f20:	c7 05 56 df b5 00 c0 	mov    DWORD PTR [rip+0xb5df56],0xe4e1c0        # f63e80 <TTSize>
  405f27:	e1 e4 00 
  405f2a:	48 b8 73 6a 65 6e 67 	movabs rax,0x6f6c2e676e656a73
  405f31:	2e 6c 6f 
  405f34:	48 89 05 75 df b5 00 	mov    QWORD PTR [rip+0xb5df75],rax        # f63eb0 <cfg_logfile>
  405f3b:	66 c7 05 74 df b5 00 	mov    WORD PTR [rip+0xb5df74],0x67        # f63eb8 <cfg_logfile+0x8>
  405f42:	67 00 
  405f44:	c7 05 52 df b5 00 00 	mov    DWORD PTR [rip+0xb5df52],0x0        # f63ea0 <cfg_logging>
  405f4b:	00 00 00 
  405f4e:	c7 05 58 e1 b5 00 00 	mov    DWORD PTR [rip+0xb5e158],0x0        # f640b0 <contempt>
  405f55:	00 00 00 
  405f58:	c7 47 38 3c 00 00 00 	mov    DWORD PTR [rdi+0x38],0x3c
  405f5f:	c7 05 1b df b5 00 00 	mov    DWORD PTR [rip+0xb5df1b],0x0        # f63e84 <uci_mode>
  405f66:	00 00 00 
  405f69:	c7 05 15 df b5 00 00 	mov    DWORD PTR [rip+0xb5df15],0x0        # f63e88 <uci_chess960_mode>
  405f70:	00 00 00 
  405f73:	c7 05 0f df b5 00 00 	mov    DWORD PTR [rip+0xb5df0f],0x0        # f63e8c <uci_showcurrline>
  405f7a:	00 00 00 
  405f7d:	c7 05 09 df b5 00 00 	mov    DWORD PTR [rip+0xb5df09],0x0        # f63e90 <uci_showrefutations>
  405f84:	00 00 00 
  405f87:	c7 05 03 df b5 00 00 	mov    DWORD PTR [rip+0xb5df03],0x0        # f63e94 <uci_limitstrength>
  405f8e:	00 00 00 
  405f91:	c7 05 fd de b5 00 b8 	mov    DWORD PTR [rip+0xb5defd],0xbb8        # f63e98 <uci_elo>
  405f98:	0b 00 00 
  405f9b:	c7 05 f7 de b5 00 01 	mov    DWORD PTR [rip+0xb5def7],0x1        # f63e9c <uci_multipv>
  405fa2:	00 00 00 
  405fa5:	e9 26 7c 00 00       	jmp    40dbd0 <_Z10alloc_hashv>
  405faa:	66 0f 1f 44 00 00    	nop    WORD PTR [rax+rax*1+0x0]

0000000000405fb0 <_Z4makeP7state_ti>:
  405fb0:	55                   	push   rbp
  405fb1:	41 57                	push   r15
  405fb3:	41 56                	push   r14
  405fb5:	41 54                	push   r12
  405fb7:	53                   	push   rbx
  405fb8:	41 89 f2             	mov    r10d,esi
  405fbb:	41 c1 ea 06          	shr    r10d,0x6
  405fbf:	41 83 e2 3f          	and    r10d,0x3f
  405fc3:	41 89 f6             	mov    r14d,esi
  405fc6:	41 83 e6 3f          	and    r14d,0x3f
  405fca:	89 f3                	mov    ebx,esi
  405fcc:	c1 eb 13             	shr    ebx,0x13
  405fcf:	83 e3 0f             	and    ebx,0xf
  405fd2:	8b 8f c8 01 00 00    	mov    ecx,DWORD PTR [rdi+0x1c8]
  405fd8:	48 63 87 d8 01 00 00 	movsxd rax,DWORD PTR [rdi+0x1d8]
  405fdf:	48 c1 e0 05          	shl    rax,0x5
  405fe3:	89 8c 07 f0 01 00 00 	mov    DWORD PTR [rdi+rax*1+0x1f0],ecx
  405fea:	85 c9                	test   ecx,ecx
  405fec:	74 0a                	je     405ff8 <_Z4makeP7state_ti+0x48>
  405fee:	c7 87 c8 01 00 00 00 	mov    DWORD PTR [rdi+0x1c8],0x0
  405ff5:	00 00 00 
  405ff8:	41 89 f1             	mov    r9d,esi
  405ffb:	41 c1 e9 10          	shr    r9d,0x10
  405fff:	8b 8f dc 01 00 00    	mov    ecx,DWORD PTR [rdi+0x1dc]
  406005:	89 8c 07 f4 01 00 00 	mov    DWORD PTR [rdi+rax*1+0x1f4],ecx
  40600c:	8b 97 c4 01 00 00    	mov    edx,DWORD PTR [rdi+0x1c4]
  406012:	89 94 07 f8 01 00 00 	mov    DWORD PTR [rdi+rax*1+0x1f8],edx
  406019:	44 8b bf 8c 01 00 00 	mov    r15d,DWORD PTR [rdi+0x18c]
  406020:	44 89 bc 07 fc 01 00 	mov    DWORD PTR [rdi+rax*1+0x1fc],r15d
  406027:	00 
  406028:	45 89 d4             	mov    r12d,r10d
  40602b:	42 8b 6c a7 04       	mov    ebp,DWORD PTR [rdi+r12*4+0x4]
  406030:	83 c5 01             	add    ebp,0x1
  406033:	83 e5 fe             	and    ebp,0xfffffffe
  406036:	83 c1 01             	add    ecx,0x1
  406039:	31 d2                	xor    edx,edx
  40603b:	83 fd 02             	cmp    ebp,0x2
  40603e:	0f 44 ca             	cmove  ecx,edx
  406041:	83 fb 0d             	cmp    ebx,0xd
  406044:	0f 45 ca             	cmovne ecx,edx
  406047:	89 8f dc 01 00 00    	mov    DWORD PTR [rdi+0x1dc],ecx
  40604d:	48 8b af e0 01 00 00 	mov    rbp,QWORD PTR [rdi+0x1e0]
  406054:	48 89 ac 07 00 02 00 	mov    QWORD PTR [rdi+rax*1+0x200],rbp
  40605b:	00 
  40605c:	48 8b 8f e8 01 00 00 	mov    rcx,QWORD PTR [rdi+0x1e8]
  406063:	48 89 8c 07 08 02 00 	mov    QWORD PTR [rdi+rax*1+0x208],rcx
  40606a:	00 
  40606b:	4e 8b 04 f5 10 7f 41 	mov    r8,QWORD PTR [r14*8+0x417f10]
  406072:	00 
  406073:	4e 8b 1c e5 10 7f 41 	mov    r11,QWORD PTR [r12*8+0x417f10]
  40607a:	00 
  40607b:	4d 09 c3             	or     r11,r8
  40607e:	f7 c6 00 00 80 00    	test   esi,0x800000
  406084:	0f 85 8d 00 00 00    	jne    406117 <_Z4makeP7state_ti+0x167>
  40608a:	83 fb 0d             	cmp    ebx,0xd
  40608d:	0f 84 5f 01 00 00    	je     4061f2 <_Z4makeP7state_ti+0x242>
  406093:	89 d8                	mov    eax,ebx
  406095:	4c 31 84 c7 20 01 00 	xor    QWORD PTR [rdi+rax*8+0x120],r8
  40609c:	00 
  40609d:	83 c3 01             	add    ebx,0x1
  4060a0:	31 c9                	xor    ecx,ecx
  4060a2:	f6 c3 01             	test   bl,0x1
  4060a5:	0f 94 c1             	sete   cl
  4060a8:	4c 31 84 cf 10 01 00 	xor    QWORD PTR [rdi+rcx*8+0x110],r8
  4060af:	00 
  4060b0:	8b 0c 85 00 08 41 00 	mov    ecx,DWORD PTR [rax*4+0x410800]
  4060b7:	29 8f 88 01 00 00    	sub    DWORD PTR [rdi+0x188],ecx
  4060bd:	83 84 87 90 01 00 00 	add    DWORD PTR [rdi+rax*4+0x190],0xffffffff
  4060c4:	ff 
  4060c5:	48 89 c1             	mov    rcx,rax
  4060c8:	48 c1 e1 06          	shl    rcx,0x6
  4060cc:	42 0f be 8c 31 20 9b 	movsx  ecx,BYTE PTR [rcx+r14*1+0xf29b20]
  4060d3:	f2 00 
  4060d5:	41 29 cf             	sub    r15d,ecx
  4060d8:	44 89 bf 8c 01 00 00 	mov    DWORD PTR [rdi+0x18c],r15d
  4060df:	48 c1 e0 09          	shl    rax,0x9
  4060e3:	4a 8b 8c f0 50 82 f8 	mov    rcx,QWORD PTR [rax+r14*8+0xf88250]
  4060ea:	00 
  4060eb:	48 31 8f e0 01 00 00 	xor    QWORD PTR [rdi+0x1e0],rcx
  4060f2:	83 e3 fe             	and    ebx,0xfffffffe
  4060f5:	83 fb 02             	cmp    ebx,0x2
  4060f8:	0f 85 f4 00 00 00    	jne    4061f2 <_Z4makeP7state_ti+0x242>
  4060fe:	4a 8d 04 f0          	lea    rax,[rax+r14*8]
  406102:	48 05 50 82 f8 00    	add    rax,0xf88250
  406108:	48 8b 00             	mov    rax,QWORD PTR [rax]
  40610b:	48 31 87 e8 01 00 00 	xor    QWORD PTR [rdi+0x1e8],rax
  406112:	e9 db 00 00 00       	jmp    4061f2 <_Z4makeP7state_ti+0x242>
  406117:	42 83 7c a7 04 02    	cmp    DWORD PTR [rdi+r12*4+0x4],0x2
  40611d:	75 58                	jne    406177 <_Z4makeP7state_ti+0x1c7>
  40611f:	44 89 f0             	mov    eax,r14d
  406122:	48 8b 14 c5 d0 80 41 	mov    rdx,QWORD PTR [rax*8+0x4180d0]
  406129:	00 
  40612a:	48 21 97 18 01 00 00 	and    QWORD PTR [rdi+0x118],rdx
  406131:	48 8b 14 c5 d0 80 41 	mov    rdx,QWORD PTR [rax*8+0x4180d0]
  406138:	00 
  406139:	48 21 97 28 01 00 00 	and    QWORD PTR [rdi+0x128],rdx
  406140:	48 33 2c c5 10 84 f8 	xor    rbp,QWORD PTR [rax*8+0xf88410]
  406147:	00 
  406148:	48 89 af e0 01 00 00 	mov    QWORD PTR [rdi+0x1e0],rbp
  40614f:	48 33 0c c5 10 84 f8 	xor    rcx,QWORD PTR [rax*8+0xf88410]
  406156:	00 
  406157:	48 89 8f e8 01 00 00 	mov    QWORD PTR [rdi+0x1e8],rcx
  40615e:	8b 05 a0 a6 00 00    	mov    eax,DWORD PTR [rip+0xa6a0]        # 410804 <material+0x4>
  406164:	29 87 88 01 00 00    	sub    DWORD PTR [rdi+0x188],eax
  40616a:	41 8d 46 f8          	lea    eax,[r14-0x8]
  40616e:	83 87 94 01 00 00 ff 	add    DWORD PTR [rdi+0x194],0xffffffff
  406175:	eb 56                	jmp    4061cd <_Z4makeP7state_ti+0x21d>
  406177:	44 89 f0             	mov    eax,r14d
  40617a:	48 8b 14 c5 50 81 41 	mov    rdx,QWORD PTR [rax*8+0x418150]
  406181:	00 
  406182:	48 21 97 10 01 00 00 	and    QWORD PTR [rdi+0x110],rdx
  406189:	48 8b 14 c5 50 81 41 	mov    rdx,QWORD PTR [rax*8+0x418150]
  406190:	00 
  406191:	48 21 97 30 01 00 00 	and    QWORD PTR [rdi+0x130],rdx
  406198:	48 33 2c c5 90 86 f8 	xor    rbp,QWORD PTR [rax*8+0xf88690]
  40619f:	00 
  4061a0:	48 89 af e0 01 00 00 	mov    QWORD PTR [rdi+0x1e0],rbp
  4061a7:	48 33 0c c5 90 86 f8 	xor    rcx,QWORD PTR [rax*8+0xf88690]
  4061ae:	00 
  4061af:	48 89 8f e8 01 00 00 	mov    QWORD PTR [rdi+0x1e8],rcx
  4061b6:	8b 05 4c a6 00 00    	mov    eax,DWORD PTR [rip+0xa64c]        # 410808 <material+0x8>
  4061bc:	29 87 88 01 00 00    	sub    DWORD PTR [rdi+0x188],eax
  4061c2:	41 8d 46 08          	lea    eax,[r14+0x8]
  4061c6:	83 87 98 01 00 00 ff 	add    DWORD PTR [rdi+0x198],0xffffffff
  4061cd:	48 98                	cdqe   
  4061cf:	48 63 4c 87 04       	movsxd rcx,DWORD PTR [rdi+rax*4+0x4]
  4061d4:	48 c1 e1 06          	shl    rcx,0x6
  4061d8:	0f be 8c 01 20 9b f2 	movsx  ecx,BYTE PTR [rcx+rax*1+0xf29b20]
  4061df:	00 
  4061e0:	41 29 cf             	sub    r15d,ecx
  4061e3:	44 89 bf 8c 01 00 00 	mov    DWORD PTR [rdi+0x18c],r15d
  4061ea:	c7 44 87 04 0d 00 00 	mov    DWORD PTR [rdi+rax*4+0x4],0xd
  4061f1:	00 
  4061f2:	41 83 e1 07          	and    r9d,0x7
  4061f6:	4a 63 44 a7 04       	movsxd rax,DWORD PTR [rdi+r12*4+0x4]
  4061fb:	42 c7 44 a7 04 0d 00 	mov    DWORD PTR [rdi+r12*4+0x4],0xd
  406202:	00 00 
  406204:	42 89 44 b7 04       	mov    DWORD PTR [rdi+r14*4+0x4],eax
  406209:	48 89 c1             	mov    rcx,rax
  40620c:	48 c1 e1 06          	shl    rcx,0x6
  406210:	42 0f be 94 21 20 9b 	movsx  edx,BYTE PTR [rcx+r12*1+0xf29b20]
  406217:	f2 00 
  406219:	8b 9f 8c 01 00 00    	mov    ebx,DWORD PTR [rdi+0x18c]
  40621f:	29 d3                	sub    ebx,edx
  406221:	89 9f 8c 01 00 00    	mov    DWORD PTR [rdi+0x18c],ebx
  406227:	42 0f be 8c 31 20 9b 	movsx  ecx,BYTE PTR [rcx+r14*1+0xf29b20]
  40622e:	f2 00 
  406230:	01 d9                	add    ecx,ebx
  406232:	89 8f 8c 01 00 00    	mov    DWORD PTR [rdi+0x18c],ecx
  406238:	8d 58 01             	lea    ebx,[rax+0x1]
  40623b:	89 d9                	mov    ecx,ebx
  40623d:	83 e1 fe             	and    ecx,0xfffffffe
  406240:	83 f9 02             	cmp    ecx,0x2
  406243:	75 16                	jne    40625b <_Z4makeP7state_ti+0x2ab>
  406245:	48 89 c1             	mov    rcx,rax
  406248:	48 c1 e1 09          	shl    rcx,0x9
  40624c:	4a 8b 8c e1 50 82 f8 	mov    rcx,QWORD PTR [rcx+r12*8+0xf88250]
  406253:	00 
  406254:	48 31 8f e8 01 00 00 	xor    QWORD PTR [rdi+0x1e8],rcx
  40625b:	c1 ee 0c             	shr    esi,0xc
  40625e:	48 89 c1             	mov    rcx,rax
  406261:	48 c1 e1 09          	shl    rcx,0x9
  406265:	4a 8b 94 e1 50 82 f8 	mov    rdx,QWORD PTR [rcx+r12*8+0xf88250]
  40626c:	00 
  40626d:	48 31 97 e0 01 00 00 	xor    QWORD PTR [rdi+0x1e0],rdx
  406274:	45 85 c9             	test   r9d,r9d
  406277:	75 18                	jne    406291 <_Z4makeP7state_ti+0x2e1>
  406279:	4c 31 9c c7 20 01 00 	xor    QWORD PTR [rdi+rax*8+0x120],r11
  406280:	00 
  406281:	31 d2                	xor    edx,edx
  406283:	f6 c3 01             	test   bl,0x1
  406286:	0f 94 c2             	sete   dl
  406289:	4c 31 9c d7 10 01 00 	xor    QWORD PTR [rdi+rdx*8+0x110],r11
  406290:	00 
  406291:	83 e6 0f             	and    esi,0xf
  406294:	80 b7 cc 01 00 00 01 	xor    BYTE PTR [rdi+0x1cc],0x1
  40629b:	83 87 d8 01 00 00 01 	add    DWORD PTR [rdi+0x1d8],0x1
  4062a2:	83 f8 02             	cmp    eax,0x2
  4062a5:	0f 84 98 00 00 00    	je     406343 <_Z4makeP7state_ti+0x393>
  4062ab:	83 f8 01             	cmp    eax,0x1
  4062ae:	0f 85 1e 01 00 00    	jne    4063d2 <_Z4makeP7state_ti+0x422>
  4062b4:	85 f6                	test   esi,esi
  4062b6:	0f 84 2c 02 00 00    	je     4064e8 <_Z4makeP7state_ti+0x538>
  4062bc:	42 89 74 b7 04       	mov    DWORD PTR [rdi+r14*4+0x4],esi
  4062c1:	41 0f be 86 60 9b f2 	movsx  eax,BYTE PTR [r14+0xf29b60]
  4062c8:	00 
  4062c9:	8b 8f 8c 01 00 00    	mov    ecx,DWORD PTR [rdi+0x18c]
  4062cf:	29 c1                	sub    ecx,eax
  4062d1:	89 8f 8c 01 00 00    	mov    DWORD PTR [rdi+0x18c],ecx
  4062d7:	89 f0                	mov    eax,esi
  4062d9:	48 89 c2             	mov    rdx,rax
  4062dc:	48 c1 e2 06          	shl    rdx,0x6
  4062e0:	42 0f be 94 32 20 9b 	movsx  edx,BYTE PTR [rdx+r14*1+0xf29b20]
  4062e7:	f2 00 
  4062e9:	01 ca                	add    edx,ecx
  4062eb:	89 97 8c 01 00 00    	mov    DWORD PTR [rdi+0x18c],edx
  4062f1:	48 89 c1             	mov    rcx,rax
  4062f4:	48 c1 e1 09          	shl    rcx,0x9
  4062f8:	4a 8b 8c f1 50 82 f8 	mov    rcx,QWORD PTR [rcx+r14*8+0xf88250]
  4062ff:	00 
  406300:	48 31 8f e0 01 00 00 	xor    QWORD PTR [rdi+0x1e0],rcx
  406307:	83 87 94 01 00 00 ff 	add    DWORD PTR [rdi+0x194],0xffffffff
  40630e:	83 84 87 90 01 00 00 	add    DWORD PTR [rdi+rax*4+0x190],0x1
  406315:	01 
  406316:	8b 8f 88 01 00 00    	mov    ecx,DWORD PTR [rdi+0x188]
  40631c:	2b 0d e2 a4 00 00    	sub    ecx,DWORD PTR [rip+0xa4e2]        # 410804 <material+0x4>
  406322:	03 0c 85 00 08 41 00 	add    ecx,DWORD PTR [rax*4+0x410800]
  406329:	89 8f 88 01 00 00    	mov    DWORD PTR [rdi+0x188],ecx
  40632f:	4c 09 84 c7 20 01 00 	or     QWORD PTR [rdi+rax*8+0x120],r8
  406336:	00 
  406337:	4c 31 87 28 01 00 00 	xor    QWORD PTR [rdi+0x128],r8
  40633e:	e9 fd 02 00 00       	jmp    406640 <_Z4makeP7state_ti+0x690>
  406343:	85 f6                	test   esi,esi
  406345:	0f 84 d3 01 00 00    	je     40651e <_Z4makeP7state_ti+0x56e>
  40634b:	42 89 74 b7 04       	mov    DWORD PTR [rdi+r14*4+0x4],esi
  406350:	41 0f be 86 a0 9b f2 	movsx  eax,BYTE PTR [r14+0xf29ba0]
  406357:	00 
  406358:	8b 8f 8c 01 00 00    	mov    ecx,DWORD PTR [rdi+0x18c]
  40635e:	29 c1                	sub    ecx,eax
  406360:	89 8f 8c 01 00 00    	mov    DWORD PTR [rdi+0x18c],ecx
  406366:	89 f0                	mov    eax,esi
  406368:	48 89 c2             	mov    rdx,rax
  40636b:	48 c1 e2 06          	shl    rdx,0x6
  40636f:	42 0f be 94 32 20 9b 	movsx  edx,BYTE PTR [rdx+r14*1+0xf29b20]
  406376:	f2 00 
  406378:	01 ca                	add    edx,ecx
  40637a:	89 97 8c 01 00 00    	mov    DWORD PTR [rdi+0x18c],edx
  406380:	48 89 c1             	mov    rcx,rax
  406383:	48 c1 e1 09          	shl    rcx,0x9
  406387:	4a 8b 8c f1 50 82 f8 	mov    rcx,QWORD PTR [rcx+r14*8+0xf88250]
  40638e:	00 
  40638f:	48 31 8f e0 01 00 00 	xor    QWORD PTR [rdi+0x1e0],rcx
  406396:	83 84 87 90 01 00 00 	add    DWORD PTR [rdi+rax*4+0x190],0x1
  40639d:	01 
  40639e:	83 87 98 01 00 00 ff 	add    DWORD PTR [rdi+0x198],0xffffffff
  4063a5:	8b 8f 88 01 00 00    	mov    ecx,DWORD PTR [rdi+0x188]
  4063ab:	2b 0d 57 a4 00 00    	sub    ecx,DWORD PTR [rip+0xa457]        # 410808 <material+0x8>
  4063b1:	03 0c 85 00 08 41 00 	add    ecx,DWORD PTR [rax*4+0x410800]
  4063b8:	89 8f 88 01 00 00    	mov    DWORD PTR [rdi+0x188],ecx
  4063be:	4c 09 84 c7 20 01 00 	or     QWORD PTR [rdi+rax*8+0x120],r8
  4063c5:	00 
  4063c6:	4c 31 87 30 01 00 00 	xor    QWORD PTR [rdi+0x130],r8
  4063cd:	e9 6e 02 00 00       	jmp    406640 <_Z4makeP7state_ti+0x690>
  4063d2:	8d 50 fb             	lea    edx,[rax-0x5]
  4063d5:	83 fa 02             	cmp    edx,0x2
  4063d8:	72 14                	jb     4063ee <_Z4makeP7state_ti+0x43e>
  4063da:	4a 8b 84 f1 50 82 f8 	mov    rax,QWORD PTR [rcx+r14*8+0xf88250]
  4063e1:	00 
  4063e2:	48 31 87 e0 01 00 00 	xor    QWORD PTR [rdi+0x1e0],rax
  4063e9:	e9 52 02 00 00       	jmp    406640 <_Z4makeP7state_ti+0x690>
  4063ee:	83 f8 05             	cmp    eax,0x5
  4063f1:	0f 85 5d 01 00 00    	jne    406554 <_Z4makeP7state_ti+0x5a4>
  4063f7:	48 8b 87 e0 01 00 00 	mov    rax,QWORD PTR [rdi+0x1e0]
  4063fe:	4a 33 04 f5 50 8c f8 	xor    rax,QWORD PTR [r14*8+0xf88c50]
  406405:	00 
  406406:	80 a7 c4 01 00 00 f9 	and    BYTE PTR [rdi+0x1c4],0xf9
  40640d:	48 89 87 e0 01 00 00 	mov    QWORD PTR [rdi+0x1e0],rax
  406414:	44 89 b7 d0 01 00 00 	mov    DWORD PTR [rdi+0x1d0],r14d
  40641b:	45 85 c9             	test   r9d,r9d
  40641e:	0f 84 1c 02 00 00    	je     406640 <_Z4makeP7state_ti+0x690>
  406424:	31 d2                	xor    edx,edx
  406426:	41 83 f9 01          	cmp    r9d,0x1
  40642a:	0f 94 c2             	sete   dl
  40642d:	8d 4c 12 3b          	lea    ecx,[rdx+rdx*1+0x3b]
  406431:	8b b4 97 1c 11 00 00 	mov    esi,DWORD PTR [rdi+rdx*4+0x111c]
  406438:	48 63 d6             	movsxd rdx,esi
  40643b:	c7 44 8f 04 07 00 00 	mov    DWORD PTR [rdi+rcx*4+0x4],0x7
  406442:	00 
  406443:	39 ca                	cmp    edx,ecx
  406445:	74 0d                	je     406454 <_Z4makeP7state_ti+0x4a4>
  406447:	44 39 f6             	cmp    esi,r14d
  40644a:	74 08                	je     406454 <_Z4makeP7state_ti+0x4a4>
  40644c:	c7 44 97 04 0d 00 00 	mov    DWORD PTR [rdi+rdx*4+0x4],0xd
  406453:	00 
  406454:	0f be b2 e0 9c f2 00 	movsx  esi,BYTE PTR [rdx+0xf29ce0]
  40645b:	8b af 8c 01 00 00    	mov    ebp,DWORD PTR [rdi+0x18c]
  406461:	29 f5                	sub    ebp,esi
  406463:	89 af 8c 01 00 00    	mov    DWORD PTR [rdi+0x18c],ebp
  406469:	0f be b1 e0 9c f2 00 	movsx  esi,BYTE PTR [rcx+0xf29ce0]
  406470:	01 ee                	add    esi,ebp
  406472:	89 b7 8c 01 00 00    	mov    DWORD PTR [rdi+0x18c],esi
  406478:	48 33 04 d5 50 90 f8 	xor    rax,QWORD PTR [rdx*8+0xf89050]
  40647f:	00 
  406480:	48 89 87 e0 01 00 00 	mov    QWORD PTR [rdi+0x1e0],rax
  406487:	48 33 04 cd 50 90 f8 	xor    rax,QWORD PTR [rcx*8+0xf89050]
  40648e:	00 
  40648f:	48 89 87 e0 01 00 00 	mov    QWORD PTR [rdi+0x1e0],rax
  406496:	48 8b 87 58 01 00 00 	mov    rax,QWORD PTR [rdi+0x158]
  40649d:	48 33 04 d5 10 7f 41 	xor    rax,QWORD PTR [rdx*8+0x417f10]
  4064a4:	00 
  4064a5:	48 89 87 58 01 00 00 	mov    QWORD PTR [rdi+0x158],rax
  4064ac:	48 33 04 cd 10 7f 41 	xor    rax,QWORD PTR [rcx*8+0x417f10]
  4064b3:	00 
  4064b4:	48 89 87 58 01 00 00 	mov    QWORD PTR [rdi+0x158],rax
  4064bb:	48 63 87 d0 01 00 00 	movsxd rax,DWORD PTR [rdi+0x1d0]
  4064c2:	48 8b 04 c5 10 7f 41 	mov    rax,QWORD PTR [rax*8+0x417f10]
  4064c9:	00 
  4064ca:	48 89 87 48 01 00 00 	mov    QWORD PTR [rdi+0x148],rax
  4064d1:	44 89 c8             	mov    eax,r9d
  4064d4:	48 8b 04 c5 88 8e 41 	mov    rax,QWORD PTR [rax*8+0x418e88]
  4064db:	00 
  4064dc:	48 31 87 18 01 00 00 	xor    QWORD PTR [rdi+0x118],rax
  4064e3:	e9 58 01 00 00       	jmp    406640 <_Z4makeP7state_ti+0x690>
  4064e8:	41 8d 42 f0          	lea    eax,[r10-0x10]
  4064ec:	41 39 c6             	cmp    r14d,eax
  4064ef:	75 0a                	jne    4064fb <_Z4makeP7state_ti+0x54b>
  4064f1:	41 8d 42 f8          	lea    eax,[r10-0x8]
  4064f5:	89 87 c8 01 00 00    	mov    DWORD PTR [rdi+0x1c8],eax
  4064fb:	4a 8b 04 f5 50 84 f8 	mov    rax,QWORD PTR [r14*8+0xf88450]
  406502:	00 
  406503:	48 31 87 e0 01 00 00 	xor    QWORD PTR [rdi+0x1e0],rax
  40650a:	4a 8b 04 f5 50 84 f8 	mov    rax,QWORD PTR [r14*8+0xf88450]
  406511:	00 
  406512:	48 31 87 e8 01 00 00 	xor    QWORD PTR [rdi+0x1e8],rax
  406519:	e9 22 01 00 00       	jmp    406640 <_Z4makeP7state_ti+0x690>
  40651e:	41 8d 42 10          	lea    eax,[r10+0x10]
  406522:	41 39 c6             	cmp    r14d,eax
  406525:	75 0a                	jne    406531 <_Z4makeP7state_ti+0x581>
  406527:	41 8d 42 08          	lea    eax,[r10+0x8]
  40652b:	89 87 c8 01 00 00    	mov    DWORD PTR [rdi+0x1c8],eax
  406531:	4a 8b 04 f5 50 86 f8 	mov    rax,QWORD PTR [r14*8+0xf88650]
  406538:	00 
  406539:	48 31 87 e0 01 00 00 	xor    QWORD PTR [rdi+0x1e0],rax
  406540:	4a 8b 04 f5 50 86 f8 	mov    rax,QWORD PTR [r14*8+0xf88650]
  406547:	00 
  406548:	48 31 87 e8 01 00 00 	xor    QWORD PTR [rdi+0x1e8],rax
  40654f:	e9 ec 00 00 00       	jmp    406640 <_Z4makeP7state_ti+0x690>
  406554:	48 8b 87 e0 01 00 00 	mov    rax,QWORD PTR [rdi+0x1e0]
  40655b:	4a 33 04 f5 50 8e f8 	xor    rax,QWORD PTR [r14*8+0xf88e50]
  406562:	00 
  406563:	80 a7 c4 01 00 00 e7 	and    BYTE PTR [rdi+0x1c4],0xe7
  40656a:	48 89 87 e0 01 00 00 	mov    QWORD PTR [rdi+0x1e0],rax
  406571:	44 89 b7 d4 01 00 00 	mov    DWORD PTR [rdi+0x1d4],r14d
  406578:	45 85 c9             	test   r9d,r9d
  40657b:	0f 84 bf 00 00 00    	je     406640 <_Z4makeP7state_ti+0x690>
  406581:	31 d2                	xor    edx,edx
  406583:	41 83 f9 03          	cmp    r9d,0x3
  406587:	0f 94 c2             	sete   dl
  40658a:	8d 4c 12 03          	lea    ecx,[rdx+rdx*1+0x3]
  40658e:	8b b4 97 24 11 00 00 	mov    esi,DWORD PTR [rdi+rdx*4+0x1124]
  406595:	48 63 d6             	movsxd rdx,esi
  406598:	c7 44 8f 04 08 00 00 	mov    DWORD PTR [rdi+rcx*4+0x4],0x8
  40659f:	00 
  4065a0:	39 ca                	cmp    edx,ecx
  4065a2:	74 0d                	je     4065b1 <_Z4makeP7state_ti+0x601>
  4065a4:	44 39 f6             	cmp    esi,r14d
  4065a7:	74 08                	je     4065b1 <_Z4makeP7state_ti+0x601>
  4065a9:	c7 44 97 04 0d 00 00 	mov    DWORD PTR [rdi+rdx*4+0x4],0xd
  4065b0:	00 
  4065b1:	0f be b2 20 9d f2 00 	movsx  esi,BYTE PTR [rdx+0xf29d20]
  4065b8:	8b af 8c 01 00 00    	mov    ebp,DWORD PTR [rdi+0x18c]
  4065be:	29 f5                	sub    ebp,esi
  4065c0:	89 af 8c 01 00 00    	mov    DWORD PTR [rdi+0x18c],ebp
  4065c6:	0f be b1 20 9d f2 00 	movsx  esi,BYTE PTR [rcx+0xf29d20]
  4065cd:	01 ee                	add    esi,ebp
  4065cf:	89 b7 8c 01 00 00    	mov    DWORD PTR [rdi+0x18c],esi
  4065d5:	48 33 04 d5 50 92 f8 	xor    rax,QWORD PTR [rdx*8+0xf89250]
  4065dc:	00 
  4065dd:	48 89 87 e0 01 00 00 	mov    QWORD PTR [rdi+0x1e0],rax
  4065e4:	48 33 04 cd 50 92 f8 	xor    rax,QWORD PTR [rcx*8+0xf89250]
  4065eb:	00 
  4065ec:	48 89 87 e0 01 00 00 	mov    QWORD PTR [rdi+0x1e0],rax
  4065f3:	48 8b 87 60 01 00 00 	mov    rax,QWORD PTR [rdi+0x160]
  4065fa:	48 33 04 d5 10 7f 41 	xor    rax,QWORD PTR [rdx*8+0x417f10]
  406601:	00 
  406602:	48 89 87 60 01 00 00 	mov    QWORD PTR [rdi+0x160],rax
  406609:	48 33 04 cd 10 7f 41 	xor    rax,QWORD PTR [rcx*8+0x417f10]
  406610:	00 
  406611:	48 89 87 60 01 00 00 	mov    QWORD PTR [rdi+0x160],rax
  406618:	48 63 87 d4 01 00 00 	movsxd rax,DWORD PTR [rdi+0x1d4]
  40661f:	48 8b 04 c5 10 7f 41 	mov    rax,QWORD PTR [rax*8+0x417f10]
  406626:	00 
  406627:	48 89 87 50 01 00 00 	mov    QWORD PTR [rdi+0x150],rax
  40662e:	44 89 c8             	mov    eax,r9d
  406631:	48 8b 04 c5 88 8e 41 	mov    rax,QWORD PTR [rax*8+0x418e88]
  406638:	00 
  406639:	48 31 87 10 01 00 00 	xor    QWORD PTR [rdi+0x110],rax
  406640:	8b 87 28 11 00 00    	mov    eax,DWORD PTR [rdi+0x1128]
  406646:	41 39 c2             	cmp    r10d,eax
  406649:	74 05                	je     406650 <_Z4makeP7state_ti+0x6a0>
  40664b:	41 39 c6             	cmp    r14d,eax
  40664e:	75 07                	jne    406657 <_Z4makeP7state_ti+0x6a7>
  406650:	80 a7 c4 01 00 00 f7 	and    BYTE PTR [rdi+0x1c4],0xf7
  406657:	8b 87 24 11 00 00    	mov    eax,DWORD PTR [rdi+0x1124]
  40665d:	41 39 c2             	cmp    r10d,eax
  406660:	74 05                	je     406667 <_Z4makeP7state_ti+0x6b7>
  406662:	41 39 c6             	cmp    r14d,eax
  406665:	75 07                	jne    40666e <_Z4makeP7state_ti+0x6be>
  406667:	80 a7 c4 01 00 00 ef 	and    BYTE PTR [rdi+0x1c4],0xef
  40666e:	8b 87 20 11 00 00    	mov    eax,DWORD PTR [rdi+0x1120]
  406674:	41 39 c2             	cmp    r10d,eax
  406677:	74 05                	je     40667e <_Z4makeP7state_ti+0x6ce>
  406679:	41 39 c6             	cmp    r14d,eax
  40667c:	75 07                	jne    406685 <_Z4makeP7state_ti+0x6d5>
  40667e:	80 a7 c4 01 00 00 fd 	and    BYTE PTR [rdi+0x1c4],0xfd
  406685:	8b 87 1c 11 00 00    	mov    eax,DWORD PTR [rdi+0x111c]
  40668b:	41 39 c2             	cmp    r10d,eax
  40668e:	74 05                	je     406695 <_Z4makeP7state_ti+0x6e5>
  406690:	41 39 c6             	cmp    r14d,eax
  406693:	75 07                	jne    40669c <_Z4makeP7state_ti+0x6ec>
  406695:	80 a7 c4 01 00 00 fb 	and    BYTE PTR [rdi+0x1c4],0xfb
  40669c:	48 8b 87 10 01 00 00 	mov    rax,QWORD PTR [rdi+0x110]
  4066a3:	48 0b 87 18 01 00 00 	or     rax,QWORD PTR [rdi+0x118]
  4066aa:	48 89 87 08 01 00 00 	mov    QWORD PTR [rdi+0x108],rax
  4066b1:	5b                   	pop    rbx
  4066b2:	41 5c                	pop    r12
  4066b4:	41 5e                	pop    r14
  4066b6:	41 5f                	pop    r15
  4066b8:	5d                   	pop    rbp
  4066b9:	c3                   	ret    
  4066ba:	66 0f 1f 44 00 00    	nop    WORD PTR [rax+rax*1+0x0]

00000000004066c0 <_Z6unmakeP7state_ti>:
  4066c0:	41 56                	push   r14
  4066c2:	53                   	push   rbx
  4066c3:	41 89 f6             	mov    r14d,esi
  4066c6:	41 c1 ee 06          	shr    r14d,0x6
  4066ca:	41 83 e6 3f          	and    r14d,0x3f
  4066ce:	89 f0                	mov    eax,esi
  4066d0:	83 e0 3f             	and    eax,0x3f
  4066d3:	89 f2                	mov    edx,esi
  4066d5:	c1 ea 0c             	shr    edx,0xc
  4066d8:	41 89 f0             	mov    r8d,esi
  4066db:	41 c1 e8 10          	shr    r8d,0x10
  4066df:	41 83 e0 07          	and    r8d,0x7
  4066e3:	4c 8b 1c c5 10 7f 41 	mov    r11,QWORD PTR [rax*8+0x417f10]
  4066ea:	00 
  4066eb:	4e 8b 0c f5 10 7f 41 	mov    r9,QWORD PTR [r14*8+0x417f10]
  4066f2:	00 
  4066f3:	83 b7 cc 01 00 00 01 	xor    DWORD PTR [rdi+0x1cc],0x1
  4066fa:	4d 09 d9             	or     r9,r11
  4066fd:	48 63 8f d8 01 00 00 	movsxd rcx,DWORD PTR [rdi+0x1d8]
  406704:	48 83 c1 ff          	add    rcx,0xffffffffffffffff
  406708:	89 8f d8 01 00 00    	mov    DWORD PTR [rdi+0x1d8],ecx
  40670e:	48 c1 e1 05          	shl    rcx,0x5
  406712:	8b 9c 0f f0 01 00 00 	mov    ebx,DWORD PTR [rdi+rcx*1+0x1f0]
  406719:	89 9f c8 01 00 00    	mov    DWORD PTR [rdi+0x1c8],ebx
  40671f:	8b 9c 0f f4 01 00 00 	mov    ebx,DWORD PTR [rdi+rcx*1+0x1f4]
  406726:	89 9f dc 01 00 00    	mov    DWORD PTR [rdi+0x1dc],ebx
  40672c:	8b 9c 0f f8 01 00 00 	mov    ebx,DWORD PTR [rdi+rcx*1+0x1f8]
  406733:	89 9f c4 01 00 00    	mov    DWORD PTR [rdi+0x1c4],ebx
  406739:	8b 9c 0f fc 01 00 00 	mov    ebx,DWORD PTR [rdi+rcx*1+0x1fc]
  406740:	89 9f 8c 01 00 00    	mov    DWORD PTR [rdi+0x18c],ebx
  406746:	48 8b 9c 0f 00 02 00 	mov    rbx,QWORD PTR [rdi+rcx*1+0x200]
  40674d:	00 
  40674e:	48 89 9f e0 01 00 00 	mov    QWORD PTR [rdi+0x1e0],rbx
  406755:	48 8b 8c 0f 08 02 00 	mov    rcx,QWORD PTR [rdi+rcx*1+0x208]
  40675c:	00 
  40675d:	48 89 8f e8 01 00 00 	mov    QWORD PTR [rdi+0x1e8],rcx
  406764:	4c 63 54 87 04       	movsxd r10,DWORD PTR [rdi+rax*4+0x4]
  406769:	46 89 54 b7 04       	mov    DWORD PTR [rdi+r14*4+0x4],r10d
  40676e:	f7 c6 00 00 80 00    	test   esi,0x800000
  406774:	75 4d                	jne    4067c3 <_Z6unmakeP7state_ti+0x103>
  406776:	c1 ee 13             	shr    esi,0x13
  406779:	83 e6 0f             	and    esi,0xf
  40677c:	41 39 c6             	cmp    r14d,eax
  40677f:	74 04                	je     406785 <_Z6unmakeP7state_ti+0xc5>
  406781:	89 74 87 04          	mov    DWORD PTR [rdi+rax*4+0x4],esi
  406785:	83 fe 0d             	cmp    esi,0xd
  406788:	0f 84 b7 00 00 00    	je     406845 <_Z6unmakeP7state_ti+0x185>
  40678e:	89 f0                	mov    eax,esi
  406790:	8b 0c 85 00 08 41 00 	mov    ecx,DWORD PTR [rax*4+0x410800]
  406797:	01 8f 88 01 00 00    	add    DWORD PTR [rdi+0x188],ecx
  40679d:	4c 31 9c c7 20 01 00 	xor    QWORD PTR [rdi+rax*8+0x120],r11
  4067a4:	00 
  4067a5:	31 c9                	xor    ecx,ecx
  4067a7:	41 f6 c2 01          	test   r10b,0x1
  4067ab:	0f 94 c1             	sete   cl
  4067ae:	4c 31 9c cf 10 01 00 	xor    QWORD PTR [rdi+rcx*8+0x110],r11
  4067b5:	00 
  4067b6:	83 84 87 90 01 00 00 	add    DWORD PTR [rdi+rax*4+0x190],0x1
  4067bd:	01 
  4067be:	e9 82 00 00 00       	jmp    406845 <_Z6unmakeP7state_ti+0x185>
  4067c3:	c7 44 87 04 0d 00 00 	mov    DWORD PTR [rdi+rax*4+0x4],0xd
  4067ca:	00 
  4067cb:	41 83 fa 01          	cmp    r10d,0x1
  4067cf:	75 3b                	jne    40680c <_Z6unmakeP7state_ti+0x14c>
  4067d1:	48 8b 0c c5 50 7f 41 	mov    rcx,QWORD PTR [rax*8+0x417f50]
  4067d8:	00 
  4067d9:	48 09 8f 10 01 00 00 	or     QWORD PTR [rdi+0x110],rcx
  4067e0:	48 8b 0c c5 50 7f 41 	mov    rcx,QWORD PTR [rax*8+0x417f50]
  4067e7:	00 
  4067e8:	48 09 8f 30 01 00 00 	or     QWORD PTR [rdi+0x130],rcx
  4067ef:	8b 0d 13 a0 00 00    	mov    ecx,DWORD PTR [rip+0xa013]        # 410808 <material+0x8>
  4067f5:	01 8f 88 01 00 00    	add    DWORD PTR [rdi+0x188],ecx
  4067fb:	83 87 98 01 00 00 01 	add    DWORD PTR [rdi+0x198],0x1
  406802:	c7 44 87 24 02 00 00 	mov    DWORD PTR [rdi+rax*4+0x24],0x2
  406809:	00 
  40680a:	eb 39                	jmp    406845 <_Z6unmakeP7state_ti+0x185>
  40680c:	48 8b 0c c5 d0 7e 41 	mov    rcx,QWORD PTR [rax*8+0x417ed0]
  406813:	00 
  406814:	48 09 8f 18 01 00 00 	or     QWORD PTR [rdi+0x118],rcx
  40681b:	48 8b 0c c5 d0 7e 41 	mov    rcx,QWORD PTR [rax*8+0x417ed0]
  406822:	00 
  406823:	48 09 8f 28 01 00 00 	or     QWORD PTR [rdi+0x128],rcx
  40682a:	8b 0d d4 9f 00 00    	mov    ecx,DWORD PTR [rip+0x9fd4]        # 410804 <material+0x4>
  406830:	01 8f 88 01 00 00    	add    DWORD PTR [rdi+0x188],ecx
  406836:	83 87 94 01 00 00 01 	add    DWORD PTR [rdi+0x194],0x1
  40683d:	c7 44 87 e4 01 00 00 	mov    DWORD PTR [rdi+rax*4-0x1c],0x1
  406844:	00 
  406845:	83 e2 0f             	and    edx,0xf
  406848:	45 85 c0             	test   r8d,r8d
  40684b:	74 55                	je     4068a2 <_Z6unmakeP7state_ti+0x1e2>
  40684d:	85 d2                	test   edx,edx
  40684f:	74 6b                	je     4068bc <_Z6unmakeP7state_ti+0x1fc>
  406851:	41 f6 c2 01          	test   r10b,0x1
  406855:	0f 85 17 01 00 00    	jne    406972 <_Z6unmakeP7state_ti+0x2b2>
  40685b:	42 c7 44 b7 04 02 00 	mov    DWORD PTR [rdi+r14*4+0x4],0x2
  406862:	00 00 
  406864:	89 d0                	mov    eax,edx
  406866:	83 84 87 90 01 00 00 	add    DWORD PTR [rdi+rax*4+0x190],0xffffffff
  40686d:	ff 
  40686e:	83 87 98 01 00 00 01 	add    DWORD PTR [rdi+0x198],0x1
  406875:	8b 8f 88 01 00 00    	mov    ecx,DWORD PTR [rdi+0x188]
  40687b:	2b 0c 85 00 08 41 00 	sub    ecx,DWORD PTR [rax*4+0x410800]
  406882:	03 0d 80 9f 00 00    	add    ecx,DWORD PTR [rip+0x9f80]        # 410808 <material+0x8>
  406888:	89 8f 88 01 00 00    	mov    DWORD PTR [rdi+0x188],ecx
  40688e:	4a 8b 0c f5 10 7f 41 	mov    rcx,QWORD PTR [r14*8+0x417f10]
  406895:	00 
  406896:	48 09 8f 30 01 00 00 	or     QWORD PTR [rdi+0x130],rcx
  40689d:	e9 12 01 00 00       	jmp    4069b4 <_Z6unmakeP7state_ti+0x2f4>
  4068a2:	4e 31 8c d7 20 01 00 	xor    QWORD PTR [rdi+r10*8+0x120],r9
  4068a9:	00 
  4068aa:	44 89 d0             	mov    eax,r10d
  4068ad:	83 e0 01             	and    eax,0x1
  4068b0:	4c 31 8c c7 10 01 00 	xor    QWORD PTR [rdi+rax*8+0x110],r9
  4068b7:	00 
  4068b8:	85 d2                	test   edx,edx
  4068ba:	75 95                	jne    406851 <_Z6unmakeP7state_ti+0x191>
  4068bc:	41 83 fa 06          	cmp    r10d,0x6
  4068c0:	0f 84 17 01 00 00    	je     4069dd <_Z6unmakeP7state_ti+0x31d>
  4068c6:	41 83 fa 05          	cmp    r10d,0x5
  4068ca:	0f 85 f4 00 00 00    	jne    4069c4 <_Z6unmakeP7state_ti+0x304>
  4068d0:	44 89 b7 d0 01 00 00 	mov    DWORD PTR [rdi+0x1d0],r14d
  4068d7:	4a 8b 04 f5 10 7f 41 	mov    rax,QWORD PTR [r14*8+0x417f10]
  4068de:	00 
  4068df:	48 89 87 48 01 00 00 	mov    QWORD PTR [rdi+0x148],rax
  4068e6:	45 85 c0             	test   r8d,r8d
  4068e9:	0f 84 d5 00 00 00    	je     4069c4 <_Z6unmakeP7state_ti+0x304>
  4068ef:	31 c0                	xor    eax,eax
  4068f1:	41 83 f8 01          	cmp    r8d,0x1
  4068f5:	0f 94 c0             	sete   al
  4068f8:	8d 54 00 3b          	lea    edx,[rax+rax*1+0x3b]
  4068fc:	8b b4 87 1c 11 00 00 	mov    esi,DWORD PTR [rdi+rax*4+0x111c]
  406903:	48 63 c6             	movsxd rax,esi
  406906:	c7 44 87 04 07 00 00 	mov    DWORD PTR [rdi+rax*4+0x4],0x7
  40690d:	00 
  40690e:	44 39 f2             	cmp    edx,r14d
  406911:	74 0e                	je     406921 <_Z6unmakeP7state_ti+0x261>
  406913:	39 f2                	cmp    edx,esi
  406915:	74 0a                	je     406921 <_Z6unmakeP7state_ti+0x261>
  406917:	89 d1                	mov    ecx,edx
  406919:	c7 44 8f 04 0d 00 00 	mov    DWORD PTR [rdi+rcx*4+0x4],0xd
  406920:	00 
  406921:	89 d1                	mov    ecx,edx
  406923:	48 8b 97 58 01 00 00 	mov    rdx,QWORD PTR [rdi+0x158]
  40692a:	48 33 14 cd 10 7f 41 	xor    rdx,QWORD PTR [rcx*8+0x417f10]
  406931:	00 
  406932:	48 89 97 58 01 00 00 	mov    QWORD PTR [rdi+0x158],rdx
  406939:	48 33 14 c5 10 7f 41 	xor    rdx,QWORD PTR [rax*8+0x417f10]
  406940:	00 
  406941:	48 89 97 58 01 00 00 	mov    QWORD PTR [rdi+0x158],rdx
  406948:	48 63 87 d0 01 00 00 	movsxd rax,DWORD PTR [rdi+0x1d0]
  40694f:	48 8b 04 c5 10 7f 41 	mov    rax,QWORD PTR [rax*8+0x417f10]
  406956:	00 
  406957:	48 89 87 48 01 00 00 	mov    QWORD PTR [rdi+0x148],rax
  40695e:	44 89 c0             	mov    eax,r8d
  406961:	48 8b 04 c5 88 8e 41 	mov    rax,QWORD PTR [rax*8+0x418e88]
  406968:	00 
  406969:	48 31 87 18 01 00 00 	xor    QWORD PTR [rdi+0x118],rax
  406970:	eb 52                	jmp    4069c4 <_Z6unmakeP7state_ti+0x304>
  406972:	42 c7 44 b7 04 01 00 	mov    DWORD PTR [rdi+r14*4+0x4],0x1
  406979:	00 00 
  40697b:	89 d0                	mov    eax,edx
  40697d:	83 84 87 90 01 00 00 	add    DWORD PTR [rdi+rax*4+0x190],0xffffffff
  406984:	ff 
  406985:	83 87 94 01 00 00 01 	add    DWORD PTR [rdi+0x194],0x1
  40698c:	8b 8f 88 01 00 00    	mov    ecx,DWORD PTR [rdi+0x188]
  406992:	2b 0c 85 00 08 41 00 	sub    ecx,DWORD PTR [rax*4+0x410800]
  406999:	03 0d 65 9e 00 00    	add    ecx,DWORD PTR [rip+0x9e65]        # 410804 <material+0x4>
  40699f:	89 8f 88 01 00 00    	mov    DWORD PTR [rdi+0x188],ecx
  4069a5:	4a 8b 0c f5 10 7f 41 	mov    rcx,QWORD PTR [r14*8+0x417f10]
  4069ac:	00 
  4069ad:	48 09 8f 28 01 00 00 	or     QWORD PTR [rdi+0x128],rcx
  4069b4:	4a 8b 0c f5 10 7f 41 	mov    rcx,QWORD PTR [r14*8+0x417f10]
  4069bb:	00 
  4069bc:	48 31 8c c7 20 01 00 	xor    QWORD PTR [rdi+rax*8+0x120],rcx
  4069c3:	00 
  4069c4:	48 8b 87 10 01 00 00 	mov    rax,QWORD PTR [rdi+0x110]
  4069cb:	48 0b 87 18 01 00 00 	or     rax,QWORD PTR [rdi+0x118]
  4069d2:	48 89 87 08 01 00 00 	mov    QWORD PTR [rdi+0x108],rax
  4069d9:	5b                   	pop    rbx
  4069da:	41 5e                	pop    r14
  4069dc:	c3                   	ret    
  4069dd:	44 89 b7 d4 01 00 00 	mov    DWORD PTR [rdi+0x1d4],r14d
  4069e4:	4a 8b 04 f5 10 7f 41 	mov    rax,QWORD PTR [r14*8+0x417f10]
  4069eb:	00 
  4069ec:	48 89 87 50 01 00 00 	mov    QWORD PTR [rdi+0x150],rax
  4069f3:	45 85 c0             	test   r8d,r8d
  4069f6:	74 cc                	je     4069c4 <_Z6unmakeP7state_ti+0x304>
  4069f8:	31 c0                	xor    eax,eax
  4069fa:	41 83 f8 03          	cmp    r8d,0x3
  4069fe:	0f 94 c0             	sete   al
  406a01:	8d 54 00 03          	lea    edx,[rax+rax*1+0x3]
  406a05:	8b b4 87 24 11 00 00 	mov    esi,DWORD PTR [rdi+rax*4+0x1124]
  406a0c:	48 63 c6             	movsxd rax,esi
  406a0f:	c7 44 87 04 08 00 00 	mov    DWORD PTR [rdi+rax*4+0x4],0x8
  406a16:	00 
  406a17:	44 39 f2             	cmp    edx,r14d
  406a1a:	74 0e                	je     406a2a <_Z6unmakeP7state_ti+0x36a>
  406a1c:	39 f2                	cmp    edx,esi
  406a1e:	74 0a                	je     406a2a <_Z6unmakeP7state_ti+0x36a>
  406a20:	89 d1                	mov    ecx,edx
  406a22:	c7 44 8f 04 0d 00 00 	mov    DWORD PTR [rdi+rcx*4+0x4],0xd
  406a29:	00 
  406a2a:	89 d1                	mov    ecx,edx
  406a2c:	48 8b 97 60 01 00 00 	mov    rdx,QWORD PTR [rdi+0x160]
  406a33:	48 33 14 cd 10 7f 41 	xor    rdx,QWORD PTR [rcx*8+0x417f10]
  406a3a:	00 
  406a3b:	48 89 97 60 01 00 00 	mov    QWORD PTR [rdi+0x160],rdx
  406a42:	48 33 14 c5 10 7f 41 	xor    rdx,QWORD PTR [rax*8+0x417f10]
  406a49:	00 
  406a4a:	48 89 97 60 01 00 00 	mov    QWORD PTR [rdi+0x160],rdx
  406a51:	48 63 87 d4 01 00 00 	movsxd rax,DWORD PTR [rdi+0x1d4]
  406a58:	48 8b 04 c5 10 7f 41 	mov    rax,QWORD PTR [rax*8+0x417f10]
  406a5f:	00 
  406a60:	48 89 87 50 01 00 00 	mov    QWORD PTR [rdi+0x150],rax
  406a67:	44 89 c0             	mov    eax,r8d
  406a6a:	48 8b 04 c5 88 8e 41 	mov    rax,QWORD PTR [rax*8+0x418e88]
  406a71:	00 
  406a72:	48 31 87 10 01 00 00 	xor    QWORD PTR [rdi+0x110],rax
  406a79:	e9 46 ff ff ff       	jmp    4069c4 <_Z6unmakeP7state_ti+0x304>
  406a7e:	66 90                	xchg   ax,ax

0000000000406a80 <_Z11check_legalP7state_ti>:
  406a80:	55                   	push   rbp
  406a81:	41 57                	push   r15
  406a83:	41 56                	push   r14
  406a85:	53                   	push   rbx
  406a86:	50                   	push   rax
  406a87:	49 89 fe             	mov    r14,rdi
  406a8a:	c1 ee 10             	shr    esi,0x10
  406a8d:	89 f0                	mov    eax,esi
  406a8f:	24 07                	and    al,0x7
  406a91:	3c 04                	cmp    al,0x4
  406a93:	77 29                	ja     406abe <_Z11check_legalP7state_ti+0x3e>
  406a95:	83 e6 07             	and    esi,0x7
  406a98:	ff 24 f5 b0 07 41 00 	jmp    QWORD PTR [rsi*8+0x4107b0]
  406a9f:	41 83 be cc 01 00 00 	cmp    DWORD PTR [r14+0x1cc],0x0
  406aa6:	00 
  406aa7:	0f 84 a5 00 00 00    	je     406b52 <_Z11check_legalP7state_ti+0xd2>
  406aad:	41 8b b6 d4 01 00 00 	mov    esi,DWORD PTR [r14+0x1d4]
  406ab4:	ba 01 00 00 00       	mov    edx,0x1
  406ab9:	e9 9d 00 00 00       	jmp    406b5b <_Z11check_legalP7state_ti+0xdb>
  406abe:	eb 50                	jmp    406b10 <_Z11check_legalP7state_ti+0x90>
  406ac0:	49 8d 86 14 11 00 00 	lea    rax,[r14+0x1114]
  406ac7:	45 31 ff             	xor    r15d,r15d
  406aca:	bd 3e 00 00 00       	mov    ebp,0x3e
  406acf:	eb 37                	jmp    406b08 <_Z11check_legalP7state_ti+0x88>
  406ad1:	49 8d 86 14 11 00 00 	lea    rax,[r14+0x1114]
  406ad8:	45 31 ff             	xor    r15d,r15d
  406adb:	bd 3a 00 00 00       	mov    ebp,0x3a
  406ae0:	eb 26                	jmp    406b08 <_Z11check_legalP7state_ti+0x88>
  406ae2:	49 8d 86 18 11 00 00 	lea    rax,[r14+0x1118]
  406ae9:	41 bf 01 00 00 00    	mov    r15d,0x1
  406aef:	bd 06 00 00 00       	mov    ebp,0x6
  406af4:	eb 12                	jmp    406b08 <_Z11check_legalP7state_ti+0x88>
  406af6:	49 8d 86 18 11 00 00 	lea    rax,[r14+0x1118]
  406afd:	41 bf 01 00 00 00    	mov    r15d,0x1
  406b03:	bd 02 00 00 00       	mov    ebp,0x2
  406b08:	8b 18                	mov    ebx,DWORD PTR [rax]
  406b0a:	39 dd                	cmp    ebp,ebx
  406b0c:	7e 22                	jle    406b30 <_Z11check_legalP7state_ti+0xb0>
  406b0e:	66 90                	xchg   ax,ax
  406b10:	4c 89 f7             	mov    rdi,r14
  406b13:	89 de                	mov    esi,ebx
  406b15:	44 89 fa             	mov    edx,r15d
  406b18:	e8 83 a7 ff ff       	call   4012a0 <_Z11is_attackedP7state_tii>
  406b1d:	85 c0                	test   eax,eax
  406b1f:	75 2d                	jne    406b4e <_Z11check_legalP7state_ti+0xce>
  406b21:	8d 43 01             	lea    eax,[rbx+0x1]
  406b24:	39 eb                	cmp    ebx,ebp
  406b26:	89 c3                	mov    ebx,eax
  406b28:	7c e6                	jl     406b10 <_Z11check_legalP7state_ti+0x90>
  406b2a:	eb 1e                	jmp    406b4a <_Z11check_legalP7state_ti+0xca>
  406b2c:	0f 1f 40 00          	nop    DWORD PTR [rax+0x0]
  406b30:	4c 89 f7             	mov    rdi,r14
  406b33:	89 de                	mov    esi,ebx
  406b35:	44 89 fa             	mov    edx,r15d
  406b38:	e8 63 a7 ff ff       	call   4012a0 <_Z11is_attackedP7state_tii>
  406b3d:	85 c0                	test   eax,eax
  406b3f:	75 0d                	jne    406b4e <_Z11check_legalP7state_ti+0xce>
  406b41:	8d 43 ff             	lea    eax,[rbx-0x1]
  406b44:	39 eb                	cmp    ebx,ebp
  406b46:	89 c3                	mov    ebx,eax
  406b48:	7f e6                	jg     406b30 <_Z11check_legalP7state_ti+0xb0>
  406b4a:	b0 01                	mov    al,0x1
  406b4c:	eb 1a                	jmp    406b68 <_Z11check_legalP7state_ti+0xe8>
  406b4e:	31 c0                	xor    eax,eax
  406b50:	eb 16                	jmp    406b68 <_Z11check_legalP7state_ti+0xe8>
  406b52:	41 8b b6 d0 01 00 00 	mov    esi,DWORD PTR [r14+0x1d0]
  406b59:	31 d2                	xor    edx,edx
  406b5b:	4c 89 f7             	mov    rdi,r14
  406b5e:	e8 3d a7 ff ff       	call   4012a0 <_Z11is_attackedP7state_tii>
  406b63:	85 c0                	test   eax,eax
  406b65:	0f 94 c0             	sete   al
  406b68:	0f b6 c0             	movzx  eax,al
  406b6b:	48 83 c4 08          	add    rsp,0x8
  406b6f:	5b                   	pop    rbx
  406b70:	41 5e                	pop    r14
  406b72:	41 5f                	pop    r15
  406b74:	5d                   	pop    rbp
  406b75:	c3                   	ret    
  406b76:	66 2e 0f 1f 84 00 00 	cs nop WORD PTR [rax+rax*1+0x0]
  406b7d:	00 00 00 

0000000000406b80 <_Z20check_castle_blockerP7state_ti>:
  406b80:	31 c0                	xor    eax,eax
  406b82:	83 c6 ff             	add    esi,0xffffffff
  406b85:	83 fe 03             	cmp    esi,0x3
  406b88:	0f 87 1d 04 00 00    	ja     406fab <_Z20check_castle_blockerP7state_ti+0x42b>
  406b8e:	ff 24 f5 d8 07 41 00 	jmp    QWORD PTR [rsi*8+0x4107d8]
  406b95:	48 63 97 14 11 00 00 	movsxd rdx,DWORD PTR [rdi+0x1114]
  406b9c:	41 89 d0             	mov    r8d,edx
  406b9f:	48 83 fa 3f          	cmp    rdx,0x3f
  406ba3:	0f 8c 2b 01 00 00    	jl     406cd4 <_Z20check_castle_blockerP7state_ti+0x154>
  406ba9:	8b b7 20 11 00 00    	mov    esi,DWORD PTR [rdi+0x1120]
  406baf:	48 83 c2 01          	add    rdx,0x1
  406bb3:	48 f7 de             	neg    rsi
  406bb6:	66 2e 0f 1f 84 00 00 	cs nop WORD PTR [rax+rax*1+0x0]
  406bbd:	00 00 00 
  406bc0:	48 8d 0c 16          	lea    rcx,[rsi+rdx*1]
  406bc4:	48 83 f9 02          	cmp    rcx,0x2
  406bc8:	74 0b                	je     406bd5 <_Z20check_castle_blockerP7state_ti+0x55>
  406bca:	83 7c 97 fc 0d       	cmp    DWORD PTR [rdi+rdx*4-0x4],0xd
  406bcf:	0f 85 d7 03 00 00    	jne    406fac <_Z20check_castle_blockerP7state_ti+0x42c>
  406bd5:	48 83 c2 ff          	add    rdx,0xffffffffffffffff
  406bd9:	48 83 fa 3f          	cmp    rdx,0x3f
  406bdd:	7f e1                	jg     406bc0 <_Z20check_castle_blockerP7state_ti+0x40>
  406bdf:	e9 2b 01 00 00       	jmp    406d0f <_Z20check_castle_blockerP7state_ti+0x18f>
  406be4:	48 63 97 14 11 00 00 	movsxd rdx,DWORD PTR [rdi+0x1114]
  406beb:	41 89 d0             	mov    r8d,edx
  406bee:	48 83 fa 3b          	cmp    rdx,0x3b
  406bf2:	0f 8c 5c 01 00 00    	jl     406d54 <_Z20check_castle_blockerP7state_ti+0x1d4>
  406bf8:	8b b7 1c 11 00 00    	mov    esi,DWORD PTR [rdi+0x111c]
  406bfe:	48 83 c2 01          	add    rdx,0x1
  406c02:	48 f7 de             	neg    rsi
  406c05:	66 2e 0f 1f 84 00 00 	cs nop WORD PTR [rax+rax*1+0x0]
  406c0c:	00 00 00 
  406c0f:	90                   	nop
  406c10:	48 8d 0c 16          	lea    rcx,[rsi+rdx*1]
  406c14:	48 83 f9 02          	cmp    rcx,0x2
  406c18:	74 0b                	je     406c25 <_Z20check_castle_blockerP7state_ti+0xa5>
  406c1a:	83 7c 97 fc 0d       	cmp    DWORD PTR [rdi+rdx*4-0x4],0xd
  406c1f:	0f 85 8d 03 00 00    	jne    406fb2 <_Z20check_castle_blockerP7state_ti+0x432>
  406c25:	48 83 c2 ff          	add    rdx,0xffffffffffffffff
  406c29:	48 83 fa 3b          	cmp    rdx,0x3b
  406c2d:	7f e1                	jg     406c10 <_Z20check_castle_blockerP7state_ti+0x90>
  406c2f:	e9 5b 01 00 00       	jmp    406d8f <_Z20check_castle_blockerP7state_ti+0x20f>
  406c34:	48 63 97 18 11 00 00 	movsxd rdx,DWORD PTR [rdi+0x1118]
  406c3b:	41 89 d0             	mov    r8d,edx
  406c3e:	48 83 fa 07          	cmp    rdx,0x7
  406c42:	0f 8c 8c 01 00 00    	jl     406dd4 <_Z20check_castle_blockerP7state_ti+0x254>
  406c48:	8b b7 28 11 00 00    	mov    esi,DWORD PTR [rdi+0x1128]
  406c4e:	48 83 c2 01          	add    rdx,0x1
  406c52:	48 f7 de             	neg    rsi
  406c55:	66 2e 0f 1f 84 00 00 	cs nop WORD PTR [rax+rax*1+0x0]
  406c5c:	00 00 00 
  406c5f:	90                   	nop
  406c60:	48 8d 0c 16          	lea    rcx,[rsi+rdx*1]
  406c64:	48 83 f9 02          	cmp    rcx,0x2
  406c68:	74 0b                	je     406c75 <_Z20check_castle_blockerP7state_ti+0xf5>
  406c6a:	83 7c 97 fc 0d       	cmp    DWORD PTR [rdi+rdx*4-0x4],0xd
  406c6f:	0f 85 43 03 00 00    	jne    406fb8 <_Z20check_castle_blockerP7state_ti+0x438>
  406c75:	48 83 c2 ff          	add    rdx,0xffffffffffffffff
  406c79:	48 83 fa 07          	cmp    rdx,0x7
  406c7d:	7f e1                	jg     406c60 <_Z20check_castle_blockerP7state_ti+0xe0>
  406c7f:	e9 8b 01 00 00       	jmp    406e0f <_Z20check_castle_blockerP7state_ti+0x28f>
  406c84:	48 63 97 18 11 00 00 	movsxd rdx,DWORD PTR [rdi+0x1118]
  406c8b:	41 89 d0             	mov    r8d,edx
  406c8e:	48 83 fa 03          	cmp    rdx,0x3
  406c92:	0f 8c bc 01 00 00    	jl     406e54 <_Z20check_castle_blockerP7state_ti+0x2d4>
  406c98:	8b b7 24 11 00 00    	mov    esi,DWORD PTR [rdi+0x1124]
  406c9e:	48 83 c2 01          	add    rdx,0x1
  406ca2:	48 f7 de             	neg    rsi
  406ca5:	66 2e 0f 1f 84 00 00 	cs nop WORD PTR [rax+rax*1+0x0]
  406cac:	00 00 00 
  406caf:	90                   	nop
  406cb0:	48 8d 0c 16          	lea    rcx,[rsi+rdx*1]
  406cb4:	48 83 f9 02          	cmp    rcx,0x2
  406cb8:	74 0b                	je     406cc5 <_Z20check_castle_blockerP7state_ti+0x145>
  406cba:	83 7c 97 fc 0d       	cmp    DWORD PTR [rdi+rdx*4-0x4],0xd
  406cbf:	0f 85 f9 02 00 00    	jne    406fbe <_Z20check_castle_blockerP7state_ti+0x43e>
  406cc5:	48 83 c2 ff          	add    rdx,0xffffffffffffffff
  406cc9:	48 83 fa 03          	cmp    rdx,0x3
  406ccd:	7f e1                	jg     406cb0 <_Z20check_castle_blockerP7state_ti+0x130>
  406ccf:	e9 b7 01 00 00       	jmp    406e8b <_Z20check_castle_blockerP7state_ti+0x30b>
  406cd4:	41 83 f8 3e          	cmp    r8d,0x3e
  406cd8:	74 35                	je     406d0f <_Z20check_castle_blockerP7state_ti+0x18f>
  406cda:	48 63 b7 20 11 00 00 	movsxd rsi,DWORD PTR [rdi+0x1120]
  406ce1:	48 83 c2 ff          	add    rdx,0xffffffffffffffff
  406ce5:	48 f7 de             	neg    rsi
  406ce8:	0f 1f 84 00 00 00 00 	nop    DWORD PTR [rax+rax*1+0x0]
  406cef:	00 
  406cf0:	48 8d 0c 16          	lea    rcx,[rsi+rdx*1]
  406cf4:	48 83 f9 fe          	cmp    rcx,0xfffffffffffffffe
  406cf8:	74 0b                	je     406d05 <_Z20check_castle_blockerP7state_ti+0x185>
  406cfa:	83 7c 97 0c 0d       	cmp    DWORD PTR [rdi+rdx*4+0xc],0xd
  406cff:	0f 85 d7 02 00 00    	jne    406fdc <_Z20check_castle_blockerP7state_ti+0x45c>
  406d05:	48 83 c2 01          	add    rdx,0x1
  406d09:	48 83 fa 3d          	cmp    rdx,0x3d
  406d0d:	7c e1                	jl     406cf0 <_Z20check_castle_blockerP7state_ti+0x170>
  406d0f:	48 63 97 20 11 00 00 	movsxd rdx,DWORD PTR [rdi+0x1120]
  406d16:	48 83 fa 3e          	cmp    rdx,0x3e
  406d1a:	0f 8c b4 01 00 00    	jl     406ed4 <_Z20check_castle_blockerP7state_ti+0x354>
  406d20:	48 83 c2 01          	add    rdx,0x1
  406d24:	49 f7 d8             	neg    r8
  406d27:	66 0f 1f 84 00 00 00 	nop    WORD PTR [rax+rax*1+0x0]
  406d2e:	00 00 
  406d30:	49 8d 0c 10          	lea    rcx,[r8+rdx*1]
  406d34:	48 83 f9 02          	cmp    rcx,0x2
  406d38:	74 0b                	je     406d45 <_Z20check_castle_blockerP7state_ti+0x1c5>
  406d3a:	83 7c 97 fc 0d       	cmp    DWORD PTR [rdi+rdx*4-0x4],0xd
  406d3f:	0f 85 7f 02 00 00    	jne    406fc4 <_Z20check_castle_blockerP7state_ti+0x444>
  406d45:	48 83 c2 ff          	add    rdx,0xffffffffffffffff
  406d49:	48 83 fa 3e          	cmp    rdx,0x3e
  406d4d:	7f e1                	jg     406d30 <_Z20check_castle_blockerP7state_ti+0x1b0>
  406d4f:	e9 57 02 00 00       	jmp    406fab <_Z20check_castle_blockerP7state_ti+0x42b>
  406d54:	41 83 f8 3a          	cmp    r8d,0x3a
  406d58:	74 35                	je     406d8f <_Z20check_castle_blockerP7state_ti+0x20f>
  406d5a:	48 63 b7 1c 11 00 00 	movsxd rsi,DWORD PTR [rdi+0x111c]
  406d61:	48 83 c2 ff          	add    rdx,0xffffffffffffffff
  406d65:	48 f7 de             	neg    rsi
  406d68:	0f 1f 84 00 00 00 00 	nop    DWORD PTR [rax+rax*1+0x0]
  406d6f:	00 
  406d70:	48 8d 0c 16          	lea    rcx,[rsi+rdx*1]
  406d74:	48 83 f9 fe          	cmp    rcx,0xfffffffffffffffe
  406d78:	74 0b                	je     406d85 <_Z20check_castle_blockerP7state_ti+0x205>
  406d7a:	83 7c 97 0c 0d       	cmp    DWORD PTR [rdi+rdx*4+0xc],0xd
  406d7f:	0f 85 5d 02 00 00    	jne    406fe2 <_Z20check_castle_blockerP7state_ti+0x462>
  406d85:	48 83 c2 01          	add    rdx,0x1
  406d89:	48 83 fa 39          	cmp    rdx,0x39
  406d8d:	7c e1                	jl     406d70 <_Z20check_castle_blockerP7state_ti+0x1f0>
  406d8f:	48 63 97 1c 11 00 00 	movsxd rdx,DWORD PTR [rdi+0x111c]
  406d96:	48 83 fa 3c          	cmp    rdx,0x3c
  406d9a:	0f 8c 74 01 00 00    	jl     406f14 <_Z20check_castle_blockerP7state_ti+0x394>
  406da0:	48 83 c2 01          	add    rdx,0x1
  406da4:	49 f7 d8             	neg    r8
  406da7:	66 0f 1f 84 00 00 00 	nop    WORD PTR [rax+rax*1+0x0]
  406dae:	00 00 
  406db0:	49 8d 0c 10          	lea    rcx,[r8+rdx*1]
  406db4:	48 83 f9 02          	cmp    rcx,0x2
  406db8:	74 0b                	je     406dc5 <_Z20check_castle_blockerP7state_ti+0x245>
  406dba:	83 7c 97 fc 0d       	cmp    DWORD PTR [rdi+rdx*4-0x4],0xd
  406dbf:	0f 85 05 02 00 00    	jne    406fca <_Z20check_castle_blockerP7state_ti+0x44a>
  406dc5:	48 83 c2 ff          	add    rdx,0xffffffffffffffff
  406dc9:	48 83 fa 3c          	cmp    rdx,0x3c
  406dcd:	7f e1                	jg     406db0 <_Z20check_castle_blockerP7state_ti+0x230>
  406dcf:	e9 d7 01 00 00       	jmp    406fab <_Z20check_castle_blockerP7state_ti+0x42b>
  406dd4:	41 83 f8 06          	cmp    r8d,0x6
  406dd8:	74 35                	je     406e0f <_Z20check_castle_blockerP7state_ti+0x28f>
  406dda:	48 63 b7 28 11 00 00 	movsxd rsi,DWORD PTR [rdi+0x1128]
  406de1:	48 83 c2 ff          	add    rdx,0xffffffffffffffff
  406de5:	48 f7 de             	neg    rsi
  406de8:	0f 1f 84 00 00 00 00 	nop    DWORD PTR [rax+rax*1+0x0]
  406def:	00 
  406df0:	48 8d 0c 16          	lea    rcx,[rsi+rdx*1]
  406df4:	48 83 f9 fe          	cmp    rcx,0xfffffffffffffffe
  406df8:	74 0b                	je     406e05 <_Z20check_castle_blockerP7state_ti+0x285>
  406dfa:	83 7c 97 0c 0d       	cmp    DWORD PTR [rdi+rdx*4+0xc],0xd
  406dff:	0f 85 e3 01 00 00    	jne    406fe8 <_Z20check_castle_blockerP7state_ti+0x468>
  406e05:	48 83 c2 01          	add    rdx,0x1
  406e09:	48 83 fa 05          	cmp    rdx,0x5
  406e0d:	7c e1                	jl     406df0 <_Z20check_castle_blockerP7state_ti+0x270>
  406e0f:	48 63 97 28 11 00 00 	movsxd rdx,DWORD PTR [rdi+0x1128]
  406e16:	48 83 fa 06          	cmp    rdx,0x6
  406e1a:	0f 8c 31 01 00 00    	jl     406f51 <_Z20check_castle_blockerP7state_ti+0x3d1>
  406e20:	48 83 c2 01          	add    rdx,0x1
  406e24:	49 f7 d8             	neg    r8
  406e27:	66 0f 1f 84 00 00 00 	nop    WORD PTR [rax+rax*1+0x0]
  406e2e:	00 00 
  406e30:	49 8d 0c 10          	lea    rcx,[r8+rdx*1]
  406e34:	48 83 f9 02          	cmp    rcx,0x2
  406e38:	74 0b                	je     406e45 <_Z20check_castle_blockerP7state_ti+0x2c5>
  406e3a:	83 7c 97 fc 0d       	cmp    DWORD PTR [rdi+rdx*4-0x4],0xd
  406e3f:	0f 85 8b 01 00 00    	jne    406fd0 <_Z20check_castle_blockerP7state_ti+0x450>
  406e45:	48 83 c2 ff          	add    rdx,0xffffffffffffffff
  406e49:	48 83 fa 06          	cmp    rdx,0x6
  406e4d:	7f e1                	jg     406e30 <_Z20check_castle_blockerP7state_ti+0x2b0>
  406e4f:	e9 57 01 00 00       	jmp    406fab <_Z20check_castle_blockerP7state_ti+0x42b>
  406e54:	41 83 f8 02          	cmp    r8d,0x2
  406e58:	74 31                	je     406e8b <_Z20check_castle_blockerP7state_ti+0x30b>
  406e5a:	48 63 b7 24 11 00 00 	movsxd rsi,DWORD PTR [rdi+0x1124]
  406e61:	48 83 c2 ff          	add    rdx,0xffffffffffffffff
  406e65:	48 f7 de             	neg    rsi
  406e68:	0f 1f 84 00 00 00 00 	nop    DWORD PTR [rax+rax*1+0x0]
  406e6f:	00 
  406e70:	48 8d 0c 16          	lea    rcx,[rsi+rdx*1]
  406e74:	48 83 f9 fe          	cmp    rcx,0xfffffffffffffffe
  406e78:	74 0b                	je     406e85 <_Z20check_castle_blockerP7state_ti+0x305>
  406e7a:	83 7c 97 0c 0d       	cmp    DWORD PTR [rdi+rdx*4+0xc],0xd
  406e7f:	0f 85 69 01 00 00    	jne    406fee <_Z20check_castle_blockerP7state_ti+0x46e>
  406e85:	48 83 c2 01          	add    rdx,0x1
  406e89:	7e e5                	jle    406e70 <_Z20check_castle_blockerP7state_ti+0x2f0>
  406e8b:	48 63 97 24 11 00 00 	movsxd rdx,DWORD PTR [rdi+0x1124]
  406e92:	48 83 fa 04          	cmp    rdx,0x4
  406e96:	0f 8c e5 00 00 00    	jl     406f81 <_Z20check_castle_blockerP7state_ti+0x401>
  406e9c:	48 83 c2 01          	add    rdx,0x1
  406ea0:	49 f7 d8             	neg    r8
  406ea3:	66 2e 0f 1f 84 00 00 	cs nop WORD PTR [rax+rax*1+0x0]
  406eaa:	00 00 00 
  406ead:	0f 1f 00             	nop    DWORD PTR [rax]
  406eb0:	49 8d 0c 10          	lea    rcx,[r8+rdx*1]
  406eb4:	48 83 f9 02          	cmp    rcx,0x2
  406eb8:	74 0b                	je     406ec5 <_Z20check_castle_blockerP7state_ti+0x345>
  406eba:	83 7c 97 fc 0d       	cmp    DWORD PTR [rdi+rdx*4-0x4],0xd
  406ebf:	0f 85 11 01 00 00    	jne    406fd6 <_Z20check_castle_blockerP7state_ti+0x456>
  406ec5:	48 83 c2 ff          	add    rdx,0xffffffffffffffff
  406ec9:	48 83 fa 04          	cmp    rdx,0x4
  406ecd:	7f e1                	jg     406eb0 <_Z20check_castle_blockerP7state_ti+0x330>
  406ecf:	e9 d7 00 00 00       	jmp    406fab <_Z20check_castle_blockerP7state_ti+0x42b>
  406ed4:	83 fa 3d             	cmp    edx,0x3d
  406ed7:	0f 84 ce 00 00 00    	je     406fab <_Z20check_castle_blockerP7state_ti+0x42b>
  406edd:	49 63 c8             	movsxd rcx,r8d
  406ee0:	48 83 c2 ff          	add    rdx,0xffffffffffffffff
  406ee4:	48 f7 d9             	neg    rcx
  406ee7:	66 0f 1f 84 00 00 00 	nop    WORD PTR [rax+rax*1+0x0]
  406eee:	00 00 
  406ef0:	48 8d 34 11          	lea    rsi,[rcx+rdx*1]
  406ef4:	48 83 fe fe          	cmp    rsi,0xfffffffffffffffe
  406ef8:	74 0b                	je     406f05 <_Z20check_castle_blockerP7state_ti+0x385>
  406efa:	83 7c 97 0c 0d       	cmp    DWORD PTR [rdi+rdx*4+0xc],0xd
  406eff:	0f 85 fb 00 00 00    	jne    407000 <_Z20check_castle_blockerP7state_ti+0x480>
  406f05:	48 83 c2 01          	add    rdx,0x1
  406f09:	48 83 fa 3c          	cmp    rdx,0x3c
  406f0d:	7c e1                	jl     406ef0 <_Z20check_castle_blockerP7state_ti+0x370>
  406f0f:	e9 97 00 00 00       	jmp    406fab <_Z20check_castle_blockerP7state_ti+0x42b>
  406f14:	83 fa 3b             	cmp    edx,0x3b
  406f17:	0f 84 8e 00 00 00    	je     406fab <_Z20check_castle_blockerP7state_ti+0x42b>
  406f1d:	49 63 c8             	movsxd rcx,r8d
  406f20:	48 83 c2 ff          	add    rdx,0xffffffffffffffff
  406f24:	48 f7 d9             	neg    rcx
  406f27:	66 0f 1f 84 00 00 00 	nop    WORD PTR [rax+rax*1+0x0]
  406f2e:	00 00 
  406f30:	48 8d 34 11          	lea    rsi,[rcx+rdx*1]
  406f34:	48 83 fe fe          	cmp    rsi,0xfffffffffffffffe
  406f38:	74 0b                	je     406f45 <_Z20check_castle_blockerP7state_ti+0x3c5>
  406f3a:	83 7c 97 0c 0d       	cmp    DWORD PTR [rdi+rdx*4+0xc],0xd
  406f3f:	0f 85 c1 00 00 00    	jne    407006 <_Z20check_castle_blockerP7state_ti+0x486>
  406f45:	48 83 c2 01          	add    rdx,0x1
  406f49:	48 83 fa 3a          	cmp    rdx,0x3a
  406f4d:	7c e1                	jl     406f30 <_Z20check_castle_blockerP7state_ti+0x3b0>
  406f4f:	eb 5a                	jmp    406fab <_Z20check_castle_blockerP7state_ti+0x42b>
  406f51:	83 fa 05             	cmp    edx,0x5
  406f54:	74 55                	je     406fab <_Z20check_castle_blockerP7state_ti+0x42b>
  406f56:	49 63 c8             	movsxd rcx,r8d
  406f59:	48 83 c2 ff          	add    rdx,0xffffffffffffffff
  406f5d:	48 f7 d9             	neg    rcx
  406f60:	48 8d 34 11          	lea    rsi,[rcx+rdx*1]
  406f64:	48 83 fe fe          	cmp    rsi,0xfffffffffffffffe
  406f68:	74 0b                	je     406f75 <_Z20check_castle_blockerP7state_ti+0x3f5>
  406f6a:	83 7c 97 0c 0d       	cmp    DWORD PTR [rdi+rdx*4+0xc],0xd
  406f6f:	0f 85 7f 00 00 00    	jne    406ff4 <_Z20check_castle_blockerP7state_ti+0x474>
  406f75:	48 83 c2 01          	add    rdx,0x1
  406f79:	48 83 fa 04          	cmp    rdx,0x4
  406f7d:	7c e1                	jl     406f60 <_Z20check_castle_blockerP7state_ti+0x3e0>
  406f7f:	eb 2a                	jmp    406fab <_Z20check_castle_blockerP7state_ti+0x42b>
  406f81:	83 fa 03             	cmp    edx,0x3
  406f84:	74 25                	je     406fab <_Z20check_castle_blockerP7state_ti+0x42b>
  406f86:	49 63 c8             	movsxd rcx,r8d
  406f89:	48 83 c2 ff          	add    rdx,0xffffffffffffffff
  406f8d:	48 f7 d9             	neg    rcx
  406f90:	48 8d 34 11          	lea    rsi,[rcx+rdx*1]
  406f94:	48 83 fe fe          	cmp    rsi,0xfffffffffffffffe
  406f98:	74 07                	je     406fa1 <_Z20check_castle_blockerP7state_ti+0x421>
  406f9a:	83 7c 97 0c 0d       	cmp    DWORD PTR [rdi+rdx*4+0xc],0xd
  406f9f:	75 59                	jne    406ffa <_Z20check_castle_blockerP7state_ti+0x47a>
  406fa1:	48 83 c2 01          	add    rdx,0x1
  406fa5:	48 83 fa 02          	cmp    rdx,0x2
  406fa9:	7c e5                	jl     406f90 <_Z20check_castle_blockerP7state_ti+0x410>
  406fab:	c3                   	ret    
  406fac:	b8 01 00 00 00       	mov    eax,0x1
  406fb1:	c3                   	ret    
  406fb2:	b8 01 00 00 00       	mov    eax,0x1
  406fb7:	c3                   	ret    
  406fb8:	b8 01 00 00 00       	mov    eax,0x1
  406fbd:	c3                   	ret    
  406fbe:	b8 01 00 00 00       	mov    eax,0x1
  406fc3:	c3                   	ret    
  406fc4:	b8 01 00 00 00       	mov    eax,0x1
  406fc9:	c3                   	ret    
  406fca:	b8 01 00 00 00       	mov    eax,0x1
  406fcf:	c3                   	ret    
  406fd0:	b8 01 00 00 00       	mov    eax,0x1
  406fd5:	c3                   	ret    
  406fd6:	b8 01 00 00 00       	mov    eax,0x1
  406fdb:	c3                   	ret    
  406fdc:	b8 01 00 00 00       	mov    eax,0x1
  406fe1:	c3                   	ret    
  406fe2:	b8 01 00 00 00       	mov    eax,0x1
  406fe7:	c3                   	ret    
  406fe8:	b8 01 00 00 00       	mov    eax,0x1
  406fed:	c3                   	ret    
  406fee:	b8 01 00 00 00       	mov    eax,0x1
  406ff3:	c3                   	ret    
  406ff4:	b8 01 00 00 00       	mov    eax,0x1
  406ff9:	c3                   	ret    
  406ffa:	b8 01 00 00 00       	mov    eax,0x1
  406fff:	c3                   	ret    
  407000:	b8 01 00 00 00       	mov    eax,0x1
  407005:	c3                   	ret    
  407006:	b8 01 00 00 00       	mov    eax,0x1
  40700b:	c3                   	ret    
  40700c:	0f 1f 40 00          	nop    DWORD PTR [rax+0x0]

0000000000407010 <_Z5fevalP7state_tiP12t_eval_comps>:
  407010:	55                   	push   rbp
  407011:	48 89 e5             	mov    rbp,rsp
  407014:	41 57                	push   r15
  407016:	41 56                	push   r14
  407018:	41 55                	push   r13
  40701a:	41 54                	push   r12
  40701c:	53                   	push   rbx
  40701d:	48 83 e4 e0          	and    rsp,0xffffffffffffffe0
  407021:	48 81 ec a0 00 00 00 	sub    rsp,0xa0
  407028:	49 89 d6             	mov    r14,rdx
  40702b:	41 89 f4             	mov    r12d,esi
  40702e:	48 89 fb             	mov    rbx,rdi
  407031:	c5 f8 57 c0          	vxorps xmm0,xmm0,xmm0
  407035:	c5 fc 11 44 24 50    	vmovups YMMWORD PTR [rsp+0x50],ymm0
  40703b:	c5 fc 29 44 24 40    	vmovaps YMMWORD PTR [rsp+0x40],ymm0
  407041:	c5 fc 29 44 24 20    	vmovaps YMMWORD PTR [rsp+0x20],ymm0
  407047:	4c 8d 6c 24 20       	lea    r13,[rsp+0x20]
  40704c:	4c 89 ee             	mov    rsi,r13
  40704f:	c5 f8 77             	vzeroupper 
  407052:	e8 89 00 00 00       	call   4070e0 <_ZL13mobility_evalP7state_tP12t_eval_compsP12attackinfo_t>
  407057:	89 44 24 1c          	mov    DWORD PTR [rsp+0x1c],eax
  40705b:	48 89 df             	mov    rdi,rbx
  40705e:	e8 dd 18 00 00       	call   408940 <_Z16static_pawn_evalP7state_t>
  407063:	49 89 c7             	mov    r15,rax
  407066:	8b 40 50             	mov    eax,DWORD PTR [rax+0x50]
  407069:	41 89 46 08          	mov    DWORD PTR [r14+0x8],eax
  40706d:	41 8b 47 54          	mov    eax,DWORD PTR [r15+0x54]
  407071:	41 89 46 0c          	mov    DWORD PTR [r14+0xc],eax
  407075:	48 89 df             	mov    rdi,rbx
  407078:	4c 89 fe             	mov    rsi,r15
  40707b:	4c 89 f2             	mov    rdx,r14
  40707e:	e8 5d 06 00 00       	call   4076e0 <_ZL15kingsafety_evalP7state_tP8pawntt_tP12t_eval_comps>
  407083:	48 89 df             	mov    rdi,rbx
  407086:	4c 89 ee             	mov    rsi,r13
  407089:	4c 89 f2             	mov    rdx,r14
  40708c:	e8 cf 09 00 00       	call   407a60 <_ZL17kingpressure_evalP7state_tP12attackinfo_tP12t_eval_comps>
  407091:	48 89 df             	mov    rdi,rbx
  407094:	4c 89 fe             	mov    rsi,r15
  407097:	44 89 e2             	mov    edx,r12d
  40709a:	4c 89 f1             	mov    rcx,r14
  40709d:	e8 2e 0c 00 00       	call   407cd0 <_ZL11passer_evalP7state_tP8pawntt_tiP12t_eval_comps>
  4070a2:	48 89 df             	mov    rdi,rbx
  4070a5:	4c 89 f6             	mov    rsi,r14
  4070a8:	e8 d3 24 00 00       	call   409580 <_Z8psq_evalP7state_tP12t_eval_comps>
  4070ad:	48 89 df             	mov    rdi,rbx
  4070b0:	4c 89 fe             	mov    rsi,r15
  4070b3:	4c 89 f2             	mov    rdx,r14
  4070b6:	e8 a5 11 00 00       	call   408260 <_ZL15positional_evalP7state_tP8pawntt_tP12t_eval_comps>
  4070bb:	48 89 df             	mov    rdi,rbx
  4070be:	e8 5d 13 00 00       	call   408420 <_ZL12trapped_evalP7state_tP12t_eval_comps>
  4070c3:	03 44 24 1c          	add    eax,DWORD PTR [rsp+0x1c]
  4070c7:	41 89 46 28          	mov    DWORD PTR [r14+0x28],eax
  4070cb:	48 8d 65 d8          	lea    rsp,[rbp-0x28]
  4070cf:	5b                   	pop    rbx
  4070d0:	41 5c                	pop    r12
  4070d2:	41 5d                	pop    r13
  4070d4:	41 5e                	pop    r14
  4070d6:	41 5f                	pop    r15
  4070d8:	5d                   	pop    rbp
  4070d9:	c3                   	ret    
  4070da:	66 0f 1f 44 00 00    	nop    WORD PTR [rax+rax*1+0x0]

00000000004070e0 <_ZL13mobility_evalP7state_tP12t_eval_compsP12attackinfo_t>:
  4070e0:	55                   	push   rbp
  4070e1:	41 57                	push   r15
  4070e3:	41 56                	push   r14
  4070e5:	41 55                	push   r13
  4070e7:	41 54                	push   r12
  4070e9:	53                   	push   rbx
  4070ea:	48 83 ec 48          	sub    rsp,0x48
  4070ee:	49 89 fc             	mov    r12,rdi
  4070f1:	48 8b 87 10 01 00 00 	mov    rax,QWORD PTR [rdi+0x110]
  4070f8:	48 89 44 24 20       	mov    QWORD PTR [rsp+0x20],rax
  4070fd:	48 8b 87 18 01 00 00 	mov    rax,QWORD PTR [rdi+0x118]
  407104:	48 f7 d0             	not    rax
  407107:	48 89 44 24 30       	mov    QWORD PTR [rsp+0x30],rax
  40710c:	48 8b 87 28 01 00 00 	mov    rax,QWORD PTR [rdi+0x128]
  407113:	48 8b 0d 2e 16 01 00 	mov    rcx,QWORD PTR [rip+0x1162e]        # 418748 <FileMask+0x38>
  40711a:	48 f7 d1             	not    rcx
  40711d:	48 21 c1             	and    rcx,rax
  407120:	48 c1 e9 07          	shr    rcx,0x7
  407124:	48 8b 15 e5 15 01 00 	mov    rdx,QWORD PTR [rip+0x115e5]        # 418710 <FileMask>
  40712b:	48 f7 d2             	not    rdx
  40712e:	48 21 c2             	and    rdx,rax
  407131:	48 c1 ea 09          	shr    rdx,0x9
  407135:	48 09 ca             	or     rdx,rcx
  407138:	48 89 54 24 28       	mov    QWORD PTR [rsp+0x28],rdx
  40713d:	48 89 16             	mov    QWORD PTR [rsi],rdx
  407140:	48 8b 87 30 01 00 00 	mov    rax,QWORD PTR [rdi+0x130]
  407147:	48 8b 0d fa 15 01 00 	mov    rcx,QWORD PTR [rip+0x115fa]        # 418748 <FileMask+0x38>
  40714e:	48 f7 d1             	not    rcx
  407151:	48 21 c1             	and    rcx,rax
  407154:	48 c1 e1 09          	shl    rcx,0x9
  407158:	4c 8b 35 b1 15 01 00 	mov    r14,QWORD PTR [rip+0x115b1]        # 418710 <FileMask>
  40715f:	49 f7 d6             	not    r14
  407162:	49 21 c6             	and    r14,rax
  407165:	49 c1 e6 07          	shl    r14,0x7
  407169:	49 09 ce             	or     r14,rcx
  40716c:	48 89 74 24 08       	mov    QWORD PTR [rsp+0x8],rsi
  407171:	4c 89 76 08          	mov    QWORD PTR [rsi+0x8],r14
  407175:	49 f7 d6             	not    r14
  407178:	48 8b 87 78 01 00 00 	mov    rax,QWORD PTR [rdi+0x178]
  40717f:	48 89 04 24          	mov    QWORD PTR [rsp],rax
  407183:	41 bf 00 00 00 00    	mov    r15d,0x0
  407189:	48 85 c0             	test   rax,rax
  40718c:	0f 84 8a 00 00 00    	je     40721c <_ZL13mobility_evalP7state_tP12t_eval_compsP12attackinfo_t+0x13c>
  407192:	4d 89 f5             	mov    r13,r14
  407195:	4c 23 6c 24 30       	and    r13,QWORD PTR [rsp+0x30]
  40719a:	31 db                	xor    ebx,ebx
  40719c:	0f 1f 40 00          	nop    DWORD PTR [rax+0x0]
  4071a0:	48 89 e7             	mov    rdi,rsp
  4071a3:	e8 18 b5 ff ff       	call   4026c0 <_Z15FindFirstRemovePy>
  4071a8:	49 8b 8c 24 38 01 00 	mov    rcx,QWORD PTR [r12+0x138]
  4071af:	00 
  4071b0:	49 0b 8c 24 68 01 00 	or     rcx,QWORD PTR [r12+0x168]
  4071b7:	00 
  4071b8:	49 31 8c 24 08 01 00 	xor    QWORD PTR [r12+0x108],rcx
  4071bf:	00 
  4071c0:	4c 89 e7             	mov    rdi,r12
  4071c3:	89 c6                	mov    esi,eax
  4071c5:	e8 46 b4 ff ff       	call   402610 <_Z13BishopAttacksP7state_ti>
  4071ca:	49 8b ac 24 28 01 00 	mov    rbp,QWORD PTR [r12+0x128]
  4071d1:	00 
  4071d2:	48 21 c5             	and    rbp,rax
  4071d5:	48 8b 4c 24 08       	mov    rcx,QWORD PTR [rsp+0x8]
  4071da:	48 89 41 10          	mov    QWORD PTR [rcx+0x10],rax
  4071de:	49 8b 8c 24 38 01 00 	mov    rcx,QWORD PTR [r12+0x138]
  4071e5:	00 
  4071e6:	49 0b 8c 24 68 01 00 	or     rcx,QWORD PTR [r12+0x168]
  4071ed:	00 
  4071ee:	4c 21 e8             	and    rax,r13
  4071f1:	49 31 8c 24 08 01 00 	xor    QWORD PTR [r12+0x108],rcx
  4071f8:	00 
  4071f9:	48 89 c7             	mov    rdi,rax
  4071fc:	e8 2f b5 ff ff       	call   402730 <_Z13ThickPopCounty>
  407201:	41 89 c7             	mov    r15d,eax
  407204:	48 89 ef             	mov    rdi,rbp
  407207:	e8 74 b4 ff ff       	call   402680 <_Z8PopCounty>
  40720c:	41 01 df             	add    r15d,ebx
  40720f:	41 29 c7             	sub    r15d,eax
  407212:	48 83 3c 24 00       	cmp    QWORD PTR [rsp],0x0
  407217:	44 89 fb             	mov    ebx,r15d
  40721a:	75 84                	jne    4071a0 <_ZL13mobility_evalP7state_tP12t_eval_compsP12attackinfo_t+0xc0>
  40721c:	4c 89 74 24 38       	mov    QWORD PTR [rsp+0x38],r14
  407221:	48 f7 54 24 20       	not    QWORD PTR [rsp+0x20]
  407226:	48 f7 54 24 28       	not    QWORD PTR [rsp+0x28]
  40722b:	49 8b 84 24 80 01 00 	mov    rax,QWORD PTR [r12+0x180]
  407232:	00 
  407233:	48 89 04 24          	mov    QWORD PTR [rsp],rax
  407237:	48 85 c0             	test   rax,rax
  40723a:	41 be 00 00 00 00    	mov    r14d,0x0
  407240:	0f 84 93 00 00 00    	je     4072d9 <_ZL13mobility_evalP7state_tP12t_eval_compsP12attackinfo_t+0x1f9>
  407246:	48 8b 5c 24 28       	mov    rbx,QWORD PTR [rsp+0x28]
  40724b:	48 23 5c 24 20       	and    rbx,QWORD PTR [rsp+0x20]
  407250:	45 31 f6             	xor    r14d,r14d
  407253:	66 2e 0f 1f 84 00 00 	cs nop WORD PTR [rax+rax*1+0x0]
  40725a:	00 00 00 
  40725d:	0f 1f 00             	nop    DWORD PTR [rax]
  407260:	48 89 e7             	mov    rdi,rsp
  407263:	e8 58 b4 ff ff       	call   4026c0 <_Z15FindFirstRemovePy>
  407268:	49 8b 8c 24 40 01 00 	mov    rcx,QWORD PTR [r12+0x140]
  40726f:	00 
  407270:	49 0b 8c 24 70 01 00 	or     rcx,QWORD PTR [r12+0x170]
  407277:	00 
  407278:	49 31 8c 24 08 01 00 	xor    QWORD PTR [r12+0x108],rcx
  40727f:	00 
  407280:	4c 89 e7             	mov    rdi,r12
  407283:	89 c6                	mov    esi,eax
  407285:	e8 86 b3 ff ff       	call   402610 <_Z13BishopAttacksP7state_ti>
  40728a:	49 8b ac 24 30 01 00 	mov    rbp,QWORD PTR [r12+0x130]
  407291:	00 
  407292:	48 21 c5             	and    rbp,rax
  407295:	48 8b 4c 24 08       	mov    rcx,QWORD PTR [rsp+0x8]
  40729a:	48 89 41 18          	mov    QWORD PTR [rcx+0x18],rax
  40729e:	49 8b 8c 24 40 01 00 	mov    rcx,QWORD PTR [r12+0x140]
  4072a5:	00 
  4072a6:	49 0b 8c 24 70 01 00 	or     rcx,QWORD PTR [r12+0x170]
  4072ad:	00 
  4072ae:	48 21 d8             	and    rax,rbx
  4072b1:	49 31 8c 24 08 01 00 	xor    QWORD PTR [r12+0x108],rcx
  4072b8:	00 
  4072b9:	48 89 c7             	mov    rdi,rax
  4072bc:	e8 6f b4 ff ff       	call   402730 <_Z13ThickPopCounty>
  4072c1:	41 89 c5             	mov    r13d,eax
  4072c4:	48 89 ef             	mov    rdi,rbp
  4072c7:	e8 b4 b3 ff ff       	call   402680 <_Z8PopCounty>
  4072cc:	45 29 ee             	sub    r14d,r13d
  4072cf:	41 01 c6             	add    r14d,eax
  4072d2:	48 83 3c 24 00       	cmp    QWORD PTR [rsp],0x0
  4072d7:	75 87                	jne    407260 <_ZL13mobility_evalP7state_tP12t_eval_compsP12attackinfo_t+0x180>
  4072d9:	4c 89 74 24 10       	mov    QWORD PTR [rsp+0x10],r14
  4072de:	49 8b 84 24 58 01 00 	mov    rax,QWORD PTR [r12+0x158]
  4072e5:	00 
  4072e6:	48 89 04 24          	mov    QWORD PTR [rsp],rax
  4072ea:	48 85 c0             	test   rax,rax
  4072ed:	0f 84 fd 00 00 00    	je     4073f0 <_ZL13mobility_evalP7state_tP12t_eval_compsP12attackinfo_t+0x310>
  4072f3:	48 8b 44 24 38       	mov    rax,QWORD PTR [rsp+0x38]
  4072f8:	48 23 44 24 30       	and    rax,QWORD PTR [rsp+0x30]
  4072fd:	48 89 44 24 18       	mov    QWORD PTR [rsp+0x18],rax
  407302:	45 31 ed             	xor    r13d,r13d
  407305:	45 89 fe             	mov    r14d,r15d
  407308:	0f 1f 84 00 00 00 00 	nop    DWORD PTR [rax+rax*1+0x0]
  40730f:	00 
  407310:	48 89 e7             	mov    rdi,rsp
  407313:	e8 a8 b3 ff ff       	call   4026c0 <_Z15FindFirstRemovePy>
  407318:	49 8b 8c 24 38 01 00 	mov    rcx,QWORD PTR [r12+0x138]
  40731f:	00 
  407320:	49 0b 8c 24 68 01 00 	or     rcx,QWORD PTR [r12+0x168]
  407327:	00 
  407328:	89 c5                	mov    ebp,eax
  40732a:	49 31 8c 24 08 01 00 	xor    QWORD PTR [r12+0x108],rcx
  407331:	00 
  407332:	4c 89 e7             	mov    rdi,r12
  407335:	89 c6                	mov    esi,eax
  407337:	e8 04 b3 ff ff       	call   402640 <_Z11RookAttacksP7state_ti>
  40733c:	49 8b 9c 24 28 01 00 	mov    rbx,QWORD PTR [r12+0x128]
  407343:	00 
  407344:	48 21 c3             	and    rbx,rax
  407347:	48 8b 4c 24 08       	mov    rcx,QWORD PTR [rsp+0x8]
  40734c:	48 89 41 30          	mov    QWORD PTR [rcx+0x30],rax
  407350:	49 8b 8c 24 38 01 00 	mov    rcx,QWORD PTR [r12+0x138]
  407357:	00 
  407358:	49 0b 8c 24 68 01 00 	or     rcx,QWORD PTR [r12+0x168]
  40735f:	00 
  407360:	48 23 44 24 18       	and    rax,QWORD PTR [rsp+0x18]
  407365:	49 31 8c 24 08 01 00 	xor    QWORD PTR [r12+0x108],rcx
  40736c:	00 
  40736d:	48 89 c7             	mov    rdi,rax
  407370:	e8 bb b3 ff ff       	call   402730 <_Z13ThickPopCounty>
  407375:	41 89 c7             	mov    r15d,eax
  407378:	48 89 df             	mov    rdi,rbx
  40737b:	e8 00 b3 ff ff       	call   402680 <_Z8PopCounty>
  407380:	89 c3                	mov    ebx,eax
  407382:	45 01 f7             	add    r15d,r14d
  407385:	83 e5 07             	and    ebp,0x7
  407388:	48 8b 3c ed 10 87 41 	mov    rdi,QWORD PTR [rbp*8+0x418710]
  40738f:	00 
  407390:	49 85 bc 24 28 01 00 	test   QWORD PTR [r12+0x128],rdi
  407397:	00 
  407398:	75 43                	jne    4073dd <_ZL13mobility_evalP7state_tP12t_eval_compsP12attackinfo_t+0x2fd>
  40739a:	49 23 bc 24 58 01 00 	and    rdi,QWORD PTR [r12+0x158]
  4073a1:	00 
  4073a2:	e8 d9 b2 ff ff       	call   402680 <_Z8PopCounty>
  4073a7:	48 8b 14 ed 10 87 41 	mov    rdx,QWORD PTR [rbp*8+0x418710]
  4073ae:	00 
  4073af:	41 8b 8c 24 94 01 00 	mov    ecx,DWORD PTR [r12+0x194]
  4073b6:	00 
  4073b7:	49 85 94 24 30 01 00 	test   QWORD PTR [r12+0x130],rdx
  4073be:	00 
  4073bf:	74 0c                	je     4073cd <_ZL13mobility_evalP7state_tP12t_eval_compsP12attackinfo_t+0x2ed>
  4073c1:	d1 f9                	sar    ecx,1
  4073c3:	83 f8 02             	cmp    eax,0x2
  4073c6:	7d 0f                	jge    4073d7 <_ZL13mobility_evalP7state_tP12t_eval_compsP12attackinfo_t+0x2f7>
  4073c8:	83 c1 04             	add    ecx,0x4
  4073cb:	eb 0d                	jmp    4073da <_ZL13mobility_evalP7state_tP12t_eval_compsP12attackinfo_t+0x2fa>
  4073cd:	83 f8 02             	cmp    eax,0x2
  4073d0:	7c 05                	jl     4073d7 <_ZL13mobility_evalP7state_tP12t_eval_compsP12attackinfo_t+0x2f7>
  4073d2:	83 c1 0c             	add    ecx,0xc
  4073d5:	eb 03                	jmp    4073da <_ZL13mobility_evalP7state_tP12t_eval_compsP12attackinfo_t+0x2fa>
  4073d7:	83 c1 08             	add    ecx,0x8
  4073da:	41 01 cd             	add    r13d,ecx
  4073dd:	41 29 df             	sub    r15d,ebx
  4073e0:	48 83 3c 24 00       	cmp    QWORD PTR [rsp],0x0
  4073e5:	45 89 fe             	mov    r14d,r15d
  4073e8:	0f 85 22 ff ff ff    	jne    407310 <_ZL13mobility_evalP7state_tP12t_eval_compsP12attackinfo_t+0x230>
  4073ee:	eb 03                	jmp    4073f3 <_ZL13mobility_evalP7state_tP12t_eval_compsP12attackinfo_t+0x313>
  4073f0:	45 31 ed             	xor    r13d,r13d
  4073f3:	49 8b 84 24 60 01 00 	mov    rax,QWORD PTR [r12+0x160]
  4073fa:	00 
  4073fb:	48 89 04 24          	mov    QWORD PTR [rsp],rax
  4073ff:	48 85 c0             	test   rax,rax
  407402:	0f 84 2c 01 00 00    	je     407534 <_ZL13mobility_evalP7state_tP12t_eval_compsP12attackinfo_t+0x454>
  407408:	48 8b 44 24 28       	mov    rax,QWORD PTR [rsp+0x28]
  40740d:	48 23 44 24 20       	and    rax,QWORD PTR [rsp+0x20]
  407412:	48 89 44 24 40       	mov    QWORD PTR [rsp+0x40],rax
  407417:	4c 8b 74 24 08       	mov    r14,QWORD PTR [rsp+0x8]
  40741c:	48 8b 5c 24 10       	mov    rbx,QWORD PTR [rsp+0x10]
  407421:	66 2e 0f 1f 84 00 00 	cs nop WORD PTR [rax+rax*1+0x0]
  407428:	00 00 00 
  40742b:	0f 1f 44 00 00       	nop    DWORD PTR [rax+rax*1+0x0]
  407430:	4c 89 6c 24 18       	mov    QWORD PTR [rsp+0x18],r13
  407435:	48 89 e7             	mov    rdi,rsp
  407438:	e8 83 b2 ff ff       	call   4026c0 <_Z15FindFirstRemovePy>
  40743d:	49 8b 8c 24 40 01 00 	mov    rcx,QWORD PTR [r12+0x140]
  407444:	00 
  407445:	49 0b 8c 24 70 01 00 	or     rcx,QWORD PTR [r12+0x170]
  40744c:	00 
  40744d:	89 c5                	mov    ebp,eax
  40744f:	49 31 8c 24 08 01 00 	xor    QWORD PTR [r12+0x108],rcx
  407456:	00 
  407457:	4c 89 e7             	mov    rdi,r12
  40745a:	89 c6                	mov    esi,eax
  40745c:	e8 df b1 ff ff       	call   402640 <_Z11RookAttacksP7state_ti>
  407461:	4d 8b ac 24 30 01 00 	mov    r13,QWORD PTR [r12+0x130]
  407468:	00 
  407469:	49 21 c5             	and    r13,rax
  40746c:	49 89 46 38          	mov    QWORD PTR [r14+0x38],rax
  407470:	49 8b 8c 24 40 01 00 	mov    rcx,QWORD PTR [r12+0x140]
  407477:	00 
  407478:	49 0b 8c 24 70 01 00 	or     rcx,QWORD PTR [r12+0x170]
  40747f:	00 
  407480:	48 23 44 24 40       	and    rax,QWORD PTR [rsp+0x40]
  407485:	49 31 8c 24 08 01 00 	xor    QWORD PTR [r12+0x108],rcx
  40748c:	00 
  40748d:	48 89 c7             	mov    rdi,rax
  407490:	e8 9b b2 ff ff       	call   402730 <_Z13ThickPopCounty>
  407495:	41 89 c6             	mov    r14d,eax
  407498:	4c 89 ef             	mov    rdi,r13
  40749b:	e8 e0 b1 ff ff       	call   402680 <_Z8PopCounty>
  4074a0:	44 29 f3             	sub    ebx,r14d
  4074a3:	83 e5 07             	and    ebp,0x7
  4074a6:	48 8b 3c ed 10 87 41 	mov    rdi,QWORD PTR [rbp*8+0x418710]
  4074ad:	00 
  4074ae:	49 85 bc 24 30 01 00 	test   QWORD PTR [r12+0x130],rdi
  4074b5:	00 
  4074b6:	74 18                	je     4074d0 <_ZL13mobility_evalP7state_tP12t_eval_compsP12attackinfo_t+0x3f0>
  4074b8:	4c 8b 74 24 08       	mov    r14,QWORD PTR [rsp+0x8]
  4074bd:	4c 8b 6c 24 18       	mov    r13,QWORD PTR [rsp+0x18]
  4074c2:	eb 61                	jmp    407525 <_ZL13mobility_evalP7state_tP12t_eval_compsP12attackinfo_t+0x445>
  4074c4:	66 2e 0f 1f 84 00 00 	cs nop WORD PTR [rax+rax*1+0x0]
  4074cb:	00 00 00 
  4074ce:	66 90                	xchg   ax,ax
  4074d0:	89 44 24 10          	mov    DWORD PTR [rsp+0x10],eax
  4074d4:	49 23 bc 24 60 01 00 	and    rdi,QWORD PTR [r12+0x160]
  4074db:	00 
  4074dc:	e8 9f b1 ff ff       	call   402680 <_Z8PopCounty>
  4074e1:	48 8b 14 ed 10 87 41 	mov    rdx,QWORD PTR [rbp*8+0x418710]
  4074e8:	00 
  4074e9:	41 8b 8c 24 98 01 00 	mov    ecx,DWORD PTR [r12+0x198]
  4074f0:	00 
  4074f1:	49 85 94 24 28 01 00 	test   QWORD PTR [r12+0x128],rdx
  4074f8:	00 
  4074f9:	74 0c                	je     407507 <_ZL13mobility_evalP7state_tP12t_eval_compsP12attackinfo_t+0x427>
  4074fb:	d1 f9                	sar    ecx,1
  4074fd:	83 f8 02             	cmp    eax,0x2
  407500:	7d 0f                	jge    407511 <_ZL13mobility_evalP7state_tP12t_eval_compsP12attackinfo_t+0x431>
  407502:	83 c1 04             	add    ecx,0x4
  407505:	eb 0d                	jmp    407514 <_ZL13mobility_evalP7state_tP12t_eval_compsP12attackinfo_t+0x434>
  407507:	83 f8 02             	cmp    eax,0x2
  40750a:	7c 05                	jl     407511 <_ZL13mobility_evalP7state_tP12t_eval_compsP12attackinfo_t+0x431>
  40750c:	83 c1 0c             	add    ecx,0xc
  40750f:	eb 03                	jmp    407514 <_ZL13mobility_evalP7state_tP12t_eval_compsP12attackinfo_t+0x434>
  407511:	83 c1 08             	add    ecx,0x8
  407514:	4c 8b 74 24 08       	mov    r14,QWORD PTR [rsp+0x8]
  407519:	4c 8b 6c 24 18       	mov    r13,QWORD PTR [rsp+0x18]
  40751e:	8b 44 24 10          	mov    eax,DWORD PTR [rsp+0x10]
  407522:	41 29 cd             	sub    r13d,ecx
  407525:	01 c3                	add    ebx,eax
  407527:	48 83 3c 24 00       	cmp    QWORD PTR [rsp],0x0
  40752c:	0f 85 fe fe ff ff    	jne    407430 <_ZL13mobility_evalP7state_tP12t_eval_compsP12attackinfo_t+0x350>
  407532:	eb 05                	jmp    407539 <_ZL13mobility_evalP7state_tP12t_eval_compsP12attackinfo_t+0x459>
  407534:	48 8b 5c 24 10       	mov    rbx,QWORD PTR [rsp+0x10]
  407539:	48 89 5c 24 10       	mov    QWORD PTR [rsp+0x10],rbx
  40753e:	49 8b 84 24 68 01 00 	mov    rax,QWORD PTR [r12+0x168]
  407545:	00 
  407546:	48 89 04 24          	mov    QWORD PTR [rsp],rax
  40754a:	48 85 c0             	test   rax,rax
  40754d:	74 56                	je     4075a5 <_ZL13mobility_evalP7state_tP12t_eval_compsP12attackinfo_t+0x4c5>
  40754f:	4c 8b 74 24 08       	mov    r14,QWORD PTR [rsp+0x8]
  407554:	66 2e 0f 1f 84 00 00 	cs nop WORD PTR [rax+rax*1+0x0]
  40755b:	00 00 00 
  40755e:	66 90                	xchg   ax,ax
  407560:	48 89 e7             	mov    rdi,rsp
  407563:	e8 58 b1 ff ff       	call   4026c0 <_Z15FindFirstRemovePy>
  407568:	89 c3                	mov    ebx,eax
  40756a:	4c 89 e7             	mov    rdi,r12
  40756d:	89 c6                	mov    esi,eax
  40756f:	e8 cc b0 ff ff       	call   402640 <_Z11RookAttacksP7state_ti>
  407574:	48 89 c5             	mov    rbp,rax
  407577:	4c 89 e7             	mov    rdi,r12
  40757a:	89 de                	mov    esi,ebx
  40757c:	e8 8f b0 ff ff       	call   402610 <_Z13BishopAttacksP7state_ti>
  407581:	48 09 e8             	or     rax,rbp
  407584:	49 89 46 40          	mov    QWORD PTR [r14+0x40],rax
  407588:	41 8b b4 24 d4 01 00 	mov    esi,DWORD PTR [r12+0x1d4]
  40758f:	00 
  407590:	89 df                	mov    edi,ebx
  407592:	e8 19 b2 ff ff       	call   4027b0 <_Z8sum_distii>
  407597:	41 83 c5 0e          	add    r13d,0xe
  40759b:	41 29 c5             	sub    r13d,eax
  40759e:	48 83 3c 24 00       	cmp    QWORD PTR [rsp],0x0
  4075a3:	75 bb                	jne    407560 <_ZL13mobility_evalP7state_tP12t_eval_compsP12attackinfo_t+0x480>
  4075a5:	49 8b 84 24 70 01 00 	mov    rax,QWORD PTR [r12+0x170]
  4075ac:	00 
  4075ad:	48 89 04 24          	mov    QWORD PTR [rsp],rax
  4075b1:	48 85 c0             	test   rax,rax
  4075b4:	74 50                	je     407606 <_ZL13mobility_evalP7state_tP12t_eval_compsP12attackinfo_t+0x526>
  4075b6:	4c 8b 74 24 08       	mov    r14,QWORD PTR [rsp+0x8]
  4075bb:	0f 1f 44 00 00       	nop    DWORD PTR [rax+rax*1+0x0]
  4075c0:	48 89 e7             	mov    rdi,rsp
  4075c3:	e8 f8 b0 ff ff       	call   4026c0 <_Z15FindFirstRemovePy>
  4075c8:	89 c3                	mov    ebx,eax
  4075ca:	4c 89 e7             	mov    rdi,r12
  4075cd:	89 c6                	mov    esi,eax
  4075cf:	e8 6c b0 ff ff       	call   402640 <_Z11RookAttacksP7state_ti>
  4075d4:	48 89 c5             	mov    rbp,rax
  4075d7:	4c 89 e7             	mov    rdi,r12
  4075da:	89 de                	mov    esi,ebx
  4075dc:	e8 2f b0 ff ff       	call   402610 <_Z13BishopAttacksP7state_ti>
  4075e1:	48 09 e8             	or     rax,rbp
  4075e4:	49 89 46 48          	mov    QWORD PTR [r14+0x48],rax
  4075e8:	41 8b b4 24 d0 01 00 	mov    esi,DWORD PTR [r12+0x1d0]
  4075ef:	00 
  4075f0:	89 df                	mov    edi,ebx
  4075f2:	e8 b9 b1 ff ff       	call   4027b0 <_Z8sum_distii>
  4075f7:	46 8d 2c 28          	lea    r13d,[rax+r13*1]
  4075fb:	41 83 c5 f2          	add    r13d,0xfffffff2
  4075ff:	48 83 3c 24 00       	cmp    QWORD PTR [rsp],0x0
  407604:	75 ba                	jne    4075c0 <_ZL13mobility_evalP7state_tP12t_eval_compsP12attackinfo_t+0x4e0>
  407606:	49 8b 84 24 38 01 00 	mov    rax,QWORD PTR [r12+0x138]
  40760d:	00 
  40760e:	48 89 04 24          	mov    QWORD PTR [rsp],rax
  407612:	48 85 c0             	test   rax,rax
  407615:	74 44                	je     40765b <_ZL13mobility_evalP7state_tP12t_eval_compsP12attackinfo_t+0x57b>
  407617:	48 8b 6c 24 38       	mov    rbp,QWORD PTR [rsp+0x38]
  40761c:	48 23 6c 24 30       	and    rbp,QWORD PTR [rsp+0x30]
  407621:	49 89 e6             	mov    r14,rsp
  407624:	48 8b 5c 24 08       	mov    rbx,QWORD PTR [rsp+0x8]
  407629:	0f 1f 80 00 00 00 00 	nop    DWORD PTR [rax+0x0]
  407630:	4c 89 f7             	mov    rdi,r14
  407633:	e8 88 b0 ff ff       	call   4026c0 <_Z15FindFirstRemovePy>
  407638:	48 98                	cdqe   
  40763a:	48 8b 3c c5 10 51 41 	mov    rdi,QWORD PTR [rax*8+0x415110]
  407641:	00 
  407642:	48 89 7b 20          	mov    QWORD PTR [rbx+0x20],rdi
  407646:	48 21 ef             	and    rdi,rbp
  407649:	e8 32 b0 ff ff       	call   402680 <_Z8PopCounty>
  40764e:	45 8d 3c 47          	lea    r15d,[r15+rax*2]
  407652:	48 83 3c 24 00       	cmp    QWORD PTR [rsp],0x0
  407657:	75 d7                	jne    407630 <_ZL13mobility_evalP7state_tP12t_eval_compsP12attackinfo_t+0x550>
  407659:	eb 05                	jmp    407660 <_ZL13mobility_evalP7state_tP12t_eval_compsP12attackinfo_t+0x580>
  40765b:	48 8b 5c 24 08       	mov    rbx,QWORD PTR [rsp+0x8]
  407660:	49 8b 84 24 40 01 00 	mov    rax,QWORD PTR [r12+0x140]
  407667:	00 
  407668:	48 89 04 24          	mov    QWORD PTR [rsp],rax
  40766c:	48 85 c0             	test   rax,rax
  40766f:	74 4a                	je     4076bb <_ZL13mobility_evalP7state_tP12t_eval_compsP12attackinfo_t+0x5db>
  407671:	4c 8b 64 24 28       	mov    r12,QWORD PTR [rsp+0x28]
  407676:	4c 23 64 24 20       	and    r12,QWORD PTR [rsp+0x20]
  40767b:	49 89 e6             	mov    r14,rsp
  40767e:	48 8b 6c 24 10       	mov    rbp,QWORD PTR [rsp+0x10]
  407683:	66 2e 0f 1f 84 00 00 	cs nop WORD PTR [rax+rax*1+0x0]
  40768a:	00 00 00 
  40768d:	0f 1f 00             	nop    DWORD PTR [rax]
  407690:	4c 89 f7             	mov    rdi,r14
  407693:	e8 28 b0 ff ff       	call   4026c0 <_Z15FindFirstRemovePy>
  407698:	48 98                	cdqe   
  40769a:	48 8b 3c c5 10 51 41 	mov    rdi,QWORD PTR [rax*8+0x415110]
  4076a1:	00 
  4076a2:	48 89 7b 28          	mov    QWORD PTR [rbx+0x28],rdi
  4076a6:	4c 21 e7             	and    rdi,r12
  4076a9:	e8 d2 af ff ff       	call   402680 <_Z8PopCounty>
  4076ae:	01 c0                	add    eax,eax
  4076b0:	29 c5                	sub    ebp,eax
  4076b2:	48 83 3c 24 00       	cmp    QWORD PTR [rsp],0x0
  4076b7:	75 d7                	jne    407690 <_ZL13mobility_evalP7state_tP12t_eval_compsP12attackinfo_t+0x5b0>
  4076b9:	eb 05                	jmp    4076c0 <_ZL13mobility_evalP7state_tP12t_eval_compsP12attackinfo_t+0x5e0>
  4076bb:	48 8b 6c 24 10       	mov    rbp,QWORD PTR [rsp+0x10]
  4076c0:	44 01 fd             	add    ebp,r15d
  4076c3:	8d 44 6d 00          	lea    eax,[rbp+rbp*2+0x0]
  4076c7:	44 01 e8             	add    eax,r13d
  4076ca:	48 83 c4 48          	add    rsp,0x48
  4076ce:	5b                   	pop    rbx
  4076cf:	41 5c                	pop    r12
  4076d1:	41 5d                	pop    r13
  4076d3:	41 5e                	pop    r14
  4076d5:	41 5f                	pop    r15
  4076d7:	5d                   	pop    rbp
  4076d8:	c3                   	ret    
  4076d9:	0f 1f 80 00 00 00 00 	nop    DWORD PTR [rax+0x0]

00000000004076e0 <_ZL15kingsafety_evalP7state_tP8pawntt_tP12t_eval_comps>:
  4076e0:	55                   	push   rbp
  4076e1:	41 57                	push   r15
  4076e3:	41 56                	push   r14
  4076e5:	41 55                	push   r13
  4076e7:	41 54                	push   r12
  4076e9:	53                   	push   rbx
  4076ea:	48 83 ec 38          	sub    rsp,0x38
  4076ee:	49 89 d7             	mov    r15,rdx
  4076f1:	49 89 f6             	mov    r14,rsi
  4076f4:	49 89 fc             	mov    r12,rdi
  4076f7:	8b 97 d4 01 00 00    	mov    edx,DWORD PTR [rdi+0x1d4]
  4076fd:	31 db                	xor    ebx,ebx
  4076ff:	83 bf b8 01 00 00 00 	cmp    DWORD PTR [rdi+0x1b8],0x0
  407706:	41 bd 00 00 00 00    	mov    r13d,0x0
  40770c:	0f 84 bf 01 00 00    	je     4078d1 <_ZL15kingsafety_evalP7state_tP8pawntt_tP12t_eval_comps+0x1f1>
  407712:	48 89 54 24 08       	mov    QWORD PTR [rsp+0x8],rdx
  407717:	4c 89 74 24 28       	mov    QWORD PTR [rsp+0x28],r14
  40771c:	4c 89 7c 24 30       	mov    QWORD PTR [rsp+0x30],r15
  407721:	41 8b b4 24 d0 01 00 	mov    esi,DWORD PTR [r12+0x1d0]
  407728:	00 
  407729:	89 f0                	mov    eax,esi
  40772b:	83 e0 07             	and    eax,0x7
  40772e:	48 8b 2c c5 00 97 41 	mov    rbp,QWORD PTR [rax*8+0x419700]
  407735:	00 
  407736:	8d 40 fd             	lea    eax,[rax-0x3]
  407739:	45 31 ff             	xor    r15d,r15d
  40773c:	83 f8 02             	cmp    eax,0x2
  40773f:	77 22                	ja     407763 <_ZL15kingsafety_evalP7state_tP8pawntt_tP12t_eval_comps+0x83>
  407741:	41 8b 84 24 c4 01 00 	mov    eax,DWORD PTR [r12+0x1c4]
  407748:	00 
  407749:	89 c1                	mov    ecx,eax
  40774b:	83 e1 04             	and    ecx,0x4
  40774e:	8d 14 8d f0 ff ff ff 	lea    edx,[rcx*4-0x10]
  407755:	a8 02                	test   al,0x2
  407757:	44 8d 3c 8d e4 ff ff 	lea    r15d,[rcx*4-0x1c]
  40775e:	ff 
  40775f:	44 0f 45 fa          	cmovne r15d,edx
  407763:	83 fe 18             	cmp    esi,0x18
  407766:	7c 5d                	jl     4077c5 <_ZL15kingsafety_evalP7state_tP8pawntt_tP12t_eval_comps+0xe5>
  407768:	c1 fe 03             	sar    esi,0x3
  40776b:	48 89 f3             	mov    rbx,rsi
  40776e:	49 8b bc 24 28 01 00 	mov    rdi,QWORD PTR [r12+0x128]
  407775:	00 
  407776:	48 21 ef             	and    rdi,rbp
  407779:	48 23 3d 00 10 01 00 	and    rdi,QWORD PTR [rip+0x11000]        # 418780 <RankMask+0x30>
  407780:	e8 fb ae ff ff       	call   402680 <_Z8PopCounty>
  407785:	41 8d 4f 06          	lea    ecx,[r15+0x6]
  407789:	83 f8 03             	cmp    eax,0x3
  40778c:	44 0f 44 f9          	cmove  r15d,ecx
  407790:	48 8b 44 24 28       	mov    rax,QWORD PTR [rsp+0x28]
  407795:	48 8b 78 10          	mov    rdi,QWORD PTR [rax+0x10]
  407799:	48 21 ef             	and    rdi,rbp
  40779c:	e8 8f af ff ff       	call   402730 <_Z13ThickPopCounty>
  4077a1:	01 c0                	add    eax,eax
  4077a3:	89 44 24 24          	mov    DWORD PTR [rsp+0x24],eax
  4077a7:	41 8b 84 24 d0 01 00 	mov    eax,DWORD PTR [r12+0x1d0]
  4077ae:	00 
  4077af:	89 c1                	mov    ecx,eax
  4077b1:	80 e1 07             	and    cl,0x7
  4077b4:	48 89 ea             	mov    rdx,rbp
  4077b7:	80 f9 07             	cmp    cl,0x7
  4077ba:	74 12                	je     4077ce <_ZL15kingsafety_evalP7state_tP8pawntt_tP12t_eval_comps+0xee>
  4077bc:	84 c9                	test   cl,cl
  4077be:	75 11                	jne    4077d1 <_ZL15kingsafety_evalP7state_tP8pawntt_tP12t_eval_comps+0xf1>
  4077c0:	83 c0 01             	add    eax,0x1
  4077c3:	eb 0c                	jmp    4077d1 <_ZL15kingsafety_evalP7state_tP8pawntt_tP12t_eval_comps+0xf1>
  4077c5:	41 83 c7 e2          	add    r15d,0xffffffe2
  4077c9:	e9 d1 00 00 00       	jmp    40789f <_ZL15kingsafety_evalP7state_tP8pawntt_tP12t_eval_comps+0x1bf>
  4077ce:	83 c0 ff             	add    eax,0xffffffff
  4077d1:	48 98                	cdqe   
  4077d3:	31 c9                	xor    ecx,ecx
  4077d5:	41 83 7c 84 e0 01    	cmp    DWORD PTR [r12+rax*4-0x20],0x1
  4077db:	be 0c 00 00 00       	mov    esi,0xc
  4077e0:	bf 00 00 00 00       	mov    edi,0x0
  4077e5:	0f 44 fe             	cmove  edi,esi
  4077e8:	89 7c 24 20          	mov    DWORD PTR [rsp+0x20],edi
  4077ec:	41 83 7c 84 e4 01    	cmp    DWORD PTR [r12+rax*4-0x1c],0x1
  4077f2:	bf 18 00 00 00       	mov    edi,0x18
  4077f7:	0f 45 f9             	cmovne edi,ecx
  4077fa:	89 7c 24 1c          	mov    DWORD PTR [rsp+0x1c],edi
  4077fe:	41 83 7c 84 e8 01    	cmp    DWORD PTR [r12+rax*4-0x18],0x1
  407804:	0f 45 f1             	cmovne esi,ecx
  407807:	89 74 24 18          	mov    DWORD PTR [rsp+0x18],esi
  40780b:	31 ed                	xor    ebp,ebp
  40780d:	41 83 7c 84 c0 01    	cmp    DWORD PTR [r12+rax*4-0x40],0x1
  407813:	40 0f 94 c5          	sete   bpl
  407817:	41 83 7c 84 c4 01    	cmp    DWORD PTR [r12+rax*4-0x3c],0x1
  40781d:	be 0a 00 00 00       	mov    esi,0xa
  407822:	0f 45 f1             	cmovne esi,ecx
  407825:	89 74 24 14          	mov    DWORD PTR [rsp+0x14],esi
  407829:	45 31 f6             	xor    r14d,r14d
  40782c:	41 83 7c 84 c8 01    	cmp    DWORD PTR [r12+rax*4-0x38],0x1
  407832:	41 0f 94 c6          	sete   r14b
  407836:	45 31 ed             	xor    r13d,r13d
  407839:	41 83 7c 84 a4 01    	cmp    DWORD PTR [r12+rax*4-0x5c],0x1
  40783f:	41 0f 94 c5          	sete   r13b
  407843:	49 8b 84 24 30 01 00 	mov    rax,QWORD PTR [r12+0x130]
  40784a:	00 
  40784b:	48 63 cb             	movsxd rcx,ebx
  40784e:	48 8b 3c cd 40 87 41 	mov    rdi,QWORD PTR [rcx*8+0x418740]
  407855:	00 
  407856:	48 0b 3c cd 48 87 41 	or     rdi,QWORD PTR [rcx*8+0x418748]
  40785d:	00 
  40785e:	48 89 d3             	mov    rbx,rdx
  407861:	48 21 d0             	and    rax,rdx
  407864:	48 0b 3c cd 38 87 41 	or     rdi,QWORD PTR [rcx*8+0x418738]
  40786b:	00 
  40786c:	48 21 c7             	and    rdi,rax
  40786f:	e8 0c ae ff ff       	call   402680 <_Z8PopCounty>
  407874:	41 01 ee             	add    r14d,ebp
  407877:	45 01 ee             	add    r14d,r13d
  40787a:	41 29 c6             	sub    r14d,eax
  40787d:	44 2b 7c 24 24       	sub    r15d,DWORD PTR [rsp+0x24]
  407882:	44 03 7c 24 20       	add    r15d,DWORD PTR [rsp+0x20]
  407887:	44 03 7c 24 1c       	add    r15d,DWORD PTR [rsp+0x1c]
  40788c:	44 03 7c 24 18       	add    r15d,DWORD PTR [rsp+0x18]
  407891:	44 03 7c 24 14       	add    r15d,DWORD PTR [rsp+0x14]
  407896:	47 8d 3c b7          	lea    r15d,[r15+r14*4]
  40789a:	48 89 dd             	mov    rbp,rbx
  40789d:	31 db                	xor    ebx,ebx
  40789f:	49 8b bc 24 70 01 00 	mov    rdi,QWORD PTR [r12+0x170]
  4078a6:	00 
  4078a7:	49 0b bc 24 60 01 00 	or     rdi,QWORD PTR [r12+0x160]
  4078ae:	00 
  4078af:	48 21 ef             	and    rdi,rbp
  4078b2:	4c 8b 74 24 28       	mov    r14,QWORD PTR [rsp+0x28]
  4078b7:	49 23 7e 18          	and    rdi,QWORD PTR [r14+0x18]
  4078bb:	e8 c0 ad ff ff       	call   402680 <_Z8PopCounty>
  4078c0:	44 6b e8 f3          	imul   r13d,eax,0xfffffff3
  4078c4:	45 01 fd             	add    r13d,r15d
  4078c7:	4c 8b 7c 24 30       	mov    r15,QWORD PTR [rsp+0x30]
  4078cc:	48 8b 54 24 08       	mov    rdx,QWORD PTR [rsp+0x8]
  4078d1:	41 83 bc 24 b4 01 00 	cmp    DWORD PTR [r12+0x1b4],0x0
  4078d8:	00 00 
  4078da:	0f 84 5d 01 00 00    	je     407a3d <_ZL15kingsafety_evalP7state_tP8pawntt_tP12t_eval_comps+0x35d>
  4078e0:	89 d0                	mov    eax,edx
  4078e2:	83 e0 07             	and    eax,0x7
  4078e5:	48 8b 1c c5 00 97 41 	mov    rbx,QWORD PTR [rax*8+0x419700]
  4078ec:	00 
  4078ed:	8d 40 fd             	lea    eax,[rax-0x3]
  4078f0:	31 ed                	xor    ebp,ebp
  4078f2:	83 f8 02             	cmp    eax,0x2
  4078f5:	77 17                	ja     40790e <_ZL15kingsafety_evalP7state_tP8pawntt_tP12t_eval_comps+0x22e>
  4078f7:	41 8b 84 24 c4 01 00 	mov    eax,DWORD PTR [r12+0x1c4]
  4078fe:	00 
  4078ff:	89 c1                	mov    ecx,eax
  407901:	f7 d1                	not    ecx
  407903:	83 e1 10             	and    ecx,0x10
  407906:	8d 69 0c             	lea    ebp,[rcx+0xc]
  407909:	a8 08                	test   al,0x8
  40790b:	0f 45 e9             	cmovne ebp,ecx
  40790e:	83 fa 27             	cmp    edx,0x27
  407911:	7f 53                	jg     407966 <_ZL15kingsafety_evalP7state_tP8pawntt_tP12t_eval_comps+0x286>
  407913:	c1 fa 03             	sar    edx,0x3
  407916:	48 89 54 24 08       	mov    QWORD PTR [rsp+0x8],rdx
  40791b:	49 8b bc 24 30 01 00 	mov    rdi,QWORD PTR [r12+0x130]
  407922:	00 
  407923:	48 21 df             	and    rdi,rbx
  407926:	48 23 3d 2b 0e 01 00 	and    rdi,QWORD PTR [rip+0x10e2b]        # 418758 <RankMask+0x8>
  40792d:	e8 4e ad ff ff       	call   402680 <_Z8PopCounty>
  407932:	8d 4d fa             	lea    ecx,[rbp-0x6]
  407935:	83 f8 03             	cmp    eax,0x3
  407938:	0f 44 e9             	cmove  ebp,ecx
  40793b:	49 8b 7e 18          	mov    rdi,QWORD PTR [r14+0x18]
  40793f:	48 21 df             	and    rdi,rbx
  407942:	e8 e9 ad ff ff       	call   402730 <_Z13ThickPopCounty>
  407947:	8d 4c 45 00          	lea    ecx,[rbp+rax*2+0x0]
  40794b:	41 8b 84 24 d4 01 00 	mov    eax,DWORD PTR [r12+0x1d4]
  407952:	00 
  407953:	89 c2                	mov    edx,eax
  407955:	80 e2 07             	and    dl,0x7
  407958:	80 fa 07             	cmp    dl,0x7
  40795b:	74 11                	je     40796e <_ZL15kingsafety_evalP7state_tP8pawntt_tP12t_eval_comps+0x28e>
  40795d:	84 d2                	test   dl,dl
  40795f:	75 10                	jne    407971 <_ZL15kingsafety_evalP7state_tP8pawntt_tP12t_eval_comps+0x291>
  407961:	83 c0 01             	add    eax,0x1
  407964:	eb 0b                	jmp    407971 <_ZL15kingsafety_evalP7state_tP8pawntt_tP12t_eval_comps+0x291>
  407966:	83 c5 1e             	add    ebp,0x1e
  407969:	e9 ab 00 00 00       	jmp    407a19 <_ZL15kingsafety_evalP7state_tP8pawntt_tP12t_eval_comps+0x339>
  40796e:	83 c0 ff             	add    eax,0xffffffff
  407971:	48 98                	cdqe   
  407973:	31 d2                	xor    edx,edx
  407975:	41 83 7c 84 28 02    	cmp    DWORD PTR [r12+rax*4+0x28],0x2
  40797b:	be f4 ff ff ff       	mov    esi,0xfffffff4
  407980:	bf 00 00 00 00       	mov    edi,0x0
  407985:	0f 44 fe             	cmove  edi,esi
  407988:	01 f9                	add    ecx,edi
  40798a:	41 83 7c 84 24 02    	cmp    DWORD PTR [r12+rax*4+0x24],0x2
  407990:	bf e8 ff ff ff       	mov    edi,0xffffffe8
  407995:	0f 45 fa             	cmovne edi,edx
  407998:	01 cf                	add    edi,ecx
  40799a:	41 83 7c 84 20 02    	cmp    DWORD PTR [r12+rax*4+0x20],0x2
  4079a0:	0f 45 f2             	cmovne esi,edx
  4079a3:	01 fe                	add    esi,edi
  4079a5:	31 c9                	xor    ecx,ecx
  4079a7:	41 83 7c 84 40 02    	cmp    DWORD PTR [r12+rax*4+0x40],0x2
  4079ad:	0f 94 c1             	sete   cl
  4079b0:	c1 e1 02             	shl    ecx,0x2
  4079b3:	29 ce                	sub    esi,ecx
  4079b5:	41 83 7c 84 44 02    	cmp    DWORD PTR [r12+rax*4+0x44],0x2
  4079bb:	bd f6 ff ff ff       	mov    ebp,0xfffffff6
  4079c0:	0f 45 ea             	cmovne ebp,edx
  4079c3:	01 f5                	add    ebp,esi
  4079c5:	31 c9                	xor    ecx,ecx
  4079c7:	41 83 7c 84 48 02    	cmp    DWORD PTR [r12+rax*4+0x48],0x2
  4079cd:	0f 94 c1             	sete   cl
  4079d0:	c1 e1 02             	shl    ecx,0x2
  4079d3:	29 cd                	sub    ebp,ecx
  4079d5:	31 c9                	xor    ecx,ecx
  4079d7:	41 83 7c 84 64 02    	cmp    DWORD PTR [r12+rax*4+0x64],0x2
  4079dd:	0f 94 c1             	sete   cl
  4079e0:	c1 e1 02             	shl    ecx,0x2
  4079e3:	29 cd                	sub    ebp,ecx
  4079e5:	49 8b 84 24 28 01 00 	mov    rax,QWORD PTR [r12+0x128]
  4079ec:	00 
  4079ed:	48 63 4c 24 08       	movsxd rcx,DWORD PTR [rsp+0x8]
  4079f2:	48 8b 3c cd 60 87 41 	mov    rdi,QWORD PTR [rcx*8+0x418760]
  4079f9:	00 
  4079fa:	48 0b 3c cd 58 87 41 	or     rdi,QWORD PTR [rcx*8+0x418758]
  407a01:	00 
  407a02:	48 21 d8             	and    rax,rbx
  407a05:	48 0b 3c cd 68 87 41 	or     rdi,QWORD PTR [rcx*8+0x418768]
  407a0c:	00 
  407a0d:	48 21 c7             	and    rdi,rax
  407a10:	e8 6b ac ff ff       	call   402680 <_Z8PopCounty>
  407a15:	8d 6c 85 00          	lea    ebp,[rbp+rax*4+0x0]
  407a19:	49 8b bc 24 68 01 00 	mov    rdi,QWORD PTR [r12+0x168]
  407a20:	00 
  407a21:	49 0b bc 24 58 01 00 	or     rdi,QWORD PTR [r12+0x158]
  407a28:	00 
  407a29:	48 21 df             	and    rdi,rbx
  407a2c:	49 23 7e 10          	and    rdi,QWORD PTR [r14+0x10]
  407a30:	e8 4b ac ff ff       	call   402680 <_Z8PopCounty>
  407a35:	8d 0c 40             	lea    ecx,[rax+rax*2]
  407a38:	8d 1c 88             	lea    ebx,[rax+rcx*4]
  407a3b:	01 eb                	add    ebx,ebp
  407a3d:	45 01 6f 20          	add    DWORD PTR [r15+0x20],r13d
  407a41:	41 01 5f 24          	add    DWORD PTR [r15+0x24],ebx
  407a45:	48 83 c4 38          	add    rsp,0x38
  407a49:	5b                   	pop    rbx
  407a4a:	41 5c                	pop    r12
  407a4c:	41 5d                	pop    r13
  407a4e:	41 5e                	pop    r14
  407a50:	41 5f                	pop    r15
  407a52:	5d                   	pop    rbp
  407a53:	c3                   	ret    
  407a54:	66 2e 0f 1f 84 00 00 	cs nop WORD PTR [rax+rax*1+0x0]
  407a5b:	00 00 00 
  407a5e:	66 90                	xchg   ax,ax

0000000000407a60 <_ZL17kingpressure_evalP7state_tP12attackinfo_tP12t_eval_comps>:
  407a60:	55                   	push   rbp
  407a61:	41 57                	push   r15
  407a63:	41 56                	push   r14
  407a65:	41 55                	push   r13
  407a67:	41 54                	push   r12
  407a69:	53                   	push   rbx
  407a6a:	48 83 ec 38          	sub    rsp,0x38
  407a6e:	49 89 f5             	mov    r13,rsi
  407a71:	49 89 fc             	mov    r12,rdi
  407a74:	48 63 b7 d0 01 00 00 	movsxd rsi,DWORD PTR [rdi+0x1d0]
  407a7b:	48 63 87 d4 01 00 00 	movsxd rax,DWORD PTR [rdi+0x1d4]
  407a82:	83 bf b4 01 00 00 00 	cmp    DWORD PTR [rdi+0x1b4],0x0
  407a89:	75 0f                	jne    407a9a <_ZL17kingpressure_evalP7state_tP12attackinfo_tP12t_eval_comps+0x3a>
  407a8b:	41 83 bc 24 b8 01 00 	cmp    DWORD PTR [r12+0x1b8],0x0
  407a92:	00 00 
  407a94:	0f 84 23 02 00 00    	je     407cbd <_ZL17kingpressure_evalP7state_tP12attackinfo_tP12t_eval_comps+0x25d>
  407a9a:	48 89 44 24 18       	mov    QWORD PTR [rsp+0x18],rax
  407a9f:	48 89 54 24 30       	mov    QWORD PTR [rsp+0x30],rdx
  407aa4:	4d 8b 7d 10          	mov    r15,QWORD PTR [r13+0x10]
  407aa8:	4d 0b 7d 00          	or     r15,QWORD PTR [r13+0x0]
  407aac:	4d 0b 7d 20          	or     r15,QWORD PTR [r13+0x20]
  407ab0:	4d 0b 7d 30          	or     r15,QWORD PTR [r13+0x30]
  407ab4:	4d 0b 7d 40          	or     r15,QWORD PTR [r13+0x40]
  407ab8:	31 d2                	xor    edx,edx
  407aba:	41 83 bc 24 b8 01 00 	cmp    DWORD PTR [r12+0x1b8],0x0
  407ac1:	00 00 
  407ac3:	b9 00 00 00 00       	mov    ecx,0x0
  407ac8:	0f 84 f7 00 00 00    	je     407bc5 <_ZL17kingpressure_evalP7state_tP12attackinfo_tP12t_eval_comps+0x165>
  407ace:	49 8b 5d 18          	mov    rbx,QWORD PTR [r13+0x18]
  407ad2:	49 0b 5d 08          	or     rbx,QWORD PTR [r13+0x8]
  407ad6:	49 0b 5d 28          	or     rbx,QWORD PTR [r13+0x28]
  407ada:	49 0b 5d 38          	or     rbx,QWORD PTR [r13+0x38]
  407ade:	49 0b 5d 48          	or     rbx,QWORD PTR [r13+0x48]
  407ae2:	49 8b bc 24 60 01 00 	mov    rdi,QWORD PTR [r12+0x160]
  407ae9:	00 
  407aea:	49 0b bc 24 70 01 00 	or     rdi,QWORD PTR [r12+0x170]
  407af1:	00 
  407af2:	49 0b bc 24 80 01 00 	or     rdi,QWORD PTR [r12+0x180]
  407af9:	00 
  407afa:	4c 8b 34 f5 40 97 41 	mov    r14,QWORD PTR [rsi*8+0x419740]
  407b01:	00 
  407b02:	49 0b bc 24 40 01 00 	or     rdi,QWORD PTR [r12+0x140]
  407b09:	00 
  407b0a:	4c 21 f7             	and    rdi,r14
  407b0d:	48 89 74 24 20       	mov    QWORD PTR [rsp+0x20],rsi
  407b12:	e8 69 ab ff ff       	call   402680 <_Z8PopCounty>
  407b17:	6b c0 ea             	imul   eax,eax,0xffffffea
  407b1a:	89 44 24 0c          	mov    DWORD PTR [rsp+0xc],eax
  407b1e:	31 c0                	xor    eax,eax
  407b20:	4d 85 75 08          	test   QWORD PTR [r13+0x8],r14
  407b24:	0f 95 c0             	setne  al
  407b27:	8d 68 01             	lea    ebp,[rax+0x1]
  407b2a:	4d 85 75 18          	test   QWORD PTR [r13+0x18],r14
  407b2e:	0f 44 e8             	cmove  ebp,eax
  407b31:	49 8b 45 28          	mov    rax,QWORD PTR [r13+0x28]
  407b35:	4c 21 f0             	and    rax,r14
  407b38:	48 83 f8 01          	cmp    rax,0x1
  407b3c:	83 dd ff             	sbb    ebp,0xffffffff
  407b3f:	49 8b 45 38          	mov    rax,QWORD PTR [r13+0x38]
  407b43:	4c 21 f0             	and    rax,r14
  407b46:	48 89 44 24 10       	mov    QWORD PTR [rsp+0x10],rax
  407b4b:	49 8b 45 48          	mov    rax,QWORD PTR [r13+0x48]
  407b4f:	4c 21 f0             	and    rax,r14
  407b52:	48 89 44 24 28       	mov    QWORD PTR [rsp+0x28],rax
  407b57:	4c 21 f3             	and    rbx,r14
  407b5a:	48 89 df             	mov    rdi,rbx
  407b5d:	e8 ce ab ff ff       	call   402730 <_Z13ThickPopCounty>
  407b62:	48 8b 4c 24 20       	mov    rcx,QWORD PTR [rsp+0x20]
  407b67:	48 8b 0c cd 40 99 41 	mov    rcx,QWORD PTR [rcx*8+0x419940]
  407b6e:	00 
  407b6f:	31 d2                	xor    edx,edx
  407b71:	49 85 4d 08          	test   QWORD PTR [r13+0x8],rcx
  407b75:	0f 95 c2             	setne  dl
  407b78:	49 85 4d 18          	test   QWORD PTR [r13+0x18],rcx
  407b7c:	8d 72 02             	lea    esi,[rdx+0x2]
  407b7f:	0f 44 f2             	cmove  esi,edx
  407b82:	8d 56 02             	lea    edx,[rsi+0x2]
  407b85:	49 85 4d 28          	test   QWORD PTR [r13+0x28],rcx
  407b89:	0f 44 d6             	cmove  edx,esi
  407b8c:	8d 72 04             	lea    esi,[rdx+0x4]
  407b8f:	49 85 4d 38          	test   QWORD PTR [r13+0x38],rcx
  407b93:	0f 44 f2             	cmove  esi,edx
  407b96:	31 d2                	xor    edx,edx
  407b98:	49 85 4d 48          	test   QWORD PTR [r13+0x48],rcx
  407b9c:	8d 4e 08             	lea    ecx,[rsi+0x8]
  407b9f:	0f 44 ce             	cmove  ecx,esi
  407ba2:	01 c9                	add    ecx,ecx
  407ba4:	01 e8                	add    eax,ebp
  407ba6:	48 83 7c 24 10 01    	cmp    QWORD PTR [rsp+0x10],0x1
  407bac:	83 d8 ff             	sbb    eax,0xffffffff
  407baf:	48 83 7c 24 28 01    	cmp    QWORD PTR [rsp+0x28],0x1
  407bb5:	83 d8 ff             	sbb    eax,0xffffffff
  407bb8:	8d 04 40             	lea    eax,[rax+rax*2]
  407bbb:	8b 74 24 0c          	mov    esi,DWORD PTR [rsp+0xc]
  407bbf:	29 c6                	sub    esi,eax
  407bc1:	29 ce                	sub    esi,ecx
  407bc3:	89 f1                	mov    ecx,esi
  407bc5:	41 83 bc 24 b4 01 00 	cmp    DWORD PTR [r12+0x1b4],0x0
  407bcc:	00 00 
  407bce:	0f 84 de 00 00 00    	je     407cb2 <_ZL17kingpressure_evalP7state_tP12attackinfo_tP12t_eval_comps+0x252>
  407bd4:	49 8b bc 24 58 01 00 	mov    rdi,QWORD PTR [r12+0x158]
  407bdb:	00 
  407bdc:	49 0b bc 24 68 01 00 	or     rdi,QWORD PTR [r12+0x168]
  407be3:	00 
  407be4:	49 0b bc 24 78 01 00 	or     rdi,QWORD PTR [r12+0x178]
  407beb:	00 
  407bec:	48 8b 44 24 18       	mov    rax,QWORD PTR [rsp+0x18]
  407bf1:	48 8b 1c c5 40 97 41 	mov    rbx,QWORD PTR [rax*8+0x419740]
  407bf8:	00 
  407bf9:	49 0b bc 24 38 01 00 	or     rdi,QWORD PTR [r12+0x138]
  407c00:	00 
  407c01:	48 21 df             	and    rdi,rbx
  407c04:	89 4c 24 0c          	mov    DWORD PTR [rsp+0xc],ecx
  407c08:	e8 73 aa ff ff       	call   402680 <_Z8PopCounty>
  407c0d:	8d 0c 80             	lea    ecx,[rax+rax*4]
  407c10:	8d 0c 88             	lea    ecx,[rax+rcx*4]
  407c13:	01 c1                	add    ecx,eax
  407c15:	89 4c 24 10          	mov    DWORD PTR [rsp+0x10],ecx
  407c19:	31 c0                	xor    eax,eax
  407c1b:	49 85 5d 00          	test   QWORD PTR [r13+0x0],rbx
  407c1f:	0f 95 c0             	setne  al
  407c22:	8d 68 01             	lea    ebp,[rax+0x1]
  407c25:	49 85 5d 10          	test   QWORD PTR [r13+0x10],rbx
  407c29:	0f 44 e8             	cmove  ebp,eax
  407c2c:	49 8b 45 20          	mov    rax,QWORD PTR [r13+0x20]
  407c30:	48 21 d8             	and    rax,rbx
  407c33:	48 83 f8 01          	cmp    rax,0x1
  407c37:	83 dd ff             	sbb    ebp,0xffffffff
  407c3a:	4d 8b 65 30          	mov    r12,QWORD PTR [r13+0x30]
  407c3e:	49 21 dc             	and    r12,rbx
  407c41:	4d 8b 75 40          	mov    r14,QWORD PTR [r13+0x40]
  407c45:	49 21 de             	and    r14,rbx
  407c48:	49 21 df             	and    r15,rbx
  407c4b:	4c 89 ff             	mov    rdi,r15
  407c4e:	e8 dd aa ff ff       	call   402730 <_Z13ThickPopCounty>
  407c53:	48 8b 4c 24 18       	mov    rcx,QWORD PTR [rsp+0x18]
  407c58:	48 8b 0c cd 40 99 41 	mov    rcx,QWORD PTR [rcx*8+0x419940]
  407c5f:	00 
  407c60:	31 d2                	xor    edx,edx
  407c62:	49 85 4d 00          	test   QWORD PTR [r13+0x0],rcx
  407c66:	0f 95 c2             	setne  dl
  407c69:	49 85 4d 10          	test   QWORD PTR [r13+0x10],rcx
  407c6d:	8d 34 12             	lea    esi,[rdx+rdx*1]
  407c70:	8d 54 12 04          	lea    edx,[rdx+rdx*1+0x4]
  407c74:	0f 44 d6             	cmove  edx,esi
  407c77:	8d 72 04             	lea    esi,[rdx+0x4]
  407c7a:	49 85 4d 20          	test   QWORD PTR [r13+0x20],rcx
  407c7e:	0f 44 f2             	cmove  esi,edx
  407c81:	49 85 4d 30          	test   QWORD PTR [r13+0x30],rcx
  407c85:	8d 56 08             	lea    edx,[rsi+0x8]
  407c88:	0f 44 d6             	cmove  edx,esi
  407c8b:	8d 72 10             	lea    esi,[rdx+0x10]
  407c8e:	49 85 4d 40          	test   QWORD PTR [r13+0x40],rcx
  407c92:	8b 4c 24 0c          	mov    ecx,DWORD PTR [rsp+0xc]
  407c96:	0f 44 f2             	cmove  esi,edx
  407c99:	01 e8                	add    eax,ebp
  407c9b:	49 83 fc 01          	cmp    r12,0x1
  407c9f:	83 d8 ff             	sbb    eax,0xffffffff
  407ca2:	49 83 fe 01          	cmp    r14,0x1
  407ca6:	83 d8 ff             	sbb    eax,0xffffffff
  407ca9:	8d 14 40             	lea    edx,[rax+rax*2]
  407cac:	03 54 24 10          	add    edx,DWORD PTR [rsp+0x10]
  407cb0:	01 f2                	add    edx,esi
  407cb2:	48 8b 44 24 30       	mov    rax,QWORD PTR [rsp+0x30]
  407cb7:	01 48 20             	add    DWORD PTR [rax+0x20],ecx
  407cba:	01 50 24             	add    DWORD PTR [rax+0x24],edx
  407cbd:	48 83 c4 38          	add    rsp,0x38
  407cc1:	5b                   	pop    rbx
  407cc2:	41 5c                	pop    r12
  407cc4:	41 5d                	pop    r13
  407cc6:	41 5e                	pop    r14
  407cc8:	41 5f                	pop    r15
  407cca:	5d                   	pop    rbp
  407ccb:	c3                   	ret    
  407ccc:	0f 1f 40 00          	nop    DWORD PTR [rax+0x0]

0000000000407cd0 <_ZL11passer_evalP7state_tP8pawntt_tiP12t_eval_comps>:
  407cd0:	55                   	push   rbp
  407cd1:	41 57                	push   r15
  407cd3:	41 56                	push   r14
  407cd5:	41 55                	push   r13
  407cd7:	41 54                	push   r12
  407cd9:	53                   	push   rbx
  407cda:	48 83 ec 58          	sub    rsp,0x58
  407cde:	48 89 4c 24 50       	mov    QWORD PTR [rsp+0x50],rcx
  407ce3:	89 54 24 04          	mov    DWORD PTR [rsp+0x4],edx
  407ce7:	48 89 fd             	mov    rbp,rdi
  407cea:	8b 87 d0 01 00 00    	mov    eax,DWORD PTR [rdi+0x1d0]
  407cf0:	89 44 24 2c          	mov    DWORD PTR [rsp+0x2c],eax
  407cf4:	8b 87 d4 01 00 00    	mov    eax,DWORD PTR [rdi+0x1d4]
  407cfa:	89 44 24 28          	mov    DWORD PTR [rsp+0x28],eax
  407cfe:	48 89 74 24 48       	mov    QWORD PTR [rsp+0x48],rsi
  407d03:	48 8b 46 20          	mov    rax,QWORD PTR [rsi+0x20]
  407d07:	48 89 44 24 38       	mov    QWORD PTR [rsp+0x38],rax
  407d0c:	45 31 f6             	xor    r14d,r14d
  407d0f:	41 bc 00 00 00 00    	mov    r12d,0x0
  407d15:	48 85 c0             	test   rax,rax
  407d18:	48 89 7c 24 18       	mov    QWORD PTR [rsp+0x18],rdi
  407d1d:	0f 84 6c 02 00 00    	je     407f8f <_ZL11passer_evalP7state_tP8pawntt_tiP12t_eval_comps+0x2bf>
  407d23:	8b 4c 24 2c          	mov    ecx,DWORD PTR [rsp+0x2c]
  407d27:	89 c8                	mov    eax,ecx
  407d29:	c1 f8 03             	sar    eax,0x3
  407d2c:	89 44 24 14          	mov    DWORD PTR [rsp+0x14],eax
  407d30:	b8 00 04 00 00       	mov    eax,0x400
  407d35:	2b 44 24 04          	sub    eax,DWORD PTR [rsp+0x4]
  407d39:	c1 e0 02             	shl    eax,0x2
  407d3c:	8d 04 80             	lea    eax,[rax+rax*4]
  407d3f:	89 c2                	mov    edx,eax
  407d41:	c1 fa 1f             	sar    edx,0x1f
  407d44:	c1 ea 16             	shr    edx,0x16
  407d47:	01 c2                	add    edx,eax
  407d49:	c1 fa 0a             	sar    edx,0xa
  407d4c:	48 89 54 24 40       	mov    QWORD PTR [rsp+0x40],rdx
  407d51:	83 e1 07             	and    ecx,0x7
  407d54:	89 4c 24 24          	mov    DWORD PTR [rsp+0x24],ecx
  407d58:	45 31 e4             	xor    r12d,r12d
  407d5b:	eb 53                	jmp    407db0 <_ZL11passer_evalP7state_tP8pawntt_tiP12t_eval_comps+0xe0>
  407d5d:	41 83 fd 0f          	cmp    r13d,0xf
  407d61:	7f 30                	jg     407d93 <_ZL11passer_evalP7state_tP8pawntt_tiP12t_eval_comps+0xc3>
  407d63:	39 74 24 14          	cmp    DWORD PTR [rsp+0x14],esi
  407d67:	7f 2a                	jg     407d93 <_ZL11passer_evalP7state_tP8pawntt_tiP12t_eval_comps+0xc3>
  407d69:	44 89 e8             	mov    eax,r13d
  407d6c:	24 07                	and    al,0x7
  407d6e:	3c 07                	cmp    al,0x7
  407d70:	74 04                	je     407d76 <_ZL11passer_evalP7state_tP8pawntt_tiP12t_eval_comps+0xa6>
  407d72:	84 c0                	test   al,al
  407d74:	75 0a                	jne    407d80 <_ZL11passer_evalP7state_tP8pawntt_tiP12t_eval_comps+0xb0>
  407d76:	39 6c 24 24          	cmp    DWORD PTR [rsp+0x24],ebp
  407d7a:	0f 84 f5 00 00 00    	je     407e75 <_ZL11passer_evalP7state_tP8pawntt_tiP12t_eval_comps+0x1a5>
  407d80:	41 83 c4 19          	add    r12d,0x19
  407d84:	39 74 24 14          	cmp    DWORD PTR [rsp+0x14],esi
  407d88:	0f 8f 07 01 00 00    	jg     407e95 <_ZL11passer_evalP7state_tP8pawntt_tiP12t_eval_comps+0x1c5>
  407d8e:	e9 e8 00 00 00       	jmp    407e7b <_ZL11passer_evalP7state_tP8pawntt_tiP12t_eval_comps+0x1ab>
  407d93:	41 83 c4 e7          	add    r12d,0xffffffe7
  407d97:	39 74 24 14          	cmp    DWORD PTR [rsp+0x14],esi
  407d9b:	0f 8e da 00 00 00    	jle    407e7b <_ZL11passer_evalP7state_tP8pawntt_tiP12t_eval_comps+0x1ab>
  407da1:	e9 ef 00 00 00       	jmp    407e95 <_ZL11passer_evalP7state_tP8pawntt_tiP12t_eval_comps+0x1c5>
  407da6:	66 2e 0f 1f 84 00 00 	cs nop WORD PTR [rax+rax*1+0x0]
  407dad:	00 00 00 
  407db0:	48 8d 7c 24 38       	lea    rdi,[rsp+0x38]
  407db5:	e8 06 a9 ff ff       	call   4026c0 <_Z15FindFirstRemovePy>
  407dba:	41 89 c5             	mov    r13d,eax
  407dbd:	89 c6                	mov    esi,eax
  407dbf:	c1 fe 03             	sar    esi,0x3
  407dc2:	48 63 de             	movsxd rbx,esi
  407dc5:	44 03 24 9d 3c 08 41 	add    r12d,DWORD PTR [rbx*4+0x41083c]
  407dcc:	00 
  407dcd:	48 83 c3 ff          	add    rbx,0xffffffffffffffff
  407dd1:	48 63 d0             	movsxd rdx,eax
  407dd4:	83 7c 95 00 01       	cmp    DWORD PTR [rbp+rdx*4+0x0],0x1
  407dd9:	74 15                	je     407df0 <_ZL11passer_evalP7state_tP8pawntt_tiP12t_eval_comps+0x120>
  407ddb:	83 7c 95 28 01       	cmp    DWORD PTR [rbp+rdx*4+0x28],0x1
  407de0:	74 0e                	je     407df0 <_ZL11passer_evalP7state_tP8pawntt_tiP12t_eval_comps+0x120>
  407de2:	83 7c 95 20 01       	cmp    DWORD PTR [rbp+rdx*4+0x20],0x1
  407de7:	75 0f                	jne    407df8 <_ZL11passer_evalP7state_tP8pawntt_tiP12t_eval_comps+0x128>
  407de9:	0f 1f 80 00 00 00 00 	nop    DWORD PTR [rax+0x0]
  407df0:	44 03 24 9d 60 08 41 	add    r12d,DWORD PTR [rbx*4+0x410860]
  407df7:	00 
  407df8:	44 89 ed             	mov    ebp,r13d
  407dfb:	83 e5 07             	and    ebp,0x7
  407dfe:	81 7c 24 04 7f 01 00 	cmp    DWORD PTR [rsp+0x4],0x17f
  407e05:	00 
  407e06:	48 89 54 24 30       	mov    QWORD PTR [rsp+0x30],rdx
  407e0b:	7f 68                	jg     407e75 <_ZL11passer_evalP7state_tP8pawntt_tiP12t_eval_comps+0x1a5>
  407e0d:	89 74 24 08          	mov    DWORD PTR [rsp+0x8],esi
  407e11:	89 ef                	mov    edi,ebp
  407e13:	44 89 ee             	mov    esi,r13d
  407e16:	e8 35 aa ff ff       	call   402850 <_Z16taxicab_dist_bitii>
  407e1b:	41 89 c7             	mov    r15d,eax
  407e1e:	89 ef                	mov    edi,ebp
  407e20:	8b 74 24 28          	mov    esi,DWORD PTR [rsp+0x28]
  407e24:	e8 27 aa ff ff       	call   402850 <_Z16taxicab_dist_bitii>
  407e29:	48 8b 4c 24 18       	mov    rcx,QWORD PTR [rsp+0x18]
  407e2e:	83 b9 cc 01 00 00 01 	cmp    DWORD PTR [rcx+0x1cc],0x1
  407e35:	83 d8 00             	sbb    eax,0x0
  407e38:	41 39 c7             	cmp    r15d,eax
  407e3b:	7d 23                	jge    407e60 <_ZL11passer_evalP7state_tP8pawntt_tiP12t_eval_comps+0x190>
  407e3d:	48 8b 54 24 40       	mov    rdx,QWORD PTR [rsp+0x40]
  407e42:	41 8d 04 14          	lea    eax,[r12+rdx*1]
  407e46:	8b 4c 24 04          	mov    ecx,DWORD PTR [rsp+0x4]
  407e4a:	85 c9                	test   ecx,ecx
  407e4c:	45 8d a4 14 f4 01 00 	lea    r12d,[r12+rdx*1+0x1f4]
  407e53:	00 
  407e54:	44 0f 45 e0          	cmovne r12d,eax
  407e58:	eb 0a                	jmp    407e64 <_ZL11passer_evalP7state_tP8pawntt_tiP12t_eval_comps+0x194>
  407e5a:	66 0f 1f 44 00 00    	nop    WORD PTR [rax+rax*1+0x0]
  407e60:	8b 4c 24 04          	mov    ecx,DWORD PTR [rsp+0x4]
  407e64:	85 c9                	test   ecx,ecx
  407e66:	48 8b 54 24 30       	mov    rdx,QWORD PTR [rsp+0x30]
  407e6b:	8b 74 24 08          	mov    esi,DWORD PTR [rsp+0x8]
  407e6f:	0f 84 e8 fe ff ff    	je     407d5d <_ZL11passer_evalP7state_tP8pawntt_tiP12t_eval_comps+0x8d>
  407e75:	39 74 24 14          	cmp    DWORD PTR [rsp+0x14],esi
  407e79:	7f 1a                	jg     407e95 <_ZL11passer_evalP7state_tP8pawntt_tiP12t_eval_comps+0x1c5>
  407e7b:	8b 44 24 24          	mov    eax,DWORD PTR [rsp+0x24]
  407e7f:	29 e8                	sub    eax,ebp
  407e81:	89 c1                	mov    ecx,eax
  407e83:	f7 d9                	neg    ecx
  407e85:	0f 4c c8             	cmovl  ecx,eax
  407e88:	83 f9 01             	cmp    ecx,0x1
  407e8b:	75 08                	jne    407e95 <_ZL11passer_evalP7state_tP8pawntt_tiP12t_eval_comps+0x1c5>
  407e8d:	44 03 24 9d 80 08 41 	add    r12d,DWORD PTR [rbx*4+0x410880]
  407e94:	00 
  407e95:	48 8b 6c 24 18       	mov    rbp,QWORD PTR [rsp+0x18]
  407e9a:	45 8d 7d f8          	lea    r15d,[r13-0x8]
  407e9e:	48 8b 04 d5 d0 7e 41 	mov    rax,QWORD PTR [rdx*8+0x417ed0]
  407ea5:	00 
  407ea6:	48 85 85 08 01 00 00 	test   QWORD PTR [rbp+0x108],rax
  407ead:	74 11                	je     407ec0 <_ZL11passer_evalP7state_tP8pawntt_tiP12t_eval_comps+0x1f0>
  407eaf:	44 03 24 9d e0 08 41 	add    r12d,DWORD PTR [rbx*4+0x4108e0]
  407eb6:	00 
  407eb7:	eb 7b                	jmp    407f34 <_ZL11passer_evalP7state_tP8pawntt_tiP12t_eval_comps+0x264>
  407eb9:	0f 1f 80 00 00 00 00 	nop    DWORD PTR [rax+0x0]
  407ec0:	89 74 24 08          	mov    DWORD PTR [rsp+0x8],esi
  407ec4:	31 f6                	xor    esi,esi
  407ec6:	45 31 c0             	xor    r8d,r8d
  407ec9:	48 89 ef             	mov    rdi,rbp
  407ecc:	44 89 ea             	mov    edx,r13d
  407ecf:	44 89 f9             	mov    ecx,r15d
  407ed2:	e8 e9 52 00 00       	call   40d1c0 <_Z3seeP7state_tiiii>
  407ed7:	85 c0                	test   eax,eax
  407ed9:	78 55                	js     407f30 <_ZL11passer_evalP7state_tP8pawntt_tiP12t_eval_comps+0x260>
  407edb:	44 03 24 9d a0 08 41 	add    r12d,DWORD PTR [rbx*4+0x4108a0]
  407ee2:	00 
  407ee3:	41 83 fd 10          	cmp    r13d,0x10
  407ee7:	7c 47                	jl     407f30 <_ZL11passer_evalP7state_tP8pawntt_tiP12t_eval_comps+0x260>
  407ee9:	48 8b 44 24 30       	mov    rax,QWORD PTR [rsp+0x30]
  407eee:	48 8b 04 c5 90 7e 41 	mov    rax,QWORD PTR [rax*8+0x417e90]
  407ef5:	00 
  407ef6:	48 85 85 08 01 00 00 	test   QWORD PTR [rbp+0x108],rax
  407efd:	75 31                	jne    407f30 <_ZL11passer_evalP7state_tP8pawntt_tiP12t_eval_comps+0x260>
  407eff:	44 89 e9             	mov    ecx,r13d
  407f02:	83 c1 f0             	add    ecx,0xfffffff0
  407f05:	31 f6                	xor    esi,esi
  407f07:	45 31 c0             	xor    r8d,r8d
  407f0a:	48 89 ef             	mov    rdi,rbp
  407f0d:	44 89 ea             	mov    edx,r13d
  407f10:	e8 ab 52 00 00       	call   40d1c0 <_Z3seeP7state_tiiii>
  407f15:	85 c0                	test   eax,eax
  407f17:	78 17                	js     407f30 <_ZL11passer_evalP7state_tP8pawntt_tiP12t_eval_comps+0x260>
  407f19:	44 03 24 9d c0 08 41 	add    r12d,DWORD PTR [rbx*4+0x4108c0]
  407f20:	00 
  407f21:	66 2e 0f 1f 84 00 00 	cs nop WORD PTR [rax+rax*1+0x0]
  407f28:	00 00 00 
  407f2b:	0f 1f 44 00 00       	nop    DWORD PTR [rax+rax*1+0x0]
  407f30:	8b 74 24 08          	mov    esi,DWORD PTR [rsp+0x8]
  407f34:	bd 07 00 00 00       	mov    ebp,0x7
  407f39:	29 f5                	sub    ebp,esi
  407f3b:	8b 7c 24 28          	mov    edi,DWORD PTR [rsp+0x28]
  407f3f:	44 89 fe             	mov    esi,r15d
  407f42:	e8 09 a9 ff ff       	call   402850 <_Z16taxicab_dist_bitii>
  407f47:	89 c3                	mov    ebx,eax
  407f49:	8b 7c 24 2c          	mov    edi,DWORD PTR [rsp+0x2c]
  407f4d:	44 89 fe             	mov    esi,r15d
  407f50:	e8 fb a8 ff ff       	call   402850 <_Z16taxicab_dist_bitii>
  407f55:	8d 04 40             	lea    eax,[rax+rax*2]
  407f58:	29 c3                	sub    ebx,eax
  407f5a:	0f af dd             	imul   ebx,ebp
  407f5d:	42 8d 04 23          	lea    eax,[rbx+r12*1]
  407f61:	48 8b 4c 24 30       	mov    rcx,QWORD PTR [rsp+0x30]
  407f66:	48 8b 0c cd b0 90 41 	mov    rcx,QWORD PTR [rcx*8+0x4190b0]
  407f6d:	00 
  407f6e:	48 8b 6c 24 18       	mov    rbp,QWORD PTR [rsp+0x18]
  407f73:	48 85 8d 60 01 00 00 	test   QWORD PTR [rbp+0x160],rcx
  407f7a:	46 8d 64 23 f8       	lea    r12d,[rbx+r12*1-0x8]
  407f7f:	44 0f 44 e0          	cmove  r12d,eax
  407f83:	48 83 7c 24 38 00    	cmp    QWORD PTR [rsp+0x38],0x0
  407f89:	0f 85 21 fe ff ff    	jne    407db0 <_ZL11passer_evalP7state_tP8pawntt_tiP12t_eval_comps+0xe0>
  407f8f:	48 8b 44 24 48       	mov    rax,QWORD PTR [rsp+0x48]
  407f94:	48 8b 40 28          	mov    rax,QWORD PTR [rax+0x28]
  407f98:	48 89 44 24 38       	mov    QWORD PTR [rsp+0x38],rax
  407f9d:	48 85 c0             	test   rax,rax
  407fa0:	44 8b 6c 24 04       	mov    r13d,DWORD PTR [rsp+0x4]
  407fa5:	0f 84 8d 02 00 00    	je     408238 <_ZL11passer_evalP7state_tP8pawntt_tiP12t_eval_comps+0x568>
  407fab:	8b 4c 24 28          	mov    ecx,DWORD PTR [rsp+0x28]
  407faf:	89 c8                	mov    eax,ecx
  407fb1:	c1 f8 03             	sar    eax,0x3
  407fb4:	89 44 24 14          	mov    DWORD PTR [rsp+0x14],eax
  407fb8:	b8 00 04 00 00       	mov    eax,0x400
  407fbd:	44 29 e8             	sub    eax,r13d
  407fc0:	c1 e0 02             	shl    eax,0x2
  407fc3:	8d 04 80             	lea    eax,[rax+rax*4]
  407fc6:	89 c2                	mov    edx,eax
  407fc8:	c1 fa 1f             	sar    edx,0x1f
  407fcb:	c1 ea 16             	shr    edx,0x16
  407fce:	01 c2                	add    edx,eax
  407fd0:	c1 fa 0a             	sar    edx,0xa
  407fd3:	89 54 24 48          	mov    DWORD PTR [rsp+0x48],edx
  407fd7:	83 e1 07             	and    ecx,0x7
  407fda:	89 4c 24 40          	mov    DWORD PTR [rsp+0x40],ecx
  407fde:	45 31 f6             	xor    r14d,r14d
  407fe1:	e9 da 00 00 00       	jmp    4080c0 <_ZL11passer_evalP7state_tP8pawntt_tiP12t_eval_comps+0x3f0>
  407fe6:	66 2e 0f 1f 84 00 00 	cs nop WORD PTR [rax+rax*1+0x0]
  407fed:	00 00 00 
  407ff0:	48 89 74 24 08       	mov    QWORD PTR [rsp+0x8],rsi
  407ff5:	be 01 00 00 00       	mov    esi,0x1
  407ffa:	45 31 c0             	xor    r8d,r8d
  407ffd:	48 89 ef             	mov    rdi,rbp
  408000:	44 89 fa             	mov    edx,r15d
  408003:	44 89 e9             	mov    ecx,r13d
  408006:	e8 b5 51 00 00       	call   40d1c0 <_Z3seeP7state_tiiii>
  40800b:	85 c0                	test   eax,eax
  40800d:	0f 88 cf 01 00 00    	js     4081e2 <_ZL11passer_evalP7state_tP8pawntt_tiP12t_eval_comps+0x512>
  408013:	48 8b 44 24 08       	mov    rax,QWORD PTR [rsp+0x8]
  408018:	44 2b 34 85 a0 08 41 	sub    r14d,DWORD PTR [rax*4+0x4108a0]
  40801f:	00 
  408020:	41 83 ff 2f          	cmp    r15d,0x2f
  408024:	0f 8f b8 01 00 00    	jg     4081e2 <_ZL11passer_evalP7state_tP8pawntt_tiP12t_eval_comps+0x512>
  40802a:	48 8b 44 24 30       	mov    rax,QWORD PTR [rsp+0x30]
  40802f:	48 8b 04 c5 90 7f 41 	mov    rax,QWORD PTR [rax*8+0x417f90]
  408036:	00 
  408037:	48 85 85 08 01 00 00 	test   QWORD PTR [rbp+0x108],rax
  40803e:	0f 85 9e 01 00 00    	jne    4081e2 <_ZL11passer_evalP7state_tP8pawntt_tiP12t_eval_comps+0x512>
  408044:	44 89 f9             	mov    ecx,r15d
  408047:	83 c1 10             	add    ecx,0x10
  40804a:	be 01 00 00 00       	mov    esi,0x1
  40804f:	45 31 c0             	xor    r8d,r8d
  408052:	48 89 ef             	mov    rdi,rbp
  408055:	44 89 fa             	mov    edx,r15d
  408058:	e8 63 51 00 00       	call   40d1c0 <_Z3seeP7state_tiiii>
  40805d:	85 c0                	test   eax,eax
  40805f:	0f 88 7d 01 00 00    	js     4081e2 <_ZL11passer_evalP7state_tP8pawntt_tiP12t_eval_comps+0x512>
  408065:	48 8b 44 24 08       	mov    rax,QWORD PTR [rsp+0x8]
  40806a:	44 2b 34 85 c0 08 41 	sub    r14d,DWORD PTR [rax*4+0x4108c0]
  408071:	00 
  408072:	e9 6b 01 00 00       	jmp    4081e2 <_ZL11passer_evalP7state_tP8pawntt_tiP12t_eval_comps+0x512>
  408077:	41 83 ff 30          	cmp    r15d,0x30
  40807b:	7c 30                	jl     4080ad <_ZL11passer_evalP7state_tP8pawntt_tiP12t_eval_comps+0x3dd>
  40807d:	39 5c 24 14          	cmp    DWORD PTR [rsp+0x14],ebx
  408081:	7c 2a                	jl     4080ad <_ZL11passer_evalP7state_tP8pawntt_tiP12t_eval_comps+0x3dd>
  408083:	44 89 f8             	mov    eax,r15d
  408086:	24 07                	and    al,0x7
  408088:	3c 07                	cmp    al,0x7
  40808a:	74 04                	je     408090 <_ZL11passer_evalP7state_tP8pawntt_tiP12t_eval_comps+0x3c0>
  40808c:	84 c0                	test   al,al
  40808e:	75 0a                	jne    40809a <_ZL11passer_evalP7state_tP8pawntt_tiP12t_eval_comps+0x3ca>
  408090:	39 6c 24 40          	cmp    DWORD PTR [rsp+0x40],ebp
  408094:	0f 84 02 01 00 00    	je     40819c <_ZL11passer_evalP7state_tP8pawntt_tiP12t_eval_comps+0x4cc>
  40809a:	41 83 c6 e7          	add    r14d,0xffffffe7
  40809e:	39 5c 24 14          	cmp    DWORD PTR [rsp+0x14],ebx
  4080a2:	0f 8c 14 01 00 00    	jl     4081bc <_ZL11passer_evalP7state_tP8pawntt_tiP12t_eval_comps+0x4ec>
  4080a8:	e9 f5 00 00 00       	jmp    4081a2 <_ZL11passer_evalP7state_tP8pawntt_tiP12t_eval_comps+0x4d2>
  4080ad:	41 83 c6 19          	add    r14d,0x19
  4080b1:	39 5c 24 14          	cmp    DWORD PTR [rsp+0x14],ebx
  4080b5:	0f 8d e7 00 00 00    	jge    4081a2 <_ZL11passer_evalP7state_tP8pawntt_tiP12t_eval_comps+0x4d2>
  4080bb:	e9 fc 00 00 00       	jmp    4081bc <_ZL11passer_evalP7state_tP8pawntt_tiP12t_eval_comps+0x4ec>
  4080c0:	48 8d 7c 24 38       	lea    rdi,[rsp+0x38]
  4080c5:	e8 f6 a5 ff ff       	call   4026c0 <_Z15FindFirstRemovePy>
  4080ca:	41 89 c7             	mov    r15d,eax
  4080cd:	89 c3                	mov    ebx,eax
  4080cf:	c1 fb 03             	sar    ebx,0x3
  4080d2:	b8 06 00 00 00       	mov    eax,0x6
  4080d7:	29 d8                	sub    eax,ebx
  4080d9:	48 63 f0             	movsxd rsi,eax
  4080dc:	49 63 d7             	movsxd rdx,r15d
  4080df:	44 2b 34 b5 40 08 41 	sub    r14d,DWORD PTR [rsi*4+0x410840]
  4080e6:	00 
  4080e7:	83 7c 95 08 02       	cmp    DWORD PTR [rbp+rdx*4+0x8],0x2
  4080ec:	74 12                	je     408100 <_ZL11passer_evalP7state_tP8pawntt_tiP12t_eval_comps+0x430>
  4080ee:	83 7c 95 e0 02       	cmp    DWORD PTR [rbp+rdx*4-0x20],0x2
  4080f3:	74 0b                	je     408100 <_ZL11passer_evalP7state_tP8pawntt_tiP12t_eval_comps+0x430>
  4080f5:	83 7c 95 e8 02       	cmp    DWORD PTR [rbp+rdx*4-0x18],0x2
  4080fa:	75 0c                	jne    408108 <_ZL11passer_evalP7state_tP8pawntt_tiP12t_eval_comps+0x438>
  4080fc:	0f 1f 40 00          	nop    DWORD PTR [rax+0x0]
  408100:	44 2b 34 b5 60 08 41 	sub    r14d,DWORD PTR [rsi*4+0x410860]
  408107:	00 
  408108:	44 89 fd             	mov    ebp,r15d
  40810b:	83 e5 07             	and    ebp,0x7
  40810e:	41 81 fd 7f 01 00 00 	cmp    r13d,0x17f
  408115:	48 89 54 24 30       	mov    QWORD PTR [rsp+0x30],rdx
  40811a:	0f 8f 7c 00 00 00    	jg     40819c <_ZL11passer_evalP7state_tP8pawntt_tiP12t_eval_comps+0x4cc>
  408120:	48 89 74 24 08       	mov    QWORD PTR [rsp+0x8],rsi
  408125:	89 5c 24 24          	mov    DWORD PTR [rsp+0x24],ebx
  408129:	8d 5d 38             	lea    ebx,[rbp+0x38]
  40812c:	89 df                	mov    edi,ebx
  40812e:	44 89 fe             	mov    esi,r15d
  408131:	e8 1a a7 ff ff       	call   402850 <_Z16taxicab_dist_bitii>
  408136:	41 89 c5             	mov    r13d,eax
  408139:	89 df                	mov    edi,ebx
  40813b:	8b 74 24 2c          	mov    esi,DWORD PTR [rsp+0x2c]
  40813f:	e8 0c a7 ff ff       	call   402850 <_Z16taxicab_dist_bitii>
  408144:	48 8b 4c 24 18       	mov    rcx,QWORD PTR [rsp+0x18]
  408149:	83 b9 cc 01 00 00 01 	cmp    DWORD PTR [rcx+0x1cc],0x1
  408150:	83 d0 ff             	adc    eax,0xffffffff
  408153:	41 39 c5             	cmp    r13d,eax
  408156:	7d 28                	jge    408180 <_ZL11passer_evalP7state_tP8pawntt_tiP12t_eval_comps+0x4b0>
  408158:	44 2b 74 24 48       	sub    r14d,DWORD PTR [rsp+0x48]
  40815d:	41 8d 86 0c fe ff ff 	lea    eax,[r14-0x1f4]
  408164:	44 8b 6c 24 04       	mov    r13d,DWORD PTR [rsp+0x4]
  408169:	45 85 ed             	test   r13d,r13d
  40816c:	41 0f 45 c6          	cmovne eax,r14d
  408170:	41 89 c6             	mov    r14d,eax
  408173:	eb 10                	jmp    408185 <_ZL11passer_evalP7state_tP8pawntt_tiP12t_eval_comps+0x4b5>
  408175:	66 2e 0f 1f 84 00 00 	cs nop WORD PTR [rax+rax*1+0x0]
  40817c:	00 00 00 
  40817f:	90                   	nop
  408180:	44 8b 6c 24 04       	mov    r13d,DWORD PTR [rsp+0x4]
  408185:	45 85 ed             	test   r13d,r13d
  408188:	8b 5c 24 24          	mov    ebx,DWORD PTR [rsp+0x24]
  40818c:	48 8b 54 24 30       	mov    rdx,QWORD PTR [rsp+0x30]
  408191:	48 8b 74 24 08       	mov    rsi,QWORD PTR [rsp+0x8]
  408196:	0f 84 db fe ff ff    	je     408077 <_ZL11passer_evalP7state_tP8pawntt_tiP12t_eval_comps+0x3a7>
  40819c:	39 5c 24 14          	cmp    DWORD PTR [rsp+0x14],ebx
  4081a0:	7c 1a                	jl     4081bc <_ZL11passer_evalP7state_tP8pawntt_tiP12t_eval_comps+0x4ec>
  4081a2:	8b 44 24 40          	mov    eax,DWORD PTR [rsp+0x40]
  4081a6:	29 e8                	sub    eax,ebp
  4081a8:	89 c1                	mov    ecx,eax
  4081aa:	f7 d9                	neg    ecx
  4081ac:	0f 4c c8             	cmovl  ecx,eax
  4081af:	83 f9 01             	cmp    ecx,0x1
  4081b2:	75 08                	jne    4081bc <_ZL11passer_evalP7state_tP8pawntt_tiP12t_eval_comps+0x4ec>
  4081b4:	44 2b 34 b5 80 08 41 	sub    r14d,DWORD PTR [rsi*4+0x410880]
  4081bb:	00 
  4081bc:	48 8b 6c 24 18       	mov    rbp,QWORD PTR [rsp+0x18]
  4081c1:	45 8d 6f 08          	lea    r13d,[r15+0x8]
  4081c5:	48 8b 04 d5 50 7f 41 	mov    rax,QWORD PTR [rdx*8+0x417f50]
  4081cc:	00 
  4081cd:	48 85 85 08 01 00 00 	test   QWORD PTR [rbp+0x108],rax
  4081d4:	0f 84 16 fe ff ff    	je     407ff0 <_ZL11passer_evalP7state_tP8pawntt_tiP12t_eval_comps+0x320>
  4081da:	44 2b 34 b5 e0 08 41 	sub    r14d,DWORD PTR [rsi*4+0x4108e0]
  4081e1:	00 
  4081e2:	8b 7c 24 2c          	mov    edi,DWORD PTR [rsp+0x2c]
  4081e6:	44 89 ee             	mov    esi,r13d
  4081e9:	e8 62 a6 ff ff       	call   402850 <_Z16taxicab_dist_bitii>
  4081ee:	0f af c3             	imul   eax,ebx
  4081f1:	41 29 c6             	sub    r14d,eax
  4081f4:	8b 7c 24 28          	mov    edi,DWORD PTR [rsp+0x28]
  4081f8:	44 89 ee             	mov    esi,r13d
  4081fb:	e8 50 a6 ff ff       	call   402850 <_Z16taxicab_dist_bitii>
  408200:	0f af c3             	imul   eax,ebx
  408203:	8d 04 40             	lea    eax,[rax+rax*2]
  408206:	42 8d 0c 30          	lea    ecx,[rax+r14*1]
  40820a:	48 8b 54 24 30       	mov    rdx,QWORD PTR [rsp+0x30]
  40820f:	48 8b 14 d5 b0 8e 41 	mov    rdx,QWORD PTR [rdx*8+0x418eb0]
  408216:	00 
  408217:	48 85 95 58 01 00 00 	test   QWORD PTR [rbp+0x158],rdx
  40821e:	45 8d 74 06 08       	lea    r14d,[r14+rax*1+0x8]
  408223:	44 0f 44 f1          	cmove  r14d,ecx
  408227:	48 83 7c 24 38 00    	cmp    QWORD PTR [rsp+0x38],0x0
  40822d:	44 8b 6c 24 04       	mov    r13d,DWORD PTR [rsp+0x4]
  408232:	0f 85 88 fe ff ff    	jne    4080c0 <_ZL11passer_evalP7state_tP8pawntt_tiP12t_eval_comps+0x3f0>
  408238:	48 8b 44 24 50       	mov    rax,QWORD PTR [rsp+0x50]
  40823d:	44 89 60 10          	mov    DWORD PTR [rax+0x10],r12d
  408241:	44 89 70 14          	mov    DWORD PTR [rax+0x14],r14d
  408245:	48 83 c4 58          	add    rsp,0x58
  408249:	5b                   	pop    rbx
  40824a:	41 5c                	pop    r12
  40824c:	41 5d                	pop    r13
  40824e:	41 5e                	pop    r14
  408250:	41 5f                	pop    r15
  408252:	5d                   	pop    rbp
  408253:	c3                   	ret    
  408254:	66 2e 0f 1f 84 00 00 	cs nop WORD PTR [rax+rax*1+0x0]
  40825b:	00 00 00 
  40825e:	66 90                	xchg   ax,ax

0000000000408260 <_ZL15positional_evalP7state_tP8pawntt_tP12t_eval_comps>:
  408260:	55                   	push   rbp
  408261:	41 57                	push   r15
  408263:	41 56                	push   r14
  408265:	41 54                	push   r12
  408267:	53                   	push   rbx
  408268:	49 89 d6             	mov    r14,rdx
  40826b:	48 89 f3             	mov    rbx,rsi
  40826e:	49 89 ff             	mov    r15,rdi
  408271:	48 8b bf 38 01 00 00 	mov    rdi,QWORD PTR [rdi+0x138]
  408278:	48 23 7e 30          	and    rdi,QWORD PTR [rsi+0x30]
  40827c:	e8 ff a3 ff ff       	call   402680 <_Z8PopCounty>
  408281:	8d 04 80             	lea    eax,[rax+rax*4]
  408284:	8d 2c 40             	lea    ebp,[rax+rax*2]
  408287:	49 8b bf 38 01 00 00 	mov    rdi,QWORD PTR [r15+0x138]
  40828e:	48 23 7b 40          	and    rdi,QWORD PTR [rbx+0x40]
  408292:	e8 e9 a3 ff ff       	call   402680 <_Z8PopCounty>
  408297:	8d 04 80             	lea    eax,[rax+rax*4]
  40829a:	44 8d 24 80          	lea    r12d,[rax+rax*4]
  40829e:	41 01 ec             	add    r12d,ebp
  4082a1:	49 8b bf 40 01 00 00 	mov    rdi,QWORD PTR [r15+0x140]
  4082a8:	48 23 7b 38          	and    rdi,QWORD PTR [rbx+0x38]
  4082ac:	e8 cf a3 ff ff       	call   402680 <_Z8PopCounty>
  4082b1:	89 c5                	mov    ebp,eax
  4082b3:	c1 e0 04             	shl    eax,0x4
  4082b6:	29 c5                	sub    ebp,eax
  4082b8:	49 8b bf 40 01 00 00 	mov    rdi,QWORD PTR [r15+0x140]
  4082bf:	48 23 7b 48          	and    rdi,QWORD PTR [rbx+0x48]
  4082c3:	e8 b8 a3 ff ff       	call   402680 <_Z8PopCounty>
  4082c8:	6b d8 e7             	imul   ebx,eax,0xffffffe7
  4082cb:	48 8b 05 7e 04 01 00 	mov    rax,QWORD PTR [rip+0x1047e]        # 418750 <RankMask>
  4082d2:	49 85 87 50 01 00 00 	test   QWORD PTR [r15+0x150],rax
  4082d9:	75 10                	jne    4082eb <_ZL15positional_evalP7state_tP8pawntt_tP12t_eval_comps+0x8b>
  4082db:	48 8b 05 76 04 01 00 	mov    rax,QWORD PTR [rip+0x10476]        # 418758 <RankMask+0x8>
  4082e2:	49 85 87 30 01 00 00 	test   QWORD PTR [r15+0x130],rax
  4082e9:	74 24                	je     40830f <_ZL15positional_evalP7state_tP8pawntt_tP12t_eval_comps+0xaf>
  4082eb:	49 8b bf 58 01 00 00 	mov    rdi,QWORD PTR [r15+0x158]
  4082f2:	48 23 3d 5f 04 01 00 	and    rdi,QWORD PTR [rip+0x1045f]        # 418758 <RankMask+0x8>
  4082f9:	74 14                	je     40830f <_ZL15positional_evalP7state_tP8pawntt_tP12t_eval_comps+0xaf>
  4082fb:	e8 80 a3 ff ff       	call   402680 <_Z8PopCounty>
  408300:	83 f8 02             	cmp    eax,0x2
  408303:	7c 06                	jl     40830b <_ZL15positional_evalP7state_tP8pawntt_tP12t_eval_comps+0xab>
  408305:	41 83 c4 28          	add    r12d,0x28
  408309:	eb 04                	jmp    40830f <_ZL15positional_evalP7state_tP8pawntt_tP12t_eval_comps+0xaf>
  40830b:	41 83 c4 03          	add    r12d,0x3
  40830f:	01 eb                	add    ebx,ebp
  408311:	48 8b 05 70 04 01 00 	mov    rax,QWORD PTR [rip+0x10470]        # 418788 <RankMask+0x38>
  408318:	49 85 87 48 01 00 00 	test   QWORD PTR [r15+0x148],rax
  40831f:	75 10                	jne    408331 <_ZL15positional_evalP7state_tP8pawntt_tP12t_eval_comps+0xd1>
  408321:	48 8b 05 58 04 01 00 	mov    rax,QWORD PTR [rip+0x10458]        # 418780 <RankMask+0x30>
  408328:	49 85 87 28 01 00 00 	test   QWORD PTR [r15+0x128],rax
  40832f:	74 1d                	je     40834e <_ZL15positional_evalP7state_tP8pawntt_tP12t_eval_comps+0xee>
  408331:	49 8b bf 60 01 00 00 	mov    rdi,QWORD PTR [r15+0x160]
  408338:	48 23 3d 41 04 01 00 	and    rdi,QWORD PTR [rip+0x10441]        # 418780 <RankMask+0x30>
  40833f:	74 0d                	je     40834e <_ZL15positional_evalP7state_tP8pawntt_tP12t_eval_comps+0xee>
  408341:	e8 3a a3 ff ff       	call   402680 <_Z8PopCounty>
  408346:	83 f8 02             	cmp    eax,0x2
  408349:	7c 33                	jl     40837e <_ZL15positional_evalP7state_tP8pawntt_tP12t_eval_comps+0x11e>
  40834b:	83 c3 d8             	add    ebx,0xffffffd8
  40834e:	41 83 bf bc 01 00 00 	cmp    DWORD PTR [r15+0x1bc],0x1
  408355:	01 
  408356:	75 33                	jne    40838b <_ZL15positional_evalP7state_tP8pawntt_tP12t_eval_comps+0x12b>
  408358:	41 83 bf 9c 01 00 00 	cmp    DWORD PTR [r15+0x19c],0x0
  40835f:	00 
  408360:	75 29                	jne    40838b <_ZL15positional_evalP7state_tP8pawntt_tP12t_eval_comps+0x12b>
  408362:	48 8b 05 77 13 01 00 	mov    rax,QWORD PTR [rip+0x11377]        # 4196e0 <WhiteSqMask>
  408369:	49 8b bf 28 01 00 00 	mov    rdi,QWORD PTR [r15+0x128]
  408370:	49 85 87 78 01 00 00 	test   QWORD PTR [r15+0x178],rax
  408377:	74 42                	je     4083bb <_ZL15positional_evalP7state_tP8pawntt_tP12t_eval_comps+0x15b>
  408379:	48 21 c7             	and    rdi,rax
  40837c:	eb 44                	jmp    4083c2 <_ZL15positional_evalP7state_tP8pawntt_tP12t_eval_comps+0x162>
  40837e:	83 c3 fd             	add    ebx,0xfffffffd
  408381:	41 83 bf bc 01 00 00 	cmp    DWORD PTR [r15+0x1bc],0x1
  408388:	01 
  408389:	74 cd                	je     408358 <_ZL15positional_evalP7state_tP8pawntt_tP12t_eval_comps+0xf8>
  40838b:	41 83 bf c0 01 00 00 	cmp    DWORD PTR [r15+0x1c0],0x1
  408392:	01 
  408393:	75 57                	jne    4083ec <_ZL15positional_evalP7state_tP8pawntt_tP12t_eval_comps+0x18c>
  408395:	41 83 bf a0 01 00 00 	cmp    DWORD PTR [r15+0x1a0],0x0
  40839c:	00 
  40839d:	75 4d                	jne    4083ec <_ZL15positional_evalP7state_tP8pawntt_tP12t_eval_comps+0x18c>
  40839f:	48 8b 05 3a 13 01 00 	mov    rax,QWORD PTR [rip+0x1133a]        # 4196e0 <WhiteSqMask>
  4083a6:	49 8b bf 30 01 00 00 	mov    rdi,QWORD PTR [r15+0x130]
  4083ad:	49 85 87 80 01 00 00 	test   QWORD PTR [r15+0x180],rax
  4083b4:	74 23                	je     4083d9 <_ZL15positional_evalP7state_tP8pawntt_tP12t_eval_comps+0x179>
  4083b6:	48 21 c7             	and    rdi,rax
  4083b9:	eb 25                	jmp    4083e0 <_ZL15positional_evalP7state_tP8pawntt_tP12t_eval_comps+0x180>
  4083bb:	48 23 3d 26 13 01 00 	and    rdi,QWORD PTR [rip+0x11326]        # 4196e8 <BlackSqMask>
  4083c2:	e8 b9 a2 ff ff       	call   402680 <_Z8PopCounty>
  4083c7:	8d 04 40             	lea    eax,[rax+rax*2]
  4083ca:	41 29 c4             	sub    r12d,eax
  4083cd:	41 83 bf c0 01 00 00 	cmp    DWORD PTR [r15+0x1c0],0x1
  4083d4:	01 
  4083d5:	74 be                	je     408395 <_ZL15positional_evalP7state_tP8pawntt_tP12t_eval_comps+0x135>
  4083d7:	eb 13                	jmp    4083ec <_ZL15positional_evalP7state_tP8pawntt_tP12t_eval_comps+0x18c>
  4083d9:	48 23 3d 08 13 01 00 	and    rdi,QWORD PTR [rip+0x11308]        # 4196e8 <BlackSqMask>
  4083e0:	e8 9b a2 ff ff       	call   402680 <_Z8PopCounty>
  4083e5:	8d 04 40             	lea    eax,[rax+rax*2]
  4083e8:	01 d8                	add    eax,ebx
  4083ea:	89 c3                	mov    ebx,eax
  4083ec:	41 8d 44 24 1e       	lea    eax,[r12+0x1e]
  4083f1:	41 83 bf bc 01 00 00 	cmp    DWORD PTR [r15+0x1bc],0x2
  4083f8:	02 
  4083f9:	44 0f 44 e0          	cmove  r12d,eax
  4083fd:	8d 43 e2             	lea    eax,[rbx-0x1e]
  408400:	41 83 bf c0 01 00 00 	cmp    DWORD PTR [r15+0x1c0],0x2
  408407:	02 
  408408:	0f 45 c3             	cmovne eax,ebx
  40840b:	45 89 26             	mov    DWORD PTR [r14],r12d
  40840e:	41 89 46 04          	mov    DWORD PTR [r14+0x4],eax
  408412:	5b                   	pop    rbx
  408413:	41 5c                	pop    r12
  408415:	41 5e                	pop    r14
  408417:	41 5f                	pop    r15
  408419:	5d                   	pop    rbp
  40841a:	c3                   	ret    
  40841b:	0f 1f 44 00 00       	nop    DWORD PTR [rax+rax*1+0x0]

0000000000408420 <_ZL12trapped_evalP7state_tP12t_eval_comps>:
  408420:	44 8b 87 c4 00 00 00 	mov    r8d,DWORD PTR [rdi+0xc4]
  408427:	41 83 f8 0c          	cmp    r8d,0xc
  40842b:	74 0b                	je     408438 <_ZL12trapped_evalP7state_tP12t_eval_comps+0x18>
  40842d:	31 c0                	xor    eax,eax
  40842f:	83 bf e8 00 00 00 0c 	cmp    DWORD PTR [rdi+0xe8],0xc
  408436:	75 1c                	jne    408454 <_ZL12trapped_evalP7state_tP12t_eval_comps+0x34>
  408438:	31 c0                	xor    eax,eax
  40843a:	83 bf a8 00 00 00 01 	cmp    DWORD PTR [rdi+0xa8],0x1
  408441:	75 11                	jne    408454 <_ZL12trapped_evalP7state_tP12t_eval_comps+0x34>
  408443:	31 c9                	xor    ecx,ecx
  408445:	83 bf cc 00 00 00 01 	cmp    DWORD PTR [rdi+0xcc],0x1
  40844c:	b8 5a 00 00 00       	mov    eax,0x5a
  408451:	0f 45 c1             	cmovne eax,ecx
  408454:	44 8b 8f e0 00 00 00 	mov    r9d,DWORD PTR [rdi+0xe0]
  40845b:	41 83 f9 0c          	cmp    r9d,0xc
  40845f:	74 09                	je     40846a <_ZL12trapped_evalP7state_tP12t_eval_comps+0x4a>
  408461:	83 bf fc 00 00 00 0c 	cmp    DWORD PTR [rdi+0xfc],0xc
  408468:	75 1a                	jne    408484 <_ZL12trapped_evalP7state_tP12t_eval_comps+0x64>
  40846a:	83 bf bc 00 00 00 01 	cmp    DWORD PTR [rdi+0xbc],0x1
  408471:	75 11                	jne    408484 <_ZL12trapped_evalP7state_tP12t_eval_comps+0x64>
  408473:	8b 97 d8 00 00 00    	mov    edx,DWORD PTR [rdi+0xd8]
  408479:	83 ca 04             	or     edx,0x4
  40847c:	83 fa 05             	cmp    edx,0x5
  40847f:	75 03                	jne    408484 <_ZL12trapped_evalP7state_tP12t_eval_comps+0x64>
  408481:	83 c0 5a             	add    eax,0x5a
  408484:	8b 57 24             	mov    edx,DWORD PTR [rdi+0x24]
  408487:	83 fa 0b             	cmp    edx,0xb
  40848a:	74 06                	je     408492 <_ZL12trapped_evalP7state_tP12t_eval_comps+0x72>
  40848c:	83 7f 08 0b          	cmp    DWORD PTR [rdi+0x8],0xb
  408490:	75 10                	jne    4084a2 <_ZL12trapped_evalP7state_tP12t_eval_comps+0x82>
  408492:	83 7f 48 02          	cmp    DWORD PTR [rdi+0x48],0x2
  408496:	75 0a                	jne    4084a2 <_ZL12trapped_evalP7state_tP12t_eval_comps+0x82>
  408498:	8d 70 a6             	lea    esi,[rax-0x5a]
  40849b:	83 7f 2c 02          	cmp    DWORD PTR [rdi+0x2c],0x2
  40849f:	0f 44 c6             	cmove  eax,esi
  4084a2:	8b 77 40             	mov    esi,DWORD PTR [rdi+0x40]
  4084a5:	83 fe 0b             	cmp    esi,0xb
  4084a8:	74 06                	je     4084b0 <_ZL12trapped_evalP7state_tP12t_eval_comps+0x90>
  4084aa:	83 7f 1c 0b          	cmp    DWORD PTR [rdi+0x1c],0xb
  4084ae:	75 14                	jne    4084c4 <_ZL12trapped_evalP7state_tP12t_eval_comps+0xa4>
  4084b0:	83 7f 5c 02          	cmp    DWORD PTR [rdi+0x5c],0x2
  4084b4:	75 0e                	jne    4084c4 <_ZL12trapped_evalP7state_tP12t_eval_comps+0xa4>
  4084b6:	8b 4f 38             	mov    ecx,DWORD PTR [rdi+0x38]
  4084b9:	83 c9 04             	or     ecx,0x4
  4084bc:	83 f9 06             	cmp    ecx,0x6
  4084bf:	75 03                	jne    4084c4 <_ZL12trapped_evalP7state_tP12t_eval_comps+0xa4>
  4084c1:	83 c0 a6             	add    eax,0xffffffa6
  4084c4:	83 fe 03             	cmp    esi,0x3
  4084c7:	75 10                	jne    4084d9 <_ZL12trapped_evalP7state_tP12t_eval_comps+0xb9>
  4084c9:	83 7f 58 02          	cmp    DWORD PTR [rdi+0x58],0x2
  4084cd:	75 0a                	jne    4084d9 <_ZL12trapped_evalP7state_tP12t_eval_comps+0xb9>
  4084cf:	8d 48 dd             	lea    ecx,[rax-0x23]
  4084d2:	83 7f 3c 02          	cmp    DWORD PTR [rdi+0x3c],0x2
  4084d6:	0f 44 c1             	cmove  eax,ecx
  4084d9:	41 83 f9 04          	cmp    r9d,0x4
  4084dd:	75 16                	jne    4084f5 <_ZL12trapped_evalP7state_tP12t_eval_comps+0xd5>
  4084df:	83 bf b8 00 00 00 01 	cmp    DWORD PTR [rdi+0xb8],0x1
  4084e6:	75 0d                	jne    4084f5 <_ZL12trapped_evalP7state_tP12t_eval_comps+0xd5>
  4084e8:	8d 48 23             	lea    ecx,[rax+0x23]
  4084eb:	83 bf dc 00 00 00 01 	cmp    DWORD PTR [rdi+0xdc],0x1
  4084f2:	0f 44 c1             	cmove  eax,ecx
  4084f5:	83 7f 0c 06          	cmp    DWORD PTR [rdi+0xc],0x6
  4084f9:	74 06                	je     408501 <_ZL12trapped_evalP7state_tP12t_eval_comps+0xe1>
  4084fb:	83 7f 08 06          	cmp    DWORD PTR [rdi+0x8],0x6
  4084ff:	75 14                	jne    408515 <_ZL12trapped_evalP7state_tP12t_eval_comps+0xf5>
  408501:	83 fa 08             	cmp    edx,0x8
  408504:	74 0c                	je     408512 <_ZL12trapped_evalP7state_tP12t_eval_comps+0xf2>
  408506:	83 7f 04 08          	cmp    DWORD PTR [rdi+0x4],0x8
  40850a:	74 06                	je     408512 <_ZL12trapped_evalP7state_tP12t_eval_comps+0xf2>
  40850c:	83 7f 08 08          	cmp    DWORD PTR [rdi+0x8],0x8
  408510:	75 03                	jne    408515 <_ZL12trapped_evalP7state_tP12t_eval_comps+0xf5>
  408512:	83 c0 19             	add    eax,0x19
  408515:	83 7f 18 06          	cmp    DWORD PTR [rdi+0x18],0x6
  408519:	74 06                	je     408521 <_ZL12trapped_evalP7state_tP12t_eval_comps+0x101>
  40851b:	83 7f 1c 06          	cmp    DWORD PTR [rdi+0x1c],0x6
  40851f:	75 14                	jne    408535 <_ZL12trapped_evalP7state_tP12t_eval_comps+0x115>
  408521:	83 fe 08             	cmp    esi,0x8
  408524:	74 0c                	je     408532 <_ZL12trapped_evalP7state_tP12t_eval_comps+0x112>
  408526:	83 7f 20 08          	cmp    DWORD PTR [rdi+0x20],0x8
  40852a:	74 06                	je     408532 <_ZL12trapped_evalP7state_tP12t_eval_comps+0x112>
  40852c:	83 7f 1c 08          	cmp    DWORD PTR [rdi+0x1c],0x8
  408530:	75 03                	jne    408535 <_ZL12trapped_evalP7state_tP12t_eval_comps+0x115>
  408532:	83 c0 19             	add    eax,0x19
  408535:	83 bf ec 00 00 00 05 	cmp    DWORD PTR [rdi+0xec],0x5
  40853c:	74 09                	je     408547 <_ZL12trapped_evalP7state_tP12t_eval_comps+0x127>
  40853e:	83 bf e8 00 00 00 05 	cmp    DWORD PTR [rdi+0xe8],0x5
  408545:	75 1b                	jne    408562 <_ZL12trapped_evalP7state_tP12t_eval_comps+0x142>
  408547:	41 83 f8 07          	cmp    r8d,0x7
  40854b:	74 12                	je     40855f <_ZL12trapped_evalP7state_tP12t_eval_comps+0x13f>
  40854d:	83 bf e4 00 00 00 07 	cmp    DWORD PTR [rdi+0xe4],0x7
  408554:	74 09                	je     40855f <_ZL12trapped_evalP7state_tP12t_eval_comps+0x13f>
  408556:	83 bf e8 00 00 00 07 	cmp    DWORD PTR [rdi+0xe8],0x7
  40855d:	75 03                	jne    408562 <_ZL12trapped_evalP7state_tP12t_eval_comps+0x142>
  40855f:	83 c0 e7             	add    eax,0xffffffe7
  408562:	83 bf f8 00 00 00 05 	cmp    DWORD PTR [rdi+0xf8],0x5
  408569:	74 09                	je     408574 <_ZL12trapped_evalP7state_tP12t_eval_comps+0x154>
  40856b:	83 bf fc 00 00 00 05 	cmp    DWORD PTR [rdi+0xfc],0x5
  408572:	75 1b                	jne    40858f <_ZL12trapped_evalP7state_tP12t_eval_comps+0x16f>
  408574:	41 83 f9 07          	cmp    r9d,0x7
  408578:	74 12                	je     40858c <_ZL12trapped_evalP7state_tP12t_eval_comps+0x16c>
  40857a:	83 bf 00 01 00 00 07 	cmp    DWORD PTR [rdi+0x100],0x7
  408581:	74 09                	je     40858c <_ZL12trapped_evalP7state_tP12t_eval_comps+0x16c>
  408583:	83 bf fc 00 00 00 07 	cmp    DWORD PTR [rdi+0xfc],0x7
  40858a:	75 03                	jne    40858f <_ZL12trapped_evalP7state_tP12t_eval_comps+0x16f>
  40858c:	83 c0 e7             	add    eax,0xffffffe7
  40858f:	c3                   	ret    

0000000000408590 <_Z4evalP7state_tiii>:
  408590:	55                   	push   rbp
  408591:	48 89 e5             	mov    rbp,rsp
  408594:	41 57                	push   r15
  408596:	41 56                	push   r14
  408598:	41 55                	push   r13
  40859a:	41 54                	push   r12
  40859c:	53                   	push   rbx
  40859d:	48 83 e4 e0          	and    rsp,0xffffffffffffffe0
  4085a1:	48 81 ec 80 00 00 00 	sub    rsp,0x80
  4085a8:	49 89 ff             	mov    r15,rdi
  4085ab:	8b 9f 8c 01 00 00    	mov    ebx,DWORD PTR [rdi+0x18c]
  4085b1:	03 9f 88 01 00 00    	add    ebx,DWORD PTR [rdi+0x188]
  4085b7:	85 c9                	test   ecx,ecx
  4085b9:	0f 84 08 02 00 00    	je     4087c7 <_Z4evalP7state_tiii+0x237>
  4085bf:	41 8b 87 9c 01 00 00 	mov    eax,DWORD PTR [r15+0x19c]
  4085c6:	41 03 87 bc 01 00 00 	add    eax,DWORD PTR [r15+0x1bc]
  4085cd:	41 8b 8f ac 01 00 00 	mov    ecx,DWORD PTR [r15+0x1ac]
  4085d4:	8d 0c 49             	lea    ecx,[rcx+rcx*2]
  4085d7:	01 c9                	add    ecx,ecx
  4085d9:	8d 04 81             	lea    eax,[rcx+rax*4]
  4085dc:	41 8b 8f b4 01 00 00 	mov    ecx,DWORD PTR [r15+0x1b4]
  4085e3:	8d 0c 49             	lea    ecx,[rcx+rcx*2]
  4085e6:	8d 04 88             	lea    eax,[rax+rcx*4]
  4085e9:	89 44 24 18          	mov    DWORD PTR [rsp+0x18],eax
  4085ed:	41 8b 87 a0 01 00 00 	mov    eax,DWORD PTR [r15+0x1a0]
  4085f4:	41 8b 8f b0 01 00 00 	mov    ecx,DWORD PTR [r15+0x1b0]
  4085fb:	41 03 87 c0 01 00 00 	add    eax,DWORD PTR [r15+0x1c0]
  408602:	8d 0c 49             	lea    ecx,[rcx+rcx*2]
  408605:	01 c9                	add    ecx,ecx
  408607:	8d 04 81             	lea    eax,[rcx+rax*4]
  40860a:	41 8b 8f b8 01 00 00 	mov    ecx,DWORD PTR [r15+0x1b8]
  408611:	8d 0c 49             	lea    ecx,[rcx+rcx*2]
  408614:	8d 04 88             	lea    eax,[rax+rcx*4]
  408617:	89 44 24 1c          	mov    DWORD PTR [rsp+0x1c],eax
  40861b:	c7 44 24 20 28 00 00 	mov    DWORD PTR [rsp+0x20],0x28
  408622:	00 
  408623:	48 8d 7c 24 20       	lea    rdi,[rsp+0x20]
  408628:	48 8d 74 24 18       	lea    rsi,[rsp+0x18]
  40862d:	48 89 5c 24 60       	mov    QWORD PTR [rsp+0x60],rbx
  408632:	e8 39 a0 ff ff       	call   402670 <_ZSt3minIiERKT_S2_S2_>
  408637:	8b 00                	mov    eax,DWORD PTR [rax]
  408639:	89 44 24 18          	mov    DWORD PTR [rsp+0x18],eax
  40863d:	c7 44 24 20 28 00 00 	mov    DWORD PTR [rsp+0x20],0x28
  408644:	00 
  408645:	48 8d 7c 24 20       	lea    rdi,[rsp+0x20]
  40864a:	48 8d 74 24 1c       	lea    rsi,[rsp+0x1c]
  40864f:	e8 1c a0 ff ff       	call   402670 <_ZSt3minIiERKT_S2_S2_>
  408654:	8b 00                	mov    eax,DWORD PTR [rax]
  408656:	89 44 24 1c          	mov    DWORD PTR [rsp+0x1c],eax
  40865a:	03 44 24 18          	add    eax,DWORD PTR [rsp+0x18]
  40865e:	c1 e0 0a             	shl    eax,0xa
  408661:	48 98                	cdqe   
  408663:	4c 69 e0 67 66 66 66 	imul   r12,rax,0x66666667
  40866a:	4d 89 e5             	mov    r13,r12
  40866d:	49 c1 ed 3f          	shr    r13,0x3f
  408671:	49 c1 ec 20          	shr    r12,0x20
  408675:	41 c1 fc 05          	sar    r12d,0x5
  408679:	47 8d 34 2c          	lea    r14d,[r12+r13*1]
  40867d:	c5 f8 57 c0          	vxorps xmm0,xmm0,xmm0
  408681:	c5 fc 11 44 24 2c    	vmovups YMMWORD PTR [rsp+0x2c],ymm0
  408687:	c5 fc 29 44 24 20    	vmovaps YMMWORD PTR [rsp+0x20],ymm0
  40868d:	48 8d 54 24 20       	lea    rdx,[rsp+0x20]
  408692:	4c 89 ff             	mov    rdi,r15
  408695:	44 89 f6             	mov    esi,r14d
  408698:	c5 f8 77             	vzeroupper 
  40869b:	e8 70 e9 ff ff       	call   407010 <_Z5fevalP7state_tiP12t_eval_comps>
  4086a0:	41 83 bf cc 01 00 00 	cmp    DWORD PTR [r15+0x1cc],0x0
  4086a7:	00 
  4086a8:	b9 f6 ff ff ff       	mov    ecx,0xfffffff6
  4086ad:	41 b8 0a 00 00 00    	mov    r8d,0xa
  4086b3:	44 0f 44 c1          	cmove  r8d,ecx
  4086b7:	8b 54 24 34          	mov    edx,DWORD PTR [rsp+0x34]
  4086bb:	8b 4c 24 3c          	mov    ecx,DWORD PTR [rsp+0x3c]
  4086bf:	03 4c 24 38          	add    ecx,DWORD PTR [rsp+0x38]
  4086c3:	be 00 04 00 00       	mov    esi,0x400
  4086c8:	44 29 f6             	sub    esi,r14d
  4086cb:	0f af f1             	imul   esi,ecx
  4086ce:	48 63 ce             	movsxd rcx,esi
  4086d1:	48 69 c9 67 66 66 66 	imul   rcx,rcx,0x66666667
  4086d8:	48 89 ce             	mov    rsi,rcx
  4086db:	48 c1 ee 3f          	shr    rsi,0x3f
  4086df:	48 c1 e9 20          	shr    rcx,0x20
  4086e3:	c1 f9 09             	sar    ecx,0x9
  4086e6:	03 54 24 30          	add    edx,DWORD PTR [rsp+0x30]
  4086ea:	01 f1                	add    ecx,esi
  4086ec:	be 00 08 00 00       	mov    esi,0x800
  4086f1:	44 29 f6             	sub    esi,r14d
  4086f4:	0f af f2             	imul   esi,edx
  4086f7:	48 63 d6             	movsxd rdx,esi
  4086fa:	48 69 d2 ab aa aa 2a 	imul   rdx,rdx,0x2aaaaaab
  408701:	48 89 d6             	mov    rsi,rdx
  408704:	48 c1 ee 3f          	shr    rsi,0x3f
  408708:	48 c1 ea 20          	shr    rdx,0x20
  40870c:	c1 fa 08             	sar    edx,0x8
  40870f:	01 f2                	add    edx,esi
  408711:	8b 74 24 40          	mov    esi,DWORD PTR [rsp+0x40]
  408715:	8b 7c 24 44          	mov    edi,DWORD PTR [rsp+0x44]
  408719:	89 f8                	mov    eax,edi
  40871b:	01 f7                	add    edi,esi
  40871d:	0f af f6             	imul   esi,esi
  408720:	89 f3                	mov    ebx,esi
  408722:	c1 fb 1f             	sar    ebx,0x1f
  408725:	c1 eb 18             	shr    ebx,0x18
  408728:	01 f3                	add    ebx,esi
  40872a:	c1 fb 08             	sar    ebx,0x8
  40872d:	0f af c0             	imul   eax,eax
  408730:	c1 e8 08             	shr    eax,0x8
  408733:	29 df                	sub    edi,ebx
  408735:	01 c7                	add    edi,eax
  408737:	43 8d 04 2c          	lea    eax,[r12+r13*1]
  40873b:	05 00 04 00 00       	add    eax,0x400
  408740:	0f af c7             	imul   eax,edi
  408743:	89 c7                	mov    edi,eax
  408745:	c1 ff 1f             	sar    edi,0x1f
  408748:	c1 ef 15             	shr    edi,0x15
  40874b:	01 c7                	add    edi,eax
  40874d:	8b 74 24 20          	mov    esi,DWORD PTR [rsp+0x20]
  408751:	48 8b 5c 24 60       	mov    rbx,QWORD PTR [rsp+0x60]
  408756:	01 de                	add    esi,ebx
  408758:	44 01 c6             	add    esi,r8d
  40875b:	03 74 24 24          	add    esi,DWORD PTR [rsp+0x24]
  40875f:	03 74 24 48          	add    esi,DWORD PTR [rsp+0x48]
  408763:	03 74 24 28          	add    esi,DWORD PTR [rsp+0x28]
  408767:	c1 ff 0b             	sar    edi,0xb
  40876a:	03 74 24 2c          	add    esi,DWORD PTR [rsp+0x2c]
  40876e:	01 ce                	add    esi,ecx
  408770:	01 d6                	add    esi,edx
  408772:	01 fe                	add    esi,edi
  408774:	8b 54 24 18          	mov    edx,DWORD PTR [rsp+0x18]
  408778:	8b 4c 24 1c          	mov    ecx,DWORD PTR [rsp+0x1c]
  40877c:	4c 89 ff             	mov    rdi,r15
  40877f:	e8 ac 00 00 00       	call   408830 <_ZL16opposite_bishopsP7state_tiii>
  408784:	8b 54 24 18          	mov    edx,DWORD PTR [rsp+0x18]
  408788:	8b 4c 24 1c          	mov    ecx,DWORD PTR [rsp+0x1c]
  40878c:	4c 89 ff             	mov    rdi,r15
  40878f:	89 c6                	mov    esi,eax
  408791:	e8 7a a3 ff ff       	call   402b10 <_Z14drawn_endgamesP7state_tiii>
  408796:	89 c1                	mov    ecx,eax
  408798:	29 d8                	sub    eax,ebx
  40879a:	49 63 97 d8 01 00 00 	movsxd rdx,DWORD PTR [r15+0x1d8]
  4087a1:	41 89 84 97 f0 0a 00 	mov    DWORD PTR [r15+rdx*4+0xaf0],eax
  4087a8:	00 
  4087a9:	89 c8                	mov    eax,ecx
  4087ab:	f7 d8                	neg    eax
  4087ad:	41 83 bf cc 01 00 00 	cmp    DWORD PTR [r15+0x1cc],0x0
  4087b4:	00 
  4087b5:	0f 45 c1             	cmovne eax,ecx
  4087b8:	48 8d 65 d8          	lea    rsp,[rbp-0x28]
  4087bc:	5b                   	pop    rbx
  4087bd:	41 5c                	pop    r12
  4087bf:	41 5d                	pop    r13
  4087c1:	41 5e                	pop    r14
  4087c3:	41 5f                	pop    r15
  4087c5:	5d                   	pop    rbp
  4087c6:	c3                   	ret    
  4087c7:	41 83 bf 94 01 00 00 	cmp    DWORD PTR [r15+0x194],0x0
  4087ce:	00 
  4087cf:	0f 84 ea fd ff ff    	je     4085bf <_Z4evalP7state_tiii+0x2f>
  4087d5:	41 83 bf 98 01 00 00 	cmp    DWORD PTR [r15+0x198],0x0
  4087dc:	00 
  4087dd:	0f 84 dc fd ff ff    	je     4085bf <_Z4evalP7state_tiii+0x2f>
  4087e3:	4d 63 87 d8 01 00 00 	movsxd r8,DWORD PTR [r15+0x1d8]
  4087ea:	43 8b bc 87 ec 0a 00 	mov    edi,DWORD PTR [r15+r8*4+0xaec]
  4087f1:	00 
  4087f2:	8d 04 1f             	lea    eax,[rdi+rbx*1]
  4087f5:	89 c1                	mov    ecx,eax
  4087f7:	f7 d9                	neg    ecx
  4087f9:	41 83 bf cc 01 00 00 	cmp    DWORD PTR [r15+0x1cc],0x0
  408800:	00 
  408801:	0f 45 c8             	cmovne ecx,eax
  408804:	43 89 bc 87 f0 0a 00 	mov    DWORD PTR [r15+r8*4+0xaf0],edi
  40880b:	00 
  40880c:	8d 41 32             	lea    eax,[rcx+0x32]
  40880f:	39 f0                	cmp    eax,esi
  408811:	7e a5                	jle    4087b8 <_Z4evalP7state_tiii+0x228>
  408813:	83 c1 ce             	add    ecx,0xffffffce
  408816:	89 c8                	mov    eax,ecx
  408818:	39 d1                	cmp    ecx,edx
  40881a:	0f 8c 9f fd ff ff    	jl     4085bf <_Z4evalP7state_tiii+0x2f>
  408820:	eb 96                	jmp    4087b8 <_Z4evalP7state_tiii+0x228>
  408822:	66 2e 0f 1f 84 00 00 	cs nop WORD PTR [rax+rax*1+0x0]
  408829:	00 00 00 
  40882c:	0f 1f 40 00          	nop    DWORD PTR [rax+0x0]

0000000000408830 <_ZL16opposite_bishopsP7state_tiii>:
  408830:	55                   	push   rbp
  408831:	41 57                	push   r15
  408833:	41 56                	push   r14
  408835:	53                   	push   rbx
  408836:	50                   	push   rax
  408837:	41 89 f6             	mov    r14d,esi
  40883a:	83 fa 0a             	cmp    edx,0xa
  40883d:	7f 6c                	jg     4088ab <_ZL16opposite_bishopsP7state_tiii+0x7b>
  40883f:	41 89 cf             	mov    r15d,ecx
  408842:	83 f9 0a             	cmp    ecx,0xa
  408845:	7f 64                	jg     4088ab <_ZL16opposite_bishopsP7state_tiii+0x7b>
  408847:	48 89 fd             	mov    rbp,rdi
  40884a:	8b 87 bc 01 00 00    	mov    eax,DWORD PTR [rdi+0x1bc]
  408850:	83 f8 01             	cmp    eax,0x1
  408853:	75 56                	jne    4088ab <_ZL16opposite_bishopsP7state_tiii+0x7b>
  408855:	3b 85 c0 01 00 00    	cmp    eax,DWORD PTR [rbp+0x1c0]
  40885b:	75 4e                	jne    4088ab <_ZL16opposite_bishopsP7state_tiii+0x7b>
  40885d:	89 d3                	mov    ebx,edx
  40885f:	48 8b bd 80 01 00 00 	mov    rdi,QWORD PTR [rbp+0x180]
  408866:	48 0b bd 78 01 00 00 	or     rdi,QWORD PTR [rbp+0x178]
  40886d:	48 23 3d 6c 0e 01 00 	and    rdi,QWORD PTR [rip+0x10e6c]        # 4196e0 <WhiteSqMask>
  408874:	e8 07 9e ff ff       	call   402680 <_Z8PopCounty>
  408879:	83 f8 01             	cmp    eax,0x1
  40887c:	75 2d                	jne    4088ab <_ZL16opposite_bishopsP7state_tiii+0x7b>
  40887e:	8b 85 88 01 00 00    	mov    eax,DWORD PTR [rbp+0x188]
  408884:	89 c1                	mov    ecx,eax
  408886:	f7 d9                	neg    ecx
  408888:	0f 4c c8             	cmovl  ecx,eax
  40888b:	81 f9 aa 00 00 00    	cmp    ecx,0xaa
  408891:	7f 18                	jg     4088ab <_ZL16opposite_bishopsP7state_tiii+0x7b>
  408893:	83 fb 04             	cmp    ebx,0x4
  408896:	7f 0b                	jg     4088a3 <_ZL16opposite_bishopsP7state_tiii+0x73>
  408898:	41 83 ff 05          	cmp    r15d,0x5
  40889c:	7d 05                	jge    4088a3 <_ZL16opposite_bishopsP7state_tiii+0x73>
  40889e:	41 d1 fe             	sar    r14d,1
  4088a1:	eb 08                	jmp    4088ab <_ZL16opposite_bishopsP7state_tiii+0x7b>
  4088a3:	47 8d 34 76          	lea    r14d,[r14+r14*2]
  4088a7:	41 c1 fe 02          	sar    r14d,0x2
  4088ab:	44 89 f0             	mov    eax,r14d
  4088ae:	48 83 c4 08          	add    rsp,0x8
  4088b2:	5b                   	pop    rbx
  4088b3:	41 5e                	pop    r14
  4088b5:	41 5f                	pop    r15
  4088b7:	5d                   	pop    rbp
  4088b8:	c3                   	ret    
  4088b9:	0f 1f 80 00 00 00 00 	nop    DWORD PTR [rax+0x0]

00000000004088c0 <_Z13retrieve_evalP7state_t>:
  4088c0:	48 63 87 d8 01 00 00 	movsxd rax,DWORD PTR [rdi+0x1d8]
  4088c7:	8b 8f 88 01 00 00    	mov    ecx,DWORD PTR [rdi+0x188]
  4088cd:	03 8c 87 f0 0a 00 00 	add    ecx,DWORD PTR [rdi+rax*4+0xaf0]
  4088d4:	03 8f 8c 01 00 00    	add    ecx,DWORD PTR [rdi+0x18c]
  4088da:	89 c8                	mov    eax,ecx
  4088dc:	f7 d8                	neg    eax
  4088de:	83 bf cc 01 00 00 00 	cmp    DWORD PTR [rdi+0x1cc],0x0
  4088e5:	0f 45 c1             	cmovne eax,ecx
  4088e8:	c3                   	ret    
  4088e9:	0f 1f 80 00 00 00 00 	nop    DWORD PTR [rax+0x0]

00000000004088f0 <_Z13clear_pawn_ttv>:
  4088f0:	bf 60 9b 42 00       	mov    edi,0x429b60
  4088f5:	31 f6                	xor    esi,esi
  4088f7:	ba 00 00 b0 00       	mov    edx,0xb00000
  4088fc:	e9 af 87 ff ff       	jmp    4010b0 <memset@plt>
  408901:	66 2e 0f 1f 84 00 00 	cs nop WORD PTR [rax+rax*1+0x0]
  408908:	00 00 00 
  40890b:	0f 1f 44 00 00       	nop    DWORD PTR [rax+rax*1+0x0]

0000000000408910 <_Z5scaleiii>:
  408910:	29 f2                	sub    edx,esi
  408912:	48 63 c7             	movsxd rax,edi
  408915:	0f af 14 85 00 09 41 	imul   edx,DWORD PTR [rax*4+0x410900]
  40891c:	00 
  40891d:	8d 42 10             	lea    eax,[rdx+0x10]
  408920:	c1 f8 1f             	sar    eax,0x1f
  408923:	c1 e8 1b             	shr    eax,0x1b
  408926:	8d 04 02             	lea    eax,[rdx+rax*1]
  408929:	83 c0 10             	add    eax,0x10
  40892c:	c1 f8 05             	sar    eax,0x5
  40892f:	01 f0                	add    eax,esi
  408931:	c3                   	ret    
  408932:	66 2e 0f 1f 84 00 00 	cs nop WORD PTR [rax+rax*1+0x0]
  408939:	00 00 00 
  40893c:	0f 1f 40 00          	nop    DWORD PTR [rax+0x0]

0000000000408940 <_Z16static_pawn_evalP7state_t>:
  408940:	41 56                	push   r14
  408942:	53                   	push   rbx
  408943:	50                   	push   rax
  408944:	48 8b 87 e8 01 00 00 	mov    rax,QWORD PTR [rdi+0x1e8]
  40894b:	89 c1                	mov    ecx,eax
  40894d:	81 e1 ff 3f 00 00    	and    ecx,0x3fff
  408953:	48 63 17             	movsxd rdx,DWORD PTR [rdi]
  408956:	48 69 d2 00 00 16 00 	imul   rdx,rdx,0x160000
  40895d:	48 6b c9 58          	imul   rcx,rcx,0x58
  408961:	4c 8d 34 0a          	lea    r14,[rdx+rcx*1]
  408965:	49 81 c6 60 9b 42 00 	add    r14,0x429b60
  40896c:	48 39 84 0a 60 9b 42 	cmp    QWORD PTR [rdx+rcx*1+0x429b60],rax
  408973:	00 
  408974:	74 15                	je     40898b <_Z16static_pawn_evalP7state_t+0x4b>
  408976:	48 89 fb             	mov    rbx,rdi
  408979:	4c 89 f6             	mov    rsi,r14
  40897c:	e8 1f 00 00 00       	call   4089a0 <_ZL14full_pawn_evalP7state_tP8pawntt_t>
  408981:	48 8b 83 e8 01 00 00 	mov    rax,QWORD PTR [rbx+0x1e8]
  408988:	49 89 06             	mov    QWORD PTR [r14],rax
  40898b:	4c 89 f0             	mov    rax,r14
  40898e:	48 83 c4 08          	add    rsp,0x8
  408992:	5b                   	pop    rbx
  408993:	41 5e                	pop    r14
  408995:	c3                   	ret    
  408996:	66 2e 0f 1f 84 00 00 	cs nop WORD PTR [rax+rax*1+0x0]
  40899d:	00 00 00 

00000000004089a0 <_ZL14full_pawn_evalP7state_tP8pawntt_t>:
  4089a0:	55                   	push   rbp
  4089a1:	41 57                	push   r15
  4089a3:	41 56                	push   r14
  4089a5:	41 55                	push   r13
  4089a7:	41 54                	push   r12
  4089a9:	53                   	push   rbx
  4089aa:	48 83 ec 58          	sub    rsp,0x58
  4089ae:	c5 f8 57 c0          	vxorps xmm0,xmm0,xmm0
  4089b2:	c5 fc 11 46 38       	vmovups YMMWORD PTR [rsi+0x38],ymm0
  4089b7:	c5 fc 11 46 20       	vmovups YMMWORD PTR [rsi+0x20],ymm0
  4089bc:	48 89 34 24          	mov    QWORD PTR [rsp],rsi
  4089c0:	c5 fc 11 06          	vmovups YMMWORD PTR [rsi],ymm0
  4089c4:	48 c7 c0 c0 ff ff ff 	mov    rax,0xffffffffffffffc0
  4089cb:	0f 1f 44 00 00       	nop    DWORD PTR [rax+rax*1+0x0]
  4089d0:	48 8b 88 50 87 41 00 	mov    rcx,QWORD PTR [rax+0x418750]
  4089d7:	48 85 8f 28 01 00 00 	test   QWORD PTR [rdi+0x128],rcx
  4089de:	74 30                	je     408a10 <_ZL14full_pawn_evalP7state_tP8pawntt_t+0x70>
  4089e0:	48 85 8f 30 01 00 00 	test   QWORD PTR [rdi+0x130],rcx
  4089e7:	74 38                	je     408a21 <_ZL14full_pawn_evalP7state_tP8pawntt_t+0x81>
  4089e9:	48 8b 97 30 01 00 00 	mov    rdx,QWORD PTR [rdi+0x130]
  4089f0:	48 0b 97 28 01 00 00 	or     rdx,QWORD PTR [rdi+0x128]
  4089f7:	48 85 ca             	test   rdx,rcx
  4089fa:	74 34                	je     408a30 <_ZL14full_pawn_evalP7state_tP8pawntt_t+0x90>
  4089fc:	48 83 c0 08          	add    rax,0x8
  408a00:	75 ce                	jne    4089d0 <_ZL14full_pawn_evalP7state_tP8pawntt_t+0x30>
  408a02:	eb 3a                	jmp    408a3e <_ZL14full_pawn_evalP7state_tP8pawntt_t+0x9e>
  408a04:	66 2e 0f 1f 84 00 00 	cs nop WORD PTR [rax+rax*1+0x0]
  408a0b:	00 00 00 
  408a0e:	66 90                	xchg   ax,ax
  408a10:	48 8b 14 24          	mov    rdx,QWORD PTR [rsp]
  408a14:	48 09 4a 10          	or     QWORD PTR [rdx+0x10],rcx
  408a18:	48 85 8f 30 01 00 00 	test   QWORD PTR [rdi+0x130],rcx
  408a1f:	75 c8                	jne    4089e9 <_ZL14full_pawn_evalP7state_tP8pawntt_t+0x49>
  408a21:	48 8b 14 24          	mov    rdx,QWORD PTR [rsp]
  408a25:	48 09 4a 18          	or     QWORD PTR [rdx+0x18],rcx
  408a29:	eb be                	jmp    4089e9 <_ZL14full_pawn_evalP7state_tP8pawntt_t+0x49>
  408a2b:	0f 1f 44 00 00       	nop    DWORD PTR [rax+rax*1+0x0]
  408a30:	48 8b 14 24          	mov    rdx,QWORD PTR [rsp]
  408a34:	48 09 4a 08          	or     QWORD PTR [rdx+0x8],rcx
  408a38:	48 83 c0 08          	add    rax,0x8
  408a3c:	75 92                	jne    4089d0 <_ZL14full_pawn_evalP7state_tP8pawntt_t+0x30>
  408a3e:	48 89 7c 24 08       	mov    QWORD PTR [rsp+0x8],rdi
  408a43:	48 8b 87 28 01 00 00 	mov    rax,QWORD PTR [rdi+0x128]
  408a4a:	48 89 44 24 48       	mov    QWORD PTR [rsp+0x48],rax
  408a4f:	48 85 c0             	test   rax,rax
  408a52:	0f 84 68 05 00 00    	je     408fc0 <_ZL14full_pawn_evalP7state_tP8pawntt_t+0x620>
  408a58:	48 8b 04 24          	mov    rax,QWORD PTR [rsp]
  408a5c:	48 8d 40 50          	lea    rax,[rax+0x50]
  408a60:	48 89 44 24 20       	mov    QWORD PTR [rsp+0x20],rax
  408a65:	66 2e 0f 1f 84 00 00 	cs nop WORD PTR [rax+rax*1+0x0]
  408a6c:	00 00 00 
  408a6f:	90                   	nop
  408a70:	48 8d 7c 24 48       	lea    rdi,[rsp+0x48]
  408a75:	c5 f8 77             	vzeroupper 
  408a78:	e8 43 9c ff ff       	call   4026c0 <_Z15FindFirstRemovePy>
  408a7d:	89 c3                	mov    ebx,eax
  408a7f:	89 c1                	mov    ecx,eax
  408a81:	83 e1 07             	and    ecx,0x7
  408a84:	48 8b 44 24 08       	mov    rax,QWORD PTR [rsp+0x8]
  408a89:	4c 8b b8 28 01 00 00 	mov    r15,QWORD PTR [rax+0x128]
  408a90:	4c 23 3c cd 10 87 41 	and    r15,QWORD PTR [rcx*8+0x418710]
  408a97:	00 
  408a98:	89 d8                	mov    eax,ebx
  408a9a:	24 07                	and    al,0x7
  408a9c:	3c 07                	cmp    al,0x7
  408a9e:	48 89 4c 24 30       	mov    QWORD PTR [rsp+0x30],rcx
  408aa3:	74 1b                	je     408ac0 <_ZL14full_pawn_evalP7state_tP8pawntt_t+0x120>
  408aa5:	84 c0                	test   al,al
  408aa7:	75 27                	jne    408ad0 <_ZL14full_pawn_evalP7state_tP8pawntt_t+0x130>
  408aa9:	4c 8b 25 68 fc 00 00 	mov    r12,QWORD PTR [rip+0xfc68]        # 418718 <FileMask+0x8>
  408ab0:	eb 2e                	jmp    408ae0 <_ZL14full_pawn_evalP7state_tP8pawntt_t+0x140>
  408ab2:	66 2e 0f 1f 84 00 00 	cs nop WORD PTR [rax+rax*1+0x0]
  408ab9:	00 00 00 
  408abc:	0f 1f 40 00          	nop    DWORD PTR [rax+0x0]
  408ac0:	4c 8b 25 79 fc 00 00 	mov    r12,QWORD PTR [rip+0xfc79]        # 418740 <FileMask+0x30>
  408ac7:	eb 17                	jmp    408ae0 <_ZL14full_pawn_evalP7state_tP8pawntt_t+0x140>
  408ac9:	0f 1f 80 00 00 00 00 	nop    DWORD PTR [rax+0x0]
  408ad0:	4c 8b 24 cd 18 87 41 	mov    r12,QWORD PTR [rcx*8+0x418718]
  408ad7:	00 
  408ad8:	4c 0b 24 cd 08 87 41 	or     r12,QWORD PTR [rcx*8+0x418708]
  408adf:	00 
  408ae0:	48 63 c3             	movsxd rax,ebx
  408ae3:	48 8b 6c 24 08       	mov    rbp,QWORD PTR [rsp+0x8]
  408ae8:	4c 8b ad 30 01 00 00 	mov    r13,QWORD PTR [rbp+0x130]
  408aef:	48 89 44 24 28       	mov    QWORD PTR [rsp+0x28],rax
  408af4:	4c 23 2c c5 b0 8e 41 	and    r13,QWORD PTR [rax*8+0x418eb0]
  408afb:	00 
  408afc:	4c 89 ff             	mov    rdi,r15
  408aff:	e8 7c 9b ff ff       	call   402680 <_Z8PopCounty>
  408b04:	45 31 d2             	xor    r10d,r10d
  408b07:	41 b9 00 00 00 00    	mov    r9d,0x0
  408b0d:	83 f8 02             	cmp    eax,0x2
  408b10:	7c 1c                	jl     408b2e <_ZL14full_pawn_evalP7state_tP8pawntt_t+0x18e>
  408b12:	89 d8                	mov    eax,ebx
  408b14:	c1 f8 03             	sar    eax,0x3
  408b17:	48 98                	cdqe   
  408b19:	45 31 c9             	xor    r9d,r9d
  408b1c:	4c 85 3c c5 90 87 41 	test   QWORD PTR [rax*8+0x418790],r15
  408b23:	00 
  408b24:	41 0f 95 c1          	setne  r9b
  408b28:	41 ba 01 00 00 00    	mov    r10d,0x1
  408b2e:	48 8b 85 28 01 00 00 	mov    rax,QWORD PTR [rbp+0x128]
  408b35:	45 31 c0             	xor    r8d,r8d
  408b38:	48 89 c7             	mov    rdi,rax
  408b3b:	4c 21 e7             	and    rdi,r12
  408b3e:	74 20                	je     408b60 <_ZL14full_pawn_evalP7state_tP8pawntt_t+0x1c0>
  408b40:	89 d9                	mov    ecx,ebx
  408b42:	c1 f9 03             	sar    ecx,0x3
  408b45:	48 63 f1             	movsxd rsi,ecx
  408b48:	48 85 3c f5 c8 87 41 	test   QWORD PTR [rsi*8+0x4187c8],rdi
  408b4f:	00 
  408b50:	0f 84 8a 00 00 00    	je     408be0 <_ZL14full_pawn_evalP7state_tP8pawntt_t+0x240>
  408b56:	31 f6                	xor    esi,esi
  408b58:	eb 0b                	jmp    408b65 <_ZL14full_pawn_evalP7state_tP8pawntt_t+0x1c5>
  408b5a:	66 0f 1f 44 00 00    	nop    WORD PTR [rax+rax*1+0x0]
  408b60:	be 01 00 00 00       	mov    esi,0x1
  408b65:	45 31 db             	xor    r11d,r11d
  408b68:	4d 85 ed             	test   r13,r13
  408b6b:	0f 84 5f 01 00 00    	je     408cd0 <_ZL14full_pawn_evalP7state_tP8pawntt_t+0x330>
  408b71:	45 85 d2             	test   r10d,r10d
  408b74:	74 1b                	je     408b91 <_ZL14full_pawn_evalP7state_tP8pawntt_t+0x1f1>
  408b76:	31 c0                	xor    eax,eax
  408b78:	4d 85 ed             	test   r13,r13
  408b7b:	0f 95 c0             	setne  al
  408b7e:	48 8b 14 24          	mov    rdx,QWORD PTR [rsp]
  408b82:	8b 4a 50             	mov    ecx,DWORD PTR [rdx+0x50]
  408b85:	8d 04 80             	lea    eax,[rax+rax*4]
  408b88:	8d 04 01             	lea    eax,[rcx+rax*1]
  408b8b:	83 c0 f6             	add    eax,0xfffffff6
  408b8e:	89 42 50             	mov    DWORD PTR [rdx+0x50],eax
  408b91:	85 f6                	test   esi,esi
  408b93:	74 1b                	je     408bb0 <_ZL14full_pawn_evalP7state_tP8pawntt_t+0x210>
  408b95:	48 8b 44 24 20       	mov    rax,QWORD PTR [rsp+0x20]
  408b9a:	8b 00                	mov    eax,DWORD PTR [rax]
  408b9c:	4d 85 ed             	test   r13,r13
  408b9f:	0f 84 cb 00 00 00    	je     408c70 <_ZL14full_pawn_evalP7state_tP8pawntt_t+0x2d0>
  408ba5:	83 c0 f8             	add    eax,0xfffffff8
  408ba8:	e9 63 02 00 00       	jmp    408e10 <_ZL14full_pawn_evalP7state_tP8pawntt_t+0x470>
  408bad:	0f 1f 00             	nop    DWORD PTR [rax]
  408bb0:	45 84 db             	test   r11b,r11b
  408bb3:	0f 84 5e 02 00 00    	je     408e17 <_ZL14full_pawn_evalP7state_tP8pawntt_t+0x477>
  408bb9:	48 8b 44 24 20       	mov    rax,QWORD PTR [rsp+0x20]
  408bbe:	8b 00                	mov    eax,DWORD PTR [rax]
  408bc0:	4d 85 ed             	test   r13,r13
  408bc3:	0f 84 3a 02 00 00    	je     408e03 <_ZL14full_pawn_evalP7state_tP8pawntt_t+0x463>
  408bc9:	83 c0 fa             	add    eax,0xfffffffa
  408bcc:	e9 3f 02 00 00       	jmp    408e10 <_ZL14full_pawn_evalP7state_tP8pawntt_t+0x470>
  408bd1:	66 2e 0f 1f 84 00 00 	cs nop WORD PTR [rax+rax*1+0x0]
  408bd8:	00 00 00 
  408bdb:	0f 1f 44 00 00       	nop    DWORD PTR [rax+rax*1+0x0]
  408be0:	48 8d 56 ff          	lea    rdx,[rsi-0x1]
  408be4:	48 8b 14 d5 50 87 41 	mov    rdx,QWORD PTR [rdx*8+0x418750]
  408beb:	00 
  408bec:	83 fb 10             	cmp    ebx,0x10
  408bef:	7c 25                	jl     408c16 <_ZL14full_pawn_evalP7state_tP8pawntt_t+0x276>
  408bf1:	48 8b 2c f5 40 87 41 	mov    rbp,QWORD PTR [rsi*8+0x418740]
  408bf8:	00 
  408bf9:	48 09 d5             	or     rbp,rdx
  408bfc:	83 fb 18             	cmp    ebx,0x18
  408bff:	48 89 6c 24 38       	mov    QWORD PTR [rsp+0x38],rbp
  408c04:	7c 10                	jl     408c16 <_ZL14full_pawn_evalP7state_tP8pawntt_t+0x276>
  408c06:	48 8b 34 f5 38 87 41 	mov    rsi,QWORD PTR [rsi*8+0x418738]
  408c0d:	00 
  408c0e:	48 09 ee             	or     rsi,rbp
  408c11:	48 89 74 24 50       	mov    QWORD PTR [rsp+0x50],rsi
  408c16:	48 85 fa             	test   rdx,rdi
  408c19:	74 5d                	je     408c78 <_ZL14full_pawn_evalP7state_tP8pawntt_t+0x2d8>
  408c1b:	31 f6                	xor    esi,esi
  408c1d:	83 fb 10             	cmp    ebx,0x10
  408c20:	0f 8c 3f ff ff ff    	jl     408b65 <_ZL14full_pawn_evalP7state_tP8pawntt_t+0x1c5>
  408c26:	48 8b 4c 24 08       	mov    rcx,QWORD PTR [rsp+0x8]
  408c2b:	48 8b 89 30 01 00 00 	mov    rcx,QWORD PTR [rcx+0x130]
  408c32:	48 09 c8             	or     rax,rcx
  408c35:	48 21 d0             	and    rax,rdx
  408c38:	48 8b 54 24 30       	mov    rdx,QWORD PTR [rsp+0x30]
  408c3d:	48 85 04 d5 10 87 41 	test   QWORD PTR [rdx*8+0x418710],rax
  408c44:	00 
  408c45:	0f 94 c0             	sete   al
  408c48:	48 8b 54 24 38       	mov    rdx,QWORD PTR [rsp+0x38]
  408c4d:	4c 21 e2             	and    rdx,r12
  408c50:	48 85 ca             	test   rdx,rcx
  408c53:	41 0f 95 c3          	setne  r11b
  408c57:	41 20 c3             	and    r11b,al
  408c5a:	4d 85 ed             	test   r13,r13
  408c5d:	0f 85 0e ff ff ff    	jne    408b71 <_ZL14full_pawn_evalP7state_tP8pawntt_t+0x1d1>
  408c63:	eb 6b                	jmp    408cd0 <_ZL14full_pawn_evalP7state_tP8pawntt_t+0x330>
  408c65:	66 2e 0f 1f 84 00 00 	cs nop WORD PTR [rax+rax*1+0x0]
  408c6c:	00 00 00 
  408c6f:	90                   	nop
  408c70:	83 c0 ec             	add    eax,0xffffffec
  408c73:	e9 98 01 00 00       	jmp    408e10 <_ZL14full_pawn_evalP7state_tP8pawntt_t+0x470>
  408c78:	41 b3 01             	mov    r11b,0x1
  408c7b:	83 f9 06             	cmp    ecx,0x6
  408c7e:	75 44                	jne    408cc4 <_ZL14full_pawn_evalP7state_tP8pawntt_t+0x324>
  408c80:	48 8b 54 24 38       	mov    rdx,QWORD PTR [rsp+0x38]
  408c85:	48 89 d1             	mov    rcx,rdx
  408c88:	48 21 f9             	and    rcx,rdi
  408c8b:	74 37                	je     408cc4 <_ZL14full_pawn_evalP7state_tP8pawntt_t+0x324>
  408c8d:	48 8b 4c 24 30       	mov    rcx,QWORD PTR [rsp+0x30]
  408c92:	48 8b 0c cd 10 87 41 	mov    rcx,QWORD PTR [rcx*8+0x418710]
  408c99:	00 
  408c9a:	48 21 d1             	and    rcx,rdx
  408c9d:	48 8b 54 24 08       	mov    rdx,QWORD PTR [rsp+0x8]
  408ca2:	48 8b 92 30 01 00 00 	mov    rdx,QWORD PTR [rdx+0x130]
  408ca9:	48 09 d0             	or     rax,rdx
  408cac:	48 85 c1             	test   rcx,rax
  408caf:	0f 94 c0             	sete   al
  408cb2:	48 8b 4c 24 50       	mov    rcx,QWORD PTR [rsp+0x50]
  408cb7:	4c 21 e1             	and    rcx,r12
  408cba:	48 85 d1             	test   rcx,rdx
  408cbd:	41 0f 95 c3          	setne  r11b
  408cc1:	41 20 c3             	and    r11b,al
  408cc4:	31 f6                	xor    esi,esi
  408cc6:	4d 85 ed             	test   r13,r13
  408cc9:	0f 85 a2 fe ff ff    	jne    408b71 <_ZL14full_pawn_evalP7state_tP8pawntt_t+0x1d1>
  408ccf:	90                   	nop
  408cd0:	48 89 5c 24 40       	mov    QWORD PTR [rsp+0x40],rbx
  408cd5:	89 d8                	mov    eax,ebx
  408cd7:	c1 f8 03             	sar    eax,0x3
  408cda:	4c 63 f8             	movsxd r15,eax
  408cdd:	4a 8b 04 fd 90 87 41 	mov    rax,QWORD PTR [r15*8+0x418790]
  408ce4:	00 
  408ce5:	4c 21 e0             	and    rax,r12
  408ce8:	4c 8b 74 24 08       	mov    r14,QWORD PTR [rsp+0x8]
  408ced:	49 85 86 30 01 00 00 	test   QWORD PTR [r14+0x130],rax
  408cf4:	0f 84 e1 00 00 00    	je     408ddb <_ZL14full_pawn_evalP7state_tP8pawntt_t+0x43b>
  408cfa:	4a 23 3c fd c8 87 41 	and    rdi,QWORD PTR [r15*8+0x4187c8]
  408d01:	00 
  408d02:	44 89 4c 24 18       	mov    DWORD PTR [rsp+0x18],r9d
  408d07:	44 89 54 24 14       	mov    DWORD PTR [rsp+0x14],r10d
  408d0c:	89 74 24 10          	mov    DWORD PTR [rsp+0x10],esi
  408d10:	44 89 5c 24 1c       	mov    DWORD PTR [rsp+0x1c],r11d
  408d15:	e8 66 99 ff ff       	call   402680 <_Z8PopCounty>
  408d1a:	89 c5                	mov    ebp,eax
  408d1c:	49 8b be 30 01 00 00 	mov    rdi,QWORD PTR [r14+0x130]
  408d23:	4c 21 e7             	and    rdi,r12
  408d26:	4a 23 3c fd 90 87 41 	and    rdi,QWORD PTR [r15*8+0x418790]
  408d2d:	00 
  408d2e:	e8 4d 99 ff ff       	call   402680 <_Z8PopCounty>
  408d33:	89 c3                	mov    ebx,eax
  408d35:	49 8b be 30 01 00 00 	mov    rdi,QWORD PTR [r14+0x130]
  408d3c:	4c 21 e7             	and    rdi,r12
  408d3f:	4a 23 3c fd c8 87 41 	and    rdi,QWORD PTR [r15*8+0x4187c8]
  408d46:	00 
  408d47:	e8 34 99 ff ff       	call   402680 <_Z8PopCounty>
  408d4c:	44 8b 5c 24 1c       	mov    r11d,DWORD PTR [rsp+0x1c]
  408d51:	8b 74 24 10          	mov    esi,DWORD PTR [rsp+0x10]
  408d55:	44 8b 54 24 14       	mov    r10d,DWORD PTR [rsp+0x14]
  408d5a:	45 31 c0             	xor    r8d,r8d
  408d5d:	44 8b 4c 24 18       	mov    r9d,DWORD PTR [rsp+0x18]
  408d62:	29 c5                	sub    ebp,eax
  408d64:	39 dd                	cmp    ebp,ebx
  408d66:	48 8b 5c 24 40       	mov    rbx,QWORD PTR [rsp+0x40]
  408d6b:	0f 8c 00 fe ff ff    	jl     408b71 <_ZL14full_pawn_evalP7state_tP8pawntt_t+0x1d1>
  408d71:	4c 89 e5             	mov    rbp,r12
  408d74:	4c 8b 64 24 08       	mov    r12,QWORD PTR [rsp+0x8]
  408d79:	49 8b bc 24 28 01 00 	mov    rdi,QWORD PTR [r12+0x128]
  408d80:	00 
  408d81:	48 21 ef             	and    rdi,rbp
  408d84:	4a 23 3c fd 58 87 41 	and    rdi,QWORD PTR [r15*8+0x418758]
  408d8b:	00 
  408d8c:	49 83 c7 ff          	add    r15,0xffffffffffffffff
  408d90:	e8 eb 98 ff ff       	call   402680 <_Z8PopCounty>
  408d95:	41 89 c6             	mov    r14d,eax
  408d98:	49 23 ac 24 30 01 00 	and    rbp,QWORD PTR [r12+0x130]
  408d9f:	00 
  408da0:	4a 23 2c fd 50 87 41 	and    rbp,QWORD PTR [r15*8+0x418750]
  408da7:	00 
  408da8:	48 89 ef             	mov    rdi,rbp
  408dab:	e8 d0 98 ff ff       	call   402680 <_Z8PopCounty>
  408db0:	44 8b 5c 24 1c       	mov    r11d,DWORD PTR [rsp+0x1c]
  408db5:	8b 74 24 10          	mov    esi,DWORD PTR [rsp+0x10]
  408db9:	44 8b 54 24 14       	mov    r10d,DWORD PTR [rsp+0x14]
  408dbe:	44 8b 4c 24 18       	mov    r9d,DWORD PTR [rsp+0x18]
  408dc3:	45 31 c0             	xor    r8d,r8d
  408dc6:	41 39 c6             	cmp    r14d,eax
  408dc9:	41 0f 9d c0          	setge  r8b
  408dcd:	45 85 d2             	test   r10d,r10d
  408dd0:	0f 85 a0 fd ff ff    	jne    408b76 <_ZL14full_pawn_evalP7state_tP8pawntt_t+0x1d6>
  408dd6:	e9 b6 fd ff ff       	jmp    408b91 <_ZL14full_pawn_evalP7state_tP8pawntt_t+0x1f1>
  408ddb:	48 8b 44 24 28       	mov    rax,QWORD PTR [rsp+0x28]
  408de0:	48 8b 04 c5 10 7f 41 	mov    rax,QWORD PTR [rax*8+0x417f10]
  408de7:	00 
  408de8:	48 8b 0c 24          	mov    rcx,QWORD PTR [rsp]
  408dec:	48 09 41 20          	or     QWORD PTR [rcx+0x20],rax
  408df0:	48 8b 5c 24 40       	mov    rbx,QWORD PTR [rsp+0x40]
  408df5:	45 85 d2             	test   r10d,r10d
  408df8:	0f 85 78 fd ff ff    	jne    408b76 <_ZL14full_pawn_evalP7state_tP8pawntt_t+0x1d6>
  408dfe:	e9 8e fd ff ff       	jmp    408b91 <_ZL14full_pawn_evalP7state_tP8pawntt_t+0x1f1>
  408e03:	83 c0 f0             	add    eax,0xfffffff0
  408e06:	66 2e 0f 1f 84 00 00 	cs nop WORD PTR [rax+rax*1+0x0]
  408e0d:	00 00 00 
  408e10:	48 8b 4c 24 20       	mov    rcx,QWORD PTR [rsp+0x20]
  408e15:	89 01                	mov    DWORD PTR [rcx],eax
  408e17:	45 85 c0             	test   r8d,r8d
  408e1a:	74 1e                	je     408e3a <_ZL14full_pawn_evalP7state_tP8pawntt_t+0x49a>
  408e1c:	89 d8                	mov    eax,ebx
  408e1e:	c1 f8 03             	sar    eax,0x3
  408e21:	48 98                	cdqe   
  408e23:	8b 04 85 1c 09 41 00 	mov    eax,DWORD PTR [rax*4+0x41091c]
  408e2a:	41 83 f1 01          	xor    r9d,0x1
  408e2e:	44 89 c9             	mov    ecx,r9d
  408e31:	d3 e0                	shl    eax,cl
  408e33:	48 8b 0c 24          	mov    rcx,QWORD PTR [rsp]
  408e37:	01 41 50             	add    DWORD PTR [rcx+0x50],eax
  408e3a:	83 fb 10             	cmp    ebx,0x10
  408e3d:	48 8b 6c 24 30       	mov    rbp,QWORD PTR [rsp+0x30]
  408e42:	0f 8c 18 01 00 00    	jl     408f60 <_ZL14full_pawn_evalP7state_tP8pawntt_t+0x5c0>
  408e48:	85 ed                	test   ebp,ebp
  408e4a:	74 78                	je     408ec4 <_ZL14full_pawn_evalP7state_tP8pawntt_t+0x524>
  408e4c:	48 8b 44 24 28       	mov    rax,QWORD PTR [rsp+0x28]
  408e51:	48 8b 3c c5 c8 7e 41 	mov    rdi,QWORD PTR [rax*8+0x417ec8]
  408e58:	00 
  408e59:	48 8b 44 24 08       	mov    rax,QWORD PTR [rsp+0x8]
  408e5e:	48 8b 88 30 01 00 00 	mov    rcx,QWORD PTR [rax+0x130]
  408e65:	48 8b 80 28 01 00 00 	mov    rax,QWORD PTR [rax+0x128]
  408e6c:	48 09 c8             	or     rax,rcx
  408e6f:	48 85 f8             	test   rax,rdi
  408e72:	75 47                	jne    408ebb <_ZL14full_pawn_evalP7state_tP8pawntt_t+0x51b>
  408e74:	8d 53 f7             	lea    edx,[rbx-0x9]
  408e77:	89 d0                	mov    eax,edx
  408e79:	24 07                	and    al,0x7
  408e7b:	3c 07                	cmp    al,0x7
  408e7d:	74 0d                	je     408e8c <_ZL14full_pawn_evalP7state_tP8pawntt_t+0x4ec>
  408e7f:	84 c0                	test   al,al
  408e81:	75 12                	jne    408e95 <_ZL14full_pawn_evalP7state_tP8pawntt_t+0x4f5>
  408e83:	48 8b 35 8e f8 00 00 	mov    rsi,QWORD PTR [rip+0xf88e]        # 418718 <FileMask+0x8>
  408e8a:	eb 20                	jmp    408eac <_ZL14full_pawn_evalP7state_tP8pawntt_t+0x50c>
  408e8c:	48 8b 35 ad f8 00 00 	mov    rsi,QWORD PTR [rip+0xf8ad]        # 418740 <FileMask+0x30>
  408e93:	eb 17                	jmp    408eac <_ZL14full_pawn_evalP7state_tP8pawntt_t+0x50c>
  408e95:	89 d0                	mov    eax,edx
  408e97:	83 e0 07             	and    eax,0x7
  408e9a:	89 c0                	mov    eax,eax
  408e9c:	48 8b 34 c5 18 87 41 	mov    rsi,QWORD PTR [rax*8+0x418718]
  408ea3:	00 
  408ea4:	48 0b 34 c5 08 87 41 	or     rsi,QWORD PTR [rax*8+0x418708]
  408eab:	00 
  408eac:	83 e2 f8             	and    edx,0xfffffff8
  408eaf:	48 21 ce             	and    rsi,rcx
  408eb2:	48 85 b2 90 87 41 00 	test   QWORD PTR [rdx+0x418790],rsi
  408eb9:	74 4b                	je     408f06 <_ZL14full_pawn_evalP7state_tP8pawntt_t+0x566>
  408ebb:	83 fd 07             	cmp    ebp,0x7
  408ebe:	0f 84 9c 00 00 00    	je     408f60 <_ZL14full_pawn_evalP7state_tP8pawntt_t+0x5c0>
  408ec4:	48 8b 44 24 28       	mov    rax,QWORD PTR [rsp+0x28]
  408ec9:	48 8b 04 c5 d8 7e 41 	mov    rax,QWORD PTR [rax*8+0x417ed8]
  408ed0:	00 
  408ed1:	48 8b 54 24 08       	mov    rdx,QWORD PTR [rsp+0x8]
  408ed6:	48 8b 8a 30 01 00 00 	mov    rcx,QWORD PTR [rdx+0x130]
  408edd:	48 8b 92 28 01 00 00 	mov    rdx,QWORD PTR [rdx+0x128]
  408ee4:	48 09 ca             	or     rdx,rcx
  408ee7:	48 85 c2             	test   rdx,rax
  408eea:	75 74                	jne    408f60 <_ZL14full_pawn_evalP7state_tP8pawntt_t+0x5c0>
  408eec:	83 c3 f9             	add    ebx,0xfffffff9
  408eef:	89 da                	mov    edx,ebx
  408ef1:	80 e2 07             	and    dl,0x7
  408ef4:	80 fa 07             	cmp    dl,0x7
  408ef7:	74 29                	je     408f22 <_ZL14full_pawn_evalP7state_tP8pawntt_t+0x582>
  408ef9:	84 d2                	test   dl,dl
  408efb:	75 2e                	jne    408f2b <_ZL14full_pawn_evalP7state_tP8pawntt_t+0x58b>
  408efd:	48 8b 15 14 f8 00 00 	mov    rdx,QWORD PTR [rip+0xf814]        # 418718 <FileMask+0x8>
  408f04:	eb 3c                	jmp    408f42 <_ZL14full_pawn_evalP7state_tP8pawntt_t+0x5a2>
  408f06:	48 8b 04 24          	mov    rax,QWORD PTR [rsp]
  408f0a:	48 8b 48 30          	mov    rcx,QWORD PTR [rax+0x30]
  408f0e:	48 85 f9             	test   rcx,rdi
  408f11:	74 7e                	je     408f91 <_ZL14full_pawn_evalP7state_tP8pawntt_t+0x5f1>
  408f13:	48 8b 04 24          	mov    rax,QWORD PTR [rsp]
  408f17:	48 09 78 40          	or     QWORD PTR [rax+0x40],rdi
  408f1b:	83 fd 07             	cmp    ebp,0x7
  408f1e:	75 a4                	jne    408ec4 <_ZL14full_pawn_evalP7state_tP8pawntt_t+0x524>
  408f20:	eb 3e                	jmp    408f60 <_ZL14full_pawn_evalP7state_tP8pawntt_t+0x5c0>
  408f22:	48 8b 15 17 f8 00 00 	mov    rdx,QWORD PTR [rip+0xf817]        # 418740 <FileMask+0x30>
  408f29:	eb 17                	jmp    408f42 <_ZL14full_pawn_evalP7state_tP8pawntt_t+0x5a2>
  408f2b:	89 da                	mov    edx,ebx
  408f2d:	83 e2 07             	and    edx,0x7
  408f30:	89 d6                	mov    esi,edx
  408f32:	48 8b 14 f5 18 87 41 	mov    rdx,QWORD PTR [rsi*8+0x418718]
  408f39:	00 
  408f3a:	48 0b 14 f5 08 87 41 	or     rdx,QWORD PTR [rsi*8+0x418708]
  408f41:	00 
  408f42:	83 e3 f8             	and    ebx,0xfffffff8
  408f45:	48 21 ca             	and    rdx,rcx
  408f48:	48 85 93 90 87 41 00 	test   QWORD PTR [rbx+0x418790],rdx
  408f4f:	74 1d                	je     408f6e <_ZL14full_pawn_evalP7state_tP8pawntt_t+0x5ce>
  408f51:	66 2e 0f 1f 84 00 00 	cs nop WORD PTR [rax+rax*1+0x0]
  408f58:	00 00 00 
  408f5b:	0f 1f 44 00 00       	nop    DWORD PTR [rax+rax*1+0x0]
  408f60:	48 83 7c 24 48 00    	cmp    QWORD PTR [rsp+0x48],0x0
  408f66:	0f 85 04 fb ff ff    	jne    408a70 <_ZL14full_pawn_evalP7state_tP8pawntt_t+0xd0>
  408f6c:	eb 52                	jmp    408fc0 <_ZL14full_pawn_evalP7state_tP8pawntt_t+0x620>
  408f6e:	48 8b 0c 24          	mov    rcx,QWORD PTR [rsp]
  408f72:	48 8b 49 30          	mov    rcx,QWORD PTR [rcx+0x30]
  408f76:	48 85 c1             	test   rcx,rax
  408f79:	74 2c                	je     408fa7 <_ZL14full_pawn_evalP7state_tP8pawntt_t+0x607>
  408f7b:	48 8b 0c 24          	mov    rcx,QWORD PTR [rsp]
  408f7f:	48 09 41 40          	or     QWORD PTR [rcx+0x40],rax
  408f83:	48 83 7c 24 48 00    	cmp    QWORD PTR [rsp+0x48],0x0
  408f89:	0f 85 e1 fa ff ff    	jne    408a70 <_ZL14full_pawn_evalP7state_tP8pawntt_t+0xd0>
  408f8f:	eb 2f                	jmp    408fc0 <_ZL14full_pawn_evalP7state_tP8pawntt_t+0x620>
  408f91:	48 09 f9             	or     rcx,rdi
  408f94:	48 8b 04 24          	mov    rax,QWORD PTR [rsp]
  408f98:	48 89 48 30          	mov    QWORD PTR [rax+0x30],rcx
  408f9c:	83 fd 07             	cmp    ebp,0x7
  408f9f:	0f 85 1f ff ff ff    	jne    408ec4 <_ZL14full_pawn_evalP7state_tP8pawntt_t+0x524>
  408fa5:	eb b9                	jmp    408f60 <_ZL14full_pawn_evalP7state_tP8pawntt_t+0x5c0>
  408fa7:	48 09 c1             	or     rcx,rax
  408faa:	48 8b 04 24          	mov    rax,QWORD PTR [rsp]
  408fae:	48 89 48 30          	mov    QWORD PTR [rax+0x30],rcx
  408fb2:	48 83 7c 24 48 00    	cmp    QWORD PTR [rsp+0x48],0x0
  408fb8:	0f 85 b2 fa ff ff    	jne    408a70 <_ZL14full_pawn_evalP7state_tP8pawntt_t+0xd0>
  408fbe:	eb 00                	jmp    408fc0 <_ZL14full_pawn_evalP7state_tP8pawntt_t+0x620>
  408fc0:	48 8b 6c 24 08       	mov    rbp,QWORD PTR [rsp+0x8]
  408fc5:	48 8b 85 30 01 00 00 	mov    rax,QWORD PTR [rbp+0x130]
  408fcc:	48 89 44 24 48       	mov    QWORD PTR [rsp+0x48],rax
  408fd1:	48 85 c0             	test   rax,rax
  408fd4:	0f 84 47 05 00 00    	je     409521 <_ZL14full_pawn_evalP7state_tP8pawntt_t+0xb81>
  408fda:	48 8b 04 24          	mov    rax,QWORD PTR [rsp]
  408fde:	48 8d 40 54          	lea    rax,[rax+0x54]
  408fe2:	48 89 44 24 20       	mov    QWORD PTR [rsp+0x20],rax
  408fe7:	66 0f 1f 84 00 00 00 	nop    WORD PTR [rax+rax*1+0x0]
  408fee:	00 00 
  408ff0:	48 8d 7c 24 48       	lea    rdi,[rsp+0x48]
  408ff5:	c5 f8 77             	vzeroupper 
  408ff8:	e8 c3 96 ff ff       	call   4026c0 <_Z15FindFirstRemovePy>
  408ffd:	41 89 c4             	mov    r12d,eax
  409000:	89 c1                	mov    ecx,eax
  409002:	83 e1 07             	and    ecx,0x7
  409005:	4c 8b bd 30 01 00 00 	mov    r15,QWORD PTR [rbp+0x130]
  40900c:	4c 23 3c cd 10 87 41 	and    r15,QWORD PTR [rcx*8+0x418710]
  409013:	00 
  409014:	24 07                	and    al,0x7
  409016:	3c 07                	cmp    al,0x7
  409018:	48 89 4c 24 30       	mov    QWORD PTR [rsp+0x30],rcx
  40901d:	74 11                	je     409030 <_ZL14full_pawn_evalP7state_tP8pawntt_t+0x690>
  40901f:	84 c0                	test   al,al
  409021:	75 1d                	jne    409040 <_ZL14full_pawn_evalP7state_tP8pawntt_t+0x6a0>
  409023:	4c 8b 35 ee f6 00 00 	mov    r14,QWORD PTR [rip+0xf6ee]        # 418718 <FileMask+0x8>
  40902a:	eb 24                	jmp    409050 <_ZL14full_pawn_evalP7state_tP8pawntt_t+0x6b0>
  40902c:	0f 1f 40 00          	nop    DWORD PTR [rax+0x0]
  409030:	4c 8b 35 09 f7 00 00 	mov    r14,QWORD PTR [rip+0xf709]        # 418740 <FileMask+0x30>
  409037:	eb 17                	jmp    409050 <_ZL14full_pawn_evalP7state_tP8pawntt_t+0x6b0>
  409039:	0f 1f 80 00 00 00 00 	nop    DWORD PTR [rax+0x0]
  409040:	4c 8b 34 cd 18 87 41 	mov    r14,QWORD PTR [rcx*8+0x418718]
  409047:	00 
  409048:	4c 0b 34 cd 08 87 41 	or     r14,QWORD PTR [rcx*8+0x418708]
  40904f:	00 
  409050:	49 63 c4             	movsxd rax,r12d
  409053:	4c 8b ad 28 01 00 00 	mov    r13,QWORD PTR [rbp+0x128]
  40905a:	48 89 44 24 28       	mov    QWORD PTR [rsp+0x28],rax
  40905f:	4c 23 2c c5 b0 90 41 	and    r13,QWORD PTR [rax*8+0x4190b0]
  409066:	00 
  409067:	4c 89 ff             	mov    rdi,r15
  40906a:	e8 11 96 ff ff       	call   402680 <_Z8PopCounty>
  40906f:	45 31 c9             	xor    r9d,r9d
  409072:	bb 00 00 00 00       	mov    ebx,0x0
  409077:	83 f8 02             	cmp    eax,0x2
  40907a:	7c 1b                	jl     409097 <_ZL14full_pawn_evalP7state_tP8pawntt_t+0x6f7>
  40907c:	44 89 e0             	mov    eax,r12d
  40907f:	c1 f8 03             	sar    eax,0x3
  409082:	48 98                	cdqe   
  409084:	31 db                	xor    ebx,ebx
  409086:	4c 85 3c c5 d0 87 41 	test   QWORD PTR [rax*8+0x4187d0],r15
  40908d:	00 
  40908e:	0f 95 c3             	setne  bl
  409091:	41 b9 01 00 00 00    	mov    r9d,0x1
  409097:	48 8b 85 30 01 00 00 	mov    rax,QWORD PTR [rbp+0x130]
  40909e:	45 31 c0             	xor    r8d,r8d
  4090a1:	48 89 c7             	mov    rdi,rax
  4090a4:	4c 21 f7             	and    rdi,r14
  4090a7:	74 27                	je     4090d0 <_ZL14full_pawn_evalP7state_tP8pawntt_t+0x730>
  4090a9:	44 89 e1             	mov    ecx,r12d
  4090ac:	c1 f9 03             	sar    ecx,0x3
  4090af:	48 63 f1             	movsxd rsi,ecx
  4090b2:	48 85 3c f5 98 87 41 	test   QWORD PTR [rsi*8+0x418798],rdi
  4090b9:	00 
  4090ba:	0f 84 90 00 00 00    	je     409150 <_ZL14full_pawn_evalP7state_tP8pawntt_t+0x7b0>
  4090c0:	31 f6                	xor    esi,esi
  4090c2:	eb 11                	jmp    4090d5 <_ZL14full_pawn_evalP7state_tP8pawntt_t+0x735>
  4090c4:	66 2e 0f 1f 84 00 00 	cs nop WORD PTR [rax+rax*1+0x0]
  4090cb:	00 00 00 
  4090ce:	66 90                	xchg   ax,ax
  4090d0:	be 01 00 00 00       	mov    esi,0x1
  4090d5:	45 31 d2             	xor    r10d,r10d
  4090d8:	4d 85 ed             	test   r13,r13
  4090db:	0f 84 5f 01 00 00    	je     409240 <_ZL14full_pawn_evalP7state_tP8pawntt_t+0x8a0>
  4090e1:	45 85 c9             	test   r9d,r9d
  4090e4:	74 1b                	je     409101 <_ZL14full_pawn_evalP7state_tP8pawntt_t+0x761>
  4090e6:	31 c0                	xor    eax,eax
  4090e8:	4d 85 ed             	test   r13,r13
  4090eb:	0f 94 c0             	sete   al
  4090ee:	48 8b 14 24          	mov    rdx,QWORD PTR [rsp]
  4090f2:	8b 4a 54             	mov    ecx,DWORD PTR [rdx+0x54]
  4090f5:	8d 04 80             	lea    eax,[rax+rax*4]
  4090f8:	8d 04 01             	lea    eax,[rcx+rax*1]
  4090fb:	83 c0 05             	add    eax,0x5
  4090fe:	89 42 54             	mov    DWORD PTR [rdx+0x54],eax
  409101:	85 f6                	test   esi,esi
  409103:	74 1b                	je     409120 <_ZL14full_pawn_evalP7state_tP8pawntt_t+0x780>
  409105:	48 8b 44 24 20       	mov    rax,QWORD PTR [rsp+0x20]
  40910a:	8b 00                	mov    eax,DWORD PTR [rax]
  40910c:	4d 85 ed             	test   r13,r13
  40910f:	0f 84 cb 00 00 00    	je     4091e0 <_ZL14full_pawn_evalP7state_tP8pawntt_t+0x840>
  409115:	83 c0 08             	add    eax,0x8
  409118:	e9 53 02 00 00       	jmp    409370 <_ZL14full_pawn_evalP7state_tP8pawntt_t+0x9d0>
  40911d:	0f 1f 00             	nop    DWORD PTR [rax]
  409120:	45 84 d2             	test   r10b,r10b
  409123:	0f 84 4e 02 00 00    	je     409377 <_ZL14full_pawn_evalP7state_tP8pawntt_t+0x9d7>
  409129:	48 8b 44 24 20       	mov    rax,QWORD PTR [rsp+0x20]
  40912e:	8b 00                	mov    eax,DWORD PTR [rax]
  409130:	4d 85 ed             	test   r13,r13
  409133:	0f 84 30 02 00 00    	je     409369 <_ZL14full_pawn_evalP7state_tP8pawntt_t+0x9c9>
  409139:	83 c0 06             	add    eax,0x6
  40913c:	e9 2f 02 00 00       	jmp    409370 <_ZL14full_pawn_evalP7state_tP8pawntt_t+0x9d0>
  409141:	66 2e 0f 1f 84 00 00 	cs nop WORD PTR [rax+rax*1+0x0]
  409148:	00 00 00 
  40914b:	0f 1f 44 00 00       	nop    DWORD PTR [rax+rax*1+0x0]
  409150:	48 8d 56 01          	lea    rdx,[rsi+0x1]
  409154:	48 8b 14 d5 50 87 41 	mov    rdx,QWORD PTR [rdx*8+0x418750]
  40915b:	00 
  40915c:	41 83 fc 2f          	cmp    r12d,0x2f
  409160:	7f 2b                	jg     40918d <_ZL14full_pawn_evalP7state_tP8pawntt_t+0x7ed>
  409162:	48 8b 2c f5 60 87 41 	mov    rbp,QWORD PTR [rsi*8+0x418760]
  409169:	00 
  40916a:	48 09 d5             	or     rbp,rdx
  40916d:	41 83 fc 27          	cmp    r12d,0x27
  409171:	48 89 6c 24 38       	mov    QWORD PTR [rsp+0x38],rbp
  409176:	7f 10                	jg     409188 <_ZL14full_pawn_evalP7state_tP8pawntt_t+0x7e8>
  409178:	48 8b 34 f5 68 87 41 	mov    rsi,QWORD PTR [rsi*8+0x418768]
  40917f:	00 
  409180:	48 09 ee             	or     rsi,rbp
  409183:	48 89 74 24 50       	mov    QWORD PTR [rsp+0x50],rsi
  409188:	48 8b 6c 24 08       	mov    rbp,QWORD PTR [rsp+0x8]
  40918d:	48 85 fa             	test   rdx,rdi
  409190:	74 56                	je     4091e8 <_ZL14full_pawn_evalP7state_tP8pawntt_t+0x848>
  409192:	31 f6                	xor    esi,esi
  409194:	41 83 fc 2f          	cmp    r12d,0x2f
  409198:	0f 8f 37 ff ff ff    	jg     4090d5 <_ZL14full_pawn_evalP7state_tP8pawntt_t+0x735>
  40919e:	48 8b 8d 28 01 00 00 	mov    rcx,QWORD PTR [rbp+0x128]
  4091a5:	48 09 c8             	or     rax,rcx
  4091a8:	48 21 d0             	and    rax,rdx
  4091ab:	48 8b 54 24 30       	mov    rdx,QWORD PTR [rsp+0x30]
  4091b0:	48 85 04 d5 10 87 41 	test   QWORD PTR [rdx*8+0x418710],rax
  4091b7:	00 
  4091b8:	0f 94 c0             	sete   al
  4091bb:	48 8b 54 24 38       	mov    rdx,QWORD PTR [rsp+0x38]
  4091c0:	4c 21 f2             	and    rdx,r14
  4091c3:	48 85 ca             	test   rdx,rcx
  4091c6:	41 0f 95 c2          	setne  r10b
  4091ca:	41 20 c2             	and    r10b,al
  4091cd:	4d 85 ed             	test   r13,r13
  4091d0:	0f 85 0b ff ff ff    	jne    4090e1 <_ZL14full_pawn_evalP7state_tP8pawntt_t+0x741>
  4091d6:	eb 68                	jmp    409240 <_ZL14full_pawn_evalP7state_tP8pawntt_t+0x8a0>
  4091d8:	0f 1f 84 00 00 00 00 	nop    DWORD PTR [rax+rax*1+0x0]
  4091df:	00 
  4091e0:	83 c0 14             	add    eax,0x14
  4091e3:	e9 88 01 00 00       	jmp    409370 <_ZL14full_pawn_evalP7state_tP8pawntt_t+0x9d0>
  4091e8:	41 b2 01             	mov    r10b,0x1
  4091eb:	83 f9 01             	cmp    ecx,0x1
  4091ee:	75 36                	jne    409226 <_ZL14full_pawn_evalP7state_tP8pawntt_t+0x886>
  4091f0:	48 8b 54 24 38       	mov    rdx,QWORD PTR [rsp+0x38]
  4091f5:	48 89 d1             	mov    rcx,rdx
  4091f8:	48 21 f9             	and    rcx,rdi
  4091fb:	74 29                	je     409226 <_ZL14full_pawn_evalP7state_tP8pawntt_t+0x886>
  4091fd:	48 8b 4c 24 30       	mov    rcx,QWORD PTR [rsp+0x30]
  409202:	48 8b 0c cd 10 87 41 	mov    rcx,QWORD PTR [rcx*8+0x418710]
  409209:	00 
  40920a:	48 21 d1             	and    rcx,rdx
  40920d:	48 0b 85 28 01 00 00 	or     rax,QWORD PTR [rbp+0x128]
  409214:	48 85 c1             	test   rcx,rax
  409217:	0f 94 c0             	sete   al
  40921a:	48 85 7c 24 50       	test   QWORD PTR [rsp+0x50],rdi
  40921f:	41 0f 95 c2          	setne  r10b
  409223:	41 20 c2             	and    r10b,al
  409226:	31 f6                	xor    esi,esi
  409228:	4d 85 ed             	test   r13,r13
  40922b:	0f 85 b0 fe ff ff    	jne    4090e1 <_ZL14full_pawn_evalP7state_tP8pawntt_t+0x741>
  409231:	66 2e 0f 1f 84 00 00 	cs nop WORD PTR [rax+rax*1+0x0]
  409238:	00 00 00 
  40923b:	0f 1f 44 00 00       	nop    DWORD PTR [rax+rax*1+0x0]
  409240:	44 89 e0             	mov    eax,r12d
  409243:	c1 f8 03             	sar    eax,0x3
  409246:	4c 63 f8             	movsxd r15,eax
  409249:	4a 8b 04 fd d0 87 41 	mov    rax,QWORD PTR [r15*8+0x4187d0]
  409250:	00 
  409251:	4c 21 f0             	and    rax,r14
  409254:	48 85 85 28 01 00 00 	test   QWORD PTR [rbp+0x128],rax
  40925b:	0f 84 e5 00 00 00    	je     409346 <_ZL14full_pawn_evalP7state_tP8pawntt_t+0x9a6>
  409261:	4a 23 3c fd 98 87 41 	and    rdi,QWORD PTR [r15*8+0x418798]
  409268:	00 
  409269:	89 5c 24 40          	mov    DWORD PTR [rsp+0x40],ebx
  40926d:	44 89 4c 24 18       	mov    DWORD PTR [rsp+0x18],r9d
  409272:	89 74 24 14          	mov    DWORD PTR [rsp+0x14],esi
  409276:	44 89 54 24 10       	mov    DWORD PTR [rsp+0x10],r10d
  40927b:	e8 00 94 ff ff       	call   402680 <_Z8PopCounty>
  409280:	89 c5                	mov    ebp,eax
  409282:	48 8b 44 24 08       	mov    rax,QWORD PTR [rsp+0x8]
  409287:	48 8b b8 28 01 00 00 	mov    rdi,QWORD PTR [rax+0x128]
  40928e:	4c 21 f7             	and    rdi,r14
  409291:	4a 23 3c fd d0 87 41 	and    rdi,QWORD PTR [r15*8+0x4187d0]
  409298:	00 
  409299:	e8 e2 93 ff ff       	call   402680 <_Z8PopCounty>
  40929e:	89 44 24 1c          	mov    DWORD PTR [rsp+0x1c],eax
  4092a2:	48 8b 44 24 08       	mov    rax,QWORD PTR [rsp+0x8]
  4092a7:	48 8b b8 28 01 00 00 	mov    rdi,QWORD PTR [rax+0x128]
  4092ae:	4c 21 f7             	and    rdi,r14
  4092b1:	4a 23 3c fd 98 87 41 	and    rdi,QWORD PTR [r15*8+0x418798]
  4092b8:	00 
  4092b9:	e8 c2 93 ff ff       	call   402680 <_Z8PopCounty>
  4092be:	44 8b 54 24 10       	mov    r10d,DWORD PTR [rsp+0x10]
  4092c3:	8b 74 24 14          	mov    esi,DWORD PTR [rsp+0x14]
  4092c7:	44 8b 4c 24 18       	mov    r9d,DWORD PTR [rsp+0x18]
  4092cc:	45 31 c0             	xor    r8d,r8d
  4092cf:	8b 5c 24 40          	mov    ebx,DWORD PTR [rsp+0x40]
  4092d3:	29 c5                	sub    ebp,eax
  4092d5:	3b 6c 24 1c          	cmp    ebp,DWORD PTR [rsp+0x1c]
  4092d9:	48 8b 44 24 08       	mov    rax,QWORD PTR [rsp+0x8]
  4092de:	0f 8c fd fd ff ff    	jl     4090e1 <_ZL14full_pawn_evalP7state_tP8pawntt_t+0x741>
  4092e4:	48 8b b8 30 01 00 00 	mov    rdi,QWORD PTR [rax+0x130]
  4092eb:	4c 21 f7             	and    rdi,r14
  4092ee:	4a 23 3c fd 48 87 41 	and    rdi,QWORD PTR [r15*8+0x418748]
  4092f5:	00 
  4092f6:	49 83 c7 01          	add    r15,0x1
  4092fa:	e8 81 93 ff ff       	call   402680 <_Z8PopCounty>
  4092ff:	89 c5                	mov    ebp,eax
  409301:	48 8b 44 24 08       	mov    rax,QWORD PTR [rsp+0x8]
  409306:	4c 23 b0 28 01 00 00 	and    r14,QWORD PTR [rax+0x128]
  40930d:	4e 23 34 fd 50 87 41 	and    r14,QWORD PTR [r15*8+0x418750]
  409314:	00 
  409315:	4c 89 f7             	mov    rdi,r14
  409318:	e8 63 93 ff ff       	call   402680 <_Z8PopCounty>
  40931d:	44 8b 54 24 10       	mov    r10d,DWORD PTR [rsp+0x10]
  409322:	8b 74 24 14          	mov    esi,DWORD PTR [rsp+0x14]
  409326:	44 8b 4c 24 18       	mov    r9d,DWORD PTR [rsp+0x18]
  40932b:	8b 5c 24 40          	mov    ebx,DWORD PTR [rsp+0x40]
  40932f:	45 31 c0             	xor    r8d,r8d
  409332:	39 c5                	cmp    ebp,eax
  409334:	41 0f 9d c0          	setge  r8b
  409338:	45 85 c9             	test   r9d,r9d
  40933b:	0f 85 a5 fd ff ff    	jne    4090e6 <_ZL14full_pawn_evalP7state_tP8pawntt_t+0x746>
  409341:	e9 bb fd ff ff       	jmp    409101 <_ZL14full_pawn_evalP7state_tP8pawntt_t+0x761>
  409346:	48 8b 44 24 28       	mov    rax,QWORD PTR [rsp+0x28]
  40934b:	48 8b 04 c5 10 7f 41 	mov    rax,QWORD PTR [rax*8+0x417f10]
  409352:	00 
  409353:	48 8b 0c 24          	mov    rcx,QWORD PTR [rsp]
  409357:	48 09 41 28          	or     QWORD PTR [rcx+0x28],rax
  40935b:	45 85 c9             	test   r9d,r9d
  40935e:	0f 85 82 fd ff ff    	jne    4090e6 <_ZL14full_pawn_evalP7state_tP8pawntt_t+0x746>
  409364:	e9 98 fd ff ff       	jmp    409101 <_ZL14full_pawn_evalP7state_tP8pawntt_t+0x761>
  409369:	83 c0 10             	add    eax,0x10
  40936c:	0f 1f 40 00          	nop    DWORD PTR [rax+0x0]
  409370:	48 8b 4c 24 20       	mov    rcx,QWORD PTR [rsp+0x20]
  409375:	89 01                	mov    DWORD PTR [rcx],eax
  409377:	45 85 c0             	test   r8d,r8d
  40937a:	74 25                	je     4093a1 <_ZL14full_pawn_evalP7state_tP8pawntt_t+0xa01>
  40937c:	44 89 e0             	mov    eax,r12d
  40937f:	c1 f8 03             	sar    eax,0x3
  409382:	b9 06 00 00 00       	mov    ecx,0x6
  409387:	29 c1                	sub    ecx,eax
  409389:	48 63 c1             	movsxd rax,ecx
  40938c:	8b 04 85 20 09 41 00 	mov    eax,DWORD PTR [rax*4+0x410920]
  409393:	83 f3 01             	xor    ebx,0x1
  409396:	89 d9                	mov    ecx,ebx
  409398:	d3 e0                	shl    eax,cl
  40939a:	48 8b 0c 24          	mov    rcx,QWORD PTR [rsp]
  40939e:	29 41 54             	sub    DWORD PTR [rcx+0x54],eax
  4093a1:	41 83 fc 2f          	cmp    r12d,0x2f
  4093a5:	48 8b 6c 24 30       	mov    rbp,QWORD PTR [rsp+0x30]
  4093aa:	0f 8f 60 01 00 00    	jg     409510 <_ZL14full_pawn_evalP7state_tP8pawntt_t+0xb70>
  4093b0:	85 ed                	test   ebp,ebp
  4093b2:	74 7e                	je     409432 <_ZL14full_pawn_evalP7state_tP8pawntt_t+0xa92>
  4093b4:	48 8b 44 24 28       	mov    rax,QWORD PTR [rsp+0x28]
  4093b9:	48 8b 3c c5 48 7f 41 	mov    rdi,QWORD PTR [rax*8+0x417f48]
  4093c0:	00 
  4093c1:	48 8b 44 24 08       	mov    rax,QWORD PTR [rsp+0x8]
  4093c6:	48 8b 88 28 01 00 00 	mov    rcx,QWORD PTR [rax+0x128]
  4093cd:	48 8b 80 30 01 00 00 	mov    rax,QWORD PTR [rax+0x130]
  4093d4:	48 09 c8             	or     rax,rcx
  4093d7:	48 85 f8             	test   rax,rdi
  4093da:	75 4d                	jne    409429 <_ZL14full_pawn_evalP7state_tP8pawntt_t+0xa89>
  4093dc:	41 8d 54 24 07       	lea    edx,[r12+0x7]
  4093e1:	89 d0                	mov    eax,edx
  4093e3:	24 07                	and    al,0x7
  4093e5:	3c 07                	cmp    al,0x7
  4093e7:	74 0d                	je     4093f6 <_ZL14full_pawn_evalP7state_tP8pawntt_t+0xa56>
  4093e9:	84 c0                	test   al,al
  4093eb:	75 12                	jne    4093ff <_ZL14full_pawn_evalP7state_tP8pawntt_t+0xa5f>
  4093ed:	48 8b 35 24 f3 00 00 	mov    rsi,QWORD PTR [rip+0xf324]        # 418718 <FileMask+0x8>
  4093f4:	eb 20                	jmp    409416 <_ZL14full_pawn_evalP7state_tP8pawntt_t+0xa76>
  4093f6:	48 8b 35 43 f3 00 00 	mov    rsi,QWORD PTR [rip+0xf343]        # 418740 <FileMask+0x30>
  4093fd:	eb 17                	jmp    409416 <_ZL14full_pawn_evalP7state_tP8pawntt_t+0xa76>
  4093ff:	89 d0                	mov    eax,edx
  409401:	83 e0 07             	and    eax,0x7
  409404:	89 c0                	mov    eax,eax
  409406:	48 8b 34 c5 18 87 41 	mov    rsi,QWORD PTR [rax*8+0x418718]
  40940d:	00 
  40940e:	48 0b 34 c5 08 87 41 	or     rsi,QWORD PTR [rax*8+0x418708]
  409415:	00 
  409416:	c1 fa 03             	sar    edx,0x3
  409419:	48 63 c2             	movsxd rax,edx
  40941c:	48 21 ce             	and    rsi,rcx
  40941f:	48 85 34 c5 d0 87 41 	test   QWORD PTR [rax*8+0x4187d0],rsi
  409426:	00 
  409427:	74 51                	je     40947a <_ZL14full_pawn_evalP7state_tP8pawntt_t+0xada>
  409429:	83 fd 07             	cmp    ebp,0x7
  40942c:	0f 84 de 00 00 00    	je     409510 <_ZL14full_pawn_evalP7state_tP8pawntt_t+0xb70>
  409432:	48 8b 44 24 28       	mov    rax,QWORD PTR [rsp+0x28]
  409437:	48 8b 04 c5 58 7f 41 	mov    rax,QWORD PTR [rax*8+0x417f58]
  40943e:	00 
  40943f:	48 8b 54 24 08       	mov    rdx,QWORD PTR [rsp+0x8]
  409444:	48 8b 8a 28 01 00 00 	mov    rcx,QWORD PTR [rdx+0x128]
  40944b:	48 8b 92 30 01 00 00 	mov    rdx,QWORD PTR [rdx+0x130]
  409452:	48 09 ca             	or     rdx,rcx
  409455:	48 85 c2             	test   rdx,rax
  409458:	0f 85 b2 00 00 00    	jne    409510 <_ZL14full_pawn_evalP7state_tP8pawntt_t+0xb70>
  40945e:	41 83 c4 09          	add    r12d,0x9
  409462:	44 89 e2             	mov    edx,r12d
  409465:	80 e2 07             	and    dl,0x7
  409468:	80 fa 07             	cmp    dl,0x7
  40946b:	74 29                	je     409496 <_ZL14full_pawn_evalP7state_tP8pawntt_t+0xaf6>
  40946d:	84 d2                	test   dl,dl
  40946f:	75 2e                	jne    40949f <_ZL14full_pawn_evalP7state_tP8pawntt_t+0xaff>
  409471:	48 8b 15 a0 f2 00 00 	mov    rdx,QWORD PTR [rip+0xf2a0]        # 418718 <FileMask+0x8>
  409478:	eb 3d                	jmp    4094b7 <_ZL14full_pawn_evalP7state_tP8pawntt_t+0xb17>
  40947a:	48 8b 04 24          	mov    rax,QWORD PTR [rsp]
  40947e:	48 8b 48 38          	mov    rcx,QWORD PTR [rax+0x38]
  409482:	48 85 f9             	test   rcx,rdi
  409485:	74 5b                	je     4094e2 <_ZL14full_pawn_evalP7state_tP8pawntt_t+0xb42>
  409487:	48 8b 04 24          	mov    rax,QWORD PTR [rsp]
  40948b:	48 09 78 48          	or     QWORD PTR [rax+0x48],rdi
  40948f:	83 fd 07             	cmp    ebp,0x7
  409492:	75 9e                	jne    409432 <_ZL14full_pawn_evalP7state_tP8pawntt_t+0xa92>
  409494:	eb 7a                	jmp    409510 <_ZL14full_pawn_evalP7state_tP8pawntt_t+0xb70>
  409496:	48 8b 15 a3 f2 00 00 	mov    rdx,QWORD PTR [rip+0xf2a3]        # 418740 <FileMask+0x30>
  40949d:	eb 18                	jmp    4094b7 <_ZL14full_pawn_evalP7state_tP8pawntt_t+0xb17>
  40949f:	44 89 e2             	mov    edx,r12d
  4094a2:	83 e2 07             	and    edx,0x7
  4094a5:	89 d6                	mov    esi,edx
  4094a7:	48 8b 14 f5 18 87 41 	mov    rdx,QWORD PTR [rsi*8+0x418718]
  4094ae:	00 
  4094af:	48 0b 14 f5 08 87 41 	or     rdx,QWORD PTR [rsi*8+0x418708]
  4094b6:	00 
  4094b7:	41 c1 fc 03          	sar    r12d,0x3
  4094bb:	49 63 f4             	movsxd rsi,r12d
  4094be:	48 21 ca             	and    rdx,rcx
  4094c1:	48 85 14 f5 d0 87 41 	test   QWORD PTR [rsi*8+0x4187d0],rdx
  4094c8:	00 
  4094c9:	75 45                	jne    409510 <_ZL14full_pawn_evalP7state_tP8pawntt_t+0xb70>
  4094cb:	48 8b 0c 24          	mov    rcx,QWORD PTR [rsp]
  4094cf:	48 8b 49 38          	mov    rcx,QWORD PTR [rcx+0x38]
  4094d3:	48 85 c1             	test   rcx,rax
  4094d6:	74 20                	je     4094f8 <_ZL14full_pawn_evalP7state_tP8pawntt_t+0xb58>
  4094d8:	48 8b 0c 24          	mov    rcx,QWORD PTR [rsp]
  4094dc:	48 09 41 48          	or     QWORD PTR [rcx+0x48],rax
  4094e0:	eb 2e                	jmp    409510 <_ZL14full_pawn_evalP7state_tP8pawntt_t+0xb70>
  4094e2:	48 09 f9             	or     rcx,rdi
  4094e5:	48 8b 04 24          	mov    rax,QWORD PTR [rsp]
  4094e9:	48 89 48 38          	mov    QWORD PTR [rax+0x38],rcx
  4094ed:	83 fd 07             	cmp    ebp,0x7
  4094f0:	0f 85 3c ff ff ff    	jne    409432 <_ZL14full_pawn_evalP7state_tP8pawntt_t+0xa92>
  4094f6:	eb 18                	jmp    409510 <_ZL14full_pawn_evalP7state_tP8pawntt_t+0xb70>
  4094f8:	48 09 c1             	or     rcx,rax
  4094fb:	48 8b 04 24          	mov    rax,QWORD PTR [rsp]
  4094ff:	48 89 48 38          	mov    QWORD PTR [rax+0x38],rcx
  409503:	66 2e 0f 1f 84 00 00 	cs nop WORD PTR [rax+rax*1+0x0]
  40950a:	00 00 00 
  40950d:	0f 1f 00             	nop    DWORD PTR [rax]
  409510:	48 83 7c 24 48 00    	cmp    QWORD PTR [rsp+0x48],0x0
  409516:	48 8b 6c 24 08       	mov    rbp,QWORD PTR [rsp+0x8]
  40951b:	0f 85 cf fa ff ff    	jne    408ff0 <_ZL14full_pawn_evalP7state_tP8pawntt_t+0x650>
  409521:	48 8b 05 a8 01 01 00 	mov    rax,QWORD PTR [rip+0x101a8]        # 4196d0 <WhiteStrongSquareMask>
  409528:	48 8b 0d a9 01 01 00 	mov    rcx,QWORD PTR [rip+0x101a9]        # 4196d8 <BlackStrongSquareMask>
  40952f:	48 8b 2c 24          	mov    rbp,QWORD PTR [rsp]
  409533:	48 8b 55 40          	mov    rdx,QWORD PTR [rbp+0x40]
  409537:	48 8b 75 48          	mov    rsi,QWORD PTR [rbp+0x48]
  40953b:	48 8b 7d 30          	mov    rdi,QWORD PTR [rbp+0x30]
  40953f:	48 31 d7             	xor    rdi,rdx
  409542:	48 21 c2             	and    rdx,rax
  409545:	48 89 55 40          	mov    QWORD PTR [rbp+0x40],rdx
  409549:	48 8b 55 38          	mov    rdx,QWORD PTR [rbp+0x38]
  40954d:	48 31 f2             	xor    rdx,rsi
  409550:	48 21 ce             	and    rsi,rcx
  409553:	48 89 75 48          	mov    QWORD PTR [rbp+0x48],rsi
  409557:	48 21 c7             	and    rdi,rax
  40955a:	48 89 7d 30          	mov    QWORD PTR [rbp+0x30],rdi
  40955e:	48 21 ca             	and    rdx,rcx
  409561:	48 89 55 38          	mov    QWORD PTR [rbp+0x38],rdx
  409565:	48 83 c4 58          	add    rsp,0x58
  409569:	5b                   	pop    rbx
  40956a:	41 5c                	pop    r12
  40956c:	41 5d                	pop    r13
  40956e:	41 5e                	pop    r14
  409570:	41 5f                	pop    r15
  409572:	5d                   	pop    rbp
  409573:	c5 f8 77             	vzeroupper 
  409576:	c3                   	ret    
  409577:	66 0f 1f 84 00 00 00 	nop    WORD PTR [rax+rax*1+0x0]
  40957e:	00 00 

0000000000409580 <_Z8psq_evalP7state_tP12t_eval_comps>:
  409580:	48 8b 87 30 01 00 00 	mov    rax,QWORD PTR [rdi+0x130]
  409587:	48 0b 87 28 01 00 00 	or     rax,QWORD PTR [rdi+0x128]
  40958e:	48 85 05 63 01 01 00 	test   QWORD PTR [rip+0x10163],rax        # 4196f8 <QSMask>
  409595:	b9 a0 0d 41 00       	mov    ecx,0x410da0
  40959a:	ba a0 0c 41 00       	mov    edx,0x410ca0
  40959f:	48 0f 44 d1          	cmove  rdx,rcx
  4095a3:	41 b8 a0 0b 41 00    	mov    r8d,0x410ba0
  4095a9:	b9 a0 0a 41 00       	mov    ecx,0x410aa0
  4095ae:	49 0f 44 c8          	cmove  rcx,r8
  4095b2:	48 85 05 37 01 01 00 	test   QWORD PTR [rip+0x10137],rax        # 4196f0 <KSMask>
  4095b9:	48 0f 44 ca          	cmove  rcx,rdx
  4095bd:	48 63 87 d0 01 00 00 	movsxd rax,DWORD PTR [rdi+0x1d0]
  4095c4:	8b 04 81             	mov    eax,DWORD PTR [rcx+rax*4]
  4095c7:	01 46 18             	add    DWORD PTR [rsi+0x18],eax
  4095ca:	48 63 87 d4 01 00 00 	movsxd rax,DWORD PTR [rdi+0x1d4]
  4095d1:	48 63 04 85 a0 09 41 	movsxd rax,DWORD PTR [rax*4+0x4109a0]
  4095d8:	00 
  4095d9:	8b 04 81             	mov    eax,DWORD PTR [rcx+rax*4]
  4095dc:	29 46 1c             	sub    DWORD PTR [rsi+0x1c],eax
  4095df:	c3                   	ret    

00000000004095e0 <_Z14init_psq_scoreP7state_t>:
  4095e0:	55                   	push   rbp
  4095e1:	41 56                	push   r14
  4095e3:	53                   	push   rbx
  4095e4:	48 83 ec 10          	sub    rsp,0x10
  4095e8:	48 89 fb             	mov    rbx,rdi
  4095eb:	48 8b 87 08 01 00 00 	mov    rax,QWORD PTR [rdi+0x108]
  4095f2:	48 89 44 24 08       	mov    QWORD PTR [rsp+0x8],rax
  4095f7:	31 ed                	xor    ebp,ebp
  4095f9:	48 85 c0             	test   rax,rax
  4095fc:	74 37                	je     409635 <_Z14init_psq_scoreP7state_t+0x55>
  4095fe:	4c 8d 74 24 08       	lea    r14,[rsp+0x8]
  409603:	66 2e 0f 1f 84 00 00 	cs nop WORD PTR [rax+rax*1+0x0]
  40960a:	00 00 00 
  40960d:	0f 1f 00             	nop    DWORD PTR [rax]
  409610:	4c 89 f7             	mov    rdi,r14
  409613:	e8 a8 90 ff ff       	call   4026c0 <_Z15FindFirstRemovePy>
  409618:	48 98                	cdqe   
  40961a:	48 63 4c 83 04       	movsxd rcx,DWORD PTR [rbx+rax*4+0x4]
  40961f:	48 c1 e1 06          	shl    rcx,0x6
  409623:	0f be 84 01 20 9b f2 	movsx  eax,BYTE PTR [rcx+rax*1+0xf29b20]
  40962a:	00 
  40962b:	01 c5                	add    ebp,eax
  40962d:	48 83 7c 24 08 00    	cmp    QWORD PTR [rsp+0x8],0x0
  409633:	75 db                	jne    409610 <_Z14init_psq_scoreP7state_t+0x30>
  409635:	89 ab 8c 01 00 00    	mov    DWORD PTR [rbx+0x18c],ebp
  40963b:	48 83 c4 10          	add    rsp,0x10
  40963f:	5b                   	pop    rbx
  409640:	41 5e                	pop    r14
  409642:	5d                   	pop    rbp
  409643:	c3                   	ret    
  409644:	66 2e 0f 1f 84 00 00 	cs nop WORD PTR [rax+rax*1+0x0]
  40964b:	00 00 00 
  40964e:	66 90                	xchg   ax,ax

0000000000409650 <_Z18preprocess_preparev>:
  409650:	53                   	push   rbx
  409651:	bb 60 9b f2 00       	mov    ebx,0xf29b60
  409656:	bf 60 9b f2 00       	mov    edi,0xf29b60
  40965b:	31 f6                	xor    esi,esi
  40965d:	ba 00 03 00 00       	mov    edx,0x300
  409662:	e8 49 7a ff ff       	call   4010b0 <memset@plt>
  409667:	b8 01 00 00 00       	mov    eax,0x1
  40966c:	0f 1f 40 00          	nop    DWORD PTR [rax+0x0]
  409670:	31 c9                	xor    ecx,ecx
  409672:	66 2e 0f 1f 84 00 00 	cs nop WORD PTR [rax+rax*1+0x0]
  409679:	00 00 00 
  40967c:	0f 1f 40 00          	nop    DWORD PTR [rax+0x0]
  409680:	89 c6                	mov    esi,eax
  409682:	81 e6 ff ff ff 7f    	and    esi,0x7fffffff
  409688:	31 d2                	xor    edx,edx
  40968a:	83 c6 ff             	add    esi,0xffffffff
  40968d:	83 fe 0b             	cmp    esi,0xb
  409690:	0f 87 9a 00 00 00    	ja     409730 <_Z18preprocess_preparev+0xe0>
  409696:	ff 24 f5 40 09 41 00 	jmp    QWORD PTR [rsi*8+0x410940]
  40969d:	8b 14 8d a0 12 41 00 	mov    edx,DWORD PTR [rcx*4+0x4112a0]
  4096a4:	e9 87 00 00 00       	jmp    409730 <_Z18preprocess_preparev+0xe0>
  4096a9:	48 63 34 8d a0 09 41 	movsxd rsi,DWORD PTR [rcx*4+0x4109a0]
  4096b0:	00 
  4096b1:	31 d2                	xor    edx,edx
  4096b3:	2b 14 b5 a0 12 41 00 	sub    edx,DWORD PTR [rsi*4+0x4112a0]
  4096ba:	eb 74                	jmp    409730 <_Z18preprocess_preparev+0xe0>
  4096bc:	8b 14 8d a0 0e 41 00 	mov    edx,DWORD PTR [rcx*4+0x410ea0]
  4096c3:	eb 6b                	jmp    409730 <_Z18preprocess_preparev+0xe0>
  4096c5:	48 63 34 8d a0 09 41 	movsxd rsi,DWORD PTR [rcx*4+0x4109a0]
  4096cc:	00 
  4096cd:	31 d2                	xor    edx,edx
  4096cf:	2b 14 b5 a0 0e 41 00 	sub    edx,DWORD PTR [rsi*4+0x410ea0]
  4096d6:	eb 58                	jmp    409730 <_Z18preprocess_preparev+0xe0>
  4096d8:	8b 14 8d a0 10 41 00 	mov    edx,DWORD PTR [rcx*4+0x4110a0]
  4096df:	eb 4f                	jmp    409730 <_Z18preprocess_preparev+0xe0>
  4096e1:	48 63 34 8d a0 09 41 	movsxd rsi,DWORD PTR [rcx*4+0x4109a0]
  4096e8:	00 
  4096e9:	31 d2                	xor    edx,edx
  4096eb:	2b 14 b5 a0 10 41 00 	sub    edx,DWORD PTR [rsi*4+0x4110a0]
  4096f2:	eb 3c                	jmp    409730 <_Z18preprocess_preparev+0xe0>
  4096f4:	8b 14 8d a0 11 41 00 	mov    edx,DWORD PTR [rcx*4+0x4111a0]
  4096fb:	d1 fa                	sar    edx,1
  4096fd:	eb 31                	jmp    409730 <_Z18preprocess_preparev+0xe0>
  4096ff:	48 63 14 8d a0 09 41 	movsxd rdx,DWORD PTR [rcx*4+0x4109a0]
  409706:	00 
  409707:	8b 14 95 a0 11 41 00 	mov    edx,DWORD PTR [rdx*4+0x4111a0]
  40970e:	d1 fa                	sar    edx,1
  409710:	f7 da                	neg    edx
  409712:	eb 1c                	jmp    409730 <_Z18preprocess_preparev+0xe0>
  409714:	8b 14 8d a0 0f 41 00 	mov    edx,DWORD PTR [rcx*4+0x410fa0]
  40971b:	eb 13                	jmp    409730 <_Z18preprocess_preparev+0xe0>
  40971d:	48 63 34 8d a0 09 41 	movsxd rsi,DWORD PTR [rcx*4+0x4109a0]
  409724:	00 
  409725:	31 d2                	xor    edx,edx
  409727:	2b 14 b5 a0 0f 41 00 	sub    edx,DWORD PTR [rsi*4+0x410fa0]
  40972e:	66 90                	xchg   ax,ax
  409730:	88 14 0b             	mov    BYTE PTR [rbx+rcx*1],dl
  409733:	48 83 c1 01          	add    rcx,0x1
  409737:	48 83 f9 40          	cmp    rcx,0x40
  40973b:	0f 85 3f ff ff ff    	jne    409680 <_Z18preprocess_preparev+0x30>
  409741:	48 83 c0 01          	add    rax,0x1
  409745:	48 83 c3 40          	add    rbx,0x40
  409749:	48 83 f8 0d          	cmp    rax,0xd
  40974d:	0f 85 1d ff ff ff    	jne    409670 <_Z18preprocess_preparev+0x20>
  409753:	5b                   	pop    rbx
  409754:	c3                   	ret    
  409755:	66 2e 0f 1f 84 00 00 	cs nop WORD PTR [rax+rax*1+0x0]
  40975c:	00 00 00 
  40975f:	90                   	nop

0000000000409760 <_Z7qsearchP7state_tiiii>:
  409760:	55                   	push   rbp
  409761:	41 57                	push   r15
  409763:	41 56                	push   r14
  409765:	41 55                	push   r13
  409767:	41 54                	push   r12
  409769:	53                   	push   rbx
  40976a:	48 81 ec e8 07 00 00 	sub    rsp,0x7e8
  409771:	48 89 fb             	mov    rbx,rdi
  409774:	48 83 87 f0 0f 00 00 	add    QWORD PTR [rdi+0xff0],0x1
  40977b:	01 
  40977c:	48 83 87 f8 0f 00 00 	add    QWORD PTR [rdi+0xff8],0x1
  409783:	01 
  409784:	44 89 44 24 38       	mov    DWORD PTR [rsp+0x38],r8d
  409789:	89 4c 24 24          	mov    DWORD PTR [rsp+0x24],ecx
  40978d:	41 89 d7             	mov    r15d,edx
  409790:	89 74 24 0c          	mov    DWORD PTR [rsp+0xc],esi
  409794:	8b 87 d8 01 00 00    	mov    eax,DWORD PTR [rdi+0x1d8]
  40979a:	3b 87 00 10 00 00    	cmp    eax,DWORD PTR [rdi+0x1000]
  4097a0:	7e 06                	jle    4097a8 <_Z7qsearchP7state_tiiii+0x48>
  4097a2:	89 83 00 10 00 00    	mov    DWORD PTR [rbx+0x1000],eax
  4097a8:	48 89 df             	mov    rdi,rbx
  4097ab:	e8 50 07 00 00       	call   409f00 <_ZL17search_time_checkP7state_t>
  4097b0:	45 31 f6             	xor    r14d,r14d
  4097b3:	85 c0                	test   eax,eax
  4097b5:	75 36                	jne    4097ed <_Z7qsearchP7state_tiiii+0x8d>
  4097b7:	bf 38 71 f6 00       	mov    edi,0xf67138
  4097bc:	48 89 de             	mov    rsi,rbx
  4097bf:	e8 dc 91 ff ff       	call   4029a0 <_Z7is_drawP11gamestate_tP7state_t>
  4097c4:	85 c0                	test   eax,eax
  4097c6:	75 09                	jne    4097d1 <_Z7qsearchP7state_tiiii+0x71>
  4097c8:	83 bb dc 01 00 00 64 	cmp    DWORD PTR [rbx+0x1dc],0x64
  4097cf:	7c 31                	jl     409802 <_Z7qsearchP7state_tiiii+0xa2>
  4097d1:	8b 05 6d d9 b5 00    	mov    eax,DWORD PTR [rip+0xb5d96d]        # f67144 <gamestate+0xc>
  4097d7:	8b 0d d3 a8 b5 00    	mov    ecx,DWORD PTR [rip+0xb5a8d3]        # f640b0 <contempt>
  4097dd:	41 89 ce             	mov    r14d,ecx
  4097e0:	41 f7 de             	neg    r14d
  4097e3:	3b 83 cc 01 00 00    	cmp    eax,DWORD PTR [rbx+0x1cc]
  4097e9:	44 0f 44 f1          	cmove  r14d,ecx
  4097ed:	44 89 f0             	mov    eax,r14d
  4097f0:	48 81 c4 e8 07 00 00 	add    rsp,0x7e8
  4097f7:	5b                   	pop    rbx
  4097f8:	41 5c                	pop    r12
  4097fa:	41 5d                	pop    r13
  4097fc:	41 5e                	pop    r14
  4097fe:	41 5f                	pop    r15
  409800:	5d                   	pop    rbp
  409801:	c3                   	ret    
  409802:	4c 8d 4c 24 5c       	lea    r9,[rsp+0x5c]
  409807:	48 8d 74 24 3c       	lea    rsi,[rsp+0x3c]
  40980c:	4c 8d 44 24 18       	lea    r8,[rsp+0x18]
  409811:	48 89 df             	mov    rdi,rbx
  409814:	8b 54 24 0c          	mov    edx,DWORD PTR [rsp+0xc]
  409818:	44 89 f9             	mov    ecx,r15d
  40981b:	6a 00                	push   0x0
  40981d:	41 51                	push   r9
  40981f:	41 51                	push   r9
  409821:	41 51                	push   r9
  409823:	e8 c8 41 00 00       	call   40d9f0 <_Z7ProbeTTP7state_tPiiiPjS1_S1_S1_S1_i>
  409828:	48 83 c4 20          	add    rsp,0x20
  40982c:	83 c0 ff             	add    eax,0xffffffff
  40982f:	83 f8 03             	cmp    eax,0x3
  409832:	77 30                	ja     409864 <_Z7qsearchP7state_tiiii+0x104>
  409834:	ff 24 c5 a0 13 41 00 	jmp    QWORD PTR [rax*8+0x4113a0]
  40983b:	44 8b 74 24 3c       	mov    r14d,DWORD PTR [rsp+0x3c]
  409840:	44 3b 74 24 0c       	cmp    r14d,DWORD PTR [rsp+0xc]
  409845:	7e a6                	jle    4097ed <_Z7qsearchP7state_tiiii+0x8d>
  409847:	eb 1b                	jmp    409864 <_Z7qsearchP7state_tiiii+0x104>
  409849:	44 8b 74 24 3c       	mov    r14d,DWORD PTR [rsp+0x3c]
  40984e:	45 39 fe             	cmp    r14d,r15d
  409851:	7d 9a                	jge    4097ed <_Z7qsearchP7state_tiiii+0x8d>
  409853:	eb 0f                	jmp    409864 <_Z7qsearchP7state_tiiii+0x104>
  409855:	44 8b 74 24 3c       	mov    r14d,DWORD PTR [rsp+0x3c]
  40985a:	eb 91                	jmp    4097ed <_Z7qsearchP7state_tiiii+0x8d>
  40985c:	c7 44 24 18 ff ff 00 	mov    DWORD PTR [rsp+0x18],0xffff
  409863:	00 
  409864:	8b 05 e2 d8 b5 00    	mov    eax,DWORD PTR [rip+0xb5d8e2]        # f6714c <gamestate+0x14>
  40986a:	01 c0                	add    eax,eax
  40986c:	3b 44 24 38          	cmp    eax,DWORD PTR [rsp+0x38]
  409870:	7c 0d                	jl     40987f <_Z7qsearchP7state_tiiii+0x11f>
  409872:	48 63 83 d8 01 00 00 	movsxd rax,DWORD PTR [rbx+0x1d8]
  409879:	48 83 f8 3d          	cmp    rax,0x3d
  40987d:	7c 19                	jl     409898 <_Z7qsearchP7state_tiiii+0x138>
  40987f:	31 c9                	xor    ecx,ecx
  409881:	48 89 df             	mov    rdi,rbx
  409884:	8b 74 24 0c          	mov    esi,DWORD PTR [rsp+0xc]
  409888:	44 89 fa             	mov    edx,r15d
  40988b:	e8 00 ed ff ff       	call   408590 <_Z4evalP7state_tiii>
  409890:	41 89 c6             	mov    r14d,eax
  409893:	e9 55 ff ff ff       	jmp    4097ed <_Z7qsearchP7state_tiiii+0x8d>
  409898:	8b ac 83 04 10 00 00 	mov    ebp,DWORD PTR [rbx+rax*4+0x1004]
  40989f:	48 89 df             	mov    rdi,rbx
  4098a2:	e8 19 f0 ff ff       	call   4088c0 <_Z13retrieve_evalP7state_t>
  4098a7:	44 8b 6c 24 0c       	mov    r13d,DWORD PTR [rsp+0xc]
  4098ac:	89 6c 24 20          	mov    DWORD PTR [rsp+0x20],ebp
  4098b0:	85 ed                	test   ebp,ebp
  4098b2:	44 89 7c 24 10       	mov    DWORD PTR [rsp+0x10],r15d
  4098b7:	74 66                	je     40991f <_Z7qsearchP7state_tiiii+0x1bf>
  4098b9:	48 89 c1             	mov    rcx,rax
  4098bc:	83 c1 32             	add    ecx,0x32
  4098bf:	44 89 e8             	mov    eax,r13d
  4098c2:	29 c8                	sub    eax,ecx
  4098c4:	31 f6                	xor    esi,esi
  4098c6:	8b 54 24 20          	mov    edx,DWORD PTR [rsp+0x20]
  4098ca:	85 d2                	test   edx,edx
  4098cc:	0f 44 f0             	cmove  esi,eax
  4098cf:	89 74 24 48          	mov    DWORD PTR [rsp+0x48],esi
  4098d3:	8b 44 24 18          	mov    eax,DWORD PTR [rsp+0x18]
  4098d7:	83 7c 24 24 fb       	cmp    DWORD PTR [rsp+0x24],0xfffffffb
  4098dc:	48 89 4c 24 50       	mov    QWORD PTR [rsp+0x50],rcx
  4098e1:	89 44 24 28          	mov    DWORD PTR [rsp+0x28],eax
  4098e5:	7c 1e                	jl     409905 <_Z7qsearchP7state_tiiii+0x1a5>
  4098e7:	85 d2                	test   edx,edx
  4098e9:	75 22                	jne    40990d <_Z7qsearchP7state_tiiii+0x1ad>
  4098eb:	48 8d 74 24 60       	lea    rsi,[rsp+0x60]
  4098f0:	48 89 df             	mov    rdi,rbx
  4098f3:	e8 68 b9 ff ff       	call   405260 <_Z12gen_capturesP7state_tPi>
  4098f8:	89 c5                	mov    ebp,eax
  4098fa:	b0 01                	mov    al,0x1
  4098fc:	89 44 24 1c          	mov    DWORD PTR [rsp+0x1c],eax
  409900:	e9 cf 00 00 00       	jmp    4099d4 <_Z7qsearchP7state_tiiii+0x274>
  409905:	85 d2                	test   edx,edx
  409907:	0f 84 b0 00 00 00    	je     4099bd <_Z7qsearchP7state_tiiii+0x25d>
  40990d:	48 8d 74 24 60       	lea    rsi,[rsp+0x60]
  409912:	48 89 df             	mov    rdi,rbx
  409915:	e8 36 c5 ff ff       	call   405e50 <_Z12gen_evasionsP7state_tPii>
  40991a:	e9 ab 00 00 00       	jmp    4099ca <_Z7qsearchP7state_tiiii+0x26a>
  40991f:	48 89 c5             	mov    rbp,rax
  409922:	44 39 fd             	cmp    ebp,r15d
  409925:	7d 64                	jge    40998b <_Z7qsearchP7state_tiiii+0x22b>
  409927:	41 89 ed             	mov    r13d,ebp
  40992a:	3b 6c 24 0c          	cmp    ebp,DWORD PTR [rsp+0xc]
  40992e:	7f 89                	jg     4098b9 <_Z7qsearchP7state_tiiii+0x159>
  409930:	48 89 c1             	mov    rcx,rax
  409933:	44 8d b0 d9 03 00 00 	lea    r14d,[rax+0x3d9]
  40993a:	44 8b 6c 24 0c       	mov    r13d,DWORD PTR [rsp+0xc]
  40993f:	45 39 ee             	cmp    r14d,r13d
  409942:	0f 8e b4 04 00 00    	jle    409dfc <_Z7qsearchP7state_tiiii+0x69c>
  409948:	83 bb cc 01 00 00 00 	cmp    DWORD PTR [rbx+0x1cc],0x0
  40994f:	0f 84 09 05 00 00    	je     409e5e <_Z7qsearchP7state_tiiii+0x6fe>
  409955:	83 bb b8 01 00 00 00 	cmp    DWORD PTR [rbx+0x1b8],0x0
  40995c:	0f 85 57 ff ff ff    	jne    4098b9 <_Z7qsearchP7state_tiiii+0x159>
  409962:	83 bb b0 01 00 00 00 	cmp    DWORD PTR [rbx+0x1b0],0x0
  409969:	0f 84 3f 05 00 00    	je     409eae <_Z7qsearchP7state_tiiii+0x74e>
  40996f:	44 8d b0 1c 02 00 00 	lea    r14d,[rax+0x21c]
  409976:	8b 4c 24 0c          	mov    ecx,DWORD PTR [rsp+0xc]
  40997a:	41 89 cd             	mov    r13d,ecx
  40997d:	41 39 ce             	cmp    r14d,ecx
  409980:	0f 8f 33 ff ff ff    	jg     4098b9 <_Z7qsearchP7state_tiiii+0x159>
  409986:	e9 05 05 00 00       	jmp    409e90 <_Z7qsearchP7state_tiiii+0x730>
  40998b:	44 8b 44 24 18       	mov    r8d,DWORD PTR [rsp+0x18]
  409990:	48 83 ec 08          	sub    rsp,0x8
  409994:	41 b9 00 00 00 00    	mov    r9d,0x0
  40999a:	48 89 df             	mov    rdi,rbx
  40999d:	89 ee                	mov    esi,ebp
  40999f:	8b 54 24 14          	mov    edx,DWORD PTR [rsp+0x14]
  4099a3:	44 89 f9             	mov    ecx,r15d
  4099a6:	6a 00                	push   0x0
  4099a8:	6a 00                	push   0x0
  4099aa:	6a 00                	push   0x0
  4099ac:	e8 3f 3e 00 00       	call   40d7f0 <_Z7StoreTTP7state_tiiijiiii>
  4099b1:	48 83 c4 20          	add    rsp,0x20
  4099b5:	41 89 ee             	mov    r14d,ebp
  4099b8:	e9 30 fe ff ff       	jmp    4097ed <_Z7qsearchP7state_tiiii+0x8d>
  4099bd:	48 8d 74 24 60       	lea    rsi,[rsp+0x60]
  4099c2:	48 89 df             	mov    rdi,rbx
  4099c5:	e8 96 b8 ff ff       	call   405260 <_Z12gen_capturesP7state_tPi>
  4099ca:	89 c5                	mov    ebp,eax
  4099cc:	c7 44 24 1c 00 00 00 	mov    DWORD PTR [rsp+0x1c],0x0
  4099d3:	00 
  4099d4:	44 89 f8             	mov    eax,r15d
  4099d7:	f7 d8                	neg    eax
  4099d9:	89 44 24 40          	mov    DWORD PTR [rsp+0x40],eax
  4099dd:	83 44 24 38 01       	add    DWORD PTR [rsp+0x38],0x1
  4099e2:	c7 44 24 30 00 83 ff 	mov    DWORD PTR [rsp+0x30],0xffff8300
  4099e9:	ff 
  4099ea:	c7 44 24 2c 01 00 00 	mov    DWORD PTR [rsp+0x2c],0x1
  4099f1:	00 
  4099f2:	48 8d 74 24 60       	lea    rsi,[rsp+0x60]
  4099f7:	b8 01 00 00 00       	mov    eax,0x1
  4099fc:	41 89 c4             	mov    r12d,eax
  4099ff:	45 89 ef             	mov    r15d,r13d
  409a02:	83 f8 02             	cmp    eax,0x2
  409a05:	75 0a                	jne    409a11 <_Z7qsearchP7state_tiiii+0x2b1>
  409a07:	48 89 df             	mov    rdi,rbx
  409a0a:	e8 d1 bd ff ff       	call   4057e0 <_Z15gen_good_checksP7state_tPi>
  409a0f:	eb 0e                	jmp    409a1f <_Z7qsearchP7state_tiiii+0x2bf>
  409a11:	41 83 fc 03          	cmp    r12d,0x3
  409a15:	75 0f                	jne    409a26 <_Z7qsearchP7state_tiiii+0x2c6>
  409a17:	48 89 df             	mov    rdi,rbx
  409a1a:	e8 b1 a8 ff ff       	call   4042d0 <_Z9gen_quietP7state_tPi>
  409a1f:	48 8d 74 24 60       	lea    rsi,[rsp+0x60]
  409a24:	89 c5                	mov    ebp,eax
  409a26:	44 8b 44 24 18       	mov    r8d,DWORD PTR [rsp+0x18]
  409a2b:	48 89 df             	mov    rdi,rbx
  409a2e:	49 89 f6             	mov    r14,rsi
  409a31:	4c 8d ac 24 20 04 00 	lea    r13,[rsp+0x420]
  409a38:	00 
  409a39:	4c 89 ea             	mov    rdx,r13
  409a3c:	89 e9                	mov    ecx,ebp
  409a3e:	e8 cd 06 00 00       	call   40a110 <_ZL16fast_order_movesP7state_tPiS1_ij>
  409a43:	c7 44 24 14 ff ff ff 	mov    DWORD PTR [rsp+0x14],0xffffffff
  409a4a:	ff 
  409a4b:	48 8d 7c 24 14       	lea    rdi,[rsp+0x14]
  409a50:	4c 89 ee             	mov    rsi,r13
  409a53:	4c 89 f2             	mov    rdx,r14
  409a56:	89 e9                	mov    ecx,ebp
  409a58:	e8 43 08 00 00       	call   40a2a0 <_ZL15remove_one_fastPiS_S_i>
  409a5d:	85 c0                	test   eax,eax
  409a5f:	0f 84 0e 03 00 00    	je     409d73 <_Z7qsearchP7state_tiiii+0x613>
  409a65:	44 89 e0             	mov    eax,r12d
  409a68:	83 c8 01             	or     eax,0x1
  409a6b:	89 44 24 4c          	mov    DWORD PTR [rsp+0x4c],eax
  409a6f:	4c 8d b4 24 20 04 00 	lea    r14,[rsp+0x420]
  409a76:	00 
  409a77:	45 89 fd             	mov    r13d,r15d
  409a7a:	44 8b 7c 24 10       	mov    r15d,DWORD PTR [rsp+0x10]
  409a7f:	89 6c 24 34          	mov    DWORD PTR [rsp+0x34],ebp
  409a83:	83 7c 24 20 00       	cmp    DWORD PTR [rsp+0x20],0x0
  409a88:	0f 84 c2 00 00 00    	je     409b50 <_Z7qsearchP7state_tiiii+0x3f0>
  409a8e:	48 63 6c 24 14       	movsxd rbp,DWORD PTR [rsp+0x14]
  409a93:	8b 74 ac 60          	mov    esi,DWORD PTR [rsp+rbp*4+0x60]
  409a97:	48 89 df             	mov    rdi,rbx
  409a9a:	e8 11 c5 ff ff       	call   405fb0 <_Z4makeP7state_ti>
  409a9f:	8b 74 ac 60          	mov    esi,DWORD PTR [rsp+rbp*4+0x60]
  409aa3:	48 89 df             	mov    rdi,rbx
  409aa6:	e8 d5 cf ff ff       	call   406a80 <_Z11check_legalP7state_ti>
  409aab:	45 31 f6             	xor    r14d,r14d
  409aae:	85 c0                	test   eax,eax
  409ab0:	44 89 6c 24 44       	mov    DWORD PTR [rsp+0x44],r13d
  409ab5:	0f 84 e2 01 00 00    	je     409c9d <_Z7qsearchP7state_tiiii+0x53d>
  409abb:	48 8b 83 e0 01 00 00 	mov    rax,QWORD PTR [rbx+0x1e0]
  409ac2:	8b 0d ac d6 b5 00    	mov    ecx,DWORD PTR [rip+0xb5d6ac]        # f67174 <gamestate+0x3c>
  409ac8:	48 63 93 d8 01 00 00 	movsxd rdx,DWORD PTR [rbx+0x1d8]
  409acf:	8d 0c 0a             	lea    ecx,[rdx+rcx*1]
  409ad2:	83 c1 ff             	add    ecx,0xffffffff
  409ad5:	48 63 c9             	movsxd rcx,ecx
  409ad8:	48 89 84 cb 30 11 00 	mov    QWORD PTR [rbx+rcx*8+0x1130],rax
  409adf:	00 
  409ae0:	8b 44 ac 60          	mov    eax,DWORD PTR [rsp+rbp*4+0x60]
  409ae4:	89 84 93 ec 09 00 00 	mov    DWORD PTR [rbx+rdx*4+0x9ec],eax
  409aeb:	48 89 df             	mov    rdi,rbx
  409aee:	e8 ed 79 ff ff       	call   4014e0 <_Z8in_checkP7state_t>
  409af3:	41 89 c7             	mov    r15d,eax
  409af6:	48 63 83 d8 01 00 00 	movsxd rax,DWORD PTR [rbx+0x1d8]
  409afd:	44 89 bc 83 04 10 00 	mov    DWORD PTR [rbx+rax*4+0x1004],r15d
  409b04:	00 
  409b05:	ba 3c 00 00 00       	mov    edx,0x3c
  409b0a:	44 29 ea             	sub    edx,r13d
  409b0d:	31 c9                	xor    ecx,ecx
  409b0f:	45 85 ff             	test   r15d,r15d
  409b12:	0f 95 c1             	setne  cl
  409b15:	48 89 df             	mov    rdi,rbx
  409b18:	8b 74 24 40          	mov    esi,DWORD PTR [rsp+0x40]
  409b1c:	e8 6f ea ff ff       	call   408590 <_Z4evalP7state_tiii>
  409b21:	44 89 e9             	mov    ecx,r13d
  409b24:	41 83 fc 03          	cmp    r12d,0x3
  409b28:	0f 85 74 01 00 00    	jne    409ca2 <_Z7qsearchP7state_tiiii+0x542>
  409b2e:	f7 d8                	neg    eax
  409b30:	39 c1                	cmp    ecx,eax
  409b32:	0f 8c 6a 01 00 00    	jl     409ca2 <_Z7qsearchP7state_tiiii+0x542>
  409b38:	41 bd 01 00 00 00    	mov    r13d,0x1
  409b3e:	c7 44 24 2c 00 00 00 	mov    DWORD PTR [rsp+0x2c],0x0
  409b45:	00 
  409b46:	e9 a0 01 00 00       	jmp    409ceb <_Z7qsearchP7state_tiiii+0x58b>
  409b4b:	0f 1f 44 00 00       	nop    DWORD PTR [rax+rax*1+0x0]
  409b50:	41 83 fc 01          	cmp    r12d,0x1
  409b54:	75 3a                	jne    409b90 <_Z7qsearchP7state_tiiii+0x430>
  409b56:	48 63 44 24 14       	movsxd rax,DWORD PTR [rsp+0x14]
  409b5b:	8b 4c 84 60          	mov    ecx,DWORD PTR [rsp+rax*4+0x60]
  409b5f:	48 89 c8             	mov    rax,rcx
  409b62:	48 c1 e8 11          	shr    rax,0x11
  409b66:	83 e0 3c             	and    eax,0x3c
  409b69:	8b 90 00 08 41 00    	mov    edx,DWORD PTR [rax+0x410800]
  409b6f:	89 d0                	mov    eax,edx
  409b71:	f7 d8                	neg    eax
  409b73:	0f 4c c2             	cmovl  eax,edx
  409b76:	f7 c1 00 f0 00 00    	test   ecx,0xf000
  409b7c:	0f 85 7d 00 00 00    	jne    409bff <_Z7qsearchP7state_tiiii+0x49f>
  409b82:	3b 44 24 48          	cmp    eax,DWORD PTR [rsp+0x48]
  409b86:	7f 77                	jg     409bff <_Z7qsearchP7state_tiiii+0x49f>
  409b88:	e9 f0 01 00 00       	jmp    409d7d <_Z7qsearchP7state_tiiii+0x61d>
  409b8d:	0f 1f 00             	nop    DWORD PTR [rax]
  409b90:	83 7c 24 4c 03       	cmp    DWORD PTR [rsp+0x4c],0x3
  409b95:	75 41                	jne    409bd8 <_Z7qsearchP7state_tiiii+0x478>
  409b97:	48 63 44 24 14       	movsxd rax,DWORD PTR [rsp+0x14]
  409b9c:	8b 44 84 60          	mov    eax,DWORD PTR [rsp+rax*4+0x60]
  409ba0:	c1 e8 13             	shr    eax,0x13
  409ba3:	83 e0 0f             	and    eax,0xf
  409ba6:	40 b5 01             	mov    bpl,0x1
  409ba9:	83 f8 0d             	cmp    eax,0xd
  409bac:	74 22                	je     409bd0 <_Z7qsearchP7state_tiiii+0x470>
  409bae:	8b 04 85 00 08 41 00 	mov    eax,DWORD PTR [rax*4+0x410800]
  409bb5:	89 c1                	mov    ecx,eax
  409bb7:	f7 d9                	neg    ecx
  409bb9:	0f 4c c8             	cmovl  ecx,eax
  409bbc:	3b 4c 24 48          	cmp    ecx,DWORD PTR [rsp+0x48]
  409bc0:	0f 8f b2 00 00 00    	jg     409c78 <_Z7qsearchP7state_tiiii+0x518>
  409bc6:	66 2e 0f 1f 84 00 00 	cs nop WORD PTR [rax+rax*1+0x0]
  409bcd:	00 00 00 
  409bd0:	41 83 fc 03          	cmp    r12d,0x3
  409bd4:	74 0a                	je     409be0 <_Z7qsearchP7state_tiiii+0x480>
  409bd6:	eb 22                	jmp    409bfa <_Z7qsearchP7state_tiiii+0x49a>
  409bd8:	31 ed                	xor    ebp,ebp
  409bda:	41 83 fc 03          	cmp    r12d,0x3
  409bde:	75 1a                	jne    409bfa <_Z7qsearchP7state_tiiii+0x49a>
  409be0:	48 63 44 24 14       	movsxd rax,DWORD PTR [rsp+0x14]
  409be5:	8b 74 84 60          	mov    esi,DWORD PTR [rsp+rax*4+0x60]
  409be9:	ba 01 00 00 00       	mov    edx,0x1
  409bee:	48 89 df             	mov    rdi,rbx
  409bf1:	e8 2a 07 00 00       	call   40a320 <_ZL15history_pre_cutP7state_tii>
  409bf6:	85 c0                	test   eax,eax
  409bf8:	75 7e                	jne    409c78 <_Z7qsearchP7state_tiiii+0x518>
  409bfa:	40 84 ed             	test   bpl,bpl
  409bfd:	75 44                	jne    409c43 <_Z7qsearchP7state_tiiii+0x4e3>
  409bff:	48 63 44 24 14       	movsxd rax,DWORD PTR [rsp+0x14]
  409c04:	8b 44 84 60          	mov    eax,DWORD PTR [rsp+rax*4+0x60]
  409c08:	48 89 c1             	mov    rcx,rax
  409c0b:	48 c1 e9 11          	shr    rcx,0x11
  409c0f:	83 e1 3c             	and    ecx,0x3c
  409c12:	8b 89 00 08 41 00    	mov    ecx,DWORD PTR [rcx+0x410800]
  409c18:	89 ca                	mov    edx,ecx
  409c1a:	f7 da                	neg    edx
  409c1c:	0f 4c d1             	cmovl  edx,ecx
  409c1f:	48 c1 e8 04          	shr    rax,0x4
  409c23:	25 fc 00 00 00       	and    eax,0xfc
  409c28:	48 63 44 03 04       	movsxd rax,DWORD PTR [rbx+rax*1+0x4]
  409c2d:	8b 04 85 00 08 41 00 	mov    eax,DWORD PTR [rax*4+0x410800]
  409c34:	89 c1                	mov    ecx,eax
  409c36:	f7 d9                	neg    ecx
  409c38:	0f 4c c8             	cmovl  ecx,eax
  409c3b:	39 ca                	cmp    edx,ecx
  409c3d:	0f 8d 4b fe ff ff    	jge    409a8e <_Z7qsearchP7state_tiiii+0x32e>
  409c43:	31 f6                	xor    esi,esi
  409c45:	83 bb cc 01 00 00 00 	cmp    DWORD PTR [rbx+0x1cc],0x0
  409c4c:	40 0f 94 c6          	sete   sil
  409c50:	48 63 44 24 14       	movsxd rax,DWORD PTR [rsp+0x14]
  409c55:	8b 4c 84 60          	mov    ecx,DWORD PTR [rsp+rax*4+0x60]
  409c59:	89 ca                	mov    edx,ecx
  409c5b:	c1 ea 06             	shr    edx,0x6
  409c5e:	83 e2 3f             	and    edx,0x3f
  409c61:	83 e1 3f             	and    ecx,0x3f
  409c64:	45 31 c0             	xor    r8d,r8d
  409c67:	48 89 df             	mov    rdi,rbx
  409c6a:	e8 51 35 00 00       	call   40d1c0 <_Z3seeP7state_tiiii>
  409c6f:	83 f8 ce             	cmp    eax,0xffffffce
  409c72:	0f 8d 16 fe ff ff    	jge    409a8e <_Z7qsearchP7state_tiiii+0x32e>
  409c78:	48 8d 7c 24 14       	lea    rdi,[rsp+0x14]
  409c7d:	4c 89 f6             	mov    rsi,r14
  409c80:	48 8d 54 24 60       	lea    rdx,[rsp+0x60]
  409c85:	8b 6c 24 34          	mov    ebp,DWORD PTR [rsp+0x34]
  409c89:	89 e9                	mov    ecx,ebp
  409c8b:	e8 10 06 00 00       	call   40a2a0 <_ZL15remove_one_fastPiS_S_i>
  409c90:	85 c0                	test   eax,eax
  409c92:	0f 85 b8 fe ff ff    	jne    409b50 <_Z7qsearchP7state_tiiii+0x3f0>
  409c98:	e9 e4 00 00 00       	jmp    409d81 <_Z7qsearchP7state_tiiii+0x621>
  409c9d:	45 31 ed             	xor    r13d,r13d
  409ca0:	eb 4e                	jmp    409cf0 <_Z7qsearchP7state_tiiii+0x590>
  409ca2:	41 bd 01 00 00 00    	mov    r13d,0x1
  409ca8:	c7 44 24 2c 00 00 00 	mov    DWORD PTR [rsp+0x2c],0x0
  409caf:	00 
  409cb0:	89 ca                	mov    edx,ecx
  409cb2:	f7 da                	neg    edx
  409cb4:	8b 4c 24 24          	mov    ecx,DWORD PTR [rsp+0x24]
  409cb8:	41 83 fc 03          	cmp    r12d,0x3
  409cbc:	74 16                	je     409cd4 <_Z7qsearchP7state_tiiii+0x574>
  409cbe:	44 0b 7c 24 20       	or     r15d,DWORD PTR [rsp+0x20]
  409cc3:	b9 ff ff ff ff       	mov    ecx,0xffffffff
  409cc8:	b8 f8 ff ff ff       	mov    eax,0xfffffff8
  409ccd:	0f 44 c8             	cmove  ecx,eax
  409cd0:	03 4c 24 24          	add    ecx,DWORD PTR [rsp+0x24]
  409cd4:	48 89 df             	mov    rdi,rbx
  409cd7:	8b 74 24 40          	mov    esi,DWORD PTR [rsp+0x40]
  409cdb:	44 8b 44 24 38       	mov    r8d,DWORD PTR [rsp+0x38]
  409ce0:	e8 7b fa ff ff       	call   409760 <_Z7qsearchP7state_tiiii>
  409ce5:	f7 d8                	neg    eax
  409ce7:	89 44 24 30          	mov    DWORD PTR [rsp+0x30],eax
  409ceb:	44 8b 7c 24 10       	mov    r15d,DWORD PTR [rsp+0x10]
  409cf0:	8b 74 ac 60          	mov    esi,DWORD PTR [rsp+rbp*4+0x60]
  409cf4:	48 89 df             	mov    rdi,rbx
  409cf7:	e8 c4 c9 ff ff       	call   4066c0 <_Z6unmakeP7state_ti>
  409cfc:	83 3d 35 61 b6 00 00 	cmp    DWORD PTR [rip+0xb66135],0x0        # f6fe38 <gamestate+0x8d00>
  409d03:	0f 85 e4 fa ff ff    	jne    4097ed <_Z7qsearchP7state_tiiii+0x8d>
  409d09:	45 85 ed             	test   r13d,r13d
  409d0c:	74 36                	je     409d44 <_Z7qsearchP7state_tiiii+0x5e4>
  409d0e:	44 8b 6c 24 44       	mov    r13d,DWORD PTR [rsp+0x44]
  409d13:	44 39 6c 24 30       	cmp    DWORD PTR [rsp+0x30],r13d
  409d18:	4c 8d b4 24 20 04 00 	lea    r14,[rsp+0x420]
  409d1f:	00 
  409d20:	7e 2f                	jle    409d51 <_Z7qsearchP7state_tiiii+0x5f1>
  409d22:	8b 7c ac 60          	mov    edi,DWORD PTR [rsp+rbp*4+0x60]
  409d26:	e8 d5 3f 00 00       	call   40dd00 <_Z12compact_movei>
  409d2b:	44 0f b7 c0          	movzx  r8d,ax
  409d2f:	44 8b 6c 24 30       	mov    r13d,DWORD PTR [rsp+0x30]
  409d34:	45 39 fd             	cmp    r13d,r15d
  409d37:	0f 8d a9 00 00 00    	jge    409de6 <_Z7qsearchP7state_tiiii+0x686>
  409d3d:	44 89 44 24 28       	mov    DWORD PTR [rsp+0x28],r8d
  409d42:	eb 0d                	jmp    409d51 <_Z7qsearchP7state_tiiii+0x5f1>
  409d44:	44 8b 6c 24 44       	mov    r13d,DWORD PTR [rsp+0x44]
  409d49:	4c 8d b4 24 20 04 00 	lea    r14,[rsp+0x420]
  409d50:	00 
  409d51:	48 8d 7c 24 14       	lea    rdi,[rsp+0x14]
  409d56:	4c 89 f6             	mov    rsi,r14
  409d59:	48 8d 54 24 60       	lea    rdx,[rsp+0x60]
  409d5e:	8b 6c 24 34          	mov    ebp,DWORD PTR [rsp+0x34]
  409d62:	89 e9                	mov    ecx,ebp
  409d64:	e8 37 05 00 00       	call   40a2a0 <_ZL15remove_one_fastPiS_S_i>
  409d69:	85 c0                	test   eax,eax
  409d6b:	0f 85 12 fd ff ff    	jne    409a83 <_Z7qsearchP7state_tiiii+0x323>
  409d71:	eb 0e                	jmp    409d81 <_Z7qsearchP7state_tiiii+0x621>
  409d73:	45 89 fd             	mov    r13d,r15d
  409d76:	44 8b 7c 24 10       	mov    r15d,DWORD PTR [rsp+0x10]
  409d7b:	eb 04                	jmp    409d81 <_Z7qsearchP7state_tiiii+0x621>
  409d7d:	8b 6c 24 34          	mov    ebp,DWORD PTR [rsp+0x34]
  409d81:	41 83 fc 01          	cmp    r12d,0x1
  409d85:	0f 94 c1             	sete   cl
  409d88:	b8 02 00 00 00       	mov    eax,0x2
  409d8d:	84 4c 24 1c          	test   BYTE PTR [rsp+0x1c],cl
  409d91:	48 8d 74 24 60       	lea    rsi,[rsp+0x60]
  409d96:	0f 85 60 fc ff ff    	jne    4099fc <_Z7qsearchP7state_tiiii+0x29c>
  409d9c:	41 83 fc 02          	cmp    r12d,0x2
  409da0:	0f 94 c0             	sete   al
  409da3:	83 7c 24 24 00       	cmp    DWORD PTR [rsp+0x24],0x0
  409da8:	78 16                	js     409dc0 <_Z7qsearchP7state_tiiii+0x660>
  409daa:	22 44 24 1c          	and    al,BYTE PTR [rsp+0x1c]
  409dae:	74 10                	je     409dc0 <_Z7qsearchP7state_tiiii+0x660>
  409db0:	b8 03 00 00 00       	mov    eax,0x3
  409db5:	44 39 6c 24 50       	cmp    DWORD PTR [rsp+0x50],r13d
  409dba:	0f 8f 3c fc ff ff    	jg     4099fc <_Z7qsearchP7state_tiiii+0x29c>
  409dc0:	83 7c 24 20 00       	cmp    DWORD PTR [rsp+0x20],0x0
  409dc5:	74 64                	je     409e2b <_Z7qsearchP7state_tiiii+0x6cb>
  409dc7:	83 7c 24 2c 00       	cmp    DWORD PTR [rsp+0x2c],0x0
  409dcc:	8b 54 24 0c          	mov    edx,DWORD PTR [rsp+0xc]
  409dd0:	44 8b 44 24 28       	mov    r8d,DWORD PTR [rsp+0x28]
  409dd5:	74 5d                	je     409e34 <_Z7qsearchP7state_tiiii+0x6d4>
  409dd7:	41 bd 00 83 ff ff    	mov    r13d,0xffff8300
  409ddd:	44 03 ab d8 01 00 00 	add    r13d,DWORD PTR [rbx+0x1d8]
  409de4:	eb 4e                	jmp    409e34 <_Z7qsearchP7state_tiiii+0x6d4>
  409de6:	48 83 ec 08          	sub    rsp,0x8
  409dea:	41 b9 00 00 00 00    	mov    r9d,0x0
  409df0:	48 89 df             	mov    rdi,rbx
  409df3:	44 89 ee             	mov    esi,r13d
  409df6:	8b 54 24 14          	mov    edx,DWORD PTR [rsp+0x14]
  409dfa:	eb 48                	jmp    409e44 <_Z7qsearchP7state_tiiii+0x6e4>
  409dfc:	44 8b 44 24 18       	mov    r8d,DWORD PTR [rsp+0x18]
  409e01:	48 83 ec 08          	sub    rsp,0x8
  409e05:	41 b9 00 00 00 00    	mov    r9d,0x0
  409e0b:	48 89 df             	mov    rdi,rbx
  409e0e:	44 89 f6             	mov    esi,r14d
  409e11:	44 89 ea             	mov    edx,r13d
  409e14:	44 89 f9             	mov    ecx,r15d
  409e17:	6a 00                	push   0x0
  409e19:	6a 00                	push   0x0
  409e1b:	6a 00                	push   0x0
  409e1d:	e8 ce 39 00 00       	call   40d7f0 <_Z7StoreTTP7state_tiiijiiii>
  409e22:	48 83 c4 20          	add    rsp,0x20
  409e26:	e9 c2 f9 ff ff       	jmp    4097ed <_Z7qsearchP7state_tiiii+0x8d>
  409e2b:	8b 54 24 0c          	mov    edx,DWORD PTR [rsp+0xc]
  409e2f:	44 8b 44 24 28       	mov    r8d,DWORD PTR [rsp+0x28]
  409e34:	48 83 ec 08          	sub    rsp,0x8
  409e38:	41 b9 00 00 00 00    	mov    r9d,0x0
  409e3e:	48 89 df             	mov    rdi,rbx
  409e41:	44 89 ee             	mov    esi,r13d
  409e44:	44 89 f9             	mov    ecx,r15d
  409e47:	6a 00                	push   0x0
  409e49:	6a 00                	push   0x0
  409e4b:	6a 00                	push   0x0
  409e4d:	e8 9e 39 00 00       	call   40d7f0 <_Z7StoreTTP7state_tiiijiiii>
  409e52:	48 83 c4 20          	add    rsp,0x20
  409e56:	45 89 ee             	mov    r14d,r13d
  409e59:	e9 8f f9 ff ff       	jmp    4097ed <_Z7qsearchP7state_tiiii+0x8d>
  409e5e:	83 bb b4 01 00 00 00 	cmp    DWORD PTR [rbx+0x1b4],0x0
  409e65:	0f 85 4e fa ff ff    	jne    4098b9 <_Z7qsearchP7state_tiiii+0x159>
  409e6b:	83 bb ac 01 00 00 00 	cmp    DWORD PTR [rbx+0x1ac],0x0
  409e72:	74 4e                	je     409ec2 <_Z7qsearchP7state_tiiii+0x762>
  409e74:	44 8d b0 1c 02 00 00 	lea    r14d,[rax+0x21c]
  409e7b:	8b 4c 24 0c          	mov    ecx,DWORD PTR [rsp+0xc]
  409e7f:	41 89 cd             	mov    r13d,ecx
  409e82:	41 39 ce             	cmp    r14d,ecx
  409e85:	44 8b 7c 24 10       	mov    r15d,DWORD PTR [rsp+0x10]
  409e8a:	0f 8f 29 fa ff ff    	jg     4098b9 <_Z7qsearchP7state_tiiii+0x159>
  409e90:	44 8b 44 24 18       	mov    r8d,DWORD PTR [rsp+0x18]
  409e95:	48 83 ec 08          	sub    rsp,0x8
  409e99:	41 b9 00 00 00 00    	mov    r9d,0x0
  409e9f:	48 89 df             	mov    rdi,rbx
  409ea2:	44 89 f6             	mov    esi,r14d
  409ea5:	8b 54 24 14          	mov    edx,DWORD PTR [rsp+0x14]
  409ea9:	e9 66 ff ff ff       	jmp    409e14 <_Z7qsearchP7state_tiiii+0x6b4>
  409eae:	83 bb c0 01 00 00 00 	cmp    DWORD PTR [rbx+0x1c0],0x0
  409eb5:	75 1d                	jne    409ed4 <_Z7qsearchP7state_tiiii+0x774>
  409eb7:	83 bb a0 01 00 00 00 	cmp    DWORD PTR [rbx+0x1a0],0x0
  409ebe:	75 14                	jne    409ed4 <_Z7qsearchP7state_tiiii+0x774>
  409ec0:	eb 33                	jmp    409ef5 <_Z7qsearchP7state_tiiii+0x795>
  409ec2:	83 bb bc 01 00 00 00 	cmp    DWORD PTR [rbx+0x1bc],0x0
  409ec9:	75 09                	jne    409ed4 <_Z7qsearchP7state_tiiii+0x774>
  409ecb:	83 bb 9c 01 00 00 00 	cmp    DWORD PTR [rbx+0x19c],0x0
  409ed2:	74 21                	je     409ef5 <_Z7qsearchP7state_tiiii+0x795>
  409ed4:	44 8d b0 7c 01 00 00 	lea    r14d,[rax+0x17c]
  409edb:	8b 4c 24 0c          	mov    ecx,DWORD PTR [rsp+0xc]
  409edf:	41 89 cd             	mov    r13d,ecx
  409ee2:	41 39 ce             	cmp    r14d,ecx
  409ee5:	44 8b 7c 24 10       	mov    r15d,DWORD PTR [rsp+0x10]
  409eea:	0f 8e fd f8 ff ff    	jle    4097ed <_Z7qsearchP7state_tiiii+0x8d>
  409ef0:	e9 c4 f9 ff ff       	jmp    4098b9 <_Z7qsearchP7state_tiiii+0x159>
  409ef5:	44 8d b0 87 00 00 00 	lea    r14d,[rax+0x87]
  409efc:	eb dd                	jmp    409edb <_Z7qsearchP7state_tiiii+0x77b>
  409efe:	66 90                	xchg   ax,ax

0000000000409f00 <_ZL17search_time_checkP7state_t>:
  409f00:	55                   	push   rbp
  409f01:	53                   	push   rbx
  409f02:	50                   	push   rax
  409f03:	8a 0d ab a1 b5 00    	mov    cl,BYTE PTR [rip+0xb5a1ab]        # f640b4 <time_check_log>
  409f09:	b8 ff ff ff ff       	mov    eax,0xffffffff
  409f0e:	d3 e0                	shl    eax,cl
  409f10:	f7 d0                	not    eax
  409f12:	48 98                	cdqe   
  409f14:	31 db                	xor    ebx,ebx
  409f16:	48 85 87 f0 0f 00 00 	test   QWORD PTR [rdi+0xff0],rax
  409f1d:	75 18                	jne    409f37 <_ZL17search_time_checkP7state_t+0x37>
  409f1f:	e8 ec 59 00 00       	call   40f910 <_Z9interruptv>
  409f24:	85 c0                	test   eax,eax
  409f26:	74 18                	je     409f40 <_ZL17search_time_checkP7state_t+0x40>
  409f28:	c7 05 06 5f b6 00 01 	mov    DWORD PTR [rip+0xb65f06],0x1        # f6fe38 <gamestate+0x8d00>
  409f2f:	00 00 00 
  409f32:	bb 01 00 00 00       	mov    ebx,0x1
  409f37:	89 d8                	mov    eax,ebx
  409f39:	48 83 c4 08          	add    rsp,0x8
  409f3d:	5b                   	pop    rbx
  409f3e:	5d                   	pop    rbp
  409f3f:	c3                   	ret    
  409f40:	e8 fb 4e 00 00       	call   40ee40 <_Z5rtimev>
  409f45:	8b 35 d5 5e b6 00    	mov    esi,DWORD PTR [rip+0xb65ed5]        # f6fe20 <gamestate+0x8ce8>
  409f4b:	89 c7                	mov    edi,eax
  409f4d:	e8 de 4e 00 00       	call   40ee30 <_Z9rdifftimeii>
  409f52:	8b 0d 10 d2 b5 00    	mov    ecx,DWORD PTR [rip+0xb5d210]        # f67168 <gamestate+0x30>
  409f58:	39 c8                	cmp    eax,ecx
  409f5a:	7c db                	jl     409f37 <_ZL17search_time_checkP7state_t+0x37>
  409f5c:	83 3d e9 d1 b5 00 03 	cmp    DWORD PTR [rip+0xb5d1e9],0x3        # f6714c <gamestate+0x14>
  409f63:	7c d2                	jl     409f37 <_ZL17search_time_checkP7state_t+0x37>
  409f65:	83 3d c0 5e b6 00 01 	cmp    DWORD PTR [rip+0xb65ec0],0x1        # f6fe2c <gamestate+0x8cf4>
  409f6c:	0f 85 ec 00 00 00    	jne    40a05e <_ZL17search_time_checkP7state_t+0x15e>
  409f72:	83 3d bb 5e b6 00 02 	cmp    DWORD PTR [rip+0xb65ebb],0x2        # f6fe34 <gamestate+0x8cfc>
  409f79:	0f 84 df 00 00 00    	je     40a05e <_ZL17search_time_checkP7state_t+0x15e>
  409f7f:	8b 05 e7 d1 b5 00    	mov    eax,DWORD PTR [rip+0xb5d1e7]        # f6716c <gamestate+0x34>
  409f85:	85 c0                	test   eax,eax
  409f87:	0f 85 d1 00 00 00    	jne    40a05e <_ZL17search_time_checkP7state_t+0x15e>
  409f8d:	8b 2d cd d1 b5 00    	mov    ebp,DWORD PTR [rip+0xb5d1cd]        # f67160 <gamestate+0x28>
  409f93:	8d 04 cd 00 00 00 00 	lea    eax,[rcx*8+0x0]
  409f9a:	29 c8                	sub    eax,ecx
  409f9c:	89 04 24             	mov    DWORD PTR [rsp],eax
  409f9f:	c7 44 24 04 e8 03 00 	mov    DWORD PTR [rsp+0x4],0x3e8
  409fa6:	00 
  409fa7:	48 89 e7             	mov    rdi,rsp
  409faa:	48 8d 74 24 04       	lea    rsi,[rsp+0x4]
  409faf:	e8 fc 31 00 00       	call   40d1b0 <_ZSt3maxIiERKT_S2_S2_>
  409fb4:	3b 28                	cmp    ebp,DWORD PTR [rax]
  409fb6:	0f 8e a2 00 00 00    	jle    40a05e <_ZL17search_time_checkP7state_t+0x15e>
  409fbc:	83 3d 71 5e b6 00 00 	cmp    DWORD PTR [rip+0xb65e71],0x0        # f6fe34 <gamestate+0x8cfc>
  409fc3:	75 2a                	jne    409fef <_ZL17search_time_checkP7state_t+0xef>
  409fc5:	bf 38 71 f6 00       	mov    edi,0xf67138
  409fca:	be 01 00 00 00       	mov    esi,0x1
  409fcf:	e8 8c 3d 00 00       	call   40dd60 <_Z13allocate_timeP11gamestate_ti>
  409fd4:	01 05 8e d1 b5 00    	add    DWORD PTR [rip+0xb5d18e],eax        # f67168 <gamestate+0x30>
  409fda:	bf 38 71 f6 00       	mov    edi,0xf67138
  409fdf:	be 01 00 00 00       	mov    esi,0x1
  409fe4:	e8 77 3d 00 00       	call   40dd60 <_Z13allocate_timeP11gamestate_ti>
  409fe9:	01 05 79 d1 b5 00    	add    DWORD PTR [rip+0xb5d179],eax        # f67168 <gamestate+0x30>
  409fef:	bf 38 71 f6 00       	mov    edi,0xf67138
  409ff4:	be 01 00 00 00       	mov    esi,0x1
  409ff9:	e8 62 3d 00 00       	call   40dd60 <_Z13allocate_timeP11gamestate_ti>
  409ffe:	01 05 64 d1 b5 00    	add    DWORD PTR [rip+0xb5d164],eax        # f67168 <gamestate+0x30>
  40a004:	bf 38 71 f6 00       	mov    edi,0xf67138
  40a009:	be 01 00 00 00       	mov    esi,0x1
  40a00e:	e8 4d 3d 00 00       	call   40dd60 <_Z13allocate_timeP11gamestate_ti>
  40a013:	01 05 4f d1 b5 00    	add    DWORD PTR [rip+0xb5d14f],eax        # f67168 <gamestate+0x30>
  40a019:	bf 38 71 f6 00       	mov    edi,0xf67138
  40a01e:	be 01 00 00 00       	mov    esi,0x1
  40a023:	e8 38 3d 00 00       	call   40dd60 <_Z13allocate_timeP11gamestate_ti>
  40a028:	01 05 3a d1 b5 00    	add    DWORD PTR [rip+0xb5d13a],eax        # f67168 <gamestate+0x30>
  40a02e:	8b 05 2c d1 b5 00    	mov    eax,DWORD PTR [rip+0xb5d12c]        # f67160 <gamestate+0x28>
  40a034:	83 c0 ce             	add    eax,0xffffffce
  40a037:	89 04 24             	mov    DWORD PTR [rsp],eax
  40a03a:	48 89 e6             	mov    rsi,rsp
  40a03d:	bf 68 71 f6 00       	mov    edi,0xf67168
  40a042:	e8 29 86 ff ff       	call   402670 <_ZSt3minIiERKT_S2_S2_>
  40a047:	8b 00                	mov    eax,DWORD PTR [rax]
  40a049:	89 05 19 d1 b5 00    	mov    DWORD PTR [rip+0xb5d119],eax        # f67168 <gamestate+0x30>
  40a04f:	c7 05 db 5d b6 00 02 	mov    DWORD PTR [rip+0xb65ddb],0x2        # f6fe34 <gamestate+0x8cfc>
  40a056:	00 00 00 
  40a059:	e9 d9 fe ff ff       	jmp    409f37 <_ZL17search_time_checkP7state_t+0x37>
  40a05e:	83 3d cb 5d b6 00 01 	cmp    DWORD PTR [rip+0xb65dcb],0x1        # f6fe30 <gamestate+0x8cf8>
  40a065:	0f 85 bd fe ff ff    	jne    409f28 <_ZL17search_time_checkP7state_t+0x28>
  40a06b:	8b 05 fb d0 b5 00    	mov    eax,DWORD PTR [rip+0xb5d0fb]        # f6716c <gamestate+0x34>
  40a071:	0b 05 bd 5d b6 00    	or     eax,DWORD PTR [rip+0xb65dbd]        # f6fe34 <gamestate+0x8cfc>
  40a077:	0f 85 ab fe ff ff    	jne    409f28 <_ZL17search_time_checkP7state_t+0x28>
  40a07d:	8b 2d dd d0 b5 00    	mov    ebp,DWORD PTR [rip+0xb5d0dd]        # f67160 <gamestate+0x28>
  40a083:	8b 05 df d0 b5 00    	mov    eax,DWORD PTR [rip+0xb5d0df]        # f67168 <gamestate+0x30>
  40a089:	01 c0                	add    eax,eax
  40a08b:	8d 04 40             	lea    eax,[rax+rax*2]
  40a08e:	89 04 24             	mov    DWORD PTR [rsp],eax
  40a091:	c7 44 24 04 e8 03 00 	mov    DWORD PTR [rsp+0x4],0x3e8
  40a098:	00 
  40a099:	48 89 e7             	mov    rdi,rsp
  40a09c:	48 8d 74 24 04       	lea    rsi,[rsp+0x4]
  40a0a1:	e8 0a 31 00 00       	call   40d1b0 <_ZSt3maxIiERKT_S2_S2_>
  40a0a6:	3b 28                	cmp    ebp,DWORD PTR [rax]
  40a0a8:	0f 8e 7a fe ff ff    	jle    409f28 <_ZL17search_time_checkP7state_t+0x28>
  40a0ae:	c7 05 7c 5d b6 00 01 	mov    DWORD PTR [rip+0xb65d7c],0x1        # f6fe34 <gamestate+0x8cfc>
  40a0b5:	00 00 00 
  40a0b8:	bf 38 71 f6 00       	mov    edi,0xf67138
  40a0bd:	be 01 00 00 00       	mov    esi,0x1
  40a0c2:	e8 99 3c 00 00       	call   40dd60 <_Z13allocate_timeP11gamestate_ti>
  40a0c7:	01 05 9b d0 b5 00    	add    DWORD PTR [rip+0xb5d09b],eax        # f67168 <gamestate+0x30>
  40a0cd:	bf 38 71 f6 00       	mov    edi,0xf67138
  40a0d2:	be 01 00 00 00       	mov    esi,0x1
  40a0d7:	e8 84 3c 00 00       	call   40dd60 <_Z13allocate_timeP11gamestate_ti>
  40a0dc:	01 05 86 d0 b5 00    	add    DWORD PTR [rip+0xb5d086],eax        # f67168 <gamestate+0x30>
  40a0e2:	8b 05 78 d0 b5 00    	mov    eax,DWORD PTR [rip+0xb5d078]        # f67160 <gamestate+0x28>
  40a0e8:	83 c0 ce             	add    eax,0xffffffce
  40a0eb:	89 04 24             	mov    DWORD PTR [rsp],eax
  40a0ee:	48 89 e6             	mov    rsi,rsp
  40a0f1:	bf 68 71 f6 00       	mov    edi,0xf67168
  40a0f6:	e8 75 85 ff ff       	call   402670 <_ZSt3minIiERKT_S2_S2_>
  40a0fb:	8b 00                	mov    eax,DWORD PTR [rax]
  40a0fd:	89 05 65 d0 b5 00    	mov    DWORD PTR [rip+0xb5d065],eax        # f67168 <gamestate+0x30>
  40a103:	e9 2f fe ff ff       	jmp    409f37 <_ZL17search_time_checkP7state_t+0x37>
  40a108:	0f 1f 84 00 00 00 00 	nop    DWORD PTR [rax+rax*1+0x0]
  40a10f:	00 

000000000040a110 <_ZL16fast_order_movesP7state_tPiS1_ij>:
  40a110:	55                   	push   rbp
  40a111:	41 57                	push   r15
  40a113:	41 56                	push   r14
  40a115:	41 55                	push   r13
  40a117:	41 54                	push   r12
  40a119:	53                   	push   rbx
  40a11a:	50                   	push   rax
  40a11b:	48 89 3c 24          	mov    QWORD PTR [rsp],rdi
  40a11f:	85 c9                	test   ecx,ecx
  40a121:	0f 8e 5d 01 00 00    	jle    40a284 <_ZL16fast_order_movesP7state_tPiS1_ij+0x174>
  40a127:	45 89 c6             	mov    r14d,r8d
  40a12a:	49 89 d4             	mov    r12,rdx
  40a12d:	48 89 f5             	mov    rbp,rsi
  40a130:	41 89 cd             	mov    r13d,ecx
  40a133:	45 31 ff             	xor    r15d,r15d
  40a136:	e9 a5 00 00 00       	jmp    40a1e0 <_ZL16fast_order_movesP7state_tPiS1_ij+0xd0>
  40a13b:	42 8b 54 bd 00       	mov    edx,DWORD PTR [rbp+r15*4+0x0]
  40a140:	48 8b 3c 24          	mov    rdi,QWORD PTR [rsp]
  40a144:	48 63 b7 d8 01 00 00 	movsxd rsi,DWORD PTR [rdi+0x1d8]
  40a14b:	48 c1 e6 04          	shl    rsi,0x4
  40a14f:	b9 00 12 7a 00       	mov    ecx,0x7a1200
  40a154:	3b 94 37 f0 0b 00 00 	cmp    edx,DWORD PTR [rdi+rsi*1+0xbf0]
  40a15b:	0f 84 12 01 00 00    	je     40a273 <_ZL16fast_order_movesP7state_tPiS1_ij+0x163>
  40a161:	b9 c0 cf 6a 00       	mov    ecx,0x6acfc0
  40a166:	48 8b 3c 24          	mov    rdi,QWORD PTR [rsp]
  40a16a:	3b 94 37 f4 0b 00 00 	cmp    edx,DWORD PTR [rdi+rsi*1+0xbf4]
  40a171:	0f 84 fc 00 00 00    	je     40a273 <_ZL16fast_order_movesP7state_tPiS1_ij+0x163>
  40a177:	b9 80 8d 5b 00       	mov    ecx,0x5b8d80
  40a17c:	48 8b 3c 24          	mov    rdi,QWORD PTR [rsp]
  40a180:	3b 94 37 f8 0b 00 00 	cmp    edx,DWORD PTR [rdi+rsi*1+0xbf8]
  40a187:	0f 84 e6 00 00 00    	je     40a273 <_ZL16fast_order_movesP7state_tPiS1_ij+0x163>
  40a18d:	b9 40 4b 4c 00       	mov    ecx,0x4c4b40
  40a192:	48 8b 3c 24          	mov    rdi,QWORD PTR [rsp]
  40a196:	3b 94 37 fc 0b 00 00 	cmp    edx,DWORD PTR [rdi+rsi*1+0xbfc]
  40a19d:	0f 84 d0 00 00 00    	je     40a273 <_ZL16fast_order_movesP7state_tPiS1_ij+0x163>
  40a1a3:	83 e3 3f             	and    ebx,0x3f
  40a1a6:	89 c0                	mov    eax,eax
  40a1a8:	48 8b 14 24          	mov    rdx,QWORD PTR [rsp]
  40a1ac:	48 63 4c 82 04       	movsxd rcx,DWORD PTR [rdx+rax*4+0x4]
  40a1b1:	48 c1 e1 08          	shl    rcx,0x8
  40a1b5:	48 63 12             	movsxd rdx,DWORD PTR [rdx]
  40a1b8:	48 8d 14 52          	lea    rdx,[rdx+rdx*2]
  40a1bc:	48 c1 e2 0a          	shl    rdx,0xa
  40a1c0:	48 01 ca             	add    rdx,rcx
  40a1c3:	8b 8c 9a 60 9d f2 00 	mov    ecx,DWORD PTR [rdx+rbx*4+0xf29d60]
  40a1ca:	2b 8c 82 60 9d f2 00 	sub    ecx,DWORD PTR [rdx+rax*4+0xf29d60]
  40a1d1:	e9 9d 00 00 00       	jmp    40a273 <_ZL16fast_order_movesP7state_tPiS1_ij+0x163>
  40a1d6:	66 2e 0f 1f 84 00 00 	cs nop WORD PTR [rax+rax*1+0x0]
  40a1dd:	00 00 00 
  40a1e0:	42 8b 5c bd 00       	mov    ebx,DWORD PTR [rbp+r15*4+0x0]
  40a1e5:	89 df                	mov    edi,ebx
  40a1e7:	e8 14 3b 00 00       	call   40dd00 <_Z12compact_movei>
  40a1ec:	0f b7 c0             	movzx  eax,ax
  40a1ef:	b9 00 20 a1 07       	mov    ecx,0x7a12000
  40a1f4:	44 39 f0             	cmp    eax,r14d
  40a1f7:	74 7a                	je     40a273 <_ZL16fast_order_movesP7state_tPiS1_ij+0x163>
  40a1f9:	89 d8                	mov    eax,ebx
  40a1fb:	c1 e8 06             	shr    eax,0x6
  40a1fe:	83 e0 3f             	and    eax,0x3f
  40a201:	89 d9                	mov    ecx,ebx
  40a203:	c1 e9 13             	shr    ecx,0x13
  40a206:	83 e1 0f             	and    ecx,0xf
  40a209:	83 f9 0d             	cmp    ecx,0xd
  40a20c:	75 32                	jne    40a240 <_ZL16fast_order_movesP7state_tPiS1_ij+0x130>
  40a20e:	89 d9                	mov    ecx,ebx
  40a210:	c1 e9 0c             	shr    ecx,0xc
  40a213:	83 e1 0f             	and    ecx,0xf
  40a216:	0f 84 1f ff ff ff    	je     40a13b <_ZL16fast_order_movesP7state_tPiS1_ij+0x2b>
  40a21c:	8b 04 8d 00 08 41 00 	mov    eax,DWORD PTR [rcx*4+0x410800]
  40a223:	89 c1                	mov    ecx,eax
  40a225:	f7 d9                	neg    ecx
  40a227:	0f 4c c8             	cmovl  ecx,eax
  40a22a:	81 c1 40 54 89 00    	add    ecx,0x895440
  40a230:	eb 41                	jmp    40a273 <_ZL16fast_order_movesP7state_tPiS1_ij+0x163>
  40a232:	66 2e 0f 1f 84 00 00 	cs nop WORD PTR [rax+rax*1+0x0]
  40a239:	00 00 00 
  40a23c:	0f 1f 40 00          	nop    DWORD PTR [rax+0x0]
  40a240:	8b 0c 8d 00 08 41 00 	mov    ecx,DWORD PTR [rcx*4+0x410800]
  40a247:	89 ca                	mov    edx,ecx
  40a249:	f7 da                	neg    edx
  40a24b:	0f 4c d1             	cmovl  edx,ecx
  40a24e:	c1 e2 0c             	shl    edx,0xc
  40a251:	48 8b 0c 24          	mov    rcx,QWORD PTR [rsp]
  40a255:	48 63 44 81 04       	movsxd rax,DWORD PTR [rcx+rax*4+0x4]
  40a25a:	8b 04 85 00 08 41 00 	mov    eax,DWORD PTR [rax*4+0x410800]
  40a261:	89 c1                	mov    ecx,eax
  40a263:	f7 d9                	neg    ecx
  40a265:	85 c0                	test   eax,eax
  40a267:	0f 48 c8             	cmovs  ecx,eax
  40a26a:	8d 0c 0a             	lea    ecx,[rdx+rcx*1]
  40a26d:	81 c1 80 96 98 00    	add    ecx,0x989680
  40a273:	43 89 0c bc          	mov    DWORD PTR [r12+r15*4],ecx
  40a277:	49 83 c7 01          	add    r15,0x1
  40a27b:	4d 39 fd             	cmp    r13,r15
  40a27e:	0f 85 5c ff ff ff    	jne    40a1e0 <_ZL16fast_order_movesP7state_tPiS1_ij+0xd0>
  40a284:	48 83 c4 08          	add    rsp,0x8
  40a288:	5b                   	pop    rbx
  40a289:	41 5c                	pop    r12
  40a28b:	41 5d                	pop    r13
  40a28d:	41 5e                	pop    r14
  40a28f:	41 5f                	pop    r15
  40a291:	5d                   	pop    rbp
  40a292:	c3                   	ret    
  40a293:	66 2e 0f 1f 84 00 00 	cs nop WORD PTR [rax+rax*1+0x0]
  40a29a:	00 00 00 
  40a29d:	0f 1f 00             	nop    DWORD PTR [rax]

000000000040a2a0 <_ZL15remove_one_fastPiS_S_i>:
  40a2a0:	4c 63 07             	movsxd r8,DWORD PTR [rdi]
  40a2a3:	45 8d 48 01          	lea    r9d,[r8+0x1]
  40a2a7:	44 89 0f             	mov    DWORD PTR [rdi],r9d
  40a2aa:	31 c0                	xor    eax,eax
  40a2ac:	49 83 f8 08          	cmp    r8,0x8
  40a2b0:	7f 67                	jg     40a319 <_ZL15remove_one_fastPiS_S_i+0x79>
  40a2b2:	41 39 c9             	cmp    r9d,ecx
  40a2b5:	7d 61                	jge    40a318 <_ZL15remove_one_fastPiS_S_i+0x78>
  40a2b7:	53                   	push   rbx
  40a2b8:	4e 8d 1c 86          	lea    r11,[rsi+r8*4]
  40a2bc:	49 83 c3 04          	add    r11,0x4
  40a2c0:	41 8d 78 01          	lea    edi,[r8+0x1]
  40a2c4:	41 ba c0 bd f0 ff    	mov    r10d,0xfff0bdc0
  40a2ca:	66 0f 1f 44 00 00    	nop    WORD PTR [rax+rax*1+0x0]
  40a2d0:	41 8b 1b             	mov    ebx,DWORD PTR [r11]
  40a2d3:	44 39 d3             	cmp    ebx,r10d
  40a2d6:	44 0f 4d d3          	cmovge r10d,ebx
  40a2da:	44 0f 4f cf          	cmovg  r9d,edi
  40a2de:	49 83 c3 04          	add    r11,0x4
  40a2e2:	83 c7 01             	add    edi,0x1
  40a2e5:	39 f9                	cmp    ecx,edi
  40a2e7:	75 e7                	jne    40a2d0 <_ZL15remove_one_fastPiS_S_i+0x30>
  40a2e9:	41 81 fa c1 bd f0 ff 	cmp    r10d,0xfff0bdc1
  40a2f0:	5b                   	pop    rbx
  40a2f1:	7c 25                	jl     40a318 <_ZL15remove_one_fastPiS_S_i+0x78>
  40a2f3:	49 63 c1             	movsxd rax,r9d
  40a2f6:	42 8b 4c 86 04       	mov    ecx,DWORD PTR [rsi+r8*4+0x4]
  40a2fb:	89 0c 86             	mov    DWORD PTR [rsi+rax*4],ecx
  40a2fe:	46 89 54 86 04       	mov    DWORD PTR [rsi+r8*4+0x4],r10d
  40a303:	42 8b 4c 82 04       	mov    ecx,DWORD PTR [rdx+r8*4+0x4]
  40a308:	8b 34 82             	mov    esi,DWORD PTR [rdx+rax*4]
  40a30b:	42 89 74 82 04       	mov    DWORD PTR [rdx+r8*4+0x4],esi
  40a310:	89 0c 82             	mov    DWORD PTR [rdx+rax*4],ecx
  40a313:	b8 01 00 00 00       	mov    eax,0x1
  40a318:	c3                   	ret    
  40a319:	41 39 c9             	cmp    r9d,ecx
  40a31c:	0f 9c c0             	setl   al
  40a31f:	c3                   	ret    

000000000040a320 <_ZL15history_pre_cutP7state_tii>:
  40a320:	89 f0                	mov    eax,esi
  40a322:	c1 e8 06             	shr    eax,0x6
  40a325:	83 e0 3f             	and    eax,0x3f
  40a328:	48 63 44 87 04       	movsxd rax,DWORD PTR [rdi+rax*4+0x4]
  40a32d:	48 c1 e0 08          	shl    rax,0x8
  40a331:	83 e6 3f             	and    esi,0x3f
  40a334:	48 63 0f             	movsxd rcx,DWORD PTR [rdi]
  40a337:	48 8d 0c 49          	lea    rcx,[rcx+rcx*2]
  40a33b:	48 c1 e1 0a          	shl    rcx,0xa
  40a33f:	48 01 c1             	add    rcx,rax
  40a342:	8b 84 b1 60 fd f2 00 	mov    eax,DWORD PTR [rcx+rsi*4+0xf2fd60]
  40a349:	8b 8c b1 60 5d f3 00 	mov    ecx,DWORD PTR [rcx+rsi*4+0xf35d60]
  40a350:	29 c1                	sub    ecx,eax
  40a352:	0f af d0             	imul   edx,eax
  40a355:	31 c0                	xor    eax,eax
  40a357:	39 ca                	cmp    edx,ecx
  40a359:	0f 9c c0             	setl   al
  40a35c:	c3                   	ret    
  40a35d:	0f 1f 00             	nop    DWORD PTR [rax]

000000000040a360 <_Z6searchP7state_tiiiii>:
  40a360:	55                   	push   rbp
  40a361:	41 57                	push   r15
  40a363:	41 56                	push   r14
  40a365:	41 55                	push   r13
  40a367:	41 54                	push   r12
  40a369:	53                   	push   rbx
  40a36a:	48 81 ec f8 0b 00 00 	sub    rsp,0xbf8
  40a371:	89 d3                	mov    ebx,edx
  40a373:	89 f5                	mov    ebp,esi
  40a375:	49 89 fe             	mov    r14,rdi
  40a378:	85 c9                	test   ecx,ecx
  40a37a:	7e 0a                	jle    40a386 <_Z6searchP7state_tiiiii+0x26>
  40a37c:	41 83 be d8 01 00 00 	cmp    DWORD PTR [r14+0x1d8],0x3c
  40a383:	3c 
  40a384:	7c 16                	jl     40a39c <_Z6searchP7state_tiiiii+0x3c>
  40a386:	31 c9                	xor    ecx,ecx
  40a388:	45 31 c0             	xor    r8d,r8d
  40a38b:	4c 89 f7             	mov    rdi,r14
  40a38e:	89 ee                	mov    esi,ebp
  40a390:	89 da                	mov    edx,ebx
  40a392:	e8 c9 f3 ff ff       	call   409760 <_Z7qsearchP7state_tiiii>
  40a397:	41 89 c5             	mov    r13d,eax
  40a39a:	eb 5a                	jmp    40a3f6 <_Z6searchP7state_tiiiii+0x96>
  40a39c:	45 89 cd             	mov    r13d,r9d
  40a39f:	45 89 c7             	mov    r15d,r8d
  40a3a2:	41 89 cc             	mov    r12d,ecx
  40a3a5:	49 83 86 f0 0f 00 00 	add    QWORD PTR [r14+0xff0],0x1
  40a3ac:	01 
  40a3ad:	4c 89 f7             	mov    rdi,r14
  40a3b0:	e8 4b fb ff ff       	call   409f00 <_ZL17search_time_checkP7state_t>
  40a3b5:	85 c0                	test   eax,eax
  40a3b7:	74 05                	je     40a3be <_Z6searchP7state_tiiiii+0x5e>
  40a3b9:	45 31 ed             	xor    r13d,r13d
  40a3bc:	eb 38                	jmp    40a3f6 <_Z6searchP7state_tiiiii+0x96>
  40a3be:	bf 38 71 f6 00       	mov    edi,0xf67138
  40a3c3:	4c 89 f6             	mov    rsi,r14
  40a3c6:	e8 d5 85 ff ff       	call   4029a0 <_Z7is_drawP11gamestate_tP7state_t>
  40a3cb:	85 c0                	test   eax,eax
  40a3cd:	75 0a                	jne    40a3d9 <_Z6searchP7state_tiiiii+0x79>
  40a3cf:	41 83 be dc 01 00 00 	cmp    DWORD PTR [r14+0x1dc],0x64
  40a3d6:	64 
  40a3d7:	7c 32                	jl     40a40b <_Z6searchP7state_tiiiii+0xab>
  40a3d9:	8b 05 65 cd b5 00    	mov    eax,DWORD PTR [rip+0xb5cd65]        # f67144 <gamestate+0xc>
  40a3df:	8b 0d cb 9c b5 00    	mov    ecx,DWORD PTR [rip+0xb59ccb]        # f640b0 <contempt>
  40a3e5:	41 89 cd             	mov    r13d,ecx
  40a3e8:	41 f7 dd             	neg    r13d
  40a3eb:	41 3b 86 cc 01 00 00 	cmp    eax,DWORD PTR [r14+0x1cc]
  40a3f2:	44 0f 44 e9          	cmove  r13d,ecx
  40a3f6:	44 89 e8             	mov    eax,r13d
  40a3f9:	48 81 c4 f8 0b 00 00 	add    rsp,0xbf8
  40a400:	5b                   	pop    rbx
  40a401:	41 5c                	pop    r12
  40a403:	41 5d                	pop    r13
  40a405:	41 5e                	pop    r14
  40a407:	41 5f                	pop    r15
  40a409:	5d                   	pop    rbp
  40a40a:	c3                   	ret    
  40a40b:	44 89 6c 24 30       	mov    DWORD PTR [rsp+0x30],r13d
  40a410:	41 8b 86 d8 01 00 00 	mov    eax,DWORD PTR [r14+0x1d8]
  40a417:	44 8d a8 00 83 ff ff 	lea    r13d,[rax-0x7d00]
  40a41e:	48 89 6c 24 38       	mov    QWORD PTR [rsp+0x38],rbp
  40a423:	41 39 ed             	cmp    r13d,ebp
  40a426:	7e 0d                	jle    40a435 <_Z6searchP7state_tiiiii+0xd5>
  40a428:	44 89 e9             	mov    ecx,r13d
  40a42b:	48 89 4c 24 38       	mov    QWORD PTR [rsp+0x38],rcx
  40a430:	41 39 dd             	cmp    r13d,ebx
  40a433:	7d c1                	jge    40a3f6 <_Z6searchP7state_tiiiii+0x96>
  40a435:	41 bd ff 7c 00 00    	mov    r13d,0x7cff
  40a43b:	41 29 c5             	sub    r13d,eax
  40a43e:	41 39 dd             	cmp    r13d,ebx
  40a441:	7d 0a                	jge    40a44d <_Z6searchP7state_tiiiii+0xed>
  40a443:	44 89 eb             	mov    ebx,r13d
  40a446:	44 3b 6c 24 38       	cmp    r13d,DWORD PTR [rsp+0x38]
  40a44b:	7e a9                	jle    40a3f6 <_Z6searchP7state_tiiiii+0x96>
  40a44d:	48 8d 44 24 14       	lea    rax,[rsp+0x14]
  40a452:	4c 8d 5c 24 0c       	lea    r11,[rsp+0xc]
  40a457:	4c 8d 94 24 a4 00 00 	lea    r10,[rsp+0xa4]
  40a45e:	00 
  40a45f:	48 8d 74 24 74       	lea    rsi,[rsp+0x74]
  40a464:	4c 8d 44 24 1c       	lea    r8,[rsp+0x1c]
  40a469:	4c 8d 4c 24 10       	lea    r9,[rsp+0x10]
  40a46e:	4c 89 f7             	mov    rdi,r14
  40a471:	48 8b 6c 24 38       	mov    rbp,QWORD PTR [rsp+0x38]
  40a476:	89 ea                	mov    edx,ebp
  40a478:	89 d9                	mov    ecx,ebx
  40a47a:	41 54                	push   r12
  40a47c:	50                   	push   rax
  40a47d:	41 53                	push   r11
  40a47f:	41 52                	push   r10
  40a481:	e8 6a 35 00 00       	call   40d9f0 <_Z7ProbeTTP7state_tPiiiPjS1_S1_S1_S1_i>
  40a486:	48 83 c4 20          	add    rsp,0x20
  40a48a:	83 f8 04             	cmp    eax,0x4
  40a48d:	77 79                	ja     40a508 <_Z6searchP7state_tiiiii+0x1a8>
  40a48f:	89 c0                	mov    eax,eax
  40a491:	ff 24 c5 c0 13 41 00 	jmp    QWORD PTR [rax*8+0x4113c0]
  40a498:	39 5c 24 74          	cmp    DWORD PTR [rsp+0x74],ebx
  40a49c:	b8 01 00 00 00       	mov    eax,0x1
  40a4a1:	8b 4c 24 30          	mov    ecx,DWORD PTR [rsp+0x30]
  40a4a5:	0f 4d c8             	cmovge ecx,eax
  40a4a8:	89 4c 24 30          	mov    DWORD PTR [rsp+0x30],ecx
  40a4ac:	eb 5a                	jmp    40a508 <_Z6searchP7state_tiiiii+0x1a8>
  40a4ae:	44 8b 6c 24 74       	mov    r13d,DWORD PTR [rsp+0x74]
  40a4b3:	c7 44 24 30 00 00 00 	mov    DWORD PTR [rsp+0x30],0x0
  40a4ba:	00 
  40a4bb:	41 39 ed             	cmp    r13d,ebp
  40a4be:	0f 8e 32 ff ff ff    	jle    40a3f6 <_Z6searchP7state_tiiiii+0x96>
  40a4c4:	eb 42                	jmp    40a508 <_Z6searchP7state_tiiiii+0x1a8>
  40a4c6:	44 8b 6c 24 74       	mov    r13d,DWORD PTR [rsp+0x74]
  40a4cb:	c7 44 24 30 01 00 00 	mov    DWORD PTR [rsp+0x30],0x1
  40a4d2:	00 
  40a4d3:	41 39 dd             	cmp    r13d,ebx
  40a4d6:	0f 8d 1a ff ff ff    	jge    40a3f6 <_Z6searchP7state_tiiiii+0x96>
  40a4dc:	eb 2a                	jmp    40a508 <_Z6searchP7state_tiiiii+0x1a8>
  40a4de:	44 8b 6c 24 74       	mov    r13d,DWORD PTR [rsp+0x74]
  40a4e3:	e9 0e ff ff ff       	jmp    40a3f6 <_Z6searchP7state_tiiiii+0x96>
  40a4e8:	c7 44 24 1c ff ff 00 	mov    DWORD PTR [rsp+0x1c],0xffff
  40a4ef:	00 
  40a4f0:	c7 44 24 10 00 00 00 	mov    DWORD PTR [rsp+0x10],0x0
  40a4f7:	00 
  40a4f8:	c7 44 24 0c 00 00 00 	mov    DWORD PTR [rsp+0xc],0x0
  40a4ff:	00 
  40a500:	c7 44 24 14 00 00 00 	mov    DWORD PTR [rsp+0x14],0x0
  40a507:	00 
  40a508:	49 63 86 d8 01 00 00 	movsxd rax,DWORD PTR [r14+0x1d8]
  40a50f:	45 8b ac 86 04 10 00 	mov    r13d,DWORD PTR [r14+rax*4+0x1004]
  40a516:	00 
  40a517:	4c 89 f7             	mov    rdi,r14
  40a51a:	e8 a1 e3 ff ff       	call   4088c0 <_Z13retrieve_evalP7state_t>
  40a51f:	89 c5                	mov    ebp,eax
  40a521:	48 8b 54 24 38       	mov    rdx,QWORD PTR [rsp+0x38]
  40a526:	8d 42 01             	lea    eax,[rdx+0x1]
  40a529:	89 44 24 4c          	mov    DWORD PTR [rsp+0x4c],eax
  40a52d:	39 c3                	cmp    ebx,eax
  40a52f:	75 3a                	jne    40a56b <_Z6searchP7state_tiiiii+0x20b>
  40a531:	45 85 ed             	test   r13d,r13d
  40a534:	75 35                	jne    40a56b <_Z6searchP7state_tiiiii+0x20b>
  40a536:	41 83 fc 04          	cmp    r12d,0x4
  40a53a:	7f 1e                	jg     40a55a <_Z6searchP7state_tiiiii+0x1fa>
  40a53c:	8d 75 b5             	lea    esi,[rbp-0x4b]
  40a53f:	39 de                	cmp    esi,ebx
  40a541:	0f 8d 91 01 00 00    	jge    40a6d8 <_Z6searchP7state_tiiiii+0x378>
  40a547:	39 dd                	cmp    ebp,ebx
  40a549:	7d 20                	jge    40a56b <_Z6searchP7state_tiiiii+0x20b>
  40a54b:	31 c9                	xor    ecx,ecx
  40a54d:	45 31 c0             	xor    r8d,r8d
  40a550:	4c 89 f7             	mov    rdi,r14
  40a553:	89 d6                	mov    esi,edx
  40a555:	e9 36 fe ff ff       	jmp    40a390 <_Z6searchP7state_tiiiii+0x30>
  40a55a:	41 83 fc 08          	cmp    r12d,0x8
  40a55e:	7f 0b                	jg     40a56b <_Z6searchP7state_tiiiii+0x20b>
  40a560:	8d 75 83             	lea    esi,[rbp-0x7d]
  40a563:	39 de                	cmp    esi,ebx
  40a565:	0f 8d 6d 01 00 00    	jge    40a6d8 <_Z6searchP7state_tiiiii+0x378>
  40a56b:	41 8b 8e ac 01 00 00 	mov    ecx,DWORD PTR [r14+0x1ac]
  40a572:	41 8b 86 b0 01 00 00 	mov    eax,DWORD PTR [r14+0x1b0]
  40a579:	41 03 8e b4 01 00 00 	add    ecx,DWORD PTR [r14+0x1b4]
  40a580:	41 03 8e bc 01 00 00 	add    ecx,DWORD PTR [r14+0x1bc]
  40a587:	41 03 8e 9c 01 00 00 	add    ecx,DWORD PTR [r14+0x19c]
  40a58e:	89 4c 24 70          	mov    DWORD PTR [rsp+0x70],ecx
  40a592:	41 03 86 b8 01 00 00 	add    eax,DWORD PTR [r14+0x1b8]
  40a599:	41 03 86 c0 01 00 00 	add    eax,DWORD PTR [r14+0x1c0]
  40a5a0:	41 03 86 a0 01 00 00 	add    eax,DWORD PTR [r14+0x1a0]
  40a5a7:	89 84 24 84 00 00 00 	mov    DWORD PTR [rsp+0x84],eax
  40a5ae:	c7 44 24 10 00 00 00 	mov    DWORD PTR [rsp+0x10],0x0
  40a5b5:	00 
  40a5b6:	45 85 ff             	test   r15d,r15d
  40a5b9:	48 89 5c 24 20       	mov    QWORD PTR [rsp+0x20],rbx
  40a5be:	44 89 6c 24 68       	mov    DWORD PTR [rsp+0x68],r13d
  40a5c3:	0f 84 8e 00 00 00    	je     40a657 <_Z6searchP7state_tiiiii+0x2f7>
  40a5c9:	41 83 fc 0c          	cmp    r12d,0xc
  40a5cd:	0f 8f 73 01 00 00    	jg     40a746 <_Z6searchP7state_tiiiii+0x3e6>
  40a5d3:	3b 5c 24 4c          	cmp    ebx,DWORD PTR [rsp+0x4c]
  40a5d7:	0f 85 69 01 00 00    	jne    40a746 <_Z6searchP7state_tiiiii+0x3e6>
  40a5dd:	8d 83 d4 fe ff ff    	lea    eax,[rbx-0x12c]
  40a5e3:	39 c5                	cmp    ebp,eax
  40a5e5:	0f 8d 5b 01 00 00    	jge    40a746 <_Z6searchP7state_tiiiii+0x3e6>
  40a5eb:	48 89 d6             	mov    rsi,rdx
  40a5ee:	45 31 ed             	xor    r13d,r13d
  40a5f1:	31 c9                	xor    ecx,ecx
  40a5f3:	45 31 c0             	xor    r8d,r8d
  40a5f6:	4c 89 f7             	mov    rdi,r14
  40a5f9:	89 da                	mov    edx,ebx
  40a5fb:	e8 60 f1 ff ff       	call   409760 <_Z7qsearchP7state_tiiii>
  40a600:	83 3d 31 58 b6 00 00 	cmp    DWORD PTR [rip+0xb65831],0x0        # f6fe38 <gamestate+0x8d00>
  40a607:	0f 85 e9 fd ff ff    	jne    40a3f6 <_Z6searchP7state_tiiiii+0x96>
  40a60d:	4c 8b 7c 24 38       	mov    r15,QWORD PTR [rsp+0x38]
  40a612:	44 39 f8             	cmp    eax,r15d
  40a615:	44 8b 6c 24 68       	mov    r13d,DWORD PTR [rsp+0x68]
  40a61a:	0f 8f 26 01 00 00    	jg     40a746 <_Z6searchP7state_tiiiii+0x3e6>
  40a620:	48 89 d9             	mov    rcx,rbx
  40a623:	44 8b 44 24 1c       	mov    r8d,DWORD PTR [rsp+0x1c]
  40a628:	44 8b 4c 24 10       	mov    r9d,DWORD PTR [rsp+0x10]
  40a62d:	8b 44 24 0c          	mov    eax,DWORD PTR [rsp+0xc]
  40a631:	8b 5c 24 14          	mov    ebx,DWORD PTR [rsp+0x14]
  40a635:	48 83 ec 08          	sub    rsp,0x8
  40a639:	4c 89 f7             	mov    rdi,r14
  40a63c:	44 89 fe             	mov    esi,r15d
  40a63f:	44 89 fa             	mov    edx,r15d
  40a642:	41 54                	push   r12
  40a644:	53                   	push   rbx
  40a645:	50                   	push   rax
  40a646:	e8 a5 31 00 00       	call   40d7f0 <_Z7StoreTTP7state_tiiijiiii>
  40a64b:	48 83 c4 20          	add    rsp,0x20
  40a64f:	45 89 fd             	mov    r13d,r15d
  40a652:	e9 9f fd ff ff       	jmp    40a3f6 <_Z6searchP7state_tiiiii+0x96>
  40a657:	41 83 be cc 01 00 00 	cmp    DWORD PTR [r14+0x1cc],0x0
  40a65e:	00 
  40a65f:	8b 44 24 70          	mov    eax,DWORD PTR [rsp+0x70]
  40a663:	0f 44 84 24 84 00 00 	cmove  eax,DWORD PTR [rsp+0x84]
  40a66a:	00 
  40a66b:	41 83 fc 05          	cmp    r12d,0x5
  40a66f:	0f 8c 54 ff ff ff    	jl     40a5c9 <_Z6searchP7state_tiiiii+0x269>
  40a675:	3b 5c 24 4c          	cmp    ebx,DWORD PTR [rsp+0x4c]
  40a679:	0f 85 4a ff ff ff    	jne    40a5c9 <_Z6searchP7state_tiiiii+0x269>
  40a67f:	8b 8c 24 a4 00 00 00 	mov    ecx,DWORD PTR [rsp+0xa4]
  40a686:	85 c9                	test   ecx,ecx
  40a688:	0f 84 3b ff ff ff    	je     40a5c9 <_Z6searchP7state_tiiiii+0x269>
  40a68e:	45 85 ed             	test   r13d,r13d
  40a691:	0f 85 32 ff ff ff    	jne    40a5c9 <_Z6searchP7state_tiiiii+0x269>
  40a697:	85 c0                	test   eax,eax
  40a699:	0f 84 2a ff ff ff    	je     40a5c9 <_Z6searchP7state_tiiiii+0x269>
  40a69f:	b8 00 83 ff ff       	mov    eax,0xffff8300
  40a6a4:	83 3d 91 ca b5 00 02 	cmp    DWORD PTR [rip+0xb5ca91],0x2        # f6713c <gamestate+0x4>
  40a6ab:	0f 85 80 00 00 00    	jne    40a731 <_Z6searchP7state_tiiiii+0x3d1>
  40a6b1:	8d 73 ff             	lea    esi,[rbx-0x1]
  40a6b4:	41 83 fc 18          	cmp    r12d,0x18
  40a6b8:	7f 50                	jg     40a70a <_Z6searchP7state_tiiiii+0x3aa>
  40a6ba:	31 c9                	xor    ecx,ecx
  40a6bc:	45 31 c0             	xor    r8d,r8d
  40a6bf:	4c 89 f7             	mov    rdi,r14
  40a6c2:	89 da                	mov    edx,ebx
  40a6c4:	e8 97 f0 ff ff       	call   409760 <_Z7qsearchP7state_tiiii>
  40a6c9:	83 3d 68 57 b6 00 00 	cmp    DWORD PTR [rip+0xb65768],0x0        # f6fe38 <gamestate+0x8d00>
  40a6d0:	0f 85 e3 fc ff ff    	jne    40a3b9 <_Z6searchP7state_tiiiii+0x59>
  40a6d6:	eb 59                	jmp    40a731 <_Z6searchP7state_tiiiii+0x3d1>
  40a6d8:	44 8b 44 24 1c       	mov    r8d,DWORD PTR [rsp+0x1c]
  40a6dd:	44 8b 4c 24 10       	mov    r9d,DWORD PTR [rsp+0x10]
  40a6e2:	44 8b 54 24 0c       	mov    r10d,DWORD PTR [rsp+0xc]
  40a6e7:	8b 44 24 14          	mov    eax,DWORD PTR [rsp+0x14]
  40a6eb:	48 83 ec 08          	sub    rsp,0x8
  40a6ef:	4c 89 f7             	mov    rdi,r14
  40a6f2:	89 d9                	mov    ecx,ebx
  40a6f4:	41 54                	push   r12
  40a6f6:	50                   	push   rax
  40a6f7:	41 52                	push   r10
  40a6f9:	e8 f2 30 00 00       	call   40d7f0 <_Z7StoreTTP7state_tiiijiiii>
  40a6fe:	48 83 c4 20          	add    rsp,0x20
  40a702:	41 89 ed             	mov    r13d,ebp
  40a705:	e9 ec fc ff ff       	jmp    40a3f6 <_Z6searchP7state_tiiiii+0x96>
  40a70a:	41 8d 4c 24 e8       	lea    ecx,[r12-0x18]
  40a70f:	41 b8 01 00 00 00    	mov    r8d,0x1
  40a715:	4c 89 f7             	mov    rdi,r14
  40a718:	89 da                	mov    edx,ebx
  40a71a:	44 8b 4c 24 30       	mov    r9d,DWORD PTR [rsp+0x30]
  40a71f:	e8 3c fc ff ff       	call   40a360 <_Z6searchP7state_tiiiii>
  40a724:	83 3d 0d 57 b6 00 00 	cmp    DWORD PTR [rip+0xb6570d],0x0        # f6fe38 <gamestate+0x8d00>
  40a72b:	0f 85 88 fc ff ff    	jne    40a3b9 <_Z6searchP7state_tiiiii+0x59>
  40a731:	39 d8                	cmp    eax,ebx
  40a733:	0f 8d bb 01 00 00    	jge    40a8f4 <_Z6searchP7state_tiiiii+0x594>
  40a739:	83 3d fc c9 b5 00 02 	cmp    DWORD PTR [rip+0xb5c9fc],0x2        # f6713c <gamestate+0x4>
  40a740:	0f 85 ae 01 00 00    	jne    40a8f4 <_Z6searchP7state_tiiiii+0x594>
  40a746:	48 89 ac 24 88 00 00 	mov    QWORD PTR [rsp+0x88],rbp
  40a74d:	00 
  40a74e:	48 8d b4 24 b0 00 00 	lea    rsi,[rsp+0xb0]
  40a755:	00 
  40a756:	4c 89 f7             	mov    rdi,r14
  40a759:	45 85 ed             	test   r13d,r13d
  40a75c:	74 77                	je     40a7d5 <_Z6searchP7state_tiiiii+0x475>
  40a75e:	44 89 ea             	mov    edx,r13d
  40a761:	e8 ea b6 ff ff       	call   405e50 <_Z12gen_evasionsP7state_tPii>
  40a766:	45 31 ed             	xor    r13d,r13d
  40a769:	85 c0                	test   eax,eax
  40a76b:	74 74                	je     40a7e1 <_Z6searchP7state_tiiiii+0x481>
  40a76d:	89 c3                	mov    ebx,eax
  40a76f:	c7 44 24 04 00 00 00 	mov    DWORD PTR [rsp+0x4],0x0
  40a776:	00 
  40a777:	7e 6a                	jle    40a7e3 <_Z6searchP7state_tiiiii+0x483>
  40a779:	45 31 ed             	xor    r13d,r13d
  40a77c:	31 c0                	xor    eax,eax
  40a77e:	48 98                	cdqe   
  40a780:	8b b4 84 b0 00 00 00 	mov    esi,DWORD PTR [rsp+rax*4+0xb0]
  40a787:	4c 89 f7             	mov    rdi,r14
  40a78a:	e8 21 b8 ff ff       	call   405fb0 <_Z4makeP7state_ti>
  40a78f:	48 63 44 24 04       	movsxd rax,DWORD PTR [rsp+0x4]
  40a794:	8b b4 84 b0 00 00 00 	mov    esi,DWORD PTR [rsp+rax*4+0xb0]
  40a79b:	4c 89 f7             	mov    rdi,r14
  40a79e:	e8 dd c2 ff ff       	call   406a80 <_Z11check_legalP7state_ti>
  40a7a3:	83 f8 01             	cmp    eax,0x1
  40a7a6:	41 83 dd ff          	sbb    r13d,0xffffffff
  40a7aa:	48 63 44 24 04       	movsxd rax,DWORD PTR [rsp+0x4]
  40a7af:	8b b4 84 b0 00 00 00 	mov    esi,DWORD PTR [rsp+rax*4+0xb0]
  40a7b6:	4c 89 f7             	mov    rdi,r14
  40a7b9:	e8 02 bf ff ff       	call   4066c0 <_Z6unmakeP7state_ti>
  40a7be:	8b 44 24 04          	mov    eax,DWORD PTR [rsp+0x4]
  40a7c2:	83 c0 01             	add    eax,0x1
  40a7c5:	89 44 24 04          	mov    DWORD PTR [rsp+0x4],eax
  40a7c9:	39 d8                	cmp    eax,ebx
  40a7cb:	7d 16                	jge    40a7e3 <_Z6searchP7state_tiiiii+0x483>
  40a7cd:	41 83 fd 02          	cmp    r13d,0x2
  40a7d1:	72 ab                	jb     40a77e <_Z6searchP7state_tiiiii+0x41e>
  40a7d3:	eb 0e                	jmp    40a7e3 <_Z6searchP7state_tiiiii+0x483>
  40a7d5:	e8 96 a0 ff ff       	call   404870 <_Z3genP7state_tPi>
  40a7da:	89 c3                	mov    ebx,eax
  40a7dc:	41 89 c5             	mov    r13d,eax
  40a7df:	eb 02                	jmp    40a7e3 <_Z6searchP7state_tiiiii+0x483>
  40a7e1:	31 db                	xor    ebx,ebx
  40a7e3:	44 8b 44 24 1c       	mov    r8d,DWORD PTR [rsp+0x1c]
  40a7e8:	48 8d b4 24 b0 00 00 	lea    rsi,[rsp+0xb0]
  40a7ef:	00 
  40a7f0:	48 8d 94 24 70 04 00 	lea    rdx,[rsp+0x470]
  40a7f7:	00 
  40a7f8:	4c 89 f7             	mov    rdi,r14
  40a7fb:	89 d9                	mov    ecx,ebx
  40a7fd:	e8 0e 10 00 00       	call   40b810 <_ZL11order_movesP7state_tPiS1_ij>
  40a802:	41 83 fc 14          	cmp    r12d,0x14
  40a806:	89 5c 24 08          	mov    DWORD PTR [rsp+0x8],ebx
  40a80a:	0f 8c 96 01 00 00    	jl     40a9a6 <_Z6searchP7state_tiiiii+0x646>
  40a810:	8b 44 24 4c          	mov    eax,DWORD PTR [rsp+0x4c]
  40a814:	39 44 24 20          	cmp    DWORD PTR [rsp+0x20],eax
  40a818:	0f 84 88 01 00 00    	je     40a9a6 <_Z6searchP7state_tiiiii+0x646>
  40a81e:	81 7c 24 1c ff ff 00 	cmp    DWORD PTR [rsp+0x1c],0xffff
  40a825:	00 
  40a826:	0f 85 7a 01 00 00    	jne    40a9a6 <_Z6searchP7state_tiiiii+0x646>
  40a82c:	c7 44 24 04 00 00 00 	mov    DWORD PTR [rsp+0x4],0x0
  40a833:	00 
  40a834:	85 db                	test   ebx,ebx
  40a836:	7e 5c                	jle    40a894 <_Z6searchP7state_tiiiii+0x534>
  40a838:	89 d8                	mov    eax,ebx
  40a83a:	31 c9                	xor    ecx,ecx
  40a83c:	41 b8 01 00 00 00    	mov    r8d,0x1
  40a842:	31 d2                	xor    edx,edx
  40a844:	8b 9c 8c b0 00 00 00 	mov    ebx,DWORD PTR [rsp+rcx*4+0xb0]
  40a84b:	89 df                	mov    edi,ebx
  40a84d:	c1 ef 13             	shr    edi,0x13
  40a850:	83 e7 0f             	and    edi,0xf
  40a853:	83 ff 0d             	cmp    edi,0xd
  40a856:	74 23                	je     40a87b <_Z6searchP7state_tiiiii+0x51b>
  40a858:	48 c1 eb 04          	shr    rbx,0x4
  40a85c:	81 e3 fc 00 00 00    	and    ebx,0xfc
  40a862:	49 63 5c 1e 04       	movsxd rbx,DWORD PTR [r14+rbx*1+0x4]
  40a867:	8b 34 9d 00 08 41 00 	mov    esi,DWORD PTR [rbx*4+0x410800]
  40a86e:	89 f3                	mov    ebx,esi
  40a870:	f7 db                	neg    ebx
  40a872:	0f 4c de             	cmovl  ebx,esi
  40a875:	39 df                	cmp    edi,ebx
  40a877:	41 0f 4f d0          	cmovg  edx,r8d
  40a87b:	48 83 c1 01          	add    rcx,0x1
  40a87f:	48 39 c8             	cmp    rax,rcx
  40a882:	75 c0                	jne    40a844 <_Z6searchP7state_tiiiii+0x4e4>
  40a884:	8b 5c 24 08          	mov    ebx,DWORD PTR [rsp+0x8]
  40a888:	89 5c 24 04          	mov    DWORD PTR [rsp+0x4],ebx
  40a88c:	85 d2                	test   edx,edx
  40a88e:	0f 85 12 01 00 00    	jne    40a9a6 <_Z6searchP7state_tiiiii+0x646>
  40a894:	44 89 e1             	mov    ecx,r12d
  40a897:	d1 f9                	sar    ecx,1
  40a899:	45 31 c0             	xor    r8d,r8d
  40a89c:	4c 89 f7             	mov    rdi,r14
  40a89f:	48 8b 74 24 38       	mov    rsi,QWORD PTR [rsp+0x38]
  40a8a4:	48 8b 54 24 20       	mov    rdx,QWORD PTR [rsp+0x20]
  40a8a9:	44 8b 4c 24 30       	mov    r9d,DWORD PTR [rsp+0x30]
  40a8ae:	e8 ad fa ff ff       	call   40a360 <_Z6searchP7state_tiiiii>
  40a8b3:	48 8d b4 24 30 08 00 	lea    rsi,[rsp+0x830]
  40a8ba:	00 
  40a8bb:	4c 8d 84 24 a0 00 00 	lea    r8,[rsp+0xa0]
  40a8c2:	00 
  40a8c3:	ba 00 00 00 00       	mov    edx,0x0
  40a8c8:	b9 00 00 00 00       	mov    ecx,0x0
  40a8cd:	4c 89 f7             	mov    rdi,r14
  40a8d0:	49 89 f1             	mov    r9,rsi
  40a8d3:	6a 00                	push   0x0
  40a8d5:	56                   	push   rsi
  40a8d6:	56                   	push   rsi
  40a8d7:	56                   	push   rsi
  40a8d8:	e8 13 31 00 00       	call   40d9f0 <_Z7ProbeTTP7state_tPiiiPjS1_S1_S1_S1_i>
  40a8dd:	48 83 c4 20          	add    rsp,0x20
  40a8e1:	83 f8 04             	cmp    eax,0x4
  40a8e4:	0f 85 9a 00 00 00    	jne    40a984 <_Z6searchP7state_tiiiii+0x624>
  40a8ea:	44 8b 44 24 1c       	mov    r8d,DWORD PTR [rsp+0x1c]
  40a8ef:	e9 98 00 00 00       	jmp    40a98c <_Z6searchP7state_tiiiii+0x62c>
  40a8f4:	45 8b be c8 01 00 00 	mov    r15d,DWORD PTR [r14+0x1c8]
  40a8fb:	41 c7 86 c8 01 00 00 	mov    DWORD PTR [r14+0x1c8],0x0
  40a902:	00 00 00 00 
  40a906:	41 80 b6 cc 01 00 00 	xor    BYTE PTR [r14+0x1cc],0x1
  40a90d:	01 
  40a90e:	49 63 86 d8 01 00 00 	movsxd rax,DWORD PTR [r14+0x1d8]
  40a915:	8d 48 01             	lea    ecx,[rax+0x1]
  40a918:	41 89 8e d8 01 00 00 	mov    DWORD PTR [r14+0x1d8],ecx
  40a91f:	41 83 86 dc 01 00 00 	add    DWORD PTR [r14+0x1dc],0x1
  40a926:	01 
  40a927:	41 c7 84 86 f0 09 00 	mov    DWORD PTR [r14+rax*4+0x9f0],0x0
  40a92e:	00 00 00 00 00 
  40a933:	49 63 86 d8 01 00 00 	movsxd rax,DWORD PTR [r14+0x1d8]
  40a93a:	41 c7 84 86 04 10 00 	mov    DWORD PTR [r14+rax*4+0x1004],0x0
  40a941:	00 00 00 00 00 
  40a946:	49 63 86 d8 01 00 00 	movsxd rax,DWORD PTR [r14+0x1d8]
  40a94d:	41 8b 8c 86 ec 0a 00 	mov    ecx,DWORD PTR [r14+rax*4+0xaec]
  40a954:	00 
  40a955:	41 89 8c 86 f0 0a 00 	mov    DWORD PTR [r14+rax*4+0xaf0],ecx
  40a95c:	00 
  40a95d:	89 de                	mov    esi,ebx
  40a95f:	f7 de                	neg    esi
  40a961:	ba 01 00 00 00       	mov    edx,0x1
  40a966:	29 da                	sub    edx,ebx
  40a968:	41 83 fc 10          	cmp    r12d,0x10
  40a96c:	0f 8f e7 06 00 00    	jg     40b059 <_Z6searchP7state_tiiiii+0xcf9>
  40a972:	31 c9                	xor    ecx,ecx
  40a974:	45 31 c0             	xor    r8d,r8d
  40a977:	4c 89 f7             	mov    rdi,r14
  40a97a:	e8 e1 ed ff ff       	call   409760 <_Z7qsearchP7state_tiiii>
  40a97f:	e9 f4 06 00 00       	jmp    40b078 <_Z6searchP7state_tiiiii+0xd18>
  40a984:	44 8b 84 24 a0 00 00 	mov    r8d,DWORD PTR [rsp+0xa0]
  40a98b:	00 
  40a98c:	48 8d b4 24 b0 00 00 	lea    rsi,[rsp+0xb0]
  40a993:	00 
  40a994:	48 8d 94 24 70 04 00 	lea    rdx,[rsp+0x470]
  40a99b:	00 
  40a99c:	4c 89 f7             	mov    rdi,r14
  40a99f:	89 d9                	mov    ecx,ebx
  40a9a1:	e8 6a 0e 00 00       	call   40b810 <_ZL11order_movesP7state_tPiS1_ij>
  40a9a6:	c7 44 24 2c 00 83 ff 	mov    DWORD PTR [rsp+0x2c],0xffff8300
  40a9ad:	ff 
  40a9ae:	41 83 fd 09          	cmp    r13d,0x9
  40a9b2:	7c 26                	jl     40a9da <_Z6searchP7state_tiiiii+0x67a>
  40a9b4:	41 83 fc 10          	cmp    r12d,0x10
  40a9b8:	7c 20                	jl     40a9da <_Z6searchP7state_tiiiii+0x67a>
  40a9ba:	8b 44 24 10          	mov    eax,DWORD PTR [rsp+0x10]
  40a9be:	0b 44 24 68          	or     eax,DWORD PTR [rsp+0x68]
  40a9c2:	75 16                	jne    40a9da <_Z6searchP7state_tiiiii+0x67a>
  40a9c4:	49 63 86 d8 01 00 00 	movsxd rax,DWORD PTR [r14+0x1d8]
  40a9cb:	41 83 bc 86 00 10 00 	cmp    DWORD PTR [r14+rax*4+0x1000],0x0
  40a9d2:	00 00 
  40a9d4:	0f 84 3d 04 00 00    	je     40ae17 <_Z6searchP7state_tiiiii+0xab7>
  40a9da:	83 3d 5b c7 b5 00 02 	cmp    DWORD PTR [rip+0xb5c75b],0x2        # f6713c <gamestate+0x4>
  40a9e1:	0f 84 6b 02 00 00    	je     40ac52 <_Z6searchP7state_tiiiii+0x8f2>
  40a9e7:	41 83 fd 02          	cmp    r13d,0x2
  40a9eb:	0f 8c 61 02 00 00    	jl     40ac52 <_Z6searchP7state_tiiiii+0x8f2>
  40a9f1:	41 83 fc 14          	cmp    r12d,0x14
  40a9f5:	0f 8c 57 02 00 00    	jl     40ac52 <_Z6searchP7state_tiiiii+0x8f2>
  40a9fb:	8b 44 24 14          	mov    eax,DWORD PTR [rsp+0x14]
  40a9ff:	0b 44 24 0c          	or     eax,DWORD PTR [rsp+0xc]
  40aa03:	0b 44 24 10          	or     eax,DWORD PTR [rsp+0x10]
  40aa07:	0f 85 45 02 00 00    	jne    40ac52 <_Z6searchP7state_tiiiii+0x8f2>
  40aa0d:	41 8d 4c 24 e8       	lea    ecx,[r12-0x18]
  40aa12:	45 31 c0             	xor    r8d,r8d
  40aa15:	4c 89 f7             	mov    rdi,r14
  40aa18:	48 8b 5c 24 38       	mov    rbx,QWORD PTR [rsp+0x38]
  40aa1d:	89 de                	mov    esi,ebx
  40aa1f:	48 8b 54 24 20       	mov    rdx,QWORD PTR [rsp+0x20]
  40aa24:	44 8b 4c 24 30       	mov    r9d,DWORD PTR [rsp+0x30]
  40aa29:	e8 32 f9 ff ff       	call   40a360 <_Z6searchP7state_tiiiii>
  40aa2e:	39 d8                	cmp    eax,ebx
  40aa30:	0f 8e 18 02 00 00    	jle    40ac4e <_Z6searchP7state_tiiiii+0x8ee>
  40aa36:	c7 44 24 04 ff ff ff 	mov    DWORD PTR [rsp+0x4],0xffffffff
  40aa3d:	ff 
  40aa3e:	48 8d 7c 24 04       	lea    rdi,[rsp+0x4]
  40aa43:	48 8d b4 24 70 04 00 	lea    rsi,[rsp+0x470]
  40aa4a:	00 
  40aa4b:	48 8d 94 24 b0 00 00 	lea    rdx,[rsp+0xb0]
  40aa52:	00 
  40aa53:	8b 5c 24 08          	mov    ebx,DWORD PTR [rsp+0x8]
  40aa57:	89 d9                	mov    ecx,ebx
  40aa59:	e8 42 f8 ff ff       	call   40a2a0 <_ZL15remove_one_fastPiS_S_i>
  40aa5e:	85 c0                	test   eax,eax
  40aa60:	0f 84 ec 01 00 00    	je     40ac52 <_Z6searchP7state_tiiiii+0x8f2>
  40aa66:	83 7c 24 0c 01       	cmp    DWORD PTR [rsp+0xc],0x1
  40aa6b:	0f 8f e1 01 00 00    	jg     40ac52 <_Z6searchP7state_tiiiii+0x8f2>
  40aa71:	41 8d 44 24 f0       	lea    eax,[r12-0x10]
  40aa76:	89 44 24 50          	mov    DWORD PTR [rsp+0x50],eax
  40aa7a:	48 8b 44 24 20       	mov    rax,QWORD PTR [rsp+0x20]
  40aa7f:	f7 d8                	neg    eax
  40aa81:	89 44 24 44          	mov    DWORD PTR [rsp+0x44],eax
  40aa85:	b9 32 00 00 00       	mov    ecx,0x32
  40aa8a:	48 8b 44 24 38       	mov    rax,QWORD PTR [rsp+0x38]
  40aa8f:	29 c1                	sub    ecx,eax
  40aa91:	89 4c 24 48          	mov    DWORD PTR [rsp+0x48],ecx
  40aa95:	b9 31 00 00 00       	mov    ecx,0x31
  40aa9a:	29 c1                	sub    ecx,eax
  40aa9c:	89 4c 24 60          	mov    DWORD PTR [rsp+0x60],ecx
  40aaa0:	8d 48 ce             	lea    ecx,[rax-0x32]
  40aaa3:	89 4c 24 5c          	mov    DWORD PTR [rsp+0x5c],ecx
  40aaa7:	89 c1                	mov    ecx,eax
  40aaa9:	f7 d9                	neg    ecx
  40aaab:	89 4c 24 6c          	mov    DWORD PTR [rsp+0x6c],ecx
  40aaaf:	f7 d0                	not    eax
  40aab1:	89 44 24 28          	mov    DWORD PTR [rsp+0x28],eax
  40aab5:	31 c0                	xor    eax,eax
  40aab7:	83 7c 24 30 00       	cmp    DWORD PTR [rsp+0x30],0x0
  40aabc:	0f 94 c0             	sete   al
  40aabf:	89 84 24 80 00 00 00 	mov    DWORD PTR [rsp+0x80],eax
  40aac6:	c7 44 24 18 01 00 00 	mov    DWORD PTR [rsp+0x18],0x1
  40aacd:	00 
  40aace:	45 31 ff             	xor    r15d,r15d
  40aad1:	48 63 44 24 04       	movsxd rax,DWORD PTR [rsp+0x4]
  40aad6:	8b b4 84 b0 00 00 00 	mov    esi,DWORD PTR [rsp+rax*4+0xb0]
  40aadd:	4c 89 f7             	mov    rdi,r14
  40aae0:	e8 cb b4 ff ff       	call   405fb0 <_Z4makeP7state_ti>
  40aae5:	48 63 44 24 04       	movsxd rax,DWORD PTR [rsp+0x4]
  40aaea:	8b b4 84 b0 00 00 00 	mov    esi,DWORD PTR [rsp+rax*4+0xb0]
  40aaf1:	4c 89 f7             	mov    rdi,r14
  40aaf4:	e8 87 bf ff ff       	call   406a80 <_Z11check_legalP7state_ti>
  40aaf9:	85 c0                	test   eax,eax
  40aafb:	0f 84 06 01 00 00    	je     40ac07 <_Z6searchP7state_tiiiii+0x8a7>
  40ab01:	49 8b 86 e0 01 00 00 	mov    rax,QWORD PTR [r14+0x1e0]
  40ab08:	8b 0d 66 c6 b5 00    	mov    ecx,DWORD PTR [rip+0xb5c666]        # f67174 <gamestate+0x3c>
  40ab0e:	49 63 96 d8 01 00 00 	movsxd rdx,DWORD PTR [r14+0x1d8]
  40ab15:	8d 0c 0a             	lea    ecx,[rdx+rcx*1]
  40ab18:	83 c1 ff             	add    ecx,0xffffffff
  40ab1b:	48 63 c9             	movsxd rcx,ecx
  40ab1e:	49 89 84 ce 30 11 00 	mov    QWORD PTR [r14+rcx*8+0x1130],rax
  40ab25:	00 
  40ab26:	48 63 44 24 04       	movsxd rax,DWORD PTR [rsp+0x4]
  40ab2b:	8b 84 84 b0 00 00 00 	mov    eax,DWORD PTR [rsp+rax*4+0xb0]
  40ab32:	41 89 84 96 ec 09 00 	mov    DWORD PTR [r14+rdx*4+0x9ec],eax
  40ab39:	00 
  40ab3a:	41 8d 5f 01          	lea    ebx,[r15+0x1]
  40ab3e:	4c 89 f7             	mov    rdi,r14
  40ab41:	e8 9a 69 ff ff       	call   4014e0 <_Z8in_checkP7state_t>
  40ab46:	49 63 8e d8 01 00 00 	movsxd rcx,DWORD PTR [r14+0x1d8]
  40ab4d:	41 89 84 8e 04 10 00 	mov    DWORD PTR [r14+rcx*4+0x1004],eax
  40ab54:	00 
  40ab55:	b9 01 00 00 00       	mov    ecx,0x1
  40ab5a:	4c 89 f7             	mov    rdi,r14
  40ab5d:	8b 74 24 44          	mov    esi,DWORD PTR [rsp+0x44]
  40ab61:	8b 6c 24 48          	mov    ebp,DWORD PTR [rsp+0x48]
  40ab65:	89 ea                	mov    edx,ebp
  40ab67:	e8 24 da ff ff       	call   408590 <_Z4evalP7state_tiii>
  40ab6c:	83 7c 24 18 00       	cmp    DWORD PTR [rsp+0x18],0x0
  40ab71:	74 3d                	je     40abb0 <_Z6searchP7state_tiiiii+0x850>
  40ab73:	45 31 c0             	xor    r8d,r8d
  40ab76:	4c 89 f7             	mov    rdi,r14
  40ab79:	8b 74 24 28          	mov    esi,DWORD PTR [rsp+0x28]
  40ab7d:	8b 54 24 6c          	mov    edx,DWORD PTR [rsp+0x6c]
  40ab81:	8b 4c 24 50          	mov    ecx,DWORD PTR [rsp+0x50]
  40ab85:	44 8b 8c 24 80 00 00 	mov    r9d,DWORD PTR [rsp+0x80]
  40ab8c:	00 
  40ab8d:	e8 ce f7 ff ff       	call   40a360 <_Z6searchP7state_tiiiii>
  40ab92:	f7 d8                	neg    eax
  40ab94:	89 44 24 2c          	mov    DWORD PTR [rsp+0x2c],eax
  40ab98:	39 44 24 38          	cmp    DWORD PTR [rsp+0x38],eax
  40ab9c:	7d 51                	jge    40abef <_Z6searchP7state_tiiiii+0x88f>
  40ab9e:	c7 44 24 0c 01 00 00 	mov    DWORD PTR [rsp+0xc],0x1
  40aba5:	00 
  40aba6:	c7 44 24 18 00 00 00 	mov    DWORD PTR [rsp+0x18],0x0
  40abad:	00 
  40abae:	eb 3a                	jmp    40abea <_Z6searchP7state_tiiiii+0x88a>
  40abb0:	c7 44 24 18 00 00 00 	mov    DWORD PTR [rsp+0x18],0x0
  40abb7:	00 
  40abb8:	45 31 c0             	xor    r8d,r8d
  40abbb:	45 31 c9             	xor    r9d,r9d
  40abbe:	4c 89 f7             	mov    rdi,r14
  40abc1:	8b 74 24 60          	mov    esi,DWORD PTR [rsp+0x60]
  40abc5:	89 ea                	mov    edx,ebp
  40abc7:	8b 4c 24 50          	mov    ecx,DWORD PTR [rsp+0x50]
  40abcb:	e8 90 f7 ff ff       	call   40a360 <_Z6searchP7state_tiiiii>
  40abd0:	f7 d8                	neg    eax
  40abd2:	89 44 24 2c          	mov    DWORD PTR [rsp+0x2c],eax
  40abd6:	39 44 24 5c          	cmp    DWORD PTR [rsp+0x5c],eax
  40abda:	7d 0e                	jge    40abea <_Z6searchP7state_tiiiii+0x88a>
  40abdc:	c7 44 24 0c 00 00 00 	mov    DWORD PTR [rsp+0xc],0x0
  40abe3:	00 
  40abe4:	41 83 c7 0b          	add    r15d,0xb
  40abe8:	eb 19                	jmp    40ac03 <_Z6searchP7state_tiiiii+0x8a3>
  40abea:	41 89 df             	mov    r15d,ebx
  40abed:	eb 14                	jmp    40ac03 <_Z6searchP7state_tiiiii+0x8a3>
  40abef:	c7 44 24 0c 00 00 00 	mov    DWORD PTR [rsp+0xc],0x0
  40abf6:	00 
  40abf7:	41 83 c7 0b          	add    r15d,0xb
  40abfb:	c7 44 24 18 00 00 00 	mov    DWORD PTR [rsp+0x18],0x0
  40ac02:	00 
  40ac03:	8b 5c 24 08          	mov    ebx,DWORD PTR [rsp+0x8]
  40ac07:	48 63 44 24 04       	movsxd rax,DWORD PTR [rsp+0x4]
  40ac0c:	8b b4 84 b0 00 00 00 	mov    esi,DWORD PTR [rsp+rax*4+0xb0]
  40ac13:	4c 89 f7             	mov    rdi,r14
  40ac16:	e8 a5 ba ff ff       	call   4066c0 <_Z6unmakeP7state_ti>
  40ac1b:	48 8d 7c 24 04       	lea    rdi,[rsp+0x4]
  40ac20:	48 8d b4 24 70 04 00 	lea    rsi,[rsp+0x470]
  40ac27:	00 
  40ac28:	48 8d 94 24 b0 00 00 	lea    rdx,[rsp+0xb0]
  40ac2f:	00 
  40ac30:	89 d9                	mov    ecx,ebx
  40ac32:	e8 69 f6 ff ff       	call   40a2a0 <_ZL15remove_one_fastPiS_S_i>
  40ac37:	41 83 ff 02          	cmp    r15d,0x2
  40ac3b:	7f 15                	jg     40ac52 <_Z6searchP7state_tiiiii+0x8f2>
  40ac3d:	85 c0                	test   eax,eax
  40ac3f:	74 11                	je     40ac52 <_Z6searchP7state_tiiiii+0x8f2>
  40ac41:	83 7c 24 0c 02       	cmp    DWORD PTR [rsp+0xc],0x2
  40ac46:	0f 8c 85 fe ff ff    	jl     40aad1 <_Z6searchP7state_tiiiii+0x771>
  40ac4c:	eb 04                	jmp    40ac52 <_Z6searchP7state_tiiiii+0x8f2>
  40ac4e:	8b 5c 24 08          	mov    ebx,DWORD PTR [rsp+0x8]
  40ac52:	8b 44 24 4c          	mov    eax,DWORD PTR [rsp+0x4c]
  40ac56:	39 44 24 20          	cmp    DWORD PTR [rsp+0x20],eax
  40ac5a:	75 0a                	jne    40ac66 <_Z6searchP7state_tiiiii+0x906>
  40ac5c:	c7 44 24 5c 00 00 00 	mov    DWORD PTR [rsp+0x5c],0x0
  40ac63:	00 
  40ac64:	eb 16                	jmp    40ac7c <_Z6searchP7state_tiiiii+0x91c>
  40ac66:	8b 05 e0 c4 b5 00    	mov    eax,DWORD PTR [rip+0xb5c4e0]        # f6714c <gamestate+0x14>
  40ac6c:	01 c0                	add    eax,eax
  40ac6e:	41 39 86 d8 01 00 00 	cmp    DWORD PTR [r14+0x1d8],eax
  40ac75:	0f 9e c0             	setle  al
  40ac78:	89 44 24 5c          	mov    DWORD PTR [rsp+0x5c],eax
  40ac7c:	c7 44 24 04 ff ff ff 	mov    DWORD PTR [rsp+0x4],0xffffffff
  40ac83:	ff 
  40ac84:	48 8d 7c 24 04       	lea    rdi,[rsp+0x4]
  40ac89:	48 8d b4 24 70 04 00 	lea    rsi,[rsp+0x470]
  40ac90:	00 
  40ac91:	48 8d 94 24 b0 00 00 	lea    rdx,[rsp+0xb0]
  40ac98:	00 
  40ac99:	89 d9                	mov    ecx,ebx
  40ac9b:	e8 00 f6 ff ff       	call   40a2a0 <_ZL15remove_one_fastPiS_S_i>
  40aca0:	85 c0                	test   eax,eax
  40aca2:	0f 84 ea 00 00 00    	je     40ad92 <_Z6searchP7state_tiiiii+0xa32>
  40aca8:	31 d2                	xor    edx,edx
  40acaa:	41 83 fd 01          	cmp    r13d,0x1
  40acae:	0f 94 c2             	sete   dl
  40acb1:	c1 e2 02             	shl    edx,0x2
  40acb4:	8b 44 24 68          	mov    eax,DWORD PTR [rsp+0x68]
  40acb8:	85 c0                	test   eax,eax
  40acba:	0f 44 d0             	cmove  edx,eax
  40acbd:	44 89 e0             	mov    eax,r12d
  40acc0:	c1 f8 1f             	sar    eax,0x1f
  40acc3:	c1 e8 1e             	shr    eax,0x1e
  40acc6:	44 01 e0             	add    eax,r12d
  40acc9:	c1 f8 02             	sar    eax,0x2
  40accc:	83 c0 01             	add    eax,0x1
  40accf:	89 44 24 4c          	mov    DWORD PTR [rsp+0x4c],eax
  40acd3:	89 d0                	mov    eax,edx
  40acd5:	83 c8 02             	or     eax,0x2
  40acd8:	8b 4c 24 5c          	mov    ecx,DWORD PTR [rsp+0x5c]
  40acdc:	84 c9                	test   cl,cl
  40acde:	89 54 24 48          	mov    DWORD PTR [rsp+0x48],edx
  40ace2:	0f 44 c2             	cmove  eax,edx
  40ace5:	89 44 24 6c          	mov    DWORD PTR [rsp+0x6c],eax
  40ace9:	8b 44 24 70          	mov    eax,DWORD PTR [rsp+0x70]
  40aced:	01 84 24 84 00 00 00 	add    DWORD PTR [rsp+0x84],eax
  40acf4:	0f b6 c1             	movzx  eax,cl
  40acf7:	8d 04 00             	lea    eax,[rax+rax*1]
  40acfa:	83 c0 01             	add    eax,0x1
  40acfd:	89 84 24 80 00 00 00 	mov    DWORD PTR [rsp+0x80],eax
  40ad04:	48 8b ac 24 88 00 00 	mov    rbp,QWORD PTR [rsp+0x88]
  40ad0b:	00 
  40ad0c:	8d 45 4b             	lea    eax,[rbp+0x4b]
  40ad0f:	89 84 24 9c 00 00 00 	mov    DWORD PTR [rsp+0x9c],eax
  40ad16:	8d 85 c8 00 00 00    	lea    eax,[rbp+0xc8]
  40ad1c:	89 84 24 98 00 00 00 	mov    DWORD PTR [rsp+0x98],eax
  40ad23:	8d 45 64             	lea    eax,[rbp+0x64]
  40ad26:	89 84 24 94 00 00 00 	mov    DWORD PTR [rsp+0x94],eax
  40ad2d:	81 c5 2c 01 00 00    	add    ebp,0x12c
  40ad33:	48 89 ac 24 88 00 00 	mov    QWORD PTR [rsp+0x88],rbp
  40ad3a:	00 
  40ad3b:	4c 8b 6c 24 20       	mov    r13,QWORD PTR [rsp+0x20]
  40ad40:	44 89 e8             	mov    eax,r13d
  40ad43:	f7 d8                	neg    eax
  40ad45:	89 44 24 64          	mov    DWORD PTR [rsp+0x64],eax
  40ad49:	41 8d 44 24 fc       	lea    eax,[r12-0x4]
  40ad4e:	48 89 84 24 a8 00 00 	mov    QWORD PTR [rsp+0xa8],rax
  40ad55:	00 
  40ad56:	31 c0                	xor    eax,eax
  40ad58:	83 7c 24 30 00       	cmp    DWORD PTR [rsp+0x30],0x0
  40ad5d:	0f 94 c0             	sete   al
  40ad60:	89 84 24 90 00 00 00 	mov    DWORD PTR [rsp+0x90],eax
  40ad67:	c7 44 24 28 00 83 ff 	mov    DWORD PTR [rsp+0x28],0xffff8300
  40ad6e:	ff 
  40ad6f:	bb 01 00 00 00       	mov    ebx,0x1
  40ad74:	48 8b 44 24 38       	mov    rax,QWORD PTR [rsp+0x38]
  40ad79:	89 c5                	mov    ebp,eax
  40ad7b:	c7 44 24 44 01 00 00 	mov    DWORD PTR [rsp+0x44],0x1
  40ad82:	00 
  40ad83:	b8 01 00 00 00       	mov    eax,0x1
  40ad88:	48 89 44 24 30       	mov    QWORD PTR [rsp+0x30],rax
  40ad8d:	e9 63 03 00 00       	jmp    40b0f5 <_Z6searchP7state_tiiiii+0xd95>
  40ad92:	bb 01 00 00 00       	mov    ebx,0x1
  40ad97:	c7 44 24 28 00 83 ff 	mov    DWORD PTR [rsp+0x28],0xffff8300
  40ad9e:	ff 
  40ad9f:	8b 0d 93 50 b6 00    	mov    ecx,DWORD PTR [rip+0xb65093]        # f6fe38 <gamestate+0x8d00>
  40ada5:	85 c9                	test   ecx,ecx
  40ada7:	0f 94 c0             	sete   al
  40adaa:	85 db                	test   ebx,ebx
  40adac:	0f 84 10 09 00 00    	je     40b6c2 <_Z6searchP7state_tiiiii+0x1362>
  40adb2:	85 c9                	test   ecx,ecx
  40adb4:	0f 85 08 09 00 00    	jne    40b6c2 <_Z6searchP7state_tiiiii+0x1362>
  40adba:	4c 89 f7             	mov    rdi,r14
  40adbd:	e8 1e 67 ff ff       	call   4014e0 <_Z8in_checkP7state_t>
  40adc2:	85 c0                	test   eax,eax
  40adc4:	0f 84 64 02 00 00    	je     40b02e <_Z6searchP7state_tiiiii+0xcce>
  40adca:	41 bd 00 83 ff ff    	mov    r13d,0xffff8300
  40add0:	41 8b b6 d8 01 00 00 	mov    esi,DWORD PTR [r14+0x1d8]
  40add7:	44 01 ee             	add    esi,r13d
  40adda:	44 8b 4c 24 10       	mov    r9d,DWORD PTR [rsp+0x10]
  40addf:	8b 44 24 0c          	mov    eax,DWORD PTR [rsp+0xc]
  40ade3:	8b 6c 24 14          	mov    ebp,DWORD PTR [rsp+0x14]
  40ade7:	48 83 ec 08          	sub    rsp,0x8
  40adeb:	41 b8 00 00 00 00    	mov    r8d,0x0
  40adf1:	4c 89 f7             	mov    rdi,r14
  40adf4:	48 8b 54 24 40       	mov    rdx,QWORD PTR [rsp+0x40]
  40adf9:	48 8b 4c 24 28       	mov    rcx,QWORD PTR [rsp+0x28]
  40adfe:	41 54                	push   r12
  40ae00:	55                   	push   rbp
  40ae01:	50                   	push   rax
  40ae02:	e8 e9 29 00 00       	call   40d7f0 <_Z7StoreTTP7state_tiiijiiii>
  40ae07:	48 83 c4 20          	add    rsp,0x20
  40ae0b:	45 03 ae d8 01 00 00 	add    r13d,DWORD PTR [r14+0x1d8]
  40ae12:	e9 df f5 ff ff       	jmp    40a3f6 <_Z6searchP7state_tiiiii+0x96>
  40ae17:	83 f8 03             	cmp    eax,0x3
  40ae1a:	0f 8d e2 01 00 00    	jge    40b002 <_Z6searchP7state_tiiiii+0xca2>
  40ae20:	c7 44 24 04 ff ff ff 	mov    DWORD PTR [rsp+0x4],0xffffffff
  40ae27:	ff 
  40ae28:	48 8d 7c 24 04       	lea    rdi,[rsp+0x4]
  40ae2d:	48 8d b4 24 70 04 00 	lea    rsi,[rsp+0x470]
  40ae34:	00 
  40ae35:	48 8d 94 24 b0 00 00 	lea    rdx,[rsp+0xb0]
  40ae3c:	00 
  40ae3d:	89 d9                	mov    ecx,ebx
  40ae3f:	e8 5c f4 ff ff       	call   40a2a0 <_ZL15remove_one_fastPiS_S_i>
  40ae44:	85 c0                	test   eax,eax
  40ae46:	0f 84 8e fb ff ff    	je     40a9da <_Z6searchP7state_tiiiii+0x67a>
  40ae4c:	48 8b 44 24 20       	mov    rax,QWORD PTR [rsp+0x20]
  40ae51:	89 c5                	mov    ebp,eax
  40ae53:	f7 dd                	neg    ebp
  40ae55:	b9 32 00 00 00       	mov    ecx,0x32
  40ae5a:	2b 4c 24 38          	sub    ecx,DWORD PTR [rsp+0x38]
  40ae5e:	89 4c 24 44          	mov    DWORD PTR [rsp+0x44],ecx
  40ae62:	41 bf 01 00 00 00    	mov    r15d,0x1
  40ae68:	b9 01 00 00 00       	mov    ecx,0x1
  40ae6d:	29 c1                	sub    ecx,eax
  40ae6f:	89 4c 24 48          	mov    DWORD PTR [rsp+0x48],ecx
  40ae73:	41 8d 44 24 f0       	lea    eax,[r12-0x10]
  40ae78:	89 44 24 50          	mov    DWORD PTR [rsp+0x50],eax
  40ae7c:	31 c0                	xor    eax,eax
  40ae7e:	83 7c 24 30 00       	cmp    DWORD PTR [rsp+0x30],0x0
  40ae83:	0f 94 c0             	sete   al
  40ae86:	89 44 24 6c          	mov    DWORD PTR [rsp+0x6c],eax
  40ae8a:	c7 44 24 2c 00 83 ff 	mov    DWORD PTR [rsp+0x2c],0xffff8300
  40ae91:	ff 
  40ae92:	c7 44 24 18 00 00 00 	mov    DWORD PTR [rsp+0x18],0x0
  40ae99:	00 
  40ae9a:	48 63 44 24 04       	movsxd rax,DWORD PTR [rsp+0x4]
  40ae9f:	8b b4 84 b0 00 00 00 	mov    esi,DWORD PTR [rsp+rax*4+0xb0]
  40aea6:	4c 89 f7             	mov    rdi,r14
  40aea9:	e8 02 b1 ff ff       	call   405fb0 <_Z4makeP7state_ti>
  40aeae:	48 63 44 24 04       	movsxd rax,DWORD PTR [rsp+0x4]
  40aeb3:	8b b4 84 b0 00 00 00 	mov    esi,DWORD PTR [rsp+rax*4+0xb0]
  40aeba:	4c 89 f7             	mov    rdi,r14
  40aebd:	e8 be bb ff ff       	call   406a80 <_Z11check_legalP7state_ti>
  40aec2:	bb 00 00 00 00       	mov    ebx,0x0
  40aec7:	85 c0                	test   eax,eax
  40aec9:	0f 84 ad 00 00 00    	je     40af7c <_Z6searchP7state_tiiiii+0xc1c>
  40aecf:	41 83 fc 10          	cmp    r12d,0x10
  40aed3:	0f 9f c3             	setg   bl
  40aed6:	49 8b 86 e0 01 00 00 	mov    rax,QWORD PTR [r14+0x1e0]
  40aedd:	8b 0d 91 c2 b5 00    	mov    ecx,DWORD PTR [rip+0xb5c291]        # f67174 <gamestate+0x3c>
  40aee3:	49 63 96 d8 01 00 00 	movsxd rdx,DWORD PTR [r14+0x1d8]
  40aeea:	8d 4c 0a ff          	lea    ecx,[rdx+rcx*1-0x1]
  40aeee:	48 63 c9             	movsxd rcx,ecx
  40aef1:	49 89 84 ce 30 11 00 	mov    QWORD PTR [r14+rcx*8+0x1130],rax
  40aef8:	00 
  40aef9:	48 63 44 24 04       	movsxd rax,DWORD PTR [rsp+0x4]
  40aefe:	8b 84 84 b0 00 00 00 	mov    eax,DWORD PTR [rsp+rax*4+0xb0]
  40af05:	41 89 84 96 ec 09 00 	mov    DWORD PTR [r14+rdx*4+0x9ec],eax
  40af0c:	00 
  40af0d:	4c 89 f7             	mov    rdi,r14
  40af10:	e8 cb 65 ff ff       	call   4014e0 <_Z8in_checkP7state_t>
  40af15:	49 63 8e d8 01 00 00 	movsxd rcx,DWORD PTR [r14+0x1d8]
  40af1c:	41 89 84 8e 04 10 00 	mov    DWORD PTR [r14+rcx*4+0x1004],eax
  40af23:	00 
  40af24:	85 c0                	test   eax,eax
  40af26:	0f 95 c0             	setne  al
  40af29:	08 d8                	or     al,bl
  40af2b:	0f b6 c8             	movzx  ecx,al
  40af2e:	4c 89 f7             	mov    rdi,r14
  40af31:	89 ee                	mov    esi,ebp
  40af33:	8b 54 24 44          	mov    edx,DWORD PTR [rsp+0x44]
  40af37:	e8 54 d6 ff ff       	call   408590 <_Z4evalP7state_tiii>
  40af3c:	41 83 fc 10          	cmp    r12d,0x10
  40af40:	7f 15                	jg     40af57 <_Z6searchP7state_tiiiii+0xbf7>
  40af42:	31 c9                	xor    ecx,ecx
  40af44:	45 31 c0             	xor    r8d,r8d
  40af47:	4c 89 f7             	mov    rdi,r14
  40af4a:	89 ee                	mov    esi,ebp
  40af4c:	8b 54 24 48          	mov    edx,DWORD PTR [rsp+0x48]
  40af50:	e8 0b e8 ff ff       	call   409760 <_Z7qsearchP7state_tiiii>
  40af55:	eb 1a                	jmp    40af71 <_Z6searchP7state_tiiiii+0xc11>
  40af57:	45 31 c0             	xor    r8d,r8d
  40af5a:	4c 89 f7             	mov    rdi,r14
  40af5d:	89 ee                	mov    esi,ebp
  40af5f:	8b 54 24 48          	mov    edx,DWORD PTR [rsp+0x48]
  40af63:	8b 4c 24 50          	mov    ecx,DWORD PTR [rsp+0x50]
  40af67:	44 8b 4c 24 6c       	mov    r9d,DWORD PTR [rsp+0x6c]
  40af6c:	e8 ef f3 ff ff       	call   40a360 <_Z6searchP7state_tiiiii>
  40af71:	f7 d8                	neg    eax
  40af73:	89 44 24 2c          	mov    DWORD PTR [rsp+0x2c],eax
  40af77:	bb 01 00 00 00       	mov    ebx,0x1
  40af7c:	48 63 44 24 04       	movsxd rax,DWORD PTR [rsp+0x4]
  40af81:	8b b4 84 b0 00 00 00 	mov    esi,DWORD PTR [rsp+rax*4+0xb0]
  40af88:	4c 89 f7             	mov    rdi,r14
  40af8b:	e8 30 b7 ff ff       	call   4066c0 <_Z6unmakeP7state_ti>
  40af90:	83 3d a1 4e b6 00 00 	cmp    DWORD PTR [rip+0xb64ea1],0x0        # f6fe38 <gamestate+0x8d00>
  40af97:	0f 85 81 07 00 00    	jne    40b71e <_Z6searchP7state_tiiiii+0x13be>
  40af9d:	85 db                	test   ebx,ebx
  40af9f:	74 23                	je     40afc4 <_Z6searchP7state_tiiiii+0xc64>
  40afa1:	8b 44 24 2c          	mov    eax,DWORD PTR [rsp+0x2c]
  40afa5:	3b 44 24 20          	cmp    eax,DWORD PTR [rsp+0x20]
  40afa9:	8b 5c 24 08          	mov    ebx,DWORD PTR [rsp+0x8]
  40afad:	7c 19                	jl     40afc8 <_Z6searchP7state_tiiiii+0xc68>
  40afaf:	8b 44 24 18          	mov    eax,DWORD PTR [rsp+0x18]
  40afb3:	85 c0                	test   eax,eax
  40afb5:	0f 8f a2 07 00 00    	jg     40b75d <_Z6searchP7state_tiiiii+0x13fd>
  40afbb:	83 c0 01             	add    eax,0x1
  40afbe:	89 44 24 18          	mov    DWORD PTR [rsp+0x18],eax
  40afc2:	eb 04                	jmp    40afc8 <_Z6searchP7state_tiiiii+0xc68>
  40afc4:	8b 5c 24 08          	mov    ebx,DWORD PTR [rsp+0x8]
  40afc8:	48 8d 7c 24 04       	lea    rdi,[rsp+0x4]
  40afcd:	48 8d b4 24 70 04 00 	lea    rsi,[rsp+0x470]
  40afd4:	00 
  40afd5:	48 8d 94 24 b0 00 00 	lea    rdx,[rsp+0xb0]
  40afdc:	00 
  40afdd:	89 d9                	mov    ecx,ebx
  40afdf:	e8 bc f2 ff ff       	call   40a2a0 <_ZL15remove_one_fastPiS_S_i>
  40afe4:	85 c0                	test   eax,eax
  40afe6:	0f 84 ee f9 ff ff    	je     40a9da <_Z6searchP7state_tiiiii+0x67a>
  40afec:	41 8d 47 01          	lea    eax,[r15+0x1]
  40aff0:	41 83 ff 03          	cmp    r15d,0x3
  40aff4:	41 89 c7             	mov    r15d,eax
  40aff7:	0f 82 9d fe ff ff    	jb     40ae9a <_Z6searchP7state_tiiiii+0xb3a>
  40affd:	e9 d8 f9 ff ff       	jmp    40a9da <_Z6searchP7state_tiiiii+0x67a>
  40b002:	41 83 bc 86 fc 0f 00 	cmp    DWORD PTR [r14+rax*4+0xffc],0x0
  40b009:	00 00 
  40b00b:	0f 85 c9 f9 ff ff    	jne    40a9da <_Z6searchP7state_tiiiii+0x67a>
  40b011:	83 f8 04             	cmp    eax,0x4
  40b014:	0f 8c 06 fe ff ff    	jl     40ae20 <_Z6searchP7state_tiiiii+0xac0>
  40b01a:	41 83 bc 86 f8 0f 00 	cmp    DWORD PTR [r14+rax*4+0xff8],0x0
  40b021:	00 00 
  40b023:	0f 85 b1 f9 ff ff    	jne    40a9da <_Z6searchP7state_tiiiii+0x67a>
  40b029:	e9 f2 fd ff ff       	jmp    40ae20 <_Z6searchP7state_tiiiii+0xac0>
  40b02e:	44 8b 4c 24 10       	mov    r9d,DWORD PTR [rsp+0x10]
  40b033:	8b 44 24 0c          	mov    eax,DWORD PTR [rsp+0xc]
  40b037:	8b 6c 24 14          	mov    ebp,DWORD PTR [rsp+0x14]
  40b03b:	48 83 ec 08          	sub    rsp,0x8
  40b03f:	45 31 ed             	xor    r13d,r13d
  40b042:	31 f6                	xor    esi,esi
  40b044:	45 31 c0             	xor    r8d,r8d
  40b047:	4c 89 f7             	mov    rdi,r14
  40b04a:	48 8b 54 24 40       	mov    rdx,QWORD PTR [rsp+0x40]
  40b04f:	48 8b 4c 24 28       	mov    rcx,QWORD PTR [rsp+0x28]
  40b054:	e9 b3 06 00 00       	jmp    40b70c <_Z6searchP7state_tiiiii+0x13ac>
  40b059:	41 8d 4c 24 f0       	lea    ecx,[r12-0x10]
  40b05e:	45 31 c9             	xor    r9d,r9d
  40b061:	83 7c 24 30 00       	cmp    DWORD PTR [rsp+0x30],0x0
  40b066:	41 0f 94 c1          	sete   r9b
  40b06a:	41 b8 01 00 00 00    	mov    r8d,0x1
  40b070:	4c 89 f7             	mov    rdi,r14
  40b073:	e8 e8 f2 ff ff       	call   40a360 <_Z6searchP7state_tiiiii>
  40b078:	41 83 86 dc 01 00 00 	add    DWORD PTR [r14+0x1dc],0xffffffff
  40b07f:	ff 
  40b080:	41 83 86 d8 01 00 00 	add    DWORD PTR [r14+0x1d8],0xffffffff
  40b087:	ff 
  40b088:	41 80 b6 cc 01 00 00 	xor    BYTE PTR [r14+0x1cc],0x1
  40b08f:	01 
  40b090:	45 89 be c8 01 00 00 	mov    DWORD PTR [r14+0x1c8],r15d
  40b097:	83 3d 9a 4d b6 00 00 	cmp    DWORD PTR [rip+0xb64d9a],0x0        # f6fe38 <gamestate+0x8d00>
  40b09e:	41 bd 00 00 00 00    	mov    r13d,0x0
  40b0a4:	48 8b 4c 24 20       	mov    rcx,QWORD PTR [rsp+0x20]
  40b0a9:	0f 85 47 f3 ff ff    	jne    40a3f6 <_Z6searchP7state_tiiiii+0x96>
  40b0af:	41 89 c5             	mov    r13d,eax
  40b0b2:	41 f7 dd             	neg    r13d
  40b0b5:	44 39 e9             	cmp    ecx,r13d
  40b0b8:	0f 8e 76 06 00 00    	jle    40b734 <_Z6searchP7state_tiiiii+0x13d4>
  40b0be:	3d a9 7a 00 00       	cmp    eax,0x7aa9
  40b0c3:	44 8b 6c 24 68       	mov    r13d,DWORD PTR [rsp+0x68]
  40b0c8:	0f 8c 78 f6 ff ff    	jl     40a746 <_Z6searchP7state_tiiiii+0x3e6>
  40b0ce:	c7 44 24 10 01 00 00 	mov    DWORD PTR [rsp+0x10],0x1
  40b0d5:	00 
  40b0d6:	e9 6b f6 ff ff       	jmp    40a746 <_Z6searchP7state_tiiiii+0x3e6>
  40b0db:	83 c1 fc             	add    ecx,0xfffffffc
  40b0de:	c1 eb 02             	shr    ebx,0x2
  40b0e1:	45 31 c0             	xor    r8d,r8d
  40b0e4:	4c 89 f7             	mov    rdi,r14
  40b0e7:	8b 74 24 64          	mov    esi,DWORD PTR [rsp+0x64]
  40b0eb:	89 ea                	mov    edx,ebp
  40b0ed:	41 89 d9             	mov    r9d,ebx
  40b0f0:	e9 6d 04 00 00       	jmp    40b562 <_Z6searchP7state_tiiiii+0x1202>
  40b0f5:	48 89 6c 24 50       	mov    QWORD PTR [rsp+0x50],rbp
  40b0fa:	8d 45 01             	lea    eax,[rbp+0x1]
  40b0fd:	89 44 24 18          	mov    DWORD PTR [rsp+0x18],eax
  40b101:	89 5c 24 70          	mov    DWORD PTR [rsp+0x70],ebx
  40b105:	49 63 86 d8 01 00 00 	movsxd rax,DWORD PTR [r14+0x1d8]
  40b10c:	45 31 ff             	xor    r15d,r15d
  40b10f:	48 83 f8 3b          	cmp    rax,0x3b
  40b113:	0f 8f 50 01 00 00    	jg     40b269 <_Z6searchP7state_tiiiii+0xf09>
  40b119:	48 63 4c 24 04       	movsxd rcx,DWORD PTR [rsp+0x4]
  40b11e:	44 8b 84 8c b0 00 00 	mov    r8d,DWORD PTR [rsp+rcx*4+0xb0]
  40b125:	00 
  40b126:	44 89 c2             	mov    edx,r8d
  40b129:	c1 ea 06             	shr    edx,0x6
  40b12c:	83 e2 3f             	and    edx,0x3f
  40b12f:	41 8b 4c 96 04       	mov    ecx,DWORD PTR [r14+rdx*4+0x4]
  40b134:	83 c1 01             	add    ecx,0x1
  40b137:	83 e1 fe             	and    ecx,0xfffffffe
  40b13a:	8b 74 24 48          	mov    esi,DWORD PTR [rsp+0x48]
  40b13e:	41 89 f7             	mov    r15d,esi
  40b141:	83 f9 02             	cmp    ecx,0x2
  40b144:	75 2a                	jne    40b170 <_Z6searchP7state_tiiiii+0xe10>
  40b146:	44 89 c1             	mov    ecx,r8d
  40b149:	c0 e9 03             	shr    cl,0x3
  40b14c:	80 e1 07             	and    cl,0x7
  40b14f:	80 f9 01             	cmp    cl,0x1
  40b152:	74 15                	je     40b169 <_Z6searchP7state_tiiiii+0xe09>
  40b154:	80 f9 06             	cmp    cl,0x6
  40b157:	74 10                	je     40b169 <_Z6searchP7state_tiiiii+0xe09>
  40b159:	8b 4c 24 48          	mov    ecx,DWORD PTR [rsp+0x48]
  40b15d:	41 89 cf             	mov    r15d,ecx
  40b160:	41 f7 c0 00 f0 00 00 	test   r8d,0xf000
  40b167:	74 07                	je     40b170 <_Z6searchP7state_tiiiii+0xe10>
  40b169:	8b 4c 24 6c          	mov    ecx,DWORD PTR [rsp+0x6c]
  40b16d:	41 89 cf             	mov    r15d,ecx
  40b170:	44 89 c1             	mov    ecx,r8d
  40b173:	c1 e9 13             	shr    ecx,0x13
  40b176:	83 e1 0f             	and    ecx,0xf
  40b179:	83 f9 0d             	cmp    ecx,0xd
  40b17c:	74 65                	je     40b1e3 <_Z6searchP7state_tiiiii+0xe83>
  40b17e:	41 8b 84 86 ec 09 00 	mov    eax,DWORD PTR [r14+rax*4+0x9ec]
  40b185:	00 
  40b186:	89 c6                	mov    esi,eax
  40b188:	c1 ee 13             	shr    esi,0x13
  40b18b:	83 e6 0f             	and    esi,0xf
  40b18e:	83 fe 0d             	cmp    esi,0xd
  40b191:	74 50                	je     40b1e3 <_Z6searchP7state_tiiiii+0xe83>
  40b193:	8b 0c 8d f0 13 41 00 	mov    ecx,DWORD PTR [rcx*4+0x4113f0]
  40b19a:	3b 0c b5 f0 13 41 00 	cmp    ecx,DWORD PTR [rsi*4+0x4113f0]
  40b1a1:	75 40                	jne    40b1e3 <_Z6searchP7state_tiiiii+0xe83>
  40b1a3:	44 89 c1             	mov    ecx,r8d
  40b1a6:	83 e1 3f             	and    ecx,0x3f
  40b1a9:	83 e0 3f             	and    eax,0x3f
  40b1ac:	39 c1                	cmp    ecx,eax
  40b1ae:	75 33                	jne    40b1e3 <_Z6searchP7state_tiiiii+0xe83>
  40b1b0:	31 f6                	xor    esi,esi
  40b1b2:	41 83 be cc 01 00 00 	cmp    DWORD PTR [r14+0x1cc],0x0
  40b1b9:	00 
  40b1ba:	40 0f 94 c6          	sete   sil
  40b1be:	41 c1 e8 0c          	shr    r8d,0xc
  40b1c2:	41 83 e0 0f          	and    r8d,0xf
  40b1c6:	4c 89 f7             	mov    rdi,r14
  40b1c9:	e8 f2 1f 00 00       	call   40d1c0 <_Z3seeP7state_tiiii>
  40b1ce:	85 c0                	test   eax,eax
  40b1d0:	7e 11                	jle    40b1e3 <_Z6searchP7state_tiiiii+0xe83>
  40b1d2:	80 7c 24 5c 00       	cmp    BYTE PTR [rsp+0x5c],0x0
  40b1d7:	74 06                	je     40b1df <_Z6searchP7state_tiiiii+0xe7f>
  40b1d9:	41 83 c7 03          	add    r15d,0x3
  40b1dd:	eb 04                	jmp    40b1e3 <_Z6searchP7state_tiiiii+0xe83>
  40b1df:	41 83 c7 01          	add    r15d,0x1
  40b1e3:	8b 44 24 0c          	mov    eax,DWORD PTR [rsp+0xc]
  40b1e7:	83 7c 24 44 00       	cmp    DWORD PTR [rsp+0x44],0x0
  40b1ec:	74 14                	je     40b202 <_Z6searchP7state_tiiiii+0xea2>
  40b1ee:	45 85 ff             	test   r15d,r15d
  40b1f1:	74 0f                	je     40b202 <_Z6searchP7state_tiiiii+0xea2>
  40b1f3:	83 f8 01             	cmp    eax,0x1
  40b1f6:	75 0a                	jne    40b202 <_Z6searchP7state_tiiiii+0xea2>
  40b1f8:	c7 44 24 14 01 00 00 	mov    DWORD PTR [rsp+0x14],0x1
  40b1ff:	00 
  40b200:	eb 23                	jmp    40b225 <_Z6searchP7state_tiiiii+0xec5>
  40b202:	83 7c 24 44 00       	cmp    DWORD PTR [rsp+0x44],0x0
  40b207:	74 1c                	je     40b225 <_Z6searchP7state_tiiiii+0xec5>
  40b209:	45 85 ff             	test   r15d,r15d
  40b20c:	75 17                	jne    40b225 <_Z6searchP7state_tiiiii+0xec5>
  40b20e:	83 f8 01             	cmp    eax,0x1
  40b211:	75 12                	jne    40b225 <_Z6searchP7state_tiiiii+0xec5>
  40b213:	c7 44 24 14 00 00 00 	mov    DWORD PTR [rsp+0x14],0x0
  40b21a:	00 
  40b21b:	8b 84 24 80 00 00 00 	mov    eax,DWORD PTR [rsp+0x80]
  40b222:	41 89 c7             	mov    r15d,eax
  40b225:	41 83 ff 05          	cmp    r15d,0x5
  40b229:	b8 04 00 00 00       	mov    eax,0x4
  40b22e:	44 0f 4d f8          	cmovge r15d,eax
  40b232:	48 63 44 24 04       	movsxd rax,DWORD PTR [rsp+0x4]
  40b237:	8b 84 84 b0 00 00 00 	mov    eax,DWORD PTR [rsp+rax*4+0xb0]
  40b23e:	c1 e8 13             	shr    eax,0x13
  40b241:	89 c1                	mov    ecx,eax
  40b243:	80 e1 0f             	and    cl,0xf
  40b246:	80 f9 0d             	cmp    cl,0xd
  40b249:	77 0e                	ja     40b259 <_Z6searchP7state_tiiiii+0xef9>
  40b24b:	83 e0 0f             	and    eax,0xf
  40b24e:	b9 06 20 00 00       	mov    ecx,0x2006
  40b253:	48 0f a3 c1          	bt     rcx,rax
  40b257:	72 10                	jb     40b269 <_Z6searchP7state_tiiiii+0xf09>
  40b259:	41 8d 47 04          	lea    eax,[r15+0x4]
  40b25d:	83 bc 24 84 00 00 00 	cmp    DWORD PTR [rsp+0x84],0x1
  40b264:	01 
  40b265:	44 0f 44 f8          	cmove  r15d,eax
  40b269:	48 63 44 24 04       	movsxd rax,DWORD PTR [rsp+0x4]
  40b26e:	8b 9c 84 b0 00 00 00 	mov    ebx,DWORD PTR [rsp+rax*4+0xb0]
  40b275:	89 dd                	mov    ebp,ebx
  40b277:	81 e5 00 00 78 00    	and    ebp,0x780000
  40b27d:	48 8b 44 24 30       	mov    rax,QWORD PTR [rsp+0x30]
  40b282:	3b 44 24 4c          	cmp    eax,DWORD PTR [rsp+0x4c]
  40b286:	7e 61                	jle    40b2e9 <_Z6searchP7state_tiiiii+0xf89>
  40b288:	81 fd 00 00 68 00    	cmp    ebp,0x680000
  40b28e:	75 59                	jne    40b2e9 <_Z6searchP7state_tiiiii+0xf89>
  40b290:	4c 89 f7             	mov    rdi,r14
  40b293:	89 de                	mov    esi,ebx
  40b295:	8b 54 24 4c          	mov    edx,DWORD PTR [rsp+0x4c]
  40b299:	e8 82 f0 ff ff       	call   40a320 <_ZL15history_pre_cutP7state_tii>
  40b29e:	f7 c3 00 f0 00 00    	test   ebx,0xf000
  40b2a4:	75 43                	jne    40b2e9 <_Z6searchP7state_tiiiii+0xf89>
  40b2a6:	44 3b 6c 24 18       	cmp    r13d,DWORD PTR [rsp+0x18]
  40b2ab:	75 3c                	jne    40b2e9 <_Z6searchP7state_tiiiii+0xf89>
  40b2ad:	45 85 ff             	test   r15d,r15d
  40b2b0:	75 37                	jne    40b2e9 <_Z6searchP7state_tiiiii+0xf89>
  40b2b2:	41 83 fc 18          	cmp    r12d,0x18
  40b2b6:	7f 31                	jg     40b2e9 <_Z6searchP7state_tiiiii+0xf89>
  40b2b8:	85 c0                	test   eax,eax
  40b2ba:	74 2d                	je     40b2e9 <_Z6searchP7state_tiiiii+0xf89>
  40b2bc:	48 8d 7c 24 04       	lea    rdi,[rsp+0x4]
  40b2c1:	48 8d b4 24 70 04 00 	lea    rsi,[rsp+0x470]
  40b2c8:	00 
  40b2c9:	48 8d 94 24 b0 00 00 	lea    rdx,[rsp+0xb0]
  40b2d0:	00 
  40b2d1:	8b 4c 24 08          	mov    ecx,DWORD PTR [rsp+0x8]
  40b2d5:	e8 c6 ef ff ff       	call   40a2a0 <_ZL15remove_one_fastPiS_S_i>
  40b2da:	31 db                	xor    ebx,ebx
  40b2dc:	85 c0                	test   eax,eax
  40b2de:	0f 85 1d fe ff ff    	jne    40b101 <_Z6searchP7state_tiiiii+0xda1>
  40b2e4:	e9 cf 03 00 00       	jmp    40b6b8 <_Z6searchP7state_tiiiii+0x1358>
  40b2e9:	41 83 fc 08          	cmp    r12d,0x8
  40b2ed:	7f 1c                	jg     40b30b <_Z6searchP7state_tiiiii+0xfab>
  40b2ef:	48 8b 44 24 50       	mov    rax,QWORD PTR [rsp+0x50]
  40b2f4:	39 84 24 9c 00 00 00 	cmp    DWORD PTR [rsp+0x9c],eax
  40b2fb:	0f 9c c1             	setl   cl
  40b2fe:	89 4c 24 78          	mov    DWORD PTR [rsp+0x78],ecx
  40b302:	39 84 24 98 00 00 00 	cmp    DWORD PTR [rsp+0x98],eax
  40b309:	eb 23                	jmp    40b32e <_Z6searchP7state_tiiiii+0xfce>
  40b30b:	41 83 fc 0c          	cmp    r12d,0xc
  40b30f:	48 8b 84 24 88 00 00 	mov    rax,QWORD PTR [rsp+0x88]
  40b316:	00 
  40b317:	7f 1e                	jg     40b337 <_Z6searchP7state_tiiiii+0xfd7>
  40b319:	48 8b 4c 24 50       	mov    rcx,QWORD PTR [rsp+0x50]
  40b31e:	39 8c 24 94 00 00 00 	cmp    DWORD PTR [rsp+0x94],ecx
  40b325:	0f 9c c2             	setl   dl
  40b328:	89 54 24 78          	mov    DWORD PTR [rsp+0x78],edx
  40b32c:	39 c8                	cmp    eax,ecx
  40b32e:	0f 9c c0             	setl   al
  40b331:	89 44 24 7c          	mov    DWORD PTR [rsp+0x7c],eax
  40b335:	eb 10                	jmp    40b347 <_Z6searchP7state_tiiiii+0xfe7>
  40b337:	c7 44 24 78 00 00 00 	mov    DWORD PTR [rsp+0x78],0x0
  40b33e:	00 
  40b33f:	c7 44 24 7c 00 00 00 	mov    DWORD PTR [rsp+0x7c],0x0
  40b346:	00 
  40b347:	c7 44 24 60 c0 bd f0 	mov    DWORD PTR [rsp+0x60],0xfff0bdc0
  40b34e:	ff 
  40b34f:	81 fd 00 00 68 00    	cmp    ebp,0x680000
  40b355:	74 30                	je     40b387 <_Z6searchP7state_tiiiii+0x1027>
  40b357:	31 f6                	xor    esi,esi
  40b359:	41 83 be cc 01 00 00 	cmp    DWORD PTR [r14+0x1cc],0x0
  40b360:	00 
  40b361:	40 0f 94 c6          	sete   sil
  40b365:	89 da                	mov    edx,ebx
  40b367:	c1 ea 06             	shr    edx,0x6
  40b36a:	83 e2 3f             	and    edx,0x3f
  40b36d:	89 d9                	mov    ecx,ebx
  40b36f:	83 e1 3f             	and    ecx,0x3f
  40b372:	c1 eb 0c             	shr    ebx,0xc
  40b375:	83 e3 0f             	and    ebx,0xf
  40b378:	4c 89 f7             	mov    rdi,r14
  40b37b:	41 89 d8             	mov    r8d,ebx
  40b37e:	e8 3d 1e 00 00       	call   40d1c0 <_Z3seeP7state_tiiii>
  40b383:	89 44 24 60          	mov    DWORD PTR [rsp+0x60],eax
  40b387:	48 63 44 24 04       	movsxd rax,DWORD PTR [rsp+0x4]
  40b38c:	8b b4 84 b0 00 00 00 	mov    esi,DWORD PTR [rsp+rax*4+0xb0]
  40b393:	4c 89 f7             	mov    rdi,r14
  40b396:	e8 15 ac ff ff       	call   405fb0 <_Z4makeP7state_ti>
  40b39b:	48 63 44 24 04       	movsxd rax,DWORD PTR [rsp+0x4]
  40b3a0:	8b b4 84 b0 00 00 00 	mov    esi,DWORD PTR [rsp+rax*4+0xb0]
  40b3a7:	4c 89 f7             	mov    rdi,r14
  40b3aa:	e8 d1 b6 ff ff       	call   406a80 <_Z11check_legalP7state_ti>
  40b3af:	45 31 ed             	xor    r13d,r13d
  40b3b2:	85 c0                	test   eax,eax
  40b3b4:	74 1b                	je     40b3d1 <_Z6searchP7state_tiiiii+0x1071>
  40b3b6:	4c 89 f7             	mov    rdi,r14
  40b3b9:	e8 22 61 ff ff       	call   4014e0 <_Z8in_checkP7state_t>
  40b3be:	89 c5                	mov    ebp,eax
  40b3c0:	85 c0                	test   eax,eax
  40b3c2:	74 1d                	je     40b3e1 <_Z6searchP7state_tiiiii+0x1081>
  40b3c4:	80 7c 24 5c 00       	cmp    BYTE PTR [rsp+0x5c],0x0
  40b3c9:	74 12                	je     40b3dd <_Z6searchP7state_tiiiii+0x107d>
  40b3cb:	41 83 c7 04          	add    r15d,0x4
  40b3cf:	eb 10                	jmp    40b3e1 <_Z6searchP7state_tiiiii+0x1081>
  40b3d1:	45 31 ff             	xor    r15d,r15d
  40b3d4:	8b 5c 24 70          	mov    ebx,DWORD PTR [rsp+0x70]
  40b3d8:	e9 18 02 00 00       	jmp    40b5f5 <_Z6searchP7state_tiiiii+0x1295>
  40b3dd:	41 83 c7 02          	add    r15d,0x2
  40b3e1:	8b 44 24 18          	mov    eax,DWORD PTR [rsp+0x18]
  40b3e5:	39 44 24 20          	cmp    DWORD PTR [rsp+0x20],eax
  40b3e9:	75 5e                	jne    40b449 <_Z6searchP7state_tiiiii+0x10e9>
  40b3eb:	89 e8                	mov    eax,ebp
  40b3ed:	0b 44 24 68          	or     eax,DWORD PTR [rsp+0x68]
  40b3f1:	75 56                	jne    40b449 <_Z6searchP7state_tiiiii+0x10e9>
  40b3f3:	83 7c 24 60 55       	cmp    DWORD PTR [rsp+0x60],0x55
  40b3f8:	0f 9f c0             	setg   al
  40b3fb:	8b 4c 24 7c          	mov    ecx,DWORD PTR [rsp+0x7c]
  40b3ff:	80 f1 01             	xor    cl,0x1
  40b402:	08 c1                	or     cl,al
  40b404:	75 18                	jne    40b41e <_Z6searchP7state_tiiiii+0x10be>
  40b406:	48 63 44 24 04       	movsxd rax,DWORD PTR [rsp+0x4]
  40b40b:	8b b4 84 b0 00 00 00 	mov    esi,DWORD PTR [rsp+rax*4+0xb0]
  40b412:	f7 c6 00 f0 00 00    	test   esi,0xf000
  40b418:	0f 84 fe 00 00 00    	je     40b51c <_Z6searchP7state_tiiiii+0x11bc>
  40b41e:	83 7c 24 60 cd       	cmp    DWORD PTR [rsp+0x60],0xffffffcd
  40b423:	0f 9f c0             	setg   al
  40b426:	8b 4c 24 78          	mov    ecx,DWORD PTR [rsp+0x78]
  40b42a:	80 f1 01             	xor    cl,0x1
  40b42d:	08 c1                	or     cl,al
  40b42f:	75 18                	jne    40b449 <_Z6searchP7state_tiiiii+0x10e9>
  40b431:	48 63 44 24 04       	movsxd rax,DWORD PTR [rsp+0x4]
  40b436:	8b b4 84 b0 00 00 00 	mov    esi,DWORD PTR [rsp+rax*4+0xb0]
  40b43d:	f7 c6 00 f0 00 00    	test   esi,0xf000
  40b443:	0f 84 d3 00 00 00    	je     40b51c <_Z6searchP7state_tiiiii+0x11bc>
  40b449:	85 ed                	test   ebp,ebp
  40b44b:	0f 95 c0             	setne  al
  40b44e:	43 8d 0c 27          	lea    ecx,[r15+r12*1]
  40b452:	ba 82 00 00 00       	mov    edx,0x82
  40b457:	2b 54 24 50          	sub    edx,DWORD PTR [rsp+0x50]
  40b45b:	83 f9 04             	cmp    ecx,0x4
  40b45e:	0f 9f c1             	setg   cl
  40b461:	08 c1                	or     cl,al
  40b463:	0f b6 c9             	movzx  ecx,cl
  40b466:	4c 89 f7             	mov    rdi,r14
  40b469:	8b 74 24 64          	mov    esi,DWORD PTR [rsp+0x64]
  40b46d:	e8 1e d1 ff ff       	call   408590 <_Z4evalP7state_tiii>
  40b472:	31 db                	xor    ebx,ebx
  40b474:	43 8d 0c 27          	lea    ecx,[r15+r12*1]
  40b478:	83 c1 fc             	add    ecx,0xfffffffc
  40b47b:	49 63 86 d8 01 00 00 	movsxd rax,DWORD PTR [r14+0x1d8]
  40b482:	89 ef                	mov    edi,ebp
  40b484:	41 89 ac 86 04 10 00 	mov    DWORD PTR [r14+rax*4+0x1004],ebp
  40b48b:	00 
  40b48c:	49 8b 86 e0 01 00 00 	mov    rax,QWORD PTR [r14+0x1e0]
  40b493:	8b 35 db bc b5 00    	mov    esi,DWORD PTR [rip+0xb5bcdb]        # f67174 <gamestate+0x3c>
  40b499:	49 63 96 d8 01 00 00 	movsxd rdx,DWORD PTR [r14+0x1d8]
  40b4a0:	8d 74 32 ff          	lea    esi,[rdx+rsi*1-0x1]
  40b4a4:	48 63 f6             	movsxd rsi,esi
  40b4a7:	49 89 84 f6 30 11 00 	mov    QWORD PTR [r14+rsi*8+0x1130],rax
  40b4ae:	00 
  40b4af:	48 63 44 24 04       	movsxd rax,DWORD PTR [rsp+0x4]
  40b4b4:	8b ac 84 b0 00 00 00 	mov    ebp,DWORD PTR [rsp+rax*4+0xb0]
  40b4bb:	41 89 ac 96 ec 09 00 	mov    DWORD PTR [r14+rdx*4+0x9ec],ebp
  40b4c2:	00 
  40b4c3:	41 83 fc 05          	cmp    r12d,0x5
  40b4c7:	7c 71                	jl     40b53a <_Z6searchP7state_tiiiii+0x11da>
  40b4c9:	83 7c 24 30 04       	cmp    DWORD PTR [rsp+0x30],0x4
  40b4ce:	7c 6a                	jl     40b53a <_Z6searchP7state_tiiiii+0x11da>
  40b4d0:	83 7c 24 60 cd       	cmp    DWORD PTR [rsp+0x60],0xffffffcd
  40b4d5:	7f 63                	jg     40b53a <_Z6searchP7state_tiiiii+0x11da>
  40b4d7:	8b 44 24 18          	mov    eax,DWORD PTR [rsp+0x18]
  40b4db:	39 44 24 20          	cmp    DWORD PTR [rsp+0x20],eax
  40b4df:	75 59                	jne    40b53a <_Z6searchP7state_tiiiii+0x11da>
  40b4e1:	44 09 ff             	or     edi,r15d
  40b4e4:	75 54                	jne    40b53a <_Z6searchP7state_tiiiii+0x11da>
  40b4e6:	89 cb                	mov    ebx,ecx
  40b4e8:	4c 89 f7             	mov    rdi,r14
  40b4eb:	89 ee                	mov    esi,ebp
  40b4ed:	e8 0e 05 00 00       	call   40ba00 <_ZL13history_scoreP7state_ti>
  40b4f2:	f7 c5 00 f0 00 00    	test   ebp,0xf000
  40b4f8:	75 3c                	jne    40b536 <_Z6searchP7state_tiiiii+0x11d6>
  40b4fa:	83 f8 4f             	cmp    eax,0x4f
  40b4fd:	7f 37                	jg     40b536 <_Z6searchP7state_tiiiii+0x11d6>
  40b4ff:	48 8b 84 24 a8 00 00 	mov    rax,QWORD PTR [rsp+0xa8]
  40b506:	00 
  40b507:	42 8d 0c 38          	lea    ecx,[rax+r15*1]
  40b50b:	83 c1 fc             	add    ecx,0xfffffffc
  40b50e:	41 8d 47 fc          	lea    eax,[r15-0x4]
  40b512:	bb 04 00 00 00       	mov    ebx,0x4
  40b517:	41 89 c7             	mov    r15d,eax
  40b51a:	eb 1e                	jmp    40b53a <_Z6searchP7state_tiiiii+0x11da>
  40b51c:	4c 89 f7             	mov    rdi,r14
  40b51f:	e8 9c b1 ff ff       	call   4066c0 <_Z6unmakeP7state_ti>
  40b524:	31 db                	xor    ebx,ebx
  40b526:	48 8b 6c 24 50       	mov    rbp,QWORD PTR [rsp+0x50]
  40b52b:	89 e8                	mov    eax,ebp
  40b52d:	89 6c 24 28          	mov    DWORD PTR [rsp+0x28],ebp
  40b531:	e9 4e 01 00 00       	jmp    40b684 <_Z6searchP7state_tiiiii+0x1324>
  40b536:	89 d9                	mov    ecx,ebx
  40b538:	31 db                	xor    ebx,ebx
  40b53a:	48 8b 44 24 50       	mov    rax,QWORD PTR [rsp+0x50]
  40b53f:	89 c5                	mov    ebp,eax
  40b541:	f7 dd                	neg    ebp
  40b543:	83 7c 24 44 01       	cmp    DWORD PTR [rsp+0x44],0x1
  40b548:	75 1f                	jne    40b569 <_Z6searchP7state_tiiiii+0x1209>
  40b54a:	85 c9                	test   ecx,ecx
  40b54c:	7e 79                	jle    40b5c7 <_Z6searchP7state_tiiiii+0x1267>
  40b54e:	45 31 c0             	xor    r8d,r8d
  40b551:	4c 89 f7             	mov    rdi,r14
  40b554:	8b 74 24 64          	mov    esi,DWORD PTR [rsp+0x64]
  40b558:	89 ea                	mov    edx,ebp
  40b55a:	44 8b 8c 24 90 00 00 	mov    r9d,DWORD PTR [rsp+0x90]
  40b561:	00 
  40b562:	e8 f9 ed ff ff       	call   40a360 <_Z6searchP7state_tiiiii>
  40b567:	eb 71                	jmp    40b5da <_Z6searchP7state_tiiiii+0x127a>
  40b569:	89 c6                	mov    esi,eax
  40b56b:	f7 d6                	not    esi
  40b56d:	85 c9                	test   ecx,ecx
  40b56f:	7e 15                	jle    40b586 <_Z6searchP7state_tiiiii+0x1226>
  40b571:	45 31 c0             	xor    r8d,r8d
  40b574:	41 b9 01 00 00 00    	mov    r9d,0x1
  40b57a:	4c 89 f7             	mov    rdi,r14
  40b57d:	89 ea                	mov    edx,ebp
  40b57f:	e8 dc ed ff ff       	call   40a360 <_Z6searchP7state_tiiiii>
  40b584:	eb 0f                	jmp    40b595 <_Z6searchP7state_tiiiii+0x1235>
  40b586:	31 c9                	xor    ecx,ecx
  40b588:	45 31 c0             	xor    r8d,r8d
  40b58b:	4c 89 f7             	mov    rdi,r14
  40b58e:	89 ea                	mov    edx,ebp
  40b590:	e8 cb e1 ff ff       	call   409760 <_Z7qsearchP7state_tiiii>
  40b595:	f7 d8                	neg    eax
  40b597:	39 44 24 50          	cmp    DWORD PTR [rsp+0x50],eax
  40b59b:	7d 3f                	jge    40b5dc <_Z6searchP7state_tiiiii+0x127c>
  40b59d:	39 44 24 28          	cmp    DWORD PTR [rsp+0x28],eax
  40b5a1:	7d 39                	jge    40b5dc <_Z6searchP7state_tiiiii+0x127c>
  40b5a3:	8b 0d 8f 48 b6 00    	mov    ecx,DWORD PTR [rip+0xb6488f]        # f6fe38 <gamestate+0x8d00>
  40b5a9:	85 c9                	test   ecx,ecx
  40b5ab:	75 2f                	jne    40b5dc <_Z6searchP7state_tiiiii+0x127c>
  40b5ad:	85 db                	test   ebx,ebx
  40b5af:	75 06                	jne    40b5b7 <_Z6searchP7state_tiiiii+0x1257>
  40b5b1:	39 44 24 20          	cmp    DWORD PTR [rsp+0x20],eax
  40b5b5:	7e 25                	jle    40b5dc <_Z6searchP7state_tiiiii+0x127c>
  40b5b7:	42 8d 0c 23          	lea    ecx,[rbx+r12*1]
  40b5bb:	44 01 f9             	add    ecx,r15d
  40b5be:	83 f9 04             	cmp    ecx,0x4
  40b5c1:	0f 8f 14 fb ff ff    	jg     40b0db <_Z6searchP7state_tiiiii+0xd7b>
  40b5c7:	31 c9                	xor    ecx,ecx
  40b5c9:	45 31 c0             	xor    r8d,r8d
  40b5cc:	4c 89 f7             	mov    rdi,r14
  40b5cf:	8b 74 24 64          	mov    esi,DWORD PTR [rsp+0x64]
  40b5d3:	89 ea                	mov    edx,ebp
  40b5d5:	e8 86 e1 ff ff       	call   409760 <_Z7qsearchP7state_tiiii>
  40b5da:	f7 d8                	neg    eax
  40b5dc:	8b 4c 24 28          	mov    ecx,DWORD PTR [rsp+0x28]
  40b5e0:	39 c8                	cmp    eax,ecx
  40b5e2:	89 44 24 2c          	mov    DWORD PTR [rsp+0x2c],eax
  40b5e6:	0f 4d c8             	cmovge ecx,eax
  40b5e9:	89 4c 24 28          	mov    DWORD PTR [rsp+0x28],ecx
  40b5ed:	31 db                	xor    ebx,ebx
  40b5ef:	41 bf 01 00 00 00    	mov    r15d,0x1
  40b5f5:	48 63 44 24 04       	movsxd rax,DWORD PTR [rsp+0x4]
  40b5fa:	8b b4 84 b0 00 00 00 	mov    esi,DWORD PTR [rsp+rax*4+0xb0]
  40b601:	4c 89 f7             	mov    rdi,r14
  40b604:	e8 b7 b0 ff ff       	call   4066c0 <_Z6unmakeP7state_ti>
  40b609:	83 3d 28 48 b6 00 00 	cmp    DWORD PTR [rip+0xb64828],0x0        # f6fe38 <gamestate+0x8d00>
  40b610:	48 8b 6c 24 50       	mov    rbp,QWORD PTR [rsp+0x50]
  40b615:	0f 85 db ed ff ff    	jne    40a3f6 <_Z6searchP7state_tiiiii+0x96>
  40b61b:	45 85 ff             	test   r15d,r15d
  40b61e:	74 64                	je     40b684 <_Z6searchP7state_tiiiii+0x1324>
  40b620:	39 6c 24 2c          	cmp    DWORD PTR [rsp+0x2c],ebp
  40b624:	4c 8b 6c 24 20       	mov    r13,QWORD PTR [rsp+0x20]
  40b629:	44 8b 7c 24 08       	mov    r15d,DWORD PTR [rsp+0x8]
  40b62e:	7e 27                	jle    40b657 <_Z6searchP7state_tiiiii+0x12f7>
  40b630:	48 63 44 24 04       	movsxd rax,DWORD PTR [rsp+0x4]
  40b635:	8b 84 84 b0 00 00 00 	mov    eax,DWORD PTR [rsp+rax*4+0xb0]
  40b63c:	8b 6c 24 2c          	mov    ebp,DWORD PTR [rsp+0x2c]
  40b640:	44 39 ed             	cmp    ebp,r13d
  40b643:	0f 8d 4d 01 00 00    	jge    40b796 <_Z6searchP7state_tiiiii+0x1436>
  40b649:	89 c7                	mov    edi,eax
  40b64b:	e8 b0 26 00 00       	call   40dd00 <_Z12compact_movei>
  40b650:	0f b7 c0             	movzx  eax,ax
  40b653:	89 44 24 1c          	mov    DWORD PTR [rsp+0x1c],eax
  40b657:	48 63 44 24 04       	movsxd rax,DWORD PTR [rsp+0x4]
  40b65c:	8b 84 84 b0 00 00 00 	mov    eax,DWORD PTR [rsp+rax*4+0xb0]
  40b663:	48 8b 54 24 30       	mov    rdx,QWORD PTR [rsp+0x30]
  40b668:	48 63 ca             	movsxd rcx,edx
  40b66b:	89 84 8c 2c 08 00 00 	mov    DWORD PTR [rsp+rcx*4+0x82c],eax
  40b672:	83 c2 01             	add    edx,0x1
  40b675:	48 89 54 24 30       	mov    QWORD PTR [rsp+0x30],rdx
  40b67a:	c7 44 24 44 00 00 00 	mov    DWORD PTR [rsp+0x44],0x0
  40b681:	00 
  40b682:	eb 0a                	jmp    40b68e <_Z6searchP7state_tiiiii+0x132e>
  40b684:	4c 8b 6c 24 20       	mov    r13,QWORD PTR [rsp+0x20]
  40b689:	44 8b 7c 24 08       	mov    r15d,DWORD PTR [rsp+0x8]
  40b68e:	48 8d 7c 24 04       	lea    rdi,[rsp+0x4]
  40b693:	48 8d b4 24 70 04 00 	lea    rsi,[rsp+0x470]
  40b69a:	00 
  40b69b:	48 8d 94 24 b0 00 00 	lea    rdx,[rsp+0xb0]
  40b6a2:	00 
  40b6a3:	44 89 f9             	mov    ecx,r15d
  40b6a6:	e8 f5 eb ff ff       	call   40a2a0 <_ZL15remove_one_fastPiS_S_i>
  40b6ab:	85 c0                	test   eax,eax
  40b6ad:	0f 85 42 fa ff ff    	jne    40b0f5 <_Z6searchP7state_tiiiii+0xd95>
  40b6b3:	e9 e7 f6 ff ff       	jmp    40ad9f <_Z6searchP7state_tiiiii+0xa3f>
  40b6b8:	83 3d 79 47 b6 00 00 	cmp    DWORD PTR [rip+0xb64779],0x0        # f6fe38 <gamestate+0x8d00>
  40b6bf:	0f 94 c0             	sete   al
  40b6c2:	45 31 ed             	xor    r13d,r13d
  40b6c5:	41 83 be dc 01 00 00 	cmp    DWORD PTR [r14+0x1dc],0x62
  40b6cc:	62 
  40b6cd:	44 0f 4e 6c 24 28    	cmovle r13d,DWORD PTR [rsp+0x28]
  40b6d3:	0f 8f 1d ed ff ff    	jg     40a3f6 <_Z6searchP7state_tiiiii+0x96>
  40b6d9:	84 c0                	test   al,al
  40b6db:	48 8b 4c 24 20       	mov    rcx,QWORD PTR [rsp+0x20]
  40b6e0:	0f 84 10 ed ff ff    	je     40a3f6 <_Z6searchP7state_tiiiii+0x96>
  40b6e6:	44 8b 44 24 1c       	mov    r8d,DWORD PTR [rsp+0x1c]
  40b6eb:	44 8b 4c 24 10       	mov    r9d,DWORD PTR [rsp+0x10]
  40b6f0:	8b 44 24 0c          	mov    eax,DWORD PTR [rsp+0xc]
  40b6f4:	8b 6c 24 14          	mov    ebp,DWORD PTR [rsp+0x14]
  40b6f8:	48 83 ec 08          	sub    rsp,0x8
  40b6fc:	4c 89 f7             	mov    rdi,r14
  40b6ff:	44 8b 6c 24 30       	mov    r13d,DWORD PTR [rsp+0x30]
  40b704:	44 89 ee             	mov    esi,r13d
  40b707:	48 8b 54 24 40       	mov    rdx,QWORD PTR [rsp+0x40]
  40b70c:	41 54                	push   r12
  40b70e:	55                   	push   rbp
  40b70f:	50                   	push   rax
  40b710:	e8 db 20 00 00       	call   40d7f0 <_Z7StoreTTP7state_tiiijiiii>
  40b715:	48 83 c4 20          	add    rsp,0x20
  40b719:	e9 d8 ec ff ff       	jmp    40a3f6 <_Z6searchP7state_tiiiii+0x96>
  40b71e:	8b 5c 24 08          	mov    ebx,DWORD PTR [rsp+0x8]
  40b722:	83 3d 13 ba b5 00 02 	cmp    DWORD PTR [rip+0xb5ba13],0x2        # f6713c <gamestate+0x4>
  40b729:	0f 85 b8 f2 ff ff    	jne    40a9e7 <_Z6searchP7state_tiiiii+0x687>
  40b72f:	e9 1e f5 ff ff       	jmp    40ac52 <_Z6searchP7state_tiiiii+0x8f2>
  40b734:	44 8b 44 24 1c       	mov    r8d,DWORD PTR [rsp+0x1c]
  40b739:	44 8b 4c 24 10       	mov    r9d,DWORD PTR [rsp+0x10]
  40b73e:	8b 44 24 14          	mov    eax,DWORD PTR [rsp+0x14]
  40b742:	48 83 ec 08          	sub    rsp,0x8
  40b746:	4c 89 f7             	mov    rdi,r14
  40b749:	44 89 ee             	mov    esi,r13d
  40b74c:	48 8b 54 24 40       	mov    rdx,QWORD PTR [rsp+0x40]
  40b751:	48 8b 4c 24 28       	mov    rcx,QWORD PTR [rsp+0x28]
  40b756:	41 54                	push   r12
  40b758:	50                   	push   rax
  40b759:	6a 00                	push   0x0
  40b75b:	eb b3                	jmp    40b710 <_Z6searchP7state_tiiiii+0x13b0>
  40b75d:	44 8b 44 24 1c       	mov    r8d,DWORD PTR [rsp+0x1c]
  40b762:	44 8b 4c 24 10       	mov    r9d,DWORD PTR [rsp+0x10]
  40b767:	8b 44 24 14          	mov    eax,DWORD PTR [rsp+0x14]
  40b76b:	48 83 ec 08          	sub    rsp,0x8
  40b76f:	4c 89 f7             	mov    rdi,r14
  40b772:	48 8b 5c 24 28       	mov    rbx,QWORD PTR [rsp+0x28]
  40b777:	89 de                	mov    esi,ebx
  40b779:	48 8b 54 24 40       	mov    rdx,QWORD PTR [rsp+0x40]
  40b77e:	89 d9                	mov    ecx,ebx
  40b780:	41 54                	push   r12
  40b782:	50                   	push   rax
  40b783:	6a 00                	push   0x0
  40b785:	e8 66 20 00 00       	call   40d7f0 <_Z7StoreTTP7state_tiiijiiii>
  40b78a:	48 83 c4 20          	add    rsp,0x20
  40b78e:	41 89 dd             	mov    r13d,ebx
  40b791:	e9 60 ec ff ff       	jmp    40a3f6 <_Z6searchP7state_tiiiii+0x96>
  40b796:	4c 89 f7             	mov    rdi,r14
  40b799:	89 c6                	mov    esi,eax
  40b79b:	44 89 e2             	mov    edx,r12d
  40b79e:	e8 9d 02 00 00       	call   40ba40 <_ZL12history_goodP7state_tii>
  40b7a3:	48 8b 6c 24 30       	mov    rbp,QWORD PTR [rsp+0x30]
  40b7a8:	83 fd 02             	cmp    ebp,0x2
  40b7ab:	7c 20                	jl     40b7cd <_Z6searchP7state_tiiiii+0x146d>
  40b7ad:	83 c5 ff             	add    ebp,0xffffffff
  40b7b0:	31 db                	xor    ebx,ebx
  40b7b2:	8b b4 9c 30 08 00 00 	mov    esi,DWORD PTR [rsp+rbx*4+0x830]
  40b7b9:	4c 89 f7             	mov    rdi,r14
  40b7bc:	44 89 e2             	mov    edx,r12d
  40b7bf:	e8 5c 04 00 00       	call   40bc20 <_ZL11history_badP7state_tii>
  40b7c4:	48 83 c3 01          	add    rbx,0x1
  40b7c8:	48 39 dd             	cmp    rbp,rbx
  40b7cb:	75 e5                	jne    40b7b2 <_Z6searchP7state_tiiiii+0x1452>
  40b7cd:	48 63 44 24 04       	movsxd rax,DWORD PTR [rsp+0x4]
  40b7d2:	8b bc 84 b0 00 00 00 	mov    edi,DWORD PTR [rsp+rax*4+0xb0]
  40b7d9:	e8 22 25 00 00       	call   40dd00 <_Z12compact_movei>
  40b7de:	44 0f b7 c0          	movzx  r8d,ax
  40b7e2:	44 8b 4c 24 10       	mov    r9d,DWORD PTR [rsp+0x10]
  40b7e7:	8b 44 24 0c          	mov    eax,DWORD PTR [rsp+0xc]
  40b7eb:	8b 6c 24 14          	mov    ebp,DWORD PTR [rsp+0x14]
  40b7ef:	48 83 ec 08          	sub    rsp,0x8
  40b7f3:	4c 89 f7             	mov    rdi,r14
  40b7f6:	44 8b 6c 24 34       	mov    r13d,DWORD PTR [rsp+0x34]
  40b7fb:	44 89 ee             	mov    esi,r13d
  40b7fe:	e9 47 f8 ff ff       	jmp    40b04a <_Z6searchP7state_tiiiii+0xcea>
  40b803:	66 2e 0f 1f 84 00 00 	cs nop WORD PTR [rax+rax*1+0x0]
  40b80a:	00 00 00 
  40b80d:	0f 1f 00             	nop    DWORD PTR [rax]

000000000040b810 <_ZL11order_movesP7state_tPiS1_ij>:
  40b810:	55                   	push   rbp
  40b811:	41 57                	push   r15
  40b813:	41 56                	push   r14
  40b815:	41 55                	push   r13
  40b817:	41 54                	push   r12
  40b819:	53                   	push   rbx
  40b81a:	50                   	push   rax
  40b81b:	44 89 44 24 04       	mov    DWORD PTR [rsp+0x4],r8d
  40b820:	89 0c 24             	mov    DWORD PTR [rsp],ecx
  40b823:	85 c9                	test   ecx,ecx
  40b825:	0f 8e c6 01 00 00    	jle    40b9f1 <_ZL11order_movesP7state_tPiS1_ij+0x1e1>
  40b82b:	48 89 d5             	mov    rbp,rdx
  40b82e:	49 89 f4             	mov    r12,rsi
  40b831:	49 89 fd             	mov    r13,rdi
  40b834:	44 8b 34 24          	mov    r14d,DWORD PTR [rsp]
  40b838:	45 31 ff             	xor    r15d,r15d
  40b83b:	0f 1f 44 00 00       	nop    DWORD PTR [rax+rax*1+0x0]
  40b840:	43 8b 1c bc          	mov    ebx,DWORD PTR [r12+r15*4]
  40b844:	83 3d 51 86 b5 00 02 	cmp    DWORD PTR [rip+0xb58651],0x2        # f63e9c <uci_multipv>
  40b84b:	7c 33                	jl     40b880 <_ZL11order_movesP7state_tPiS1_ij+0x70>
  40b84d:	41 83 bd d8 01 00 00 	cmp    DWORD PTR [r13+0x1d8],0x1
  40b854:	01 
  40b855:	75 29                	jne    40b880 <_ZL11order_movesP7state_tPiS1_ij+0x70>
  40b857:	83 3d ee b8 b5 00 03 	cmp    DWORD PTR [rip+0xb5b8ee],0x3        # f6714c <gamestate+0x14>
  40b85e:	7c 20                	jl     40b880 <_ZL11order_movesP7state_tPiS1_ij+0x70>
  40b860:	42 8b 04 bd 60 9e f8 	mov    eax,DWORD PTR [r15*4+0xf89e60]
  40b867:	00 
  40b868:	b9 a0 86 01 00       	mov    ecx,0x186a0
  40b86d:	01 c8                	add    eax,ecx
  40b86f:	89 45 00             	mov    DWORD PTR [rbp+0x0],eax
  40b872:	e9 69 01 00 00       	jmp    40b9e0 <_ZL11order_movesP7state_tPiS1_ij+0x1d0>
  40b877:	66 0f 1f 84 00 00 00 	nop    WORD PTR [rax+rax*1+0x0]
  40b87e:	00 00 
  40b880:	83 3d 0d 86 b5 00 00 	cmp    DWORD PTR [rip+0xb5860d],0x0        # f63e94 <uci_limitstrength>
  40b887:	74 37                	je     40b8c0 <_ZL11order_movesP7state_tPiS1_ij+0xb0>
  40b889:	41 83 bd d8 01 00 00 	cmp    DWORD PTR [r13+0x1d8],0x2
  40b890:	02 
  40b891:	7c 2d                	jl     40b8c0 <_ZL11order_movesP7state_tPiS1_ij+0xb0>
  40b893:	4c 89 ef             	mov    rdi,r13
  40b896:	89 de                	mov    esi,ebx
  40b898:	48 89 ea             	mov    rdx,rbp
  40b89b:	8b 0c 24             	mov    ecx,DWORD PTR [rsp]
  40b89e:	e8 0d 17 00 00       	call   40cfb0 <_ZL12make_blunderP7state_tiPii>
  40b8a3:	85 c0                	test   eax,eax
  40b8a5:	74 19                	je     40b8c0 <_ZL11order_movesP7state_tPiS1_ij+0xb0>
  40b8a7:	c7 45 00 c0 bd f0 ff 	mov    DWORD PTR [rbp+0x0],0xfff0bdc0
  40b8ae:	e9 2d 01 00 00       	jmp    40b9e0 <_ZL11order_movesP7state_tPiS1_ij+0x1d0>
  40b8b3:	66 2e 0f 1f 84 00 00 	cs nop WORD PTR [rax+rax*1+0x0]
  40b8ba:	00 00 00 
  40b8bd:	0f 1f 00             	nop    DWORD PTR [rax]
  40b8c0:	43 8b 3c bc          	mov    edi,DWORD PTR [r12+r15*4]
  40b8c4:	e8 37 24 00 00       	call   40dd00 <_Z12compact_movei>
  40b8c9:	0f b7 c0             	movzx  eax,ax
  40b8cc:	3b 44 24 04          	cmp    eax,DWORD PTR [rsp+0x4]
  40b8d0:	75 0e                	jne    40b8e0 <_ZL11order_movesP7state_tPiS1_ij+0xd0>
  40b8d2:	c7 45 00 00 20 a1 07 	mov    DWORD PTR [rbp+0x0],0x7a12000
  40b8d9:	e9 02 01 00 00       	jmp    40b9e0 <_ZL11order_movesP7state_tPiS1_ij+0x1d0>
  40b8de:	66 90                	xchg   ax,ax
  40b8e0:	89 da                	mov    edx,ebx
  40b8e2:	c1 ea 06             	shr    edx,0x6
  40b8e5:	83 e2 3f             	and    edx,0x3f
  40b8e8:	89 d9                	mov    ecx,ebx
  40b8ea:	83 e1 3f             	and    ecx,0x3f
  40b8ed:	41 89 d8             	mov    r8d,ebx
  40b8f0:	41 c1 e8 0c          	shr    r8d,0xc
  40b8f4:	41 83 e0 0f          	and    r8d,0xf
  40b8f8:	c1 eb 13             	shr    ebx,0x13
  40b8fb:	83 e3 0f             	and    ebx,0xf
  40b8fe:	83 fb 0d             	cmp    ebx,0xd
  40b901:	75 2a                	jne    40b92d <_ZL11order_movesP7state_tPiS1_ij+0x11d>
  40b903:	45 85 c0             	test   r8d,r8d
  40b906:	75 25                	jne    40b92d <_ZL11order_movesP7state_tPiS1_ij+0x11d>
  40b908:	43 8b 04 bc          	mov    eax,DWORD PTR [r12+r15*4]
  40b90c:	49 63 b5 d8 01 00 00 	movsxd rsi,DWORD PTR [r13+0x1d8]
  40b913:	48 c1 e6 04          	shl    rsi,0x4
  40b917:	41 3b 84 35 f0 0b 00 	cmp    eax,DWORD PTR [r13+rsi*1+0xbf0]
  40b91e:	00 
  40b91f:	75 55                	jne    40b976 <_ZL11order_movesP7state_tPiS1_ij+0x166>
  40b921:	c7 45 00 00 12 7a 00 	mov    DWORD PTR [rbp+0x0],0x7a1200
  40b928:	e9 b3 00 00 00       	jmp    40b9e0 <_ZL11order_movesP7state_tPiS1_ij+0x1d0>
  40b92d:	8b 34 9d 00 08 41 00 	mov    esi,DWORD PTR [rbx*4+0x410800]
  40b934:	89 f0                	mov    eax,esi
  40b936:	f7 d8                	neg    eax
  40b938:	0f 4c c6             	cmovl  eax,esi
  40b93b:	49 63 74 95 04       	movsxd rsi,DWORD PTR [r13+rdx*4+0x4]
  40b940:	8b 34 b5 00 08 41 00 	mov    esi,DWORD PTR [rsi*4+0x410800]
  40b947:	89 f7                	mov    edi,esi
  40b949:	f7 df                	neg    edi
  40b94b:	0f 4c fe             	cmovl  edi,esi
  40b94e:	29 f8                	sub    eax,edi
  40b950:	7f 1a                	jg     40b96c <_ZL11order_movesP7state_tPiS1_ij+0x15c>
  40b952:	31 f6                	xor    esi,esi
  40b954:	41 83 bd cc 01 00 00 	cmp    DWORD PTR [r13+0x1cc],0x0
  40b95b:	00 
  40b95c:	40 0f 94 c6          	sete   sil
  40b960:	4c 89 ef             	mov    rdi,r13
  40b963:	e8 58 18 00 00       	call   40d1c0 <_Z3seeP7state_tiiii>
  40b968:	85 c0                	test   eax,eax
  40b96a:	78 05                	js     40b971 <_ZL11order_movesP7state_tPiS1_ij+0x161>
  40b96c:	05 80 96 98 00       	add    eax,0x989680
  40b971:	89 45 00             	mov    DWORD PTR [rbp+0x0],eax
  40b974:	eb 6a                	jmp    40b9e0 <_ZL11order_movesP7state_tPiS1_ij+0x1d0>
  40b976:	41 3b 84 35 f4 0b 00 	cmp    eax,DWORD PTR [r13+rsi*1+0xbf4]
  40b97d:	00 
  40b97e:	75 09                	jne    40b989 <_ZL11order_movesP7state_tPiS1_ij+0x179>
  40b980:	c7 45 00 c0 cf 6a 00 	mov    DWORD PTR [rbp+0x0],0x6acfc0
  40b987:	eb 57                	jmp    40b9e0 <_ZL11order_movesP7state_tPiS1_ij+0x1d0>
  40b989:	41 3b 84 35 f8 0b 00 	cmp    eax,DWORD PTR [r13+rsi*1+0xbf8]
  40b990:	00 
  40b991:	75 09                	jne    40b99c <_ZL11order_movesP7state_tPiS1_ij+0x18c>
  40b993:	c7 45 00 80 8d 5b 00 	mov    DWORD PTR [rbp+0x0],0x5b8d80
  40b99a:	eb 44                	jmp    40b9e0 <_ZL11order_movesP7state_tPiS1_ij+0x1d0>
  40b99c:	41 3b 84 35 fc 0b 00 	cmp    eax,DWORD PTR [r13+rsi*1+0xbfc]
  40b9a3:	00 
  40b9a4:	75 09                	jne    40b9af <_ZL11order_movesP7state_tPiS1_ij+0x19f>
  40b9a6:	c7 45 00 40 4b 4c 00 	mov    DWORD PTR [rbp+0x0],0x4c4b40
  40b9ad:	eb 31                	jmp    40b9e0 <_ZL11order_movesP7state_tPiS1_ij+0x1d0>
  40b9af:	89 d0                	mov    eax,edx
  40b9b1:	49 63 54 85 04       	movsxd rdx,DWORD PTR [r13+rax*4+0x4]
  40b9b6:	48 c1 e2 08          	shl    rdx,0x8
  40b9ba:	49 63 75 00          	movsxd rsi,DWORD PTR [r13+0x0]
  40b9be:	48 8d 34 76          	lea    rsi,[rsi+rsi*2]
  40b9c2:	48 c1 e6 0a          	shl    rsi,0xa
  40b9c6:	48 01 d6             	add    rsi,rdx
  40b9c9:	8b 8c 8e 60 9d f2 00 	mov    ecx,DWORD PTR [rsi+rcx*4+0xf29d60]
  40b9d0:	2b 8c 86 60 9d f2 00 	sub    ecx,DWORD PTR [rsi+rax*4+0xf29d60]
  40b9d7:	89 4d 00             	mov    DWORD PTR [rbp+0x0],ecx
  40b9da:	66 0f 1f 44 00 00    	nop    WORD PTR [rax+rax*1+0x0]
  40b9e0:	49 83 c7 01          	add    r15,0x1
  40b9e4:	48 83 c5 04          	add    rbp,0x4
  40b9e8:	4d 39 fe             	cmp    r14,r15
  40b9eb:	0f 85 4f fe ff ff    	jne    40b840 <_ZL11order_movesP7state_tPiS1_ij+0x30>
  40b9f1:	48 83 c4 08          	add    rsp,0x8
  40b9f5:	5b                   	pop    rbx
  40b9f6:	41 5c                	pop    r12
  40b9f8:	41 5d                	pop    r13
  40b9fa:	41 5e                	pop    r14
  40b9fc:	41 5f                	pop    r15
  40b9fe:	5d                   	pop    rbp
  40b9ff:	c3                   	ret    

000000000040ba00 <_ZL13history_scoreP7state_ti>:
  40ba00:	83 e6 3f             	and    esi,0x3f
  40ba03:	48 63 44 b7 04       	movsxd rax,DWORD PTR [rdi+rsi*4+0x4]
  40ba08:	48 c1 e0 08          	shl    rax,0x8
  40ba0c:	48 63 0f             	movsxd rcx,DWORD PTR [rdi]
  40ba0f:	48 8d 0c 49          	lea    rcx,[rcx+rcx*2]
  40ba13:	48 c1 e1 0a          	shl    rcx,0xa
  40ba17:	48 01 c1             	add    rcx,rax
  40ba1a:	8b 84 b1 60 fd f2 00 	mov    eax,DWORD PTR [rcx+rsi*4+0xf2fd60]
  40ba21:	c1 e0 07             	shl    eax,0x7
  40ba24:	83 e8 80             	sub    eax,0xffffff80
  40ba27:	8b 8c b1 60 5d f3 00 	mov    ecx,DWORD PTR [rcx+rsi*4+0xf35d60]
  40ba2e:	83 c1 01             	add    ecx,0x1
  40ba31:	99                   	cdq    
  40ba32:	f7 f9                	idiv   ecx
  40ba34:	c3                   	ret    
  40ba35:	66 2e 0f 1f 84 00 00 	cs nop WORD PTR [rax+rax*1+0x0]
  40ba3c:	00 00 00 
  40ba3f:	90                   	nop

000000000040ba40 <_ZL12history_goodP7state_tii>:
  40ba40:	89 f0                	mov    eax,esi
  40ba42:	25 00 f0 78 00       	and    eax,0x78f000
  40ba47:	3d 00 00 68 00       	cmp    eax,0x680000
  40ba4c:	0f 85 cc 01 00 00    	jne    40bc1e <_ZL12history_goodP7state_tii+0x1de>
  40ba52:	55                   	push   rbp
  40ba53:	53                   	push   rbx
  40ba54:	89 f0                	mov    eax,esi
  40ba56:	c1 e8 06             	shr    eax,0x6
  40ba59:	83 e0 3f             	and    eax,0x3f
  40ba5c:	4c 63 54 87 04       	movsxd r10,DWORD PTR [rdi+rax*4+0x4]
  40ba61:	49 83 c2 ff          	add    r10,0xffffffffffffffff
  40ba65:	41 89 f1             	mov    r9d,esi
  40ba68:	41 83 e1 3f          	and    r9d,0x3f
  40ba6c:	8d 42 03             	lea    eax,[rdx+0x3]
  40ba6f:	c1 f8 1f             	sar    eax,0x1f
  40ba72:	c1 e8 1e             	shr    eax,0x1e
  40ba75:	44 8d 04 02          	lea    r8d,[rdx+rax*1]
  40ba79:	41 83 c0 03          	add    r8d,0x3
  40ba7d:	41 c1 f8 02          	sar    r8d,0x2
  40ba81:	48 63 07             	movsxd rax,DWORD PTR [rdi]
  40ba84:	49 c1 e2 08          	shl    r10,0x8
  40ba88:	48 8d 04 40          	lea    rax,[rax+rax*2]
  40ba8c:	48 c1 e0 0a          	shl    rax,0xa
  40ba90:	4c 01 d0             	add    rax,r10
  40ba93:	46 01 84 88 60 fe f2 	add    DWORD PTR [rax+r9*4+0xf2fe60],r8d
  40ba9a:	00 
  40ba9b:	48 63 07             	movsxd rax,DWORD PTR [rdi]
  40ba9e:	48 8d 04 40          	lea    rax,[rax+rax*2]
  40baa2:	48 c1 e0 0a          	shl    rax,0xa
  40baa6:	4c 01 d0             	add    rax,r10
  40baa9:	46 01 84 88 60 5e f3 	add    DWORD PTR [rax+r9*4+0xf35e60],r8d
  40bab0:	00 
  40bab1:	48 63 07             	movsxd rax,DWORD PTR [rdi]
  40bab4:	48 8d 04 40          	lea    rax,[rax+rax*2]
  40bab8:	48 c1 e0 0a          	shl    rax,0xa
  40babc:	4c 01 d0             	add    rax,r10
  40babf:	42 81 bc 88 60 5e f3 	cmp    DWORD PTR [rax+r9*4+0xf35e60],0x4001
  40bac6:	00 01 40 00 00 
  40bacb:	7c 7a                	jl     40bb47 <_ZL12history_goodP7state_tii+0x107>
  40bacd:	45 31 db             	xor    r11d,r11d
  40bad0:	31 c9                	xor    ecx,ecx
  40bad2:	66 2e 0f 1f 84 00 00 	cs nop WORD PTR [rax+rax*1+0x0]
  40bad9:	00 00 00 
  40badc:	0f 1f 40 00          	nop    DWORD PTR [rax+0x0]
  40bae0:	b8 40 00 00 00       	mov    eax,0x40
  40bae5:	4c 89 da             	mov    rdx,r11
  40bae8:	0f 1f 84 00 00 00 00 	nop    DWORD PTR [rax+rax*1+0x0]
  40baef:	00 
  40baf0:	48 63 1f             	movsxd rbx,DWORD PTR [rdi]
  40baf3:	48 8d 1c 5b          	lea    rbx,[rbx+rbx*2]
  40baf7:	48 c1 e3 0a          	shl    rbx,0xa
  40bafb:	8b ac 1a 60 fe f2 00 	mov    ebp,DWORD PTR [rdx+rbx*1+0xf2fe60]
  40bb02:	83 c5 01             	add    ebp,0x1
  40bb05:	d1 fd                	sar    ebp,1
  40bb07:	89 ac 1a 60 fe f2 00 	mov    DWORD PTR [rdx+rbx*1+0xf2fe60],ebp
  40bb0e:	48 63 1f             	movsxd rbx,DWORD PTR [rdi]
  40bb11:	48 8d 1c 5b          	lea    rbx,[rbx+rbx*2]
  40bb15:	48 c1 e3 0a          	shl    rbx,0xa
  40bb19:	8b ac 1a 60 5e f3 00 	mov    ebp,DWORD PTR [rdx+rbx*1+0xf35e60]
  40bb20:	83 c5 01             	add    ebp,0x1
  40bb23:	d1 fd                	sar    ebp,1
  40bb25:	89 ac 1a 60 5e f3 00 	mov    DWORD PTR [rdx+rbx*1+0xf35e60],ebp
  40bb2c:	48 83 c2 04          	add    rdx,0x4
  40bb30:	48 83 c0 ff          	add    rax,0xffffffffffffffff
  40bb34:	75 ba                	jne    40baf0 <_ZL12history_goodP7state_tii+0xb0>
  40bb36:	48 83 c1 01          	add    rcx,0x1
  40bb3a:	49 81 c3 00 01 00 00 	add    r11,0x100
  40bb41:	48 83 f9 0c          	cmp    rcx,0xc
  40bb45:	75 99                	jne    40bae0 <_ZL12history_goodP7state_tii+0xa0>
  40bb47:	48 63 07             	movsxd rax,DWORD PTR [rdi]
  40bb4a:	48 8d 04 40          	lea    rax,[rax+rax*2]
  40bb4e:	48 c1 e0 0a          	shl    rax,0xa
  40bb52:	4c 01 d0             	add    rax,r10
  40bb55:	46 01 84 88 60 9e f2 	add    DWORD PTR [rax+r9*4+0xf29e60],r8d
  40bb5c:	00 
  40bb5d:	48 63 07             	movsxd rax,DWORD PTR [rdi]
  40bb60:	48 8d 04 40          	lea    rax,[rax+rax*2]
  40bb64:	48 c1 e0 0a          	shl    rax,0xa
  40bb68:	4c 01 d0             	add    rax,r10
  40bb6b:	42 81 bc 88 60 9e f2 	cmp    DWORD PTR [rax+r9*4+0xf29e60],0x7a121
  40bb72:	00 21 a1 07 00 
  40bb77:	7c 4d                	jl     40bbc6 <_ZL12history_goodP7state_tii+0x186>
  40bb79:	b8 60 9e f2 00       	mov    eax,0xf29e60
  40bb7e:	31 c9                	xor    ecx,ecx
  40bb80:	31 d2                	xor    edx,edx
  40bb82:	66 2e 0f 1f 84 00 00 	cs nop WORD PTR [rax+rax*1+0x0]
  40bb89:	00 00 00 
  40bb8c:	0f 1f 40 00          	nop    DWORD PTR [rax+0x0]
  40bb90:	48 63 2f             	movsxd rbp,DWORD PTR [rdi]
  40bb93:	48 8d 6c 6d 00       	lea    rbp,[rbp+rbp*2+0x0]
  40bb98:	48 c1 e5 0a          	shl    rbp,0xa
  40bb9c:	48 01 c5             	add    rbp,rax
  40bb9f:	8b 5c 95 00          	mov    ebx,DWORD PTR [rbp+rdx*4+0x0]
  40bba3:	83 c3 01             	add    ebx,0x1
  40bba6:	d1 fb                	sar    ebx,1
  40bba8:	89 5c 95 00          	mov    DWORD PTR [rbp+rdx*4+0x0],ebx
  40bbac:	48 83 c2 01          	add    rdx,0x1
  40bbb0:	48 83 fa 40          	cmp    rdx,0x40
  40bbb4:	75 da                	jne    40bb90 <_ZL12history_goodP7state_tii+0x150>
  40bbb6:	48 83 c1 01          	add    rcx,0x1
  40bbba:	48 05 00 01 00 00    	add    rax,0x100
  40bbc0:	48 83 f9 0c          	cmp    rcx,0xc
  40bbc4:	75 ba                	jne    40bb80 <_ZL12history_goodP7state_tii+0x140>
  40bbc6:	48 63 8f d8 01 00 00 	movsxd rcx,DWORD PTR [rdi+0x1d8]
  40bbcd:	48 c1 e1 04          	shl    rcx,0x4
  40bbd1:	8b 84 0f f0 0b 00 00 	mov    eax,DWORD PTR [rdi+rcx*1+0xbf0]
  40bbd8:	39 f0                	cmp    eax,esi
  40bbda:	5b                   	pop    rbx
  40bbdb:	5d                   	pop    rbp
  40bbdc:	74 40                	je     40bc1e <_ZL12history_goodP7state_tii+0x1de>
  40bbde:	48 8d 14 0f          	lea    rdx,[rdi+rcx*1]
  40bbe2:	48 81 c2 f0 0b 00 00 	add    rdx,0xbf0
  40bbe9:	44 8b 84 0f f4 0b 00 	mov    r8d,DWORD PTR [rdi+rcx*1+0xbf4]
  40bbf0:	00 
  40bbf1:	41 39 f0             	cmp    r8d,esi
  40bbf4:	74 23                	je     40bc19 <_ZL12history_goodP7state_tii+0x1d9>
  40bbf6:	4c 8d 0c 0f          	lea    r9,[rdi+rcx*1]
  40bbfa:	49 81 c1 f8 0b 00 00 	add    r9,0xbf8
  40bc01:	44 8b 94 0f f8 0b 00 	mov    r10d,DWORD PTR [rdi+rcx*1+0xbf8]
  40bc08:	00 
  40bc09:	41 39 f2             	cmp    r10d,esi
  40bc0c:	74 08                	je     40bc16 <_ZL12history_goodP7state_tii+0x1d6>
  40bc0e:	44 89 94 0f fc 0b 00 	mov    DWORD PTR [rdi+rcx*1+0xbfc],r10d
  40bc15:	00 
  40bc16:	45 89 01             	mov    DWORD PTR [r9],r8d
  40bc19:	89 42 04             	mov    DWORD PTR [rdx+0x4],eax
  40bc1c:	89 32                	mov    DWORD PTR [rdx],esi
  40bc1e:	c3                   	ret    
  40bc1f:	90                   	nop

000000000040bc20 <_ZL11history_badP7state_tii>:
  40bc20:	89 f0                	mov    eax,esi
  40bc22:	25 00 f0 78 00       	and    eax,0x78f000
  40bc27:	3d 00 00 68 00       	cmp    eax,0x680000
  40bc2c:	0f 85 d5 00 00 00    	jne    40bd07 <_ZL11history_badP7state_tii+0xe7>
  40bc32:	89 f0                	mov    eax,esi
  40bc34:	c1 e8 06             	shr    eax,0x6
  40bc37:	83 e0 3f             	and    eax,0x3f
  40bc3a:	48 63 44 87 04       	movsxd rax,DWORD PTR [rdi+rax*4+0x4]
  40bc3f:	48 c1 e0 08          	shl    rax,0x8
  40bc43:	83 e6 3f             	and    esi,0x3f
  40bc46:	8d 4a 03             	lea    ecx,[rdx+0x3]
  40bc49:	c1 f9 1f             	sar    ecx,0x1f
  40bc4c:	c1 e9 1e             	shr    ecx,0x1e
  40bc4f:	8d 0c 0a             	lea    ecx,[rdx+rcx*1]
  40bc52:	83 c1 03             	add    ecx,0x3
  40bc55:	c1 f9 02             	sar    ecx,0x2
  40bc58:	48 63 17             	movsxd rdx,DWORD PTR [rdi]
  40bc5b:	48 8d 14 52          	lea    rdx,[rdx+rdx*2]
  40bc5f:	48 c1 e2 0a          	shl    rdx,0xa
  40bc63:	48 01 c2             	add    rdx,rax
  40bc66:	48 81 c2 00 ff ff ff 	add    rdx,0xffffffffffffff00
  40bc6d:	01 8c b2 60 5e f3 00 	add    DWORD PTR [rdx+rsi*4+0xf35e60],ecx
  40bc74:	48 63 0f             	movsxd rcx,DWORD PTR [rdi]
  40bc77:	48 8d 0c 49          	lea    rcx,[rcx+rcx*2]
  40bc7b:	48 c1 e1 0a          	shl    rcx,0xa
  40bc7f:	48 01 c8             	add    rax,rcx
  40bc82:	48 05 00 ff ff ff    	add    rax,0xffffffffffffff00
  40bc88:	81 bc b0 60 5e f3 00 	cmp    DWORD PTR [rax+rsi*4+0xf35e60],0x4001
  40bc8f:	01 40 00 00 
  40bc93:	7c 72                	jl     40bd07 <_ZL11history_badP7state_tii+0xe7>
  40bc95:	45 31 c0             	xor    r8d,r8d
  40bc98:	45 31 c9             	xor    r9d,r9d
  40bc9b:	0f 1f 44 00 00       	nop    DWORD PTR [rax+rax*1+0x0]
  40bca0:	ba 40 00 00 00       	mov    edx,0x40
  40bca5:	4c 89 c6             	mov    rsi,r8
  40bca8:	0f 1f 84 00 00 00 00 	nop    DWORD PTR [rax+rax*1+0x0]
  40bcaf:	00 
  40bcb0:	48 63 07             	movsxd rax,DWORD PTR [rdi]
  40bcb3:	48 8d 04 40          	lea    rax,[rax+rax*2]
  40bcb7:	48 c1 e0 0a          	shl    rax,0xa
  40bcbb:	8b 8c 06 60 fe f2 00 	mov    ecx,DWORD PTR [rsi+rax*1+0xf2fe60]
  40bcc2:	83 c1 01             	add    ecx,0x1
  40bcc5:	d1 f9                	sar    ecx,1
  40bcc7:	89 8c 06 60 fe f2 00 	mov    DWORD PTR [rsi+rax*1+0xf2fe60],ecx
  40bcce:	48 63 07             	movsxd rax,DWORD PTR [rdi]
  40bcd1:	48 8d 04 40          	lea    rax,[rax+rax*2]
  40bcd5:	48 c1 e0 0a          	shl    rax,0xa
  40bcd9:	8b 8c 06 60 5e f3 00 	mov    ecx,DWORD PTR [rsi+rax*1+0xf35e60]
  40bce0:	83 c1 01             	add    ecx,0x1
  40bce3:	d1 f9                	sar    ecx,1
  40bce5:	89 8c 06 60 5e f3 00 	mov    DWORD PTR [rsi+rax*1+0xf35e60],ecx
  40bcec:	48 83 c6 04          	add    rsi,0x4
  40bcf0:	48 83 c2 ff          	add    rdx,0xffffffffffffffff
  40bcf4:	75 ba                	jne    40bcb0 <_ZL11history_badP7state_tii+0x90>
  40bcf6:	49 83 c1 01          	add    r9,0x1
  40bcfa:	49 81 c0 00 01 00 00 	add    r8,0x100
  40bd01:	49 83 f9 0c          	cmp    r9,0xc
  40bd05:	75 99                	jne    40bca0 <_ZL11history_badP7state_tii+0x80>
  40bd07:	c3                   	ret    
  40bd08:	0f 1f 84 00 00 00 00 	nop    DWORD PTR [rax+rax*1+0x0]
  40bd0f:	00 

000000000040bd10 <_Z14rootmovesearchP7state_tiiiii>:
  40bd10:	50                   	push   rax
  40bd11:	e8 4a e6 ff ff       	call   40a360 <_Z6searchP7state_tiiiii>
  40bd16:	31 c9                	xor    ecx,ecx
  40bd18:	83 3d 19 41 b6 00 00 	cmp    DWORD PTR [rip+0xb64119],0x0        # f6fe38 <gamestate+0x8d00>
  40bd1f:	0f 45 c1             	cmovne eax,ecx
  40bd22:	59                   	pop    rcx
  40bd23:	c3                   	ret    
  40bd24:	66 2e 0f 1f 84 00 00 	cs nop WORD PTR [rax+rax*1+0x0]
  40bd2b:	00 00 00 
  40bd2e:	66 90                	xchg   ax,ax

000000000040bd30 <_Z11search_rootP7state_tiii>:
  40bd30:	55                   	push   rbp
  40bd31:	41 57                	push   r15
  40bd33:	41 56                	push   r14
  40bd35:	41 55                	push   r13
  40bd37:	41 54                	push   r12
  40bd39:	53                   	push   rbx
  40bd3a:	48 81 ec d8 09 00 00 	sub    rsp,0x9d8
  40bd41:	41 89 d5             	mov    r13d,edx
  40bd44:	89 f3                	mov    ebx,esi
  40bd46:	49 89 fe             	mov    r14,rdi
  40bd49:	44 8b 3d 14 01 b3 00 	mov    r15d,DWORD PTR [rip+0xb30114]        # f3be64 <_ZZ11search_rootP7state_tiiiE5bmove>
  40bd50:	c7 87 d8 01 00 00 01 	mov    DWORD PTR [rdi+0x1d8],0x1
  40bd57:	00 00 00 
  40bd5a:	c7 05 d4 b3 b5 00 00 	mov    DWORD PTR [rip+0xb5b3d4],0xffff8300        # f67138 <gamestate>
  40bd61:	83 ff ff 
  40bd64:	8b 97 08 10 00 00    	mov    edx,DWORD PTR [rdi+0x1008]
  40bd6a:	8d 41 04             	lea    eax,[rcx+0x4]
  40bd6d:	89 54 24 3c          	mov    DWORD PTR [rsp+0x3c],edx
  40bd71:	85 d2                	test   edx,edx
  40bd73:	0f 44 c1             	cmove  eax,ecx
  40bd76:	48 8d 74 24 4c       	lea    rsi,[rsp+0x4c]
  40bd7b:	4c 8d 44 24 48       	lea    r8,[rsp+0x48]
  40bd80:	89 da                	mov    edx,ebx
  40bd82:	44 89 e9             	mov    ecx,r13d
  40bd85:	49 89 f1             	mov    r9,rsi
  40bd88:	48 89 44 24 30       	mov    QWORD PTR [rsp+0x30],rax
  40bd8d:	50                   	push   rax
  40bd8e:	56                   	push   rsi
  40bd8f:	56                   	push   rsi
  40bd90:	56                   	push   rsi
  40bd91:	e8 5a 1c 00 00       	call   40d9f0 <_Z7ProbeTTP7state_tPiiiPjS1_S1_S1_S1_i>
  40bd96:	48 83 c4 20          	add    rsp,0x20
  40bd9a:	4c 89 f7             	mov    rdi,r14
  40bd9d:	e8 3e 57 ff ff       	call   4014e0 <_Z8in_checkP7state_t>
  40bda2:	85 c0                	test   eax,eax
  40bda4:	74 19                	je     40bdbf <_Z11search_rootP7state_tiii+0x8f>
  40bda6:	4c 89 f7             	mov    rdi,r14
  40bda9:	e8 32 57 ff ff       	call   4014e0 <_Z8in_checkP7state_t>
  40bdae:	48 8d 74 24 50       	lea    rsi,[rsp+0x50]
  40bdb3:	4c 89 f7             	mov    rdi,r14
  40bdb6:	89 c2                	mov    edx,eax
  40bdb8:	e8 93 a0 ff ff       	call   405e50 <_Z12gen_evasionsP7state_tPii>
  40bdbd:	eb 0d                	jmp    40bdcc <_Z11search_rootP7state_tiii+0x9c>
  40bdbf:	48 8d 74 24 50       	lea    rsi,[rsp+0x50]
  40bdc4:	4c 89 f7             	mov    rdi,r14
  40bdc7:	e8 a4 8a ff ff       	call   404870 <_Z3genP7state_tPi>
  40bdcc:	41 89 c4             	mov    r12d,eax
  40bdcf:	44 8b 05 4e 40 b6 00 	mov    r8d,DWORD PTR [rip+0xb6404e]        # f6fe24 <gamestate+0x8cec>
  40bdd6:	48 8d 74 24 50       	lea    rsi,[rsp+0x50]
  40bddb:	48 8d 94 24 10 06 00 	lea    rdx,[rsp+0x610]
  40bde2:	00 
  40bde3:	4c 89 f7             	mov    rdi,r14
  40bde6:	89 c1                	mov    ecx,eax
  40bde8:	e8 23 fa ff ff       	call   40b810 <_ZL11order_movesP7state_tPiS1_ij>
  40bded:	c7 44 24 04 00 00 00 	mov    DWORD PTR [rsp+0x4],0x0
  40bdf4:	00 
  40bdf5:	48 c7 c0 40 fc ff ff 	mov    rax,0xfffffffffffffc40
  40bdfc:	0f 1f 40 00          	nop    DWORD PTR [rax+0x0]
  40be00:	c7 80 e0 85 fa 00 00 	mov    DWORD PTR [rax+0xfa85e0],0xffff8300
  40be07:	83 ff ff 
  40be0a:	c7 80 20 a2 f8 00 00 	mov    DWORD PTR [rax+0xf8a220],0xffff8300
  40be11:	83 ff ff 
  40be14:	48 83 c0 04          	add    rax,0x4
  40be18:	75 e6                	jne    40be00 <_Z11search_rootP7state_tiii+0xd0>
  40be1a:	44 89 7c 24 1c       	mov    DWORD PTR [rsp+0x1c],r15d
  40be1f:	c7 44 24 04 f0 00 00 	mov    DWORD PTR [rsp+0x4],0xf0
  40be26:	00 
  40be27:	bd 01 00 00 00       	mov    ebp,0x1
  40be2c:	b9 01 00 00 00       	mov    ecx,0x1
  40be31:	4c 89 f7             	mov    rdi,r14
  40be34:	89 de                	mov    esi,ebx
  40be36:	44 89 ea             	mov    edx,r13d
  40be39:	e8 52 c7 ff ff       	call   408590 <_Z4evalP7state_tiii>
  40be3e:	c7 44 24 04 ff ff ff 	mov    DWORD PTR [rsp+0x4],0xffffffff
  40be45:	ff 
  40be46:	48 8d 7c 24 04       	lea    rdi,[rsp+0x4]
  40be4b:	48 8d b4 24 10 06 00 	lea    rsi,[rsp+0x610]
  40be52:	00 
  40be53:	48 8d 54 24 50       	lea    rdx,[rsp+0x50]
  40be58:	44 89 e1             	mov    ecx,r12d
  40be5b:	e8 40 e4 ff ff       	call   40a2a0 <_ZL15remove_one_fastPiS_S_i>
  40be60:	85 c0                	test   eax,eax
  40be62:	89 5c 24 28          	mov    DWORD PTR [rsp+0x28],ebx
  40be66:	0f 84 7e 06 00 00    	je     40c4ea <_Z11search_rootP7state_tiii+0x7ba>
  40be6c:	44 89 e9             	mov    ecx,r13d
  40be6f:	f7 d9                	neg    ecx
  40be71:	89 4c 24 24          	mov    DWORD PTR [rsp+0x24],ecx
  40be75:	48 8b 4c 24 30       	mov    rcx,QWORD PTR [rsp+0x30]
  40be7a:	8d 49 fc             	lea    ecx,[rcx-0x4]
  40be7d:	89 4c 24 2c          	mov    DWORD PTR [rsp+0x2c],ecx
  40be81:	c7 44 24 20 01 00 00 	mov    DWORD PTR [rsp+0x20],0x1
  40be88:	00 
  40be89:	41 bf 00 83 ff ff    	mov    r15d,0xffff8300
  40be8f:	c7 44 24 08 00 00 00 	mov    DWORD PTR [rsp+0x8],0x0
  40be96:	00 
  40be97:	89 5c 24 18          	mov    DWORD PTR [rsp+0x18],ebx
  40be9b:	bd 01 00 00 00       	mov    ebp,0x1
  40bea0:	44 89 6c 24 14       	mov    DWORD PTR [rsp+0x14],r13d
  40bea5:	44 89 64 24 0c       	mov    DWORD PTR [rsp+0xc],r12d
  40beaa:	66 0f 1f 44 00 00    	nop    WORD PTR [rax+rax*1+0x0]
  40beb0:	48 63 44 24 04       	movsxd rax,DWORD PTR [rsp+0x4]
  40beb5:	8b 74 84 50          	mov    esi,DWORD PTR [rsp+rax*4+0x50]
  40beb9:	4c 89 f7             	mov    rdi,r14
  40bebc:	e8 ef a0 ff ff       	call   405fb0 <_Z4makeP7state_ti>
  40bec1:	49 8b 86 e0 01 00 00 	mov    rax,QWORD PTR [r14+0x1e0]
  40bec8:	8b 0d a6 b2 b5 00    	mov    ecx,DWORD PTR [rip+0xb5b2a6]        # f67174 <gamestate+0x3c>
  40bece:	49 63 96 d8 01 00 00 	movsxd rdx,DWORD PTR [r14+0x1d8]
  40bed5:	8d 0c 0a             	lea    ecx,[rdx+rcx*1]
  40bed8:	83 c1 ff             	add    ecx,0xffffffff
  40bedb:	48 63 c9             	movsxd rcx,ecx
  40bede:	49 89 84 ce 30 11 00 	mov    QWORD PTR [r14+rcx*8+0x1130],rax
  40bee5:	00 
  40bee6:	48 63 44 24 04       	movsxd rax,DWORD PTR [rsp+0x4]
  40beeb:	8b 74 84 50          	mov    esi,DWORD PTR [rsp+rax*4+0x50]
  40beef:	41 89 b4 96 ec 09 00 	mov    DWORD PTR [r14+rdx*4+0x9ec],esi
  40bef6:	00 
  40bef7:	49 8b 9e f0 0f 00 00 	mov    rbx,QWORD PTR [r14+0xff0]
  40befe:	4c 89 f7             	mov    rdi,r14
  40bf01:	e8 7a ab ff ff       	call   406a80 <_Z11check_legalP7state_ti>
  40bf06:	85 c0                	test   eax,eax
  40bf08:	48 89 5c 24 40       	mov    QWORD PTR [rsp+0x40],rbx
  40bf0d:	74 41                	je     40bf50 <_Z11search_rootP7state_tiii+0x220>
  40bf0f:	48 63 44 24 04       	movsxd rax,DWORD PTR [rsp+0x4]
  40bf14:	8b 74 84 50          	mov    esi,DWORD PTR [rsp+rax*4+0x50]
  40bf18:	4c 89 f7             	mov    rdi,r14
  40bf1b:	e8 a0 a7 ff ff       	call   4066c0 <_Z6unmakeP7state_ti>
  40bf20:	83 3d 5d 7f b5 00 00 	cmp    DWORD PTR [rip+0xb57f5d],0x0        # f63e84 <uci_mode>
  40bf27:	48 63 44 24 04       	movsxd rax,DWORD PTR [rsp+0x4]
  40bf2c:	8b 74 84 50          	mov    esi,DWORD PTR [rsp+rax*4+0x50]
  40bf30:	89 6c 24 10          	mov    DWORD PTR [rsp+0x10],ebp
  40bf34:	4c 89 f7             	mov    rdi,r14
  40bf37:	48 8d 94 24 10 04 00 	lea    rdx,[rsp+0x410]
  40bf3e:	00 
  40bf3f:	74 7f                	je     40bfc0 <_Z11search_rootP7state_tiii+0x290>
  40bf41:	e8 0a 23 00 00       	call   40e250 <_Z13comp_to_coordP7state_tiPc>
  40bf46:	eb 7d                	jmp    40bfc5 <_Z11search_rootP7state_tiii+0x295>
  40bf48:	0f 1f 84 00 00 00 00 	nop    DWORD PTR [rax+rax*1+0x0]
  40bf4f:	00 
  40bf50:	31 db                	xor    ebx,ebx
  40bf52:	83 3d 2b 7f b5 00 00 	cmp    DWORD PTR [rip+0xb57f2b],0x0        # f63e84 <uci_mode>
  40bf59:	0f 84 c1 04 00 00    	je     40c420 <_Z11search_rootP7state_tiii+0x6f0>
  40bf5f:	83 3d e6 b1 b5 00 05 	cmp    DWORD PTR [rip+0xb5b1e6],0x5        # f6714c <gamestate+0x14>
  40bf66:	0f 8c b4 04 00 00    	jl     40c420 <_Z11search_rootP7state_tiii+0x6f0>
  40bf6c:	e8 cf 2e 00 00       	call   40ee40 <_Z5rtimev>
  40bf71:	8b 35 a9 3e b6 00    	mov    esi,DWORD PTR [rip+0xb63ea9]        # f6fe20 <gamestate+0x8ce8>
  40bf77:	89 c7                	mov    edi,eax
  40bf79:	e8 b2 2e 00 00       	call   40ee30 <_Z9rdifftimeii>
  40bf7e:	3d 96 00 00 00       	cmp    eax,0x96
  40bf83:	0f 8c 97 04 00 00    	jl     40c420 <_Z11search_rootP7state_tiii+0x6f0>
  40bf89:	8b 05 01 7f b5 00    	mov    eax,DWORD PTR [rip+0xb57f01]        # f63e90 <uci_showrefutations>
  40bf8f:	85 c0                	test   eax,eax
  40bf91:	0f 84 89 04 00 00    	je     40c420 <_Z11search_rootP7state_tiii+0x6f0>
  40bf97:	bf 3c 14 41 00       	mov    edi,0x41143c
  40bf9c:	31 c0                	xor    eax,eax
  40bf9e:	48 8d b4 24 10 04 00 	lea    rsi,[rsp+0x410]
  40bfa5:	00 
  40bfa6:	e8 25 25 00 00       	call   40e4d0 <_Z8myprintfPKcz>
  40bfab:	4c 89 f7             	mov    rdi,r14
  40bfae:	e8 1d 2a 00 00       	call   40e9d0 <_Z24extract_current_bestlineP7state_t>
  40bfb3:	e9 68 04 00 00       	jmp    40c420 <_Z11search_rootP7state_tiii+0x6f0>
  40bfb8:	0f 1f 84 00 00 00 00 	nop    DWORD PTR [rax+rax*1+0x0]
  40bfbf:	00 
  40bfc0:	e8 db 1e 00 00       	call   40dea0 <_Z11comp_to_sanP7state_tiPc>
  40bfc5:	48 63 44 24 04       	movsxd rax,DWORD PTR [rsp+0x4]
  40bfca:	8b 74 84 50          	mov    esi,DWORD PTR [rsp+rax*4+0x50]
  40bfce:	4c 89 f7             	mov    rdi,r14
  40bfd1:	e8 da 9f ff ff       	call   405fb0 <_Z4makeP7state_ti>
  40bfd6:	4c 89 f7             	mov    rdi,r14
  40bfd9:	e8 02 55 ff ff       	call   4014e0 <_Z8in_checkP7state_t>
  40bfde:	49 63 8e d8 01 00 00 	movsxd rcx,DWORD PTR [r14+0x1d8]
  40bfe5:	41 89 84 8e 04 10 00 	mov    DWORD PTR [r14+rcx*4+0x1004],eax
  40bfec:	00 
  40bfed:	44 8b 6c 24 18       	mov    r13d,DWORD PTR [rsp+0x18]
  40bff2:	41 f7 dd             	neg    r13d
  40bff5:	b9 01 00 00 00       	mov    ecx,0x1
  40bffa:	4c 89 f7             	mov    rdi,r14
  40bffd:	8b 74 24 24          	mov    esi,DWORD PTR [rsp+0x24]
  40c001:	44 89 ea             	mov    edx,r13d
  40c004:	e8 87 c5 ff ff       	call   408590 <_Z4evalP7state_tiii>
  40c009:	49 63 86 d8 01 00 00 	movsxd rax,DWORD PTR [r14+0x1d8]
  40c010:	bb 04 00 00 00       	mov    ebx,0x4
  40c015:	41 83 bc 86 04 10 00 	cmp    DWORD PTR [r14+rax*4+0x1004],0x0
  40c01c:	00 00 
  40c01e:	75 60                	jne    40c080 <_Z11search_rootP7state_tiii+0x350>
  40c020:	48 63 44 24 04       	movsxd rax,DWORD PTR [rsp+0x4]
  40c025:	8b 7c 84 50          	mov    edi,DWORD PTR [rsp+rax*4+0x50]
  40c029:	83 e7 3f             	and    edi,0x3f
  40c02c:	41 83 7c be 04 01    	cmp    DWORD PTR [r14+rdi*4+0x4],0x1
  40c032:	75 0a                	jne    40c03e <_Z11search_rootP7state_tiii+0x30e>
  40c034:	e8 57 67 ff ff       	call   402790 <_Z4ranki>
  40c039:	83 f8 06             	cmp    eax,0x6
  40c03c:	7f 2a                	jg     40c068 <_Z11search_rootP7state_tiii+0x338>
  40c03e:	48 63 44 24 04       	movsxd rax,DWORD PTR [rsp+0x4]
  40c043:	8b 7c 84 50          	mov    edi,DWORD PTR [rsp+rax*4+0x50]
  40c047:	83 e7 3f             	and    edi,0x3f
  40c04a:	41 83 7c be 04 02    	cmp    DWORD PTR [r14+rdi*4+0x4],0x2
  40c050:	75 0a                	jne    40c05c <_Z11search_rootP7state_tiii+0x32c>
  40c052:	e8 39 67 ff ff       	call   402790 <_Z4ranki>
  40c057:	83 f8 03             	cmp    eax,0x3
  40c05a:	7c 0c                	jl     40c068 <_Z11search_rootP7state_tiii+0x338>
  40c05c:	48 63 44 24 04       	movsxd rax,DWORD PTR [rsp+0x4]
  40c061:	f6 44 84 51 f0       	test   BYTE PTR [rsp+rax*4+0x51],0xf0
  40c066:	74 07                	je     40c06f <_Z11search_rootP7state_tiii+0x33f>
  40c068:	bb 03 00 00 00       	mov    ebx,0x3
  40c06d:	eb 11                	jmp    40c080 <_Z11search_rootP7state_tiii+0x350>
  40c06f:	31 db                	xor    ebx,ebx
  40c071:	66 2e 0f 1f 84 00 00 	cs nop WORD PTR [rax+rax*1+0x0]
  40c078:	00 00 00 
  40c07b:	0f 1f 44 00 00       	nop    DWORD PTR [rax+rax*1+0x0]
  40c080:	45 31 e4             	xor    r12d,r12d
  40c083:	83 7c 24 08 03       	cmp    DWORD PTR [rsp+0x8],0x3
  40c088:	7c 37                	jl     40c0c1 <_Z11search_rootP7state_tiii+0x391>
  40c08a:	89 d8                	mov    eax,ebx
  40c08c:	0b 44 24 3c          	or     eax,DWORD PTR [rsp+0x3c]
  40c090:	75 2f                	jne    40c0c1 <_Z11search_rootP7state_tiii+0x391>
  40c092:	48 63 44 24 04       	movsxd rax,DWORD PTR [rsp+0x4]
  40c097:	8b 6c 84 50          	mov    ebp,DWORD PTR [rsp+rax*4+0x50]
  40c09b:	4c 89 f7             	mov    rdi,r14
  40c09e:	89 ee                	mov    esi,ebp
  40c0a0:	e8 5b f9 ff ff       	call   40ba00 <_ZL13history_scoreP7state_ti>
  40c0a5:	83 f8 4f             	cmp    eax,0x4f
  40c0a8:	7f 17                	jg     40c0c1 <_Z11search_rootP7state_tiii+0x391>
  40c0aa:	81 e5 00 f0 78 00    	and    ebp,0x78f000
  40c0b0:	45 31 e4             	xor    r12d,r12d
  40c0b3:	81 fd 00 00 68 00    	cmp    ebp,0x680000
  40c0b9:	41 0f 94 c4          	sete   r12b
  40c0bd:	41 c1 e4 02          	shl    r12d,0x2
  40c0c1:	83 44 24 08 01       	add    DWORD PTR [rsp+0x8],0x1
  40c0c6:	8b 05 d0 7d b5 00    	mov    eax,DWORD PTR [rip+0xb57dd0]        # f63e9c <uci_multipv>
  40c0cc:	83 7c 24 20 01       	cmp    DWORD PTR [rsp+0x20],0x1
  40c0d1:	0f 84 29 01 00 00    	je     40c200 <_Z11search_rootP7state_tiii+0x4d0>
  40c0d7:	83 3d 6e b0 b5 00 02 	cmp    DWORD PTR [rip+0xb5b06e],0x2        # f6714c <gamestate+0x14>
  40c0de:	0f 8c 1c 01 00 00    	jl     40c200 <_Z11search_rootP7state_tiii+0x4d0>
  40c0e4:	83 f8 02             	cmp    eax,0x2
  40c0e7:	0f 8d 13 01 00 00    	jge    40c200 <_Z11search_rootP7state_tiii+0x4d0>
  40c0ed:	8b 6c 24 18          	mov    ebp,DWORD PTR [rsp+0x18]
  40c0f1:	89 ee                	mov    esi,ebp
  40c0f3:	f7 d6                	not    esi
  40c0f5:	03 5c 24 2c          	add    ebx,DWORD PTR [rsp+0x2c]
  40c0f9:	89 d9                	mov    ecx,ebx
  40c0fb:	44 29 e1             	sub    ecx,r12d
  40c0fe:	45 31 c0             	xor    r8d,r8d
  40c101:	41 b9 01 00 00 00    	mov    r9d,0x1
  40c107:	4c 89 f7             	mov    rdi,r14
  40c10a:	44 89 ea             	mov    edx,r13d
  40c10d:	e8 fe fb ff ff       	call   40bd10 <_Z14rootmovesearchP7state_tiiiii>
  40c112:	41 89 c7             	mov    r15d,eax
  40c115:	41 f7 df             	neg    r15d
  40c118:	44 39 fd             	cmp    ebp,r15d
  40c11b:	8b 44 24 14          	mov    eax,DWORD PTR [rsp+0x14]
  40c11f:	0f 8d 3e 01 00 00    	jge    40c263 <_Z11search_rootP7state_tiii+0x533>
  40c125:	41 39 c7             	cmp    r15d,eax
  40c128:	0f 9d c0             	setge  al
  40c12b:	45 85 e4             	test   r12d,r12d
  40c12e:	0f 94 c1             	sete   cl
  40c131:	84 c1                	test   cl,al
  40c133:	0f 85 40 01 00 00    	jne    40c279 <_Z11search_rootP7state_tiii+0x549>
  40c139:	8b 05 f9 3c b6 00    	mov    eax,DWORD PTR [rip+0xb63cf9]        # f6fe38 <gamestate+0x8d00>
  40c13f:	85 c0                	test   eax,eax
  40c141:	0f 85 32 01 00 00    	jne    40c279 <_Z11search_rootP7state_tiii+0x549>
  40c147:	c7 05 df 3c b6 00 01 	mov    DWORD PTR [rip+0xb63cdf],0x1        # f6fe30 <gamestate+0x8cf8>
  40c14e:	00 00 00 
  40c151:	45 31 c0             	xor    r8d,r8d
  40c154:	45 31 c9             	xor    r9d,r9d
  40c157:	4c 89 f7             	mov    rdi,r14
  40c15a:	8b 74 24 24          	mov    esi,DWORD PTR [rsp+0x24]
  40c15e:	44 89 ea             	mov    edx,r13d
  40c161:	89 d9                	mov    ecx,ebx
  40c163:	e8 a8 fb ff ff       	call   40bd10 <_Z14rootmovesearchP7state_tiiiii>
  40c168:	41 89 c7             	mov    r15d,eax
  40c16b:	41 f7 df             	neg    r15d
  40c16e:	c7 05 b8 3c b6 00 00 	mov    DWORD PTR [rip+0xb63cb8],0x0        # f6fe30 <gamestate+0x8cf8>
  40c175:	00 00 00 
  40c178:	44 39 7c 24 18       	cmp    DWORD PTR [rsp+0x18],r15d
  40c17d:	0f 8d f6 00 00 00    	jge    40c279 <_Z11search_rootP7state_tiii+0x549>
  40c183:	8b 05 af 3c b6 00    	mov    eax,DWORD PTR [rip+0xb63caf]        # f6fe38 <gamestate+0x8d00>
  40c189:	85 c0                	test   eax,eax
  40c18b:	0f 85 e8 00 00 00    	jne    40c279 <_Z11search_rootP7state_tiii+0x549>
  40c191:	44 89 3d a0 af b5 00 	mov    DWORD PTR [rip+0xb5afa0],r15d        # f67138 <gamestate>
  40c198:	48 63 44 24 04       	movsxd rax,DWORD PTR [rsp+0x4]
  40c19d:	8b 7c 84 50          	mov    edi,DWORD PTR [rsp+rax*4+0x50]
  40c1a1:	89 7c 24 1c          	mov    DWORD PTR [rsp+0x1c],edi
  40c1a5:	e8 56 1b 00 00       	call   40dd00 <_Z12compact_movei>
  40c1aa:	0f b7 c0             	movzx  eax,ax
  40c1ad:	89 05 71 3c b6 00    	mov    DWORD PTR [rip+0xb63c71],eax        # f6fe24 <gamestate+0x8cec>
  40c1b3:	44 8b 6c 24 14       	mov    r13d,DWORD PTR [rsp+0x14]
  40c1b8:	45 39 ef             	cmp    r15d,r13d
  40c1bb:	8b 6c 24 10          	mov    ebp,DWORD PTR [rsp+0x10]
  40c1bf:	44 8b 64 24 0c       	mov    r12d,DWORD PTR [rsp+0xc]
  40c1c4:	0f 8d a5 00 00 00    	jge    40c26f <_Z11search_rootP7state_tiii+0x53f>
  40c1ca:	48 63 44 24 04       	movsxd rax,DWORD PTR [rsp+0x4]
  40c1cf:	8b 54 84 50          	mov    edx,DWORD PTR [rsp+rax*4+0x50]
  40c1d3:	4c 89 f7             	mov    rdi,r14
  40c1d6:	44 89 fe             	mov    esi,r15d
  40c1d9:	48 8d 8c 24 10 04 00 	lea    rcx,[rsp+0x410]
  40c1e0:	00 
  40c1e1:	44 8b 44 24 08       	mov    r8d,DWORD PTR [rsp+0x8]
  40c1e6:	e8 f5 29 00 00       	call   40ebe0 <_Z13post_thinkingP7state_tiiPci>
  40c1eb:	45 39 ef             	cmp    r15d,r13d
  40c1ee:	0f 8d 9c 00 00 00    	jge    40c290 <_Z11search_rootP7state_tiii+0x560>
  40c1f4:	e9 d7 01 00 00       	jmp    40c3d0 <_Z11search_rootP7state_tiii+0x6a0>
  40c1f9:	0f 1f 80 00 00 00 00 	nop    DWORD PTR [rax+0x0]
  40c200:	03 5c 24 2c          	add    ebx,DWORD PTR [rsp+0x2c]
  40c204:	83 f8 01             	cmp    eax,0x1
  40c207:	b8 40 42 0f 00       	mov    eax,0xf4240
  40c20c:	44 0f 45 e8          	cmovne r13d,eax
  40c210:	45 31 c0             	xor    r8d,r8d
  40c213:	45 31 c9             	xor    r9d,r9d
  40c216:	4c 89 f7             	mov    rdi,r14
  40c219:	8b 74 24 24          	mov    esi,DWORD PTR [rsp+0x24]
  40c21d:	44 89 ea             	mov    edx,r13d
  40c220:	89 d9                	mov    ecx,ebx
  40c222:	e8 e9 fa ff ff       	call   40bd10 <_Z14rootmovesearchP7state_tiiiii>
  40c227:	41 89 c7             	mov    r15d,eax
  40c22a:	41 f7 df             	neg    r15d
  40c22d:	48 63 44 24 08       	movsxd rax,DWORD PTR [rsp+0x8]
  40c232:	44 89 3c 85 20 82 fa 	mov    DWORD PTR [rax*4+0xfa8220],r15d
  40c239:	00 
  40c23a:	48 63 44 24 04       	movsxd rax,DWORD PTR [rsp+0x4]
  40c23f:	44 89 3c 85 60 9e f8 	mov    DWORD PTR [rax*4+0xf89e60],r15d
  40c246:	00 
  40c247:	83 3d ea 3b b6 00 00 	cmp    DWORD PTR [rip+0xb63bea],0x0        # f6fe38 <gamestate+0x8d00>
  40c24e:	44 8b 6c 24 14       	mov    r13d,DWORD PTR [rsp+0x14]
  40c253:	74 6f                	je     40c2c4 <_Z11search_rootP7state_tiii+0x594>
  40c255:	8b 6c 24 10          	mov    ebp,DWORD PTR [rsp+0x10]
  40c259:	44 8b 64 24 0c       	mov    r12d,DWORD PTR [rsp+0xc]
  40c25e:	e9 6d 01 00 00       	jmp    40c3d0 <_Z11search_rootP7state_tiii+0x6a0>
  40c263:	8b 6c 24 10          	mov    ebp,DWORD PTR [rsp+0x10]
  40c267:	44 8b 64 24 0c       	mov    r12d,DWORD PTR [rsp+0xc]
  40c26c:	41 89 c5             	mov    r13d,eax
  40c26f:	45 39 ef             	cmp    r15d,r13d
  40c272:	7d 1c                	jge    40c290 <_Z11search_rootP7state_tiii+0x560>
  40c274:	e9 57 01 00 00       	jmp    40c3d0 <_Z11search_rootP7state_tiii+0x6a0>
  40c279:	8b 6c 24 10          	mov    ebp,DWORD PTR [rsp+0x10]
  40c27d:	44 8b 64 24 0c       	mov    r12d,DWORD PTR [rsp+0xc]
  40c282:	44 8b 6c 24 14       	mov    r13d,DWORD PTR [rsp+0x14]
  40c287:	45 39 ef             	cmp    r15d,r13d
  40c28a:	0f 8c 40 01 00 00    	jl     40c3d0 <_Z11search_rootP7state_tiii+0x6a0>
  40c290:	8b 05 a2 3b b6 00    	mov    eax,DWORD PTR [rip+0xb63ba2]        # f6fe38 <gamestate+0x8d00>
  40c296:	85 c0                	test   eax,eax
  40c298:	0f 85 32 01 00 00    	jne    40c3d0 <_Z11search_rootP7state_tiii+0x6a0>
  40c29e:	48 63 44 24 04       	movsxd rax,DWORD PTR [rsp+0x4]
  40c2a3:	8b 54 84 50          	mov    edx,DWORD PTR [rsp+rax*4+0x50]
  40c2a7:	4c 89 f7             	mov    rdi,r14
  40c2aa:	44 89 fe             	mov    esi,r15d
  40c2ad:	48 8d 8c 24 10 04 00 	lea    rcx,[rsp+0x410]
  40c2b4:	00 
  40c2b5:	44 8b 44 24 08       	mov    r8d,DWORD PTR [rsp+0x8]
  40c2ba:	e8 91 2b 00 00       	call   40ee50 <_Z16post_fh_thinkingP7state_tiiPci>
  40c2bf:	e9 0c 01 00 00       	jmp    40c3d0 <_Z11search_rootP7state_tiii+0x6a0>
  40c2c4:	45 39 ef             	cmp    r15d,r13d
  40c2c7:	8b 6c 24 10          	mov    ebp,DWORD PTR [rsp+0x10]
  40c2cb:	44 8b 64 24 0c       	mov    r12d,DWORD PTR [rsp+0xc]
  40c2d0:	7d 72                	jge    40c344 <_Z11search_rootP7state_tiii+0x614>
  40c2d2:	83 7c 24 20 00       	cmp    DWORD PTR [rsp+0x20],0x0
  40c2d7:	0f 84 85 00 00 00    	je     40c362 <_Z11search_rootP7state_tiii+0x632>
  40c2dd:	44 39 7c 24 18       	cmp    DWORD PTR [rsp+0x18],r15d
  40c2e2:	7c 7e                	jl     40c362 <_Z11search_rootP7state_tiii+0x632>
  40c2e4:	c7 05 3e 3b b6 00 01 	mov    DWORD PTR [rip+0xb63b3e],0x1        # f6fe2c <gamestate+0x8cf4>
  40c2eb:	00 00 00 
  40c2ee:	8b 54 84 50          	mov    edx,DWORD PTR [rsp+rax*4+0x50]
  40c2f2:	4c 89 f7             	mov    rdi,r14
  40c2f5:	44 89 fe             	mov    esi,r15d
  40c2f8:	48 8d 8c 24 10 04 00 	lea    rcx,[rsp+0x410]
  40c2ff:	00 
  40c300:	44 8b 44 24 08       	mov    r8d,DWORD PTR [rsp+0x8]
  40c305:	e8 b6 2c 00 00       	call   40efc0 <_Z16post_fl_thinkingP7state_tiiPci>
  40c30a:	ba 40 42 0f 00       	mov    edx,0xf4240
  40c30f:	45 31 c0             	xor    r8d,r8d
  40c312:	45 31 c9             	xor    r9d,r9d
  40c315:	4c 89 f7             	mov    rdi,r14
  40c318:	8b 74 24 24          	mov    esi,DWORD PTR [rsp+0x24]
  40c31c:	89 d9                	mov    ecx,ebx
  40c31e:	e8 ed f9 ff ff       	call   40bd10 <_Z14rootmovesearchP7state_tiiiii>
  40c323:	41 89 c7             	mov    r15d,eax
  40c326:	41 f7 df             	neg    r15d
  40c329:	83 3d 08 3b b6 00 00 	cmp    DWORD PTR [rip+0xb63b08],0x0        # f6fe38 <gamestate+0x8d00>
  40c330:	8b 0d 66 7b b5 00    	mov    ecx,DWORD PTR [rip+0xb57b66]        # f63e9c <uci_multipv>
  40c336:	75 5e                	jne    40c396 <_Z11search_rootP7state_tiii+0x666>
  40c338:	83 f9 01             	cmp    ecx,0x1
  40c33b:	75 59                	jne    40c396 <_Z11search_rootP7state_tiii+0x666>
  40c33d:	48 63 44 24 04       	movsxd rax,DWORD PTR [rsp+0x4]
  40c342:	eb 30                	jmp    40c374 <_Z11search_rootP7state_tiii+0x644>
  40c344:	8b 54 84 50          	mov    edx,DWORD PTR [rsp+rax*4+0x50]
  40c348:	4c 89 f7             	mov    rdi,r14
  40c34b:	44 89 fe             	mov    esi,r15d
  40c34e:	48 8d 8c 24 10 04 00 	lea    rcx,[rsp+0x410]
  40c355:	00 
  40c356:	44 8b 44 24 08       	mov    r8d,DWORD PTR [rsp+0x8]
  40c35b:	e8 f0 2a 00 00       	call   40ee50 <_Z16post_fh_thinkingP7state_tiiPci>
  40c360:	eb 2e                	jmp    40c390 <_Z11search_rootP7state_tiii+0x660>
  40c362:	44 39 7c 24 18       	cmp    DWORD PTR [rsp+0x18],r15d
  40c367:	7d 27                	jge    40c390 <_Z11search_rootP7state_tiii+0x660>
  40c369:	8b 0d 2d 7b b5 00    	mov    ecx,DWORD PTR [rip+0xb57b2d]        # f63e9c <uci_multipv>
  40c36f:	83 f9 01             	cmp    ecx,0x1
  40c372:	75 22                	jne    40c396 <_Z11search_rootP7state_tiii+0x666>
  40c374:	8b 54 84 50          	mov    edx,DWORD PTR [rsp+rax*4+0x50]
  40c378:	4c 89 f7             	mov    rdi,r14
  40c37b:	44 89 fe             	mov    esi,r15d
  40c37e:	48 8d 8c 24 10 04 00 	lea    rcx,[rsp+0x410]
  40c385:	00 
  40c386:	44 8b 44 24 08       	mov    r8d,DWORD PTR [rsp+0x8]
  40c38b:	e8 50 28 00 00       	call   40ebe0 <_Z13post_thinkingP7state_tiiPci>
  40c390:	8b 0d 06 7b b5 00    	mov    ecx,DWORD PTR [rip+0xb57b06]        # f63e9c <uci_multipv>
  40c396:	83 f9 02             	cmp    ecx,0x2
  40c399:	7c 18                	jl     40c3b3 <_Z11search_rootP7state_tiii+0x683>
  40c39b:	48 63 44 24 04       	movsxd rax,DWORD PTR [rsp+0x4]
  40c3a0:	8b 4c 84 50          	mov    ecx,DWORD PTR [rsp+rax*4+0x50]
  40c3a4:	4c 89 f7             	mov    rdi,r14
  40c3a7:	44 89 fe             	mov    esi,r15d
  40c3aa:	8b 54 24 08          	mov    edx,DWORD PTR [rsp+0x8]
  40c3ae:	e8 6d 2d 00 00       	call   40f120 <_Z21post_multipv_thinkingP7state_tiii>
  40c3b3:	44 3b 3d 7e ad b5 00 	cmp    r15d,DWORD PTR [rip+0xb5ad7e]        # f67138 <gamestate>
  40c3ba:	7e 14                	jle    40c3d0 <_Z11search_rootP7state_tiii+0x6a0>
  40c3bc:	8b 05 76 3a b6 00    	mov    eax,DWORD PTR [rip+0xb63a76]        # f6fe38 <gamestate+0x8d00>
  40c3c2:	85 c0                	test   eax,eax
  40c3c4:	75 0a                	jne    40c3d0 <_Z11search_rootP7state_tiii+0x6a0>
  40c3c6:	44 89 3d 6b ad b5 00 	mov    DWORD PTR [rip+0xb5ad6b],r15d        # f67138 <gamestate>
  40c3cd:	0f 1f 00             	nop    DWORD PTR [rax]
  40c3d0:	8b 05 62 3a b6 00    	mov    eax,DWORD PTR [rip+0xb63a62]        # f6fe38 <gamestate+0x8d00>
  40c3d6:	44 3b 3d 5b ad b5 00 	cmp    r15d,DWORD PTR [rip+0xb5ad5b]        # f67138 <gamestate>
  40c3dd:	7e 0b                	jle    40c3ea <_Z11search_rootP7state_tiii+0x6ba>
  40c3df:	85 c0                	test   eax,eax
  40c3e1:	75 07                	jne    40c3ea <_Z11search_rootP7state_tiii+0x6ba>
  40c3e3:	44 89 3d 4e ad b5 00 	mov    DWORD PTR [rip+0xb5ad4e],r15d        # f67138 <gamestate>
  40c3ea:	bb 01 00 00 00       	mov    ebx,0x1
  40c3ef:	85 ed                	test   ebp,ebp
  40c3f1:	74 1a                	je     40c40d <_Z11search_rootP7state_tiii+0x6dd>
  40c3f3:	85 c0                	test   eax,eax
  40c3f5:	74 16                	je     40c40d <_Z11search_rootP7state_tiii+0x6dd>
  40c3f7:	81 3d 37 ad b5 00 00 	cmp    DWORD PTR [rip+0xb5ad37],0xffff8300        # f67138 <gamestate>
  40c3fe:	83 ff ff 
  40c401:	75 0a                	jne    40c40d <_Z11search_rootP7state_tiii+0x6dd>
  40c403:	c7 05 2f 3a b6 00 01 	mov    DWORD PTR [rip+0xb63a2f],0x1        # f6fe3c <gamestate+0x8d04>
  40c40a:	00 00 00 
  40c40d:	31 ed                	xor    ebp,ebp
  40c40f:	83 3d 6e 7a b5 00 00 	cmp    DWORD PTR [rip+0xb57a6e],0x0        # f63e84 <uci_mode>
  40c416:	0f 85 43 fb ff ff    	jne    40bf5f <_Z11search_rootP7state_tiii+0x22f>
  40c41c:	0f 1f 40 00          	nop    DWORD PTR [rax+0x0]
  40c420:	48 63 44 24 04       	movsxd rax,DWORD PTR [rsp+0x4]
  40c425:	8b 74 84 50          	mov    esi,DWORD PTR [rsp+rax*4+0x50]
  40c429:	4c 89 f7             	mov    rdi,r14
  40c42c:	e8 8f a2 ff ff       	call   4066c0 <_Z6unmakeP7state_ti>
  40c431:	83 3d 00 3a b6 00 00 	cmp    DWORD PTR [rip+0xb63a00],0x0        # f6fe38 <gamestate+0x8d00>
  40c438:	0f 85 b7 01 00 00    	jne    40c5f5 <_Z11search_rootP7state_tiii+0x8c5>
  40c43e:	85 db                	test   ebx,ebx
  40c440:	74 7e                	je     40c4c0 <_Z11search_rootP7state_tiii+0x790>
  40c442:	44 3b 7c 24 18       	cmp    r15d,DWORD PTR [rsp+0x18]
  40c447:	7e 4e                	jle    40c497 <_Z11search_rootP7state_tiii+0x767>
  40c449:	48 63 44 24 04       	movsxd rax,DWORD PTR [rsp+0x4]
  40c44e:	8b 74 84 50          	mov    esi,DWORD PTR [rsp+rax*4+0x50]
  40c452:	4c 89 f7             	mov    rdi,r14
  40c455:	48 8b 54 24 30       	mov    rdx,QWORD PTR [rsp+0x30]
  40c45a:	e8 e1 f5 ff ff       	call   40ba40 <_ZL12history_goodP7state_tii>
  40c45f:	48 63 44 24 04       	movsxd rax,DWORD PTR [rsp+0x4]
  40c464:	8b 7c 84 50          	mov    edi,DWORD PTR [rsp+rax*4+0x50]
  40c468:	44 89 3d c9 ac b5 00 	mov    DWORD PTR [rip+0xb5acc9],r15d        # f67138 <gamestate>
  40c46f:	89 7c 24 1c          	mov    DWORD PTR [rsp+0x1c],edi
  40c473:	e8 88 18 00 00       	call   40dd00 <_Z12compact_movei>
  40c478:	44 0f b7 c0          	movzx  r8d,ax
  40c47c:	44 89 05 a1 39 b6 00 	mov    DWORD PTR [rip+0xb639a1],r8d        # f6fe24 <gamestate+0x8cec>
  40c483:	8b 35 af ac b5 00    	mov    esi,DWORD PTR [rip+0xb5acaf]        # f67138 <gamestate>
  40c489:	44 39 ee             	cmp    esi,r13d
  40c48c:	0f 8d c4 01 00 00    	jge    40c656 <_Z11search_rootP7state_tiii+0x926>
  40c492:	44 89 7c 24 18       	mov    DWORD PTR [rsp+0x18],r15d
  40c497:	31 db                	xor    ebx,ebx
  40c499:	83 7c 24 20 00       	cmp    DWORD PTR [rsp+0x20],0x0
  40c49e:	74 24                	je     40c4c4 <_Z11search_rootP7state_tiii+0x794>
  40c4a0:	49 8b 86 f0 0f 00 00 	mov    rax,QWORD PTR [r14+0xff0]
  40c4a7:	48 2b 44 24 40       	sub    rax,QWORD PTR [rsp+0x40]
  40c4ac:	48 89 05 65 39 b6 00 	mov    QWORD PTR [rip+0xb63965],rax        # f6fe18 <gamestate+0x8ce0>
  40c4b3:	eb 0f                	jmp    40c4c4 <_Z11search_rootP7state_tiii+0x794>
  40c4b5:	66 2e 0f 1f 84 00 00 	cs nop WORD PTR [rax+rax*1+0x0]
  40c4bc:	00 00 00 
  40c4bf:	90                   	nop
  40c4c0:	8b 5c 24 20          	mov    ebx,DWORD PTR [rsp+0x20]
  40c4c4:	48 8d 7c 24 04       	lea    rdi,[rsp+0x4]
  40c4c9:	48 8d b4 24 10 06 00 	lea    rsi,[rsp+0x610]
  40c4d0:	00 
  40c4d1:	48 8d 54 24 50       	lea    rdx,[rsp+0x50]
  40c4d6:	44 89 e1             	mov    ecx,r12d
  40c4d9:	e8 c2 dd ff ff       	call   40a2a0 <_ZL15remove_one_fastPiS_S_i>
  40c4de:	89 5c 24 20          	mov    DWORD PTR [rsp+0x20],ebx
  40c4e2:	85 c0                	test   eax,eax
  40c4e4:	0f 85 c6 f9 ff ff    	jne    40beb0 <_Z11search_rootP7state_tiii+0x180>
  40c4ea:	8b 0d 5c ac b5 00    	mov    ecx,DWORD PTR [rip+0xb5ac5c]        # f6714c <gamestate+0x14>
  40c4f0:	31 c0                	xor    eax,eax
  40c4f2:	83 f9 04             	cmp    ecx,0x4
  40c4f5:	8b 5c 24 1c          	mov    ebx,DWORD PTR [rsp+0x1c]
  40c4f9:	44 8b 7c 24 28       	mov    r15d,DWORD PTR [rsp+0x28]
  40c4fe:	74 16                	je     40c516 <_Z11search_rootP7state_tiii+0x7e6>
  40c500:	83 f9 05             	cmp    ecx,0x5
  40c503:	7c 17                	jl     40c51c <_Z11search_rootP7state_tiii+0x7ec>
  40c505:	3b 1d 59 f9 b2 00    	cmp    ebx,DWORD PTR [rip+0xb2f959]        # f3be64 <_ZZ11search_rootP7state_tiiiE5bmove>
  40c50b:	74 0f                	je     40c51c <_Z11search_rootP7state_tiii+0x7ec>
  40c50d:	8b 05 4d f9 b2 00    	mov    eax,DWORD PTR [rip+0xb2f94d]        # f3be60 <_ZZ11search_rootP7state_tiiiE7changes>
  40c513:	83 c0 01             	add    eax,0x1
  40c516:	89 05 44 f9 b2 00    	mov    DWORD PTR [rip+0xb2f944],eax        # f3be60 <_ZZ11search_rootP7state_tiiiE7changes>
  40c51c:	48 6b 05 f4 38 b6 00 	imul   rax,QWORD PTR [rip+0xb638f4],0x64        # f6fe18 <gamestate+0x8ce0>
  40c523:	64 
  40c524:	31 d2                	xor    edx,edx
  40c526:	49 f7 b6 f0 0f 00 00 	div    QWORD PTR [r14+0xff0]
  40c52d:	83 f9 07             	cmp    ecx,0x7
  40c530:	7c 2c                	jl     40c55e <_Z11search_rootP7state_tiii+0x82e>
  40c532:	48 83 f8 4b          	cmp    rax,0x4b
  40c536:	72 26                	jb     40c55e <_Z11search_rootP7state_tiii+0x82e>
  40c538:	8b 05 2a ac b5 00    	mov    eax,DWORD PTR [rip+0xb5ac2a]        # f67168 <gamestate+0x30>
  40c53e:	3d ff e0 f5 05       	cmp    eax,0x5f5e0ff
  40c543:	74 19                	je     40c55e <_Z11search_rootP7state_tiii+0x82e>
  40c545:	8b 0d e1 38 b6 00    	mov    ecx,DWORD PTR [rip+0xb638e1]        # f6fe2c <gamestate+0x8cf4>
  40c54b:	85 c9                	test   ecx,ecx
  40c54d:	75 0f                	jne    40c55e <_Z11search_rootP7state_tiii+0x82e>
  40c54f:	89 c1                	mov    ecx,eax
  40c551:	c1 e9 1f             	shr    ecx,0x1f
  40c554:	01 c1                	add    ecx,eax
  40c556:	d1 f9                	sar    ecx,1
  40c558:	89 0d 0a ac b5 00    	mov    DWORD PTR [rip+0xb5ac0a],ecx        # f67168 <gamestate+0x30>
  40c55e:	8b 05 fc f8 b2 00    	mov    eax,DWORD PTR [rip+0xb2f8fc]        # f3be60 <_ZZ11search_rootP7state_tiiiE7changes>
  40c564:	83 f8 04             	cmp    eax,0x4
  40c567:	7c 15                	jl     40c57e <_Z11search_rootP7state_tiii+0x84e>
  40c569:	c7 05 bd 38 b6 00 01 	mov    DWORD PTR [rip+0xb638bd],0x1        # f6fe30 <gamestate+0x8cf8>
  40c570:	00 00 00 
  40c573:	83 c0 ff             	add    eax,0xffffffff
  40c576:	89 05 e4 f8 b2 00    	mov    DWORD PTR [rip+0xb2f8e4],eax        # f3be60 <_ZZ11search_rootP7state_tiiiE7changes>
  40c57c:	eb 13                	jmp    40c591 <_Z11search_rootP7state_tiii+0x861>
  40c57e:	83 3d ab 38 b6 00 00 	cmp    DWORD PTR [rip+0xb638ab],0x0        # f6fe30 <gamestate+0x8cf8>
  40c585:	74 0a                	je     40c591 <_Z11search_rootP7state_tiii+0x861>
  40c587:	c7 05 9f 38 b6 00 00 	mov    DWORD PTR [rip+0xb6389f],0x0        # f6fe30 <gamestate+0x8cf8>
  40c58e:	00 00 00 
  40c591:	89 1d cd f8 b2 00    	mov    DWORD PTR [rip+0xb2f8cd],ebx        # f3be64 <_ZZ11search_rootP7state_tiiiE5bmove>
  40c597:	8b 05 d7 78 b5 00    	mov    eax,DWORD PTR [rip+0xb578d7]        # f63e74 <is_pondering>
  40c59d:	85 ed                	test   ebp,ebp
  40c59f:	74 2c                	je     40c5cd <_Z11search_rootP7state_tiii+0x89d>
  40c5a1:	8b 0d 95 38 b6 00    	mov    ecx,DWORD PTR [rip+0xb63895]        # f6fe3c <gamestate+0x8d04>
  40c5a7:	09 c1                	or     ecx,eax
  40c5a9:	75 22                	jne    40c5cd <_Z11search_rootP7state_tiii+0x89d>
  40c5ab:	4c 89 f7             	mov    rdi,r14
  40c5ae:	e8 2d 4f ff ff       	call   4014e0 <_Z8in_checkP7state_t>
  40c5b3:	85 c0                	test   eax,eax
  40c5b5:	74 44                	je     40c5fb <_Z11search_rootP7state_tiii+0x8cb>
  40c5b7:	41 83 be cc 01 00 00 	cmp    DWORD PTR [r14+0x1cc],0x1
  40c5be:	01 
  40c5bf:	75 46                	jne    40c607 <_Z11search_rootP7state_tiii+0x8d7>
  40c5c1:	c7 05 7d ab b5 00 02 	mov    DWORD PTR [rip+0xb5ab7d],0x2        # f67148 <gamestate+0x10>
  40c5c8:	00 00 00 
  40c5cb:	eb 44                	jmp    40c611 <_Z11search_rootP7state_tiii+0x8e1>
  40c5cd:	41 83 be dc 01 00 00 	cmp    DWORD PTR [r14+0x1dc],0x63
  40c5d4:	63 
  40c5d5:	7c 3a                	jl     40c611 <_Z11search_rootP7state_tiii+0x8e1>
  40c5d7:	0b 05 a7 78 b5 00    	or     eax,DWORD PTR [rip+0xb578a7]        # f63e84 <uci_mode>
  40c5dd:	75 32                	jne    40c611 <_Z11search_rootP7state_tiii+0x8e1>
  40c5df:	c7 05 5f ab b5 00 04 	mov    DWORD PTR [rip+0xb5ab5f],0x4        # f67148 <gamestate+0x10>
  40c5e6:	00 00 00 
  40c5e9:	c7 05 45 ab b5 00 00 	mov    DWORD PTR [rip+0xb5ab45],0x0        # f67138 <gamestate>
  40c5f0:	00 00 00 
  40c5f3:	eb 1c                	jmp    40c611 <_Z11search_rootP7state_tiii+0x8e1>
  40c5f5:	8b 5c 24 1c          	mov    ebx,DWORD PTR [rsp+0x1c]
  40c5f9:	eb 47                	jmp    40c642 <_Z11search_rootP7state_tiii+0x912>
  40c5fb:	c7 05 43 ab b5 00 01 	mov    DWORD PTR [rip+0xb5ab43],0x1        # f67148 <gamestate+0x10>
  40c602:	00 00 00 
  40c605:	eb 0a                	jmp    40c611 <_Z11search_rootP7state_tiii+0x8e1>
  40c607:	c7 05 37 ab b5 00 03 	mov    DWORD PTR [rip+0xb5ab37],0x3        # f67148 <gamestate+0x10>
  40c60e:	00 00 00 
  40c611:	8b 35 21 ab b5 00    	mov    esi,DWORD PTR [rip+0xb5ab21]        # f67138 <gamestate>
  40c617:	44 8b 05 06 38 b6 00 	mov    r8d,DWORD PTR [rip+0xb63806]        # f6fe24 <gamestate+0x8cec>
  40c61e:	48 83 ec 08          	sub    rsp,0x8
  40c622:	41 b9 00 00 00 00    	mov    r9d,0x0
  40c628:	4c 89 f7             	mov    rdi,r14
  40c62b:	44 89 fa             	mov    edx,r15d
  40c62e:	44 89 e9             	mov    ecx,r13d
  40c631:	ff 74 24 38          	push   QWORD PTR [rsp+0x38]
  40c635:	6a 00                	push   0x0
  40c637:	6a 00                	push   0x0
  40c639:	e8 b2 11 00 00       	call   40d7f0 <_Z7StoreTTP7state_tiiijiiii>
  40c63e:	48 83 c4 20          	add    rsp,0x20
  40c642:	89 d8                	mov    eax,ebx
  40c644:	48 81 c4 d8 09 00 00 	add    rsp,0x9d8
  40c64b:	5b                   	pop    rbx
  40c64c:	41 5c                	pop    r12
  40c64e:	41 5d                	pop    r13
  40c650:	41 5e                	pop    r14
  40c652:	41 5f                	pop    r15
  40c654:	5d                   	pop    rbp
  40c655:	c3                   	ret    
  40c656:	48 83 ec 08          	sub    rsp,0x8
  40c65a:	41 b9 00 00 00 00    	mov    r9d,0x0
  40c660:	4c 89 f7             	mov    rdi,r14
  40c663:	8b 54 24 30          	mov    edx,DWORD PTR [rsp+0x30]
  40c667:	44 89 e9             	mov    ecx,r13d
  40c66a:	ff 74 24 38          	push   QWORD PTR [rsp+0x38]
  40c66e:	6a 00                	push   0x0
  40c670:	6a 00                	push   0x0
  40c672:	e8 79 11 00 00       	call   40d7f0 <_Z7StoreTTP7state_tiiijiiii>
  40c677:	48 83 c4 20          	add    rsp,0x20
  40c67b:	8b 5c 24 1c          	mov    ebx,DWORD PTR [rsp+0x1c]
  40c67f:	eb c1                	jmp    40c642 <_Z11search_rootP7state_tiii+0x912>
  40c681:	66 2e 0f 1f 84 00 00 	cs nop WORD PTR [rax+rax*1+0x0]
  40c688:	00 00 00 
  40c68b:	0f 1f 44 00 00       	nop    DWORD PTR [rax+rax*1+0x0]

000000000040c690 <_Z21reset_search_countersP7state_t>:
  40c690:	c7 87 d8 01 00 00 00 	mov    DWORD PTR [rdi+0x1d8],0x0
  40c697:	00 00 00 
  40c69a:	c5 f8 57 c0          	vxorps xmm0,xmm0,xmm0
  40c69e:	c5 f8 11 87 f0 0f 00 	vmovups XMMWORD PTR [rdi+0xff0],xmm0
  40c6a5:	00 
  40c6a6:	c7 87 00 10 00 00 00 	mov    DWORD PTR [rdi+0x1000],0x0
  40c6ad:	00 00 00 
  40c6b0:	48 c7 c0 80 7c fe ff 	mov    rax,0xfffffffffffe7c80
  40c6b7:	66 0f 1f 84 00 00 00 	nop    WORD PTR [rax+rax*1+0x0]
  40c6be:	00 00 
  40c6c0:	c5 f8 11 80 38 92 f8 	vmovups XMMWORD PTR [rax+0xf89238],xmm0
  40c6c7:	00 
  40c6c8:	48 05 70 30 00 00    	add    rax,0x3070
  40c6ce:	75 f0                	jne    40c6c0 <_Z21reset_search_countersP7state_t+0x30>
  40c6d0:	c5 f8 57 c0          	vxorps xmm0,xmm0,xmm0
  40c6d4:	c5 f8 11 87 04 11 00 	vmovups XMMWORD PTR [rdi+0x1104],xmm0
  40c6db:	00 
  40c6dc:	c7 05 4e 37 b6 00 00 	mov    DWORD PTR [rip+0xb6374e],0x0        # f6fe34 <gamestate+0x8cfc>
  40c6e3:	00 00 00 
  40c6e6:	c3                   	ret    
  40c6e7:	66 0f 1f 84 00 00 00 	nop    WORD PTR [rax+rax*1+0x0]
  40c6ee:	00 00 

000000000040c6f0 <_Z17reset_search_dataP7state_t>:
  40c6f0:	53                   	push   rbx
  40c6f1:	48 83 ec 10          	sub    rsp,0x10
  40c6f5:	48 89 fb             	mov    rbx,rdi
  40c6f8:	bf 60 9e f2 00       	mov    edi,0xf29e60
  40c6fd:	31 f6                	xor    esi,esi
  40c6ff:	ba 00 60 00 00       	mov    edx,0x6000
  40c704:	e8 a7 49 ff ff       	call   4010b0 <memset@plt>
  40c709:	bf 60 fe f2 00       	mov    edi,0xf2fe60
  40c70e:	31 f6                	xor    esi,esi
  40c710:	ba 00 60 00 00       	mov    edx,0x6000
  40c715:	e8 96 49 ff ff       	call   4010b0 <memset@plt>
  40c71a:	bf 60 5e f3 00       	mov    edi,0xf35e60
  40c71f:	31 f6                	xor    esi,esi
  40c721:	ba 00 60 00 00       	mov    edx,0x6000
  40c726:	e8 85 49 ff ff       	call   4010b0 <memset@plt>
  40c72b:	48 81 c3 f0 0b 00 00 	add    rbx,0xbf0
  40c732:	31 f6                	xor    esi,esi
  40c734:	ba 00 04 00 00       	mov    edx,0x400
  40c739:	48 89 df             	mov    rdi,rbx
  40c73c:	e8 6f 49 ff ff       	call   4010b0 <memset@plt>
  40c741:	48 c7 05 cc 36 b6 00 	mov    QWORD PTR [rip+0xb636cc],0x0        # f6fe18 <gamestate+0x8ce0>
  40c748:	00 00 00 00 
  40c74c:	c7 05 ce 36 b6 00 00 	mov    DWORD PTR [rip+0xb636ce],0x0        # f6fe24 <gamestate+0x8cec>
  40c753:	00 00 00 
  40c756:	83 3d 37 77 b5 00 00 	cmp    DWORD PTR [rip+0xb57737],0x0        # f63e94 <uci_limitstrength>
  40c75d:	74 26                	je     40c785 <_Z17reset_search_dataP7state_t+0x95>
  40c75f:	8b 3d 33 77 b5 00    	mov    edi,DWORD PTR [rip+0xb57733]        # f63e98 <uci_elo>
  40c765:	e8 e6 14 00 00       	call   40dc50 <_Z12elo_to_depthi>
  40c76a:	89 44 24 0c          	mov    DWORD PTR [rsp+0xc],eax
  40c76e:	48 8d 74 24 0c       	lea    rsi,[rsp+0xc]
  40c773:	bf 70 71 f6 00       	mov    edi,0xf67170
  40c778:	e8 f3 5e ff ff       	call   402670 <_ZSt3minIiERKT_S2_S2_>
  40c77d:	8b 00                	mov    eax,DWORD PTR [rax]
  40c77f:	89 05 eb a9 b5 00    	mov    DWORD PTR [rip+0xb5a9eb],eax        # f67170 <gamestate+0x38>
  40c785:	48 83 c4 10          	add    rsp,0x10
  40c789:	5b                   	pop    rbx
  40c78a:	c3                   	ret    
  40c78b:	0f 1f 44 00 00       	nop    DWORD PTR [rax+rax*1+0x0]

000000000040c790 <_Z5thinkP11gamestate_tP7state_t>:
  40c790:	55                   	push   rbp
  40c791:	41 57                	push   r15
  40c793:	41 56                	push   r14
  40c795:	41 55                	push   r13
  40c797:	41 54                	push   r12
  40c799:	53                   	push   rbx
  40c79a:	48 81 ec d8 07 00 00 	sub    rsp,0x7d8
  40c7a1:	49 89 f5             	mov    r13,rsi
  40c7a4:	e8 f7 0e 00 00       	call   40d6a0 <_Z11clear_dp_ttv>
  40c7a9:	4c 89 ef             	mov    rdi,r13
  40c7ac:	e8 3f ff ff ff       	call   40c6f0 <_Z17reset_search_dataP7state_t>
  40c7b1:	4c 89 ef             	mov    rdi,r13
  40c7b4:	e8 d7 fe ff ff       	call   40c690 <_Z21reset_search_countersP7state_t>
  40c7b9:	e8 82 26 00 00       	call   40ee40 <_Z5rtimev>
  40c7be:	89 05 5c 36 b6 00    	mov    DWORD PTR [rip+0xb6365c],eax        # f6fe20 <gamestate+0x8ce8>
  40c7c4:	41 c7 85 d8 01 00 00 	mov    DWORD PTR [r13+0x1d8],0x1
  40c7cb:	01 00 00 00 
  40c7cf:	49 8b 85 e0 01 00 00 	mov    rax,QWORD PTR [r13+0x1e0]
  40c7d6:	48 63 0d 97 a9 b5 00 	movsxd rcx,DWORD PTR [rip+0xb5a997]        # f67174 <gamestate+0x3c>
  40c7dd:	49 89 84 cd 30 11 00 	mov    QWORD PTR [r13+rcx*8+0x1130],rax
  40c7e4:	00 
  40c7e5:	4c 89 ef             	mov    rdi,r13
  40c7e8:	e8 f3 4c ff ff       	call   4014e0 <_Z8in_checkP7state_t>
  40c7ed:	49 63 8d d8 01 00 00 	movsxd rcx,DWORD PTR [r13+0x1d8]
  40c7f4:	41 89 84 8d 04 10 00 	mov    DWORD PTR [r13+rcx*4+0x1004],eax
  40c7fb:	00 
  40c7fc:	48 8d b4 24 10 02 00 	lea    rsi,[rsp+0x210]
  40c803:	00 
  40c804:	4c 89 ef             	mov    rdi,r13
  40c807:	85 c0                	test   eax,eax
  40c809:	74 10                	je     40c81b <_Z5thinkP11gamestate_tP7state_t+0x8b>
  40c80b:	89 c2                	mov    edx,eax
  40c80d:	e8 3e 96 ff ff       	call   405e50 <_Z12gen_evasionsP7state_tPii>
  40c812:	85 c0                	test   eax,eax
  40c814:	7f 12                	jg     40c828 <_Z5thinkP11gamestate_tP7state_t+0x98>
  40c816:	e9 c8 00 00 00       	jmp    40c8e3 <_Z5thinkP11gamestate_tP7state_t+0x153>
  40c81b:	e8 50 80 ff ff       	call   404870 <_Z3genP7state_tPi>
  40c820:	85 c0                	test   eax,eax
  40c822:	0f 8e bb 00 00 00    	jle    40c8e3 <_Z5thinkP11gamestate_tP7state_t+0x153>
  40c828:	41 89 c6             	mov    r14d,eax
  40c82b:	31 db                	xor    ebx,ebx
  40c82d:	31 ed                	xor    ebp,ebp
  40c82f:	45 31 ff             	xor    r15d,r15d
  40c832:	66 2e 0f 1f 84 00 00 	cs nop WORD PTR [rax+rax*1+0x0]
  40c839:	00 00 00 
  40c83c:	0f 1f 40 00          	nop    DWORD PTR [rax+0x0]
  40c840:	8b b4 9c 10 02 00 00 	mov    esi,DWORD PTR [rsp+rbx*4+0x210]
  40c847:	4c 89 ef             	mov    rdi,r13
  40c84a:	e8 61 97 ff ff       	call   405fb0 <_Z4makeP7state_ti>
  40c84f:	8b b4 9c 10 02 00 00 	mov    esi,DWORD PTR [rsp+rbx*4+0x210]
  40c856:	4c 89 ef             	mov    rdi,r13
  40c859:	e8 22 a2 ff ff       	call   406a80 <_Z11check_legalP7state_ti>
  40c85e:	31 c9                	xor    ecx,ecx
  40c860:	85 c0                	test   eax,eax
  40c862:	0f 95 c1             	setne  cl
  40c865:	44 0f 45 fb          	cmovne r15d,ebx
  40c869:	01 cd                	add    ebp,ecx
  40c86b:	8b b4 9c 10 02 00 00 	mov    esi,DWORD PTR [rsp+rbx*4+0x210]
  40c872:	4c 89 ef             	mov    rdi,r13
  40c875:	e8 46 9e ff ff       	call   4066c0 <_Z6unmakeP7state_ti>
  40c87a:	48 83 c3 01          	add    rbx,0x1
  40c87e:	49 39 de             	cmp    r14,rbx
  40c881:	75 bd                	jne    40c840 <_Z5thinkP11gamestate_tP7state_t+0xb0>
  40c883:	83 fd 01             	cmp    ebp,0x1
  40c886:	75 5b                	jne    40c8e3 <_Z5thinkP11gamestate_tP7state_t+0x153>
  40c888:	8b 05 e6 75 b5 00    	mov    eax,DWORD PTR [rip+0xb575e6]        # f63e74 <is_pondering>
  40c88e:	85 c0                	test   eax,eax
  40c890:	75 51                	jne    40c8e3 <_Z5thinkP11gamestate_tP7state_t+0x153>
  40c892:	49 63 df             	movsxd rbx,r15d
  40c895:	83 3d e8 75 b5 00 00 	cmp    DWORD PTR [rip+0xb575e8],0x0        # f63e84 <uci_mode>
  40c89c:	74 38                	je     40c8d6 <_Z5thinkP11gamestate_tP7state_t+0x146>
  40c89e:	8b b4 9c 10 02 00 00 	mov    esi,DWORD PTR [rsp+rbx*4+0x210]
  40c8a5:	48 8d 6c 24 10       	lea    rbp,[rsp+0x10]
  40c8aa:	4c 89 ef             	mov    rdi,r13
  40c8ad:	48 89 ea             	mov    rdx,rbp
  40c8b0:	e8 9b 19 00 00       	call   40e250 <_Z13comp_to_coordP7state_tiPc>
  40c8b5:	8b 35 ad f5 b2 00    	mov    esi,DWORD PTR [rip+0xb2f5ad]        # f3be68 <_ZZ5thinkP11gamestate_tP7state_tE15lastsearchscore>
  40c8bb:	bf 50 14 41 00       	mov    edi,0x411450
  40c8c0:	31 c0                	xor    eax,eax
  40c8c2:	e8 09 1c 00 00       	call   40e4d0 <_Z8myprintfPKcz>
  40c8c7:	bf 79 14 41 00       	mov    edi,0x411479
  40c8cc:	31 c0                	xor    eax,eax
  40c8ce:	48 89 ee             	mov    rsi,rbp
  40c8d1:	e8 fa 1b 00 00       	call   40e4d0 <_Z8myprintfPKcz>
  40c8d6:	44 8b a4 9c 10 02 00 	mov    r12d,DWORD PTR [rsp+rbx*4+0x210]
  40c8dd:	00 
  40c8de:	e9 a0 06 00 00       	jmp    40cf83 <_Z5thinkP11gamestate_tP7state_t+0x7f3>
  40c8e3:	bf 38 71 f6 00       	mov    edi,0xf67138
  40c8e8:	4c 89 ee             	mov    rsi,r13
  40c8eb:	e8 70 5f ff ff       	call   402860 <_Z11check_phaseP11gamestate_tP7state_t>
  40c8f0:	83 3d 8d 75 b5 00 00 	cmp    DWORD PTR [rip+0xb5758d],0x0        # f63e84 <uci_mode>
  40c8f7:	75 2e                	jne    40c927 <_Z5thinkP11gamestate_tP7state_t+0x197>
  40c8f9:	8b 05 3d a8 b5 00    	mov    eax,DWORD PTR [rip+0xb5a83d]        # f6713c <gamestate+0x4>
  40c8ff:	83 f8 02             	cmp    eax,0x2
  40c902:	74 10                	je     40c914 <_Z5thinkP11gamestate_tP7state_t+0x184>
  40c904:	83 f8 01             	cmp    eax,0x1
  40c907:	74 12                	je     40c91b <_Z5thinkP11gamestate_tP7state_t+0x18b>
  40c909:	85 c0                	test   eax,eax
  40c90b:	75 1a                	jne    40c927 <_Z5thinkP11gamestate_tP7state_t+0x197>
  40c90d:	bf 86 14 41 00       	mov    edi,0x411486
  40c912:	eb 0c                	jmp    40c920 <_Z5thinkP11gamestate_tP7state_t+0x190>
  40c914:	bf a9 14 41 00       	mov    edi,0x4114a9
  40c919:	eb 05                	jmp    40c920 <_Z5thinkP11gamestate_tP7state_t+0x190>
  40c91b:	bf 96 14 41 00       	mov    edi,0x411496
  40c920:	31 c0                	xor    eax,eax
  40c922:	e8 a9 1b 00 00       	call   40e4d0 <_Z8myprintfPKcz>
  40c927:	8b 05 4f 75 b5 00    	mov    eax,DWORD PTR [rip+0xb5754f]        # f63e7c <is_analyzing>
  40c92d:	be ff e0 f5 05       	mov    esi,0x5f5e0ff
  40c932:	0b 05 3c 75 b5 00    	or     eax,DWORD PTR [rip+0xb5753c]        # f63e74 <is_pondering>
  40c938:	75 1b                	jne    40c955 <_Z5thinkP11gamestate_tP7state_t+0x1c5>
  40c93a:	8b 35 2c a8 b5 00    	mov    esi,DWORD PTR [rip+0xb5a82c]        # f6716c <gamestate+0x34>
  40c940:	85 f6                	test   esi,esi
  40c942:	75 11                	jne    40c955 <_Z5thinkP11gamestate_tP7state_t+0x1c5>
  40c944:	bf 38 71 f6 00       	mov    edi,0xf67138
  40c949:	be 01 00 00 00       	mov    esi,0x1
  40c94e:	e8 0d 14 00 00       	call   40dd60 <_Z13allocate_timeP11gamestate_ti>
  40c953:	89 c6                	mov    esi,eax
  40c955:	89 35 0d a8 b5 00    	mov    DWORD PTR [rip+0xb5a80d],esi        # f67168 <gamestate+0x30>
  40c95b:	83 3d 22 75 b5 00 00 	cmp    DWORD PTR [rip+0xb57522],0x0        # f63e84 <uci_mode>
  40c962:	74 47                	je     40c9ab <_Z5thinkP11gamestate_tP7state_t+0x21b>
  40c964:	81 fe ff e0 f5 05    	cmp    esi,0x5f5e0ff
  40c96a:	74 4b                	je     40c9b7 <_Z5thinkP11gamestate_tP7state_t+0x227>
  40c96c:	48 63 c6             	movsxd rax,esi
  40c96f:	48 69 c8 1f 85 eb 51 	imul   rcx,rax,0x51eb851f
  40c976:	48 89 c8             	mov    rax,rcx
  40c979:	48 c1 e8 3f          	shr    rax,0x3f
  40c97d:	48 c1 f9 25          	sar    rcx,0x25
  40c981:	01 c1                	add    ecx,eax
  40c983:	c5 fb 2a c6          	vcvtsi2sd xmm0,xmm0,esi
  40c987:	c5 fb 5e 05 99 4a 00 	vdivsd xmm0,xmm0,QWORD PTR [rip+0x4a99]        # 411428 <_ZL8rc_index+0x38>
  40c98e:	00 
  40c98f:	c5 fb 5e 05 99 4a 00 	vdivsd xmm0,xmm0,QWORD PTR [rip+0x4a99]        # 411430 <_ZL8rc_index+0x40>
  40c996:	00 
  40c997:	c5 fb 2c d0          	vcvttsd2si edx,xmm0
  40c99b:	bf cd 14 41 00       	mov    edi,0x4114cd
  40c9a0:	31 c0                	xor    eax,eax
  40c9a2:	89 ce                	mov    esi,ecx
  40c9a4:	e8 27 1b 00 00       	call   40e4d0 <_Z8myprintfPKcz>
  40c9a9:	eb 0c                	jmp    40c9b7 <_Z5thinkP11gamestate_tP7state_t+0x227>
  40c9ab:	bf b9 14 41 00       	mov    edi,0x4114b9
  40c9b0:	31 c0                	xor    eax,eax
  40c9b2:	e8 19 1b 00 00       	call   40e4d0 <_Z8myprintfPKcz>
  40c9b7:	48 c7 05 76 34 b6 00 	mov    QWORD PTR [rip+0xb63476],0x0        # f6fe38 <gamestate+0x8d00>
  40c9be:	00 00 00 00 
  40c9c2:	48 c7 05 5f 34 b6 00 	mov    QWORD PTR [rip+0xb6345f],0x0        # f6fe2c <gamestate+0x8cf4>
  40c9c9:	00 00 00 00 
  40c9cd:	c7 05 61 a7 b5 00 00 	mov    DWORD PTR [rip+0xb5a761],0x0        # f67138 <gamestate>
  40c9d4:	00 00 00 
  40c9d7:	c7 05 6b a7 b5 00 01 	mov    DWORD PTR [rip+0xb5a76b],0x1        # f6714c <gamestate+0x14>
  40c9de:	00 00 00 
  40c9e1:	c7 44 24 10 28 00 00 	mov    DWORD PTR [rsp+0x10],0x28
  40c9e8:	00 
  40c9e9:	48 8d 7c 24 10       	lea    rdi,[rsp+0x10]
  40c9ee:	be 70 71 f6 00       	mov    esi,0xf67170
  40c9f3:	e8 78 5c ff ff       	call   402670 <_ZSt3minIiERKT_S2_S2_>
  40c9f8:	83 38 00             	cmp    DWORD PTR [rax],0x0
  40c9fb:	0f 8e 73 05 00 00    	jle    40cf74 <_Z5thinkP11gamestate_tP7state_t+0x7e4>
  40ca01:	31 c0                	xor    eax,eax
  40ca03:	48 89 44 24 08       	mov    QWORD PTR [rsp+0x8],rax
  40ca08:	45 31 f6             	xor    r14d,r14d
  40ca0b:	31 db                	xor    ebx,ebx
  40ca0d:	0f 1f 00             	nop    DWORD PTR [rax]
  40ca10:	83 3d 6d 74 b5 00 00 	cmp    DWORD PTR [rip+0xb5746d],0x0        # f63e84 <uci_mode>
  40ca17:	74 0e                	je     40ca27 <_Z5thinkP11gamestate_tP7state_t+0x297>
  40ca19:	41 d1 ad 0c 11 00 00 	shr    DWORD PTR [r13+0x110c],1
  40ca20:	41 d1 ad 10 11 00 00 	shr    DWORD PTR [r13+0x1110],1
  40ca27:	8b 05 1f a7 b5 00    	mov    eax,DWORD PTR [rip+0xb5a71f]        # f6714c <gamestate+0x14>
  40ca2d:	41 3b 85 00 10 00 00 	cmp    eax,DWORD PTR [r13+0x1000]
  40ca34:	7e 07                	jle    40ca3d <_Z5thinkP11gamestate_tP7state_t+0x2ad>
  40ca36:	41 89 85 00 10 00 00 	mov    DWORD PTR [r13+0x1000],eax
  40ca3d:	e8 fe 23 00 00       	call   40ee40 <_Z5rtimev>
  40ca42:	8b 35 d8 33 b6 00    	mov    esi,DWORD PTR [rip+0xb633d8]        # f6fe20 <gamestate+0x8ce8>
  40ca48:	89 c7                	mov    edi,eax
  40ca4a:	e8 e1 23 00 00       	call   40ee30 <_Z9rdifftimeii>
  40ca4f:	8b 0d db 33 b6 00    	mov    ecx,DWORD PTR [rip+0xb633db]        # f6fe30 <gamestate+0x8cf8>
  40ca55:	0b 0d d1 33 b6 00    	or     ecx,DWORD PTR [rip+0xb633d1]        # f6fe2c <gamestate+0x8cf4>
  40ca5b:	89 44 24 04          	mov    DWORD PTR [rsp+0x4],eax
  40ca5f:	75 4f                	jne    40cab0 <_Z5thinkP11gamestate_tP7state_t+0x320>
  40ca61:	83 3d cc 33 b6 00 00 	cmp    DWORD PTR [rip+0xb633cc],0x0        # f6fe34 <gamestate+0x8cfc>
  40ca68:	74 0e                	je     40ca78 <_Z5thinkP11gamestate_tP7state_t+0x2e8>
  40ca6a:	83 3d db a6 b5 00 02 	cmp    DWORD PTR [rip+0xb5a6db],0x2        # f6714c <gamestate+0x14>
  40ca71:	7e 3d                	jle    40cab0 <_Z5thinkP11gamestate_tP7state_t+0x320>
  40ca73:	e9 25 05 00 00       	jmp    40cf9d <_Z5thinkP11gamestate_tP7state_t+0x80d>
  40ca78:	83 3d ed a6 b5 00 00 	cmp    DWORD PTR [rip+0xb5a6ed],0x0        # f6716c <gamestate+0x34>
  40ca7f:	75 2f                	jne    40cab0 <_Z5thinkP11gamestate_tP7state_t+0x320>
  40ca81:	83 3d c4 a6 b5 00 03 	cmp    DWORD PTR [rip+0xb5a6c4],0x3        # f6714c <gamestate+0x14>
  40ca88:	7c 26                	jl     40cab0 <_Z5thinkP11gamestate_tP7state_t+0x320>
  40ca8a:	c5 eb 2a c0          	vcvtsi2sd xmm0,xmm2,eax
  40ca8e:	c5 eb 2a 0d d2 a6 b5 	vcvtsi2sd xmm1,xmm2,DWORD PTR [rip+0xb5a6d2]        # f67168 <gamestate+0x30>
  40ca95:	00 
  40ca96:	c5 f3 5e 0d 8a 49 00 	vdivsd xmm1,xmm1,QWORD PTR [rip+0x498a]        # 411428 <_ZL8rc_index+0x38>
  40ca9d:	00 
  40ca9e:	c5 f9 2e c1          	vucomisd xmm0,xmm1
  40caa2:	0f 87 f5 04 00 00    	ja     40cf9d <_Z5thinkP11gamestate_tP7state_t+0x80d>
  40caa8:	0f 1f 84 00 00 00 00 	nop    DWORD PTR [rax+rax*1+0x0]
  40caaf:	00 
  40cab0:	45 8d 66 e2          	lea    r12d,[r14-0x1e]
  40cab4:	45 8d 7e 1e          	lea    r15d,[r14+0x1e]
  40cab8:	8b 0d 8e a6 b5 00    	mov    ecx,DWORD PTR [rip+0xb5a68e]        # f6714c <gamestate+0x14>
  40cabe:	c1 e1 02             	shl    ecx,0x2
  40cac1:	4c 89 ef             	mov    rdi,r13
  40cac4:	44 89 e6             	mov    esi,r12d
  40cac7:	44 89 fa             	mov    edx,r15d
  40caca:	e8 61 f2 ff ff       	call   40bd30 <_Z11search_rootP7state_tiii>
  40cacf:	83 3d 72 a6 b5 00 00 	cmp    DWORD PTR [rip+0xb5a672],0x0        # f67148 <gamestate+0x10>
  40cad6:	0f 85 bb 02 00 00    	jne    40cd97 <_Z5thinkP11gamestate_tP7state_t+0x607>
  40cadc:	89 c5                	mov    ebp,eax
  40cade:	89 1c 24             	mov    DWORD PTR [rsp],ebx
  40cae1:	4c 89 f3             	mov    rbx,r14
  40cae4:	44 8b 35 4d a6 b5 00 	mov    r14d,DWORD PTR [rip+0xb5a64d]        # f67138 <gamestate>
  40caeb:	45 39 e6             	cmp    r14d,r12d
  40caee:	0f 9f c1             	setg   cl
  40caf1:	8b 05 41 33 b6 00    	mov    eax,DWORD PTR [rip+0xb63341]        # f6fe38 <gamestate+0x8d00>
  40caf7:	85 c0                	test   eax,eax
  40caf9:	0f 95 c2             	setne  dl
  40cafc:	08 ca                	or     dl,cl
  40cafe:	89 d1                	mov    ecx,edx
  40cb00:	80 f1 01             	xor    cl,0x1
  40cb03:	0f b6 c9             	movzx  ecx,cl
  40cb06:	89 0d 20 33 b6 00    	mov    DWORD PTR [rip+0xb63320],ecx        # f6fe2c <gamestate+0x8cf4>
  40cb0c:	84 d2                	test   dl,dl
  40cb0e:	0f 84 9c 00 00 00    	je     40cbb0 <_Z5thinkP11gamestate_tP7state_t+0x420>
  40cb14:	45 39 fe             	cmp    r14d,r15d
  40cb17:	0f 8c e3 00 00 00    	jl     40cc00 <_Z5thinkP11gamestate_tP7state_t+0x470>
  40cb1d:	85 c0                	test   eax,eax
  40cb1f:	0f 85 db 00 00 00    	jne    40cc00 <_Z5thinkP11gamestate_tP7state_t+0x470>
  40cb25:	8b 0d 21 a6 b5 00    	mov    ecx,DWORD PTR [rip+0xb5a621]        # f6714c <gamestate+0x14>
  40cb2b:	c1 e1 02             	shl    ecx,0x2
  40cb2e:	ba 40 42 0f 00       	mov    edx,0xf4240
  40cb33:	4c 89 ef             	mov    rdi,r13
  40cb36:	44 89 e6             	mov    esi,r12d
  40cb39:	e8 f2 f1 ff ff       	call   40bd30 <_Z11search_rootP7state_tiii>
  40cb3e:	44 39 25 f3 a5 b5 00 	cmp    DWORD PTR [rip+0xb5a5f3],r12d        # f67138 <gamestate>
  40cb45:	0f 8f df 00 00 00    	jg     40cc2a <_Z5thinkP11gamestate_tP7state_t+0x49a>
  40cb4b:	8b 0d e7 32 b6 00    	mov    ecx,DWORD PTR [rip+0xb632e7]        # f6fe38 <gamestate+0x8d00>
  40cb51:	85 c9                	test   ecx,ecx
  40cb53:	0f 85 d1 00 00 00    	jne    40cc2a <_Z5thinkP11gamestate_tP7state_t+0x49a>
  40cb59:	c7 05 c9 32 b6 00 01 	mov    DWORD PTR [rip+0xb632c9],0x1        # f6fe2c <gamestate+0x8cf4>
  40cb60:	00 00 00 
  40cb63:	8b 0d e3 a5 b5 00    	mov    ecx,DWORD PTR [rip+0xb5a5e3]        # f6714c <gamestate+0x14>
  40cb69:	c1 e1 02             	shl    ecx,0x2
  40cb6c:	be c0 bd f0 ff       	mov    esi,0xfff0bdc0
  40cb71:	ba 40 42 0f 00       	mov    edx,0xf4240
  40cb76:	4c 89 ef             	mov    rdi,r13
  40cb79:	e8 b2 f1 ff ff       	call   40bd30 <_Z11search_rootP7state_tiii>
  40cb7e:	41 89 c4             	mov    r12d,eax
  40cb81:	83 3d b0 32 b6 00 00 	cmp    DWORD PTR [rip+0xb632b0],0x0        # f6fe38 <gamestate+0x8d00>
  40cb88:	75 0a                	jne    40cb94 <_Z5thinkP11gamestate_tP7state_t+0x404>
  40cb8a:	c7 05 98 32 b6 00 00 	mov    DWORD PTR [rip+0xb63298],0x0        # f6fe2c <gamestate+0x8cf4>
  40cb91:	00 00 00 
  40cb94:	83 3d e9 72 b5 00 00 	cmp    DWORD PTR [rip+0xb572e9],0x0        # f63e84 <uci_mode>
  40cb9b:	0f 85 df 00 00 00    	jne    40cc80 <_Z5thinkP11gamestate_tP7state_t+0x4f0>
  40cba1:	eb 6f                	jmp    40cc12 <_Z5thinkP11gamestate_tP7state_t+0x482>
  40cba3:	66 2e 0f 1f 84 00 00 	cs nop WORD PTR [rax+rax*1+0x0]
  40cbaa:	00 00 00 
  40cbad:	0f 1f 00             	nop    DWORD PTR [rax]
  40cbb0:	8b 0d 96 a5 b5 00    	mov    ecx,DWORD PTR [rip+0xb5a596]        # f6714c <gamestate+0x14>
  40cbb6:	c1 e1 02             	shl    ecx,0x2
  40cbb9:	be c0 bd f0 ff       	mov    esi,0xfff0bdc0
  40cbbe:	4c 89 ef             	mov    rdi,r13
  40cbc1:	44 89 fa             	mov    edx,r15d
  40cbc4:	e8 67 f1 ff ff       	call   40bd30 <_Z11search_rootP7state_tiii>
  40cbc9:	41 89 c4             	mov    r12d,eax
  40cbcc:	83 3d 65 32 b6 00 00 	cmp    DWORD PTR [rip+0xb63265],0x0        # f6fe38 <gamestate+0x8d00>
  40cbd3:	75 2e                	jne    40cc03 <_Z5thinkP11gamestate_tP7state_t+0x473>
  40cbd5:	c7 05 4d 32 b6 00 00 	mov    DWORD PTR [rip+0xb6324d],0x0        # f6fe2c <gamestate+0x8cf4>
  40cbdc:	00 00 00 
  40cbdf:	44 39 3d 52 a5 b5 00 	cmp    DWORD PTR [rip+0xb5a552],r15d        # f67138 <gamestate>
  40cbe6:	49 89 de             	mov    r14,rbx
  40cbe9:	7d 4d                	jge    40cc38 <_Z5thinkP11gamestate_tP7state_t+0x4a8>
  40cbeb:	8b 2c 24             	mov    ebp,DWORD PTR [rsp]
  40cbee:	83 3d 8f 72 b5 00 00 	cmp    DWORD PTR [rip+0xb5728f],0x0        # f63e84 <uci_mode>
  40cbf5:	0f 85 85 00 00 00    	jne    40cc80 <_Z5thinkP11gamestate_tP7state_t+0x4f0>
  40cbfb:	eb 15                	jmp    40cc12 <_Z5thinkP11gamestate_tP7state_t+0x482>
  40cbfd:	0f 1f 00             	nop    DWORD PTR [rax]
  40cc00:	41 89 ec             	mov    r12d,ebp
  40cc03:	49 89 de             	mov    r14,rbx
  40cc06:	8b 2c 24             	mov    ebp,DWORD PTR [rsp]
  40cc09:	83 3d 74 72 b5 00 00 	cmp    DWORD PTR [rip+0xb57274],0x0        # f63e84 <uci_mode>
  40cc10:	75 6e                	jne    40cc80 <_Z5thinkP11gamestate_tP7state_t+0x4f0>
  40cc12:	e8 f9 2c 00 00       	call   40f910 <_Z9interruptv>
  40cc17:	85 c0                	test   eax,eax
  40cc19:	74 65                	je     40cc80 <_Z5thinkP11gamestate_tP7state_t+0x4f0>
  40cc1b:	8b 05 53 72 b5 00    	mov    eax,DWORD PTR [rip+0xb57253]        # f63e74 <is_pondering>
  40cc21:	85 c0                	test   eax,eax
  40cc23:	74 5b                	je     40cc80 <_Z5thinkP11gamestate_tP7state_t+0x4f0>
  40cc25:	e9 3e 03 00 00       	jmp    40cf68 <_Z5thinkP11gamestate_tP7state_t+0x7d8>
  40cc2a:	41 89 c4             	mov    r12d,eax
  40cc2d:	83 3d 50 72 b5 00 00 	cmp    DWORD PTR [rip+0xb57250],0x0        # f63e84 <uci_mode>
  40cc34:	75 4a                	jne    40cc80 <_Z5thinkP11gamestate_tP7state_t+0x4f0>
  40cc36:	eb da                	jmp    40cc12 <_Z5thinkP11gamestate_tP7state_t+0x482>
  40cc38:	8b 0d 0e a5 b5 00    	mov    ecx,DWORD PTR [rip+0xb5a50e]        # f6714c <gamestate+0x14>
  40cc3e:	c1 e1 02             	shl    ecx,0x2
  40cc41:	be c0 bd f0 ff       	mov    esi,0xfff0bdc0
  40cc46:	ba 40 42 0f 00       	mov    edx,0xf4240
  40cc4b:	4c 89 ef             	mov    rdi,r13
  40cc4e:	e8 dd f0 ff ff       	call   40bd30 <_Z11search_rootP7state_tiii>
  40cc53:	41 89 c4             	mov    r12d,eax
  40cc56:	83 3d db 31 b6 00 00 	cmp    DWORD PTR [rip+0xb631db],0x0        # f6fe38 <gamestate+0x8d00>
  40cc5d:	8b 2c 24             	mov    ebp,DWORD PTR [rsp]
  40cc60:	75 a7                	jne    40cc09 <_Z5thinkP11gamestate_tP7state_t+0x479>
  40cc62:	c7 05 c0 31 b6 00 00 	mov    DWORD PTR [rip+0xb631c0],0x0        # f6fe2c <gamestate+0x8cf4>
  40cc69:	00 00 00 
  40cc6c:	83 3d 11 72 b5 00 00 	cmp    DWORD PTR [rip+0xb57211],0x0        # f63e84 <uci_mode>
  40cc73:	74 9d                	je     40cc12 <_Z5thinkP11gamestate_tP7state_t+0x482>
  40cc75:	66 2e 0f 1f 84 00 00 	cs nop WORD PTR [rax+rax*1+0x0]
  40cc7c:	00 00 00 
  40cc7f:	90                   	nop
  40cc80:	8b 35 b6 31 b6 00    	mov    esi,DWORD PTR [rip+0xb631b6]        # f6fe3c <gamestate+0x8d04>
  40cc86:	8b 15 a0 31 b6 00    	mov    edx,DWORD PTR [rip+0xb631a0]        # f6fe2c <gamestate+0x8cf4>
  40cc8c:	89 f0                	mov    eax,esi
  40cc8e:	44 09 e0             	or     eax,r12d
  40cc91:	09 d0                	or     eax,edx
  40cc93:	0f 84 ff 01 00 00    	je     40ce98 <_Z5thinkP11gamestate_tP7state_t+0x708>
  40cc99:	85 f6                	test   esi,esi
  40cc9b:	74 53                	je     40ccf0 <_Z5thinkP11gamestate_tP7state_t+0x560>
  40cc9d:	41 89 ec             	mov    r12d,ebp
  40cca0:	83 3d 91 31 b6 00 00 	cmp    DWORD PTR [rip+0xb63191],0x0        # f6fe38 <gamestate+0x8d00>
  40cca7:	0f 85 ed 00 00 00    	jne    40cd9a <_Z5thinkP11gamestate_tP7state_t+0x60a>
  40ccad:	8b 2d 99 a4 b5 00    	mov    ebp,DWORD PTR [rip+0xb5a499]        # f6714c <gamestate+0x14>
  40ccb3:	8d 45 01             	lea    eax,[rbp+0x1]
  40ccb6:	89 05 90 a4 b5 00    	mov    DWORD PTR [rip+0xb5a490],eax        # f6714c <gamestate+0x14>
  40ccbc:	c7 44 24 10 28 00 00 	mov    DWORD PTR [rsp+0x10],0x28
  40ccc3:	00 
  40ccc4:	be 70 71 f6 00       	mov    esi,0xf67170
  40ccc9:	48 8d 7c 24 10       	lea    rdi,[rsp+0x10]
  40ccce:	e8 9d 59 ff ff       	call   402670 <_ZSt3minIiERKT_S2_S2_>
  40ccd3:	44 89 e3             	mov    ebx,r12d
  40ccd6:	3b 28                	cmp    ebp,DWORD PTR [rax]
  40ccd8:	0f 8c 32 fd ff ff    	jl     40ca10 <_Z5thinkP11gamestate_tP7state_t+0x280>
  40ccde:	e9 b7 00 00 00       	jmp    40cd9a <_Z5thinkP11gamestate_tP7state_t+0x60a>
  40cce3:	66 2e 0f 1f 84 00 00 	cs nop WORD PTR [rax+rax*1+0x0]
  40ccea:	00 00 00 
  40cced:	0f 1f 00             	nop    DWORD PTR [rax]
  40ccf0:	8b 05 8e 71 b5 00    	mov    eax,DWORD PTR [rip+0xb5718e]        # f63e84 <uci_mode>
  40ccf6:	44 8b 35 3b a4 b5 00 	mov    r14d,DWORD PTR [rip+0xb5a43b]        # f67138 <gamestate>
  40ccfd:	85 c0                	test   eax,eax
  40ccff:	75 0d                	jne    40cd0e <_Z5thinkP11gamestate_tP7state_t+0x57e>
  40cd01:	41 81 fe 00 83 ff ff 	cmp    r14d,0xffff8300
  40cd08:	0f 84 8a 02 00 00    	je     40cf98 <_Z5thinkP11gamestate_tP7state_t+0x808>
  40cd0e:	8b 0d 24 31 b6 00    	mov    ecx,DWORD PTR [rip+0xb63124]        # f6fe38 <gamestate+0x8d00>
  40cd14:	85 c9                	test   ecx,ecx
  40cd16:	75 0b                	jne    40cd23 <_Z5thinkP11gamestate_tP7state_t+0x593>
  40cd18:	8b 15 2e a4 b5 00    	mov    edx,DWORD PTR [rip+0xb5a42e]        # f6714c <gamestate+0x14>
  40cd1e:	48 89 54 24 08       	mov    QWORD PTR [rsp+0x8],rdx
  40cd23:	09 c1                	or     ecx,eax
  40cd25:	75 1c                	jne    40cd43 <_Z5thinkP11gamestate_tP7state_t+0x5b3>
  40cd27:	83 3d 6e 71 b5 00 01 	cmp    DWORD PTR [rip+0xb5716e],0x1        # f63e9c <uci_multipv>
  40cd2e:	75 13                	jne    40cd43 <_Z5thinkP11gamestate_tP7state_t+0x5b3>
  40cd30:	31 c9                	xor    ecx,ecx
  40cd32:	45 31 c0             	xor    r8d,r8d
  40cd35:	4c 89 ef             	mov    rdi,r13
  40cd38:	44 89 f6             	mov    esi,r14d
  40cd3b:	44 89 e2             	mov    edx,r12d
  40cd3e:	e8 9d 1e 00 00       	call   40ebe0 <_Z13post_thinkingP7state_tiiPci>
  40cd43:	41 81 fe 0d 7b 00 00 	cmp    r14d,0x7b0d
  40cd4a:	0f 8c 50 ff ff ff    	jl     40cca0 <_Z5thinkP11gamestate_tP7state_t+0x510>
  40cd50:	8b 05 f6 a3 b5 00    	mov    eax,DWORD PTR [rip+0xb5a3f6]        # f6714c <gamestate+0x14>
  40cd56:	83 f8 03             	cmp    eax,0x3
  40cd59:	0f 8c 41 ff ff ff    	jl     40cca0 <_Z5thinkP11gamestate_tP7state_t+0x510>
  40cd5f:	b9 00 7d 00 00       	mov    ecx,0x7d00
  40cd64:	2b 0d ce a3 b5 00    	sub    ecx,DWORD PTR [rip+0xb5a3ce]        # f67138 <gamestate>
  40cd6a:	39 c1                	cmp    ecx,eax
  40cd6c:	0f 8d 2e ff ff ff    	jge    40cca0 <_Z5thinkP11gamestate_tP7state_t+0x510>
  40cd72:	83 3d fb 70 b5 00 00 	cmp    DWORD PTR [rip+0xb570fb],0x0        # f63e74 <is_pondering>
  40cd79:	74 1f                	je     40cd9a <_Z5thinkP11gamestate_tP7state_t+0x60a>
  40cd7b:	81 3d e3 a3 b5 00 ff 	cmp    DWORD PTR [rip+0xb5a3e3],0x5f5e0ff        # f67168 <gamestate+0x30>
  40cd82:	e0 f5 05 
  40cd85:	75 13                	jne    40cd9a <_Z5thinkP11gamestate_tP7state_t+0x60a>
  40cd87:	8b 05 ab 30 b6 00    	mov    eax,DWORD PTR [rip+0xb630ab]        # f6fe38 <gamestate+0x8d00>
  40cd8d:	85 c0                	test   eax,eax
  40cd8f:	0f 84 18 ff ff ff    	je     40ccad <_Z5thinkP11gamestate_tP7state_t+0x51d>
  40cd95:	eb 03                	jmp    40cd9a <_Z5thinkP11gamestate_tP7state_t+0x60a>
  40cd97:	41 89 dc             	mov    r12d,ebx
  40cd9a:	45 85 e4             	test   r12d,r12d
  40cd9d:	0f 84 d1 01 00 00    	je     40cf74 <_Z5thinkP11gamestate_tP7state_t+0x7e4>
  40cda3:	83 3d a2 a3 b5 00 20 	cmp    DWORD PTR [rip+0xb5a3a2],0x20        # f6714c <gamestate+0x14>
  40cdaa:	7c 39                	jl     40cde5 <_Z5thinkP11gamestate_tP7state_t+0x655>
  40cdac:	8b 05 c2 70 b5 00    	mov    eax,DWORD PTR [rip+0xb570c2]        # f63e74 <is_pondering>
  40cdb2:	85 c0                	test   eax,eax
  40cdb4:	74 2f                	je     40cde5 <_Z5thinkP11gamestate_tP7state_t+0x655>
  40cdb6:	8b 05 c8 70 b5 00    	mov    eax,DWORD PTR [rip+0xb570c8]        # f63e84 <uci_mode>
  40cdbc:	85 c0                	test   eax,eax
  40cdbe:	74 25                	je     40cde5 <_Z5thinkP11gamestate_tP7state_t+0x655>
  40cdc0:	8b 05 aa 70 b5 00    	mov    eax,DWORD PTR [rip+0xb570aa]        # f63e70 <buffered_count>
  40cdc6:	85 c0                	test   eax,eax
  40cdc8:	75 1b                	jne    40cde5 <_Z5thinkP11gamestate_tP7state_t+0x655>
  40cdca:	66 0f 1f 44 00 00    	nop    WORD PTR [rax+rax*1+0x0]
  40cdd0:	81 3d 8e a3 b5 00 ff 	cmp    DWORD PTR [rip+0xb5a38e],0x5f5e0ff        # f67168 <gamestate+0x30>
  40cdd7:	e0 f5 05 
  40cdda:	75 09                	jne    40cde5 <_Z5thinkP11gamestate_tP7state_t+0x655>
  40cddc:	e8 2f 2b 00 00       	call   40f910 <_Z9interruptv>
  40cde1:	85 c0                	test   eax,eax
  40cde3:	74 eb                	je     40cdd0 <_Z5thinkP11gamestate_tP7state_t+0x640>
  40cde5:	83 3d 98 70 b5 00 00 	cmp    DWORD PTR [rip+0xb57098],0x0        # f63e84 <uci_mode>
  40cdec:	74 61                	je     40ce4f <_Z5thinkP11gamestate_tP7state_t+0x6bf>
  40cdee:	4c 89 ef             	mov    rdi,r13
  40cdf1:	44 89 e6             	mov    esi,r12d
  40cdf4:	e8 b7 91 ff ff       	call   405fb0 <_Z4makeP7state_ti>
  40cdf9:	4c 89 ef             	mov    rdi,r13
  40cdfc:	e8 cf 1a 00 00       	call   40e8d0 <_Z19extract_ponder_moveP7state_t>
  40ce01:	89 c5                	mov    ebp,eax
  40ce03:	4c 89 ef             	mov    rdi,r13
  40ce06:	44 89 e6             	mov    esi,r12d
  40ce09:	e8 b2 98 ff ff       	call   4066c0 <_Z6unmakeP7state_ti>
  40ce0e:	48 8d 54 24 10       	lea    rdx,[rsp+0x10]
  40ce13:	4c 89 ef             	mov    rdi,r13
  40ce16:	44 89 e6             	mov    esi,r12d
  40ce19:	e8 32 14 00 00       	call   40e250 <_Z13comp_to_coordP7state_tiPc>
  40ce1e:	85 ed                	test   ebp,ebp
  40ce20:	0f 84 1f 01 00 00    	je     40cf45 <_Z5thinkP11gamestate_tP7state_t+0x7b5>
  40ce26:	4c 8d bc 24 d0 05 00 	lea    r15,[rsp+0x5d0]
  40ce2d:	00 
  40ce2e:	4c 89 ef             	mov    rdi,r13
  40ce31:	89 ee                	mov    esi,ebp
  40ce33:	4c 89 fa             	mov    rdx,r15
  40ce36:	e8 15 14 00 00       	call   40e250 <_Z13comp_to_coordP7state_tiPc>
  40ce3b:	48 8d 74 24 10       	lea    rsi,[rsp+0x10]
  40ce40:	bf 63 15 41 00       	mov    edi,0x411563
  40ce45:	31 c0                	xor    eax,eax
  40ce47:	4c 89 fa             	mov    rdx,r15
  40ce4a:	e8 81 16 00 00       	call   40e4d0 <_Z8myprintfPKcz>
  40ce4f:	41 81 fe fe 7c 00 00 	cmp    r14d,0x7cfe
  40ce56:	75 20                	jne    40ce78 <_Z5thinkP11gamestate_tP7state_t+0x6e8>
  40ce58:	8b 05 16 70 b5 00    	mov    eax,DWORD PTR [rip+0xb57016]        # f63e74 <is_pondering>
  40ce5e:	85 c0                	test   eax,eax
  40ce60:	75 16                	jne    40ce78 <_Z5thinkP11gamestate_tP7state_t+0x6e8>
  40ce62:	41 83 bd cc 01 00 00 	cmp    DWORD PTR [r13+0x1cc],0x1
  40ce69:	01 
  40ce6a:	b8 03 00 00 00       	mov    eax,0x3
  40ce6f:	83 d8 00             	sbb    eax,0x0
  40ce72:	89 05 d0 a2 b5 00    	mov    DWORD PTR [rip+0xb5a2d0],eax        # f67148 <gamestate+0x10>
  40ce78:	8b 54 24 04          	mov    edx,DWORD PTR [rsp+0x4]
  40ce7c:	83 fa 15             	cmp    edx,0x15
  40ce7f:	0f 8c 86 00 00 00    	jl     40cf0b <_Z5thinkP11gamestate_tP7state_t+0x77b>
  40ce85:	49 8b 85 f0 0f 00 00 	mov    rax,QWORD PTR [r13+0xff0]
  40ce8c:	48 85 c0             	test   rax,rax
  40ce8f:	78 28                	js     40ceb9 <_Z5thinkP11gamestate_tP7state_t+0x729>
  40ce91:	c4 e1 ea 2a c0       	vcvtsi2ss xmm0,xmm2,rax
  40ce96:	eb 36                	jmp    40cece <_Z5thinkP11gamestate_tP7state_t+0x73e>
  40ce98:	8b 0d 9a 2f b6 00    	mov    ecx,DWORD PTR [rip+0xb62f9a]        # f6fe38 <gamestate+0x8d00>
  40ce9e:	44 8b 05 a3 a2 b5 00 	mov    r8d,DWORD PTR [rip+0xb5a2a3]        # f67148 <gamestate+0x10>
  40cea5:	45 31 e4             	xor    r12d,r12d
  40cea8:	bf ff 14 41 00       	mov    edi,0x4114ff
  40cead:	31 c0                	xor    eax,eax
  40ceaf:	e8 1c 16 00 00       	call   40e4d0 <_Z8myprintfPKcz>
  40ceb4:	e9 be 00 00 00       	jmp    40cf77 <_Z5thinkP11gamestate_tP7state_t+0x7e7>
  40ceb9:	48 89 c1             	mov    rcx,rax
  40cebc:	48 d1 e9             	shr    rcx,1
  40cebf:	83 e0 01             	and    eax,0x1
  40cec2:	48 09 c8             	or     rax,rcx
  40cec5:	c4 e1 ea 2a c0       	vcvtsi2ss xmm0,xmm2,rax
  40ceca:	c5 fa 58 c0          	vaddss xmm0,xmm0,xmm0
  40cece:	c5 ea 2a ca          	vcvtsi2ss xmm1,xmm2,edx
  40ced2:	c5 f2 5e 0d e6 37 00 	vdivss xmm1,xmm1,DWORD PTR [rip+0x37e6]        # 4106c0 <_ZZ15position_to_fenP7state_tPcE9str_empty+0xa>
  40ced9:	00 
  40ceda:	c5 fa 5e c1          	vdivss xmm0,xmm0,xmm1
  40cede:	c5 fa 5e 05 52 45 00 	vdivss xmm0,xmm0,DWORD PTR [rip+0x4552]        # 411438 <_ZL8rc_index+0x48>
  40cee5:	00 
  40cee6:	c5 fa 2c f8          	vcvttss2si edi,xmm0
  40ceea:	e8 41 0e 00 00       	call   40dd30 <_Z4logLi>
  40ceef:	83 f8 07             	cmp    eax,0x7
  40cef2:	b9 08 00 00 00       	mov    ecx,0x8
  40cef7:	0f 4f c8             	cmovg  ecx,eax
  40cefa:	83 f9 12             	cmp    ecx,0x12
  40cefd:	b8 11 00 00 00       	mov    eax,0x11
  40cf02:	0f 4c c1             	cmovl  eax,ecx
  40cf05:	89 05 a9 71 b5 00    	mov    DWORD PTR [rip+0xb571a9],eax        # f640b4 <time_check_log>
  40cf0b:	4c 89 ef             	mov    rdi,r13
  40cf0e:	e8 cd 45 ff ff       	call   4014e0 <_Z8in_checkP7state_t>
  40cf13:	83 7c 24 08 05       	cmp    DWORD PTR [rsp+0x8],0x5
  40cf18:	7c 69                	jl     40cf83 <_Z5thinkP11gamestate_tP7state_t+0x7f3>
  40cf1a:	8b 15 28 a2 b5 00    	mov    edx,DWORD PTR [rip+0xb5a228]        # f67148 <gamestate+0x10>
  40cf20:	89 d1                	mov    ecx,edx
  40cf22:	83 c9 01             	or     ecx,0x1
  40cf25:	83 f9 05             	cmp    ecx,0x5
  40cf28:	74 59                	je     40cf83 <_Z5thinkP11gamestate_tP7state_t+0x7f3>
  40cf2a:	83 fa 01             	cmp    edx,0x1
  40cf2d:	74 54                	je     40cf83 <_Z5thinkP11gamestate_tP7state_t+0x7f3>
  40cf2f:	0b 05 3f 6f b5 00    	or     eax,DWORD PTR [rip+0xb56f3f]        # f63e74 <is_pondering>
  40cf35:	75 4c                	jne    40cf83 <_Z5thinkP11gamestate_tP7state_t+0x7f3>
  40cf37:	83 f9 03             	cmp    ecx,0x3
  40cf3a:	74 47                	je     40cf83 <_Z5thinkP11gamestate_tP7state_t+0x7f3>
  40cf3c:	44 89 35 25 ef b2 00 	mov    DWORD PTR [rip+0xb2ef25],r14d        # f3be68 <_ZZ5thinkP11gamestate_tP7state_tE15lastsearchscore>
  40cf43:	eb 3e                	jmp    40cf83 <_Z5thinkP11gamestate_tP7state_t+0x7f3>
  40cf45:	48 8d 74 24 10       	lea    rsi,[rsp+0x10]
  40cf4a:	bf 79 14 41 00       	mov    edi,0x411479
  40cf4f:	31 c0                	xor    eax,eax
  40cf51:	e8 7a 15 00 00       	call   40e4d0 <_Z8myprintfPKcz>
  40cf56:	41 81 fe fe 7c 00 00 	cmp    r14d,0x7cfe
  40cf5d:	0f 84 f5 fe ff ff    	je     40ce58 <_Z5thinkP11gamestate_tP7state_t+0x6c8>
  40cf63:	e9 10 ff ff ff       	jmp    40ce78 <_Z5thinkP11gamestate_tP7state_t+0x6e8>
  40cf68:	41 89 ec             	mov    r12d,ebp
  40cf6b:	45 85 e4             	test   r12d,r12d
  40cf6e:	0f 85 2f fe ff ff    	jne    40cda3 <_Z5thinkP11gamestate_tP7state_t+0x613>
  40cf74:	45 31 e4             	xor    r12d,r12d
  40cf77:	bf 54 15 41 00       	mov    edi,0x411554
  40cf7c:	31 c0                	xor    eax,eax
  40cf7e:	e8 4d 15 00 00       	call   40e4d0 <_Z8myprintfPKcz>
  40cf83:	44 89 e0             	mov    eax,r12d
  40cf86:	48 81 c4 d8 07 00 00 	add    rsp,0x7d8
  40cf8d:	5b                   	pop    rbx
  40cf8e:	41 5c                	pop    r12
  40cf90:	41 5d                	pop    r13
  40cf92:	41 5e                	pop    r14
  40cf94:	41 5f                	pop    r15
  40cf96:	5d                   	pop    rbp
  40cf97:	c3                   	ret    
  40cf98:	45 31 e4             	xor    r12d,r12d
  40cf9b:	eb e6                	jmp    40cf83 <_Z5thinkP11gamestate_tP7state_t+0x7f3>
  40cf9d:	41 89 dc             	mov    r12d,ebx
  40cfa0:	45 85 e4             	test   r12d,r12d
  40cfa3:	0f 85 fa fd ff ff    	jne    40cda3 <_Z5thinkP11gamestate_tP7state_t+0x613>
  40cfa9:	eb c9                	jmp    40cf74 <_Z5thinkP11gamestate_tP7state_t+0x7e4>
  40cfab:	0f 1f 44 00 00       	nop    DWORD PTR [rax+rax*1+0x0]

000000000040cfb0 <_ZL12make_blunderP7state_tiPii>:
  40cfb0:	55                   	push   rbp
  40cfb1:	41 57                	push   r15
  40cfb3:	41 56                	push   r14
  40cfb5:	41 55                	push   r13
  40cfb7:	41 54                	push   r12
  40cfb9:	53                   	push   rbx
  40cfba:	50                   	push   rax
  40cfbb:	48 63 87 d8 01 00 00 	movsxd rax,DWORD PTR [rdi+0x1d8]
  40cfc2:	31 ed                	xor    ebp,ebp
  40cfc4:	83 bc 87 04 10 00 00 	cmp    DWORD PTR [rdi+rax*4+0x1004],0x0
  40cfcb:	00 
  40cfcc:	0f 85 c6 01 00 00    	jne    40d198 <_ZL12make_blunderP7state_tiPii+0x1e8>
  40cfd2:	41 89 cd             	mov    r13d,ecx
  40cfd5:	49 89 d6             	mov    r14,rdx
  40cfd8:	41 89 f4             	mov    r12d,esi
  40cfdb:	48 89 fb             	mov    rbx,rdi
  40cfde:	8b 3d b4 6e b5 00    	mov    edi,DWORD PTR [rip+0xb56eb4]        # f63e98 <uci_elo>
  40cfe4:	e8 b7 0c 00 00       	call   40dca0 <_Z14elo_to_blunderi>
  40cfe9:	83 f8 63             	cmp    eax,0x63
  40cfec:	0f 8f a6 01 00 00    	jg     40d198 <_ZL12make_blunderP7state_tiPii+0x1e8>
  40cff2:	8b 3d a0 6e b5 00    	mov    edi,DWORD PTR [rip+0xb56ea0]        # f63e98 <uci_elo>
  40cff8:	e8 a3 0c 00 00       	call   40dca0 <_Z14elo_to_blunderi>
  40cffd:	bd 64 00 00 00       	mov    ebp,0x64
  40d002:	29 c5                	sub    ebp,eax
  40d004:	e8 a7 2a 00 00       	call   40fab0 <_Z8myrandomv>
  40d009:	41 89 c7             	mov    r15d,eax
  40d00c:	89 c1                	mov    ecx,eax
  40d00e:	48 69 d1 1f 85 eb 51 	imul   rdx,rcx,0x51eb851f
  40d015:	48 c1 ea 26          	shr    rdx,0x26
  40d019:	41 83 fd 05          	cmp    r13d,0x5
  40d01d:	7f 05                	jg     40d024 <_ZL12make_blunderP7state_tiPii+0x74>
  40d01f:	83 c5 b0             	add    ebp,0xffffffb0
  40d022:	eb 0a                	jmp    40d02e <_ZL12make_blunderP7state_tiPii+0x7e>
  40d024:	8d 4d c4             	lea    ecx,[rbp-0x3c]
  40d027:	41 83 fd 09          	cmp    r13d,0x9
  40d02b:	0f 4c e9             	cmovl  ebp,ecx
  40d02e:	44 69 c2 c8 00 00 00 	imul   r8d,edx,0xc8
  40d035:	8b 0d 11 a1 b5 00    	mov    ecx,DWORD PTR [rip+0xb5a111]        # f6714c <gamestate+0x14>
  40d03b:	ba 05 00 00 00       	mov    edx,0x5
  40d040:	29 ca                	sub    edx,ecx
  40d042:	31 f6                	xor    esi,esi
  40d044:	83 f9 05             	cmp    ecx,0x5
  40d047:	0f 4c f2             	cmovl  esi,edx
  40d04a:	8b 8b 98 01 00 00    	mov    ecx,DWORD PTR [rbx+0x198]
  40d050:	8b 93 d8 01 00 00    	mov    edx,DWORD PTR [rbx+0x1d8]
  40d056:	01 ee                	add    esi,ebp
  40d058:	8d 14 56             	lea    edx,[rsi+rdx*2]
  40d05b:	03 93 b4 01 00 00    	add    edx,DWORD PTR [rbx+0x1b4]
  40d061:	03 93 ac 01 00 00    	add    edx,DWORD PTR [rbx+0x1ac]
  40d067:	03 93 bc 01 00 00    	add    edx,DWORD PTR [rbx+0x1bc]
  40d06d:	03 93 9c 01 00 00    	add    edx,DWORD PTR [rbx+0x19c]
  40d073:	03 93 b8 01 00 00    	add    edx,DWORD PTR [rbx+0x1b8]
  40d079:	03 93 c0 01 00 00    	add    edx,DWORD PTR [rbx+0x1c0]
  40d07f:	03 93 a0 01 00 00    	add    edx,DWORD PTR [rbx+0x1a0]
  40d085:	03 93 b0 01 00 00    	add    edx,DWORD PTR [rbx+0x1b0]
  40d08b:	03 93 94 01 00 00    	add    edx,DWORD PTR [rbx+0x194]
  40d091:	44 8d 0c 0a          	lea    r9d,[rdx+rcx*1]
  40d095:	44 89 e7             	mov    edi,r12d
  40d098:	c1 ef 13             	shr    edi,0x13
  40d09b:	83 e7 0f             	and    edi,0xf
  40d09e:	44 89 e5             	mov    ebp,r12d
  40d0a1:	c1 ed 06             	shr    ebp,0x6
  40d0a4:	83 e5 3f             	and    ebp,0x3f
  40d0a7:	8b 74 ab 04          	mov    esi,DWORD PTR [rbx+rbp*4+0x4]
  40d0ab:	39 f7                	cmp    edi,esi
  40d0ad:	8d 4c 11 e2          	lea    ecx,[rcx+rdx*1-0x1e]
  40d0b1:	41 0f 45 c9          	cmovne ecx,r9d
  40d0b5:	83 c6 ff             	add    esi,0xffffffff
  40d0b8:	8d 51 e2             	lea    edx,[rcx-0x1e]
  40d0bb:	83 fe 02             	cmp    esi,0x2
  40d0be:	0f 43 d1             	cmovae edx,ecx
  40d0c1:	8d 4a f6             	lea    ecx,[rdx-0xa]
  40d0c4:	83 ff 0d             	cmp    edi,0xd
  40d0c7:	0f 44 ca             	cmove  ecx,edx
  40d0ca:	83 c7 f7             	add    edi,0xfffffff7
  40d0cd:	44 8d 69 e2          	lea    r13d,[rcx-0x1e]
  40d0d1:	83 ff 02             	cmp    edi,0x2
  40d0d4:	44 0f 43 e9          	cmovae r13d,ecx
  40d0d8:	44 89 e1             	mov    ecx,r12d
  40d0db:	c1 e9 0c             	shr    ecx,0xc
  40d0de:	89 ca                	mov    edx,ecx
  40d0e0:	80 e2 0f             	and    dl,0xf
  40d0e3:	80 fa 0d             	cmp    dl,0xd
  40d0e6:	4c 89 34 24          	mov    QWORD PTR [rsp],r14
  40d0ea:	77 0e                	ja     40d0fa <_ZL12make_blunderP7state_tiPii+0x14a>
  40d0ec:	83 e1 0f             	and    ecx,0xf
  40d0ef:	ba 01 26 00 00       	mov    edx,0x2601
  40d0f4:	48 0f a3 ca          	bt     rdx,rcx
  40d0f8:	72 04                	jb     40d0fe <_ZL12make_blunderP7state_tiPii+0x14e>
  40d0fa:	41 83 c5 28          	add    r13d,0x28
  40d0fe:	45 29 c7             	sub    r15d,r8d
  40d101:	41 83 e4 3f          	and    r12d,0x3f
  40d105:	89 ef                	mov    edi,ebp
  40d107:	44 89 e6             	mov    esi,r12d
  40d10a:	e8 f1 56 ff ff       	call   402800 <_Z12taxicab_distii>
  40d10f:	41 8d 4c 45 00       	lea    ecx,[r13+rax*2+0x0]
  40d114:	8b 54 ab 04          	mov    edx,DWORD PTR [rbx+rbp*4+0x4]
  40d118:	83 c2 fd             	add    edx,0xfffffffd
  40d11b:	83 fa 02             	cmp    edx,0x2
  40d11e:	45 8d 6c 45 14       	lea    r13d,[r13+rax*2+0x14]
  40d123:	44 0f 43 e9          	cmovae r13d,ecx
  40d127:	44 8b b3 cc 01 00 00 	mov    r14d,DWORD PTR [rbx+0x1cc]
  40d12e:	89 ef                	mov    edi,ebp
  40d130:	e8 5b 56 ff ff       	call   402790 <_Z4ranki>
  40d135:	89 c3                	mov    ebx,eax
  40d137:	44 89 e7             	mov    edi,r12d
  40d13a:	e8 51 56 ff ff       	call   402790 <_Z4ranki>
  40d13f:	45 85 f6             	test   r14d,r14d
  40d142:	74 22                	je     40d166 <_ZL12make_blunderP7state_tiPii+0x1b6>
  40d144:	39 c3                	cmp    ebx,eax
  40d146:	7e 18                	jle    40d160 <_ZL12make_blunderP7state_tiPii+0x1b0>
  40d148:	89 ef                	mov    edi,ebp
  40d14a:	e8 41 56 ff ff       	call   402790 <_Z4ranki>
  40d14f:	89 c3                	mov    ebx,eax
  40d151:	44 89 e7             	mov    edi,r12d
  40d154:	e8 37 56 ff ff       	call   402790 <_Z4ranki>
  40d159:	29 c3                	sub    ebx,eax
  40d15b:	45 8d 6c 9d 00       	lea    r13d,[r13+rbx*4+0x0]
  40d160:	48 8b 1c 24          	mov    rbx,QWORD PTR [rsp]
  40d164:	eb 20                	jmp    40d186 <_ZL12make_blunderP7state_tiPii+0x1d6>
  40d166:	39 c3                	cmp    ebx,eax
  40d168:	48 8b 1c 24          	mov    rbx,QWORD PTR [rsp]
  40d16c:	7d 18                	jge    40d186 <_ZL12make_blunderP7state_tiPii+0x1d6>
  40d16e:	89 ef                	mov    edi,ebp
  40d170:	e8 1b 56 ff ff       	call   402790 <_Z4ranki>
  40d175:	89 c5                	mov    ebp,eax
  40d177:	44 89 e7             	mov    edi,r12d
  40d17a:	e8 11 56 ff ff       	call   402790 <_Z4ranki>
  40d17f:	29 c5                	sub    ebp,eax
  40d181:	45 8d 6c ad 00       	lea    r13d,[r13+rbp*4+0x0]
  40d186:	31 ed                	xor    ebp,ebp
  40d188:	45 39 fd             	cmp    r13d,r15d
  40d18b:	7c 0b                	jl     40d198 <_ZL12make_blunderP7state_tiPii+0x1e8>
  40d18d:	c7 03 c0 bd f0 ff    	mov    DWORD PTR [rbx],0xfff0bdc0
  40d193:	bd 01 00 00 00       	mov    ebp,0x1
  40d198:	89 e8                	mov    eax,ebp
  40d19a:	48 83 c4 08          	add    rsp,0x8
  40d19e:	5b                   	pop    rbx
  40d19f:	41 5c                	pop    r12
  40d1a1:	41 5d                	pop    r13
  40d1a3:	41 5e                	pop    r14
  40d1a5:	41 5f                	pop    r15
  40d1a7:	5d                   	pop    rbp
  40d1a8:	c3                   	ret    
  40d1a9:	0f 1f 80 00 00 00 00 	nop    DWORD PTR [rax+0x0]

000000000040d1b0 <_ZSt3maxIiERKT_S2_S2_>:
  40d1b0:	8b 07                	mov    eax,DWORD PTR [rdi]
  40d1b2:	3b 06                	cmp    eax,DWORD PTR [rsi]
  40d1b4:	48 0f 4c fe          	cmovl  rdi,rsi
  40d1b8:	48 89 f8             	mov    rax,rdi
  40d1bb:	c3                   	ret    
  40d1bc:	0f 1f 40 00          	nop    DWORD PTR [rax+0x0]

000000000040d1c0 <_Z3seeP7state_tiiii>:
  40d1c0:	55                   	push   rbp
  40d1c1:	41 57                	push   r15
  40d1c3:	41 56                	push   r14
  40d1c5:	41 55                	push   r13
  40d1c7:	41 54                	push   r12
  40d1c9:	53                   	push   rbx
  40d1ca:	48 81 ec c8 00 00 00 	sub    rsp,0xc8
  40d1d1:	45 89 c6             	mov    r14d,r8d
  40d1d4:	41 89 cf             	mov    r15d,ecx
  40d1d7:	89 74 24 14          	mov    DWORD PTR [rsp+0x14],esi
  40d1db:	48 89 fb             	mov    rbx,rdi
  40d1de:	48 63 c2             	movsxd rax,edx
  40d1e1:	4c 63 64 87 04       	movsxd r12,DWORD PTR [rdi+rax*4+0x4]
  40d1e6:	4c 8b af 08 01 00 00 	mov    r13,QWORD PTR [rdi+0x108]
  40d1ed:	4a 8b 8c e7 20 01 00 	mov    rcx,QWORD PTR [rdi+r12*8+0x120]
  40d1f4:	00 
  40d1f5:	48 89 4c 24 18       	mov    QWORD PTR [rsp+0x18],rcx
  40d1fa:	48 8b 0c c5 10 7f 41 	mov    rcx,QWORD PTR [rax*8+0x417f10]
  40d201:	00 
  40d202:	4c 31 e9             	xor    rcx,r13
  40d205:	48 89 8f 08 01 00 00 	mov    QWORD PTR [rdi+0x108],rcx
  40d20c:	48 8b 04 c5 10 7f 41 	mov    rax,QWORD PTR [rax*8+0x417f10]
  40d213:	00 
  40d214:	4a 31 84 e7 20 01 00 	xor    QWORD PTR [rdi+r12*8+0x120],rax
  40d21b:	00 
  40d21c:	44 89 fe             	mov    esi,r15d
  40d21f:	e8 ec 42 ff ff       	call   401510 <_Z10attacks_toP7state_ti>
  40d224:	48 89 c5             	mov    rbp,rax
  40d227:	44 89 7c 24 10       	mov    DWORD PTR [rsp+0x10],r15d
  40d22c:	49 63 c7             	movsxd rax,r15d
  40d22f:	48 89 44 24 38       	mov    QWORD PTR [rsp+0x38],rax
  40d234:	48 63 44 83 04       	movsxd rax,DWORD PTR [rbx+rax*4+0x4]
  40d239:	8b 04 85 00 08 41 00 	mov    eax,DWORD PTR [rax*4+0x410800]
  40d240:	89 c1                	mov    ecx,eax
  40d242:	f7 d9                	neg    ecx
  40d244:	0f 4c c8             	cmovl  ecx,eax
  40d247:	89 4c 24 40          	mov    DWORD PTR [rsp+0x40],ecx
  40d24b:	45 85 f6             	test   r14d,r14d
  40d24e:	74 16                	je     40d266 <_Z3seeP7state_tiiii+0xa6>
  40d250:	49 63 c6             	movsxd rax,r14d
  40d253:	8b 0c 85 00 08 41 00 	mov    ecx,DWORD PTR [rax*4+0x410800]
  40d25a:	89 c8                	mov    eax,ecx
  40d25c:	f7 d8                	neg    eax
  40d25e:	0f 4c c1             	cmovl  eax,ecx
  40d261:	83 c0 ab             	add    eax,0xffffffab
  40d264:	eb 0f                	jmp    40d275 <_Z3seeP7state_tiiii+0xb5>
  40d266:	42 8b 0c a5 00 08 41 	mov    ecx,DWORD PTR [r12*4+0x410800]
  40d26d:	00 
  40d26e:	89 c8                	mov    eax,ecx
  40d270:	f7 d8                	neg    eax
  40d272:	0f 4c c1             	cmovl  eax,ecx
  40d275:	48 85 ed             	test   rbp,rbp
  40d278:	4c 8b 44 24 18       	mov    r8,QWORD PTR [rsp+0x18]
  40d27d:	0f 84 1c 02 00 00    	je     40d49f <_Z3seeP7state_tiiii+0x2df>
  40d283:	4c 89 6c 24 20       	mov    QWORD PTR [rsp+0x20],r13
  40d288:	4c 89 64 24 28       	mov    QWORD PTR [rsp+0x28],r12
  40d28d:	44 89 74 24 0c       	mov    DWORD PTR [rsp+0xc],r14d
  40d292:	4c 8b ab 70 01 00 00 	mov    r13,QWORD PTR [rbx+0x170]
  40d299:	4c 0b ab 68 01 00 00 	or     r13,QWORD PTR [rbx+0x168]
  40d2a0:	48 8b 93 58 01 00 00 	mov    rdx,QWORD PTR [rbx+0x158]
  40d2a7:	4c 09 ea             	or     rdx,r13
  40d2aa:	48 0b 93 60 01 00 00 	or     rdx,QWORD PTR [rbx+0x160]
  40d2b1:	4c 0b ab 78 01 00 00 	or     r13,QWORD PTR [rbx+0x178]
  40d2b8:	4c 0b ab 80 01 00 00 	or     r13,QWORD PTR [rbx+0x180]
  40d2bf:	b9 01 00 00 00       	mov    ecx,0x1
  40d2c4:	45 31 e4             	xor    r12d,r12d
  40d2c7:	48 89 54 24 30       	mov    QWORD PTR [rsp+0x30],rdx
  40d2cc:	0f 1f 40 00          	nop    DWORD PTR [rax+0x0]
  40d2d0:	49 89 cf             	mov    r15,rcx
  40d2d3:	8b 4c 24 14          	mov    ecx,DWORD PTR [rsp+0x14]
  40d2d7:	83 f1 01             	xor    ecx,0x1
  40d2da:	89 4c 24 14          	mov    DWORD PTR [rsp+0x14],ecx
  40d2de:	0f 84 7c 00 00 00    	je     40d360 <_Z3seeP7state_tiiii+0x1a0>
  40d2e4:	48 8b 8b 30 01 00 00 	mov    rcx,QWORD PTR [rbx+0x130]
  40d2eb:	41 be 55 00 00 00    	mov    r14d,0x55
  40d2f1:	48 21 e9             	and    rcx,rbp
  40d2f4:	0f 85 d6 00 00 00    	jne    40d3d0 <_Z3seeP7state_tiiii+0x210>
  40d2fa:	48 8b 8b 40 01 00 00 	mov    rcx,QWORD PTR [rbx+0x140]
  40d301:	41 be 31 01 00 00    	mov    r14d,0x131
  40d307:	48 21 e9             	and    rcx,rbp
  40d30a:	0f 85 c0 00 00 00    	jne    40d3d0 <_Z3seeP7state_tiiii+0x210>
  40d310:	48 8b 8b 80 01 00 00 	mov    rcx,QWORD PTR [rbx+0x180]
  40d317:	41 be 4a 01 00 00    	mov    r14d,0x14a
  40d31d:	48 21 e9             	and    rcx,rbp
  40d320:	0f 85 aa 00 00 00    	jne    40d3d0 <_Z3seeP7state_tiiii+0x210>
  40d326:	48 8b 8b 60 01 00 00 	mov    rcx,QWORD PTR [rbx+0x160]
  40d32d:	41 be ea 01 00 00    	mov    r14d,0x1ea
  40d333:	48 21 e9             	and    rcx,rbp
  40d336:	0f 85 94 00 00 00    	jne    40d3d0 <_Z3seeP7state_tiiii+0x210>
  40d33c:	48 8b 8b 70 01 00 00 	mov    rcx,QWORD PTR [rbx+0x170]
  40d343:	41 be a7 03 00 00    	mov    r14d,0x3a7
  40d349:	48 21 e9             	and    rcx,rbp
  40d34c:	0f 85 7e 00 00 00    	jne    40d3d0 <_Z3seeP7state_tiiii+0x210>
  40d352:	48 8b 8b 50 01 00 00 	mov    rcx,QWORD PTR [rbx+0x150]
  40d359:	eb 66                	jmp    40d3c1 <_Z3seeP7state_tiiii+0x201>
  40d35b:	0f 1f 44 00 00       	nop    DWORD PTR [rax+rax*1+0x0]
  40d360:	48 8b 8b 28 01 00 00 	mov    rcx,QWORD PTR [rbx+0x128]
  40d367:	41 be 55 00 00 00    	mov    r14d,0x55
  40d36d:	48 21 e9             	and    rcx,rbp
  40d370:	75 5e                	jne    40d3d0 <_Z3seeP7state_tiiii+0x210>
  40d372:	48 8b 8b 38 01 00 00 	mov    rcx,QWORD PTR [rbx+0x138]
  40d379:	41 be 31 01 00 00    	mov    r14d,0x131
  40d37f:	48 21 e9             	and    rcx,rbp
  40d382:	75 4c                	jne    40d3d0 <_Z3seeP7state_tiiii+0x210>
  40d384:	48 8b 8b 78 01 00 00 	mov    rcx,QWORD PTR [rbx+0x178]
  40d38b:	41 be 4a 01 00 00    	mov    r14d,0x14a
  40d391:	48 21 e9             	and    rcx,rbp
  40d394:	75 3a                	jne    40d3d0 <_Z3seeP7state_tiiii+0x210>
  40d396:	48 8b 8b 58 01 00 00 	mov    rcx,QWORD PTR [rbx+0x158]
  40d39d:	41 be ea 01 00 00    	mov    r14d,0x1ea
  40d3a3:	48 21 e9             	and    rcx,rbp
  40d3a6:	75 28                	jne    40d3d0 <_Z3seeP7state_tiiii+0x210>
  40d3a8:	48 8b 8b 68 01 00 00 	mov    rcx,QWORD PTR [rbx+0x168]
  40d3af:	41 be a7 03 00 00    	mov    r14d,0x3a7
  40d3b5:	48 21 e9             	and    rcx,rbp
  40d3b8:	75 16                	jne    40d3d0 <_Z3seeP7state_tiiii+0x210>
  40d3ba:	48 8b 8b 48 01 00 00 	mov    rcx,QWORD PTR [rbx+0x148]
  40d3c1:	41 be 40 42 0f 00    	mov    r14d,0xf4240
  40d3c7:	48 21 e9             	and    rcx,rbp
  40d3ca:	0f 84 10 01 00 00    	je     40d4e0 <_Z3seeP7state_tiiii+0x320>
  40d3d0:	42 2b 44 bc 3c       	sub    eax,DWORD PTR [rsp+r15*4+0x3c]
  40d3d5:	42 89 44 bc 40       	mov    DWORD PTR [rsp+r15*4+0x40],eax
  40d3da:	48 89 c8             	mov    rax,rcx
  40d3dd:	48 f7 d8             	neg    rax
  40d3e0:	48 21 c8             	and    rax,rcx
  40d3e3:	48 31 83 08 01 00 00 	xor    QWORD PTR [rbx+0x108],rax
  40d3ea:	48 8b 44 24 38       	mov    rax,QWORD PTR [rsp+0x38]
  40d3ef:	48 85 14 c5 90 88 41 	test   QWORD PTR [rax*8+0x418890],rdx
  40d3f6:	00 
  40d3f7:	74 17                	je     40d410 <_Z3seeP7state_tiiii+0x250>
  40d3f9:	48 89 df             	mov    rdi,rbx
  40d3fc:	8b 74 24 10          	mov    esi,DWORD PTR [rsp+0x10]
  40d400:	e8 3b 52 ff ff       	call   402640 <_Z11RookAttacksP7state_ti>
  40d405:	48 8b 54 24 30       	mov    rdx,QWORD PTR [rsp+0x30]
  40d40a:	48 21 d0             	and    rax,rdx
  40d40d:	48 09 c5             	or     rbp,rax
  40d410:	48 8b 44 24 38       	mov    rax,QWORD PTR [rsp+0x38]
  40d415:	4c 85 2c c5 90 8a 41 	test   QWORD PTR [rax*8+0x418a90],r13
  40d41c:	00 
  40d41d:	74 17                	je     40d436 <_Z3seeP7state_tiiii+0x276>
  40d41f:	48 89 df             	mov    rdi,rbx
  40d422:	8b 74 24 10          	mov    esi,DWORD PTR [rsp+0x10]
  40d426:	e8 e5 51 ff ff       	call   402610 <_Z13BishopAttacksP7state_ti>
  40d42b:	48 8b 54 24 30       	mov    rdx,QWORD PTR [rsp+0x30]
  40d430:	4c 21 e8             	and    rax,r13
  40d433:	48 09 c5             	or     rbp,rax
  40d436:	49 8d 4f 01          	lea    rcx,[r15+0x1]
  40d43a:	48 b8 00 00 00 00 01 	movabs rax,0x100000000
  40d441:	00 00 00 
  40d444:	49 01 c4             	add    r12,rax
  40d447:	44 89 f0             	mov    eax,r14d
  40d44a:	48 23 ab 08 01 00 00 	and    rbp,QWORD PTR [rbx+0x108]
  40d451:	0f 85 79 fe ff ff    	jne    40d2d0 <_Z3seeP7state_tiiii+0x110>
  40d457:	42 8b 44 bc 40       	mov    eax,DWORD PTR [rsp+r15*4+0x40]
  40d45c:	44 8b 74 24 0c       	mov    r14d,DWORD PTR [rsp+0xc]
  40d461:	4c 8b 64 24 28       	mov    r12,QWORD PTR [rsp+0x28]
  40d466:	4c 8b 6c 24 20       	mov    r13,QWORD PTR [rsp+0x20]
  40d46b:	48 63 c9             	movsxd rcx,ecx
  40d46e:	89 c2                	mov    edx,eax
  40d470:	4c 8b 44 24 18       	mov    r8,QWORD PTR [rsp+0x18]
  40d475:	66 2e 0f 1f 84 00 00 	cs nop WORD PTR [rax+rax*1+0x0]
  40d47c:	00 00 00 
  40d47f:	90                   	nop
  40d480:	8b 74 8c 38          	mov    esi,DWORD PTR [rsp+rcx*4+0x38]
  40d484:	89 f7                	mov    edi,esi
  40d486:	f7 df                	neg    edi
  40d488:	89 d0                	mov    eax,edx
  40d48a:	f7 d8                	neg    eax
  40d48c:	39 fa                	cmp    edx,edi
  40d48e:	0f 4e c6             	cmovle eax,esi
  40d491:	48 83 c1 ff          	add    rcx,0xffffffffffffffff
  40d495:	89 c2                	mov    edx,eax
  40d497:	48 83 f9 01          	cmp    rcx,0x1
  40d49b:	7f e3                	jg     40d480 <_Z3seeP7state_tiiii+0x2c0>
  40d49d:	eb 04                	jmp    40d4a3 <_Z3seeP7state_tiiii+0x2e3>
  40d49f:	8b 44 24 40          	mov    eax,DWORD PTR [rsp+0x40]
  40d4a3:	4c 89 ab 08 01 00 00 	mov    QWORD PTR [rbx+0x108],r13
  40d4aa:	4e 89 84 e3 20 01 00 	mov    QWORD PTR [rbx+r12*8+0x120],r8
  40d4b1:	00 
  40d4b2:	45 85 f6             	test   r14d,r14d
  40d4b5:	74 17                	je     40d4ce <_Z3seeP7state_tiiii+0x30e>
  40d4b7:	49 63 ce             	movsxd rcx,r14d
  40d4ba:	8b 0c 8d 00 08 41 00 	mov    ecx,DWORD PTR [rcx*4+0x410800]
  40d4c1:	89 ca                	mov    edx,ecx
  40d4c3:	f7 da                	neg    edx
  40d4c5:	0f 4c d1             	cmovl  edx,ecx
  40d4c8:	8d 04 10             	lea    eax,[rax+rdx*1]
  40d4cb:	83 c0 ab             	add    eax,0xffffffab
  40d4ce:	48 81 c4 c8 00 00 00 	add    rsp,0xc8
  40d4d5:	5b                   	pop    rbx
  40d4d6:	41 5c                	pop    r12
  40d4d8:	41 5d                	pop    r13
  40d4da:	41 5e                	pop    r14
  40d4dc:	41 5f                	pop    r15
  40d4de:	5d                   	pop    rbp
  40d4df:	c3                   	ret    
  40d4e0:	49 c1 fc 1e          	sar    r12,0x1e
  40d4e4:	42 8b 44 24 40       	mov    eax,DWORD PTR [rsp+r12*1+0x40]
  40d4e9:	41 83 ff 02          	cmp    r15d,0x2
  40d4ed:	44 8b 74 24 0c       	mov    r14d,DWORD PTR [rsp+0xc]
  40d4f2:	4c 8b 64 24 28       	mov    r12,QWORD PTR [rsp+0x28]
  40d4f7:	4c 8b 6c 24 20       	mov    r13,QWORD PTR [rsp+0x20]
  40d4fc:	7c 08                	jl     40d506 <_Z3seeP7state_tiiii+0x346>
  40d4fe:	44 89 f9             	mov    ecx,r15d
  40d501:	e9 65 ff ff ff       	jmp    40d46b <_Z3seeP7state_tiiii+0x2ab>
  40d506:	4c 8b 44 24 18       	mov    r8,QWORD PTR [rsp+0x18]
  40d50b:	eb 96                	jmp    40d4a3 <_Z3seeP7state_tiiii+0x2e3>
  40d50d:	0f 1f 00             	nop    DWORD PTR [rax]

000000000040d510 <main>:
  40d510:	55                   	push   rbp
  40d511:	41 56                	push   r14
  40d513:	53                   	push   rbx
  40d514:	49 89 f6             	mov    r14,rsi
  40d517:	89 fd                	mov    ebp,edi
  40d519:	48 8b 3d d0 7b 00 00 	mov    rdi,QWORD PTR [rip+0x7bd0]        # 4150f0 <stdout@@GLIBC_2.2.5>
  40d520:	31 db                	xor    ebx,ebx
  40d522:	31 f6                	xor    esi,esi
  40d524:	e8 37 3c ff ff       	call   401160 <setbuf@plt>
  40d529:	48 8b 3d d0 7b 00 00 	mov    rdi,QWORD PTR [rip+0x7bd0]        # 415100 <stdin@@GLIBC_2.2.5>
  40d530:	31 f6                	xor    esi,esi
  40d532:	e8 29 3c ff ff       	call   401160 <setbuf@plt>
  40d537:	e8 04 21 00 00       	call   40f640 <_Z8start_upv>
  40d53c:	bf 38 71 f6 00       	mov    edi,0xf67138
  40d541:	e8 da 89 ff ff       	call   405f20 <_Z15init_parametersP11gamestate_t>
  40d546:	bf c8 40 f6 00       	mov    edi,0xf640c8
  40d54b:	e8 70 01 00 00       	call   40d6c0 <_Z18initialize_zobristP7state_t>
  40d550:	e8 bb 42 ff ff       	call   401810 <_Z22SetupPrecalculatedDatav>
  40d555:	e8 f6 c0 ff ff       	call   409650 <_Z18preprocess_preparev>
  40d55a:	bf 39 30 00 00       	mov    edi,0x3039
  40d55f:	e8 bc 25 00 00       	call   40fb20 <_Z7mysrandj>
  40d564:	bf 38 71 f6 00       	mov    edi,0xf67138
  40d569:	be c8 40 f6 00       	mov    esi,0xf640c8
  40d56e:	e8 3d 10 00 00       	call   40e5b0 <_Z9init_gameP11gamestate_tP7state_t>
  40d573:	bf c8 40 f6 00       	mov    edi,0xf640c8
  40d578:	e8 f3 01 00 00       	call   40d770 <_Z15initialize_hashP7state_t>
  40d57d:	e8 fe 00 00 00       	call   40d680 <_Z8clear_ttv>
  40d582:	e8 69 b3 ff ff       	call   4088f0 <_Z13clear_pawn_ttv>
  40d587:	c7 05 0f 6d b5 00 00 	mov    DWORD PTR [rip+0xb56d0f],0x0        # f642a0 <state+0x1d8>
  40d58e:	00 00 00 
  40d591:	48 b8 28 00 00 00 0f 	movabs rax,0xf00000028
  40d598:	00 00 00 
  40d59b:	48 89 05 ae 9b b5 00 	mov    QWORD PTR [rip+0xb59bae],rax        # f67150 <gamestate+0x18>
  40d5a2:	c7 05 ac 9b b5 00 00 	mov    DWORD PTR [rip+0xb59bac],0x0        # f67158 <gamestate+0x20>
  40d5a9:	00 00 00 
  40d5ac:	c7 05 aa 9b b5 00 90 	mov    DWORD PTR [rip+0xb59baa],0x15f90        # f67160 <gamestate+0x28>
  40d5b3:	5f 01 00 
  40d5b6:	c7 05 f0 6a b5 00 00 	mov    DWORD PTR [rip+0xb56af0],0x0        # f640b0 <contempt>
  40d5bd:	00 00 00 
  40d5c0:	c7 05 7a 9b b5 00 00 	mov    DWORD PTR [rip+0xb59b7a],0x0        # f67144 <gamestate+0xc>
  40d5c7:	00 00 00 
  40d5ca:	c7 05 a0 68 b5 00 00 	mov    DWORD PTR [rip+0xb568a0],0x0        # f63e74 <is_pondering>
  40d5d1:	00 00 00 
  40d5d4:	c7 05 9a 68 b5 00 01 	mov    DWORD PTR [rip+0xb5689a],0x1        # f63e78 <allow_pondering>
  40d5db:	00 00 00 
  40d5de:	c7 05 94 68 b5 00 00 	mov    DWORD PTR [rip+0xb56894],0x0        # f63e7c <is_analyzing>
  40d5e5:	00 00 00 
  40d5e8:	c7 05 7a 9b b5 00 00 	mov    DWORD PTR [rip+0xb59b7a],0x0        # f6716c <gamestate+0x34>
  40d5ef:	00 00 00 
  40d5f2:	48 c7 05 3f 9b b5 00 	mov    QWORD PTR [rip+0xb59b3f],0x0        # f6713c <gamestate+0x4>
  40d5f9:	00 00 00 00 
  40d5fd:	c7 05 ad 6a b5 00 0e 	mov    DWORD PTR [rip+0xb56aad],0xe        # f640b4 <time_check_log>
  40d604:	00 00 00 
  40d607:	bf 74 71 f6 00       	mov    edi,0xf67174
  40d60c:	31 f6                	xor    esi,esi
  40d60e:	ba a4 8c 00 00       	mov    edx,0x8ca4
  40d613:	e8 98 3a ff ff       	call   4010b0 <memset@plt>
  40d618:	48 8b 05 89 6c b5 00 	mov    rax,QWORD PTR [rip+0xb56c89]        # f642a8 <state+0x1e0>
  40d61f:	48 89 05 d2 7b b5 00 	mov    QWORD PTR [rip+0xb57bd2],rax        # f651f8 <state+0x1130>
  40d626:	bf 70 be f3 00       	mov    edi,0xf3be70
  40d62b:	31 f6                	xor    esi,esi
  40d62d:	ba 00 80 02 00       	mov    edx,0x28000
  40d632:	e8 79 3a ff ff       	call   4010b0 <memset@plt>
  40d637:	c7 05 2f 68 b5 00 00 	mov    DWORD PTR [rip+0xb5682f],0x0        # f63e70 <buffered_count>
  40d63e:	00 00 00 
  40d641:	83 fd 02             	cmp    ebp,0x2
  40d644:	75 15                	jne    40d65b <main+0x14b>
  40d646:	49 8b 56 08          	mov    rdx,QWORD PTR [r14+0x8]
  40d64a:	bf 38 71 f6 00       	mov    edi,0xf67138
  40d64f:	be c8 40 f6 00       	mov    esi,0xf640c8
  40d654:	e8 37 69 ff ff       	call   403f90 <_Z17run_epd_testsuiteP11gamestate_tP7state_tPKc>
  40d659:	eb 11                	jmp    40d66c <main+0x15c>
  40d65b:	bf 7a 15 41 00       	mov    edi,0x41157a
  40d660:	31 c0                	xor    eax,eax
  40d662:	e8 69 0e 00 00       	call   40e4d0 <_Z8myprintfPKcz>
  40d667:	bb 01 00 00 00       	mov    ebx,0x1
  40d66c:	89 d8                	mov    eax,ebx
  40d66e:	5b                   	pop    rbx
  40d66f:	41 5e                	pop    r14
  40d671:	5d                   	pop    rbp
  40d672:	c3                   	ret    
  40d673:	90                   	nop
  40d674:	66 2e 0f 1f 84 00 00 	cs nop WORD PTR [rax+rax*1+0x0]
  40d67b:	00 00 00 
  40d67e:	66 90                	xchg   ax,ax

000000000040d680 <_Z8clear_ttv>:
  40d680:	48 8b 3d c9 c7 b7 00 	mov    rdi,QWORD PTR [rip+0xb7c7c9]        # f89e50 <TTable>
  40d687:	8b 05 f3 67 b5 00    	mov    eax,DWORD PTR [rip+0xb567f3]        # f63e80 <TTSize>
  40d68d:	48 c1 e0 04          	shl    rax,0x4
  40d691:	48 8d 14 40          	lea    rdx,[rax+rax*2]
  40d695:	31 f6                	xor    esi,esi
  40d697:	e9 14 3a ff ff       	jmp    4010b0 <memset@plt>
  40d69c:	0f 1f 40 00          	nop    DWORD PTR [rax+0x0]

000000000040d6a0 <_Z11clear_dp_ttv>:
  40d6a0:	8b 05 b2 c7 b7 00    	mov    eax,DWORD PTR [rip+0xb7c7b2]        # f89e58 <TTAge>
  40d6a6:	83 c0 01             	add    eax,0x1
  40d6a9:	31 c9                	xor    ecx,ecx
  40d6ab:	83 f8 03             	cmp    eax,0x3
  40d6ae:	0f 46 c8             	cmovbe ecx,eax
  40d6b1:	89 0d a1 c7 b7 00    	mov    DWORD PTR [rip+0xb7c7a1],ecx        # f89e58 <TTAge>
  40d6b7:	c3                   	ret    
  40d6b8:	0f 1f 84 00 00 00 00 	nop    DWORD PTR [rax+rax*1+0x0]
  40d6bf:	00 

000000000040d6c0 <_Z18initialize_zobristP7state_t>:
  40d6c0:	41 57                	push   r15
  40d6c2:	41 56                	push   r14
  40d6c4:	41 55                	push   r13
  40d6c6:	41 54                	push   r12
  40d6c8:	53                   	push   rbx
  40d6c9:	49 89 fe             	mov    r14,rdi
  40d6cc:	c7 05 82 c7 b7 00 00 	mov    DWORD PTR [rip+0xb7c782],0x0        # f89e58 <TTAge>
  40d6d3:	00 00 00 
  40d6d6:	bf a9 7b 00 00       	mov    edi,0x7ba9
  40d6db:	e8 40 24 00 00       	call   40fb20 <_Z7mysrandj>
  40d6e0:	41 bf 50 82 f8 00    	mov    r15d,0xf88250
  40d6e6:	45 31 e4             	xor    r12d,r12d
  40d6e9:	0f 1f 80 00 00 00 00 	nop    DWORD PTR [rax+0x0]
  40d6f0:	31 db                	xor    ebx,ebx
  40d6f2:	66 2e 0f 1f 84 00 00 	cs nop WORD PTR [rax+rax*1+0x0]
  40d6f9:	00 00 00 
  40d6fc:	0f 1f 40 00          	nop    DWORD PTR [rax+0x0]
  40d700:	e8 ab 23 00 00       	call   40fab0 <_Z8myrandomv>
  40d705:	41 89 c5             	mov    r13d,eax
  40d708:	49 c1 e5 20          	shl    r13,0x20
  40d70c:	e8 9f 23 00 00       	call   40fab0 <_Z8myrandomv>
  40d711:	89 c0                	mov    eax,eax
  40d713:	4c 09 e8             	or     rax,r13
  40d716:	49 89 04 df          	mov    QWORD PTR [r15+rbx*8],rax
  40d71a:	48 83 c3 01          	add    rbx,0x1
  40d71e:	48 83 fb 40          	cmp    rbx,0x40
  40d722:	75 dc                	jne    40d700 <_Z18initialize_zobristP7state_t+0x40>
  40d724:	49 83 c4 01          	add    r12,0x1
  40d728:	49 81 c7 00 02 00 00 	add    r15,0x200
  40d72f:	49 83 fc 0e          	cmp    r12,0xe
  40d733:	75 bb                	jne    40d6f0 <_Z18initialize_zobristP7state_t+0x30>
  40d735:	48 b8 ef be ad de ef 	movabs rax,0xdeadbeefdeadbeef
  40d73c:	be ad de 
  40d73f:	49 89 86 e0 01 00 00 	mov    QWORD PTR [r14+0x1e0],rax
  40d746:	48 b8 00 ee ff c0 00 	movabs rax,0xc0ffee00c0ffee00
  40d74d:	ee ff c0 
  40d750:	49 89 86 e8 01 00 00 	mov    QWORD PTR [r14+0x1e8],rax
  40d757:	5b                   	pop    rbx
  40d758:	41 5c                	pop    r12
  40d75a:	41 5d                	pop    r13
  40d75c:	41 5e                	pop    r14
  40d75e:	41 5f                	pop    r15
  40d760:	c3                   	ret    
  40d761:	66 2e 0f 1f 84 00 00 	cs nop WORD PTR [rax+rax*1+0x0]
  40d768:	00 00 00 
  40d76b:	0f 1f 44 00 00       	nop    DWORD PTR [rax+rax*1+0x0]

000000000040d770 <_Z15initialize_hashP7state_t>:
  40d770:	48 b8 ef be ad de ef 	movabs rax,0xdeadbeefdeadbeef
  40d777:	be ad de 
  40d77a:	48 89 87 e0 01 00 00 	mov    QWORD PTR [rdi+0x1e0],rax
  40d781:	48 b8 00 ee ff c0 00 	movabs rax,0xc0ffee00c0ffee00
  40d788:	ee ff c0 
  40d78b:	48 89 87 e8 01 00 00 	mov    QWORD PTR [rdi+0x1e8],rax
  40d792:	31 c0                	xor    eax,eax
  40d794:	66 2e 0f 1f 84 00 00 	cs nop WORD PTR [rax+rax*1+0x0]
  40d79b:	00 00 00 
  40d79e:	66 90                	xchg   ax,ax
  40d7a0:	48 63 4c 87 04       	movsxd rcx,DWORD PTR [rdi+rax*4+0x4]
  40d7a5:	8d 51 01             	lea    edx,[rcx+0x1]
  40d7a8:	83 e2 fe             	and    edx,0xfffffffe
  40d7ab:	83 fa 1a             	cmp    edx,0x1a
  40d7ae:	74 27                	je     40d7d7 <_Z15initialize_hashP7state_t+0x67>
  40d7b0:	48 c1 e1 09          	shl    rcx,0x9
  40d7b4:	48 8b b4 c1 50 82 f8 	mov    rsi,QWORD PTR [rcx+rax*8+0xf88250]
  40d7bb:	00 
  40d7bc:	48 31 b7 e0 01 00 00 	xor    QWORD PTR [rdi+0x1e0],rsi
  40d7c3:	83 fa 02             	cmp    edx,0x2
  40d7c6:	75 0f                	jne    40d7d7 <_Z15initialize_hashP7state_t+0x67>
  40d7c8:	48 8b 8c c1 50 82 f8 	mov    rcx,QWORD PTR [rcx+rax*8+0xf88250]
  40d7cf:	00 
  40d7d0:	48 31 8f e8 01 00 00 	xor    QWORD PTR [rdi+0x1e8],rcx
  40d7d7:	48 83 c0 01          	add    rax,0x1
  40d7db:	48 83 f8 40          	cmp    rax,0x40
  40d7df:	75 bf                	jne    40d7a0 <_Z15initialize_hashP7state_t+0x30>
  40d7e1:	c3                   	ret    
  40d7e2:	66 2e 0f 1f 84 00 00 	cs nop WORD PTR [rax+rax*1+0x0]
  40d7e9:	00 00 00 
  40d7ec:	0f 1f 40 00          	nop    DWORD PTR [rax+0x0]

000000000040d7f0 <_Z7StoreTTP7state_tiiijiiii>:
  40d7f0:	55                   	push   rbp
  40d7f1:	41 57                	push   r15
  40d7f3:	41 56                	push   r14
  40d7f5:	41 55                	push   r13
  40d7f7:	41 54                	push   r12
  40d7f9:	53                   	push   rbx
  40d7fa:	44 89 44 24 fc       	mov    DWORD PTR [rsp-0x4],r8d
  40d7ff:	89 4c 24 f4          	mov    DWORD PTR [rsp-0xc],ecx
  40d803:	89 54 24 f8          	mov    DWORD PTR [rsp-0x8],edx
  40d807:	44 8b 64 24 40       	mov    r12d,DWORD PTR [rsp+0x40]
  40d80c:	44 8b 7c 24 38       	mov    r15d,DWORD PTR [rsp+0x38]
  40d811:	4c 8b 97 e0 01 00 00 	mov    r10,QWORD PTR [rdi+0x1e0]
  40d818:	83 bf cc 01 00 00 01 	cmp    DWORD PTR [rdi+0x1cc],0x1
  40d81f:	49 83 d2 00          	adc    r10,0x0
  40d823:	4c 8b 1d 26 c6 b7 00 	mov    r11,QWORD PTR [rip+0xb7c626]        # f89e50 <TTable>
  40d82a:	31 d2                	xor    edx,edx
  40d82c:	44 89 d0             	mov    eax,r10d
  40d82f:	f7 35 4b 66 b5 00    	div    DWORD PTR [rip+0xb5664b]        # f63e80 <TTSize>
  40d835:	49 c1 ea 20          	shr    r10,0x20
  40d839:	bb ff ff 00 00       	mov    ebx,0xffff
  40d83e:	31 ed                	xor    ebp,ebp
  40d840:	4c 8d 2c 52          	lea    r13,[rdx+rdx*2]
  40d844:	49 c1 e5 04          	shl    r13,0x4
  40d848:	4d 01 dd             	add    r13,r11
  40d84b:	0f 1f 44 00 00       	nop    DWORD PTR [rax+rax*1+0x0]
  40d850:	48 8d 04 6d 00 00 00 	lea    rax,[rbp*2+0x0]
  40d857:	00 
  40d858:	48 01 e8             	add    rax,rbp
  40d85b:	41 8b 54 85 00       	mov    edx,DWORD PTR [r13+rax*4+0x0]
  40d860:	83 87 0c 11 00 00 01 	add    DWORD PTR [rdi+0x110c],0x1
  40d867:	49 39 d2             	cmp    r10,rdx
  40d86a:	74 5e                	je     40d8ca <_Z7StoreTTP7state_tiiijiiii+0xda>
  40d86c:	4c 8d 34 85 09 00 00 	lea    r14,[rax*4+0x9]
  40d873:	00 
  40d874:	4d 01 ee             	add    r14,r13
  40d877:	41 0f b6 54 85 09    	movzx  edx,BYTE PTR [r13+rax*4+0x9]
  40d87d:	c1 ea 05             	shr    edx,0x5
  40d880:	83 e2 03             	and    edx,0x3
  40d883:	44 8b 1d ce c5 b7 00 	mov    r11d,DWORD PTR [rip+0xb7c5ce]        # f89e58 <TTAge>
  40d88a:	41 39 d3             	cmp    r11d,edx
  40d88d:	75 07                	jne    40d896 <_Z7StoreTTP7state_tiiijiiii+0xa6>
  40d88f:	83 87 10 11 00 00 01 	add    DWORD PTR [rdi+0x1110],0x1
  40d896:	41 0f b6 44 85 08    	movzx  eax,BYTE PTR [r13+rax*4+0x8]
  40d89c:	41 0f b6 0e          	movzx  ecx,BYTE PTR [r14]
  40d8a0:	c1 e9 05             	shr    ecx,0x5
  40d8a3:	83 e1 03             	and    ecx,0x3
  40d8a6:	44 29 d9             	sub    ecx,r11d
  40d8a9:	89 ca                	mov    edx,ecx
  40d8ab:	f7 da                	neg    edx
  40d8ad:	0f 4c d1             	cmovl  edx,ecx
  40d8b0:	c1 e2 0a             	shl    edx,0xa
  40d8b3:	29 d0                	sub    eax,edx
  40d8b5:	39 d8                	cmp    eax,ebx
  40d8b7:	44 0f 4c c5          	cmovl  r8d,ebp
  40d8bb:	0f 4e d8             	cmovle ebx,eax
  40d8be:	48 83 c5 01          	add    rbp,0x1
  40d8c2:	48 83 fd 04          	cmp    rbp,0x4
  40d8c6:	72 88                	jb     40d850 <_Z7StoreTTP7state_tiiijiiii+0x60>
  40d8c8:	eb 03                	jmp    40d8cd <_Z7StoreTTP7state_tiiijiiii+0xdd>
  40d8ca:	41 89 e8             	mov    r8d,ebp
  40d8cd:	49 63 c0             	movsxd rax,r8d
  40d8d0:	48 8d 14 40          	lea    rdx,[rax+rax*2]
  40d8d4:	41 8b 44 95 00       	mov    eax,DWORD PTR [r13+rdx*4+0x0]
  40d8d9:	49 39 c2             	cmp    r10,rax
  40d8dc:	44 8b 44 24 48       	mov    r8d,DWORD PTR [rsp+0x48]
  40d8e1:	75 0f                	jne    40d8f2 <_Z7StoreTTP7state_tiiijiiii+0x102>
  40d8e3:	41 0f b6 44 95 08    	movzx  eax,BYTE PTR [r13+rdx*4+0x8]
  40d8e9:	44 39 c0             	cmp    eax,r8d
  40d8ec:	0f 8f e6 00 00 00    	jg     40d9d8 <_Z7StoreTTP7state_tiiijiiii+0x1e8>
  40d8f2:	3b 74 24 f8          	cmp    esi,DWORD PTR [rsp-0x8]
  40d8f6:	7e 1b                	jle    40d913 <_Z7StoreTTP7state_tiiijiiii+0x123>
  40d8f8:	48 8d 2c 95 09 00 00 	lea    rbp,[rdx*4+0x9]
  40d8ff:	00 
  40d900:	4c 01 ed             	add    rbp,r13
  40d903:	41 8a 5c 95 09       	mov    bl,BYTE PTR [r13+rdx*4+0x9]
  40d908:	3b 74 24 f4          	cmp    esi,DWORD PTR [rsp-0xc]
  40d90c:	7d 1d                	jge    40d92b <_Z7StoreTTP7state_tiiijiiii+0x13b>
  40d90e:	80 cb 06             	or     bl,0x6
  40d911:	eb 1e                	jmp    40d931 <_Z7StoreTTP7state_tiiijiiii+0x141>
  40d913:	48 8d 2c 95 09 00 00 	lea    rbp,[rdx*4+0x9]
  40d91a:	00 
  40d91b:	4c 01 ed             	add    rbp,r13
  40d91e:	41 8a 5c 95 09       	mov    bl,BYTE PTR [r13+rdx*4+0x9]
  40d923:	80 e3 f9             	and    bl,0xf9
  40d926:	80 cb 02             	or     bl,0x2
  40d929:	eb 06                	jmp    40d931 <_Z7StoreTTP7state_tiiijiiii+0x141>
  40d92b:	80 e3 f9             	and    bl,0xf9
  40d92e:	80 cb 04             	or     bl,0x4
  40d931:	48 8d 0c 95 00 00 00 	lea    rcx,[rdx*4+0x0]
  40d938:	00 
  40d939:	4c 01 e9             	add    rcx,r13
  40d93c:	88 5d 00             	mov    BYTE PTR [rbp+0x0],bl
  40d93f:	81 fe 0d 7b 00 00    	cmp    esi,0x7b0d
  40d945:	7c 0e                	jl     40d955 <_Z7StoreTTP7state_tiiijiiii+0x165>
  40d947:	8b 87 d8 01 00 00    	mov    eax,DWORD PTR [rdi+0x1d8]
  40d94d:	8d 34 06             	lea    esi,[rsi+rax*1]
  40d950:	83 c6 ff             	add    esi,0xffffffff
  40d953:	eb 11                	jmp    40d966 <_Z7StoreTTP7state_tiiijiiii+0x176>
  40d955:	81 fe f3 84 ff ff    	cmp    esi,0xffff84f3
  40d95b:	7f 09                	jg     40d966 <_Z7StoreTTP7state_tiiijiiii+0x176>
  40d95d:	83 c6 01             	add    esi,0x1
  40d960:	2b b7 d8 01 00 00    	sub    esi,DWORD PTR [rdi+0x1d8]
  40d966:	81 fe ff 82 ff ff    	cmp    esi,0xffff82ff
  40d96c:	b8 00 83 ff ff       	mov    eax,0xffff8300
  40d971:	0f 4f c6             	cmovg  eax,esi
  40d974:	3d 00 7d 00 00       	cmp    eax,0x7d00
  40d979:	44 89 11             	mov    DWORD PTR [rcx],r10d
  40d97c:	8b 4c 24 fc          	mov    ecx,DWORD PTR [rsp-0x4]
  40d980:	66 41 89 4c 95 06    	mov    WORD PTR [r13+rdx*4+0x6],cx
  40d986:	45 88 44 95 08       	mov    BYTE PTR [r13+rdx*4+0x8],r8b
  40d98b:	b9 00 7d 00 00       	mov    ecx,0x7d00
  40d990:	0f 4c c8             	cmovl  ecx,eax
  40d993:	66 41 89 4c 95 04    	mov    WORD PTR [r13+rdx*4+0x4],cx
  40d999:	41 8a 44 95 09       	mov    al,BYTE PTR [r13+rdx*4+0x9]
  40d99e:	41 80 e1 01          	and    r9b,0x1
  40d9a2:	24 fe                	and    al,0xfe
  40d9a4:	44 08 c8             	or     al,r9b
  40d9a7:	41 88 44 95 09       	mov    BYTE PTR [r13+rdx*4+0x9],al
  40d9ac:	8a 0d a6 c4 b7 00    	mov    cl,BYTE PTR [rip+0xb7c4a6]        # f89e58 <TTAge>
  40d9b2:	c0 e1 05             	shl    cl,0x5
  40d9b5:	80 e1 60             	and    cl,0x60
  40d9b8:	24 87                	and    al,0x87
  40d9ba:	41 c0 e7 03          	shl    r15b,0x3
  40d9be:	41 80 e7 08          	and    r15b,0x8
  40d9c2:	41 c0 e4 04          	shl    r12b,0x4
  40d9c6:	41 80 e4 10          	and    r12b,0x10
  40d9ca:	45 08 fc             	or     r12b,r15b
  40d9cd:	41 08 cc             	or     r12b,cl
  40d9d0:	41 08 c4             	or     r12b,al
  40d9d3:	45 88 64 95 09       	mov    BYTE PTR [r13+rdx*4+0x9],r12b
  40d9d8:	5b                   	pop    rbx
  40d9d9:	41 5c                	pop    r12
  40d9db:	41 5d                	pop    r13
  40d9dd:	41 5e                	pop    r14
  40d9df:	41 5f                	pop    r15
  40d9e1:	5d                   	pop    rbp
  40d9e2:	c3                   	ret    
  40d9e3:	66 2e 0f 1f 84 00 00 	cs nop WORD PTR [rax+rax*1+0x0]
  40d9ea:	00 00 00 
  40d9ed:	0f 1f 00             	nop    DWORD PTR [rax]

000000000040d9f0 <_Z7ProbeTTP7state_tPiiiPjS1_S1_S1_S1_i>:
  40d9f0:	55                   	push   rbp
  40d9f1:	41 57                	push   r15
  40d9f3:	41 56                	push   r14
  40d9f5:	41 55                	push   r13
  40d9f7:	41 54                	push   r12
  40d9f9:	53                   	push   rbx
  40d9fa:	44 8b 7c 24 50       	mov    r15d,DWORD PTR [rsp+0x50]
  40d9ff:	4c 8b 64 24 38       	mov    r12,QWORD PTR [rsp+0x38]
  40da04:	41 c7 04 24 01 00 00 	mov    DWORD PTR [r12],0x1
  40da0b:	00 
  40da0c:	83 87 04 11 00 00 01 	add    DWORD PTR [rdi+0x1104],0x1
  40da13:	4c 8b 5c 24 48       	mov    r11,QWORD PTR [rsp+0x48]
  40da18:	4c 8b 74 24 40       	mov    r14,QWORD PTR [rsp+0x40]
  40da1d:	83 bf cc 01 00 00 01 	cmp    DWORD PTR [rdi+0x1cc],0x1
  40da24:	4c 8b 97 e0 01 00 00 	mov    r10,QWORD PTR [rdi+0x1e0]
  40da2b:	49 83 d2 00          	adc    r10,0x0
  40da2f:	48 8b 1d 1a c4 b7 00 	mov    rbx,QWORD PTR [rip+0xb7c41a]        # f89e50 <TTable>
  40da36:	31 d2                	xor    edx,edx
  40da38:	44 89 d0             	mov    eax,r10d
  40da3b:	f7 35 3f 64 b5 00    	div    DWORD PTR [rip+0xb5643f]        # f63e80 <TTSize>
  40da41:	49 c1 ea 20          	shr    r10,0x20
  40da45:	31 c0                	xor    eax,eax
  40da47:	48 8d 14 52          	lea    rdx,[rdx+rdx*2]
  40da4b:	48 c1 e2 04          	shl    rdx,0x4
  40da4f:	48 01 da             	add    rdx,rbx
  40da52:	66 2e 0f 1f 84 00 00 	cs nop WORD PTR [rax+rax*1+0x0]
  40da59:	00 00 00 
  40da5c:	0f 1f 40 00          	nop    DWORD PTR [rax+0x0]
  40da60:	48 8d 1c 40          	lea    rbx,[rax+rax*2]
  40da64:	8b 1c 9a             	mov    ebx,DWORD PTR [rdx+rbx*4]
  40da67:	49 39 da             	cmp    r10,rbx
  40da6a:	74 14                	je     40da80 <_Z7ProbeTTP7state_tPiiiPjS1_S1_S1_S1_i+0x90>
  40da6c:	48 83 c0 01          	add    rax,0x1
  40da70:	48 83 f8 03          	cmp    rax,0x3
  40da74:	76 ea                	jbe    40da60 <_Z7ProbeTTP7state_tPiiiPjS1_S1_S1_S1_i+0x70>
  40da76:	b8 04 00 00 00       	mov    eax,0x4
  40da7b:	e9 3e 01 00 00       	jmp    40dbbe <_Z7ProbeTTP7state_tPiiiPjS1_S1_S1_S1_i+0x1ce>
  40da80:	83 87 08 11 00 00 01 	add    DWORD PTR [rdi+0x1108],0x1
  40da87:	89 c0                	mov    eax,eax
  40da89:	4c 8d 2c 40          	lea    r13,[rax+rax*2]
  40da8d:	4e 8d 14 aa          	lea    r10,[rdx+r13*4]
  40da91:	49 83 c2 09          	add    r10,0x9
  40da95:	42 0f b6 5c aa 09    	movzx  ebx,BYTE PTR [rdx+r13*4+0x9]
  40da9b:	89 d8                	mov    eax,ebx
  40da9d:	c1 e8 05             	shr    eax,0x5
  40daa0:	83 e0 03             	and    eax,0x3
  40daa3:	8b 2d af c3 b7 00    	mov    ebp,DWORD PTR [rip+0xb7c3af]        # f89e58 <TTAge>
  40daa9:	39 c5                	cmp    ebp,eax
  40daab:	74 11                	je     40dabe <_Z7ProbeTTP7state_tPiiiPjS1_S1_S1_S1_i+0xce>
  40daad:	40 c0 e5 05          	shl    bpl,0x5
  40dab1:	40 80 e5 60          	and    bpl,0x60
  40dab5:	80 e3 9f             	and    bl,0x9f
  40dab8:	40 08 eb             	or     bl,bpl
  40dabb:	41 88 1a             	mov    BYTE PTR [r10],bl
  40dabe:	41 8a 02             	mov    al,BYTE PTR [r10]
  40dac1:	24 06                	and    al,0x6
  40dac3:	3c 02                	cmp    al,0x2
  40dac5:	75 20                	jne    40dae7 <_Z7ProbeTTP7state_tPiiiPjS1_S1_S1_S1_i+0xf7>
  40dac7:	41 8d 47 f0          	lea    eax,[r15-0x10]
  40dacb:	42 0f b6 5c aa 08    	movzx  ebx,BYTE PTR [rdx+r13*4+0x8]
  40dad1:	39 d8                	cmp    eax,ebx
  40dad3:	7f 12                	jg     40dae7 <_Z7ProbeTTP7state_tPiiiPjS1_S1_S1_S1_i+0xf7>
  40dad5:	42 0f bf 44 aa 04    	movsx  eax,WORD PTR [rdx+r13*4+0x4]
  40dadb:	39 c8                	cmp    eax,ecx
  40dadd:	7d 08                	jge    40dae7 <_Z7ProbeTTP7state_tPiiiPjS1_S1_S1_S1_i+0xf7>
  40dadf:	41 c7 04 24 00 00 00 	mov    DWORD PTR [r12],0x0
  40dae6:	00 
  40dae7:	42 0f b6 44 aa 08    	movzx  eax,BYTE PTR [rdx+r13*4+0x8]
  40daed:	44 39 f8             	cmp    eax,r15d
  40daf0:	7d 4b                	jge    40db3d <_Z7ProbeTTP7state_tPiiiPjS1_S1_S1_S1_i+0x14d>
  40daf2:	4a 8d 0c aa          	lea    rcx,[rdx+r13*4]
  40daf6:	48 83 c1 08          	add    rcx,0x8
  40dafa:	42 0f b7 44 aa 06    	movzx  eax,WORD PTR [rdx+r13*4+0x6]
  40db00:	41 89 00             	mov    DWORD PTR [r8],eax
  40db03:	41 0f b6 02          	movzx  eax,BYTE PTR [r10]
  40db07:	83 e0 01             	and    eax,0x1
  40db0a:	41 89 01             	mov    DWORD PTR [r9],eax
  40db0d:	41 0f b6 02          	movzx  eax,BYTE PTR [r10]
  40db11:	c1 e8 03             	shr    eax,0x3
  40db14:	83 e0 01             	and    eax,0x1
  40db17:	41 89 06             	mov    DWORD PTR [r14],eax
  40db1a:	41 0f b6 02          	movzx  eax,BYTE PTR [r10]
  40db1e:	c1 e8 04             	shr    eax,0x4
  40db21:	83 e0 01             	and    eax,0x1
  40db24:	41 89 03             	mov    DWORD PTR [r11],eax
  40db27:	41 8a 02             	mov    al,BYTE PTR [r10]
  40db2a:	d0 e8                	shr    al,1
  40db2c:	24 03                	and    al,0x3
  40db2e:	3c 01                	cmp    al,0x1
  40db30:	74 74                	je     40dba6 <_Z7ProbeTTP7state_tPiiiPjS1_S1_S1_S1_i+0x1b6>
  40db32:	3c 02                	cmp    al,0x2
  40db34:	75 77                	jne    40dbad <_Z7ProbeTTP7state_tPiiiPjS1_S1_S1_S1_i+0x1bd>
  40db36:	b8 40 42 0f 00       	mov    eax,0xf4240
  40db3b:	eb 76                	jmp    40dbb3 <_Z7ProbeTTP7state_tPiiiPjS1_S1_S1_S1_i+0x1c3>
  40db3d:	42 0f bf 4c aa 04    	movsx  ecx,WORD PTR [rdx+r13*4+0x4]
  40db43:	89 0e                	mov    DWORD PTR [rsi],ecx
  40db45:	81 f9 0d 7b 00 00    	cmp    ecx,0x7b0d
  40db4b:	7c 0b                	jl     40db58 <_Z7ProbeTTP7state_tPiiiPjS1_S1_S1_S1_i+0x168>
  40db4d:	83 c1 01             	add    ecx,0x1
  40db50:	2b 8f d8 01 00 00    	sub    ecx,DWORD PTR [rdi+0x1d8]
  40db56:	eb 14                	jmp    40db6c <_Z7ProbeTTP7state_tPiiiPjS1_S1_S1_S1_i+0x17c>
  40db58:	81 f9 f3 84 ff ff    	cmp    ecx,0xffff84f3
  40db5e:	7f 0e                	jg     40db6e <_Z7ProbeTTP7state_tPiiiPjS1_S1_S1_S1_i+0x17e>
  40db60:	8b 87 d8 01 00 00    	mov    eax,DWORD PTR [rdi+0x1d8]
  40db66:	8d 0c 01             	lea    ecx,[rcx+rax*1]
  40db69:	83 c1 ff             	add    ecx,0xffffffff
  40db6c:	89 0e                	mov    DWORD PTR [rsi],ecx
  40db6e:	42 0f b7 44 aa 06    	movzx  eax,WORD PTR [rdx+r13*4+0x6]
  40db74:	41 89 00             	mov    DWORD PTR [r8],eax
  40db77:	41 0f b6 02          	movzx  eax,BYTE PTR [r10]
  40db7b:	83 e0 01             	and    eax,0x1
  40db7e:	41 89 01             	mov    DWORD PTR [r9],eax
  40db81:	41 0f b6 02          	movzx  eax,BYTE PTR [r10]
  40db85:	c1 e8 03             	shr    eax,0x3
  40db88:	83 e0 01             	and    eax,0x1
  40db8b:	41 89 06             	mov    DWORD PTR [r14],eax
  40db8e:	41 0f b6 02          	movzx  eax,BYTE PTR [r10]
  40db92:	c1 e8 04             	shr    eax,0x4
  40db95:	83 e0 01             	and    eax,0x1
  40db98:	41 89 03             	mov    DWORD PTR [r11],eax
  40db9b:	41 0f b6 02          	movzx  eax,BYTE PTR [r10]
  40db9f:	d1 e8                	shr    eax,1
  40dba1:	83 e0 03             	and    eax,0x3
  40dba4:	eb 18                	jmp    40dbbe <_Z7ProbeTTP7state_tPiiiPjS1_S1_S1_S1_i+0x1ce>
  40dba6:	b8 c0 bd f0 ff       	mov    eax,0xfff0bdc0
  40dbab:	eb 06                	jmp    40dbb3 <_Z7ProbeTTP7state_tPiiiPjS1_S1_S1_S1_i+0x1c3>
  40dbad:	42 0f bf 44 aa 04    	movsx  eax,WORD PTR [rdx+r13*4+0x4]
  40dbb3:	89 06                	mov    DWORD PTR [rsi],eax
  40dbb5:	44 88 39             	mov    BYTE PTR [rcx],r15b
  40dbb8:	41 80 22 f9          	and    BYTE PTR [r10],0xf9
  40dbbc:	31 c0                	xor    eax,eax
  40dbbe:	5b                   	pop    rbx
  40dbbf:	41 5c                	pop    r12
  40dbc1:	41 5d                	pop    r13
  40dbc3:	41 5e                	pop    r14
  40dbc5:	41 5f                	pop    r15
  40dbc7:	5d                   	pop    rbp
  40dbc8:	c3                   	ret    
  40dbc9:	0f 1f 80 00 00 00 00 	nop    DWORD PTR [rax+0x0]

000000000040dbd0 <_Z10alloc_hashv>:
  40dbd0:	41 56                	push   r14
  40dbd2:	53                   	push   rbx
  40dbd3:	50                   	push   rax
  40dbd4:	44 8b 35 a5 62 b5 00 	mov    r14d,DWORD PTR [rip+0xb562a5]        # f63e80 <TTSize>
  40dbdb:	4c 89 f0             	mov    rax,r14
  40dbde:	48 c1 e0 04          	shl    rax,0x4
  40dbe2:	48 8d 1c 40          	lea    rbx,[rax+rax*2]
  40dbe6:	48 89 df             	mov    rdi,rbx
  40dbe9:	e8 42 35 ff ff       	call   401130 <malloc@plt>
  40dbee:	48 89 05 5b c2 b7 00 	mov    QWORD PTR [rip+0xb7c25b],rax        # f89e50 <TTable>
  40dbf5:	48 85 c0             	test   rax,rax
  40dbf8:	74 19                	je     40dc13 <_Z10alloc_hashv+0x43>
  40dbfa:	bf be 15 41 00       	mov    edi,0x4115be
  40dbff:	31 c0                	xor    eax,eax
  40dc01:	44 89 f6             	mov    esi,r14d
  40dc04:	48 89 da             	mov    rdx,rbx
  40dc07:	48 83 c4 08          	add    rsp,0x8
  40dc0b:	5b                   	pop    rbx
  40dc0c:	41 5e                	pop    r14
  40dc0e:	e9 bd 08 00 00       	jmp    40e4d0 <_Z8myprintfPKcz>
  40dc13:	bf 98 15 41 00       	mov    edi,0x411598
  40dc18:	31 c0                	xor    eax,eax
  40dc1a:	e8 b1 08 00 00       	call   40e4d0 <_Z8myprintfPKcz>
  40dc1f:	bf 01 00 00 00       	mov    edi,0x1
  40dc24:	e8 f7 34 ff ff       	call   401120 <exit@plt>
  40dc29:	0f 1f 80 00 00 00 00 	nop    DWORD PTR [rax+0x0]

000000000040dc30 <_Z9free_hashv>:
  40dc30:	50                   	push   rax
  40dc31:	48 8b 3d 18 c2 b7 00 	mov    rdi,QWORD PTR [rip+0xb7c218]        # f89e50 <TTable>
  40dc38:	e8 d3 34 ff ff       	call   401110 <free@plt>
  40dc3d:	48 c7 05 08 c2 b7 00 	mov    QWORD PTR [rip+0xb7c208],0x0        # f89e50 <TTable>
  40dc44:	00 00 00 00 
  40dc48:	58                   	pop    rax
  40dc49:	c3                   	ret    
  40dc4a:	66 0f 1f 44 00 00    	nop    WORD PTR [rax+rax*1+0x0]

000000000040dc50 <_Z12elo_to_depthi>:
  40dc50:	b8 3c 00 00 00       	mov    eax,0x3c
  40dc55:	81 ff 5f 09 00 00    	cmp    edi,0x95f
  40dc5b:	7f 42                	jg     40dc9f <_Z12elo_to_depthi+0x4f>
  40dc5d:	b8 0a 00 00 00       	mov    eax,0xa
  40dc62:	81 ff 97 08 00 00    	cmp    edi,0x897
  40dc68:	7f 35                	jg     40dc9f <_Z12elo_to_depthi+0x4f>
  40dc6a:	b8 08 00 00 00       	mov    eax,0x8
  40dc6f:	81 ff cf 07 00 00    	cmp    edi,0x7cf
  40dc75:	7f 28                	jg     40dc9f <_Z12elo_to_depthi+0x4f>
  40dc77:	b8 06 00 00 00       	mov    eax,0x6
  40dc7c:	81 ff 07 07 00 00    	cmp    edi,0x707
  40dc82:	7f 1b                	jg     40dc9f <_Z12elo_to_depthi+0x4f>
  40dc84:	b8 04 00 00 00       	mov    eax,0x4
  40dc89:	81 ff 77 05 00 00    	cmp    edi,0x577
  40dc8f:	7f 0e                	jg     40dc9f <_Z12elo_to_depthi+0x4f>
  40dc91:	31 c0                	xor    eax,eax
  40dc93:	81 ff e7 03 00 00    	cmp    edi,0x3e7
  40dc99:	0f 9f c0             	setg   al
  40dc9c:	83 c8 02             	or     eax,0x2
  40dc9f:	c3                   	ret    

000000000040dca0 <_Z14elo_to_blunderi>:
  40dca0:	b8 64 00 00 00       	mov    eax,0x64
  40dca5:	81 ff 5f 09 00 00    	cmp    edi,0x95f
  40dcab:	7f 44                	jg     40dcf1 <_Z14elo_to_blunderi+0x51>
  40dcad:	b8 5a 00 00 00       	mov    eax,0x5a
  40dcb2:	81 ff 97 08 00 00    	cmp    edi,0x897
  40dcb8:	7f 37                	jg     40dcf1 <_Z14elo_to_blunderi+0x51>
  40dcba:	b8 50 00 00 00       	mov    eax,0x50
  40dcbf:	81 ff cf 07 00 00    	cmp    edi,0x7cf
  40dcc5:	7f 2a                	jg     40dcf1 <_Z14elo_to_blunderi+0x51>
  40dcc7:	b8 46 00 00 00       	mov    eax,0x46
  40dccc:	81 ff 3f 06 00 00    	cmp    edi,0x63f
  40dcd2:	7f 1d                	jg     40dcf1 <_Z14elo_to_blunderi+0x51>
  40dcd4:	b8 3c 00 00 00       	mov    eax,0x3c
  40dcd9:	81 ff af 04 00 00    	cmp    edi,0x4af
  40dcdf:	7f 10                	jg     40dcf1 <_Z14elo_to_blunderi+0x51>
  40dce1:	31 c9                	xor    ecx,ecx
  40dce3:	81 ff 1f 03 00 00    	cmp    edi,0x31f
  40dce9:	b8 32 00 00 00       	mov    eax,0x32
  40dcee:	0f 4e c1             	cmovle eax,ecx
  40dcf1:	c3                   	ret    
  40dcf2:	66 2e 0f 1f 84 00 00 	cs nop WORD PTR [rax+rax*1+0x0]
  40dcf9:	00 00 00 
  40dcfc:	0f 1f 40 00          	nop    DWORD PTR [rax+0x0]

000000000040dd00 <_Z12compact_movei>:
  40dd00:	89 f8                	mov    eax,edi
  40dd02:	c1 e8 0c             	shr    eax,0xc
  40dd05:	89 f9                	mov    ecx,edi
  40dd07:	c1 e9 04             	shr    ecx,0x4
  40dd0a:	81 e1 00 70 00 00    	and    ecx,0x7000
  40dd10:	81 e7 ff 0f 00 00    	and    edi,0xfff
  40dd16:	09 cf                	or     edi,ecx
  40dd18:	83 e0 0f             	and    eax,0xf
  40dd1b:	74 0f                	je     40dd2c <_Z12compact_movei+0x2c>
  40dd1d:	c1 e0 0b             	shl    eax,0xb
  40dd20:	05 00 08 00 00       	add    eax,0x800
  40dd25:	25 00 f0 ff ff       	and    eax,0xfffff000
  40dd2a:	09 c7                	or     edi,eax
  40dd2c:	89 f8                	mov    eax,edi
  40dd2e:	c3                   	ret    
  40dd2f:	90                   	nop

000000000040dd30 <_Z4logLi>:
  40dd30:	b8 ff ff ff ff       	mov    eax,0xffffffff
  40dd35:	66 2e 0f 1f 84 00 00 	cs nop WORD PTR [rax+rax*1+0x0]
  40dd3c:	00 00 00 
  40dd3f:	90                   	nop
  40dd40:	d1 ff                	sar    edi,1
  40dd42:	83 c0 01             	add    eax,0x1
  40dd45:	85 ff                	test   edi,edi
  40dd47:	75 f7                	jne    40dd40 <_Z4logLi+0x10>
  40dd49:	c3                   	ret    
  40dd4a:	66 0f 1f 44 00 00    	nop    WORD PTR [rax+rax*1+0x0]

000000000040dd50 <_Z14dumpsearchstatP7state_t>:
  40dd50:	c3                   	ret    
  40dd51:	66 2e 0f 1f 84 00 00 	cs nop WORD PTR [rax+rax*1+0x0]
  40dd58:	00 00 00 
  40dd5b:	0f 1f 44 00 00       	nop    DWORD PTR [rax+rax*1+0x0]

000000000040dd60 <_Z13allocate_timeP11gamestate_ti>:
  40dd60:	8b 35 ea 93 b5 00    	mov    esi,DWORD PTR [rip+0xb593ea]        # f67150 <gamestate+0x18>
  40dd66:	85 f6                	test   esi,esi
  40dd68:	74 79                	je     40dde3 <_Z13allocate_timeP11gamestate_ti+0x83>
  40dd6a:	c5 fb 2a c6          	vcvtsi2sd xmm0,xmm0,esi
  40dd6e:	c5 fb 58 05 7a 38 00 	vaddsd xmm0,xmm0,QWORD PTR [rip+0x387a]        # 4115f0 <_ZL8rc_index+0x200>
  40dd75:	00 
  40dd76:	c5 fb 10 0d 7a 38 00 	vmovsd xmm1,QWORD PTR [rip+0x387a]        # 4115f8 <_ZL8rc_index+0x208>
  40dd7d:	00 
  40dd7e:	c5 f3 c2 c8 01       	vcmpltsd xmm1,xmm1,xmm0
  40dd83:	c5 f1 55 c0          	vandnpd xmm0,xmm1,xmm0
  40dd87:	c5 fb 10 15 71 38 00 	vmovsd xmm2,QWORD PTR [rip+0x3871]        # 411600 <_ZL8rc_index+0x210>
  40dd8e:	00 
  40dd8f:	c5 f1 54 ca          	vandpd xmm1,xmm1,xmm2
  40dd93:	c5 f9 56 c1          	vorpd  xmm0,xmm0,xmm1
  40dd97:	83 3d e6 60 b5 00 00 	cmp    DWORD PTR [rip+0xb560e6],0x0        # f63e84 <uci_mode>
  40dd9e:	8b 0d bc 93 b5 00    	mov    ecx,DWORD PTR [rip+0xb593bc]        # f67160 <gamestate+0x28>
  40dda4:	c5 e3 2a c9          	vcvtsi2sd xmm1,xmm3,ecx
  40dda8:	c5 f3 58 0d 58 38 00 	vaddsd xmm1,xmm1,QWORD PTR [rip+0x3858]        # 411608 <_ZL8rc_index+0x218>
  40ddaf:	00 
  40ddb0:	75 1a                	jne    40ddcc <_Z13allocate_timeP11gamestate_ti+0x6c>
  40ddb2:	8b 15 bc 93 b5 00    	mov    edx,DWORD PTR [rip+0xb593bc]        # f67174 <gamestate+0x3c>
  40ddb8:	89 d0                	mov    eax,edx
  40ddba:	c1 e8 1f             	shr    eax,0x1f
  40ddbd:	01 d0                	add    eax,edx
  40ddbf:	d1 f8                	sar    eax,1
  40ddc1:	99                   	cdq    
  40ddc2:	f7 fe                	idiv   esi
  40ddc4:	c5 e3 2a d2          	vcvtsi2sd xmm2,xmm3,edx
  40ddc8:	c5 fb 5c c2          	vsubsd xmm0,xmm0,xmm2
  40ddcc:	c5 f3 5e c0          	vdivsd xmm0,xmm1,xmm0
  40ddd0:	83 3d a1 60 b5 00 00 	cmp    DWORD PTR [rip+0xb560a1],0x0        # f63e78 <allow_pondering>
  40ddd7:	74 3e                	je     40de17 <_Z13allocate_timeP11gamestate_ti+0xb7>
  40ddd9:	c5 fb 59 0d 47 36 00 	vmulsd xmm1,xmm0,QWORD PTR [rip+0x3647]        # 411428 <_ZL8rc_index+0x38>
  40dde0:	00 
  40dde1:	eb 3c                	jmp    40de1f <_Z13allocate_timeP11gamestate_ti+0xbf>
  40dde3:	8b 0d 8f 60 b5 00    	mov    ecx,DWORD PTR [rip+0xb5608f]        # f63e78 <allow_pondering>
  40dde9:	31 c0                	xor    eax,eax
  40ddeb:	85 c9                	test   ecx,ecx
  40dded:	0f 94 c0             	sete   al
  40ddf0:	c5 fb 10 04 c5 40 16 	vmovsd xmm0,QWORD PTR [rax*8+0x411640]
  40ddf7:	41 00 
  40ddf9:	8b 05 5d 93 b5 00    	mov    eax,DWORD PTR [rip+0xb5935d]        # f6715c <gamestate+0x24>
  40ddff:	85 c0                	test   eax,eax
  40de01:	74 08                	je     40de0b <_Z13allocate_timeP11gamestate_ti+0xab>
  40de03:	c5 fb 58 05 0d 38 00 	vaddsd xmm0,xmm0,QWORD PTR [rip+0x380d]        # 411618 <_ZL8rc_index+0x228>
  40de0a:	00 
  40de0b:	75 25                	jne    40de32 <_Z13allocate_timeP11gamestate_ti+0xd2>
  40de0d:	c5 f9 28 c8          	vmovapd xmm1,xmm0
  40de11:	85 c9                	test   ecx,ecx
  40de13:	74 29                	je     40de3e <_Z13allocate_timeP11gamestate_ti+0xde>
  40de15:	eb 2b                	jmp    40de42 <_Z13allocate_timeP11gamestate_ti+0xe2>
  40de17:	c5 fb 59 0d f1 37 00 	vmulsd xmm1,xmm0,QWORD PTR [rip+0x37f1]        # 411610 <_ZL8rc_index+0x220>
  40de1e:	00 
  40de1f:	83 c1 9c             	add    ecx,0xffffff9c
  40de22:	c5 e3 2a d1          	vcvtsi2sd xmm2,xmm3,ecx
  40de26:	c5 f9 2e d1          	vucomisd xmm2,xmm1
  40de2a:	76 68                	jbe    40de94 <_Z13allocate_timeP11gamestate_ti+0x134>
  40de2c:	c5 f9 28 c1          	vmovapd xmm0,xmm1
  40de30:	eb 62                	jmp    40de94 <_Z13allocate_timeP11gamestate_ti+0x134>
  40de32:	c5 fb 58 0d e6 37 00 	vaddsd xmm1,xmm0,QWORD PTR [rip+0x37e6]        # 411620 <_ZL8rc_index+0x230>
  40de39:	00 
  40de3a:	85 c9                	test   ecx,ecx
  40de3c:	75 04                	jne    40de42 <_Z13allocate_timeP11gamestate_ti+0xe2>
  40de3e:	c5 f9 28 c8          	vmovapd xmm1,xmm0
  40de42:	c5 eb 2a 15 16 93 b5 	vcvtsi2sd xmm2,xmm2,DWORD PTR [rip+0xb59316]        # f67160 <gamestate+0x28>
  40de49:	00 
  40de4a:	c5 eb 5e c1          	vdivsd xmm0,xmm2,xmm1
  40de4e:	85 c0                	test   eax,eax
  40de50:	74 42                	je     40de94 <_Z13allocate_timeP11gamestate_ti+0x134>
  40de52:	c5 eb 5c c8          	vsubsd xmm1,xmm2,xmm0
  40de56:	c5 e3 2a d0          	vcvtsi2sd xmm2,xmm3,eax
  40de5a:	c5 f3 5c da          	vsubsd xmm3,xmm1,xmm2
  40de5e:	c5 f9 2e 1d c2 37 00 	vucomisd xmm3,QWORD PTR [rip+0x37c2]        # 411628 <_ZL8rc_index+0x238>
  40de65:	00 
  40de66:	76 09                	jbe    40de71 <_Z13allocate_timeP11gamestate_ti+0x111>
  40de68:	c5 fb 58 c2          	vaddsd xmm0,xmm0,xmm2
  40de6c:	c5 fb 2c c0          	vcvttsd2si eax,xmm0
  40de70:	c3                   	ret    
  40de71:	c5 eb 58 d2          	vaddsd xmm2,xmm2,xmm2
  40de75:	c5 eb 5e 15 b3 37 00 	vdivsd xmm2,xmm2,QWORD PTR [rip+0x37b3]        # 411630 <_ZL8rc_index+0x240>
  40de7c:	00 
  40de7d:	c5 f3 5c ca          	vsubsd xmm1,xmm1,xmm2
  40de81:	c5 f9 2e 0d a7 35 00 	vucomisd xmm1,QWORD PTR [rip+0x35a7]        # 411430 <_ZL8rc_index+0x40>
  40de88:	00 
  40de89:	76 09                	jbe    40de94 <_Z13allocate_timeP11gamestate_ti+0x134>
  40de8b:	c5 eb 58 c0          	vaddsd xmm0,xmm2,xmm0
  40de8f:	c5 fb 2c c0          	vcvttsd2si eax,xmm0
  40de93:	c3                   	ret    
  40de94:	c5 fb 2c c0          	vcvttsd2si eax,xmm0
  40de98:	c3                   	ret    
  40de99:	0f 1f 80 00 00 00 00 	nop    DWORD PTR [rax+0x0]

000000000040dea0 <_Z11comp_to_sanP7state_tiPc>:
  40dea0:	55                   	push   rbp
  40dea1:	41 57                	push   r15
  40dea3:	41 56                	push   r14
  40dea5:	41 55                	push   r13
  40dea7:	41 54                	push   r12
  40dea9:	53                   	push   rbx
  40deaa:	48 81 ec a8 07 00 00 	sub    rsp,0x7a8
  40deb1:	48 89 d5             	mov    rbp,rdx
  40deb4:	89 f3                	mov    ebx,esi
  40deb6:	49 89 fd             	mov    r13,rdi
  40deb9:	41 89 f4             	mov    r12d,esi
  40debc:	41 c1 ec 06          	shr    r12d,0x6
  40dec0:	41 83 e4 3f          	and    r12d,0x3f
  40dec4:	44 89 e7             	mov    edi,r12d
  40dec7:	e8 c4 48 ff ff       	call   402790 <_Z4ranki>
  40decc:	41 89 c7             	mov    r15d,eax
  40decf:	41 89 de             	mov    r14d,ebx
  40ded2:	41 83 e6 3f          	and    r14d,0x3f
  40ded6:	44 89 f7             	mov    edi,r14d
  40ded9:	e8 b2 48 ff ff       	call   402790 <_Z4ranki>
  40dede:	89 04 24             	mov    DWORD PTR [rsp],eax
  40dee1:	44 89 e7             	mov    edi,r12d
  40dee4:	e8 b7 48 ff ff       	call   4027a0 <_Z4filei>
  40dee9:	04 60                	add    al,0x60
  40deeb:	89 44 24 18          	mov    DWORD PTR [rsp+0x18],eax
  40deef:	44 89 f7             	mov    edi,r14d
  40def2:	e8 a9 48 ff ff       	call   4027a0 <_Z4filei>
  40def7:	04 60                	add    al,0x60
  40def9:	43 8b 4c a5 04       	mov    ecx,DWORD PTR [r13+r12*4+0x4]
  40defe:	83 c1 ff             	add    ecx,0xffffffff
  40df01:	83 f9 01             	cmp    ecx,0x1
  40df04:	77 45                	ja     40df4b <_Z11comp_to_sanP7state_tiPc+0xab>
  40df06:	89 de                	mov    esi,ebx
  40df08:	c1 ee 0c             	shr    esi,0xc
  40df0b:	83 e6 0f             	and    esi,0xf
  40df0e:	f7 c3 00 00 80 00    	test   ebx,0x800000
  40df14:	75 5e                	jne    40df74 <_Z11comp_to_sanP7state_tiPc+0xd4>
  40df16:	44 89 f1             	mov    ecx,r14d
  40df19:	41 83 7c 8d 04 0d    	cmp    DWORD PTR [r13+rcx*4+0x4],0xd
  40df1f:	75 53                	jne    40df74 <_Z11comp_to_sanP7state_tiPc+0xd4>
  40df21:	0f be d0             	movsx  edx,al
  40df24:	85 f6                	test   esi,esi
  40df26:	0f 84 43 01 00 00    	je     40e06f <_Z11comp_to_sanP7state_tiPc+0x1cf>
  40df2c:	44 0f be 86 90 16 41 	movsx  r8d,BYTE PTR [rsi+0x411690]
  40df33:	00 
  40df34:	be 43 18 41 00       	mov    esi,0x411843
  40df39:	31 c0                	xor    eax,eax
  40df3b:	48 89 ef             	mov    rdi,rbp
  40df3e:	8b 0c 24             	mov    ecx,DWORD PTR [rsp]
  40df41:	e8 fa 30 ff ff       	call   401040 <sprintf@plt>
  40df46:	e9 69 01 00 00       	jmp    40e0b4 <_Z11comp_to_sanP7state_tiPc+0x214>
  40df4b:	44 89 7c 24 1c       	mov    DWORD PTR [rsp+0x1c],r15d
  40df50:	89 d9                	mov    ecx,ebx
  40df52:	c1 e9 10             	shr    ecx,0x10
  40df55:	80 e1 07             	and    cl,0x7
  40df58:	74 4a                	je     40dfa4 <_Z11comp_to_sanP7state_tiPc+0x104>
  40df5a:	80 f9 03             	cmp    cl,0x3
  40df5d:	74 09                	je     40df68 <_Z11comp_to_sanP7state_tiPc+0xc8>
  40df5f:	80 f9 01             	cmp    cl,0x1
  40df62:	0f 85 f8 00 00 00    	jne    40e060 <_Z11comp_to_sanP7state_tiPc+0x1c0>
  40df68:	c7 45 00 4f 2d 4f 00 	mov    DWORD PTR [rbp+0x0],0x4f2d4f
  40df6f:	e9 40 01 00 00       	jmp    40e0b4 <_Z11comp_to_sanP7state_tiPc+0x214>
  40df74:	0f be 54 24 18       	movsx  edx,BYTE PTR [rsp+0x18]
  40df79:	0f be c8             	movsx  ecx,al
  40df7c:	85 f6                	test   esi,esi
  40df7e:	0f 84 ff 00 00 00    	je     40e083 <_Z11comp_to_sanP7state_tiPc+0x1e3>
  40df84:	44 0f be 8e 90 16 41 	movsx  r9d,BYTE PTR [rsi+0x411690]
  40df8b:	00 
  40df8c:	be 40 18 41 00       	mov    esi,0x411840
  40df91:	31 c0                	xor    eax,eax
  40df93:	48 89 ef             	mov    rdi,rbp
  40df96:	44 8b 04 24          	mov    r8d,DWORD PTR [rsp]
  40df9a:	e8 a1 30 ff ff       	call   401040 <sprintf@plt>
  40df9f:	e9 10 01 00 00       	jmp    40e0b4 <_Z11comp_to_sanP7state_tiPc+0x214>
  40dfa4:	89 44 24 14          	mov    DWORD PTR [rsp+0x14],eax
  40dfa8:	48 89 6c 24 08       	mov    QWORD PTR [rsp+0x8],rbp
  40dfad:	89 5c 24 04          	mov    DWORD PTR [rsp+0x4],ebx
  40dfb1:	48 8d 74 24 20       	lea    rsi,[rsp+0x20]
  40dfb6:	4c 89 ef             	mov    rdi,r13
  40dfb9:	e8 b2 68 ff ff       	call   404870 <_Z3genP7state_tPi>
  40dfbe:	89 c3                	mov    ebx,eax
  40dfc0:	4c 89 ef             	mov    rdi,r13
  40dfc3:	e8 18 35 ff ff       	call   4014e0 <_Z8in_checkP7state_t>
  40dfc8:	85 db                	test   ebx,ebx
  40dfca:	7e 71                	jle    40e03d <_Z11comp_to_sanP7state_tiPc+0x19d>
  40dfcc:	48 63 eb             	movsxd rbp,ebx
  40dfcf:	45 31 ff             	xor    r15d,r15d
  40dfd2:	66 2e 0f 1f 84 00 00 	cs nop WORD PTR [rax+rax*1+0x0]
  40dfd9:	00 00 00 
  40dfdc:	0f 1f 40 00          	nop    DWORD PTR [rax+0x0]
  40dfe0:	42 8b 74 bc 20       	mov    esi,DWORD PTR [rsp+r15*4+0x20]
  40dfe5:	89 f0                	mov    eax,esi
  40dfe7:	83 e0 3f             	and    eax,0x3f
  40dfea:	44 39 f0             	cmp    eax,r14d
  40dfed:	75 45                	jne    40e034 <_Z11comp_to_sanP7state_tiPc+0x194>
  40dfef:	89 f0                	mov    eax,esi
  40dff1:	c1 e8 06             	shr    eax,0x6
  40dff4:	83 e0 3f             	and    eax,0x3f
  40dff7:	44 39 e0             	cmp    eax,r12d
  40dffa:	74 38                	je     40e034 <_Z11comp_to_sanP7state_tiPc+0x194>
  40dffc:	43 8b 4c a5 04       	mov    ecx,DWORD PTR [r13+r12*4+0x4]
  40e001:	41 39 4c 85 04       	cmp    DWORD PTR [r13+rax*4+0x4],ecx
  40e006:	75 2c                	jne    40e034 <_Z11comp_to_sanP7state_tiPc+0x194>
  40e008:	4c 89 ef             	mov    rdi,r13
  40e00b:	e8 a0 7f ff ff       	call   405fb0 <_Z4makeP7state_ti>
  40e010:	42 8b 74 bc 20       	mov    esi,DWORD PTR [rsp+r15*4+0x20]
  40e015:	4c 89 ef             	mov    rdi,r13
  40e018:	e8 63 8a ff ff       	call   406a80 <_Z11check_legalP7state_ti>
  40e01d:	89 c3                	mov    ebx,eax
  40e01f:	42 8b 74 bc 20       	mov    esi,DWORD PTR [rsp+r15*4+0x20]
  40e024:	4c 89 ef             	mov    rdi,r13
  40e027:	e8 94 86 ff ff       	call   4066c0 <_Z6unmakeP7state_ti>
  40e02c:	85 db                	test   ebx,ebx
  40e02e:	0f 85 5e 01 00 00    	jne    40e192 <_Z11comp_to_sanP7state_tiPc+0x2f2>
  40e034:	49 83 c7 01          	add    r15,0x1
  40e038:	49 39 ef             	cmp    r15,rbp
  40e03b:	7c a3                	jl     40dfe0 <_Z11comp_to_sanP7state_tiPc+0x140>
  40e03d:	44 89 f0             	mov    eax,r14d
  40e040:	41 83 7c 85 04 0d    	cmp    DWORD PTR [r13+rax*4+0x4],0xd
  40e046:	4b 63 44 a5 04       	movsxd rax,DWORD PTR [r13+r12*4+0x4]
  40e04b:	0f be 90 90 16 41 00 	movsx  edx,BYTE PTR [rax+0x411690]
  40e052:	0f be 4c 24 14       	movsx  ecx,BYTE PTR [rsp+0x14]
  40e057:	75 3f                	jne    40e098 <_Z11comp_to_sanP7state_tiPc+0x1f8>
  40e059:	be 53 18 41 00       	mov    esi,0x411853
  40e05e:	eb 3d                	jmp    40e09d <_Z11comp_to_sanP7state_tiPc+0x1fd>
  40e060:	66 c7 45 04 4f 00    	mov    WORD PTR [rbp+0x4],0x4f
  40e066:	c7 45 00 4f 2d 4f 2d 	mov    DWORD PTR [rbp+0x0],0x2d4f2d4f
  40e06d:	eb 45                	jmp    40e0b4 <_Z11comp_to_sanP7state_tiPc+0x214>
  40e06f:	be 55 18 41 00       	mov    esi,0x411855
  40e074:	31 c0                	xor    eax,eax
  40e076:	48 89 ef             	mov    rdi,rbp
  40e079:	8b 0c 24             	mov    ecx,DWORD PTR [rsp]
  40e07c:	e8 bf 2f ff ff       	call   401040 <sprintf@plt>
  40e081:	eb 31                	jmp    40e0b4 <_Z11comp_to_sanP7state_tiPc+0x214>
  40e083:	be 65 18 41 00       	mov    esi,0x411865
  40e088:	31 c0                	xor    eax,eax
  40e08a:	48 89 ef             	mov    rdi,rbp
  40e08d:	44 8b 04 24          	mov    r8d,DWORD PTR [rsp]
  40e091:	e8 aa 2f ff ff       	call   401040 <sprintf@plt>
  40e096:	eb 1c                	jmp    40e0b4 <_Z11comp_to_sanP7state_tiPc+0x214>
  40e098:	be 65 18 41 00       	mov    esi,0x411865
  40e09d:	31 c0                	xor    eax,eax
  40e09f:	48 8b 6c 24 08       	mov    rbp,QWORD PTR [rsp+0x8]
  40e0a4:	48 89 ef             	mov    rdi,rbp
  40e0a7:	44 8b 04 24          	mov    r8d,DWORD PTR [rsp]
  40e0ab:	e8 90 2f ff ff       	call   401040 <sprintf@plt>
  40e0b0:	8b 5c 24 04          	mov    ebx,DWORD PTR [rsp+0x4]
  40e0b4:	4c 89 ef             	mov    rdi,r13
  40e0b7:	89 de                	mov    esi,ebx
  40e0b9:	e8 f2 7e ff ff       	call   405fb0 <_Z4makeP7state_ti>
  40e0be:	4c 89 ef             	mov    rdi,r13
  40e0c1:	89 de                	mov    esi,ebx
  40e0c3:	e8 b8 89 ff ff       	call   406a80 <_Z11check_legalP7state_ti>
  40e0c8:	85 c0                	test   eax,eax
  40e0ca:	0f 84 7e 00 00 00    	je     40e14e <_Z11comp_to_sanP7state_tiPc+0x2ae>
  40e0d0:	4c 89 ef             	mov    rdi,r13
  40e0d3:	e8 08 34 ff ff       	call   4014e0 <_Z8in_checkP7state_t>
  40e0d8:	85 c0                	test   eax,eax
  40e0da:	0f 84 96 00 00 00    	je     40e176 <_Z11comp_to_sanP7state_tiPc+0x2d6>
  40e0e0:	48 8d b4 24 e0 03 00 	lea    rsi,[rsp+0x3e0]
  40e0e7:	00 
  40e0e8:	4c 89 ef             	mov    rdi,r13
  40e0eb:	e8 80 67 ff ff       	call   404870 <_Z3genP7state_tPi>
  40e0f0:	66 41 be 23 00       	mov    r14w,0x23
  40e0f5:	85 c0                	test   eax,eax
  40e0f7:	7e 6f                	jle    40e168 <_Z11comp_to_sanP7state_tiPc+0x2c8>
  40e0f9:	48 89 6c 24 08       	mov    QWORD PTR [rsp+0x8],rbp
  40e0fe:	41 89 dc             	mov    r12d,ebx
  40e101:	4c 63 f8             	movsxd r15,eax
  40e104:	31 db                	xor    ebx,ebx
  40e106:	66 2e 0f 1f 84 00 00 	cs nop WORD PTR [rax+rax*1+0x0]
  40e10d:	00 00 00 
  40e110:	8b b4 9c e0 03 00 00 	mov    esi,DWORD PTR [rsp+rbx*4+0x3e0]
  40e117:	4c 89 ef             	mov    rdi,r13
  40e11a:	e8 91 7e ff ff       	call   405fb0 <_Z4makeP7state_ti>
  40e11f:	8b b4 9c e0 03 00 00 	mov    esi,DWORD PTR [rsp+rbx*4+0x3e0]
  40e126:	4c 89 ef             	mov    rdi,r13
  40e129:	e8 52 89 ff ff       	call   406a80 <_Z11check_legalP7state_ti>
  40e12e:	89 c5                	mov    ebp,eax
  40e130:	8b b4 9c e0 03 00 00 	mov    esi,DWORD PTR [rsp+rbx*4+0x3e0]
  40e137:	4c 89 ef             	mov    rdi,r13
  40e13a:	e8 81 85 ff ff       	call   4066c0 <_Z6unmakeP7state_ti>
  40e13f:	85 ed                	test   ebp,ebp
  40e141:	75 18                	jne    40e15b <_Z11comp_to_sanP7state_tiPc+0x2bb>
  40e143:	48 83 c3 01          	add    rbx,0x1
  40e147:	4c 39 fb             	cmp    rbx,r15
  40e14a:	7c c4                	jl     40e110 <_Z11comp_to_sanP7state_tiPc+0x270>
  40e14c:	eb 12                	jmp    40e160 <_Z11comp_to_sanP7state_tiPc+0x2c0>
  40e14e:	c6 45 04 00          	mov    BYTE PTR [rbp+0x4],0x0
  40e152:	c7 45 00 69 6c 6c 67 	mov    DWORD PTR [rbp+0x0],0x676c6c69
  40e159:	eb 1b                	jmp    40e176 <_Z11comp_to_sanP7state_tiPc+0x2d6>
  40e15b:	66 41 be 2b 00       	mov    r14w,0x2b
  40e160:	44 89 e3             	mov    ebx,r12d
  40e163:	48 8b 6c 24 08       	mov    rbp,QWORD PTR [rsp+0x8]
  40e168:	48 89 ef             	mov    rdi,rbp
  40e16b:	e8 10 2f ff ff       	call   401080 <strlen@plt>
  40e170:	66 44 89 74 05 00    	mov    WORD PTR [rbp+rax*1+0x0],r14w
  40e176:	4c 89 ef             	mov    rdi,r13
  40e179:	89 de                	mov    esi,ebx
  40e17b:	e8 40 85 ff ff       	call   4066c0 <_Z6unmakeP7state_ti>
  40e180:	48 81 c4 a8 07 00 00 	add    rsp,0x7a8
  40e187:	5b                   	pop    rbx
  40e188:	41 5c                	pop    r12
  40e18a:	41 5d                	pop    r13
  40e18c:	41 5e                	pop    r14
  40e18e:	41 5f                	pop    r15
  40e190:	5d                   	pop    rbp
  40e191:	c3                   	ret    
  40e192:	44 89 f0             	mov    eax,r14d
  40e195:	41 8b 5c 85 04       	mov    ebx,DWORD PTR [r13+rax*4+0x4]
  40e19a:	42 8b 7c bc 20       	mov    edi,DWORD PTR [rsp+r15*4+0x20]
  40e19f:	c1 ef 06             	shr    edi,0x6
  40e1a2:	83 e7 3f             	and    edi,0x3f
  40e1a5:	e8 f6 45 ff ff       	call   4027a0 <_Z4filei>
  40e1aa:	41 89 c6             	mov    r14d,eax
  40e1ad:	44 89 e7             	mov    edi,r12d
  40e1b0:	e8 eb 45 ff ff       	call   4027a0 <_Z4filei>
  40e1b5:	4b 63 4c a5 04       	movsxd rcx,DWORD PTR [r13+r12*4+0x4]
  40e1ba:	0f be 91 90 16 41 00 	movsx  edx,BYTE PTR [rcx+0x411690]
  40e1c1:	83 fb 0d             	cmp    ebx,0xd
  40e1c4:	75 26                	jne    40e1ec <_Z11comp_to_sanP7state_tiPc+0x34c>
  40e1c6:	41 39 c6             	cmp    r14d,eax
  40e1c9:	8b 5c 24 04          	mov    ebx,DWORD PTR [rsp+0x4]
  40e1cd:	48 8b 6c 24 08       	mov    rbp,QWORD PTR [rsp+0x8]
  40e1d2:	44 8b 0c 24          	mov    r9d,DWORD PTR [rsp]
  40e1d6:	8b 44 24 14          	mov    eax,DWORD PTR [rsp+0x14]
  40e1da:	74 43                	je     40e21f <_Z11comp_to_sanP7state_tiPc+0x37f>
  40e1dc:	0f be 4c 24 18       	movsx  ecx,BYTE PTR [rsp+0x18]
  40e1e1:	44 0f be c0          	movsx  r8d,al
  40e1e5:	be 51 18 41 00       	mov    esi,0x411851
  40e1ea:	eb 24                	jmp    40e210 <_Z11comp_to_sanP7state_tiPc+0x370>
  40e1ec:	41 39 c6             	cmp    r14d,eax
  40e1ef:	8b 5c 24 04          	mov    ebx,DWORD PTR [rsp+0x4]
  40e1f3:	48 8b 6c 24 08       	mov    rbp,QWORD PTR [rsp+0x8]
  40e1f8:	44 8b 0c 24          	mov    r9d,DWORD PTR [rsp]
  40e1fc:	8b 44 24 14          	mov    eax,DWORD PTR [rsp+0x14]
  40e200:	74 28                	je     40e22a <_Z11comp_to_sanP7state_tiPc+0x38a>
  40e202:	0f be 4c 24 18       	movsx  ecx,BYTE PTR [rsp+0x18]
  40e207:	44 0f be c0          	movsx  r8d,al
  40e20b:	be 63 18 41 00       	mov    esi,0x411863
  40e210:	31 c0                	xor    eax,eax
  40e212:	48 89 ef             	mov    rdi,rbp
  40e215:	e8 26 2e ff ff       	call   401040 <sprintf@plt>
  40e21a:	e9 95 fe ff ff       	jmp    40e0b4 <_Z11comp_to_sanP7state_tiPc+0x214>
  40e21f:	44 0f be c0          	movsx  r8d,al
  40e223:	be 5a 18 41 00       	mov    esi,0x41185a
  40e228:	eb 09                	jmp    40e233 <_Z11comp_to_sanP7state_tiPc+0x393>
  40e22a:	44 0f be c0          	movsx  r8d,al
  40e22e:	be 6d 18 41 00       	mov    esi,0x41186d
  40e233:	31 c0                	xor    eax,eax
  40e235:	48 89 ef             	mov    rdi,rbp
  40e238:	8b 4c 24 1c          	mov    ecx,DWORD PTR [rsp+0x1c]
  40e23c:	e8 ff 2d ff ff       	call   401040 <sprintf@plt>
  40e241:	e9 6e fe ff ff       	jmp    40e0b4 <_Z11comp_to_sanP7state_tiPc+0x214>
  40e246:	66 2e 0f 1f 84 00 00 	cs nop WORD PTR [rax+rax*1+0x0]
  40e24d:	00 00 00 

000000000040e250 <_Z13comp_to_coordP7state_tiPc>:
  40e250:	55                   	push   rbp
  40e251:	41 57                	push   r15
  40e253:	41 56                	push   r14
  40e255:	41 55                	push   r13
  40e257:	41 54                	push   r12
  40e259:	53                   	push   rbx
  40e25a:	50                   	push   rax
  40e25b:	49 89 d4             	mov    r12,rdx
  40e25e:	89 f5                	mov    ebp,esi
  40e260:	c1 ed 06             	shr    ebp,0x6
  40e263:	89 e8                	mov    eax,ebp
  40e265:	09 f0                	or     eax,esi
  40e267:	a8 3f                	test   al,0x3f
  40e269:	74 74                	je     40e2df <_Z13comp_to_coordP7state_tiPc+0x8f>
  40e26b:	89 f3                	mov    ebx,esi
  40e26d:	49 89 fd             	mov    r13,rdi
  40e270:	83 e5 3f             	and    ebp,0x3f
  40e273:	41 89 f6             	mov    r14d,esi
  40e276:	41 83 e6 3f          	and    r14d,0x3f
  40e27a:	89 ef                	mov    edi,ebp
  40e27c:	e8 0f 45 ff ff       	call   402790 <_Z4ranki>
  40e281:	89 44 24 04          	mov    DWORD PTR [rsp+0x4],eax
  40e285:	44 89 f7             	mov    edi,r14d
  40e288:	e8 03 45 ff ff       	call   402790 <_Z4ranki>
  40e28d:	41 89 c7             	mov    r15d,eax
  40e290:	89 ef                	mov    edi,ebp
  40e292:	e8 09 45 ff ff       	call   4027a0 <_Z4filei>
  40e297:	89 c5                	mov    ebp,eax
  40e299:	40 80 c5 60          	add    bpl,0x60
  40e29d:	44 89 f7             	mov    edi,r14d
  40e2a0:	e8 fb 44 ff ff       	call   4027a0 <_Z4filei>
  40e2a5:	f7 c3 00 00 07 00    	test   ebx,0x70000
  40e2ab:	74 4f                	je     40e2fc <_Z13comp_to_coordP7state_tiPc+0xac>
  40e2ad:	8b 0d d5 5b b5 00    	mov    ecx,DWORD PTR [rip+0xb55bd5]        # f63e88 <uci_chess960_mode>
  40e2b3:	85 c9                	test   ecx,ecx
  40e2b5:	74 45                	je     40e2fc <_Z13comp_to_coordP7state_tiPc+0xac>
  40e2b7:	c1 eb 10             	shr    ebx,0x10
  40e2ba:	80 e3 07             	and    bl,0x7
  40e2bd:	80 c3 ff             	add    bl,0xff
  40e2c0:	80 fb 03             	cmp    bl,0x3
  40e2c3:	0f 87 98 00 00 00    	ja     40e361 <_Z13comp_to_coordP7state_tiPc+0x111>
  40e2c9:	0f b6 c3             	movzx  eax,bl
  40e2cc:	ff 24 c5 70 16 41 00 	jmp    QWORD PTR [rax*8+0x411670]
  40e2d3:	45 8b b5 20 11 00 00 	mov    r14d,DWORD PTR [r13+0x1120]
  40e2da:	e9 82 00 00 00       	jmp    40e361 <_Z13comp_to_coordP7state_tiPc+0x111>
  40e2df:	41 c6 44 24 04 00    	mov    BYTE PTR [r12+0x4],0x0
  40e2e5:	41 c7 04 24 30 30 30 	mov    DWORD PTR [r12],0x30303030
  40e2ec:	30 
  40e2ed:	48 83 c4 08          	add    rsp,0x8
  40e2f1:	5b                   	pop    rbx
  40e2f2:	41 5c                	pop    r12
  40e2f4:	41 5d                	pop    r13
  40e2f6:	41 5e                	pop    r14
  40e2f8:	41 5f                	pop    r15
  40e2fa:	5d                   	pop    rbp
  40e2fb:	c3                   	ret    
  40e2fc:	c1 eb 0c             	shr    ebx,0xc
  40e2ff:	83 e3 0f             	and    ebx,0xf
  40e302:	04 60                	add    al,0x60
  40e304:	85 db                	test   ebx,ebx
  40e306:	74 1e                	je     40e326 <_Z13comp_to_coordP7state_tiPc+0xd6>
  40e308:	83 c3 01             	add    ebx,0x1
  40e30b:	d1 eb                	shr    ebx,1
  40e30d:	40 0f be d5          	movsx  edx,bpl
  40e311:	44 0f be c0          	movsx  r8d,al
  40e315:	80 fb 04             	cmp    bl,0x4
  40e318:	74 1b                	je     40e335 <_Z13comp_to_coordP7state_tiPc+0xe5>
  40e31a:	80 fb 02             	cmp    bl,0x2
  40e31d:	75 1d                	jne    40e33c <_Z13comp_to_coordP7state_tiPc+0xec>
  40e31f:	be 81 18 41 00       	mov    esi,0x411881
  40e324:	eb 77                	jmp    40e39d <_Z13comp_to_coordP7state_tiPc+0x14d>
  40e326:	40 0f be d5          	movsx  edx,bpl
  40e32a:	44 0f be c0          	movsx  r8d,al
  40e32e:	be 5a 18 41 00       	mov    esi,0x41185a
  40e333:	eb 68                	jmp    40e39d <_Z13comp_to_coordP7state_tiPc+0x14d>
  40e335:	be 8b 18 41 00       	mov    esi,0x41188b
  40e33a:	eb 61                	jmp    40e39d <_Z13comp_to_coordP7state_tiPc+0x14d>
  40e33c:	83 fb 06             	cmp    ebx,0x6
  40e33f:	75 57                	jne    40e398 <_Z13comp_to_coordP7state_tiPc+0x148>
  40e341:	be 95 18 41 00       	mov    esi,0x411895
  40e346:	eb 55                	jmp    40e39d <_Z13comp_to_coordP7state_tiPc+0x14d>
  40e348:	45 8b b5 1c 11 00 00 	mov    r14d,DWORD PTR [r13+0x111c]
  40e34f:	eb 10                	jmp    40e361 <_Z13comp_to_coordP7state_tiPc+0x111>
  40e351:	45 8b b5 28 11 00 00 	mov    r14d,DWORD PTR [r13+0x1128]
  40e358:	eb 07                	jmp    40e361 <_Z13comp_to_coordP7state_tiPc+0x111>
  40e35a:	45 8b b5 24 11 00 00 	mov    r14d,DWORD PTR [r13+0x1124]
  40e361:	44 89 f7             	mov    edi,r14d
  40e364:	e8 37 44 ff ff       	call   4027a0 <_Z4filei>
  40e369:	89 c3                	mov    ebx,eax
  40e36b:	44 89 f7             	mov    edi,r14d
  40e36e:	e8 1d 44 ff ff       	call   402790 <_Z4ranki>
  40e373:	41 89 c1             	mov    r9d,eax
  40e376:	40 0f be d5          	movsx  edx,bpl
  40e37a:	c1 e3 18             	shl    ebx,0x18
  40e37d:	44 8d 83 00 00 00 60 	lea    r8d,[rbx+0x60000000]
  40e384:	41 c1 f8 18          	sar    r8d,0x18
  40e388:	be 5a 18 41 00       	mov    esi,0x41185a
  40e38d:	31 c0                	xor    eax,eax
  40e38f:	4c 89 e7             	mov    rdi,r12
  40e392:	8b 4c 24 04          	mov    ecx,DWORD PTR [rsp+0x4]
  40e396:	eb 11                	jmp    40e3a9 <_Z13comp_to_coordP7state_tiPc+0x159>
  40e398:	be 9f 18 41 00       	mov    esi,0x41189f
  40e39d:	31 c0                	xor    eax,eax
  40e39f:	4c 89 e7             	mov    rdi,r12
  40e3a2:	8b 4c 24 04          	mov    ecx,DWORD PTR [rsp+0x4]
  40e3a6:	45 89 f9             	mov    r9d,r15d
  40e3a9:	48 83 c4 08          	add    rsp,0x8
  40e3ad:	5b                   	pop    rbx
  40e3ae:	41 5c                	pop    r12
  40e3b0:	41 5d                	pop    r13
  40e3b2:	41 5e                	pop    r14
  40e3b4:	41 5f                	pop    r15
  40e3b6:	5d                   	pop    rbp
  40e3b7:	e9 84 2c ff ff       	jmp    401040 <sprintf@plt>
  40e3bc:	0f 1f 40 00          	nop    DWORD PTR [rax+0x0]

000000000040e3c0 <_Z13display_boardP7state_ti>:
  40e3c0:	55                   	push   rbp
  40e3c1:	41 56                	push   r14
  40e3c3:	53                   	push   rbx
  40e3c4:	89 f5                	mov    ebp,esi
  40e3c6:	48 89 fb             	mov    rbx,rdi
  40e3c9:	bf 03 19 41 00       	mov    edi,0x411903
  40e3ce:	be a9 18 41 00       	mov    esi,0x4118a9
  40e3d3:	31 c0                	xor    eax,eax
  40e3d5:	e8 f6 00 00 00       	call   40e4d0 <_Z8myprintfPKcz>
  40e3da:	40 f6 c5 01          	test   bpl,0x1
  40e3de:	75 77                	jne    40e457 <_Z13display_boardP7state_ti+0x97>
  40e3e0:	48 81 c3 00 01 00 00 	add    rbx,0x100
  40e3e7:	41 be 07 00 00 00    	mov    r14d,0x7
  40e3ed:	0f 1f 00             	nop    DWORD PTR [rax]
  40e3f0:	41 8d 76 01          	lea    esi,[r14+0x1]
  40e3f4:	bf f7 18 41 00       	mov    edi,0x4118f7
  40e3f9:	31 c0                	xor    eax,eax
  40e3fb:	e8 d0 00 00 00       	call   40e4d0 <_Z8myprintfPKcz>
  40e400:	31 ed                	xor    ebp,ebp
  40e402:	66 2e 0f 1f 84 00 00 	cs nop WORD PTR [rax+rax*1+0x0]
  40e409:	00 00 00 
  40e40c:	0f 1f 40 00          	nop    DWORD PTR [rax+0x0]
  40e410:	48 63 04 ab          	movsxd rax,DWORD PTR [rbx+rbp*4]
  40e414:	48 8b 34 c5 a0 16 41 	mov    rsi,QWORD PTR [rax*8+0x4116a0]
  40e41b:	00 
  40e41c:	bf fc 18 41 00       	mov    edi,0x4118fc
  40e421:	31 c0                	xor    eax,eax
  40e423:	e8 a8 00 00 00       	call   40e4d0 <_Z8myprintfPKcz>
  40e428:	48 83 c5 ff          	add    rbp,0xffffffffffffffff
  40e42c:	48 83 fd f8          	cmp    rbp,0xfffffffffffffff8
  40e430:	75 de                	jne    40e410 <_Z13display_boardP7state_ti+0x50>
  40e432:	bf 02 19 41 00       	mov    edi,0x411902
  40e437:	be a9 18 41 00       	mov    esi,0x4118a9
  40e43c:	31 c0                	xor    eax,eax
  40e43e:	e8 8d 00 00 00       	call   40e4d0 <_Z8myprintfPKcz>
  40e443:	48 83 c3 e0          	add    rbx,0xffffffffffffffe0
  40e447:	4d 85 f6             	test   r14,r14
  40e44a:	4d 8d 76 ff          	lea    r14,[r14-0x1]
  40e44e:	75 a0                	jne    40e3f0 <_Z13display_boardP7state_ti+0x30>
  40e450:	bf 36 19 41 00       	mov    edi,0x411936
  40e455:	eb 6f                	jmp    40e4c6 <_Z13display_boardP7state_ti+0x106>
  40e457:	48 83 c3 04          	add    rbx,0x4
  40e45b:	45 31 f6             	xor    r14d,r14d
  40e45e:	66 90                	xchg   ax,ax
  40e460:	be 08 00 00 00       	mov    esi,0x8
  40e465:	44 29 f6             	sub    esi,r14d
  40e468:	bf f7 18 41 00       	mov    edi,0x4118f7
  40e46d:	31 c0                	xor    eax,eax
  40e46f:	e8 5c 00 00 00       	call   40e4d0 <_Z8myprintfPKcz>
  40e474:	31 ed                	xor    ebp,ebp
  40e476:	66 2e 0f 1f 84 00 00 	cs nop WORD PTR [rax+rax*1+0x0]
  40e47d:	00 00 00 
  40e480:	48 63 04 ab          	movsxd rax,DWORD PTR [rbx+rbp*4]
  40e484:	48 8b 34 c5 a0 16 41 	mov    rsi,QWORD PTR [rax*8+0x4116a0]
  40e48b:	00 
  40e48c:	bf fc 18 41 00       	mov    edi,0x4118fc
  40e491:	31 c0                	xor    eax,eax
  40e493:	e8 38 00 00 00       	call   40e4d0 <_Z8myprintfPKcz>
  40e498:	48 83 c5 01          	add    rbp,0x1
  40e49c:	48 83 fd 08          	cmp    rbp,0x8
  40e4a0:	75 de                	jne    40e480 <_Z13display_boardP7state_ti+0xc0>
  40e4a2:	bf 02 19 41 00       	mov    edi,0x411902
  40e4a7:	be a9 18 41 00       	mov    esi,0x4118a9
  40e4ac:	31 c0                	xor    eax,eax
  40e4ae:	e8 1d 00 00 00       	call   40e4d0 <_Z8myprintfPKcz>
  40e4b3:	49 83 c6 01          	add    r14,0x1
  40e4b7:	48 83 c3 20          	add    rbx,0x20
  40e4bb:	49 83 fe 08          	cmp    r14,0x8
  40e4bf:	75 9f                	jne    40e460 <_Z13display_boardP7state_ti+0xa0>
  40e4c1:	bf 09 19 41 00       	mov    edi,0x411909
  40e4c6:	31 c0                	xor    eax,eax
  40e4c8:	5b                   	pop    rbx
  40e4c9:	41 5e                	pop    r14
  40e4cb:	5d                   	pop    rbp
  40e4cc:	eb 02                	jmp    40e4d0 <_Z8myprintfPKcz>
  40e4ce:	66 90                	xchg   ax,ax

000000000040e4d0 <_Z8myprintfPKcz>:
  40e4d0:	41 56                	push   r14
  40e4d2:	53                   	push   rbx
  40e4d3:	48 81 ec d8 00 00 00 	sub    rsp,0xd8
  40e4da:	49 89 fe             	mov    r14,rdi
  40e4dd:	84 c0                	test   al,al
  40e4df:	74 3f                	je     40e520 <_Z8myprintfPKcz+0x50>
  40e4e1:	c5 f8 29 44 24 50    	vmovaps XMMWORD PTR [rsp+0x50],xmm0
  40e4e7:	c5 f8 29 4c 24 60    	vmovaps XMMWORD PTR [rsp+0x60],xmm1
  40e4ed:	c5 f8 29 54 24 70    	vmovaps XMMWORD PTR [rsp+0x70],xmm2
  40e4f3:	c5 f8 29 9c 24 80 00 	vmovaps XMMWORD PTR [rsp+0x80],xmm3
  40e4fa:	00 00 
  40e4fc:	c5 f8 29 a4 24 90 00 	vmovaps XMMWORD PTR [rsp+0x90],xmm4
  40e503:	00 00 
  40e505:	c5 f8 29 ac 24 a0 00 	vmovaps XMMWORD PTR [rsp+0xa0],xmm5
  40e50c:	00 00 
  40e50e:	c5 f8 29 b4 24 b0 00 	vmovaps XMMWORD PTR [rsp+0xb0],xmm6
  40e515:	00 00 
  40e517:	c5 f8 29 bc 24 c0 00 	vmovaps XMMWORD PTR [rsp+0xc0],xmm7
  40e51e:	00 00 
  40e520:	4c 89 4c 24 48       	mov    QWORD PTR [rsp+0x48],r9
  40e525:	4c 89 44 24 40       	mov    QWORD PTR [rsp+0x40],r8
  40e52a:	48 89 4c 24 38       	mov    QWORD PTR [rsp+0x38],rcx
  40e52f:	48 89 54 24 30       	mov    QWORD PTR [rsp+0x30],rdx
  40e534:	48 89 74 24 28       	mov    QWORD PTR [rsp+0x28],rsi
  40e539:	48 8d 44 24 20       	lea    rax,[rsp+0x20]
  40e53e:	48 89 44 24 10       	mov    QWORD PTR [rsp+0x10],rax
  40e543:	48 8d 84 24 f0 00 00 	lea    rax,[rsp+0xf0]
  40e54a:	00 
  40e54b:	48 89 44 24 08       	mov    QWORD PTR [rsp+0x8],rax
  40e550:	48 b8 08 00 00 00 30 	movabs rax,0x3000000008
  40e557:	00 00 00 
  40e55a:	48 89 04 24          	mov    QWORD PTR [rsp],rax
  40e55e:	48 89 e6             	mov    rsi,rsp
  40e561:	4c 89 f7             	mov    rdi,r14
  40e564:	e8 87 2b ff ff       	call   4010f0 <vprintf@plt>
  40e569:	83 3d 30 59 b5 00 00 	cmp    DWORD PTR [rip+0xb55930],0x0        # f63ea0 <cfg_logging>
  40e570:	74 2d                	je     40e59f <_Z8myprintfPKcz+0xcf>
  40e572:	bf b0 3e f6 00       	mov    edi,0xf63eb0
  40e577:	be c0 1b 41 00       	mov    esi,0x411bc0
  40e57c:	e8 7f 2b ff ff       	call   401100 <fopen@plt>
  40e581:	48 85 c0             	test   rax,rax
  40e584:	74 19                	je     40e59f <_Z8myprintfPKcz+0xcf>
  40e586:	48 89 c3             	mov    rbx,rax
  40e589:	48 89 e2             	mov    rdx,rsp
  40e58c:	48 89 c7             	mov    rdi,rax
  40e58f:	4c 89 f6             	mov    rsi,r14
  40e592:	e8 a9 2b ff ff       	call   401140 <vfprintf@plt>
  40e597:	48 89 df             	mov    rdi,rbx
  40e59a:	e8 41 2b ff ff       	call   4010e0 <fclose@plt>
  40e59f:	48 81 c4 d8 00 00 00 	add    rsp,0xd8
  40e5a6:	5b                   	pop    rbx
  40e5a7:	41 5e                	pop    r14
  40e5a9:	c3                   	ret    
  40e5aa:	66 0f 1f 44 00 00    	nop    WORD PTR [rax+rax*1+0x0]

000000000040e5b0 <_Z9init_gameP11gamestate_tP7state_t>:
  40e5b0:	53                   	push   rbx
  40e5b1:	48 89 f3             	mov    rbx,rsi
  40e5b4:	c5 fc 10 05 34 32 00 	vmovups ymm0,YMMWORD PTR [rip+0x3234]        # 4117f0 <_ZZ9init_gameP11gamestate_tP7state_tE10init_board+0xe0>
  40e5bb:	00 
  40e5bc:	c5 fc 11 86 e4 00 00 	vmovups YMMWORD PTR [rsi+0xe4],ymm0
  40e5c3:	00 
  40e5c4:	c5 fc 10 05 04 32 00 	vmovups ymm0,YMMWORD PTR [rip+0x3204]        # 4117d0 <_ZZ9init_gameP11gamestate_tP7state_tE10init_board+0xc0>
  40e5cb:	00 
  40e5cc:	c5 fc 11 86 c4 00 00 	vmovups YMMWORD PTR [rsi+0xc4],ymm0
  40e5d3:	00 
  40e5d4:	c5 fc 10 05 d4 31 00 	vmovups ymm0,YMMWORD PTR [rip+0x31d4]        # 4117b0 <_ZZ9init_gameP11gamestate_tP7state_tE10init_board+0xa0>
  40e5db:	00 
  40e5dc:	c5 fc 11 86 a4 00 00 	vmovups YMMWORD PTR [rsi+0xa4],ymm0
  40e5e3:	00 
  40e5e4:	c5 fc 10 05 a4 31 00 	vmovups ymm0,YMMWORD PTR [rip+0x31a4]        # 411790 <_ZZ9init_gameP11gamestate_tP7state_tE10init_board+0x80>
  40e5eb:	00 
  40e5ec:	c5 fc 11 86 84 00 00 	vmovups YMMWORD PTR [rsi+0x84],ymm0
  40e5f3:	00 
  40e5f4:	c5 fc 10 05 74 31 00 	vmovups ymm0,YMMWORD PTR [rip+0x3174]        # 411770 <_ZZ9init_gameP11gamestate_tP7state_tE10init_board+0x60>
  40e5fb:	00 
  40e5fc:	c5 fc 11 46 64       	vmovups YMMWORD PTR [rsi+0x64],ymm0
  40e601:	c5 fc 10 05 47 31 00 	vmovups ymm0,YMMWORD PTR [rip+0x3147]        # 411750 <_ZZ9init_gameP11gamestate_tP7state_tE10init_board+0x40>
  40e608:	00 
  40e609:	c5 fc 11 46 44       	vmovups YMMWORD PTR [rsi+0x44],ymm0
  40e60e:	c5 fc 10 05 1a 31 00 	vmovups ymm0,YMMWORD PTR [rip+0x311a]        # 411730 <_ZZ9init_gameP11gamestate_tP7state_tE10init_board+0x20>
  40e615:	00 
  40e616:	c5 fc 11 46 24       	vmovups YMMWORD PTR [rsi+0x24],ymm0
  40e61b:	c5 fc 10 05 ed 30 00 	vmovups ymm0,YMMWORD PTR [rip+0x30ed]        # 411710 <_ZZ9init_gameP11gamestate_tP7state_tE10init_board>
  40e622:	00 
  40e623:	c5 fc 11 46 04       	vmovups YMMWORD PTR [rsi+0x4],ymm0
  40e628:	c5 f8 28 05 20 30 00 	vmovaps xmm0,XMMWORD PTR [rip+0x3020]        # 411650 <_ZL8rc_index+0x260>
  40e62f:	00 
  40e630:	c5 f8 11 86 c4 01 00 	vmovups XMMWORD PTR [rsi+0x1c4],xmm0
  40e637:	00 
  40e638:	c7 86 d4 01 00 00 04 	mov    DWORD PTR [rsi+0x1d4],0x4
  40e63f:	00 00 00 
  40e642:	c5 f8 28 05 16 30 00 	vmovaps xmm0,XMMWORD PTR [rip+0x3016]        # 411660 <_ZL8rc_index+0x270>
  40e649:	00 
  40e64a:	c5 f8 11 86 14 11 00 	vmovups XMMWORD PTR [rsi+0x1114],xmm0
  40e651:	00 
  40e652:	48 b8 00 00 00 00 07 	movabs rax,0x700000000
  40e659:	00 00 00 
  40e65c:	48 89 86 24 11 00 00 	mov    QWORD PTR [rsi+0x1124],rax
  40e663:	48 89 f7             	mov    rdi,rsi
  40e666:	c5 f8 77             	vzeroupper 
  40e669:	e8 22 3e ff ff       	call   402490 <_Z16SetupCastleMasksP7state_t>
  40e66e:	c7 05 d0 8a b5 00 00 	mov    DWORD PTR [rip+0xb58ad0],0x0        # f67148 <gamestate+0x10>
  40e675:	00 00 00 
  40e678:	c7 83 88 01 00 00 00 	mov    DWORD PTR [rbx+0x188],0x0
  40e67f:	00 00 00 
  40e682:	48 89 df             	mov    rdi,rbx
  40e685:	e8 26 00 00 00       	call   40e6b0 <_Z18reset_piece_squareP7state_t>
  40e68a:	48 c7 83 d8 01 00 00 	mov    QWORD PTR [rbx+0x1d8],0x0
  40e691:	00 00 00 00 
  40e695:	c7 03 00 00 00 00    	mov    DWORD PTR [rbx],0x0
  40e69b:	c7 05 97 8a b5 00 00 	mov    DWORD PTR [rip+0xb58a97],0x0        # f6713c <gamestate+0x4>
  40e6a2:	00 00 00 
  40e6a5:	5b                   	pop    rbx
  40e6a6:	c3                   	ret    
  40e6a7:	66 0f 1f 84 00 00 00 	nop    WORD PTR [rax+rax*1+0x0]
  40e6ae:	00 00 

000000000040e6b0 <_Z18reset_piece_squareP7state_t>:
  40e6b0:	c7 87 88 01 00 00 00 	mov    DWORD PTR [rdi+0x188],0x0
  40e6b7:	00 00 00 
  40e6ba:	c5 f8 57 c0          	vxorps xmm0,xmm0,xmm0
  40e6be:	c5 fc 11 87 a4 01 00 	vmovups YMMWORD PTR [rdi+0x1a4],ymm0
  40e6c5:	00 
  40e6c6:	c5 fc 11 87 90 01 00 	vmovups YMMWORD PTR [rdi+0x190],ymm0
  40e6cd:	00 
  40e6ce:	31 c0                	xor    eax,eax
  40e6d0:	8b 4c 87 04          	mov    ecx,DWORD PTR [rdi+rax*4+0x4]
  40e6d4:	85 c9                	test   ecx,ecx
  40e6d6:	74 3c                	je     40e714 <_Z18reset_piece_squareP7state_t+0x64>
  40e6d8:	83 f9 0c             	cmp    ecx,0xc
  40e6db:	7f 37                	jg     40e714 <_Z18reset_piece_squareP7state_t+0x64>
  40e6dd:	83 f9 06             	cmp    ecx,0x6
  40e6e0:	74 0d                	je     40e6ef <_Z18reset_piece_squareP7state_t+0x3f>
  40e6e2:	83 f9 05             	cmp    ecx,0x5
  40e6e5:	75 0e                	jne    40e6f5 <_Z18reset_piece_squareP7state_t+0x45>
  40e6e7:	89 87 d0 01 00 00    	mov    DWORD PTR [rdi+0x1d0],eax
  40e6ed:	eb 06                	jmp    40e6f5 <_Z18reset_piece_squareP7state_t+0x45>
  40e6ef:	89 87 d4 01 00 00    	mov    DWORD PTR [rdi+0x1d4],eax
  40e6f5:	48 63 4c 87 04       	movsxd rcx,DWORD PTR [rdi+rax*4+0x4]
  40e6fa:	8b 0c 8d 00 08 41 00 	mov    ecx,DWORD PTR [rcx*4+0x410800]
  40e701:	01 8f 88 01 00 00    	add    DWORD PTR [rdi+0x188],ecx
  40e707:	48 63 4c 87 04       	movsxd rcx,DWORD PTR [rdi+rax*4+0x4]
  40e70c:	83 84 8f 90 01 00 00 	add    DWORD PTR [rdi+rcx*4+0x190],0x1
  40e713:	01 
  40e714:	48 83 c0 01          	add    rax,0x1
  40e718:	48 83 f8 40          	cmp    rax,0x40
  40e71c:	75 b2                	jne    40e6d0 <_Z18reset_piece_squareP7state_t+0x20>
  40e71e:	c5 f8 57 c0          	vxorps xmm0,xmm0,xmm0
  40e722:	c5 f8 11 87 10 01 00 	vmovups XMMWORD PTR [rdi+0x110],xmm0
  40e729:	00 
  40e72a:	c5 f8 57 c0          	vxorps xmm0,xmm0,xmm0
  40e72e:	c5 fc 11 87 68 01 00 	vmovups YMMWORD PTR [rdi+0x168],ymm0
  40e735:	00 
  40e736:	c5 fc 11 87 48 01 00 	vmovups YMMWORD PTR [rdi+0x148],ymm0
  40e73d:	00 
  40e73e:	c5 fc 11 87 28 01 00 	vmovups YMMWORD PTR [rdi+0x128],ymm0
  40e745:	00 
  40e746:	b8 01 00 00 00       	mov    eax,0x1
  40e74b:	0f 1f 44 00 00       	nop    DWORD PTR [rax+rax*1+0x0]
  40e750:	48 63 0c 87          	movsxd rcx,DWORD PTR [rdi+rax*4]
  40e754:	48 83 f9 0d          	cmp    rcx,0xd
  40e758:	74 23                	je     40e77d <_Z18reset_piece_squareP7state_t+0xcd>
  40e75a:	48 8b 14 c5 08 7f 41 	mov    rdx,QWORD PTR [rax*8+0x417f08]
  40e761:	00 
  40e762:	48 09 94 cf 20 01 00 	or     QWORD PTR [rdi+rcx*8+0x120],rdx
  40e769:	00 
  40e76a:	83 e1 01             	and    ecx,0x1
  40e76d:	48 8b 14 c5 08 7f 41 	mov    rdx,QWORD PTR [rax*8+0x417f08]
  40e774:	00 
  40e775:	48 09 94 cf 10 01 00 	or     QWORD PTR [rdi+rcx*8+0x110],rdx
  40e77c:	00 
  40e77d:	48 83 c0 01          	add    rax,0x1
  40e781:	48 83 f8 41          	cmp    rax,0x41
  40e785:	75 c9                	jne    40e750 <_Z18reset_piece_squareP7state_t+0xa0>
  40e787:	48 8b 87 10 01 00 00 	mov    rax,QWORD PTR [rdi+0x110]
  40e78e:	48 0b 87 18 01 00 00 	or     rax,QWORD PTR [rdi+0x118]
  40e795:	48 89 87 08 01 00 00 	mov    QWORD PTR [rdi+0x108],rax
  40e79c:	c5 f8 77             	vzeroupper 
  40e79f:	e9 3c ae ff ff       	jmp    4095e0 <_Z14init_psq_scoreP7state_t>
  40e7a4:	66 2e 0f 1f 84 00 00 	cs nop WORD PTR [rax+rax*1+0x0]
  40e7ab:	00 00 00 
  40e7ae:	66 90                	xchg   ax,ax

000000000040e7b0 <_Z7is_movePc>:
  40e7b0:	53                   	push   rbx
  40e7b1:	48 89 fb             	mov    rbx,rdi
  40e7b4:	0f be 3f             	movsx  edi,BYTE PTR [rdi]
  40e7b7:	e8 d4 29 ff ff       	call   401190 <isalpha@plt>
  40e7bc:	85 c0                	test   eax,eax
  40e7be:	74 2a                	je     40e7ea <_Z7is_movePc+0x3a>
  40e7c0:	0f be 43 01          	movsx  eax,BYTE PTR [rbx+0x1]
  40e7c4:	83 c0 d0             	add    eax,0xffffffd0
  40e7c7:	83 f8 09             	cmp    eax,0x9
  40e7ca:	77 1e                	ja     40e7ea <_Z7is_movePc+0x3a>
  40e7cc:	0f be 7b 02          	movsx  edi,BYTE PTR [rbx+0x2]
  40e7d0:	e8 bb 29 ff ff       	call   401190 <isalpha@plt>
  40e7d5:	85 c0                	test   eax,eax
  40e7d7:	74 11                	je     40e7ea <_Z7is_movePc+0x3a>
  40e7d9:	0f be 4b 03          	movsx  ecx,BYTE PTR [rbx+0x3]
  40e7dd:	83 c1 d0             	add    ecx,0xffffffd0
  40e7e0:	b8 01 00 00 00       	mov    eax,0x1
  40e7e5:	83 f9 0a             	cmp    ecx,0xa
  40e7e8:	72 02                	jb     40e7ec <_Z7is_movePc+0x3c>
  40e7ea:	31 c0                	xor    eax,eax
  40e7ec:	5b                   	pop    rbx
  40e7ed:	c3                   	ret    
  40e7ee:	66 90                	xchg   ax,ax

000000000040e7f0 <_Z20extract_current_pathP7state_t>:
  40e7f0:	41 57                	push   r15
  40e7f2:	41 56                	push   r14
  40e7f4:	41 54                	push   r12
  40e7f6:	53                   	push   rbx
  40e7f7:	48 81 ec 98 02 00 00 	sub    rsp,0x298
  40e7fe:	c6 44 24 10 00       	mov    BYTE PTR [rsp+0x10],0x0
  40e803:	83 bf d8 01 00 00 02 	cmp    DWORD PTR [rdi+0x1d8],0x2
  40e80a:	0f 8c 8f 00 00 00    	jl     40e89f <_Z20extract_current_pathP7state_t+0xaf>
  40e810:	49 89 fc             	mov    r12,rdi
  40e813:	bb 7d 02 00 00       	mov    ebx,0x27d
  40e818:	4c 8d 74 24 10       	lea    r14,[rsp+0x10]
  40e81d:	4c 8d 7c 24 06       	lea    r15,[rsp+0x6]
  40e822:	66 2e 0f 1f 84 00 00 	cs nop WORD PTR [rax+rax*1+0x0]
  40e829:	00 00 00 
  40e82c:	0f 1f 40 00          	nop    DWORD PTR [rax+0x0]
  40e830:	41 8b 34 9c          	mov    esi,DWORD PTR [r12+rbx*4]
  40e834:	f7 c6 ff 0f 00 00    	test   esi,0xfff
  40e83a:	74 24                	je     40e860 <_Z20extract_current_pathP7state_t+0x70>
  40e83c:	4c 89 e7             	mov    rdi,r12
  40e83f:	4c 89 fa             	mov    rdx,r15
  40e842:	e8 09 fa ff ff       	call   40e250 <_Z13comp_to_coordP7state_tiPc>
  40e847:	4c 89 f7             	mov    rdi,r14
  40e84a:	4c 89 fe             	mov    rsi,r15
  40e84d:	e8 4e 29 ff ff       	call   4011a0 <strcat@plt>
  40e852:	eb 21                	jmp    40e875 <_Z20extract_current_pathP7state_t+0x85>
  40e854:	66 2e 0f 1f 84 00 00 	cs nop WORD PTR [rax+rax*1+0x0]
  40e85b:	00 00 00 
  40e85e:	66 90                	xchg   ax,ax
  40e860:	4c 89 f7             	mov    rdi,r14
  40e863:	e8 18 28 ff ff       	call   401080 <strlen@plt>
  40e868:	c6 44 04 14 00       	mov    BYTE PTR [rsp+rax*1+0x14],0x0
  40e86d:	c7 44 04 10 30 30 30 	mov    DWORD PTR [rsp+rax*1+0x10],0x30303030
  40e874:	30 
  40e875:	4c 89 f7             	mov    rdi,r14
  40e878:	e8 03 28 ff ff       	call   401080 <strlen@plt>
  40e87d:	66 c7 44 04 10 20 00 	mov    WORD PTR [rsp+rax*1+0x10],0x20
  40e884:	49 63 84 24 d8 01 00 	movsxd rax,DWORD PTR [r12+0x1d8]
  40e88b:	00 
  40e88c:	48 8d 4b 01          	lea    rcx,[rbx+0x1]
  40e890:	48 81 c3 85 fd ff ff 	add    rbx,0xfffffffffffffd85
  40e897:	48 39 c3             	cmp    rbx,rax
  40e89a:	48 89 cb             	mov    rbx,rcx
  40e89d:	7c 91                	jl     40e830 <_Z20extract_current_pathP7state_t+0x40>
  40e89f:	48 8d 5c 24 10       	lea    rbx,[rsp+0x10]
  40e8a4:	48 89 df             	mov    rdi,rbx
  40e8a7:	e8 d4 27 ff ff       	call   401080 <strlen@plt>
  40e8ac:	66 c7 44 04 10 0a 00 	mov    WORD PTR [rsp+rax*1+0x10],0xa
  40e8b3:	31 c0                	xor    eax,eax
  40e8b5:	48 89 df             	mov    rdi,rbx
  40e8b8:	e8 13 fc ff ff       	call   40e4d0 <_Z8myprintfPKcz>
  40e8bd:	48 81 c4 98 02 00 00 	add    rsp,0x298
  40e8c4:	5b                   	pop    rbx
  40e8c5:	41 5c                	pop    r12
  40e8c7:	41 5e                	pop    r14
  40e8c9:	41 5f                	pop    r15
  40e8cb:	c3                   	ret    
  40e8cc:	0f 1f 40 00          	nop    DWORD PTR [rax+0x0]

000000000040e8d0 <_Z19extract_ponder_moveP7state_t>:
  40e8d0:	55                   	push   rbp
  40e8d1:	41 57                	push   r15
  40e8d3:	41 56                	push   r14
  40e8d5:	41 54                	push   r12
  40e8d7:	53                   	push   rbx
  40e8d8:	48 81 ec d0 03 00 00 	sub    rsp,0x3d0
  40e8df:	49 89 fe             	mov    r14,rdi
  40e8e2:	48 8d 74 24 0c       	lea    rsi,[rsp+0xc]
  40e8e7:	31 ed                	xor    ebp,ebp
  40e8e9:	4c 8d 44 24 08       	lea    r8,[rsp+0x8]
  40e8ee:	ba 00 00 00 00       	mov    edx,0x0
  40e8f3:	b9 00 00 00 00       	mov    ecx,0x0
  40e8f8:	49 89 f1             	mov    r9,rsi
  40e8fb:	6a 00                	push   0x0
  40e8fd:	56                   	push   rsi
  40e8fe:	56                   	push   rsi
  40e8ff:	56                   	push   rsi
  40e900:	e8 eb f0 ff ff       	call   40d9f0 <_Z7ProbeTTP7state_tPiiiPjS1_S1_S1_S1_i>
  40e905:	48 83 c4 20          	add    rsp,0x20
  40e909:	83 f8 04             	cmp    eax,0x4
  40e90c:	0f 84 a4 00 00 00    	je     40e9b6 <_Z19extract_ponder_moveP7state_t+0xe6>
  40e912:	4c 89 f7             	mov    rdi,r14
  40e915:	e8 c6 2b ff ff       	call   4014e0 <_Z8in_checkP7state_t>
  40e91a:	85 c0                	test   eax,eax
  40e91c:	74 1d                	je     40e93b <_Z19extract_ponder_moveP7state_t+0x6b>
  40e91e:	4c 89 f7             	mov    rdi,r14
  40e921:	e8 ba 2b ff ff       	call   4014e0 <_Z8in_checkP7state_t>
  40e926:	48 8d 74 24 10       	lea    rsi,[rsp+0x10]
  40e92b:	4c 89 f7             	mov    rdi,r14
  40e92e:	89 c2                	mov    edx,eax
  40e930:	e8 1b 75 ff ff       	call   405e50 <_Z12gen_evasionsP7state_tPii>
  40e935:	85 c0                	test   eax,eax
  40e937:	7f 13                	jg     40e94c <_Z19extract_ponder_moveP7state_t+0x7c>
  40e939:	eb 7b                	jmp    40e9b6 <_Z19extract_ponder_moveP7state_t+0xe6>
  40e93b:	48 8d 74 24 10       	lea    rsi,[rsp+0x10]
  40e940:	4c 89 f7             	mov    rdi,r14
  40e943:	e8 28 5f ff ff       	call   404870 <_Z3genP7state_tPi>
  40e948:	85 c0                	test   eax,eax
  40e94a:	7e 6a                	jle    40e9b6 <_Z19extract_ponder_moveP7state_t+0xe6>
  40e94c:	44 8b 7c 24 08       	mov    r15d,DWORD PTR [rsp+0x8]
  40e951:	41 89 c4             	mov    r12d,eax
  40e954:	bd ff ff ff ff       	mov    ebp,0xffffffff
  40e959:	31 db                	xor    ebx,ebx
  40e95b:	0f 1f 44 00 00       	nop    DWORD PTR [rax+rax*1+0x0]
  40e960:	8b 7c 9c 10          	mov    edi,DWORD PTR [rsp+rbx*4+0x10]
  40e964:	e8 97 f3 ff ff       	call   40dd00 <_Z12compact_movei>
  40e969:	0f b7 c0             	movzx  eax,ax
  40e96c:	41 39 c7             	cmp    r15d,eax
  40e96f:	0f 44 eb             	cmove  ebp,ebx
  40e972:	48 83 c3 01          	add    rbx,0x1
  40e976:	49 39 dc             	cmp    r12,rbx
  40e979:	75 e5                	jne    40e960 <_Z19extract_ponder_moveP7state_t+0x90>
  40e97b:	85 ed                	test   ebp,ebp
  40e97d:	78 25                	js     40e9a4 <_Z19extract_ponder_moveP7state_t+0xd4>
  40e97f:	48 63 dd             	movsxd rbx,ebp
  40e982:	8b 74 9c 10          	mov    esi,DWORD PTR [rsp+rbx*4+0x10]
  40e986:	4c 89 f7             	mov    rdi,r14
  40e989:	e8 22 76 ff ff       	call   405fb0 <_Z4makeP7state_ti>
  40e98e:	8b 74 9c 10          	mov    esi,DWORD PTR [rsp+rbx*4+0x10]
  40e992:	4c 89 f7             	mov    rdi,r14
  40e995:	e8 e6 80 ff ff       	call   406a80 <_Z11check_legalP7state_ti>
  40e99a:	85 c0                	test   eax,eax
  40e99c:	74 0a                	je     40e9a8 <_Z19extract_ponder_moveP7state_t+0xd8>
  40e99e:	8b 6c 9c 10          	mov    ebp,DWORD PTR [rsp+rbx*4+0x10]
  40e9a2:	eb 06                	jmp    40e9aa <_Z19extract_ponder_moveP7state_t+0xda>
  40e9a4:	31 ed                	xor    ebp,ebp
  40e9a6:	eb 0e                	jmp    40e9b6 <_Z19extract_ponder_moveP7state_t+0xe6>
  40e9a8:	31 ed                	xor    ebp,ebp
  40e9aa:	8b 74 9c 10          	mov    esi,DWORD PTR [rsp+rbx*4+0x10]
  40e9ae:	4c 89 f7             	mov    rdi,r14
  40e9b1:	e8 0a 7d ff ff       	call   4066c0 <_Z6unmakeP7state_ti>
  40e9b6:	89 e8                	mov    eax,ebp
  40e9b8:	48 81 c4 d0 03 00 00 	add    rsp,0x3d0
  40e9bf:	5b                   	pop    rbx
  40e9c0:	41 5c                	pop    r12
  40e9c2:	41 5e                	pop    r14
  40e9c4:	41 5f                	pop    r15
  40e9c6:	5d                   	pop    rbp
  40e9c7:	c3                   	ret    
  40e9c8:	0f 1f 84 00 00 00 00 	nop    DWORD PTR [rax+rax*1+0x0]
  40e9cf:	00 

000000000040e9d0 <_Z24extract_current_bestlineP7state_t>:
  40e9d0:	53                   	push   rbx
  40e9d1:	48 81 ec 80 02 00 00 	sub    rsp,0x280
  40e9d8:	c6 04 24 00          	mov    BYTE PTR [rsp],0x0
  40e9dc:	48 89 e3             	mov    rbx,rsp
  40e9df:	be 3c 00 00 00       	mov    esi,0x3c
  40e9e4:	48 89 da             	mov    rdx,rbx
  40e9e7:	e8 24 00 00 00       	call   40ea10 <_ZL15hash_extract_pvP7state_tiPc>
  40e9ec:	48 89 df             	mov    rdi,rbx
  40e9ef:	e8 8c 26 ff ff       	call   401080 <strlen@plt>
  40e9f4:	66 c7 04 04 0a 00    	mov    WORD PTR [rsp+rax*1],0xa
  40e9fa:	31 c0                	xor    eax,eax
  40e9fc:	48 89 df             	mov    rdi,rbx
  40e9ff:	e8 cc fa ff ff       	call   40e4d0 <_Z8myprintfPKcz>
  40ea04:	48 81 c4 80 02 00 00 	add    rsp,0x280
  40ea0b:	5b                   	pop    rbx
  40ea0c:	c3                   	ret    
  40ea0d:	0f 1f 00             	nop    DWORD PTR [rax]

000000000040ea10 <_ZL15hash_extract_pvP7state_tiPc>:
  40ea10:	55                   	push   rbp
  40ea11:	41 57                	push   r15
  40ea13:	41 56                	push   r14
  40ea15:	41 55                	push   r13
  40ea17:	41 54                	push   r12
  40ea19:	53                   	push   rbx
  40ea1a:	48 81 ec e8 05 00 00 	sub    rsp,0x5e8
  40ea21:	48 89 d3             	mov    rbx,rdx
  40ea24:	41 89 f5             	mov    r13d,esi
  40ea27:	49 89 fc             	mov    r12,rdi
  40ea2a:	48 8b 87 e0 01 00 00 	mov    rax,QWORD PTR [rdi+0x1e0]
  40ea31:	48 63 ce             	movsxd rcx,esi
  40ea34:	48 89 04 cd f0 85 fa 	mov    QWORD PTR [rcx*8+0xfa85f0],rax
  40ea3b:	00 
  40ea3c:	0f 1f 40 00          	nop    DWORD PTR [rax+0x0]
  40ea40:	48 83 f9 3f          	cmp    rcx,0x3f
  40ea44:	7f 13                	jg     40ea59 <_ZL15hash_extract_pvP7state_tiPc+0x49>
  40ea46:	48 39 04 cd f8 85 fa 	cmp    QWORD PTR [rcx*8+0xfa85f8],rax
  40ea4d:	00 
  40ea4e:	48 8d 49 01          	lea    rcx,[rcx+0x1]
  40ea52:	75 ec                	jne    40ea40 <_ZL15hash_extract_pvP7state_tiPc+0x30>
  40ea54:	e9 49 01 00 00       	jmp    40eba2 <_ZL15hash_extract_pvP7state_tiPc+0x192>
  40ea59:	41 83 c5 ff          	add    r13d,0xffffffff
  40ea5d:	0f 84 3f 01 00 00    	je     40eba2 <_ZL15hash_extract_pvP7state_tiPc+0x192>
  40ea63:	48 8d 74 24 1c       	lea    rsi,[rsp+0x1c]
  40ea68:	4c 8d 44 24 0c       	lea    r8,[rsp+0xc]
  40ea6d:	ba 00 00 00 00       	mov    edx,0x0
  40ea72:	b9 00 00 00 00       	mov    ecx,0x0
  40ea77:	4c 89 e7             	mov    rdi,r12
  40ea7a:	49 89 f1             	mov    r9,rsi
  40ea7d:	6a 00                	push   0x0
  40ea7f:	56                   	push   rsi
  40ea80:	56                   	push   rsi
  40ea81:	56                   	push   rsi
  40ea82:	e8 69 ef ff ff       	call   40d9f0 <_Z7ProbeTTP7state_tPiiiPjS1_S1_S1_S1_i>
  40ea87:	48 83 c4 20          	add    rsp,0x20
  40ea8b:	83 f8 04             	cmp    eax,0x4
  40ea8e:	0f 84 0e 01 00 00    	je     40eba2 <_ZL15hash_extract_pvP7state_tiPc+0x192>
  40ea94:	4c 89 e7             	mov    rdi,r12
  40ea97:	e8 44 2a ff ff       	call   4014e0 <_Z8in_checkP7state_t>
  40ea9c:	85 c0                	test   eax,eax
  40ea9e:	74 20                	je     40eac0 <_ZL15hash_extract_pvP7state_tiPc+0xb0>
  40eaa0:	4c 89 e7             	mov    rdi,r12
  40eaa3:	e8 38 2a ff ff       	call   4014e0 <_Z8in_checkP7state_t>
  40eaa8:	48 8d 74 24 20       	lea    rsi,[rsp+0x20]
  40eaad:	4c 89 e7             	mov    rdi,r12
  40eab0:	89 c2                	mov    edx,eax
  40eab2:	e8 99 73 ff ff       	call   405e50 <_Z12gen_evasionsP7state_tPii>
  40eab7:	85 c0                	test   eax,eax
  40eab9:	7f 1a                	jg     40ead5 <_ZL15hash_extract_pvP7state_tiPc+0xc5>
  40eabb:	e9 e2 00 00 00       	jmp    40eba2 <_ZL15hash_extract_pvP7state_tiPc+0x192>
  40eac0:	48 8d 74 24 20       	lea    rsi,[rsp+0x20]
  40eac5:	4c 89 e7             	mov    rdi,r12
  40eac8:	e8 a3 5d ff ff       	call   404870 <_Z3genP7state_tPi>
  40eacd:	85 c0                	test   eax,eax
  40eacf:	0f 8e cd 00 00 00    	jle    40eba2 <_ZL15hash_extract_pvP7state_tiPc+0x192>
  40ead5:	48 89 5c 24 10       	mov    QWORD PTR [rsp+0x10],rbx
  40eada:	41 89 c7             	mov    r15d,eax
  40eadd:	8b 6c 24 0c          	mov    ebp,DWORD PTR [rsp+0xc]
  40eae1:	bb ff ff ff ff       	mov    ebx,0xffffffff
  40eae6:	45 31 f6             	xor    r14d,r14d
  40eae9:	0f 1f 80 00 00 00 00 	nop    DWORD PTR [rax+0x0]
  40eaf0:	42 8b 7c b4 20       	mov    edi,DWORD PTR [rsp+r14*4+0x20]
  40eaf5:	e8 06 f2 ff ff       	call   40dd00 <_Z12compact_movei>
  40eafa:	0f b7 c0             	movzx  eax,ax
  40eafd:	39 c5                	cmp    ebp,eax
  40eaff:	41 0f 44 de          	cmove  ebx,r14d
  40eb03:	49 83 c6 01          	add    r14,0x1
  40eb07:	4d 39 f7             	cmp    r15,r14
  40eb0a:	75 e4                	jne    40eaf0 <_ZL15hash_extract_pvP7state_tiPc+0xe0>
  40eb0c:	85 db                	test   ebx,ebx
  40eb0e:	48 8b 6c 24 10       	mov    rbp,QWORD PTR [rsp+0x10]
  40eb13:	0f 88 89 00 00 00    	js     40eba2 <_ZL15hash_extract_pvP7state_tiPc+0x192>
  40eb19:	44 39 fb             	cmp    ebx,r15d
  40eb1c:	0f 8d 80 00 00 00    	jge    40eba2 <_ZL15hash_extract_pvP7state_tiPc+0x192>
  40eb22:	83 3d 5b 53 b5 00 00 	cmp    DWORD PTR [rip+0xb5535b],0x0        # f63e84 <uci_mode>
  40eb29:	4c 63 fb             	movsxd r15,ebx
  40eb2c:	42 8b 74 bc 20       	mov    esi,DWORD PTR [rsp+r15*4+0x20]
  40eb31:	48 8d 94 24 e0 03 00 	lea    rdx,[rsp+0x3e0]
  40eb38:	00 
  40eb39:	4c 89 e7             	mov    rdi,r12
  40eb3c:	74 07                	je     40eb45 <_ZL15hash_extract_pvP7state_tiPc+0x135>
  40eb3e:	e8 0d f7 ff ff       	call   40e250 <_Z13comp_to_coordP7state_tiPc>
  40eb43:	eb 05                	jmp    40eb4a <_ZL15hash_extract_pvP7state_tiPc+0x13a>
  40eb45:	e8 56 f3 ff ff       	call   40dea0 <_Z11comp_to_sanP7state_tiPc>
  40eb4a:	42 8b 74 bc 20       	mov    esi,DWORD PTR [rsp+r15*4+0x20]
  40eb4f:	4c 89 e7             	mov    rdi,r12
  40eb52:	e8 59 74 ff ff       	call   405fb0 <_Z4makeP7state_ti>
  40eb57:	42 8b 74 bc 20       	mov    esi,DWORD PTR [rsp+r15*4+0x20]
  40eb5c:	4c 89 e7             	mov    rdi,r12
  40eb5f:	e8 1c 7f ff ff       	call   406a80 <_Z11check_legalP7state_ti>
  40eb64:	85 c0                	test   eax,eax
  40eb66:	74 2d                	je     40eb95 <_ZL15hash_extract_pvP7state_tiPc+0x185>
  40eb68:	48 8d b4 24 e0 03 00 	lea    rsi,[rsp+0x3e0]
  40eb6f:	00 
  40eb70:	48 89 ef             	mov    rdi,rbp
  40eb73:	e8 28 26 ff ff       	call   4011a0 <strcat@plt>
  40eb78:	48 89 ef             	mov    rdi,rbp
  40eb7b:	e8 00 25 ff ff       	call   401080 <strlen@plt>
  40eb80:	66 c7 44 05 00 20 00 	mov    WORD PTR [rbp+rax*1+0x0],0x20
  40eb87:	4c 89 e7             	mov    rdi,r12
  40eb8a:	44 89 ee             	mov    esi,r13d
  40eb8d:	48 89 ea             	mov    rdx,rbp
  40eb90:	e8 7b fe ff ff       	call   40ea10 <_ZL15hash_extract_pvP7state_tiPc>
  40eb95:	42 8b 74 bc 20       	mov    esi,DWORD PTR [rsp+r15*4+0x20]
  40eb9a:	4c 89 e7             	mov    rdi,r12
  40eb9d:	e8 1e 7b ff ff       	call   4066c0 <_Z6unmakeP7state_ti>
  40eba2:	48 81 c4 e8 05 00 00 	add    rsp,0x5e8
  40eba9:	5b                   	pop    rbx
  40ebaa:	41 5c                	pop    r12
  40ebac:	41 5d                	pop    r13
  40ebae:	41 5e                	pop    r14
  40ebb0:	41 5f                	pop    r15
  40ebb2:	5d                   	pop    rbp
  40ebb3:	c3                   	ret    
  40ebb4:	66 2e 0f 1f 84 00 00 	cs nop WORD PTR [rax+rax*1+0x0]
  40ebbb:	00 00 00 
  40ebbe:	66 90                	xchg   ax,ax

000000000040ebc0 <_Z12stringize_pvP7state_tPc>:
  40ebc0:	48 89 f0             	mov    rax,rsi
  40ebc3:	c6 06 00             	mov    BYTE PTR [rsi],0x0
  40ebc6:	be 3c 00 00 00       	mov    esi,0x3c
  40ebcb:	48 89 c2             	mov    rdx,rax
  40ebce:	e9 3d fe ff ff       	jmp    40ea10 <_ZL15hash_extract_pvP7state_tiPc>
  40ebd3:	66 2e 0f 1f 84 00 00 	cs nop WORD PTR [rax+rax*1+0x0]
  40ebda:	00 00 00 
  40ebdd:	0f 1f 00             	nop    DWORD PTR [rax]

000000000040ebe0 <_Z13post_thinkingP7state_tiiPci>:
  40ebe0:	55                   	push   rbp
  40ebe1:	48 89 e5             	mov    rbp,rsp
  40ebe4:	41 57                	push   r15
  40ebe6:	41 56                	push   r14
  40ebe8:	41 54                	push   r12
  40ebea:	53                   	push   rbx
  40ebeb:	48 83 e4 e0          	and    rsp,0xffffffffffffffe0
  40ebef:	48 81 ec 40 04 00 00 	sub    rsp,0x440
  40ebf6:	41 89 d6             	mov    r14d,edx
  40ebf9:	89 f3                	mov    ebx,esi
  40ebfb:	49 89 ff             	mov    r15,rdi
  40ebfe:	8b 35 48 85 b5 00    	mov    esi,DWORD PTR [rip+0xb58548]        # f6714c <gamestate+0x14>
  40ec04:	83 fe 02             	cmp    esi,0x2
  40ec07:	7f 0d                	jg     40ec16 <_Z13post_thinkingP7state_tiiPci+0x36>
  40ec09:	83 3d 60 85 b5 00 02 	cmp    DWORD PTR [rip+0xb58560],0x2        # f67170 <gamestate+0x38>
  40ec10:	0f 8f 06 02 00 00    	jg     40ee1c <_Z13post_thinkingP7state_tiiPci+0x23c>
  40ec16:	83 3d 67 52 b5 00 00 	cmp    DWORD PTR [rip+0xb55267],0x0        # f63e84 <uci_mode>
  40ec1d:	74 45                	je     40ec64 <_Z13post_thinkingP7state_tiiPci+0x84>
  40ec1f:	bf 77 19 41 00       	mov    edi,0x411977
  40ec24:	31 c0                	xor    eax,eax
  40ec26:	48 89 ce             	mov    rsi,rcx
  40ec29:	44 89 c2             	mov    edx,r8d
  40ec2c:	e8 9f f8 ff ff       	call   40e4d0 <_Z8myprintfPKcz>
  40ec31:	89 d8                	mov    eax,ebx
  40ec33:	f7 d8                	neg    eax
  40ec35:	0f 4c c3             	cmovl  eax,ebx
  40ec38:	3d 0f 27 00 00       	cmp    eax,0x270f
  40ec3d:	7f 3e                	jg     40ec7d <_Z13post_thinkingP7state_tiiPci+0x9d>
  40ec3f:	8b 35 07 85 b5 00    	mov    esi,DWORD PTR [rip+0xb58507]        # f6714c <gamestate+0x14>
  40ec45:	41 8b 97 00 10 00 00 	mov    edx,DWORD PTR [r15+0x1000]
  40ec4c:	4d 8b 87 f0 0f 00 00 	mov    r8,QWORD PTR [r15+0xff0]
  40ec53:	44 8b 0d 62 54 b5 00 	mov    r9d,DWORD PTR [rip+0xb55462]        # f640bc <EGTBHits>
  40ec5a:	89 1c 24             	mov    DWORD PTR [rsp],ebx
  40ec5d:	bf 9b 19 41 00       	mov    edi,0x41199b
  40ec62:	eb 5a                	jmp    40ecbe <_Z13post_thinkingP7state_tiiPci+0xde>
  40ec64:	4d 8b 87 f0 0f 00 00 	mov    r8,QWORD PTR [r15+0xff0]
  40ec6b:	bf 63 19 41 00       	mov    edi,0x411963
  40ec70:	31 c9                	xor    ecx,ecx
  40ec72:	31 c0                	xor    eax,eax
  40ec74:	89 da                	mov    edx,ebx
  40ec76:	e8 55 f8 ff ff       	call   40e4d0 <_Z8myprintfPKcz>
  40ec7b:	eb 4a                	jmp    40ecc7 <_Z13post_thinkingP7state_tiiPci+0xe7>
  40ec7d:	f7 d3                	not    ebx
  40ec7f:	c1 eb 1f             	shr    ebx,0x1f
  40ec82:	8d 0c 1b             	lea    ecx,[rbx+rbx*1]
  40ec85:	83 c1 ff             	add    ecx,0xffffffff
  40ec88:	8b 35 be 84 b5 00    	mov    esi,DWORD PTR [rip+0xb584be]        # f6714c <gamestate+0x14>
  40ec8e:	41 8b 97 00 10 00 00 	mov    edx,DWORD PTR [r15+0x1000]
  40ec95:	4d 8b 87 f0 0f 00 00 	mov    r8,QWORD PTR [r15+0xff0]
  40ec9c:	44 8b 0d 19 54 b5 00 	mov    r9d,DWORD PTR [rip+0xb55419]        # f640bc <EGTBHits>
  40eca3:	bf 00 7d 00 00       	mov    edi,0x7d00
  40eca8:	29 c7                	sub    edi,eax
  40ecaa:	89 f8                	mov    eax,edi
  40ecac:	c1 e8 1f             	shr    eax,0x1f
  40ecaf:	01 f8                	add    eax,edi
  40ecb1:	d1 f8                	sar    eax,1
  40ecb3:	0f af c1             	imul   eax,ecx
  40ecb6:	89 04 24             	mov    DWORD PTR [rsp],eax
  40ecb9:	bf ec 19 41 00       	mov    edi,0x4119ec
  40ecbe:	31 c9                	xor    ecx,ecx
  40ecc0:	31 c0                	xor    eax,eax
  40ecc2:	e8 09 f8 ff ff       	call   40e4d0 <_Z8myprintfPKcz>
  40ecc7:	45 31 e4             	xor    r12d,r12d
  40ecca:	41 83 bf d8 01 00 00 	cmp    DWORD PTR [r15+0x1d8],0x2
  40ecd1:	02 
  40ecd2:	7c 11                	jl     40ece5 <_Z13post_thinkingP7state_tiiPci+0x105>
  40ecd4:	4c 89 ff             	mov    rdi,r15
  40ecd7:	44 89 f6             	mov    esi,r14d
  40ecda:	e8 e1 79 ff ff       	call   4066c0 <_Z6unmakeP7state_ti>
  40ecdf:	41 bc 01 00 00 00    	mov    r12d,0x1
  40ece5:	c5 f8 57 c0          	vxorps xmm0,xmm0,xmm0
  40ece9:	c5 fc 29 84 24 00 02 	vmovaps YMMWORD PTR [rsp+0x200],ymm0
  40ecf0:	00 00 
  40ecf2:	c5 fc 29 84 24 e0 01 	vmovaps YMMWORD PTR [rsp+0x1e0],ymm0
  40ecf9:	00 00 
  40ecfb:	c5 fc 29 84 24 c0 01 	vmovaps YMMWORD PTR [rsp+0x1c0],ymm0
  40ed02:	00 00 
  40ed04:	c5 fc 29 84 24 a0 01 	vmovaps YMMWORD PTR [rsp+0x1a0],ymm0
  40ed0b:	00 00 
  40ed0d:	c5 fc 29 84 24 80 01 	vmovaps YMMWORD PTR [rsp+0x180],ymm0
  40ed14:	00 00 
  40ed16:	c5 fc 29 84 24 60 01 	vmovaps YMMWORD PTR [rsp+0x160],ymm0
  40ed1d:	00 00 
  40ed1f:	c5 fc 29 84 24 40 01 	vmovaps YMMWORD PTR [rsp+0x140],ymm0
  40ed26:	00 00 
  40ed28:	c5 fc 29 84 24 20 01 	vmovaps YMMWORD PTR [rsp+0x120],ymm0
  40ed2f:	00 00 
  40ed31:	c5 fc 29 84 24 00 01 	vmovaps YMMWORD PTR [rsp+0x100],ymm0
  40ed38:	00 00 
  40ed3a:	c5 fc 29 84 24 e0 00 	vmovaps YMMWORD PTR [rsp+0xe0],ymm0
  40ed41:	00 00 
  40ed43:	c5 fc 29 84 24 c0 00 	vmovaps YMMWORD PTR [rsp+0xc0],ymm0
  40ed4a:	00 00 
  40ed4c:	c5 fc 29 84 24 a0 00 	vmovaps YMMWORD PTR [rsp+0xa0],ymm0
  40ed53:	00 00 
  40ed55:	c5 fc 29 84 24 80 00 	vmovaps YMMWORD PTR [rsp+0x80],ymm0
  40ed5c:	00 00 
  40ed5e:	c5 fc 29 44 24 60    	vmovaps YMMWORD PTR [rsp+0x60],ymm0
  40ed64:	c5 fc 29 44 24 40    	vmovaps YMMWORD PTR [rsp+0x40],ymm0
  40ed6a:	c5 fc 29 44 24 20    	vmovaps YMMWORD PTR [rsp+0x20],ymm0
  40ed70:	83 3d 0d 51 b5 00 00 	cmp    DWORD PTR [rip+0xb5510d],0x0        # f63e84 <uci_mode>
  40ed77:	74 18                	je     40ed91 <_Z13post_thinkingP7state_tiiPci+0x1b1>
  40ed79:	48 8d 94 24 30 02 00 	lea    rdx,[rsp+0x230]
  40ed80:	00 
  40ed81:	4c 89 ff             	mov    rdi,r15
  40ed84:	44 89 f6             	mov    esi,r14d
  40ed87:	c5 f8 77             	vzeroupper 
  40ed8a:	e8 c1 f4 ff ff       	call   40e250 <_Z13comp_to_coordP7state_tiPc>
  40ed8f:	eb 16                	jmp    40eda7 <_Z13post_thinkingP7state_tiiPci+0x1c7>
  40ed91:	48 8d 94 24 30 02 00 	lea    rdx,[rsp+0x230]
  40ed98:	00 
  40ed99:	4c 89 ff             	mov    rdi,r15
  40ed9c:	44 89 f6             	mov    esi,r14d
  40ed9f:	c5 f8 77             	vzeroupper 
  40eda2:	e8 f9 f0 ff ff       	call   40dea0 <_Z11comp_to_sanP7state_tiPc>
  40eda7:	48 8d 5c 24 20       	lea    rbx,[rsp+0x20]
  40edac:	48 8d b4 24 30 02 00 	lea    rsi,[rsp+0x230]
  40edb3:	00 
  40edb4:	48 89 df             	mov    rdi,rbx
  40edb7:	e8 04 23 ff ff       	call   4010c0 <strcpy@plt>
  40edbc:	48 89 df             	mov    rdi,rbx
  40edbf:	e8 bc 22 ff ff       	call   401080 <strlen@plt>
  40edc4:	66 c7 44 04 20 20 00 	mov    WORD PTR [rsp+rax*1+0x20],0x20
  40edcb:	4c 89 ff             	mov    rdi,r15
  40edce:	44 89 f6             	mov    esi,r14d
  40edd1:	e8 da 71 ff ff       	call   405fb0 <_Z4makeP7state_ti>
  40edd6:	be 3c 00 00 00       	mov    esi,0x3c
  40eddb:	4c 89 ff             	mov    rdi,r15
  40edde:	48 89 da             	mov    rdx,rbx
  40ede1:	e8 2a fc ff ff       	call   40ea10 <_ZL15hash_extract_pvP7state_tiPc>
  40ede6:	bf 3f 1a 41 00       	mov    edi,0x411a3f
  40edeb:	31 c0                	xor    eax,eax
  40eded:	48 89 de             	mov    rsi,rbx
  40edf0:	e8 db f6 ff ff       	call   40e4d0 <_Z8myprintfPKcz>
  40edf5:	4c 89 ff             	mov    rdi,r15
  40edf8:	44 89 f6             	mov    esi,r14d
  40edfb:	e8 c0 78 ff ff       	call   4066c0 <_Z6unmakeP7state_ti>
  40ee00:	45 85 e4             	test   r12d,r12d
  40ee03:	74 0b                	je     40ee10 <_Z13post_thinkingP7state_tiiPci+0x230>
  40ee05:	4c 89 ff             	mov    rdi,r15
  40ee08:	44 89 f6             	mov    esi,r14d
  40ee0b:	e8 a0 71 ff ff       	call   405fb0 <_Z4makeP7state_ti>
  40ee10:	bf 61 19 41 00       	mov    edi,0x411961
  40ee15:	31 c0                	xor    eax,eax
  40ee17:	e8 b4 f6 ff ff       	call   40e4d0 <_Z8myprintfPKcz>
  40ee1c:	48 8d 65 e0          	lea    rsp,[rbp-0x20]
  40ee20:	5b                   	pop    rbx
  40ee21:	41 5c                	pop    r12
  40ee23:	41 5e                	pop    r14
  40ee25:	41 5f                	pop    r15
  40ee27:	5d                   	pop    rbp
  40ee28:	c3                   	ret    
  40ee29:	0f 1f 80 00 00 00 00 	nop    DWORD PTR [rax+0x0]

000000000040ee30 <_Z9rdifftimeii>:
  40ee30:	31 c0                	xor    eax,eax
  40ee32:	c3                   	ret    
  40ee33:	66 2e 0f 1f 84 00 00 	cs nop WORD PTR [rax+rax*1+0x0]
  40ee3a:	00 00 00 
  40ee3d:	0f 1f 00             	nop    DWORD PTR [rax]

000000000040ee40 <_Z5rtimev>:
  40ee40:	31 c0                	xor    eax,eax
  40ee42:	c3                   	ret    
  40ee43:	66 2e 0f 1f 84 00 00 	cs nop WORD PTR [rax+rax*1+0x0]
  40ee4a:	00 00 00 
  40ee4d:	0f 1f 00             	nop    DWORD PTR [rax]

000000000040ee50 <_Z16post_fh_thinkingP7state_tiiPci>:
  40ee50:	55                   	push   rbp
  40ee51:	41 57                	push   r15
  40ee53:	41 56                	push   r14
  40ee55:	53                   	push   rbx
  40ee56:	48 81 ec 18 02 00 00 	sub    rsp,0x218
  40ee5d:	45 89 c6             	mov    r14d,r8d
  40ee60:	41 89 d7             	mov    r15d,edx
  40ee63:	89 f5                	mov    ebp,esi
  40ee65:	48 89 fb             	mov    rbx,rdi
  40ee68:	8b 35 de 82 b5 00    	mov    esi,DWORD PTR [rip+0xb582de]        # f6714c <gamestate+0x14>
  40ee6e:	83 fe 02             	cmp    esi,0x2
  40ee71:	7f 0d                	jg     40ee80 <_Z16post_fh_thinkingP7state_tiiPci+0x30>
  40ee73:	83 3d f6 82 b5 00 02 	cmp    DWORD PTR [rip+0xb582f6],0x2        # f67170 <gamestate+0x38>
  40ee7a:	0f 8f 25 01 00 00    	jg     40efa5 <_Z16post_fh_thinkingP7state_tiiPci+0x155>
  40ee80:	83 3d fd 4f b5 00 00 	cmp    DWORD PTR [rip+0xb54ffd],0x0        # f63e84 <uci_mode>
  40ee87:	74 27                	je     40eeb0 <_Z16post_fh_thinkingP7state_tiiPci+0x60>
  40ee89:	89 e8                	mov    eax,ebp
  40ee8b:	f7 d8                	neg    eax
  40ee8d:	0f 4c c5             	cmovl  eax,ebp
  40ee90:	3d 0f 27 00 00       	cmp    eax,0x270f
  40ee95:	7f 32                	jg     40eec9 <_Z16post_fh_thinkingP7state_tiiPci+0x79>
  40ee97:	8b 93 00 10 00 00    	mov    edx,DWORD PTR [rbx+0x1000]
  40ee9d:	4c 8b 83 f0 0f 00 00 	mov    r8,QWORD PTR [rbx+0xff0]
  40eea4:	44 8b 0d 11 52 b5 00 	mov    r9d,DWORD PTR [rip+0xb55211]        # f640bc <EGTBHits>
  40eeab:	89 2c 24             	mov    DWORD PTR [rsp],ebp
  40eeae:	eb 4c                	jmp    40eefc <_Z16post_fh_thinkingP7state_tiiPci+0xac>
  40eeb0:	4c 8b 83 f0 0f 00 00 	mov    r8,QWORD PTR [rbx+0xff0]
  40eeb7:	bf 63 19 41 00       	mov    edi,0x411963
  40eebc:	31 c9                	xor    ecx,ecx
  40eebe:	31 c0                	xor    eax,eax
  40eec0:	89 ea                	mov    edx,ebp
  40eec2:	e8 09 f6 ff ff       	call   40e4d0 <_Z8myprintfPKcz>
  40eec7:	eb 41                	jmp    40ef0a <_Z16post_fh_thinkingP7state_tiiPci+0xba>
  40eec9:	f7 d5                	not    ebp
  40eecb:	c1 ed 1f             	shr    ebp,0x1f
  40eece:	8d 4c 2d ff          	lea    ecx,[rbp+rbp*1-0x1]
  40eed2:	8b 93 00 10 00 00    	mov    edx,DWORD PTR [rbx+0x1000]
  40eed8:	4c 8b 83 f0 0f 00 00 	mov    r8,QWORD PTR [rbx+0xff0]
  40eedf:	44 8b 0d d6 51 b5 00 	mov    r9d,DWORD PTR [rip+0xb551d6]        # f640bc <EGTBHits>
  40eee6:	bf 00 7d 00 00       	mov    edi,0x7d00
  40eeeb:	29 c7                	sub    edi,eax
  40eeed:	89 f8                	mov    eax,edi
  40eeef:	c1 e8 1f             	shr    eax,0x1f
  40eef2:	01 f8                	add    eax,edi
  40eef4:	d1 f8                	sar    eax,1
  40eef6:	0f af c1             	imul   eax,ecx
  40eef9:	89 04 24             	mov    DWORD PTR [rsp],eax
  40eefc:	bf 42 1a 41 00       	mov    edi,0x411a42
  40ef01:	31 c9                	xor    ecx,ecx
  40ef03:	31 c0                	xor    eax,eax
  40ef05:	e8 c6 f5 ff ff       	call   40e4d0 <_Z8myprintfPKcz>
  40ef0a:	48 89 df             	mov    rdi,rbx
  40ef0d:	44 89 fe             	mov    esi,r15d
  40ef10:	e8 ab 77 ff ff       	call   4066c0 <_Z6unmakeP7state_ti>
  40ef15:	83 3d 68 4f b5 00 00 	cmp    DWORD PTR [rip+0xb54f68],0x0        # f63e84 <uci_mode>
  40ef1c:	74 12                	je     40ef30 <_Z16post_fh_thinkingP7state_tiiPci+0xe0>
  40ef1e:	48 8d 54 24 10       	lea    rdx,[rsp+0x10]
  40ef23:	48 89 df             	mov    rdi,rbx
  40ef26:	44 89 fe             	mov    esi,r15d
  40ef29:	e8 22 f3 ff ff       	call   40e250 <_Z13comp_to_coordP7state_tiPc>
  40ef2e:	eb 10                	jmp    40ef40 <_Z16post_fh_thinkingP7state_tiiPci+0xf0>
  40ef30:	48 8d 54 24 10       	lea    rdx,[rsp+0x10]
  40ef35:	48 89 df             	mov    rdi,rbx
  40ef38:	44 89 fe             	mov    esi,r15d
  40ef3b:	e8 60 ef ff ff       	call   40dea0 <_Z11comp_to_sanP7state_tiPc>
  40ef40:	48 89 df             	mov    rdi,rbx
  40ef43:	44 89 fe             	mov    esi,r15d
  40ef46:	e8 65 70 ff ff       	call   405fb0 <_Z4makeP7state_ti>
  40ef4b:	83 3d 32 4f b5 00 00 	cmp    DWORD PTR [rip+0xb54f32],0x0        # f63e84 <uci_mode>
  40ef52:	74 34                	je     40ef88 <_Z16post_fh_thinkingP7state_tiiPci+0x138>
  40ef54:	48 8d 5c 24 10       	lea    rbx,[rsp+0x10]
  40ef59:	bf 3f 1a 41 00       	mov    edi,0x411a3f
  40ef5e:	31 c0                	xor    eax,eax
  40ef60:	48 89 de             	mov    rsi,rbx
  40ef63:	e8 68 f5 ff ff       	call   40e4d0 <_Z8myprintfPKcz>
  40ef68:	bf 61 19 41 00       	mov    edi,0x411961
  40ef6d:	31 c0                	xor    eax,eax
  40ef6f:	e8 5c f5 ff ff       	call   40e4d0 <_Z8myprintfPKcz>
  40ef74:	bf a4 1a 41 00       	mov    edi,0x411aa4
  40ef79:	31 c0                	xor    eax,eax
  40ef7b:	48 89 de             	mov    rsi,rbx
  40ef7e:	44 89 f2             	mov    edx,r14d
  40ef81:	e8 4a f5 ff ff       	call   40e4d0 <_Z8myprintfPKcz>
  40ef86:	eb 11                	jmp    40ef99 <_Z16post_fh_thinkingP7state_tiiPci+0x149>
  40ef88:	48 8d 74 24 10       	lea    rsi,[rsp+0x10]
  40ef8d:	bf 9e 1a 41 00       	mov    edi,0x411a9e
  40ef92:	31 c0                	xor    eax,eax
  40ef94:	e8 37 f5 ff ff       	call   40e4d0 <_Z8myprintfPKcz>
  40ef99:	bf 61 19 41 00       	mov    edi,0x411961
  40ef9e:	31 c0                	xor    eax,eax
  40efa0:	e8 2b f5 ff ff       	call   40e4d0 <_Z8myprintfPKcz>
  40efa5:	48 81 c4 18 02 00 00 	add    rsp,0x218
  40efac:	5b                   	pop    rbx
  40efad:	41 5e                	pop    r14
  40efaf:	41 5f                	pop    r15
  40efb1:	5d                   	pop    rbp
  40efb2:	c3                   	ret    
  40efb3:	66 2e 0f 1f 84 00 00 	cs nop WORD PTR [rax+rax*1+0x0]
  40efba:	00 00 00 
  40efbd:	0f 1f 00             	nop    DWORD PTR [rax]

000000000040efc0 <_Z16post_fl_thinkingP7state_tiiPci>:
  40efc0:	55                   	push   rbp
  40efc1:	41 56                	push   r14
  40efc3:	53                   	push   rbx
  40efc4:	48 81 ec 10 02 00 00 	sub    rsp,0x210
  40efcb:	41 89 d6             	mov    r14d,edx
  40efce:	89 f5                	mov    ebp,esi
  40efd0:	48 89 fb             	mov    rbx,rdi
  40efd3:	8b 35 73 81 b5 00    	mov    esi,DWORD PTR [rip+0xb58173]        # f6714c <gamestate+0x14>
  40efd9:	83 fe 02             	cmp    esi,0x2
  40efdc:	7f 0d                	jg     40efeb <_Z16post_fl_thinkingP7state_tiiPci+0x2b>
  40efde:	83 3d 8b 81 b5 00 02 	cmp    DWORD PTR [rip+0xb5818b],0x2        # f67170 <gamestate+0x38>
  40efe5:	0f 8f 1b 01 00 00    	jg     40f106 <_Z16post_fl_thinkingP7state_tiiPci+0x146>
  40efeb:	83 3d 92 4e b5 00 00 	cmp    DWORD PTR [rip+0xb54e92],0x0        # f63e84 <uci_mode>
  40eff2:	74 3f                	je     40f033 <_Z16post_fl_thinkingP7state_tiiPci+0x73>
  40eff4:	bf 77 19 41 00       	mov    edi,0x411977
  40eff9:	31 c0                	xor    eax,eax
  40effb:	48 89 ce             	mov    rsi,rcx
  40effe:	44 89 c2             	mov    edx,r8d
  40f001:	e8 ca f4 ff ff       	call   40e4d0 <_Z8myprintfPKcz>
  40f006:	89 e8                	mov    eax,ebp
  40f008:	f7 d8                	neg    eax
  40f00a:	0f 4c c5             	cmovl  eax,ebp
  40f00d:	3d 0f 27 00 00       	cmp    eax,0x270f
  40f012:	7f 38                	jg     40f04c <_Z16post_fl_thinkingP7state_tiiPci+0x8c>
  40f014:	8b 35 32 81 b5 00    	mov    esi,DWORD PTR [rip+0xb58132]        # f6714c <gamestate+0x14>
  40f01a:	8b 93 00 10 00 00    	mov    edx,DWORD PTR [rbx+0x1000]
  40f020:	4c 8b 83 f0 0f 00 00 	mov    r8,QWORD PTR [rbx+0xff0]
  40f027:	44 8b 0d 8e 50 b5 00 	mov    r9d,DWORD PTR [rip+0xb5508e]        # f640bc <EGTBHits>
  40f02e:	89 2c 24             	mov    DWORD PTR [rsp],ebp
  40f031:	eb 52                	jmp    40f085 <_Z16post_fl_thinkingP7state_tiiPci+0xc5>
  40f033:	4c 8b 83 f0 0f 00 00 	mov    r8,QWORD PTR [rbx+0xff0]
  40f03a:	bf 63 19 41 00       	mov    edi,0x411963
  40f03f:	31 c9                	xor    ecx,ecx
  40f041:	31 c0                	xor    eax,eax
  40f043:	89 ea                	mov    edx,ebp
  40f045:	e8 86 f4 ff ff       	call   40e4d0 <_Z8myprintfPKcz>
  40f04a:	eb 47                	jmp    40f093 <_Z16post_fl_thinkingP7state_tiiPci+0xd3>
  40f04c:	f7 d5                	not    ebp
  40f04e:	c1 ed 1f             	shr    ebp,0x1f
  40f051:	8d 4c 2d ff          	lea    ecx,[rbp+rbp*1-0x1]
  40f055:	8b 35 f1 80 b5 00    	mov    esi,DWORD PTR [rip+0xb580f1]        # f6714c <gamestate+0x14>
  40f05b:	8b 93 00 10 00 00    	mov    edx,DWORD PTR [rbx+0x1000]
  40f061:	4c 8b 83 f0 0f 00 00 	mov    r8,QWORD PTR [rbx+0xff0]
  40f068:	44 8b 0d 4d 50 b5 00 	mov    r9d,DWORD PTR [rip+0xb5504d]        # f640bc <EGTBHits>
  40f06f:	bf 00 7d 00 00       	mov    edi,0x7d00
  40f074:	29 c7                	sub    edi,eax
  40f076:	89 f8                	mov    eax,edi
  40f078:	c1 e8 1f             	shr    eax,0x1f
  40f07b:	01 f8                	add    eax,edi
  40f07d:	d1 f8                	sar    eax,1
  40f07f:	0f af c1             	imul   eax,ecx
  40f082:	89 04 24             	mov    DWORD PTR [rsp],eax
  40f085:	bf c7 1a 41 00       	mov    edi,0x411ac7
  40f08a:	31 c9                	xor    ecx,ecx
  40f08c:	31 c0                	xor    eax,eax
  40f08e:	e8 3d f4 ff ff       	call   40e4d0 <_Z8myprintfPKcz>
  40f093:	48 89 df             	mov    rdi,rbx
  40f096:	44 89 f6             	mov    esi,r14d
  40f099:	e8 22 76 ff ff       	call   4066c0 <_Z6unmakeP7state_ti>
  40f09e:	83 3d df 4d b5 00 00 	cmp    DWORD PTR [rip+0xb54ddf],0x0        # f63e84 <uci_mode>
  40f0a5:	74 12                	je     40f0b9 <_Z16post_fl_thinkingP7state_tiiPci+0xf9>
  40f0a7:	48 8d 54 24 10       	lea    rdx,[rsp+0x10]
  40f0ac:	48 89 df             	mov    rdi,rbx
  40f0af:	44 89 f6             	mov    esi,r14d
  40f0b2:	e8 99 f1 ff ff       	call   40e250 <_Z13comp_to_coordP7state_tiPc>
  40f0b7:	eb 10                	jmp    40f0c9 <_Z16post_fl_thinkingP7state_tiiPci+0x109>
  40f0b9:	48 8d 54 24 10       	lea    rdx,[rsp+0x10]
  40f0be:	48 89 df             	mov    rdi,rbx
  40f0c1:	44 89 f6             	mov    esi,r14d
  40f0c4:	e8 d7 ed ff ff       	call   40dea0 <_Z11comp_to_sanP7state_tiPc>
  40f0c9:	48 89 df             	mov    rdi,rbx
  40f0cc:	44 89 f6             	mov    esi,r14d
  40f0cf:	e8 dc 6e ff ff       	call   405fb0 <_Z4makeP7state_ti>
  40f0d4:	83 3d a9 4d b5 00 00 	cmp    DWORD PTR [rip+0xb54da9],0x0        # f63e84 <uci_mode>
  40f0db:	74 0c                	je     40f0e9 <_Z16post_fl_thinkingP7state_tiiPci+0x129>
  40f0dd:	48 8d 74 24 10       	lea    rsi,[rsp+0x10]
  40f0e2:	bf 3f 1a 41 00       	mov    edi,0x411a3f
  40f0e7:	eb 0a                	jmp    40f0f3 <_Z16post_fl_thinkingP7state_tiiPci+0x133>
  40f0e9:	48 8d 74 24 10       	lea    rsi,[rsp+0x10]
  40f0ee:	bf 23 1b 41 00       	mov    edi,0x411b23
  40f0f3:	31 c0                	xor    eax,eax
  40f0f5:	e8 d6 f3 ff ff       	call   40e4d0 <_Z8myprintfPKcz>
  40f0fa:	bf 61 19 41 00       	mov    edi,0x411961
  40f0ff:	31 c0                	xor    eax,eax
  40f101:	e8 ca f3 ff ff       	call   40e4d0 <_Z8myprintfPKcz>
  40f106:	48 81 c4 10 02 00 00 	add    rsp,0x210
  40f10d:	5b                   	pop    rbx
  40f10e:	41 5e                	pop    r14
  40f110:	5d                   	pop    rbp
  40f111:	c3                   	ret    
  40f112:	66 2e 0f 1f 84 00 00 	cs nop WORD PTR [rax+rax*1+0x0]
  40f119:	00 00 00 
  40f11c:	0f 1f 40 00          	nop    DWORD PTR [rax+0x0]

000000000040f120 <_Z21post_multipv_thinkingP7state_tiii>:
  40f120:	55                   	push   rbp
  40f121:	48 89 e5             	mov    rbp,rsp
  40f124:	41 57                	push   r15
  40f126:	41 56                	push   r14
  40f128:	41 55                	push   r13
  40f12a:	41 54                	push   r12
  40f12c:	53                   	push   rbx
  40f12d:	48 83 e4 e0          	and    rsp,0xffffffffffffffe0
  40f131:	48 81 ec 40 02 00 00 	sub    rsp,0x240
  40f138:	41 89 cc             	mov    r12d,ecx
  40f13b:	89 d1                	mov    ecx,edx
  40f13d:	89 f3                	mov    ebx,esi
  40f13f:	49 89 ff             	mov    r15,rdi
  40f142:	8b 15 04 80 b5 00    	mov    edx,DWORD PTR [rip+0xb58004]        # f6714c <gamestate+0x14>
  40f148:	83 fa 02             	cmp    edx,0x2
  40f14b:	7f 0d                	jg     40f15a <_Z21post_multipv_thinkingP7state_tiii+0x3a>
  40f14d:	83 3d 1c 80 b5 00 02 	cmp    DWORD PTR [rip+0xb5801c],0x2        # f67170 <gamestate+0x38>
  40f154:	0f 8f a3 02 00 00    	jg     40f3fd <_Z21post_multipv_thinkingP7state_tiii+0x2dd>
  40f15a:	48 63 f1             	movsxd rsi,ecx
  40f15d:	49 89 f6             	mov    r14,rsi
  40f160:	49 c1 e6 09          	shl    r14,0x9
  40f164:	4d 8d ae 20 a2 f8 00 	lea    r13,[r14+0xf8a220]
  40f16b:	c5 f8 57 c0          	vxorps xmm0,xmm0,xmm0
  40f16f:	c4 c1 7c 11 86 00 a4 	vmovups YMMWORD PTR [r14+0xf8a400],ymm0
  40f176:	f8 00 
  40f178:	c4 c1 7c 11 86 e0 a3 	vmovups YMMWORD PTR [r14+0xf8a3e0],ymm0
  40f17f:	f8 00 
  40f181:	c4 c1 7c 11 86 c0 a3 	vmovups YMMWORD PTR [r14+0xf8a3c0],ymm0
  40f188:	f8 00 
  40f18a:	c4 c1 7c 11 86 a0 a3 	vmovups YMMWORD PTR [r14+0xf8a3a0],ymm0
  40f191:	f8 00 
  40f193:	c4 c1 7c 11 86 80 a3 	vmovups YMMWORD PTR [r14+0xf8a380],ymm0
  40f19a:	f8 00 
  40f19c:	c4 c1 7c 11 86 60 a3 	vmovups YMMWORD PTR [r14+0xf8a360],ymm0
  40f1a3:	f8 00 
  40f1a5:	c4 c1 7c 11 86 40 a3 	vmovups YMMWORD PTR [r14+0xf8a340],ymm0
  40f1ac:	f8 00 
  40f1ae:	c4 c1 7c 11 86 20 a3 	vmovups YMMWORD PTR [r14+0xf8a320],ymm0
  40f1b5:	f8 00 
  40f1b7:	c4 c1 7c 11 86 00 a3 	vmovups YMMWORD PTR [r14+0xf8a300],ymm0
  40f1be:	f8 00 
  40f1c0:	c4 c1 7c 11 86 e0 a2 	vmovups YMMWORD PTR [r14+0xf8a2e0],ymm0
  40f1c7:	f8 00 
  40f1c9:	c4 c1 7c 11 86 c0 a2 	vmovups YMMWORD PTR [r14+0xf8a2c0],ymm0
  40f1d0:	f8 00 
  40f1d2:	c4 c1 7c 11 86 a0 a2 	vmovups YMMWORD PTR [r14+0xf8a2a0],ymm0
  40f1d9:	f8 00 
  40f1db:	c4 c1 7c 11 86 80 a2 	vmovups YMMWORD PTR [r14+0xf8a280],ymm0
  40f1e2:	f8 00 
  40f1e4:	c4 c1 7c 11 86 60 a2 	vmovups YMMWORD PTR [r14+0xf8a260],ymm0
  40f1eb:	f8 00 
  40f1ed:	c4 c1 7c 11 86 40 a2 	vmovups YMMWORD PTR [r14+0xf8a240],ymm0
  40f1f4:	f8 00 
  40f1f6:	c4 c1 7c 11 86 20 a2 	vmovups YMMWORD PTR [r14+0xf8a220],ymm0
  40f1fd:	f8 00 
  40f1ff:	89 1c b5 20 82 fa 00 	mov    DWORD PTR [rsi*4+0xfa8220],ebx
  40f206:	89 d8                	mov    eax,ebx
  40f208:	f7 d8                	neg    eax
  40f20a:	0f 4c c3             	cmovl  eax,ebx
  40f20d:	3d 0f 27 00 00       	cmp    eax,0x270f
  40f212:	89 4c 24 04          	mov    DWORD PTR [rsp+0x4],ecx
  40f216:	48 89 74 24 08       	mov    QWORD PTR [rsp+0x8],rsi
  40f21b:	7f 1c                	jg     40f239 <_Z21post_multipv_thinkingP7state_tiii+0x119>
  40f21d:	41 8b 8f 00 10 00 00 	mov    ecx,DWORD PTR [r15+0x1000]
  40f224:	4d 8b 8f f0 0f 00 00 	mov    r9,QWORD PTR [r15+0xff0]
  40f22b:	44 8b 15 8a 4e b5 00 	mov    r10d,DWORD PTR [rip+0xb54e8a]        # f640bc <EGTBHits>
  40f232:	be 29 1b 41 00       	mov    esi,0x411b29
  40f237:	eb 38                	jmp    40f271 <_Z21post_multipv_thinkingP7state_tiii+0x151>
  40f239:	f7 d3                	not    ebx
  40f23b:	c1 eb 1f             	shr    ebx,0x1f
  40f23e:	8d 34 1b             	lea    esi,[rbx+rbx*1]
  40f241:	83 c6 ff             	add    esi,0xffffffff
  40f244:	41 8b 8f 00 10 00 00 	mov    ecx,DWORD PTR [r15+0x1000]
  40f24b:	4d 8b 8f f0 0f 00 00 	mov    r9,QWORD PTR [r15+0xff0]
  40f252:	44 8b 15 63 4e b5 00 	mov    r10d,DWORD PTR [rip+0xb54e63]        # f640bc <EGTBHits>
  40f259:	bf 00 7d 00 00       	mov    edi,0x7d00
  40f25e:	29 c7                	sub    edi,eax
  40f260:	89 fb                	mov    ebx,edi
  40f262:	c1 eb 1f             	shr    ebx,0x1f
  40f265:	01 fb                	add    ebx,edi
  40f267:	d1 fb                	sar    ebx,1
  40f269:	0f af de             	imul   ebx,esi
  40f26c:	be 6b 1b 41 00       	mov    esi,0x411b6b
  40f271:	41 b8 00 00 00 00    	mov    r8d,0x0
  40f277:	31 c0                	xor    eax,eax
  40f279:	4c 89 ef             	mov    rdi,r13
  40f27c:	53                   	push   rbx
  40f27d:	41 52                	push   r10
  40f27f:	c5 f8 77             	vzeroupper 
  40f282:	e8 b9 1d ff ff       	call   401040 <sprintf@plt>
  40f287:	48 83 c4 10          	add    rsp,0x10
  40f28b:	48 8d 5c 24 16       	lea    rbx,[rsp+0x16]
  40f290:	4c 89 ff             	mov    rdi,r15
  40f293:	44 89 e6             	mov    esi,r12d
  40f296:	48 89 da             	mov    rdx,rbx
  40f299:	e8 b2 ef ff ff       	call   40e250 <_Z13comp_to_coordP7state_tiPc>
  40f29e:	4c 89 ef             	mov    rdi,r13
  40f2a1:	48 89 de             	mov    rsi,rbx
  40f2a4:	e8 f7 1e ff ff       	call   4011a0 <strcat@plt>
  40f2a9:	4c 89 ef             	mov    rdi,r13
  40f2ac:	e8 cf 1d ff ff       	call   401080 <strlen@plt>
  40f2b1:	66 41 c7 84 06 20 a2 	mov    WORD PTR [r14+rax*1+0xf8a220],0x20
  40f2b8:	f8 00 20 00 
  40f2bc:	c5 f8 57 c0          	vxorps xmm0,xmm0,xmm0
  40f2c0:	c5 fc 29 84 24 00 02 	vmovaps YMMWORD PTR [rsp+0x200],ymm0
  40f2c7:	00 00 
  40f2c9:	c5 fc 29 84 24 e0 01 	vmovaps YMMWORD PTR [rsp+0x1e0],ymm0
  40f2d0:	00 00 
  40f2d2:	c5 fc 29 84 24 c0 01 	vmovaps YMMWORD PTR [rsp+0x1c0],ymm0
  40f2d9:	00 00 
  40f2db:	c5 fc 29 84 24 a0 01 	vmovaps YMMWORD PTR [rsp+0x1a0],ymm0
  40f2e2:	00 00 
  40f2e4:	c5 fc 29 84 24 80 01 	vmovaps YMMWORD PTR [rsp+0x180],ymm0
  40f2eb:	00 00 
  40f2ed:	c5 fc 29 84 24 60 01 	vmovaps YMMWORD PTR [rsp+0x160],ymm0
  40f2f4:	00 00 
  40f2f6:	c5 fc 29 84 24 40 01 	vmovaps YMMWORD PTR [rsp+0x140],ymm0
  40f2fd:	00 00 
  40f2ff:	c5 fc 29 84 24 20 01 	vmovaps YMMWORD PTR [rsp+0x120],ymm0
  40f306:	00 00 
  40f308:	c5 fc 29 84 24 00 01 	vmovaps YMMWORD PTR [rsp+0x100],ymm0
  40f30f:	00 00 
  40f311:	c5 fc 29 84 24 e0 00 	vmovaps YMMWORD PTR [rsp+0xe0],ymm0
  40f318:	00 00 
  40f31a:	c5 fc 29 84 24 c0 00 	vmovaps YMMWORD PTR [rsp+0xc0],ymm0
  40f321:	00 00 
  40f323:	c5 fc 29 84 24 a0 00 	vmovaps YMMWORD PTR [rsp+0xa0],ymm0
  40f32a:	00 00 
  40f32c:	c5 fc 29 84 24 80 00 	vmovaps YMMWORD PTR [rsp+0x80],ymm0
  40f333:	00 00 
  40f335:	c5 fc 29 44 24 60    	vmovaps YMMWORD PTR [rsp+0x60],ymm0
  40f33b:	c5 fc 29 44 24 40    	vmovaps YMMWORD PTR [rsp+0x40],ymm0
  40f341:	c5 fc 29 44 24 20    	vmovaps YMMWORD PTR [rsp+0x20],ymm0
  40f347:	48 8d 5c 24 20       	lea    rbx,[rsp+0x20]
  40f34c:	be 3c 00 00 00       	mov    esi,0x3c
  40f351:	4c 89 ff             	mov    rdi,r15
  40f354:	48 89 da             	mov    rdx,rbx
  40f357:	c5 f8 77             	vzeroupper 
  40f35a:	e8 b1 f6 ff ff       	call   40ea10 <_ZL15hash_extract_pvP7state_tiPc>
  40f35f:	4c 89 ef             	mov    rdi,r13
  40f362:	48 89 de             	mov    rsi,rbx
  40f365:	e8 36 1e ff ff       	call   4011a0 <strcat@plt>
  40f36a:	4c 89 ef             	mov    rdi,r13
  40f36d:	e8 0e 1d ff ff       	call   401080 <strlen@plt>
  40f372:	66 41 c7 84 06 20 a2 	mov    WORD PTR [r14+rax*1+0xf8a220],0xa
  40f379:	f8 00 0a 00 
  40f37d:	48 63 05 18 4b b5 00 	movsxd rax,DWORD PTR [rip+0xb54b18]        # f63e9c <uci_multipv>
  40f384:	3b 44 24 04          	cmp    eax,DWORD PTR [rsp+0x4]
  40f388:	7d 15                	jge    40f39f <_Z21post_multipv_thinkingP7state_tiii+0x27f>
  40f38a:	8b 04 85 20 82 fa 00 	mov    eax,DWORD PTR [rax*4+0xfa8220]
  40f391:	48 8b 4c 24 08       	mov    rcx,QWORD PTR [rsp+0x8]
  40f396:	39 04 8d 20 82 fa 00 	cmp    DWORD PTR [rcx*4+0xfa8220],eax
  40f39d:	7c 5e                	jl     40f3fd <_Z21post_multipv_thinkingP7state_tiii+0x2dd>
  40f39f:	e8 6c 00 00 00       	call   40f410 <_ZL14resort_multipvv>
  40f3a4:	83 3d f1 4a b5 00 00 	cmp    DWORD PTR [rip+0xb54af1],0x0        # f63e9c <uci_multipv>
  40f3ab:	7e 50                	jle    40f3fd <_Z21post_multipv_thinkingP7state_tiii+0x2dd>
  40f3ad:	41 bf 20 a4 f8 00    	mov    r15d,0xf8a420
  40f3b3:	4c 8d 74 24 20       	lea    r14,[rsp+0x20]
  40f3b8:	31 db                	xor    ebx,ebx
  40f3ba:	66 0f 1f 44 00 00    	nop    WORD PTR [rax+rax*1+0x0]
  40f3c0:	48 83 c3 01          	add    rbx,0x1
  40f3c4:	be af 1b 41 00       	mov    esi,0x411baf
  40f3c9:	31 c0                	xor    eax,eax
  40f3cb:	4c 89 f7             	mov    rdi,r14
  40f3ce:	89 da                	mov    edx,ebx
  40f3d0:	e8 6b 1c ff ff       	call   401040 <sprintf@plt>
  40f3d5:	4c 89 f7             	mov    rdi,r14
  40f3d8:	4c 89 fe             	mov    rsi,r15
  40f3db:	e8 c0 1d ff ff       	call   4011a0 <strcat@plt>
  40f3e0:	31 c0                	xor    eax,eax
  40f3e2:	4c 89 f7             	mov    rdi,r14
  40f3e5:	e8 e6 f0 ff ff       	call   40e4d0 <_Z8myprintfPKcz>
  40f3ea:	48 63 05 ab 4a b5 00 	movsxd rax,DWORD PTR [rip+0xb54aab]        # f63e9c <uci_multipv>
  40f3f1:	49 81 c7 00 02 00 00 	add    r15,0x200
  40f3f8:	48 39 c3             	cmp    rbx,rax
  40f3fb:	7c c3                	jl     40f3c0 <_Z21post_multipv_thinkingP7state_tiii+0x2a0>
  40f3fd:	48 8d 65 d8          	lea    rsp,[rbp-0x28]
  40f401:	5b                   	pop    rbx
  40f402:	41 5c                	pop    r12
  40f404:	41 5d                	pop    r13
  40f406:	41 5e                	pop    r14
  40f408:	41 5f                	pop    r15
  40f40a:	5d                   	pop    rbp
  40f40b:	c3                   	ret    
  40f40c:	0f 1f 40 00          	nop    DWORD PTR [rax+0x0]

000000000040f410 <_ZL14resort_multipvv>:
  40f410:	55                   	push   rbp
  40f411:	41 57                	push   r15
  40f413:	41 56                	push   r14
  40f415:	41 55                	push   r13
  40f417:	41 54                	push   r12
  40f419:	53                   	push   rbx
  40f41a:	48 81 ec 18 02 00 00 	sub    rsp,0x218
  40f421:	41 bc 01 00 00 00    	mov    r12d,0x1
  40f427:	45 31 ed             	xor    r13d,r13d
  40f42a:	bd 20 a4 f8 00       	mov    ebp,0xf8a420
  40f42f:	4c 8d 74 24 10       	lea    r14,[rsp+0x10]
  40f434:	66 2e 0f 1f 84 00 00 	cs nop WORD PTR [rax+rax*1+0x0]
  40f43b:	00 00 00 
  40f43e:	66 90                	xchg   ax,ax
  40f440:	4c 89 e0             	mov    rax,r12
  40f443:	48 c1 e0 09          	shl    rax,0x9
  40f447:	4c 8d b8 20 a2 f8 00 	lea    r15,[rax+0xf8a220]
  40f44e:	48 89 eb             	mov    rbx,rbp
  40f451:	4c 89 6c 24 08       	mov    QWORD PTR [rsp+0x8],r13
  40f456:	66 2e 0f 1f 84 00 00 	cs nop WORD PTR [rax+rax*1+0x0]
  40f45d:	00 00 00 
  40f460:	41 8b 85 24 82 fa 00 	mov    eax,DWORD PTR [r13+0xfa8224]
  40f467:	42 3b 04 a5 20 82 fa 	cmp    eax,DWORD PTR [r12*4+0xfa8220]
  40f46e:	00 
  40f46f:	7e 3f                	jle    40f4b0 <_ZL14resort_multipvv+0xa0>
  40f471:	4c 89 f7             	mov    rdi,r14
  40f474:	48 89 de             	mov    rsi,rbx
  40f477:	e8 44 1c ff ff       	call   4010c0 <strcpy@plt>
  40f47c:	48 89 df             	mov    rdi,rbx
  40f47f:	4c 89 fe             	mov    rsi,r15
  40f482:	e8 39 1c ff ff       	call   4010c0 <strcpy@plt>
  40f487:	4c 89 ff             	mov    rdi,r15
  40f48a:	4c 89 f6             	mov    rsi,r14
  40f48d:	e8 2e 1c ff ff       	call   4010c0 <strcpy@plt>
  40f492:	41 8b 85 24 82 fa 00 	mov    eax,DWORD PTR [r13+0xfa8224]
  40f499:	42 8b 0c a5 20 82 fa 	mov    ecx,DWORD PTR [r12*4+0xfa8220]
  40f4a0:	00 
  40f4a1:	41 89 8d 24 82 fa 00 	mov    DWORD PTR [r13+0xfa8224],ecx
  40f4a8:	42 89 04 a5 20 82 fa 	mov    DWORD PTR [r12*4+0xfa8220],eax
  40f4af:	00 
  40f4b0:	49 83 c5 04          	add    r13,0x4
  40f4b4:	48 81 c3 00 02 00 00 	add    rbx,0x200
  40f4bb:	49 81 fd bc 03 00 00 	cmp    r13,0x3bc
  40f4c2:	75 9c                	jne    40f460 <_ZL14resort_multipvv+0x50>
  40f4c4:	49 83 c4 01          	add    r12,0x1
  40f4c8:	4c 8b 6c 24 08       	mov    r13,QWORD PTR [rsp+0x8]
  40f4cd:	49 83 c5 04          	add    r13,0x4
  40f4d1:	48 81 c5 00 02 00 00 	add    rbp,0x200
  40f4d8:	49 81 fc f0 00 00 00 	cmp    r12,0xf0
  40f4df:	0f 85 5b ff ff ff    	jne    40f440 <_ZL14resort_multipvv+0x30>
  40f4e5:	48 81 c4 18 02 00 00 	add    rsp,0x218
  40f4ec:	5b                   	pop    rbx
  40f4ed:	41 5c                	pop    r12
  40f4ef:	41 5d                	pop    r13
  40f4f1:	41 5e                	pop    r14
  40f4f3:	41 5f                	pop    r15
  40f4f5:	5d                   	pop    rbp
  40f4f6:	c3                   	ret    
  40f4f7:	66 0f 1f 84 00 00 00 	nop    WORD PTR [rax+rax*1+0x0]
  40f4fe:	00 00 

000000000040f500 <_Z6rinputPciP8_IO_FILE>:
  40f500:	55                   	push   rbp
  40f501:	41 57                	push   r15
  40f503:	41 56                	push   r14
  40f505:	41 54                	push   r12
  40f507:	53                   	push   rbx
  40f508:	49 89 d7             	mov    r15,rdx
  40f50b:	41 89 f4             	mov    r12d,esi
  40f50e:	49 89 fe             	mov    r14,rdi
  40f511:	83 3d 58 49 b5 00 00 	cmp    DWORD PTR [rip+0xb54958],0x0        # f63e70 <buffered_count>
  40f518:	0f 84 7e 00 00 00    	je     40f59c <_Z6rinputPciP8_IO_FILE+0x9c>
  40f51e:	8b 05 50 49 b5 00    	mov    eax,DWORD PTR [rip+0xb54950]        # f63e74 <is_pondering>
  40f524:	85 c0                	test   eax,eax
  40f526:	75 74                	jne    40f59c <_Z6rinputPciP8_IO_FILE+0x9c>
  40f528:	49 63 d4             	movsxd rdx,r12d
  40f52b:	be 70 be f3 00       	mov    esi,0xf3be70
  40f530:	4c 89 f7             	mov    rdi,r14
  40f533:	e8 68 1b ff ff       	call   4010a0 <strncpy@plt>
  40f538:	8b 05 32 49 b5 00    	mov    eax,DWORD PTR [rip+0xb54932]        # f63e70 <buffered_count>
  40f53e:	83 f8 01             	cmp    eax,0x1
  40f541:	74 29                	je     40f56c <_Z6rinputPciP8_IO_FILE+0x6c>
  40f543:	bd 01 00 00 00       	mov    ebp,0x1
  40f548:	29 c5                	sub    ebp,eax
  40f54a:	bb 70 be f3 00       	mov    ebx,0xf3be70
  40f54f:	90                   	nop
  40f550:	48 89 df             	mov    rdi,rbx
  40f553:	48 8d 9b 00 20 00 00 	lea    rbx,[rbx+0x2000]
  40f55a:	ba 00 20 00 00       	mov    edx,0x2000
  40f55f:	48 89 de             	mov    rsi,rbx
  40f562:	e8 39 1b ff ff       	call   4010a0 <strncpy@plt>
  40f567:	83 c5 01             	add    ebp,0x1
  40f56a:	75 e4                	jne    40f550 <_Z6rinputPciP8_IO_FILE+0x50>
  40f56c:	48 63 05 fd 48 b5 00 	movsxd rax,DWORD PTR [rip+0xb548fd]        # f63e70 <buffered_count>
  40f573:	48 83 c0 ff          	add    rax,0xffffffffffffffff
  40f577:	89 05 f3 48 b5 00    	mov    DWORD PTR [rip+0xb548f3],eax        # f63e70 <buffered_count>
  40f57d:	48 c1 e0 0d          	shl    rax,0xd
  40f581:	48 8d b8 70 be f3 00 	lea    rdi,[rax+0xf3be70]
  40f588:	31 f6                	xor    esi,esi
  40f58a:	ba 00 20 00 00       	mov    edx,0x2000
  40f58f:	5b                   	pop    rbx
  40f590:	41 5c                	pop    r12
  40f592:	41 5e                	pop    r14
  40f594:	41 5f                	pop    r15
  40f596:	5d                   	pop    rbp
  40f597:	e9 14 1b ff ff       	jmp    4010b0 <memset@plt>
  40f59c:	41 83 c4 ff          	add    r12d,0xffffffff
  40f5a0:	31 db                	xor    ebx,ebx
  40f5a2:	eb 0c                	jmp    40f5b0 <_Z6rinputPciP8_IO_FILE+0xb0>
  40f5a4:	48 63 c3             	movsxd rax,ebx
  40f5a7:	83 c3 01             	add    ebx,0x1
  40f5aa:	41 88 2c 06          	mov    BYTE PTR [r14+rax*1],bpl
  40f5ae:	66 90                	xchg   ax,ax
  40f5b0:	4c 89 ff             	mov    rdi,r15
  40f5b3:	e8 a8 1a ff ff       	call   401060 <getc@plt>
  40f5b8:	89 c5                	mov    ebp,eax
  40f5ba:	83 f8 ff             	cmp    eax,0xffffffff
  40f5bd:	74 0c                	je     40f5cb <_Z6rinputPciP8_IO_FILE+0xcb>
  40f5bf:	83 fd 0a             	cmp    ebp,0xa
  40f5c2:	74 07                	je     40f5cb <_Z6rinputPciP8_IO_FILE+0xcb>
  40f5c4:	44 39 e3             	cmp    ebx,r12d
  40f5c7:	7d e7                	jge    40f5b0 <_Z6rinputPciP8_IO_FILE+0xb0>
  40f5c9:	eb d9                	jmp    40f5a4 <_Z6rinputPciP8_IO_FILE+0xa4>
  40f5cb:	48 63 c3             	movsxd rax,ebx
  40f5ce:	41 c6 04 06 00       	mov    BYTE PTR [r14+rax*1],0x0
  40f5d3:	83 3d c6 48 b5 00 00 	cmp    DWORD PTR [rip+0xb548c6],0x0        # f63ea0 <cfg_logging>
  40f5da:	74 31                	je     40f60d <_Z6rinputPciP8_IO_FILE+0x10d>
  40f5dc:	bf b0 3e f6 00       	mov    edi,0xf63eb0
  40f5e1:	be c0 1b 41 00       	mov    esi,0x411bc0
  40f5e6:	e8 15 1b ff ff       	call   401100 <fopen@plt>
  40f5eb:	48 85 c0             	test   rax,rax
  40f5ee:	74 1d                	je     40f60d <_Z6rinputPciP8_IO_FILE+0x10d>
  40f5f0:	48 89 c3             	mov    rbx,rax
  40f5f3:	be c2 1b 41 00       	mov    esi,0x411bc2
  40f5f8:	31 c0                	xor    eax,eax
  40f5fa:	48 89 df             	mov    rdi,rbx
  40f5fd:	4c 89 f2             	mov    rdx,r14
  40f600:	e8 6b 1b ff ff       	call   401170 <fprintf@plt>
  40f605:	48 89 df             	mov    rdi,rbx
  40f608:	e8 d3 1a ff ff       	call   4010e0 <fclose@plt>
  40f60d:	83 fd ff             	cmp    ebp,0xffffffff
  40f610:	74 09                	je     40f61b <_Z6rinputPciP8_IO_FILE+0x11b>
  40f612:	5b                   	pop    rbx
  40f613:	41 5c                	pop    r12
  40f615:	41 5e                	pop    r14
  40f617:	41 5f                	pop    r15
  40f619:	5d                   	pop    rbp
  40f61a:	c3                   	ret    
  40f61b:	bf c8 1b 41 00       	mov    edi,0x411bc8
  40f620:	31 c0                	xor    eax,eax
  40f622:	e8 a9 ee ff ff       	call   40e4d0 <_Z8myprintfPKcz>
  40f627:	e8 04 e6 ff ff       	call   40dc30 <_Z9free_hashv>
  40f62c:	bf 01 00 00 00       	mov    edi,0x1
  40f631:	e8 ea 1a ff ff       	call   401120 <exit@plt>
  40f636:	66 2e 0f 1f 84 00 00 	cs nop WORD PTR [rax+rax*1+0x0]
  40f63d:	00 00 00 

000000000040f640 <_Z8start_upv>:
  40f640:	bf e8 1b 41 00       	mov    edi,0x411be8
  40f645:	31 c0                	xor    eax,eax
  40f647:	e9 84 ee ff ff       	jmp    40e4d0 <_Z8myprintfPKcz>
  40f64c:	0f 1f 40 00          	nop    DWORD PTR [rax+0x0]

000000000040f650 <_Z12verify_coordP7state_tPcPi>:
  40f650:	55                   	push   rbp
  40f651:	41 57                	push   r15
  40f653:	41 56                	push   r14
  40f655:	41 55                	push   r13
  40f657:	41 54                	push   r12
  40f659:	53                   	push   rbx
  40f65a:	48 81 ec d8 03 00 00 	sub    rsp,0x3d8
  40f661:	48 89 14 24          	mov    QWORD PTR [rsp],rdx
  40f665:	49 89 f7             	mov    r15,rsi
  40f668:	48 89 fb             	mov    rbx,rdi
  40f66b:	48 8d 74 24 10       	lea    rsi,[rsp+0x10]
  40f670:	e8 fb 51 ff ff       	call   404870 <_Z3genP7state_tPi>
  40f675:	85 c0                	test   eax,eax
  40f677:	0f 8e 82 00 00 00    	jle    40f6ff <_Z12verify_coordP7state_tPcPi+0xaf>
  40f67d:	4c 63 e8             	movsxd r13,eax
  40f680:	41 be 01 00 00 00    	mov    r14d,0x1
  40f686:	4c 8d 64 24 0a       	lea    r12,[rsp+0xa]
  40f68b:	0f 1f 44 00 00       	nop    DWORD PTR [rax+rax*1+0x0]
  40f690:	42 8b 74 b4 0c       	mov    esi,DWORD PTR [rsp+r14*4+0xc]
  40f695:	48 89 df             	mov    rdi,rbx
  40f698:	4c 89 e2             	mov    rdx,r12
  40f69b:	e8 b0 eb ff ff       	call   40e250 <_Z13comp_to_coordP7state_tiPc>
  40f6a0:	4c 89 ff             	mov    rdi,r15
  40f6a3:	4c 89 e6             	mov    rsi,r12
  40f6a6:	e8 a5 1a ff ff       	call   401150 <strcmp@plt>
  40f6ab:	31 ed                	xor    ebp,ebp
  40f6ad:	85 c0                	test   eax,eax
  40f6af:	75 3f                	jne    40f6f0 <_Z12verify_coordP7state_tPcPi+0xa0>
  40f6b1:	42 8b 74 b4 0c       	mov    esi,DWORD PTR [rsp+r14*4+0xc]
  40f6b6:	48 89 df             	mov    rdi,rbx
  40f6b9:	e8 f2 68 ff ff       	call   405fb0 <_Z4makeP7state_ti>
  40f6be:	42 8b 74 b4 0c       	mov    esi,DWORD PTR [rsp+r14*4+0xc]
  40f6c3:	48 89 df             	mov    rdi,rbx
  40f6c6:	e8 b5 73 ff ff       	call   406a80 <_Z11check_legalP7state_ti>
  40f6cb:	85 c0                	test   eax,eax
  40f6cd:	74 12                	je     40f6e1 <_Z12verify_coordP7state_tPcPi+0x91>
  40f6cf:	42 8b 44 b4 0c       	mov    eax,DWORD PTR [rsp+r14*4+0xc]
  40f6d4:	48 8b 0c 24          	mov    rcx,QWORD PTR [rsp]
  40f6d8:	89 01                	mov    DWORD PTR [rcx],eax
  40f6da:	bd 01 00 00 00       	mov    ebp,0x1
  40f6df:	eb 02                	jmp    40f6e3 <_Z12verify_coordP7state_tPcPi+0x93>
  40f6e1:	31 ed                	xor    ebp,ebp
  40f6e3:	42 8b 74 b4 0c       	mov    esi,DWORD PTR [rsp+r14*4+0xc]
  40f6e8:	48 89 df             	mov    rdi,rbx
  40f6eb:	e8 d0 6f ff ff       	call   4066c0 <_Z6unmakeP7state_ti>
  40f6f0:	4d 39 ee             	cmp    r14,r13
  40f6f3:	7d 0c                	jge    40f701 <_Z12verify_coordP7state_tPcPi+0xb1>
  40f6f5:	49 83 c6 01          	add    r14,0x1
  40f6f9:	85 ed                	test   ebp,ebp
  40f6fb:	74 93                	je     40f690 <_Z12verify_coordP7state_tPcPi+0x40>
  40f6fd:	eb 02                	jmp    40f701 <_Z12verify_coordP7state_tPcPi+0xb1>
  40f6ff:	31 ed                	xor    ebp,ebp
  40f701:	89 e8                	mov    eax,ebp
  40f703:	48 81 c4 d8 03 00 00 	add    rsp,0x3d8
  40f70a:	5b                   	pop    rbx
  40f70b:	41 5c                	pop    r12
  40f70d:	41 5d                	pop    r13
  40f70f:	41 5e                	pop    r14
  40f711:	41 5f                	pop    r15
  40f713:	5d                   	pop    rbp
  40f714:	c3                   	ret    
  40f715:	66 2e 0f 1f 84 00 00 	cs nop WORD PTR [rax+rax*1+0x0]
  40f71c:	00 00 00 
  40f71f:	90                   	nop

000000000040f720 <_Z17input_causes_stopv>:
  40f720:	41 57                	push   r15
  40f722:	41 56                	push   r14
  40f724:	41 54                	push   r12
  40f726:	53                   	push   rbx
  40f727:	50                   	push   rax
  40f728:	48 8b 3d d1 59 00 00 	mov    rdi,QWORD PTR [rip+0x59d1]        # 415100 <stdin@@GLIBC_2.2.5>
  40f72f:	e8 2c 19 ff ff       	call   401060 <getc@plt>
  40f734:	89 c3                	mov    ebx,eax
  40f736:	83 f8 70             	cmp    eax,0x70
  40f739:	0f 85 96 00 00 00    	jne    40f7d5 <_Z17input_causes_stopv+0xb5>
  40f73f:	e8 1c e6 ff ff       	call   40dd60 <_Z13allocate_timeP11gamestate_ti>
  40f744:	89 05 1e 7a b5 00    	mov    DWORD PTR [rip+0xb57a1e],eax        # f67168 <gamestate+0x30>
  40f74a:	48 8b 35 af 59 00 00 	mov    rsi,QWORD PTR [rip+0x59af]        # 415100 <stdin@@GLIBC_2.2.5>
  40f751:	89 df                	mov    edi,ebx
  40f753:	e8 d8 18 ff ff       	call   401030 <ungetc@plt>
  40f758:	48 63 05 11 47 b5 00 	movsxd rax,DWORD PTR [rip+0xb54711]        # f63e70 <buffered_count>
  40f75f:	48 c1 e0 0d          	shl    rax,0xd
  40f763:	48 8d b8 70 be f3 00 	lea    rdi,[rax+0xf3be70]
  40f76a:	48 8b 15 8f 59 00 00 	mov    rdx,QWORD PTR [rip+0x598f]        # 415100 <stdin@@GLIBC_2.2.5>
  40f771:	be 00 20 00 00       	mov    esi,0x2000
  40f776:	e8 85 fd ff ff       	call   40f500 <_Z6rinputPciP8_IO_FILE>
  40f77b:	83 05 ee 46 b5 00 01 	add    DWORD PTR [rip+0xb546ee],0x1        # f63e70 <buffered_count>
  40f782:	48 63 05 df 79 b5 00 	movsxd rax,DWORD PTR [rip+0xb579df]        # f67168 <gamestate+0x30>
  40f789:	c5 fb 2a c0          	vcvtsi2sd xmm0,xmm0,eax
  40f78d:	c5 fb 5e 05 93 1c 00 	vdivsd xmm0,xmm0,QWORD PTR [rip+0x1c93]        # 411428 <_ZL8rc_index+0x38>
  40f794:	00 
  40f795:	c5 fb 5e 05 93 1c 00 	vdivsd xmm0,xmm0,QWORD PTR [rip+0x1c93]        # 411430 <_ZL8rc_index+0x40>
  40f79c:	00 
  40f79d:	c5 7b 2c c0          	vcvttsd2si r8d,xmm0
  40f7a1:	48 69 f0 1f 85 eb 51 	imul   rsi,rax,0x51eb851f
  40f7a8:	48 89 f0             	mov    rax,rsi
  40f7ab:	48 c1 e8 3f          	shr    rax,0x3f
  40f7af:	48 c1 fe 25          	sar    rsi,0x25
  40f7b3:	01 c6                	add    esi,eax
  40f7b5:	31 db                	xor    ebx,ebx
  40f7b7:	45 85 c0             	test   r8d,r8d
  40f7ba:	0f 88 d3 00 00 00    	js     40f893 <_Z17input_causes_stopv+0x173>
  40f7c0:	bf 32 1c 41 00       	mov    edi,0x411c32
  40f7c5:	31 d2                	xor    edx,edx
  40f7c7:	31 c0                	xor    eax,eax
  40f7c9:	89 f1                	mov    ecx,esi
  40f7cb:	e8 00 ed ff ff       	call   40e4d0 <_Z8myprintfPKcz>
  40f7d0:	e9 1f 01 00 00       	jmp    40f8f4 <_Z17input_causes_stopv+0x1d4>
  40f7d5:	48 8b 35 24 59 00 00 	mov    rsi,QWORD PTR [rip+0x5924]        # 415100 <stdin@@GLIBC_2.2.5>
  40f7dc:	89 df                	mov    edi,ebx
  40f7de:	e8 4d 18 ff ff       	call   401030 <ungetc@plt>
  40f7e3:	bb 01 00 00 00       	mov    ebx,0x1
  40f7e8:	83 3d 95 46 b5 00 00 	cmp    DWORD PTR [rip+0xb54695],0x0        # f63e84 <uci_mode>
  40f7ef:	0f 84 ff 00 00 00    	je     40f8f4 <_Z17input_causes_stopv+0x1d4>
  40f7f5:	48 63 05 74 46 b5 00 	movsxd rax,DWORD PTR [rip+0xb54674]        # f63e70 <buffered_count>
  40f7fc:	48 c1 e0 0d          	shl    rax,0xd
  40f800:	48 8d b8 70 be f3 00 	lea    rdi,[rax+0xf3be70]
  40f807:	48 8b 15 f2 58 00 00 	mov    rdx,QWORD PTR [rip+0x58f2]        # 415100 <stdin@@GLIBC_2.2.5>
  40f80e:	be 00 20 00 00       	mov    esi,0x2000
  40f813:	e8 e8 fc ff ff       	call   40f500 <_Z6rinputPciP8_IO_FILE>
  40f818:	4c 63 3d 51 46 b5 00 	movsxd r15,DWORD PTR [rip+0xb54651]        # f63e70 <buffered_count>
  40f81f:	4d 89 fc             	mov    r12,r15
  40f822:	49 c1 e4 0d          	shl    r12,0xd
  40f826:	31 db                	xor    ebx,ebx
  40f828:	41 80 bc 24 70 be f3 	cmp    BYTE PTR [r12+0xf3be70],0x0
  40f82f:	00 00 
  40f831:	0f 84 bd 00 00 00    	je     40f8f4 <_Z17input_causes_stopv+0x1d4>
  40f837:	4d 8d b4 24 70 be f3 	lea    r14,[r12+0xf3be70]
  40f83e:	00 
  40f83f:	be b6 1c 41 00       	mov    esi,0x411cb6
  40f844:	ba 04 00 00 00       	mov    edx,0x4
  40f849:	4c 89 f7             	mov    rdi,r14
  40f84c:	e8 3f 18 ff ff       	call   401090 <strncmp@plt>
  40f851:	85 c0                	test   eax,eax
  40f853:	74 50                	je     40f8a5 <_Z17input_causes_stopv+0x185>
  40f855:	be bb 1c 41 00       	mov    esi,0x411cbb
  40f85a:	ba 04 00 00 00       	mov    edx,0x4
  40f85f:	4c 89 f7             	mov    rdi,r14
  40f862:	e8 29 18 ff ff       	call   401090 <strncmp@plt>
  40f867:	85 c0                	test   eax,eax
  40f869:	74 61                	je     40f8cc <_Z17input_causes_stopv+0x1ac>
  40f86b:	be c0 1c 41 00       	mov    esi,0x411cc0
  40f870:	ba 16 00 00 00       	mov    edx,0x16
  40f875:	4c 89 f7             	mov    rdi,r14
  40f878:	e8 13 18 ff ff       	call   401090 <strncmp@plt>
  40f87d:	85 c0                	test   eax,eax
  40f87f:	74 58                	je     40f8d9 <_Z17input_causes_stopv+0x1b9>
  40f881:	41 83 c7 01          	add    r15d,0x1
  40f885:	44 89 3d e4 45 b5 00 	mov    DWORD PTR [rip+0xb545e4],r15d        # f63e70 <buffered_count>
  40f88c:	bb 01 00 00 00       	mov    ebx,0x1
  40f891:	eb 61                	jmp    40f8f4 <_Z17input_causes_stopv+0x1d4>
  40f893:	bf 7d 1c 41 00       	mov    edi,0x411c7d
  40f898:	31 d2                	xor    edx,edx
  40f89a:	31 c0                	xor    eax,eax
  40f89c:	89 f1                	mov    ecx,esi
  40f89e:	e8 2d ec ff ff       	call   40e4d0 <_Z8myprintfPKcz>
  40f8a3:	eb 4f                	jmp    40f8f4 <_Z17input_causes_stopv+0x1d4>
  40f8a5:	49 8d bc 24 75 be f3 	lea    rdi,[r12+0xf3be75]
  40f8ac:	00 
  40f8ad:	31 db                	xor    ebx,ebx
  40f8af:	48 8d 54 24 04       	lea    rdx,[rsp+0x4]
  40f8b4:	be e3 1c 41 00       	mov    esi,0x411ce3
  40f8b9:	31 c0                	xor    eax,eax
  40f8bb:	e8 10 18 ff ff       	call   4010d0 <__isoc99_sscanf@plt>
  40f8c0:	8b 44 24 04          	mov    eax,DWORD PTR [rsp+0x4]
  40f8c4:	89 05 96 78 b5 00    	mov    DWORD PTR [rip+0xb57896],eax        # f67160 <gamestate+0x28>
  40f8ca:	eb 28                	jmp    40f8f4 <_Z17input_causes_stopv+0x1d4>
  40f8cc:	41 83 c7 01          	add    r15d,0x1
  40f8d0:	44 89 3d 99 45 b5 00 	mov    DWORD PTR [rip+0xb54599],r15d        # f63e70 <buffered_count>
  40f8d7:	eb 1b                	jmp    40f8f4 <_Z17input_causes_stopv+0x1d4>
  40f8d9:	49 8d bc 24 87 be f3 	lea    rdi,[r12+0xf3be87]
  40f8e0:	00 
  40f8e1:	31 db                	xor    ebx,ebx
  40f8e3:	be dd 1c 41 00       	mov    esi,0x411cdd
  40f8e8:	ba 9c 3e f6 00       	mov    edx,0xf63e9c
  40f8ed:	31 c0                	xor    eax,eax
  40f8ef:	e8 dc 17 ff ff       	call   4010d0 <__isoc99_sscanf@plt>
  40f8f4:	89 d8                	mov    eax,ebx
  40f8f6:	48 83 c4 08          	add    rsp,0x8
  40f8fa:	5b                   	pop    rbx
  40f8fb:	41 5c                	pop    r12
  40f8fd:	41 5e                	pop    r14
  40f8ff:	41 5f                	pop    r15
  40f901:	c3                   	ret    
  40f902:	66 2e 0f 1f 84 00 00 	cs nop WORD PTR [rax+rax*1+0x0]
  40f909:	00 00 00 
  40f90c:	0f 1f 40 00          	nop    DWORD PTR [rax+0x0]

000000000040f910 <_Z9interruptv>:
  40f910:	31 c0                	xor    eax,eax
  40f912:	c3                   	ret    
  40f913:	66 2e 0f 1f 84 00 00 	cs nop WORD PTR [rax+rax*1+0x0]
  40f91a:	00 00 00 
  40f91d:	0f 1f 00             	nop    DWORD PTR [rax]

000000000040f920 <_Z11reset_boardP7state_t>:
  40f920:	c5 fc 28 05 f8 1e 00 	vmovaps ymm0,YMMWORD PTR [rip+0x1ef8]        # 411820 <_ZZ9init_gameP11gamestate_tP7state_tE10init_board+0x110>
  40f927:	00 
  40f928:	c5 fc 11 87 e4 00 00 	vmovups YMMWORD PTR [rdi+0xe4],ymm0
  40f92f:	00 
  40f930:	c5 fc 11 87 c4 00 00 	vmovups YMMWORD PTR [rdi+0xc4],ymm0
  40f937:	00 
  40f938:	c5 fc 11 87 a4 00 00 	vmovups YMMWORD PTR [rdi+0xa4],ymm0
  40f93f:	00 
  40f940:	c5 fc 11 87 84 00 00 	vmovups YMMWORD PTR [rdi+0x84],ymm0
  40f947:	00 
  40f948:	c5 fc 11 47 64       	vmovups YMMWORD PTR [rdi+0x64],ymm0
  40f94d:	c5 fc 11 47 44       	vmovups YMMWORD PTR [rdi+0x44],ymm0
  40f952:	c5 fc 11 47 24       	vmovups YMMWORD PTR [rdi+0x24],ymm0
  40f957:	c5 fc 11 47 04       	vmovups YMMWORD PTR [rdi+0x4],ymm0
  40f95c:	48 c7 87 88 01 00 00 	mov    QWORD PTR [rdi+0x188],0x0
  40f963:	00 00 00 00 
  40f967:	c7 87 dc 01 00 00 00 	mov    DWORD PTR [rdi+0x1dc],0x0
  40f96e:	00 00 00 
  40f971:	48 c7 87 c4 01 00 00 	mov    QWORD PTR [rdi+0x1c4],0x1e
  40f978:	1e 00 00 00 
  40f97c:	c7 07 00 00 00 00    	mov    DWORD PTR [rdi],0x0
  40f982:	c5 f8 77             	vzeroupper 
  40f985:	e9 26 ed ff ff       	jmp    40e6b0 <_Z18reset_piece_squareP7state_t>
  40f98a:	66 0f 1f 44 00 00    	nop    WORD PTR [rax+rax*1+0x0]

000000000040f990 <_Z15make_text_movesP11gamestate_tP7state_tPc>:
  40f990:	55                   	push   rbp
  40f991:	41 57                	push   r15
  40f993:	41 56                	push   r14
  40f995:	41 55                	push   r13
  40f997:	41 54                	push   r12
  40f999:	53                   	push   rbx
  40f99a:	48 81 ec 18 02 00 00 	sub    rsp,0x218
  40f9a1:	80 3a 00             	cmp    BYTE PTR [rdx],0x0
  40f9a4:	0f 84 e7 00 00 00    	je     40fa91 <_Z15make_text_movesP11gamestate_tP7state_tPc+0x101>
  40f9aa:	49 89 d6             	mov    r14,rdx
  40f9ad:	49 89 f7             	mov    r15,rsi
  40f9b0:	48 89 fb             	mov    rbx,rdi
  40f9b3:	48 8d 86 f0 01 00 00 	lea    rax,[rsi+0x1f0]
  40f9ba:	48 89 44 24 08       	mov    QWORD PTR [rsp+0x8],rax
  40f9bf:	4c 8d 64 24 10       	lea    r12,[rsp+0x10]
  40f9c4:	48 89 d5             	mov    rbp,rdx
  40f9c7:	45 31 ed             	xor    r13d,r13d
  40f9ca:	66 0f 1f 44 00 00    	nop    WORD PTR [rax+rax*1+0x0]
  40f9d0:	4c 89 f7             	mov    rdi,r14
  40f9d3:	c5 f8 77             	vzeroupper 
  40f9d6:	e8 a5 16 ff ff       	call   401080 <strlen@plt>
  40f9db:	41 39 c5             	cmp    r13d,eax
  40f9de:	0f 8d ad 00 00 00    	jge    40fa91 <_Z15make_text_movesP11gamestate_tP7state_tPc+0x101>
  40f9e4:	be 3f 1a 41 00       	mov    esi,0x411a3f
  40f9e9:	31 c0                	xor    eax,eax
  40f9eb:	48 89 ef             	mov    rdi,rbp
  40f9ee:	4c 89 e2             	mov    rdx,r12
  40f9f1:	e8 da 16 ff ff       	call   4010d0 <__isoc99_sscanf@plt>
  40f9f6:	4c 89 e7             	mov    rdi,r12
  40f9f9:	e8 82 16 ff ff       	call   401080 <strlen@plt>
  40f9fe:	48 89 c5             	mov    rbp,rax
  40fa01:	4c 89 ff             	mov    rdi,r15
  40fa04:	4c 89 e6             	mov    rsi,r12
  40fa07:	48 8d 54 24 04       	lea    rdx,[rsp+0x4]
  40fa0c:	e8 3f fc ff ff       	call   40f650 <_Z12verify_coordP7state_tPcPi>
  40fa11:	85 c0                	test   eax,eax
  40fa13:	74 6b                	je     40fa80 <_Z15make_text_movesP11gamestate_tP7state_tPc+0xf0>
  40fa15:	45 8d 6c 2d 01       	lea    r13d,[r13+rbp*1+0x1]
  40fa1a:	49 8b 87 e0 01 00 00 	mov    rax,QWORD PTR [r15+0x1e0]
  40fa21:	48 63 4b 3c          	movsxd rcx,DWORD PTR [rbx+0x3c]
  40fa25:	49 89 84 cf 30 11 00 	mov    QWORD PTR [r15+rcx*8+0x1130],rax
  40fa2c:	00 
  40fa2d:	8b 74 24 04          	mov    esi,DWORD PTR [rsp+0x4]
  40fa31:	89 74 8b 40          	mov    DWORD PTR [rbx+rcx*4+0x40],esi
  40fa35:	4c 89 ff             	mov    rdi,r15
  40fa38:	e8 73 65 ff ff       	call   405fb0 <_Z4makeP7state_ti>
  40fa3d:	48 63 43 3c          	movsxd rax,DWORD PTR [rbx+0x3c]
  40fa41:	8d 48 01             	lea    ecx,[rax+0x1]
  40fa44:	89 4b 3c             	mov    DWORD PTR [rbx+0x3c],ecx
  40fa47:	48 c1 e0 05          	shl    rax,0x5
  40fa4b:	48 8b 4c 24 08       	mov    rcx,QWORD PTR [rsp+0x8]
  40fa50:	c5 fc 10 01          	vmovups ymm0,YMMWORD PTR [rcx]
  40fa54:	c5 fc 11 84 03 e0 0f 	vmovups YMMWORD PTR [rbx+rax*1+0xfe0],ymm0
  40fa5b:	00 00 
  40fa5d:	41 c7 87 d8 01 00 00 	mov    DWORD PTR [r15+0x1d8],0x0
  40fa64:	00 00 00 00 
  40fa68:	80 73 08 01          	xor    BYTE PTR [rbx+0x8],0x1
  40fa6c:	49 63 c5             	movsxd rax,r13d
  40fa6f:	49 8d 2c 06          	lea    rbp,[r14+rax*1]
  40fa73:	41 80 3c 06 00       	cmp    BYTE PTR [r14+rax*1],0x0
  40fa78:	0f 85 52 ff ff ff    	jne    40f9d0 <_Z15make_text_movesP11gamestate_tP7state_tPc+0x40>
  40fa7e:	eb 11                	jmp    40fa91 <_Z15make_text_movesP11gamestate_tP7state_tPc+0x101>
  40fa80:	48 8d 74 24 10       	lea    rsi,[rsp+0x10]
  40fa85:	bf e6 1c 41 00       	mov    edi,0x411ce6
  40fa8a:	31 c0                	xor    eax,eax
  40fa8c:	e8 3f ea ff ff       	call   40e4d0 <_Z8myprintfPKcz>
  40fa91:	48 81 c4 18 02 00 00 	add    rsp,0x218
  40fa98:	5b                   	pop    rbx
  40fa99:	41 5c                	pop    r12
  40fa9b:	41 5d                	pop    r13
  40fa9d:	41 5e                	pop    r14
  40fa9f:	41 5f                	pop    r15
  40faa1:	5d                   	pop    rbp
  40faa2:	c5 f8 77             	vzeroupper 
  40faa5:	c3                   	ret    
  40faa6:	66 2e 0f 1f 84 00 00 	cs nop WORD PTR [rax+rax*1+0x0]
  40faad:	00 00 00 

000000000040fab0 <_Z8myrandomv>:
  40fab0:	8b 0d 2a 8b b9 00    	mov    ecx,DWORD PTR [rip+0xb98b2a]        # fa85e0 <_ZL2s1>
  40fab6:	89 c8                	mov    eax,ecx
  40fab8:	c1 e0 0d             	shl    eax,0xd
  40fabb:	31 c8                	xor    eax,ecx
  40fabd:	c1 e8 13             	shr    eax,0x13
  40fac0:	83 e1 fe             	and    ecx,0xfffffffe
  40fac3:	c1 e1 0c             	shl    ecx,0xc
  40fac6:	09 c1                	or     ecx,eax
  40fac8:	89 0d 12 8b b9 00    	mov    DWORD PTR [rip+0xb98b12],ecx        # fa85e0 <_ZL2s1>
  40face:	8b 05 10 8b b9 00    	mov    eax,DWORD PTR [rip+0xb98b10]        # fa85e4 <_ZL2s2>
  40fad4:	8d 14 85 00 00 00 00 	lea    edx,[rax*4+0x0]
  40fadb:	31 c2                	xor    edx,eax
  40fadd:	c1 ea 19             	shr    edx,0x19
  40fae0:	c1 e0 04             	shl    eax,0x4
  40fae3:	83 e0 80             	and    eax,0xffffff80
  40fae6:	09 d0                	or     eax,edx
  40fae8:	89 05 f6 8a b9 00    	mov    DWORD PTR [rip+0xb98af6],eax        # fa85e4 <_ZL2s2>
  40faee:	8b 15 f4 8a b9 00    	mov    edx,DWORD PTR [rip+0xb98af4]        # fa85e8 <_ZL2s3>
  40faf4:	8d 34 d5 00 00 00 00 	lea    esi,[rdx*8+0x0]
  40fafb:	31 d6                	xor    esi,edx
  40fafd:	c1 ee 0b             	shr    esi,0xb
  40fb00:	83 e2 f0             	and    edx,0xfffffff0
  40fb03:	c1 e2 11             	shl    edx,0x11
  40fb06:	09 f2                	or     edx,esi
  40fb08:	89 15 da 8a b9 00    	mov    DWORD PTR [rip+0xb98ada],edx        # fa85e8 <_ZL2s3>
  40fb0e:	31 c8                	xor    eax,ecx
  40fb10:	31 d0                	xor    eax,edx
  40fb12:	c3                   	ret    
  40fb13:	66 2e 0f 1f 84 00 00 	cs nop WORD PTR [rax+rax*1+0x0]
  40fb1a:	00 00 00 
  40fb1d:	0f 1f 00             	nop    DWORD PTR [rax]

000000000040fb20 <_Z7mysrandj>:
  40fb20:	69 c7 ed 57 2c 2c    	imul   eax,edi,0x2c2c57ed
  40fb26:	85 ff                	test   edi,edi
  40fb28:	b9 ed 57 2c 2c       	mov    ecx,0x2c2c57ed
  40fb2d:	0f 45 c8             	cmovne ecx,eax
  40fb30:	69 c1 ed 57 2c 2c    	imul   eax,ecx,0x2c2c57ed
  40fb36:	69 d1 69 f1 aa cf    	imul   edx,ecx,0xcfaaf169
  40fb3c:	83 c9 02             	or     ecx,0x2
  40fb3f:	89 0d 9b 8a b9 00    	mov    DWORD PTR [rip+0xb98a9b],ecx        # fa85e0 <_ZL2s1>
  40fb45:	83 c8 08             	or     eax,0x8
  40fb48:	89 05 96 8a b9 00    	mov    DWORD PTR [rip+0xb98a96],eax        # fa85e4 <_ZL2s2>
  40fb4e:	83 ca 10             	or     edx,0x10
  40fb51:	89 15 91 8a b9 00    	mov    DWORD PTR [rip+0xb98a91],edx        # fa85e8 <_ZL2s3>
  40fb57:	c3                   	ret    
  40fb58:	0f 1f 84 00 00 00 00 	nop    DWORD PTR [rax+rax*1+0x0]
  40fb5f:	00 

000000000040fb60 <__libc_csu_init>:
  40fb60:	f3 0f 1e fa          	endbr64 
  40fb64:	41 57                	push   r15
  40fb66:	4c 8d 3d 63 52 00 00 	lea    r15,[rip+0x5263]        # 414dd0 <__frame_dummy_init_array_entry>
  40fb6d:	41 56                	push   r14
  40fb6f:	49 89 d6             	mov    r14,rdx
  40fb72:	41 55                	push   r13
  40fb74:	49 89 f5             	mov    r13,rsi
  40fb77:	41 54                	push   r12
  40fb79:	41 89 fc             	mov    r12d,edi
  40fb7c:	55                   	push   rbp
  40fb7d:	48 8d 2d 54 52 00 00 	lea    rbp,[rip+0x5254]        # 414dd8 <__do_global_dtors_aux_fini_array_entry>
  40fb84:	53                   	push   rbx
  40fb85:	4c 29 fd             	sub    rbp,r15
  40fb88:	48 83 ec 08          	sub    rsp,0x8
  40fb8c:	e8 6f 14 ff ff       	call   401000 <_init>
  40fb91:	48 c1 fd 03          	sar    rbp,0x3
  40fb95:	74 1f                	je     40fbb6 <__libc_csu_init+0x56>
  40fb97:	31 db                	xor    ebx,ebx
  40fb99:	0f 1f 80 00 00 00 00 	nop    DWORD PTR [rax+0x0]
  40fba0:	4c 89 f2             	mov    rdx,r14
  40fba3:	4c 89 ee             	mov    rsi,r13
  40fba6:	44 89 e7             	mov    edi,r12d
  40fba9:	41 ff 14 df          	call   QWORD PTR [r15+rbx*8]
  40fbad:	48 83 c3 01          	add    rbx,0x1
  40fbb1:	48 39 dd             	cmp    rbp,rbx
  40fbb4:	75 ea                	jne    40fba0 <__libc_csu_init+0x40>
  40fbb6:	48 83 c4 08          	add    rsp,0x8
  40fbba:	5b                   	pop    rbx
  40fbbb:	5d                   	pop    rbp
  40fbbc:	41 5c                	pop    r12
  40fbbe:	41 5d                	pop    r13
  40fbc0:	41 5e                	pop    r14
  40fbc2:	41 5f                	pop    r15
  40fbc4:	c3                   	ret    
  40fbc5:	66 66 2e 0f 1f 84 00 	data16 cs nop WORD PTR [rax+rax*1+0x0]
  40fbcc:	00 00 00 00 

000000000040fbd0 <__libc_csu_fini>:
  40fbd0:	f3 0f 1e fa          	endbr64 
  40fbd4:	c3                   	ret    

Disassembly of section .fini:

000000000040fbd8 <_fini>:
  40fbd8:	f3 0f 1e fa          	endbr64 
  40fbdc:	48 83 ec 08          	sub    rsp,0x8
  40fbe0:	48 83 c4 08          	add    rsp,0x8
  40fbe4:	c3                   	ret    
