Disassembly of section .init:

0000000000001000 <.init>:
    1000:	f3 0f 1e fa          	endbr64 
    1004:	48 83 ec 08          	sub    rsp,0x8
    1008:	48 8b 05 d9 9f 00 00 	mov    rax,QWORD PTR [rip+0x9fd9]        # afe8 <fwrite@plt+0x9d38>
    100f:	48 85 c0             	test   rax,rax
    1012:	74 02                	je     1016 <__cxa_finalize@plt-0x15a>
    1014:	ff d0                	call   rax
    1016:	48 83 c4 08          	add    rsp,0x8
    101a:	c3                   	ret    

Disassembly of section .plt:

0000000000001020 <.plt>:
    1020:	ff 35 02 9f 00 00    	push   QWORD PTR [rip+0x9f02]        # af28 <fwrite@plt+0x9c78>
    1026:	f2 ff 25 03 9f 00 00 	bnd jmp QWORD PTR [rip+0x9f03]        # af30 <fwrite@plt+0x9c80>
    102d:	0f 1f 00             	nop    DWORD PTR [rax]
    1030:	f3 0f 1e fa          	endbr64 
    1034:	68 00 00 00 00       	push   0x0
    1039:	f2 e9 e1 ff ff ff    	bnd jmp 1020 <__cxa_finalize@plt-0x150>
    103f:	90                   	nop
    1040:	f3 0f 1e fa          	endbr64 
    1044:	68 01 00 00 00       	push   0x1
    1049:	f2 e9 d1 ff ff ff    	bnd jmp 1020 <__cxa_finalize@plt-0x150>
    104f:	90                   	nop
    1050:	f3 0f 1e fa          	endbr64 
    1054:	68 02 00 00 00       	push   0x2
    1059:	f2 e9 c1 ff ff ff    	bnd jmp 1020 <__cxa_finalize@plt-0x150>
    105f:	90                   	nop
    1060:	f3 0f 1e fa          	endbr64 
    1064:	68 03 00 00 00       	push   0x3
    1069:	f2 e9 b1 ff ff ff    	bnd jmp 1020 <__cxa_finalize@plt-0x150>
    106f:	90                   	nop
    1070:	f3 0f 1e fa          	endbr64 
    1074:	68 04 00 00 00       	push   0x4
    1079:	f2 e9 a1 ff ff ff    	bnd jmp 1020 <__cxa_finalize@plt-0x150>
    107f:	90                   	nop
    1080:	f3 0f 1e fa          	endbr64 
    1084:	68 05 00 00 00       	push   0x5
    1089:	f2 e9 91 ff ff ff    	bnd jmp 1020 <__cxa_finalize@plt-0x150>
    108f:	90                   	nop
    1090:	f3 0f 1e fa          	endbr64 
    1094:	68 06 00 00 00       	push   0x6
    1099:	f2 e9 81 ff ff ff    	bnd jmp 1020 <__cxa_finalize@plt-0x150>
    109f:	90                   	nop
    10a0:	f3 0f 1e fa          	endbr64 
    10a4:	68 07 00 00 00       	push   0x7
    10a9:	f2 e9 71 ff ff ff    	bnd jmp 1020 <__cxa_finalize@plt-0x150>
    10af:	90                   	nop
    10b0:	f3 0f 1e fa          	endbr64 
    10b4:	68 08 00 00 00       	push   0x8
    10b9:	f2 e9 61 ff ff ff    	bnd jmp 1020 <__cxa_finalize@plt-0x150>
    10bf:	90                   	nop
    10c0:	f3 0f 1e fa          	endbr64 
    10c4:	68 09 00 00 00       	push   0x9
    10c9:	f2 e9 51 ff ff ff    	bnd jmp 1020 <__cxa_finalize@plt-0x150>
    10cf:	90                   	nop
    10d0:	f3 0f 1e fa          	endbr64 
    10d4:	68 0a 00 00 00       	push   0xa
    10d9:	f2 e9 41 ff ff ff    	bnd jmp 1020 <__cxa_finalize@plt-0x150>
    10df:	90                   	nop
    10e0:	f3 0f 1e fa          	endbr64 
    10e4:	68 0b 00 00 00       	push   0xb
    10e9:	f2 e9 31 ff ff ff    	bnd jmp 1020 <__cxa_finalize@plt-0x150>
    10ef:	90                   	nop
    10f0:	f3 0f 1e fa          	endbr64 
    10f4:	68 0c 00 00 00       	push   0xc
    10f9:	f2 e9 21 ff ff ff    	bnd jmp 1020 <__cxa_finalize@plt-0x150>
    10ff:	90                   	nop
    1100:	f3 0f 1e fa          	endbr64 
    1104:	68 0d 00 00 00       	push   0xd
    1109:	f2 e9 11 ff ff ff    	bnd jmp 1020 <__cxa_finalize@plt-0x150>
    110f:	90                   	nop
    1110:	f3 0f 1e fa          	endbr64 
    1114:	68 0e 00 00 00       	push   0xe
    1119:	f2 e9 01 ff ff ff    	bnd jmp 1020 <__cxa_finalize@plt-0x150>
    111f:	90                   	nop
    1120:	f3 0f 1e fa          	endbr64 
    1124:	68 0f 00 00 00       	push   0xf
    1129:	f2 e9 f1 fe ff ff    	bnd jmp 1020 <__cxa_finalize@plt-0x150>
    112f:	90                   	nop
    1130:	f3 0f 1e fa          	endbr64 
    1134:	68 10 00 00 00       	push   0x10
    1139:	f2 e9 e1 fe ff ff    	bnd jmp 1020 <__cxa_finalize@plt-0x150>
    113f:	90                   	nop
    1140:	f3 0f 1e fa          	endbr64 
    1144:	68 11 00 00 00       	push   0x11
    1149:	f2 e9 d1 fe ff ff    	bnd jmp 1020 <__cxa_finalize@plt-0x150>
    114f:	90                   	nop
    1150:	f3 0f 1e fa          	endbr64 
    1154:	68 12 00 00 00       	push   0x12
    1159:	f2 e9 c1 fe ff ff    	bnd jmp 1020 <__cxa_finalize@plt-0x150>
    115f:	90                   	nop
    1160:	f3 0f 1e fa          	endbr64 
    1164:	68 13 00 00 00       	push   0x13
    1169:	f2 e9 b1 fe ff ff    	bnd jmp 1020 <__cxa_finalize@plt-0x150>
    116f:	90                   	nop

Disassembly of section .plt.got:

0000000000001170 <__cxa_finalize@plt>:
    1170:	f3 0f 1e fa          	endbr64 
    1174:	f2 ff 25 7d 9e 00 00 	bnd jmp QWORD PTR [rip+0x9e7d]        # aff8 <fwrite@plt+0x9d48>
    117b:	0f 1f 44 00 00       	nop    DWORD PTR [rax+rax*1+0x0]

Disassembly of section .plt.sec:

0000000000001180 <free@plt>:
    1180:	f3 0f 1e fa          	endbr64 
    1184:	f2 ff 25 ad 9d 00 00 	bnd jmp QWORD PTR [rip+0x9dad]        # af38 <fwrite@plt+0x9c88>
    118b:	0f 1f 44 00 00       	nop    DWORD PTR [rax+rax*1+0x0]

0000000000001190 <putchar@plt>:
    1190:	f3 0f 1e fa          	endbr64 
    1194:	f2 ff 25 a5 9d 00 00 	bnd jmp QWORD PTR [rip+0x9da5]        # af40 <fwrite@plt+0x9c90>
    119b:	0f 1f 44 00 00       	nop    DWORD PTR [rax+rax*1+0x0]

00000000000011a0 <strcpy@plt>:
    11a0:	f3 0f 1e fa          	endbr64 
    11a4:	f2 ff 25 9d 9d 00 00 	bnd jmp QWORD PTR [rip+0x9d9d]        # af48 <fwrite@plt+0x9c98>
    11ab:	0f 1f 44 00 00       	nop    DWORD PTR [rax+rax*1+0x0]

00000000000011b0 <puts@plt>:
    11b0:	f3 0f 1e fa          	endbr64 
    11b4:	f2 ff 25 95 9d 00 00 	bnd jmp QWORD PTR [rip+0x9d95]        # af50 <fwrite@plt+0x9ca0>
    11bb:	0f 1f 44 00 00       	nop    DWORD PTR [rax+rax*1+0x0]

00000000000011c0 <fclose@plt>:
    11c0:	f3 0f 1e fa          	endbr64 
    11c4:	f2 ff 25 8d 9d 00 00 	bnd jmp QWORD PTR [rip+0x9d8d]        # af58 <fwrite@plt+0x9ca8>
    11cb:	0f 1f 44 00 00       	nop    DWORD PTR [rax+rax*1+0x0]

00000000000011d0 <__stack_chk_fail@plt>:
    11d0:	f3 0f 1e fa          	endbr64 
    11d4:	f2 ff 25 85 9d 00 00 	bnd jmp QWORD PTR [rip+0x9d85]        # af60 <fwrite@plt+0x9cb0>
    11db:	0f 1f 44 00 00       	nop    DWORD PTR [rax+rax*1+0x0]

00000000000011e0 <printf@plt>:
    11e0:	f3 0f 1e fa          	endbr64 
    11e4:	f2 ff 25 7d 9d 00 00 	bnd jmp QWORD PTR [rip+0x9d7d]        # af68 <fwrite@plt+0x9cb8>
    11eb:	0f 1f 44 00 00       	nop    DWORD PTR [rax+rax*1+0x0]

00000000000011f0 <memset@plt>:
    11f0:	f3 0f 1e fa          	endbr64 
    11f4:	f2 ff 25 75 9d 00 00 	bnd jmp QWORD PTR [rip+0x9d75]        # af70 <fwrite@plt+0x9cc0>
    11fb:	0f 1f 44 00 00       	nop    DWORD PTR [rax+rax*1+0x0]

0000000000001200 <fgets@plt>:
    1200:	f3 0f 1e fa          	endbr64 
    1204:	f2 ff 25 6d 9d 00 00 	bnd jmp QWORD PTR [rip+0x9d6d]        # af78 <fwrite@plt+0x9cc8>
    120b:	0f 1f 44 00 00       	nop    DWORD PTR [rax+rax*1+0x0]

0000000000001210 <calloc@plt>:
    1210:	f3 0f 1e fa          	endbr64 
    1214:	f2 ff 25 65 9d 00 00 	bnd jmp QWORD PTR [rip+0x9d65]        # af80 <fwrite@plt+0x9cd0>
    121b:	0f 1f 44 00 00       	nop    DWORD PTR [rax+rax*1+0x0]

0000000000001220 <fprintf@plt>:
    1220:	f3 0f 1e fa          	endbr64 
    1224:	f2 ff 25 5d 9d 00 00 	bnd jmp QWORD PTR [rip+0x9d5d]        # af88 <fwrite@plt+0x9cd8>
    122b:	0f 1f 44 00 00       	nop    DWORD PTR [rax+rax*1+0x0]

0000000000001230 <malloc@plt>:
    1230:	f3 0f 1e fa          	endbr64 
    1234:	f2 ff 25 55 9d 00 00 	bnd jmp QWORD PTR [rip+0x9d55]        # af90 <fwrite@plt+0x9ce0>
    123b:	0f 1f 44 00 00       	nop    DWORD PTR [rax+rax*1+0x0]

0000000000001240 <fflush@plt>:
    1240:	f3 0f 1e fa          	endbr64 
    1244:	f2 ff 25 4d 9d 00 00 	bnd jmp QWORD PTR [rip+0x9d4d]        # af98 <fwrite@plt+0x9ce8>
    124b:	0f 1f 44 00 00       	nop    DWORD PTR [rax+rax*1+0x0]

0000000000001250 <__isoc99_sscanf@plt>:
    1250:	f3 0f 1e fa          	endbr64 
    1254:	f2 ff 25 45 9d 00 00 	bnd jmp QWORD PTR [rip+0x9d45]        # afa0 <fwrite@plt+0x9cf0>
    125b:	0f 1f 44 00 00       	nop    DWORD PTR [rax+rax*1+0x0]

0000000000001260 <realloc@plt>:
    1260:	f3 0f 1e fa          	endbr64 
    1264:	f2 ff 25 3d 9d 00 00 	bnd jmp QWORD PTR [rip+0x9d3d]        # afa8 <fwrite@plt+0x9cf8>
    126b:	0f 1f 44 00 00       	nop    DWORD PTR [rax+rax*1+0x0]

0000000000001270 <fopen@plt>:
    1270:	f3 0f 1e fa          	endbr64 
    1274:	f2 ff 25 35 9d 00 00 	bnd jmp QWORD PTR [rip+0x9d35]        # afb0 <fwrite@plt+0x9d00>
    127b:	0f 1f 44 00 00       	nop    DWORD PTR [rax+rax*1+0x0]

0000000000001280 <atoi@plt>:
    1280:	f3 0f 1e fa          	endbr64 
    1284:	f2 ff 25 2d 9d 00 00 	bnd jmp QWORD PTR [rip+0x9d2d]        # afb8 <fwrite@plt+0x9d08>
    128b:	0f 1f 44 00 00       	nop    DWORD PTR [rax+rax*1+0x0]

0000000000001290 <sprintf@plt>:
    1290:	f3 0f 1e fa          	endbr64 
    1294:	f2 ff 25 25 9d 00 00 	bnd jmp QWORD PTR [rip+0x9d25]        # afc0 <fwrite@plt+0x9d10>
    129b:	0f 1f 44 00 00       	nop    DWORD PTR [rax+rax*1+0x0]

00000000000012a0 <exit@plt>:
    12a0:	f3 0f 1e fa          	endbr64 
    12a4:	f2 ff 25 1d 9d 00 00 	bnd jmp QWORD PTR [rip+0x9d1d]        # afc8 <fwrite@plt+0x9d18>
    12ab:	0f 1f 44 00 00       	nop    DWORD PTR [rax+rax*1+0x0]

00000000000012b0 <fwrite@plt>:
    12b0:	f3 0f 1e fa          	endbr64 
    12b4:	f2 ff 25 15 9d 00 00 	bnd jmp QWORD PTR [rip+0x9d15]        # afd0 <fwrite@plt+0x9d20>
    12bb:	0f 1f 44 00 00       	nop    DWORD PTR [rax+rax*1+0x0]

Disassembly of section .text:

00000000000012c0 <.text>:
    12c0:	f3 0f 1e fa          	endbr64 
    12c4:	31 ed                	xor    ebp,ebp
    12c6:	49 89 d1             	mov    r9,rdx
    12c9:	5e                   	pop    rsi
    12ca:	48 89 e2             	mov    rdx,rsp
    12cd:	48 83 e4 f0          	and    rsp,0xfffffffffffffff0
    12d1:	50                   	push   rax
    12d2:	54                   	push   rsp
    12d3:	4c 8d 05 b6 6e 00 00 	lea    r8,[rip+0x6eb6]        # 8190 <fwrite@plt+0x6ee0>
    12da:	48 8d 0d 3f 6e 00 00 	lea    rcx,[rip+0x6e3f]        # 8120 <fwrite@plt+0x6e70>
    12e1:	48 8d 3d 5e 02 00 00 	lea    rdi,[rip+0x25e]        # 1546 <fwrite@plt+0x296>
    12e8:	ff 15 f2 9c 00 00    	call   QWORD PTR [rip+0x9cf2]        # afe0 <fwrite@plt+0x9d30>
    12ee:	f4                   	hlt    
    12ef:	90                   	nop
    12f0:	48 8d 3d 19 9d 00 00 	lea    rdi,[rip+0x9d19]        # b010 <fwrite@plt+0x9d60>
    12f7:	48 8d 05 12 9d 00 00 	lea    rax,[rip+0x9d12]        # b010 <fwrite@plt+0x9d60>
    12fe:	48 39 f8             	cmp    rax,rdi
    1301:	74 15                	je     1318 <fwrite@plt+0x68>
    1303:	48 8b 05 ce 9c 00 00 	mov    rax,QWORD PTR [rip+0x9cce]        # afd8 <fwrite@plt+0x9d28>
    130a:	48 85 c0             	test   rax,rax
    130d:	74 09                	je     1318 <fwrite@plt+0x68>
    130f:	ff e0                	jmp    rax
    1311:	0f 1f 80 00 00 00 00 	nop    DWORD PTR [rax+0x0]
    1318:	c3                   	ret    
    1319:	0f 1f 80 00 00 00 00 	nop    DWORD PTR [rax+0x0]
    1320:	48 8d 3d e9 9c 00 00 	lea    rdi,[rip+0x9ce9]        # b010 <fwrite@plt+0x9d60>
    1327:	48 8d 35 e2 9c 00 00 	lea    rsi,[rip+0x9ce2]        # b010 <fwrite@plt+0x9d60>
    132e:	48 29 fe             	sub    rsi,rdi
    1331:	48 89 f0             	mov    rax,rsi
    1334:	48 c1 ee 3f          	shr    rsi,0x3f
    1338:	48 c1 f8 03          	sar    rax,0x3
    133c:	48 01 c6             	add    rsi,rax
    133f:	48 d1 fe             	sar    rsi,1
    1342:	74 14                	je     1358 <fwrite@plt+0xa8>
    1344:	48 8b 05 a5 9c 00 00 	mov    rax,QWORD PTR [rip+0x9ca5]        # aff0 <fwrite@plt+0x9d40>
    134b:	48 85 c0             	test   rax,rax
    134e:	74 08                	je     1358 <fwrite@plt+0xa8>
    1350:	ff e0                	jmp    rax
    1352:	66 0f 1f 44 00 00    	nop    WORD PTR [rax+rax*1+0x0]
    1358:	c3                   	ret    
    1359:	0f 1f 80 00 00 00 00 	nop    DWORD PTR [rax+0x0]
    1360:	f3 0f 1e fa          	endbr64 
    1364:	80 3d dd 9c 00 00 00 	cmp    BYTE PTR [rip+0x9cdd],0x0        # b048 <stderr@@GLIBC_2.2.5+0x8>
    136b:	75 2b                	jne    1398 <fwrite@plt+0xe8>
    136d:	55                   	push   rbp
    136e:	48 83 3d 82 9c 00 00 	cmp    QWORD PTR [rip+0x9c82],0x0        # aff8 <fwrite@plt+0x9d48>
    1375:	00 
    1376:	48 89 e5             	mov    rbp,rsp
    1379:	74 0c                	je     1387 <fwrite@plt+0xd7>
    137b:	48 8b 3d 86 9c 00 00 	mov    rdi,QWORD PTR [rip+0x9c86]        # b008 <fwrite@plt+0x9d58>
    1382:	e8 e9 fd ff ff       	call   1170 <__cxa_finalize@plt>
    1387:	e8 64 ff ff ff       	call   12f0 <fwrite@plt+0x40>
    138c:	c6 05 b5 9c 00 00 01 	mov    BYTE PTR [rip+0x9cb5],0x1        # b048 <stderr@@GLIBC_2.2.5+0x8>
    1393:	5d                   	pop    rbp
    1394:	c3                   	ret    
    1395:	0f 1f 00             	nop    DWORD PTR [rax]
    1398:	c3                   	ret    
    1399:	0f 1f 80 00 00 00 00 	nop    DWORD PTR [rax+0x0]
    13a0:	f3 0f 1e fa          	endbr64 
    13a4:	e9 77 ff ff ff       	jmp    1320 <fwrite@plt+0x70>
    13a9:	f3 0f 1e fa          	endbr64 
    13ad:	55                   	push   rbp
    13ae:	48 89 e5             	mov    rbp,rsp
    13b1:	48 83 ec 10          	sub    rsp,0x10
    13b5:	48 c7 45 f8 01 00 00 	mov    QWORD PTR [rbp-0x8],0x1
    13bc:	00 
    13bd:	48 c7 45 f0 ff ff ff 	mov    QWORD PTR [rbp-0x10],0xffffffffffffffff
    13c4:	ff 
    13c5:	e9 35 01 00 00       	jmp    14ff <fwrite@plt+0x24f>
    13ca:	48 8b 05 77 9e 00 00 	mov    rax,QWORD PTR [rip+0x9e77]        # b248 <stderr@@GLIBC_2.2.5+0x208>
    13d1:	48 89 c6             	mov    rsi,rax
    13d4:	48 8d 3d 2d 7c 00 00 	lea    rdi,[rip+0x7c2d]        # 9008 <fwrite@plt+0x7d58>
    13db:	b8 00 00 00 00       	mov    eax,0x0
    13e0:	e8 fb fd ff ff       	call   11e0 <printf@plt>
    13e5:	48 8d 3d b4 9c 00 00 	lea    rdi,[rip+0x9cb4]        # b0a0 <stderr@@GLIBC_2.2.5+0x60>
    13ec:	e8 17 5a 00 00       	call   6e08 <fwrite@plt+0x5b58>
    13f1:	48 8b 05 08 9f 00 00 	mov    rax,QWORD PTR [rip+0x9f08]        # b300 <stderr@@GLIBC_2.2.5+0x2c0>
    13f8:	48 89 c6             	mov    rsi,rax
    13fb:	48 8d 3d 2e 7c 00 00 	lea    rdi,[rip+0x7c2e]        # 9030 <fwrite@plt+0x7d80>
    1402:	b8 00 00 00 00       	mov    eax,0x0
    1407:	e8 d4 fd ff ff       	call   11e0 <printf@plt>
    140c:	48 8d 3d 8d 9c 00 00 	lea    rdi,[rip+0x9c8d]        # b0a0 <stderr@@GLIBC_2.2.5+0x60>
    1413:	e8 02 04 00 00       	call   181a <fwrite@plt+0x56a>
    1418:	48 8d 3d 39 7c 00 00 	lea    rdi,[rip+0x7c39]        # 9058 <fwrite@plt+0x7da8>
    141f:	b8 01 00 00 00       	mov    eax,0x1
    1424:	e8 b7 fd ff ff       	call   11e0 <printf@plt>
    1429:	48 8b 05 28 9e 00 00 	mov    rax,QWORD PTR [rip+0x9e28]        # b258 <stderr@@GLIBC_2.2.5+0x218>
    1430:	48 85 c0             	test   rax,rax
    1433:	74 5a                	je     148f <fwrite@plt+0x1df>
    1435:	ba 00 00 00 00       	mov    edx,0x0
    143a:	48 c7 c6 ff ff ff ff 	mov    rsi,0xffffffffffffffff
    1441:	48 8d 3d 58 9c 00 00 	lea    rdi,[rip+0x9c58]        # b0a0 <stderr@@GLIBC_2.2.5+0x60>
    1448:	e8 6c 3f 00 00       	call   53b9 <fwrite@plt+0x4109>
    144d:	48 89 45 f0          	mov    QWORD PTR [rbp-0x10],rax
    1451:	48 83 7d f0 00       	cmp    QWORD PTR [rbp-0x10],0x0
    1456:	79 16                	jns    146e <fwrite@plt+0x1be>
    1458:	48 8d 3d 1d 7c 00 00 	lea    rdi,[rip+0x7c1d]        # 907c <fwrite@plt+0x7dcc>
    145f:	e8 4c fd ff ff       	call   11b0 <puts@plt>
    1464:	bf ff ff ff ff       	mov    edi,0xffffffff
    1469:	e8 32 fe ff ff       	call   12a0 <exit@plt>
    146e:	48 83 7d f0 00       	cmp    QWORD PTR [rbp-0x10],0x0
    1473:	74 3a                	je     14af <fwrite@plt+0x1ff>
    1475:	48 8b 45 f0          	mov    rax,QWORD PTR [rbp-0x10]
    1479:	48 89 c6             	mov    rsi,rax
    147c:	48 8d 3d 15 7c 00 00 	lea    rdi,[rip+0x7c15]        # 9098 <fwrite@plt+0x7de8>
    1483:	b8 00 00 00 00       	mov    eax,0x0
    1488:	e8 53 fd ff ff       	call   11e0 <printf@plt>
    148d:	eb 20                	jmp    14af <fwrite@plt+0x1ff>
    148f:	48 8b 05 b2 9d 00 00 	mov    rax,QWORD PTR [rip+0x9db2]        # b248 <stderr@@GLIBC_2.2.5+0x208>
    1496:	48 89 c2             	mov    rdx,rax
    1499:	48 8d 05 fc 06 00 00 	lea    rax,[rip+0x6fc]        # 1b9c <fwrite@plt+0x8ec>
    14a0:	48 89 c6             	mov    rsi,rax
    14a3:	48 8d 3d f6 9b 00 00 	lea    rdi,[rip+0x9bf6]        # b0a0 <stderr@@GLIBC_2.2.5+0x60>
    14aa:	e8 5e 1e 00 00       	call   330d <fwrite@plt+0x205d>
    14af:	48 8d 3d ea 9b 00 00 	lea    rdi,[rip+0x9bea]        # b0a0 <stderr@@GLIBC_2.2.5+0x60>
    14b6:	e8 f4 30 00 00       	call   45af <fwrite@plt+0x32ff>
    14bb:	48 89 45 f0          	mov    QWORD PTR [rbp-0x10],rax
    14bf:	48 83 7d f0 00       	cmp    QWORD PTR [rbp-0x10],0x0
    14c4:	74 18                	je     14de <fwrite@plt+0x22e>
    14c6:	48 8b 45 f0          	mov    rax,QWORD PTR [rbp-0x10]
    14ca:	48 89 c6             	mov    rsi,rax
    14cd:	48 8d 3d ec 7b 00 00 	lea    rdi,[rip+0x7bec]        # 90c0 <fwrite@plt+0x7e10>
    14d4:	b8 00 00 00 00       	mov    eax,0x0
    14d9:	e8 02 fd ff ff       	call   11e0 <printf@plt>
    14de:	48 83 7d f0 00       	cmp    QWORD PTR [rbp-0x10],0x0
    14e3:	79 16                	jns    14fb <fwrite@plt+0x24b>
    14e5:	48 8d 3d 90 7b 00 00 	lea    rdi,[rip+0x7b90]        # 907c <fwrite@plt+0x7dcc>
    14ec:	e8 bf fc ff ff       	call   11b0 <puts@plt>
    14f1:	bf ff ff ff ff       	mov    edi,0xffffffff
    14f6:	e8 a5 fd ff ff       	call   12a0 <exit@plt>
    14fb:	48 ff 45 f8          	inc    QWORD PTR [rbp-0x8]
    14ff:	48 83 7d f0 00       	cmp    QWORD PTR [rbp-0x10],0x0
    1504:	0f 85 c0 fe ff ff    	jne    13ca <fwrite@plt+0x11a>
    150a:	48 8d 3d 8f 9b 00 00 	lea    rdi,[rip+0x9b8f]        # b0a0 <stderr@@GLIBC_2.2.5+0x60>
    1511:	e8 04 03 00 00       	call   181a <fwrite@plt+0x56a>
    1516:	c4 e1 f9 7e c0       	vmovq  rax,xmm0
    151b:	48 89 05 96 9d 00 00 	mov    QWORD PTR [rip+0x9d96],rax        # b2b8 <stderr@@GLIBC_2.2.5+0x278>
    1522:	48 8b 05 8f 9d 00 00 	mov    rax,QWORD PTR [rip+0x9d8f]        # b2b8 <stderr@@GLIBC_2.2.5+0x278>
    1529:	c4 e1 f9 6e c0       	vmovq  xmm0,rax
    152e:	48 8d 3d b3 7b 00 00 	lea    rdi,[rip+0x7bb3]        # 90e8 <fwrite@plt+0x7e38>
    1535:	b8 01 00 00 00       	mov    eax,0x1
    153a:	e8 a1 fc ff ff       	call   11e0 <printf@plt>
    153f:	b8 00 00 00 00       	mov    eax,0x0
    1544:	c9                   	leave  
    1545:	c3                   	ret    
    1546:	f3 0f 1e fa          	endbr64 
    154a:	55                   	push   rbp
    154b:	48 89 e5             	mov    rbp,rsp
    154e:	48 83 c4 80          	add    rsp,0xffffffffffffff80
    1552:	89 7d 8c             	mov    DWORD PTR [rbp-0x74],edi
    1555:	48 89 75 80          	mov    QWORD PTR [rbp-0x80],rsi
    1559:	64 48 8b 04 25 28 00 	mov    rax,QWORD PTR fs:0x28
    1560:	00 00 
    1562:	48 89 45 f8          	mov    QWORD PTR [rbp-0x8],rax
    1566:	31 c0                	xor    eax,eax
    1568:	83 7d 8c 01          	cmp    DWORD PTR [rbp-0x74],0x1
    156c:	7f 0a                	jg     1578 <fwrite@plt+0x2c8>
    156e:	b8 ff ff ff ff       	mov    eax,0xffffffff
    1573:	e9 6f 01 00 00       	jmp    16e7 <fwrite@plt+0x437>
    1578:	48 8d 3d 8d 7b 00 00 	lea    rdi,[rip+0x7b8d]        # 910c <fwrite@plt+0x7e5c>
    157f:	e8 2c fc ff ff       	call   11b0 <puts@plt>
    1584:	48 8d 3d 9d 7b 00 00 	lea    rdi,[rip+0x7b9d]        # 9128 <fwrite@plt+0x7e78>
    158b:	e8 20 fc ff ff       	call   11b0 <puts@plt>
    1590:	48 8d 3d c9 7b 00 00 	lea    rdi,[rip+0x7bc9]        # 9160 <fwrite@plt+0x7eb0>
    1597:	e8 14 fc ff ff       	call   11b0 <puts@plt>
    159c:	48 8d 3d ed 7b 00 00 	lea    rdi,[rip+0x7bed]        # 9190 <fwrite@plt+0x7ee0>
    15a3:	e8 08 fc ff ff       	call   11b0 <puts@plt>
    15a8:	48 8d 3d 09 7c 00 00 	lea    rdi,[rip+0x7c09]        # 91b8 <fwrite@plt+0x7f08>
    15af:	e8 fc fb ff ff       	call   11b0 <puts@plt>
    15b4:	bf 0a 00 00 00       	mov    edi,0xa
    15b9:	e8 d2 fb ff ff       	call   1190 <putchar@plt>
    15be:	ba 88 02 00 00       	mov    edx,0x288
    15c3:	be 00 00 00 00       	mov    esi,0x0
    15c8:	48 8d 3d d1 9a 00 00 	lea    rdi,[rip+0x9ad1]        # b0a0 <stderr@@GLIBC_2.2.5+0x60>
    15cf:	e8 1c fc ff ff       	call   11f0 <memset@plt>
    15d4:	48 c7 05 d1 9c 00 00 	mov    QWORD PTR [rip+0x9cd1],0x989680        # b2b0 <stderr@@GLIBC_2.2.5+0x270>
    15db:	80 96 98 00 
    15df:	48 8b 45 80          	mov    rax,QWORD PTR [rbp-0x80]
    15e3:	48 83 c0 08          	add    rax,0x8
    15e7:	48 8b 00             	mov    rax,QWORD PTR [rax]
    15ea:	48 89 c6             	mov    rsi,rax
    15ed:	48 8d 3d ac 9a 00 00 	lea    rdi,[rip+0x9aac]        # b0a0 <stderr@@GLIBC_2.2.5+0x60>
    15f4:	e8 a7 fb ff ff       	call   11a0 <strcpy@plt>
    15f9:	83 7d 8c 03          	cmp    DWORD PTR [rbp-0x74],0x3
    15fd:	75 33                	jne    1632 <fwrite@plt+0x382>
    15ff:	48 8b 45 80          	mov    rax,QWORD PTR [rbp-0x80]
    1603:	48 83 c0 10          	add    rax,0x10
    1607:	48 8b 00             	mov    rax,QWORD PTR [rax]
    160a:	48 89 c7             	mov    rdi,rax
    160d:	e8 6e fc ff ff       	call   1280 <atoi@plt>
    1612:	89 45 9c             	mov    DWORD PTR [rbp-0x64],eax
    1615:	8b 55 9c             	mov    edx,DWORD PTR [rbp-0x64]
    1618:	48 8d 45 a0          	lea    rax,[rbp-0x60]
    161c:	48 8d 35 da 7b 00 00 	lea    rsi,[rip+0x7bda]        # 91fd <fwrite@plt+0x7f4d>
    1623:	48 89 c7             	mov    rdi,rax
    1626:	b8 00 00 00 00       	mov    eax,0x0
    162b:	e8 60 fc ff ff       	call   1290 <sprintf@plt>
    1630:	eb 11                	jmp    1643 <fwrite@plt+0x393>
    1632:	48 8d 45 a0          	lea    rax,[rbp-0x60]
    1636:	48 b9 6d 63 66 2e 6f 	movabs rcx,0x74756f2e66636d
    163d:	75 74 00 
    1640:	48 89 08             	mov    QWORD PTR [rax],rcx
    1643:	48 8d 3d 56 9a 00 00 	lea    rdi,[rip+0x9a56]        # b0a0 <stderr@@GLIBC_2.2.5+0x60>
    164a:	e8 c6 0b 00 00       	call   2215 <fwrite@plt+0xf65>
    164f:	48 85 c0             	test   rax,rax
    1652:	74 1f                	je     1673 <fwrite@plt+0x3c3>
    1654:	48 8d 3d ad 7b 00 00 	lea    rdi,[rip+0x7bad]        # 9208 <fwrite@plt+0x7f58>
    165b:	e8 50 fb ff ff       	call   11b0 <puts@plt>
    1660:	48 8d 3d 39 9a 00 00 	lea    rdi,[rip+0x9a39]        # b0a0 <stderr@@GLIBC_2.2.5+0x60>
    1667:	e8 88 0a 00 00       	call   20f4 <fwrite@plt+0xe44>
    166c:	b8 ff ff ff ff       	mov    eax,0xffffffff
    1671:	eb 74                	jmp    16e7 <fwrite@plt+0x437>
    1673:	48 8b 05 be 9b 00 00 	mov    rax,QWORD PTR [rip+0x9bbe]        # b238 <stderr@@GLIBC_2.2.5+0x1f8>
    167a:	48 89 c6             	mov    rsi,rax
    167d:	48 8d 3d 9c 7b 00 00 	lea    rdi,[rip+0x7b9c]        # 9220 <fwrite@plt+0x7f70>
    1684:	b8 00 00 00 00       	mov    eax,0x0
    1689:	e8 52 fb ff ff       	call   11e0 <printf@plt>
    168e:	48 8d 3d 0b 9a 00 00 	lea    rdi,[rip+0x9a0b]        # b0a0 <stderr@@GLIBC_2.2.5+0x60>
    1695:	e8 bf 41 00 00       	call   5859 <fwrite@plt+0x45a9>
    169a:	e8 0a fd ff ff       	call   13a9 <fwrite@plt+0xf9>
    169f:	48 8d 45 a0          	lea    rax,[rbp-0x60]
    16a3:	48 8d 35 f6 99 00 00 	lea    rsi,[rip+0x99f6]        # b0a0 <stderr@@GLIBC_2.2.5+0x60>
    16aa:	48 89 c7             	mov    rdi,rax
    16ad:	e8 02 47 00 00       	call   5db4 <fwrite@plt+0x4b04>
    16b2:	48 85 c0             	test   rax,rax
    16b5:	74 13                	je     16ca <fwrite@plt+0x41a>
    16b7:	48 8d 3d e2 99 00 00 	lea    rdi,[rip+0x99e2]        # b0a0 <stderr@@GLIBC_2.2.5+0x60>
    16be:	e8 31 0a 00 00       	call   20f4 <fwrite@plt+0xe44>
    16c3:	b8 ff ff ff ff       	mov    eax,0xffffffff
    16c8:	eb 1d                	jmp    16e7 <fwrite@plt+0x437>
    16ca:	48 8d 3d cf 99 00 00 	lea    rdi,[rip+0x99cf]        # b0a0 <stderr@@GLIBC_2.2.5+0x60>
    16d1:	e8 1e 0a 00 00       	call   20f4 <fwrite@plt+0xe44>
    16d6:	48 8d 3d 65 7b 00 00 	lea    rdi,[rip+0x7b65]        # 9242 <fwrite@plt+0x7f92>
    16dd:	e8 ce fa ff ff       	call   11b0 <puts@plt>
    16e2:	b8 00 00 00 00       	mov    eax,0x0
    16e7:	48 8b 4d f8          	mov    rcx,QWORD PTR [rbp-0x8]
    16eb:	64 48 33 0c 25 28 00 	xor    rcx,QWORD PTR fs:0x28
    16f2:	00 00 
    16f4:	74 05                	je     16fb <fwrite@plt+0x44b>
    16f6:	e8 d5 fa ff ff       	call   11d0 <__stack_chk_fail@plt>
    16fb:	c9                   	leave  
    16fc:	c3                   	ret    
    16fd:	f3 0f 1e fa          	endbr64 
    1701:	55                   	push   rbp
    1702:	48 89 e5             	mov    rbp,rsp
    1705:	53                   	push   rbx
    1706:	48 83 ec 38          	sub    rsp,0x38
    170a:	48 89 7d c8          	mov    QWORD PTR [rbp-0x38],rdi
    170e:	48 89 75 c0          	mov    QWORD PTR [rbp-0x40],rsi
    1712:	48 8b 45 c8          	mov    rax,QWORD PTR [rbp-0x38]
    1716:	48 8b 80 28 02 00 00 	mov    rax,QWORD PTR [rax+0x228]
    171d:	48 89 45 d8          	mov    QWORD PTR [rbp-0x28],rax
    1721:	48 8b 45 c8          	mov    rax,QWORD PTR [rbp-0x38]
    1725:	48 8b 80 30 02 00 00 	mov    rax,QWORD PTR [rax+0x230]
    172c:	48 89 45 e8          	mov    QWORD PTR [rbp-0x18],rax
    1730:	eb 1d                	jmp    174f <fwrite@plt+0x49f>
    1732:	48 8b 45 d8          	mov    rax,QWORD PTR [rbp-0x28]
    1736:	48 c7 40 40 00 00 00 	mov    QWORD PTR [rax+0x40],0x0
    173d:	00 
    173e:	48 8b 45 d8          	mov    rax,QWORD PTR [rbp-0x28]
    1742:	48 c7 40 38 00 00 00 	mov    QWORD PTR [rax+0x38],0x0
    1749:	00 
    174a:	48 83 45 d8 68       	add    QWORD PTR [rbp-0x28],0x68
    174f:	48 8b 45 d8          	mov    rax,QWORD PTR [rbp-0x28]
    1753:	48 3b 45 e8          	cmp    rax,QWORD PTR [rbp-0x18]
    1757:	72 d9                	jb     1732 <fwrite@plt+0x482>
    1759:	48 8b 45 c8          	mov    rax,QWORD PTR [rbp-0x38]
    175d:	48 8b 80 38 02 00 00 	mov    rax,QWORD PTR [rax+0x238]
    1764:	48 89 45 e0          	mov    QWORD PTR [rbp-0x20],rax
    1768:	c7 45 d4 00 00 00 00 	mov    DWORD PTR [rbp-0x2c],0x0
    176f:	e9 84 00 00 00       	jmp    17f8 <fwrite@plt+0x548>
    1774:	48 8b 45 e0          	mov    rax,QWORD PTR [rbp-0x20]
    1778:	48 8b 40 10          	mov    rax,QWORD PTR [rax+0x10]
    177c:	48 8b 50 38          	mov    rdx,QWORD PTR [rax+0x38]
    1780:	48 8b 45 e0          	mov    rax,QWORD PTR [rbp-0x20]
    1784:	48 89 50 28          	mov    QWORD PTR [rax+0x28],rdx
    1788:	48 8b 45 e0          	mov    rax,QWORD PTR [rbp-0x20]
    178c:	48 8b 40 10          	mov    rax,QWORD PTR [rax+0x10]
    1790:	48 8b 55 e0          	mov    rdx,QWORD PTR [rbp-0x20]
    1794:	48 89 50 38          	mov    QWORD PTR [rax+0x38],rdx
    1798:	48 8b 45 e0          	mov    rax,QWORD PTR [rbp-0x20]
    179c:	48 8b 40 18          	mov    rax,QWORD PTR [rax+0x18]
    17a0:	48 8b 50 40          	mov    rdx,QWORD PTR [rax+0x40]
    17a4:	48 8b 45 e0          	mov    rax,QWORD PTR [rbp-0x20]
    17a8:	48 89 50 30          	mov    QWORD PTR [rax+0x30],rdx
    17ac:	48 8b 45 e0          	mov    rax,QWORD PTR [rbp-0x20]
    17b0:	48 8b 40 18          	mov    rax,QWORD PTR [rax+0x18]
    17b4:	48 8b 55 e0          	mov    rdx,QWORD PTR [rbp-0x20]
    17b8:	48 89 50 40          	mov    QWORD PTR [rax+0x40],rdx
    17bc:	ff 45 d4             	inc    DWORD PTR [rbp-0x2c]
    17bf:	48 8b 45 c8          	mov    rax,QWORD PTR [rbp-0x38]
    17c3:	48 8b 98 38 02 00 00 	mov    rbx,QWORD PTR [rax+0x238]
    17ca:	8b 45 d4             	mov    eax,DWORD PTR [rbp-0x2c]
    17cd:	48 63 d0             	movsxd rdx,eax
    17d0:	48 8b 45 c8          	mov    rax,QWORD PTR [rbp-0x38]
    17d4:	48 8b 4d c0          	mov    rcx,QWORD PTR [rbp-0x40]
    17d8:	48 89 d6             	mov    rsi,rdx
    17db:	48 89 c7             	mov    rdi,rax
    17de:	ff d1                	call   rcx
    17e0:	48 89 c2             	mov    rdx,rax
    17e3:	48 89 d0             	mov    rax,rdx
    17e6:	48 c1 e0 03          	shl    rax,0x3
    17ea:	48 01 d0             	add    rax,rdx
    17ed:	48 c1 e0 03          	shl    rax,0x3
    17f1:	48 01 d8             	add    rax,rbx
    17f4:	48 89 45 e0          	mov    QWORD PTR [rbp-0x20],rax
    17f8:	8b 45 d4             	mov    eax,DWORD PTR [rbp-0x2c]
    17fb:	48 63 d0             	movsxd rdx,eax
    17fe:	48 8b 45 c8          	mov    rax,QWORD PTR [rbp-0x38]
    1802:	48 8b 80 a8 01 00 00 	mov    rax,QWORD PTR [rax+0x1a8]
    1809:	48 39 c2             	cmp    rdx,rax
    180c:	0f 8c 62 ff ff ff    	jl     1774 <fwrite@plt+0x4c4>
    1812:	90                   	nop
    1813:	48 83 c4 38          	add    rsp,0x38
    1817:	5b                   	pop    rbx
    1818:	5d                   	pop    rbp
    1819:	c3                   	ret    
    181a:	f3 0f 1e fa          	endbr64 
    181e:	55                   	push   rbp
    181f:	48 89 e5             	mov    rbp,rsp
    1822:	48 89 7d c8          	mov    QWORD PTR [rbp-0x38],rdi
    1826:	48 c7 45 e0 00 00 00 	mov    QWORD PTR [rbp-0x20],0x0
    182d:	00 
    182e:	48 c7 45 e8 00 00 00 	mov    QWORD PTR [rbp-0x18],0x0
    1835:	00 
    1836:	48 8b 45 c8          	mov    rax,QWORD PTR [rbp-0x38]
    183a:	48 8b 80 38 02 00 00 	mov    rax,QWORD PTR [rax+0x238]
    1841:	48 89 45 f0          	mov    QWORD PTR [rbp-0x10],rax
    1845:	c7 45 dc 00 00 00 00 	mov    DWORD PTR [rbp-0x24],0x0
    184c:	eb 79                	jmp    18c7 <fwrite@plt+0x617>
    184e:	8b 45 dc             	mov    eax,DWORD PTR [rbp-0x24]
    1851:	48 63 d0             	movsxd rdx,eax
    1854:	48 89 d0             	mov    rax,rdx
    1857:	48 c1 e0 03          	shl    rax,0x3
    185b:	48 01 d0             	add    rax,rdx
    185e:	48 c1 e0 03          	shl    rax,0x3
    1862:	48 89 c2             	mov    rdx,rax
    1865:	48 8b 45 f0          	mov    rax,QWORD PTR [rbp-0x10]
    1869:	48 01 d0             	add    rax,rdx
    186c:	0f b7 40 20          	movzx  eax,WORD PTR [rax+0x20]
    1870:	66 83 f8 02          	cmp    ax,0x2
    1874:	75 28                	jne    189e <fwrite@plt+0x5ee>
    1876:	8b 45 dc             	mov    eax,DWORD PTR [rbp-0x24]
    1879:	48 63 d0             	movsxd rdx,eax
    187c:	48 89 d0             	mov    rax,rdx
    187f:	48 c1 e0 03          	shl    rax,0x3
    1883:	48 01 d0             	add    rax,rdx
    1886:	48 c1 e0 03          	shl    rax,0x3
    188a:	48 89 c2             	mov    rdx,rax
    188d:	48 8b 45 f0          	mov    rax,QWORD PTR [rbp-0x10]
    1891:	48 01 d0             	add    rax,rdx
    1894:	48 c7 40 38 01 00 00 	mov    QWORD PTR [rax+0x38],0x1
    189b:	00 
    189c:	eb 26                	jmp    18c4 <fwrite@plt+0x614>
    189e:	8b 45 dc             	mov    eax,DWORD PTR [rbp-0x24]
    18a1:	48 63 d0             	movsxd rdx,eax
    18a4:	48 89 d0             	mov    rax,rdx
    18a7:	48 c1 e0 03          	shl    rax,0x3
    18ab:	48 01 d0             	add    rax,rdx
    18ae:	48 c1 e0 03          	shl    rax,0x3
    18b2:	48 89 c2             	mov    rdx,rax
    18b5:	48 8b 45 f0          	mov    rax,QWORD PTR [rbp-0x10]
    18b9:	48 01 d0             	add    rax,rdx
    18bc:	48 c7 40 38 00 00 00 	mov    QWORD PTR [rax+0x38],0x0
    18c3:	00 
    18c4:	ff 45 dc             	inc    DWORD PTR [rbp-0x24]
    18c7:	8b 45 dc             	mov    eax,DWORD PTR [rbp-0x24]
    18ca:	48 63 d0             	movsxd rdx,eax
    18cd:	48 8b 45 c8          	mov    rax,QWORD PTR [rbp-0x38]
    18d1:	48 8b 80 a8 01 00 00 	mov    rax,QWORD PTR [rax+0x1a8]
    18d8:	48 39 c2             	cmp    rdx,rax
    18db:	0f 8c 6d ff ff ff    	jl     184e <fwrite@plt+0x59e>
    18e1:	48 8b 45 c8          	mov    rax,QWORD PTR [rbp-0x38]
    18e5:	48 8b 80 28 02 00 00 	mov    rax,QWORD PTR [rax+0x228]
    18ec:	48 89 45 f8          	mov    QWORD PTR [rbp-0x8],rax
    18f0:	c7 45 dc 01 00 00 00 	mov    DWORD PTR [rbp-0x24],0x1
    18f7:	eb 2f                	jmp    1928 <fwrite@plt+0x678>
    18f9:	8b 45 dc             	mov    eax,DWORD PTR [rbp-0x24]
    18fc:	48 98                	cdqe   
    18fe:	48 6b d0 68          	imul   rdx,rax,0x68
    1902:	48 8b 45 f8          	mov    rax,QWORD PTR [rbp-0x8]
    1906:	48 01 c2             	add    rdx,rax
    1909:	8b 45 dc             	mov    eax,DWORD PTR [rbp-0x24]
    190c:	48 98                	cdqe   
    190e:	48 6b c8 68          	imul   rcx,rax,0x68
    1912:	48 8b 45 f8          	mov    rax,QWORD PTR [rbp-0x8]
    1916:	48 01 c8             	add    rax,rcx
    1919:	48 8b 40 30          	mov    rax,QWORD PTR [rax+0x30]
    191d:	48 8b 52 50          	mov    rdx,QWORD PTR [rdx+0x50]
    1921:	48 89 50 38          	mov    QWORD PTR [rax+0x38],rdx
    1925:	ff 45 dc             	inc    DWORD PTR [rbp-0x24]
    1928:	8b 45 dc             	mov    eax,DWORD PTR [rbp-0x24]
    192b:	48 63 d0             	movsxd rdx,eax
    192e:	48 8b 45 c8          	mov    rax,QWORD PTR [rbp-0x38]
    1932:	48 8b 80 90 01 00 00 	mov    rax,QWORD PTR [rax+0x190]
    1939:	48 39 c2             	cmp    rdx,rax
    193c:	7e bb                	jle    18f9 <fwrite@plt+0x649>
    193e:	48 8b 45 c8          	mov    rax,QWORD PTR [rbp-0x38]
    1942:	48 8b 80 38 02 00 00 	mov    rax,QWORD PTR [rax+0x238]
    1949:	48 89 45 f0          	mov    QWORD PTR [rbp-0x10],rax
    194d:	c7 45 dc 00 00 00 00 	mov    DWORD PTR [rbp-0x24],0x0
    1954:	e9 10 01 00 00       	jmp    1a69 <fwrite@plt+0x7b9>
    1959:	8b 45 dc             	mov    eax,DWORD PTR [rbp-0x24]
    195c:	48 63 d0             	movsxd rdx,eax
    195f:	48 89 d0             	mov    rax,rdx
    1962:	48 c1 e0 03          	shl    rax,0x3
    1966:	48 01 d0             	add    rax,rdx
    1969:	48 c1 e0 03          	shl    rax,0x3
    196d:	48 89 c2             	mov    rdx,rax
    1970:	48 8b 45 f0          	mov    rax,QWORD PTR [rbp-0x10]
    1974:	48 01 d0             	add    rax,rdx
    1977:	48 8b 40 38          	mov    rax,QWORD PTR [rax+0x38]
    197b:	48 85 c0             	test   rax,rax
    197e:	0f 84 e2 00 00 00    	je     1a66 <fwrite@plt+0x7b6>
    1984:	8b 45 dc             	mov    eax,DWORD PTR [rbp-0x24]
    1987:	48 63 d0             	movsxd rdx,eax
    198a:	48 89 d0             	mov    rax,rdx
    198d:	48 c1 e0 03          	shl    rax,0x3
    1991:	48 01 d0             	add    rax,rdx
    1994:	48 c1 e0 03          	shl    rax,0x3
    1998:	48 89 c2             	mov    rdx,rax
    199b:	48 8b 45 f0          	mov    rax,QWORD PTR [rbp-0x10]
    199f:	48 01 d0             	add    rax,rdx
    19a2:	48 8b 40 10          	mov    rax,QWORD PTR [rax+0x10]
    19a6:	8b 40 60             	mov    eax,DWORD PTR [rax+0x60]
    19a9:	85 c0                	test   eax,eax
    19ab:	79 2d                	jns    19da <fwrite@plt+0x72a>
    19ad:	8b 45 dc             	mov    eax,DWORD PTR [rbp-0x24]
    19b0:	48 63 d0             	movsxd rdx,eax
    19b3:	48 89 d0             	mov    rax,rdx
    19b6:	48 c1 e0 03          	shl    rax,0x3
    19ba:	48 01 d0             	add    rax,rdx
    19bd:	48 c1 e0 03          	shl    rax,0x3
    19c1:	48 89 c2             	mov    rdx,rax
    19c4:	48 8b 45 f0          	mov    rax,QWORD PTR [rbp-0x10]
    19c8:	48 01 d0             	add    rax,rdx
    19cb:	48 8b 40 18          	mov    rax,QWORD PTR [rax+0x18]
    19cf:	8b 40 60             	mov    eax,DWORD PTR [rax+0x60]
    19d2:	85 c0                	test   eax,eax
    19d4:	0f 8f 8c 00 00 00    	jg     1a66 <fwrite@plt+0x7b6>
    19da:	8b 45 dc             	mov    eax,DWORD PTR [rbp-0x24]
    19dd:	48 63 d0             	movsxd rdx,eax
    19e0:	48 89 d0             	mov    rax,rdx
    19e3:	48 c1 e0 03          	shl    rax,0x3
    19e7:	48 01 d0             	add    rax,rdx
    19ea:	48 c1 e0 03          	shl    rax,0x3
    19ee:	48 89 c2             	mov    rdx,rax
    19f1:	48 8b 45 f0          	mov    rax,QWORD PTR [rbp-0x10]
    19f5:	48 01 d0             	add    rax,rdx
    19f8:	48 8b 40 10          	mov    rax,QWORD PTR [rax+0x10]
    19fc:	8b 40 60             	mov    eax,DWORD PTR [rax+0x60]
    19ff:	85 c0                	test   eax,eax
    1a01:	75 3d                	jne    1a40 <fwrite@plt+0x790>
    1a03:	8b 45 dc             	mov    eax,DWORD PTR [rbp-0x24]
    1a06:	48 63 d0             	movsxd rdx,eax
    1a09:	48 89 d0             	mov    rax,rdx
    1a0c:	48 c1 e0 03          	shl    rax,0x3
    1a10:	48 01 d0             	add    rax,rdx
    1a13:	48 c1 e0 03          	shl    rax,0x3
    1a17:	48 89 c2             	mov    rdx,rax
    1a1a:	48 8b 45 f0          	mov    rax,QWORD PTR [rbp-0x10]
    1a1e:	48 01 d0             	add    rax,rdx
    1a21:	48 8b 50 08          	mov    rdx,QWORD PTR [rax+0x8]
    1a25:	48 8b 45 c8          	mov    rax,QWORD PTR [rbp-0x38]
    1a29:	48 8b 80 10 02 00 00 	mov    rax,QWORD PTR [rax+0x210]
    1a30:	48 29 c2             	sub    rdx,rax
    1a33:	48 89 d0             	mov    rax,rdx
    1a36:	48 01 45 e8          	add    QWORD PTR [rbp-0x18],rax
    1a3a:	48 ff 45 e0          	inc    QWORD PTR [rbp-0x20]
    1a3e:	eb 26                	jmp    1a66 <fwrite@plt+0x7b6>
    1a40:	8b 45 dc             	mov    eax,DWORD PTR [rbp-0x24]
    1a43:	48 63 d0             	movsxd rdx,eax
    1a46:	48 89 d0             	mov    rax,rdx
    1a49:	48 c1 e0 03          	shl    rax,0x3
    1a4d:	48 01 d0             	add    rax,rdx
    1a50:	48 c1 e0 03          	shl    rax,0x3
    1a54:	48 89 c2             	mov    rdx,rax
    1a57:	48 8b 45 f0          	mov    rax,QWORD PTR [rbp-0x10]
    1a5b:	48 01 d0             	add    rax,rdx
    1a5e:	48 8b 40 08          	mov    rax,QWORD PTR [rax+0x8]
    1a62:	48 01 45 e8          	add    QWORD PTR [rbp-0x18],rax
    1a66:	ff 45 dc             	inc    DWORD PTR [rbp-0x24]
    1a69:	8b 45 dc             	mov    eax,DWORD PTR [rbp-0x24]
    1a6c:	48 63 d0             	movsxd rdx,eax
    1a6f:	48 8b 45 c8          	mov    rax,QWORD PTR [rbp-0x38]
    1a73:	48 8b 80 a8 01 00 00 	mov    rax,QWORD PTR [rax+0x1a8]
    1a7a:	48 39 c2             	cmp    rdx,rax
    1a7d:	0f 8c d6 fe ff ff    	jl     1959 <fwrite@plt+0x6a9>
    1a83:	c4 e1 f3 2a 4d e0    	vcvtsi2sd xmm1,xmm1,QWORD PTR [rbp-0x20]
    1a89:	48 8b 45 c8          	mov    rax,QWORD PTR [rbp-0x38]
    1a8d:	48 8b 80 10 02 00 00 	mov    rax,QWORD PTR [rax+0x210]
    1a94:	c4 e1 fb 2a c0       	vcvtsi2sd xmm0,xmm0,rax
    1a99:	c5 f3 59 c8          	vmulsd xmm1,xmm1,xmm0
    1a9d:	c4 e1 fb 2a 45 e8    	vcvtsi2sd xmm0,xmm0,QWORD PTR [rbp-0x18]
    1aa3:	c5 f3 58 c0          	vaddsd xmm0,xmm1,xmm0
    1aa7:	5d                   	pop    rbp
    1aa8:	c3                   	ret    
    1aa9:	f3 0f 1e fa          	endbr64 
    1aad:	55                   	push   rbp
    1aae:	48 89 e5             	mov    rbp,rsp
    1ab1:	48 c7 05 94 95 00 00 	mov    QWORD PTR [rip+0x9594],0x0        # b050 <stderr@@GLIBC_2.2.5+0x10>
    1ab8:	00 00 00 00 
    1abc:	48 c7 05 91 95 00 00 	mov    QWORD PTR [rip+0x9591],0x0        # b058 <stderr@@GLIBC_2.2.5+0x18>
    1ac3:	00 00 00 00 
    1ac7:	b8 00 00 00 00       	mov    eax,0x0
    1acc:	5d                   	pop    rbp
    1acd:	c3                   	ret    
    1ace:	f3 0f 1e fa          	endbr64 
    1ad2:	55                   	push   rbp
    1ad3:	48 89 e5             	mov    rbp,rsp
    1ad6:	48 89 7d e8          	mov    QWORD PTR [rbp-0x18],rdi
    1ada:	48 89 75 e0          	mov    QWORD PTR [rbp-0x20],rsi
    1ade:	48 8b 45 e8          	mov    rax,QWORD PTR [rbp-0x18]
    1ae2:	48 8b 88 70 02 00 00 	mov    rcx,QWORD PTR [rax+0x270]
    1ae9:	48 8b 45 e0          	mov    rax,QWORD PTR [rbp-0x20]
    1aed:	48 99                	cqo    
    1aef:	48 f7 f9             	idiv   rcx
    1af2:	48 89 55 f8          	mov    QWORD PTR [rbp-0x8],rdx
    1af6:	48 8b 45 e8          	mov    rax,QWORD PTR [rbp-0x18]
    1afa:	48 8b 80 78 02 00 00 	mov    rax,QWORD PTR [rax+0x278]
    1b01:	48 39 45 f8          	cmp    QWORD PTR [rbp-0x8],rax
    1b05:	7e 61                	jle    1b68 <fwrite@plt+0x8b8>
    1b07:	48 8b 45 e8          	mov    rax,QWORD PTR [rbp-0x18]
    1b0b:	48 8b b8 70 02 00 00 	mov    rdi,QWORD PTR [rax+0x270]
    1b12:	48 8b 45 e0          	mov    rax,QWORD PTR [rbp-0x20]
    1b16:	48 99                	cqo    
    1b18:	48 f7 ff             	idiv   rdi
    1b1b:	48 89 c6             	mov    rsi,rax
    1b1e:	48 8b 45 e8          	mov    rax,QWORD PTR [rbp-0x18]
    1b22:	48 8b 90 78 02 00 00 	mov    rdx,QWORD PTR [rax+0x278]
    1b29:	48 8b 45 e8          	mov    rax,QWORD PTR [rbp-0x18]
    1b2d:	48 8b 80 80 02 00 00 	mov    rax,QWORD PTR [rax+0x280]
    1b34:	48 0f af d0          	imul   rdx,rax
    1b38:	48 8b 45 e8          	mov    rax,QWORD PTR [rbp-0x18]
    1b3c:	48 8b 80 78 02 00 00 	mov    rax,QWORD PTR [rax+0x278]
    1b43:	48 8b 4d f8          	mov    rcx,QWORD PTR [rbp-0x8]
    1b47:	48 29 c1             	sub    rcx,rax
    1b4a:	48 8b 45 e8          	mov    rax,QWORD PTR [rbp-0x18]
    1b4e:	48 8b 80 80 02 00 00 	mov    rax,QWORD PTR [rax+0x280]
    1b55:	48 ff c8             	dec    rax
    1b58:	48 0f af c1          	imul   rax,rcx
    1b5c:	48 01 d0             	add    rax,rdx
    1b5f:	48 01 f0             	add    rax,rsi
    1b62:	48 89 45 f0          	mov    QWORD PTR [rbp-0x10],rax
    1b66:	eb 2e                	jmp    1b96 <fwrite@plt+0x8e6>
    1b68:	48 8b 45 e8          	mov    rax,QWORD PTR [rbp-0x18]
    1b6c:	48 8b b0 70 02 00 00 	mov    rsi,QWORD PTR [rax+0x270]
    1b73:	48 8b 45 e0          	mov    rax,QWORD PTR [rbp-0x20]
    1b77:	48 99                	cqo    
    1b79:	48 f7 fe             	idiv   rsi
    1b7c:	48 89 c2             	mov    rdx,rax
    1b7f:	48 8b 45 e8          	mov    rax,QWORD PTR [rbp-0x18]
    1b83:	48 8b 80 80 02 00 00 	mov    rax,QWORD PTR [rax+0x280]
    1b8a:	48 0f af 45 f8       	imul   rax,QWORD PTR [rbp-0x8]
    1b8f:	48 01 d0             	add    rax,rdx
    1b92:	48 89 45 f0          	mov    QWORD PTR [rbp-0x10],rax
    1b96:	48 8b 45 f0          	mov    rax,QWORD PTR [rbp-0x10]
    1b9a:	5d                   	pop    rbp
    1b9b:	c3                   	ret    
    1b9c:	f3 0f 1e fa          	endbr64 
    1ba0:	55                   	push   rbp
    1ba1:	48 89 e5             	mov    rbp,rsp
    1ba4:	48 89 7d f8          	mov    QWORD PTR [rbp-0x8],rdi
    1ba8:	48 89 75 f0          	mov    QWORD PTR [rbp-0x10],rsi
    1bac:	48 8b 45 f0          	mov    rax,QWORD PTR [rbp-0x10]
    1bb0:	5d                   	pop    rbp
    1bb1:	c3                   	ret    
    1bb2:	f3 0f 1e fa          	endbr64 
    1bb6:	55                   	push   rbp
    1bb7:	48 89 e5             	mov    rbp,rsp
    1bba:	48 83 ec 40          	sub    rsp,0x40
    1bbe:	48 89 7d c8          	mov    QWORD PTR [rbp-0x38],rdi
    1bc2:	48 c7 45 e0 00 00 00 	mov    QWORD PTR [rbp-0x20],0x0
    1bc9:	00 
    1bca:	48 c7 45 e8 00 00 00 	mov    QWORD PTR [rbp-0x18],0x0
    1bd1:	00 
    1bd2:	48 8b 45 c8          	mov    rax,QWORD PTR [rbp-0x38]
    1bd6:	48 8b 80 38 02 00 00 	mov    rax,QWORD PTR [rax+0x238]
    1bdd:	48 89 45 f0          	mov    QWORD PTR [rbp-0x10],rax
    1be1:	c7 45 dc 00 00 00 00 	mov    DWORD PTR [rbp-0x24],0x0
    1be8:	eb 79                	jmp    1c63 <fwrite@plt+0x9b3>
    1bea:	8b 45 dc             	mov    eax,DWORD PTR [rbp-0x24]
    1bed:	48 63 d0             	movsxd rdx,eax
    1bf0:	48 89 d0             	mov    rax,rdx
    1bf3:	48 c1 e0 03          	shl    rax,0x3
    1bf7:	48 01 d0             	add    rax,rdx
    1bfa:	48 c1 e0 03          	shl    rax,0x3
    1bfe:	48 89 c2             	mov    rdx,rax
    1c01:	48 8b 45 f0          	mov    rax,QWORD PTR [rbp-0x10]
    1c05:	48 01 d0             	add    rax,rdx
    1c08:	0f b7 40 20          	movzx  eax,WORD PTR [rax+0x20]
    1c0c:	66 83 f8 02          	cmp    ax,0x2
    1c10:	75 28                	jne    1c3a <fwrite@plt+0x98a>
    1c12:	8b 45 dc             	mov    eax,DWORD PTR [rbp-0x24]
    1c15:	48 63 d0             	movsxd rdx,eax
    1c18:	48 89 d0             	mov    rax,rdx
    1c1b:	48 c1 e0 03          	shl    rax,0x3
    1c1f:	48 01 d0             	add    rax,rdx
    1c22:	48 c1 e0 03          	shl    rax,0x3
    1c26:	48 89 c2             	mov    rdx,rax
    1c29:	48 8b 45 f0          	mov    rax,QWORD PTR [rbp-0x10]
    1c2d:	48 01 d0             	add    rax,rdx
    1c30:	48 c7 40 38 01 00 00 	mov    QWORD PTR [rax+0x38],0x1
    1c37:	00 
    1c38:	eb 26                	jmp    1c60 <fwrite@plt+0x9b0>
    1c3a:	8b 45 dc             	mov    eax,DWORD PTR [rbp-0x24]
    1c3d:	48 63 d0             	movsxd rdx,eax
    1c40:	48 89 d0             	mov    rax,rdx
    1c43:	48 c1 e0 03          	shl    rax,0x3
    1c47:	48 01 d0             	add    rax,rdx
    1c4a:	48 c1 e0 03          	shl    rax,0x3
    1c4e:	48 89 c2             	mov    rdx,rax
    1c51:	48 8b 45 f0          	mov    rax,QWORD PTR [rbp-0x10]
    1c55:	48 01 d0             	add    rax,rdx
    1c58:	48 c7 40 38 00 00 00 	mov    QWORD PTR [rax+0x38],0x0
    1c5f:	00 
    1c60:	ff 45 dc             	inc    DWORD PTR [rbp-0x24]
    1c63:	8b 45 dc             	mov    eax,DWORD PTR [rbp-0x24]
    1c66:	48 63 d0             	movsxd rdx,eax
    1c69:	48 8b 45 c8          	mov    rax,QWORD PTR [rbp-0x38]
    1c6d:	48 8b 80 a8 01 00 00 	mov    rax,QWORD PTR [rax+0x1a8]
    1c74:	48 39 c2             	cmp    rdx,rax
    1c77:	0f 8c 6d ff ff ff    	jl     1bea <fwrite@plt+0x93a>
    1c7d:	48 8b 45 c8          	mov    rax,QWORD PTR [rbp-0x38]
    1c81:	48 8b 80 28 02 00 00 	mov    rax,QWORD PTR [rax+0x228]
    1c88:	48 89 45 f8          	mov    QWORD PTR [rbp-0x8],rax
    1c8c:	c7 45 dc 00 00 00 00 	mov    DWORD PTR [rbp-0x24],0x0
    1c93:	eb 2f                	jmp    1cc4 <fwrite@plt+0xa14>
    1c95:	8b 45 dc             	mov    eax,DWORD PTR [rbp-0x24]
    1c98:	48 98                	cdqe   
    1c9a:	48 6b d0 68          	imul   rdx,rax,0x68
    1c9e:	48 8b 45 f8          	mov    rax,QWORD PTR [rbp-0x8]
    1ca2:	48 01 c2             	add    rdx,rax
    1ca5:	8b 45 dc             	mov    eax,DWORD PTR [rbp-0x24]
    1ca8:	48 98                	cdqe   
    1caa:	48 6b c8 68          	imul   rcx,rax,0x68
    1cae:	48 8b 45 f8          	mov    rax,QWORD PTR [rbp-0x8]
    1cb2:	48 01 c8             	add    rax,rcx
    1cb5:	48 8b 40 30          	mov    rax,QWORD PTR [rax+0x30]
    1cb9:	48 8b 52 50          	mov    rdx,QWORD PTR [rdx+0x50]
    1cbd:	48 89 50 38          	mov    QWORD PTR [rax+0x38],rdx
    1cc1:	ff 45 dc             	inc    DWORD PTR [rbp-0x24]
    1cc4:	8b 45 dc             	mov    eax,DWORD PTR [rbp-0x24]
    1cc7:	48 63 d0             	movsxd rdx,eax
    1cca:	48 8b 45 c8          	mov    rax,QWORD PTR [rbp-0x38]
    1cce:	48 8b 80 90 01 00 00 	mov    rax,QWORD PTR [rax+0x190]
    1cd5:	48 39 c2             	cmp    rdx,rax
    1cd8:	7c bb                	jl     1c95 <fwrite@plt+0x9e5>
    1cda:	48 8b 45 c8          	mov    rax,QWORD PTR [rbp-0x38]
    1cde:	48 8b 80 38 02 00 00 	mov    rax,QWORD PTR [rax+0x238]
    1ce5:	48 89 45 f0          	mov    QWORD PTR [rbp-0x10],rax
    1ce9:	c7 45 dc 00 00 00 00 	mov    DWORD PTR [rbp-0x24],0x0
    1cf0:	e9 10 01 00 00       	jmp    1e05 <fwrite@plt+0xb55>
    1cf5:	8b 45 dc             	mov    eax,DWORD PTR [rbp-0x24]
    1cf8:	48 63 d0             	movsxd rdx,eax
    1cfb:	48 89 d0             	mov    rax,rdx
    1cfe:	48 c1 e0 03          	shl    rax,0x3
    1d02:	48 01 d0             	add    rax,rdx
    1d05:	48 c1 e0 03          	shl    rax,0x3
    1d09:	48 89 c2             	mov    rdx,rax
    1d0c:	48 8b 45 f0          	mov    rax,QWORD PTR [rbp-0x10]
    1d10:	48 01 d0             	add    rax,rdx
    1d13:	48 8b 40 38          	mov    rax,QWORD PTR [rax+0x38]
    1d17:	48 85 c0             	test   rax,rax
    1d1a:	0f 84 e2 00 00 00    	je     1e02 <fwrite@plt+0xb52>
    1d20:	8b 45 dc             	mov    eax,DWORD PTR [rbp-0x24]
    1d23:	48 63 d0             	movsxd rdx,eax
    1d26:	48 89 d0             	mov    rax,rdx
    1d29:	48 c1 e0 03          	shl    rax,0x3
    1d2d:	48 01 d0             	add    rax,rdx
    1d30:	48 c1 e0 03          	shl    rax,0x3
    1d34:	48 89 c2             	mov    rdx,rax
    1d37:	48 8b 45 f0          	mov    rax,QWORD PTR [rbp-0x10]
    1d3b:	48 01 d0             	add    rax,rdx
    1d3e:	48 8b 40 10          	mov    rax,QWORD PTR [rax+0x10]
    1d42:	8b 40 60             	mov    eax,DWORD PTR [rax+0x60]
    1d45:	85 c0                	test   eax,eax
    1d47:	79 2d                	jns    1d76 <fwrite@plt+0xac6>
    1d49:	8b 45 dc             	mov    eax,DWORD PTR [rbp-0x24]
    1d4c:	48 63 d0             	movsxd rdx,eax
    1d4f:	48 89 d0             	mov    rax,rdx
    1d52:	48 c1 e0 03          	shl    rax,0x3
    1d56:	48 01 d0             	add    rax,rdx
    1d59:	48 c1 e0 03          	shl    rax,0x3
    1d5d:	48 89 c2             	mov    rdx,rax
    1d60:	48 8b 45 f0          	mov    rax,QWORD PTR [rbp-0x10]
    1d64:	48 01 d0             	add    rax,rdx
    1d67:	48 8b 40 18          	mov    rax,QWORD PTR [rax+0x18]
    1d6b:	8b 40 60             	mov    eax,DWORD PTR [rax+0x60]
    1d6e:	85 c0                	test   eax,eax
    1d70:	0f 8f 8c 00 00 00    	jg     1e02 <fwrite@plt+0xb52>
    1d76:	8b 45 dc             	mov    eax,DWORD PTR [rbp-0x24]
    1d79:	48 63 d0             	movsxd rdx,eax
    1d7c:	48 89 d0             	mov    rax,rdx
    1d7f:	48 c1 e0 03          	shl    rax,0x3
    1d83:	48 01 d0             	add    rax,rdx
    1d86:	48 c1 e0 03          	shl    rax,0x3
    1d8a:	48 89 c2             	mov    rdx,rax
    1d8d:	48 8b 45 f0          	mov    rax,QWORD PTR [rbp-0x10]
    1d91:	48 01 d0             	add    rax,rdx
    1d94:	48 8b 40 10          	mov    rax,QWORD PTR [rax+0x10]
    1d98:	8b 40 60             	mov    eax,DWORD PTR [rax+0x60]
    1d9b:	85 c0                	test   eax,eax
    1d9d:	75 3d                	jne    1ddc <fwrite@plt+0xb2c>
    1d9f:	8b 45 dc             	mov    eax,DWORD PTR [rbp-0x24]
    1da2:	48 63 d0             	movsxd rdx,eax
    1da5:	48 89 d0             	mov    rax,rdx
    1da8:	48 c1 e0 03          	shl    rax,0x3
    1dac:	48 01 d0             	add    rax,rdx
    1daf:	48 c1 e0 03          	shl    rax,0x3
    1db3:	48 89 c2             	mov    rdx,rax
    1db6:	48 8b 45 f0          	mov    rax,QWORD PTR [rbp-0x10]
    1dba:	48 01 d0             	add    rax,rdx
    1dbd:	48 8b 50 40          	mov    rdx,QWORD PTR [rax+0x40]
    1dc1:	48 8b 45 c8          	mov    rax,QWORD PTR [rbp-0x38]
    1dc5:	48 8b 80 10 02 00 00 	mov    rax,QWORD PTR [rax+0x210]
    1dcc:	48 29 c2             	sub    rdx,rax
    1dcf:	48 89 d0             	mov    rax,rdx
    1dd2:	48 01 45 e8          	add    QWORD PTR [rbp-0x18],rax
    1dd6:	48 ff 45 e0          	inc    QWORD PTR [rbp-0x20]
    1dda:	eb 26                	jmp    1e02 <fwrite@plt+0xb52>
    1ddc:	8b 45 dc             	mov    eax,DWORD PTR [rbp-0x24]
    1ddf:	48 63 d0             	movsxd rdx,eax
    1de2:	48 89 d0             	mov    rax,rdx
    1de5:	48 c1 e0 03          	shl    rax,0x3
    1de9:	48 01 d0             	add    rax,rdx
    1dec:	48 c1 e0 03          	shl    rax,0x3
    1df0:	48 89 c2             	mov    rdx,rax
    1df3:	48 8b 45 f0          	mov    rax,QWORD PTR [rbp-0x10]
    1df7:	48 01 d0             	add    rax,rdx
    1dfa:	48 8b 40 40          	mov    rax,QWORD PTR [rax+0x40]
    1dfe:	48 01 45 e8          	add    QWORD PTR [rbp-0x18],rax
    1e02:	ff 45 dc             	inc    DWORD PTR [rbp-0x24]
    1e05:	8b 45 dc             	mov    eax,DWORD PTR [rbp-0x24]
    1e08:	48 63 d0             	movsxd rdx,eax
    1e0b:	48 8b 45 c8          	mov    rax,QWORD PTR [rbp-0x38]
    1e0f:	48 8b 80 a8 01 00 00 	mov    rax,QWORD PTR [rax+0x1a8]
    1e16:	48 39 c2             	cmp    rdx,rax
    1e19:	0f 8c d6 fe ff ff    	jl     1cf5 <fwrite@plt+0xa45>
    1e1f:	c4 e1 f3 2a 4d e0    	vcvtsi2sd xmm1,xmm1,QWORD PTR [rbp-0x20]
    1e25:	48 8b 45 c8          	mov    rax,QWORD PTR [rbp-0x38]
    1e29:	48 8b 80 10 02 00 00 	mov    rax,QWORD PTR [rax+0x210]
    1e30:	c4 e1 fb 2a c0       	vcvtsi2sd xmm0,xmm0,rax
    1e35:	c5 f3 59 c8          	vmulsd xmm1,xmm1,xmm0
    1e39:	c4 e1 fb 2a 45 e8    	vcvtsi2sd xmm0,xmm0,QWORD PTR [rbp-0x18]
    1e3f:	c5 f3 58 c0          	vaddsd xmm0,xmm1,xmm0
    1e43:	48 8d 3d fe 73 00 00 	lea    rdi,[rip+0x73fe]        # 9248 <fwrite@plt+0x7f98>
    1e4a:	b8 01 00 00 00       	mov    eax,0x1
    1e4f:	e8 8c f3 ff ff       	call   11e0 <printf@plt>
    1e54:	c4 e1 f3 2a 4d e0    	vcvtsi2sd xmm1,xmm1,QWORD PTR [rbp-0x20]
    1e5a:	48 8b 45 c8          	mov    rax,QWORD PTR [rbp-0x38]
    1e5e:	48 8b 80 10 02 00 00 	mov    rax,QWORD PTR [rax+0x210]
    1e65:	c4 e1 fb 2a c0       	vcvtsi2sd xmm0,xmm0,rax
    1e6a:	c5 f3 59 c8          	vmulsd xmm1,xmm1,xmm0
    1e6e:	c4 e1 fb 2a 45 e8    	vcvtsi2sd xmm0,xmm0,QWORD PTR [rbp-0x18]
    1e74:	c5 f3 58 c0          	vaddsd xmm0,xmm1,xmm0
    1e78:	c9                   	leave  
    1e79:	c3                   	ret    
    1e7a:	f3 0f 1e fa          	endbr64 
    1e7e:	55                   	push   rbp
    1e7f:	48 89 e5             	mov    rbp,rsp
    1e82:	48 83 ec 40          	sub    rsp,0x40
    1e86:	48 89 7d c8          	mov    QWORD PTR [rbp-0x38],rdi
    1e8a:	48 8b 45 c8          	mov    rax,QWORD PTR [rbp-0x38]
    1e8e:	48 8b 80 50 02 00 00 	mov    rax,QWORD PTR [rax+0x250]
    1e95:	48 89 45 d8          	mov    QWORD PTR [rbp-0x28],rax
    1e99:	48 8b 45 c8          	mov    rax,QWORD PTR [rbp-0x38]
    1e9d:	48 8b 80 58 02 00 00 	mov    rax,QWORD PTR [rax+0x258]
    1ea4:	48 89 45 e0          	mov    QWORD PTR [rbp-0x20],rax
    1ea8:	48 8b 45 c8          	mov    rax,QWORD PTR [rbp-0x38]
    1eac:	48 8b 80 28 02 00 00 	mov    rax,QWORD PTR [rax+0x228]
    1eb3:	48 89 45 d0          	mov    QWORD PTR [rbp-0x30],rax
    1eb7:	48 8b 45 c8          	mov    rax,QWORD PTR [rbp-0x38]
    1ebb:	48 8b 80 30 02 00 00 	mov    rax,QWORD PTR [rax+0x230]
    1ec2:	48 89 45 e8          	mov    QWORD PTR [rbp-0x18],rax
    1ec6:	48 83 45 d0 68       	add    QWORD PTR [rbp-0x30],0x68
    1ecb:	e9 f1 00 00 00       	jmp    1fc1 <fwrite@plt+0xd11>
    1ed0:	48 8b 45 d0          	mov    rax,QWORD PTR [rbp-0x30]
    1ed4:	48 8b 40 30          	mov    rax,QWORD PTR [rax+0x30]
    1ed8:	48 89 45 f0          	mov    QWORD PTR [rbp-0x10],rax
    1edc:	48 8b 45 d0          	mov    rax,QWORD PTR [rbp-0x30]
    1ee0:	48 8b 40 50          	mov    rax,QWORD PTR [rax+0x50]
    1ee4:	48 89 45 f8          	mov    QWORD PTR [rbp-0x8],rax
    1ee8:	48 8b 45 f0          	mov    rax,QWORD PTR [rbp-0x10]
    1eec:	48 3b 45 d8          	cmp    rax,QWORD PTR [rbp-0x28]
    1ef0:	72 5f                	jb     1f51 <fwrite@plt+0xca1>
    1ef2:	48 8b 45 f0          	mov    rax,QWORD PTR [rbp-0x10]
    1ef6:	48 3b 45 e0          	cmp    rax,QWORD PTR [rbp-0x20]
    1efa:	73 55                	jae    1f51 <fwrite@plt+0xca1>
    1efc:	48 8b 45 f8          	mov    rax,QWORD PTR [rbp-0x8]
    1f00:	48 99                	cqo    
    1f02:	48 89 d0             	mov    rax,rdx
    1f05:	48 33 45 f8          	xor    rax,QWORD PTR [rbp-0x8]
    1f09:	48 29 d0             	sub    rax,rdx
    1f0c:	48 8b 55 c8          	mov    rdx,QWORD PTR [rbp-0x38]
    1f10:	48 8b 92 00 02 00 00 	mov    rdx,QWORD PTR [rdx+0x200]
    1f17:	48 39 d0             	cmp    rax,rdx
    1f1a:	0f 8e 9c 00 00 00    	jle    1fbc <fwrite@plt+0xd0c>
    1f20:	48 8d 3d 2e 73 00 00 	lea    rdi,[rip+0x732e]        # 9255 <fwrite@plt+0x7fa5>
    1f27:	b8 00 00 00 00       	mov    eax,0x0
    1f2c:	e8 af f2 ff ff       	call   11e0 <printf@plt>
    1f31:	48 8b 45 d0          	mov    rax,QWORD PTR [rbp-0x30]
    1f35:	8b 40 60             	mov    eax,DWORD PTR [rax+0x60]
    1f38:	48 8b 55 f8          	mov    rdx,QWORD PTR [rbp-0x8]
    1f3c:	89 c6                	mov    esi,eax
    1f3e:	48 8d 3d 2b 73 00 00 	lea    rdi,[rip+0x732b]        # 9270 <fwrite@plt+0x7fc0>
    1f45:	b8 00 00 00 00       	mov    eax,0x0
    1f4a:	e8 91 f2 ff ff       	call   11e0 <printf@plt>
    1f4f:	eb 6b                	jmp    1fbc <fwrite@plt+0xd0c>
    1f51:	48 8b 45 c8          	mov    rax,QWORD PTR [rbp-0x38]
    1f55:	48 8b 80 00 02 00 00 	mov    rax,QWORD PTR [rax+0x200]
    1f5c:	48 f7 d8             	neg    rax
    1f5f:	48 39 45 f8          	cmp    QWORD PTR [rbp-0x8],rax
    1f63:	7c 18                	jl     1f7d <fwrite@plt+0xccd>
    1f65:	48 8b 45 f8          	mov    rax,QWORD PTR [rbp-0x8]
    1f69:	48 8d 50 ff          	lea    rdx,[rax-0x1]
    1f6d:	48 8b 45 c8          	mov    rax,QWORD PTR [rbp-0x38]
    1f71:	48 8b 80 00 02 00 00 	mov    rax,QWORD PTR [rax+0x200]
    1f78:	48 39 c2             	cmp    rdx,rax
    1f7b:	7e 3f                	jle    1fbc <fwrite@plt+0xd0c>
    1f7d:	48 8d 3d d1 72 00 00 	lea    rdi,[rip+0x72d1]        # 9255 <fwrite@plt+0x7fa5>
    1f84:	b8 00 00 00 00       	mov    eax,0x0
    1f89:	e8 52 f2 ff ff       	call   11e0 <printf@plt>
    1f8e:	48 8b 45 f8          	mov    rax,QWORD PTR [rbp-0x8]
    1f92:	48 89 c6             	mov    rsi,rax
    1f95:	48 8d 3d 0c 73 00 00 	lea    rdi,[rip+0x730c]        # 92a8 <fwrite@plt+0x7ff8>
    1f9c:	b8 00 00 00 00       	mov    eax,0x0
    1fa1:	e8 3a f2 ff ff       	call   11e0 <printf@plt>
    1fa6:	48 8b 45 c8          	mov    rax,QWORD PTR [rbp-0x38]
    1faa:	48 c7 80 e8 01 00 00 	mov    QWORD PTR [rax+0x1e8],0x0
    1fb1:	00 00 00 00 
    1fb5:	b8 01 00 00 00       	mov    eax,0x1
    1fba:	eb 27                	jmp    1fe3 <fwrite@plt+0xd33>
    1fbc:	48 83 45 d0 68       	add    QWORD PTR [rbp-0x30],0x68
    1fc1:	48 8b 45 d0          	mov    rax,QWORD PTR [rbp-0x30]
    1fc5:	48 3b 45 e8          	cmp    rax,QWORD PTR [rbp-0x18]
    1fc9:	0f 82 01 ff ff ff    	jb     1ed0 <fwrite@plt+0xc20>
    1fcf:	48 8b 45 c8          	mov    rax,QWORD PTR [rbp-0x38]
    1fd3:	48 c7 80 e8 01 00 00 	mov    QWORD PTR [rax+0x1e8],0x1
    1fda:	01 00 00 00 
    1fde:	b8 00 00 00 00       	mov    eax,0x0
    1fe3:	c9                   	leave  
    1fe4:	c3                   	ret    
    1fe5:	f3 0f 1e fa          	endbr64 
    1fe9:	55                   	push   rbp
    1fea:	48 89 e5             	mov    rbp,rsp
    1fed:	48 83 ec 30          	sub    rsp,0x30
    1ff1:	48 89 7d d8          	mov    QWORD PTR [rbp-0x28],rdi
    1ff5:	48 8b 45 d8          	mov    rax,QWORD PTR [rbp-0x28]
    1ff9:	48 8b 80 40 02 00 00 	mov    rax,QWORD PTR [rax+0x240]
    2000:	48 89 45 f0          	mov    QWORD PTR [rbp-0x10],rax
    2004:	48 c7 45 e8 00 00 00 	mov    QWORD PTR [rbp-0x18],0x0
    200b:	00 
    200c:	48 c7 45 e8 00 00 00 	mov    QWORD PTR [rbp-0x18],0x0
    2013:	00 
    2014:	48 8b 45 d8          	mov    rax,QWORD PTR [rbp-0x28]
    2018:	48 8b 80 38 02 00 00 	mov    rax,QWORD PTR [rax+0x238]
    201f:	48 89 45 e0          	mov    QWORD PTR [rbp-0x20],rax
    2023:	eb 76                	jmp    209b <fwrite@plt+0xdeb>
    2025:	48 8b 45 e0          	mov    rax,QWORD PTR [rbp-0x20]
    2029:	48 8b 50 08          	mov    rdx,QWORD PTR [rax+0x8]
    202d:	48 8b 45 e0          	mov    rax,QWORD PTR [rbp-0x20]
    2031:	48 8b 40 10          	mov    rax,QWORD PTR [rax+0x10]
    2035:	48 8b 00             	mov    rax,QWORD PTR [rax]
    2038:	48 29 c2             	sub    rdx,rax
    203b:	48 8b 45 e0          	mov    rax,QWORD PTR [rbp-0x20]
    203f:	48 8b 40 18          	mov    rax,QWORD PTR [rax+0x18]
    2043:	48 8b 00             	mov    rax,QWORD PTR [rax]
    2046:	48 01 d0             	add    rax,rdx
    2049:	48 89 45 f8          	mov    QWORD PTR [rbp-0x8],rax
    204d:	48 8b 45 e0          	mov    rax,QWORD PTR [rbp-0x20]
    2051:	0f b7 40 20          	movzx  eax,WORD PTR [rax+0x20]
    2055:	98                   	cwde   
    2056:	83 f8 01             	cmp    eax,0x1
    2059:	7f 06                	jg     2061 <fwrite@plt+0xdb1>
    205b:	85 c0                	test   eax,eax
    205d:	79 09                	jns    2068 <fwrite@plt+0xdb8>
    205f:	eb 31                	jmp    2092 <fwrite@plt+0xde2>
    2061:	83 f8 02             	cmp    eax,0x2
    2064:	74 18                	je     207e <fwrite@plt+0xdce>
    2066:	eb 2a                	jmp    2092 <fwrite@plt+0xde2>
    2068:	48 8b 45 d8          	mov    rax,QWORD PTR [rbp-0x28]
    206c:	48 8b 80 00 02 00 00 	mov    rax,QWORD PTR [rax+0x200]
    2073:	48 f7 d8             	neg    rax
    2076:	48 39 45 f8          	cmp    QWORD PTR [rbp-0x8],rax
    207a:	7d 15                	jge    2091 <fwrite@plt+0xde1>
    207c:	eb 2f                	jmp    20ad <fwrite@plt+0xdfd>
    207e:	48 8b 45 d8          	mov    rax,QWORD PTR [rbp-0x28]
    2082:	48 8b 80 00 02 00 00 	mov    rax,QWORD PTR [rax+0x200]
    2089:	48 39 45 f8          	cmp    QWORD PTR [rbp-0x8],rax
    208d:	7f 1d                	jg     20ac <fwrite@plt+0xdfc>
    208f:	eb 01                	jmp    2092 <fwrite@plt+0xde2>
    2091:	90                   	nop
    2092:	48 83 45 e0 48       	add    QWORD PTR [rbp-0x20],0x48
    2097:	48 ff 45 e8          	inc    QWORD PTR [rbp-0x18]
    209b:	48 8b 45 e0          	mov    rax,QWORD PTR [rbp-0x20]
    209f:	48 3b 45 f0          	cmp    rax,QWORD PTR [rbp-0x10]
    20a3:	72 80                	jb     2025 <fwrite@plt+0xd75>
    20a5:	b8 00 00 00 00       	mov    eax,0x0
    20aa:	eb 46                	jmp    20f2 <fwrite@plt+0xe42>
    20ac:	90                   	nop
    20ad:	48 8b 05 8c 8f 00 00 	mov    rax,QWORD PTR [rip+0x8f8c]        # b040 <stderr@@GLIBC_2.2.5>
    20b4:	48 89 c1             	mov    rcx,rax
    20b7:	ba 16 00 00 00       	mov    edx,0x16
    20bc:	be 01 00 00 00       	mov    esi,0x1
    20c1:	48 8d 3d ff 71 00 00 	lea    rdi,[rip+0x71ff]        # 92c7 <fwrite@plt+0x8017>
    20c8:	e8 e3 f1 ff ff       	call   12b0 <fwrite@plt>
    20cd:	48 8b 05 6c 8f 00 00 	mov    rax,QWORD PTR [rip+0x8f6c]        # b040 <stderr@@GLIBC_2.2.5>
    20d4:	48 89 c1             	mov    rcx,rax
    20d7:	ba 16 00 00 00       	mov    edx,0x16
    20dc:	be 01 00 00 00       	mov    esi,0x1
    20e1:	48 8d 3d f6 71 00 00 	lea    rdi,[rip+0x71f6]        # 92de <fwrite@plt+0x802e>
    20e8:	e8 c3 f1 ff ff       	call   12b0 <fwrite@plt>
    20ed:	b8 01 00 00 00       	mov    eax,0x1
    20f2:	c9                   	leave  
    20f3:	c3                   	ret    
    20f4:	f3 0f 1e fa          	endbr64 
    20f8:	55                   	push   rbp
    20f9:	48 89 e5             	mov    rbp,rsp
    20fc:	48 83 ec 10          	sub    rsp,0x10
    2100:	48 89 7d f8          	mov    QWORD PTR [rbp-0x8],rdi
    2104:	48 8b 45 f8          	mov    rax,QWORD PTR [rbp-0x8]
    2108:	48 8b 80 28 02 00 00 	mov    rax,QWORD PTR [rax+0x228]
    210f:	48 85 c0             	test   rax,rax
    2112:	74 13                	je     2127 <fwrite@plt+0xe77>
    2114:	48 8b 45 f8          	mov    rax,QWORD PTR [rbp-0x8]
    2118:	48 8b 80 28 02 00 00 	mov    rax,QWORD PTR [rax+0x228]
    211f:	48 89 c7             	mov    rdi,rax
    2122:	e8 59 f0 ff ff       	call   1180 <free@plt>
    2127:	48 8b 45 f8          	mov    rax,QWORD PTR [rbp-0x8]
    212b:	48 8b 80 38 02 00 00 	mov    rax,QWORD PTR [rax+0x238]
    2132:	48 85 c0             	test   rax,rax
    2135:	74 13                	je     214a <fwrite@plt+0xe9a>
    2137:	48 8b 45 f8          	mov    rax,QWORD PTR [rbp-0x8]
    213b:	48 8b 80 38 02 00 00 	mov    rax,QWORD PTR [rax+0x238]
    2142:	48 89 c7             	mov    rdi,rax
    2145:	e8 36 f0 ff ff       	call   1180 <free@plt>
    214a:	48 8b 45 f8          	mov    rax,QWORD PTR [rbp-0x8]
    214e:	48 8b 80 50 02 00 00 	mov    rax,QWORD PTR [rax+0x250]
    2155:	48 85 c0             	test   rax,rax
    2158:	74 13                	je     216d <fwrite@plt+0xebd>
    215a:	48 8b 45 f8          	mov    rax,QWORD PTR [rbp-0x8]
    215e:	48 8b 80 50 02 00 00 	mov    rax,QWORD PTR [rax+0x250]
    2165:	48 89 c7             	mov    rdi,rax
    2168:	e8 13 f0 ff ff       	call   1180 <free@plt>
    216d:	48 8b 45 f8          	mov    rax,QWORD PTR [rbp-0x8]
    2171:	48 8b 80 48 02 00 00 	mov    rax,QWORD PTR [rax+0x248]
    2178:	48 85 c0             	test   rax,rax
    217b:	74 13                	je     2190 <fwrite@plt+0xee0>
    217d:	48 8b 45 f8          	mov    rax,QWORD PTR [rbp-0x8]
    2181:	48 8b 80 48 02 00 00 	mov    rax,QWORD PTR [rax+0x248]
    2188:	48 89 c7             	mov    rdi,rax
    218b:	e8 f0 ef ff ff       	call   1180 <free@plt>
    2190:	48 8b 45 f8          	mov    rax,QWORD PTR [rbp-0x8]
    2194:	48 c7 80 30 02 00 00 	mov    QWORD PTR [rax+0x230],0x0
    219b:	00 00 00 00 
    219f:	48 8b 45 f8          	mov    rax,QWORD PTR [rbp-0x8]
    21a3:	48 8b 90 30 02 00 00 	mov    rdx,QWORD PTR [rax+0x230]
    21aa:	48 8b 45 f8          	mov    rax,QWORD PTR [rbp-0x8]
    21ae:	48 89 90 28 02 00 00 	mov    QWORD PTR [rax+0x228],rdx
    21b5:	48 8b 45 f8          	mov    rax,QWORD PTR [rbp-0x8]
    21b9:	48 c7 80 40 02 00 00 	mov    QWORD PTR [rax+0x240],0x0
    21c0:	00 00 00 00 
    21c4:	48 8b 45 f8          	mov    rax,QWORD PTR [rbp-0x8]
    21c8:	48 8b 90 40 02 00 00 	mov    rdx,QWORD PTR [rax+0x240]
    21cf:	48 8b 45 f8          	mov    rax,QWORD PTR [rbp-0x8]
    21d3:	48 89 90 38 02 00 00 	mov    QWORD PTR [rax+0x238],rdx
    21da:	48 8b 45 f8          	mov    rax,QWORD PTR [rbp-0x8]
    21de:	48 c7 80 58 02 00 00 	mov    QWORD PTR [rax+0x258],0x0
    21e5:	00 00 00 00 
    21e9:	48 8b 45 f8          	mov    rax,QWORD PTR [rbp-0x8]
    21ed:	48 8b 90 58 02 00 00 	mov    rdx,QWORD PTR [rax+0x258]
    21f4:	48 8b 45 f8          	mov    rax,QWORD PTR [rbp-0x8]
    21f8:	48 89 90 50 02 00 00 	mov    QWORD PTR [rax+0x250],rdx
    21ff:	48 8b 45 f8          	mov    rax,QWORD PTR [rbp-0x8]
    2203:	48 c7 80 48 02 00 00 	mov    QWORD PTR [rax+0x248],0x0
    220a:	00 00 00 00 
    220e:	b8 00 00 00 00       	mov    eax,0x0
    2213:	c9                   	leave  
    2214:	c3                   	ret    
    2215:	f3 0f 1e fa          	endbr64 
    2219:	55                   	push   rbp
    221a:	48 89 e5             	mov    rbp,rsp
    221d:	53                   	push   rbx
    221e:	48 81 ec 38 01 00 00 	sub    rsp,0x138
    2225:	48 89 bd c8 fe ff ff 	mov    QWORD PTR [rbp-0x138],rdi
    222c:	64 48 8b 04 25 28 00 	mov    rax,QWORD PTR fs:0x28
    2233:	00 00 
    2235:	48 89 45 e8          	mov    QWORD PTR [rbp-0x18],rax
    2239:	31 c0                	xor    eax,eax
    223b:	48 c7 85 00 ff ff ff 	mov    QWORD PTR [rbp-0x100],0x0
    2242:	00 00 00 00 
    2246:	48 c7 85 f0 fe ff ff 	mov    QWORD PTR [rbp-0x110],0x0
    224d:	00 00 00 00 
    2251:	48 8b 85 c8 fe ff ff 	mov    rax,QWORD PTR [rbp-0x138]
    2258:	48 8d 35 99 70 00 00 	lea    rsi,[rip+0x7099]        # 92f8 <fwrite@plt+0x8048>
    225f:	48 89 c7             	mov    rdi,rax
    2262:	e8 09 f0 ff ff       	call   1270 <fopen@plt>
    2267:	48 89 85 00 ff ff ff 	mov    QWORD PTR [rbp-0x100],rax
    226e:	48 83 bd 00 ff ff ff 	cmp    QWORD PTR [rbp-0x100],0x0
    2275:	00 
    2276:	75 0c                	jne    2284 <fwrite@plt+0xfd4>
    2278:	48 c7 c0 ff ff ff ff 	mov    rax,0xffffffffffffffff
    227f:	e9 83 0e 00 00       	jmp    3107 <fwrite@plt+0x1e57>
    2284:	48 8b 95 00 ff ff ff 	mov    rdx,QWORD PTR [rbp-0x100]
    228b:	48 8d 85 10 ff ff ff 	lea    rax,[rbp-0xf0]
    2292:	be c8 00 00 00       	mov    esi,0xc8
    2297:	48 89 c7             	mov    rdi,rax
    229a:	e8 61 ef ff ff       	call   1200 <fgets@plt>
    229f:	48 8d 8d d8 fe ff ff 	lea    rcx,[rbp-0x128]
    22a6:	48 8d 95 d0 fe ff ff 	lea    rdx,[rbp-0x130]
    22ad:	48 8d 85 10 ff ff ff 	lea    rax,[rbp-0xf0]
    22b4:	48 8d 35 3f 70 00 00 	lea    rsi,[rip+0x703f]        # 92fa <fwrite@plt+0x804a>
    22bb:	48 89 c7             	mov    rdi,rax
    22be:	b8 00 00 00 00       	mov    eax,0x0
    22c3:	e8 88 ef ff ff       	call   1250 <__isoc99_sscanf@plt>
    22c8:	83 f8 02             	cmp    eax,0x2
    22cb:	74 0c                	je     22d9 <fwrite@plt+0x1029>
    22cd:	48 c7 c0 ff ff ff ff 	mov    rax,0xffffffffffffffff
    22d4:	e9 2e 0e 00 00       	jmp    3107 <fwrite@plt+0x1e57>
    22d9:	48 8b 95 d0 fe ff ff 	mov    rdx,QWORD PTR [rbp-0x130]
    22e0:	48 8b 85 c8 fe ff ff 	mov    rax,QWORD PTR [rbp-0x138]
    22e7:	48 89 90 98 01 00 00 	mov    QWORD PTR [rax+0x198],rdx
    22ee:	48 8b 95 d8 fe ff ff 	mov    rdx,QWORD PTR [rbp-0x128]
    22f5:	48 8b 85 c8 fe ff ff 	mov    rax,QWORD PTR [rbp-0x138]
    22fc:	48 89 90 b0 01 00 00 	mov    QWORD PTR [rax+0x1b0],rdx
    2303:	48 8b 85 d0 fe ff ff 	mov    rax,QWORD PTR [rbp-0x130]
    230a:	48 01 c0             	add    rax,rax
    230d:	48 8d 50 01          	lea    rdx,[rax+0x1]
    2311:	48 8b 85 c8 fe ff ff 	mov    rax,QWORD PTR [rbp-0x138]
    2318:	48 89 90 90 01 00 00 	mov    QWORD PTR [rax+0x190],rdx
    231f:	48 8b 95 d0 fe ff ff 	mov    rdx,QWORD PTR [rbp-0x130]
    2326:	48 89 d0             	mov    rax,rdx
    2329:	48 01 c0             	add    rax,rax
    232c:	48 01 c2             	add    rdx,rax
    232f:	48 8b 85 d8 fe ff ff 	mov    rax,QWORD PTR [rbp-0x128]
    2336:	48 01 c2             	add    rdx,rax
    2339:	48 8b 85 c8 fe ff ff 	mov    rax,QWORD PTR [rbp-0x138]
    2340:	48 89 90 a8 01 00 00 	mov    QWORD PTR [rax+0x1a8],rdx
    2347:	48 8b 85 c8 fe ff ff 	mov    rax,QWORD PTR [rbp-0x138]
    234e:	48 c7 80 80 02 00 00 	mov    QWORD PTR [rax+0x280],0xfa0
    2355:	a0 0f 00 00 
    2359:	48 8b 85 c8 fe ff ff 	mov    rax,QWORD PTR [rbp-0x138]
    2360:	48 8b 80 a8 01 00 00 	mov    rax,QWORD PTR [rax+0x1a8]
    2367:	48 8d 48 ff          	lea    rcx,[rax-0x1]
    236b:	48 ba cf f7 53 e3 a5 	movabs rdx,0x20c49ba5e353f7cf
    2372:	9b c4 20 
    2375:	48 89 c8             	mov    rax,rcx
    2378:	48 f7 ea             	imul   rdx
    237b:	48 c1 fa 09          	sar    rdx,0x9
    237f:	48 89 c8             	mov    rax,rcx
    2382:	48 c1 f8 3f          	sar    rax,0x3f
    2386:	48 29 c2             	sub    rdx,rax
    2389:	48 89 d0             	mov    rax,rdx
    238c:	48 8d 50 01          	lea    rdx,[rax+0x1]
    2390:	48 8b 85 c8 fe ff ff 	mov    rax,QWORD PTR [rbp-0x138]
    2397:	48 89 90 70 02 00 00 	mov    QWORD PTR [rax+0x270],rdx
    239e:	48 8b 85 c8 fe ff ff 	mov    rax,QWORD PTR [rbp-0x138]
    23a5:	48 8b 88 a8 01 00 00 	mov    rcx,QWORD PTR [rax+0x1a8]
    23ac:	48 ba cf f7 53 e3 a5 	movabs rdx,0x20c49ba5e353f7cf
    23b3:	9b c4 20 
    23b6:	48 89 c8             	mov    rax,rcx
    23b9:	48 f7 ea             	imul   rdx
    23bc:	48 c1 fa 09          	sar    rdx,0x9
    23c0:	48 89 c8             	mov    rax,rcx
    23c3:	48 c1 f8 3f          	sar    rax,0x3f
    23c7:	48 29 c2             	sub    rdx,rax
    23ca:	48 89 d0             	mov    rax,rdx
    23cd:	48 69 c0 a0 0f 00 00 	imul   rax,rax,0xfa0
    23d4:	48 29 c1             	sub    rcx,rax
    23d7:	48 89 c8             	mov    rax,rcx
    23da:	48 85 c0             	test   rax,rax
    23dd:	74 6b                	je     244a <fwrite@plt+0x119a>
    23df:	48 8b 85 c8 fe ff ff 	mov    rax,QWORD PTR [rbp-0x138]
    23e6:	48 8b b0 70 02 00 00 	mov    rsi,QWORD PTR [rax+0x270]
    23ed:	48 8b 85 c8 fe ff ff 	mov    rax,QWORD PTR [rbp-0x138]
    23f4:	48 8b 88 a8 01 00 00 	mov    rcx,QWORD PTR [rax+0x1a8]
    23fb:	48 ba cf f7 53 e3 a5 	movabs rdx,0x20c49ba5e353f7cf
    2402:	9b c4 20 
    2405:	48 89 c8             	mov    rax,rcx
    2408:	48 f7 ea             	imul   rdx
    240b:	48 c1 fa 09          	sar    rdx,0x9
    240f:	48 89 c8             	mov    rax,rcx
    2412:	48 c1 f8 3f          	sar    rax,0x3f
    2416:	48 29 c2             	sub    rdx,rax
    2419:	48 89 d0             	mov    rax,rdx
    241c:	48 69 c0 a0 0f 00 00 	imul   rax,rax,0xfa0
    2423:	48 29 c1             	sub    rcx,rax
    2426:	48 89 c8             	mov    rax,rcx
    2429:	ba a0 0f 00 00       	mov    edx,0xfa0
    242e:	48 29 c2             	sub    rdx,rax
    2431:	48 89 d0             	mov    rax,rdx
    2434:	48 29 c6             	sub    rsi,rax
    2437:	48 89 f2             	mov    rdx,rsi
    243a:	48 8b 85 c8 fe ff ff 	mov    rax,QWORD PTR [rbp-0x138]
    2441:	48 89 90 78 02 00 00 	mov    QWORD PTR [rax+0x278],rdx
    2448:	eb 6b                	jmp    24b5 <fwrite@plt+0x1205>
    244a:	48 8b 85 c8 fe ff ff 	mov    rax,QWORD PTR [rbp-0x138]
    2451:	48 8b 90 70 02 00 00 	mov    rdx,QWORD PTR [rax+0x270]
    2458:	48 8b 85 c8 fe ff ff 	mov    rax,QWORD PTR [rbp-0x138]
    245f:	48 89 90 78 02 00 00 	mov    QWORD PTR [rax+0x278],rdx
    2466:	eb 4d                	jmp    24b5 <fwrite@plt+0x1205>
    2468:	48 8b 85 c8 fe ff ff 	mov    rax,QWORD PTR [rbp-0x138]
    246f:	48 8b 90 70 02 00 00 	mov    rdx,QWORD PTR [rax+0x270]
    2476:	48 8b 85 c8 fe ff ff 	mov    rax,QWORD PTR [rbp-0x138]
    247d:	48 8b 80 78 02 00 00 	mov    rax,QWORD PTR [rax+0x278]
    2484:	48 01 c2             	add    rdx,rax
    2487:	48 8b 85 c8 fe ff ff 	mov    rax,QWORD PTR [rbp-0x138]
    248e:	48 89 90 78 02 00 00 	mov    QWORD PTR [rax+0x278],rdx
    2495:	48 8b 85 c8 fe ff ff 	mov    rax,QWORD PTR [rbp-0x138]
    249c:	48 8b 80 80 02 00 00 	mov    rax,QWORD PTR [rax+0x280]
    24a3:	48 8d 50 ff          	lea    rdx,[rax-0x1]
    24a7:	48 8b 85 c8 fe ff ff 	mov    rax,QWORD PTR [rbp-0x138]
    24ae:	48 89 90 80 02 00 00 	mov    QWORD PTR [rax+0x280],rdx
    24b5:	48 8b 85 c8 fe ff ff 	mov    rax,QWORD PTR [rbp-0x138]
    24bc:	48 8b 80 78 02 00 00 	mov    rax,QWORD PTR [rax+0x278]
    24c3:	48 85 c0             	test   rax,rax
    24c6:	78 a0                	js     2468 <fwrite@plt+0x11b8>
    24c8:	48 8b 85 c8 fe ff ff 	mov    rax,QWORD PTR [rbp-0x138]
    24cf:	48 8b 80 98 01 00 00 	mov    rax,QWORD PTR [rax+0x198]
    24d6:	48 3d 98 3a 00 00    	cmp    rax,0x3a98
    24dc:	7f 60                	jg     253e <fwrite@plt+0x128e>
    24de:	48 8b 85 c8 fe ff ff 	mov    rax,QWORD PTR [rbp-0x138]
    24e5:	48 8b 90 a8 01 00 00 	mov    rdx,QWORD PTR [rax+0x1a8]
    24ec:	48 8b 85 c8 fe ff ff 	mov    rax,QWORD PTR [rbp-0x138]
    24f3:	48 89 90 a0 01 00 00 	mov    QWORD PTR [rax+0x1a0],rdx
    24fa:	48 8b 85 c8 fe ff ff 	mov    rax,QWORD PTR [rbp-0x138]
    2501:	48 c7 80 c8 01 00 00 	mov    QWORD PTR [rax+0x1c8],0x1e8480
    2508:	80 84 1e 00 
    250c:	48 8b 85 c8 fe ff ff 	mov    rax,QWORD PTR [rbp-0x138]
    2513:	48 8b 90 a0 01 00 00 	mov    rdx,QWORD PTR [rax+0x1a0]
    251a:	48 8b 85 c8 fe ff ff 	mov    rax,QWORD PTR [rbp-0x138]
    2521:	48 8b 80 a8 01 00 00 	mov    rax,QWORD PTR [rax+0x1a8]
    2528:	48 29 c2             	sub    rdx,rax
    252b:	48 8b 85 c8 fe ff ff 	mov    rax,QWORD PTR [rbp-0x138]
    2532:	48 89 90 c0 01 00 00 	mov    QWORD PTR [rax+0x1c0],rdx
    2539:	e9 c4 00 00 00       	jmp    2602 <fwrite@plt+0x1352>
    253e:	48 8b 85 c8 fe ff ff 	mov    rax,QWORD PTR [rbp-0x138]
    2545:	48 8b 80 a8 01 00 00 	mov    rax,QWORD PTR [rax+0x1a8]
    254c:	48 8d 90 3f 4b 4c 00 	lea    rdx,[rax+0x4c4b3f]
    2553:	48 8b 85 c8 fe ff ff 	mov    rax,QWORD PTR [rbp-0x138]
    255a:	48 8b 80 a8 01 00 00 	mov    rax,QWORD PTR [rax+0x1a8]
    2561:	c4 e1 fb 2a c0       	vcvtsi2sd xmm0,xmm0,rax
    2566:	c5 fb 10 0d c2 6d 00 	vmovsd xmm1,QWORD PTR [rip+0x6dc2]        # 9330 <fwrite@plt+0x8080>
    256d:	00 
    256e:	c5 fb 59 c1          	vmulsd xmm0,xmm0,xmm1
    2572:	c4 e1 fb 2c c0       	vcvttsd2si rax,xmm0
    2577:	c4 e1 fb 2a c0       	vcvtsi2sd xmm0,xmm0,rax
    257c:	c5 fb 10 0d ac 6d 00 	vmovsd xmm1,QWORD PTR [rip+0x6dac]        # 9330 <fwrite@plt+0x8080>
    2583:	00 
    2584:	c5 fb 59 c1          	vmulsd xmm0,xmm0,xmm1
    2588:	c4 e1 fb 2c c0       	vcvttsd2si rax,xmm0
    258d:	48 39 c2             	cmp    rdx,rax
    2590:	7c 16                	jl     25a8 <fwrite@plt+0x12f8>
    2592:	48 8b 85 c8 fe ff ff 	mov    rax,QWORD PTR [rbp-0x138]
    2599:	48 8b 80 a8 01 00 00 	mov    rax,QWORD PTR [rax+0x1a8]
    25a0:	48 05 40 4b 4c 00    	add    rax,0x4c4b40
    25a6:	eb 3a                	jmp    25e2 <fwrite@plt+0x1332>
    25a8:	48 8b 85 c8 fe ff ff 	mov    rax,QWORD PTR [rbp-0x138]
    25af:	48 8b 80 a8 01 00 00 	mov    rax,QWORD PTR [rax+0x1a8]
    25b6:	c4 e1 fb 2a c0       	vcvtsi2sd xmm0,xmm0,rax
    25bb:	c5 fb 10 0d 6d 6d 00 	vmovsd xmm1,QWORD PTR [rip+0x6d6d]        # 9330 <fwrite@plt+0x8080>
    25c2:	00 
    25c3:	c5 fb 59 c1          	vmulsd xmm0,xmm0,xmm1
    25c7:	c4 e1 fb 2c c0       	vcvttsd2si rax,xmm0
    25cc:	c4 e1 fb 2a c0       	vcvtsi2sd xmm0,xmm0,rax
    25d1:	c5 fb 10 0d 57 6d 00 	vmovsd xmm1,QWORD PTR [rip+0x6d57]        # 9330 <fwrite@plt+0x8080>
    25d8:	00 
    25d9:	c5 fb 59 c1          	vmulsd xmm0,xmm0,xmm1
    25dd:	c4 e1 fb 2c c0       	vcvttsd2si rax,xmm0
    25e2:	48 8b 95 c8 fe ff ff 	mov    rdx,QWORD PTR [rbp-0x138]
    25e9:	48 89 82 a0 01 00 00 	mov    QWORD PTR [rdx+0x1a0],rax
    25f0:	48 8b 85 c8 fe ff ff 	mov    rax,QWORD PTR [rbp-0x138]
    25f7:	48 c7 80 c8 01 00 00 	mov    QWORD PTR [rax+0x1c8],0x1b8faa0
    25fe:	a0 fa b8 01 
    2602:	48 8b 85 c8 fe ff ff 	mov    rax,QWORD PTR [rbp-0x138]
    2609:	48 8b 80 90 01 00 00 	mov    rax,QWORD PTR [rax+0x190]
    2610:	48 ff c0             	inc    rax
    2613:	be 68 00 00 00       	mov    esi,0x68
    2618:	48 89 c7             	mov    rdi,rax
    261b:	e8 f0 eb ff ff       	call   1210 <calloc@plt>
    2620:	48 89 c2             	mov    rdx,rax
    2623:	48 8b 85 c8 fe ff ff 	mov    rax,QWORD PTR [rbp-0x138]
    262a:	48 89 90 28 02 00 00 	mov    QWORD PTR [rax+0x228],rdx
    2631:	48 8b 85 c8 fe ff ff 	mov    rax,QWORD PTR [rbp-0x138]
    2638:	48 8b 80 90 01 00 00 	mov    rax,QWORD PTR [rax+0x190]
    263f:	be 48 00 00 00       	mov    esi,0x48
    2644:	48 89 c7             	mov    rdi,rax
    2647:	e8 c4 eb ff ff       	call   1210 <calloc@plt>
    264c:	48 89 c2             	mov    rdx,rax
    264f:	48 8b 85 c8 fe ff ff 	mov    rax,QWORD PTR [rbp-0x138]
    2656:	48 89 90 50 02 00 00 	mov    QWORD PTR [rax+0x250],rdx
    265d:	48 8b 85 c8 fe ff ff 	mov    rax,QWORD PTR [rbp-0x138]
    2664:	48 8b 80 a0 01 00 00 	mov    rax,QWORD PTR [rax+0x1a0]
    266b:	be 48 00 00 00       	mov    esi,0x48
    2670:	48 89 c7             	mov    rdi,rax
    2673:	e8 98 eb ff ff       	call   1210 <calloc@plt>
    2678:	48 89 c2             	mov    rdx,rax
    267b:	48 8b 85 c8 fe ff ff 	mov    rax,QWORD PTR [rbp-0x138]
    2682:	48 89 90 48 02 00 00 	mov    QWORD PTR [rax+0x248],rdx
    2689:	48 8b 85 c8 fe ff ff 	mov    rax,QWORD PTR [rbp-0x138]
    2690:	48 8b 80 a0 01 00 00 	mov    rax,QWORD PTR [rax+0x1a0]
    2697:	be 48 00 00 00       	mov    esi,0x48
    269c:	48 89 c7             	mov    rdi,rax
    269f:	e8 6c eb ff ff       	call   1210 <calloc@plt>
    26a4:	48 89 c2             	mov    rdx,rax
    26a7:	48 8b 85 c8 fe ff ff 	mov    rax,QWORD PTR [rbp-0x138]
    26ae:	48 89 90 38 02 00 00 	mov    QWORD PTR [rax+0x238],rdx
    26b5:	48 8b 85 c8 fe ff ff 	mov    rax,QWORD PTR [rbp-0x138]
    26bc:	48 8b 80 28 02 00 00 	mov    rax,QWORD PTR [rax+0x228]
    26c3:	48 85 c0             	test   rax,rax
    26c6:	74 39                	je     2701 <fwrite@plt+0x1451>
    26c8:	48 8b 85 c8 fe ff ff 	mov    rax,QWORD PTR [rbp-0x138]
    26cf:	48 8b 80 38 02 00 00 	mov    rax,QWORD PTR [rax+0x238]
    26d6:	48 85 c0             	test   rax,rax
    26d9:	74 26                	je     2701 <fwrite@plt+0x1451>
    26db:	48 8b 85 c8 fe ff ff 	mov    rax,QWORD PTR [rbp-0x138]
    26e2:	48 8b 80 50 02 00 00 	mov    rax,QWORD PTR [rax+0x250]
    26e9:	48 85 c0             	test   rax,rax
    26ec:	74 13                	je     2701 <fwrite@plt+0x1451>
    26ee:	48 8b 85 c8 fe ff ff 	mov    rax,QWORD PTR [rbp-0x138]
    26f5:	48 8b 80 48 02 00 00 	mov    rax,QWORD PTR [rax+0x248]
    26fc:	48 85 c0             	test   rax,rax
    26ff:	75 27                	jne    2728 <fwrite@plt+0x1478>
    2701:	48 8d 3d fa 6b 00 00 	lea    rdi,[rip+0x6bfa]        # 9302 <fwrite@plt+0x8052>
    2708:	e8 a3 ea ff ff       	call   11b0 <puts@plt>
    270d:	48 8b 85 c8 fe ff ff 	mov    rax,QWORD PTR [rbp-0x138]
    2714:	48 89 c7             	mov    rdi,rax
    2717:	e8 d8 f9 ff ff       	call   20f4 <fwrite@plt+0xe44>
    271c:	48 c7 c0 ff ff ff ff 	mov    rax,0xffffffffffffffff
    2723:	e9 df 09 00 00       	jmp    3107 <fwrite@plt+0x1e57>
    2728:	48 8b 85 c8 fe ff ff 	mov    rax,QWORD PTR [rbp-0x138]
    272f:	48 8b 90 28 02 00 00 	mov    rdx,QWORD PTR [rax+0x228]
    2736:	48 8b 85 c8 fe ff ff 	mov    rax,QWORD PTR [rbp-0x138]
    273d:	48 8b 80 90 01 00 00 	mov    rax,QWORD PTR [rax+0x190]
    2744:	48 ff c0             	inc    rax
    2747:	48 6b c0 68          	imul   rax,rax,0x68
    274b:	48 01 c2             	add    rdx,rax
    274e:	48 8b 85 c8 fe ff ff 	mov    rax,QWORD PTR [rbp-0x138]
    2755:	48 89 90 30 02 00 00 	mov    QWORD PTR [rax+0x230],rdx
    275c:	48 8b 85 c8 fe ff ff 	mov    rax,QWORD PTR [rbp-0x138]
    2763:	48 8b 88 38 02 00 00 	mov    rcx,QWORD PTR [rax+0x238]
    276a:	48 8b 85 c8 fe ff ff 	mov    rax,QWORD PTR [rbp-0x138]
    2771:	48 8b 80 a8 01 00 00 	mov    rax,QWORD PTR [rax+0x1a8]
    2778:	48 89 c2             	mov    rdx,rax
    277b:	48 89 d0             	mov    rax,rdx
    277e:	48 c1 e0 03          	shl    rax,0x3
    2782:	48 01 d0             	add    rax,rdx
    2785:	48 c1 e0 03          	shl    rax,0x3
    2789:	48 8d 14 01          	lea    rdx,[rcx+rax*1]
    278d:	48 8b 85 c8 fe ff ff 	mov    rax,QWORD PTR [rbp-0x138]
    2794:	48 89 90 40 02 00 00 	mov    QWORD PTR [rax+0x240],rdx
    279b:	48 8b 85 c8 fe ff ff 	mov    rax,QWORD PTR [rbp-0x138]
    27a2:	48 8b 88 50 02 00 00 	mov    rcx,QWORD PTR [rax+0x250]
    27a9:	48 8b 85 c8 fe ff ff 	mov    rax,QWORD PTR [rbp-0x138]
    27b0:	48 8b 80 90 01 00 00 	mov    rax,QWORD PTR [rax+0x190]
    27b7:	48 89 c2             	mov    rdx,rax
    27ba:	48 89 d0             	mov    rax,rdx
    27bd:	48 c1 e0 03          	shl    rax,0x3
    27c1:	48 01 d0             	add    rax,rdx
    27c4:	48 c1 e0 03          	shl    rax,0x3
    27c8:	48 8d 14 01          	lea    rdx,[rcx+rax*1]
    27cc:	48 8b 85 c8 fe ff ff 	mov    rax,QWORD PTR [rbp-0x138]
    27d3:	48 89 90 58 02 00 00 	mov    QWORD PTR [rax+0x258],rdx
    27da:	48 8b 85 c8 fe ff ff 	mov    rax,QWORD PTR [rbp-0x138]
    27e1:	48 8b 80 28 02 00 00 	mov    rax,QWORD PTR [rax+0x228]
    27e8:	48 89 85 08 ff ff ff 	mov    QWORD PTR [rbp-0xf8],rax
    27ef:	48 8b 85 c8 fe ff ff 	mov    rax,QWORD PTR [rbp-0x138]
    27f6:	48 8b 80 38 02 00 00 	mov    rax,QWORD PTR [rax+0x238]
    27fd:	48 89 85 f8 fe ff ff 	mov    QWORD PTR [rbp-0x108],rax
    2804:	48 c7 85 e8 fe ff ff 	mov    QWORD PTR [rbp-0x118],0x1
    280b:	01 00 00 00 
    280f:	e9 19 05 00 00       	jmp    2d2d <fwrite@plt+0x1a7d>
    2814:	48 8b 95 00 ff ff ff 	mov    rdx,QWORD PTR [rbp-0x100]
    281b:	48 8d 85 10 ff ff ff 	lea    rax,[rbp-0xf0]
    2822:	be c8 00 00 00       	mov    esi,0xc8
    2827:	48 89 c7             	mov    rdi,rax
    282a:	e8 d1 e9 ff ff       	call   1200 <fgets@plt>
    282f:	48 8d 8d d8 fe ff ff 	lea    rcx,[rbp-0x128]
    2836:	48 8d 95 d0 fe ff ff 	lea    rdx,[rbp-0x130]
    283d:	48 8d 85 10 ff ff ff 	lea    rax,[rbp-0xf0]
    2844:	48 8d 35 af 6a 00 00 	lea    rsi,[rip+0x6aaf]        # 92fa <fwrite@plt+0x804a>
    284b:	48 89 c7             	mov    rdi,rax
    284e:	b8 00 00 00 00       	mov    eax,0x0
    2853:	e8 f8 e9 ff ff       	call   1250 <__isoc99_sscanf@plt>
    2858:	83 f8 02             	cmp    eax,0x2
    285b:	75 13                	jne    2870 <fwrite@plt+0x15c0>
    285d:	48 8b 95 d0 fe ff ff 	mov    rdx,QWORD PTR [rbp-0x130]
    2864:	48 8b 85 d8 fe ff ff 	mov    rax,QWORD PTR [rbp-0x128]
    286b:	48 39 c2             	cmp    rdx,rax
    286e:	7e 0c                	jle    287c <fwrite@plt+0x15cc>
    2870:	48 c7 c0 ff ff ff ff 	mov    rax,0xffffffffffffffff
    2877:	e9 8b 08 00 00       	jmp    3107 <fwrite@plt+0x1e57>
    287c:	48 8b 85 e8 fe ff ff 	mov    rax,QWORD PTR [rbp-0x118]
    2883:	f7 d8                	neg    eax
    2885:	89 c1                	mov    ecx,eax
    2887:	48 8b 85 e8 fe ff ff 	mov    rax,QWORD PTR [rbp-0x118]
    288e:	48 6b d0 68          	imul   rdx,rax,0x68
    2892:	48 8b 85 08 ff ff ff 	mov    rax,QWORD PTR [rbp-0xf8]
    2899:	48 01 d0             	add    rax,rdx
    289c:	89 ca                	mov    edx,ecx
    289e:	89 50 60             	mov    DWORD PTR [rax+0x60],edx
    28a1:	48 8b 85 e8 fe ff ff 	mov    rax,QWORD PTR [rbp-0x118]
    28a8:	48 6b d0 68          	imul   rdx,rax,0x68
    28ac:	48 8b 85 08 ff ff ff 	mov    rax,QWORD PTR [rbp-0xf8]
    28b3:	48 01 d0             	add    rax,rdx
    28b6:	48 c7 40 50 ff ff ff 	mov    QWORD PTR [rax+0x50],0xffffffffffffffff
    28bd:	ff 
    28be:	48 8b 85 c8 fe ff ff 	mov    rax,QWORD PTR [rbp-0x138]
    28c5:	48 8b 90 98 01 00 00 	mov    rdx,QWORD PTR [rax+0x198]
    28cc:	48 8b 85 e8 fe ff ff 	mov    rax,QWORD PTR [rbp-0x118]
    28d3:	48 01 d0             	add    rax,rdx
    28d6:	48 6b d0 68          	imul   rdx,rax,0x68
    28da:	48 8b 85 08 ff ff ff 	mov    rax,QWORD PTR [rbp-0xf8]
    28e1:	48 01 d0             	add    rax,rdx
    28e4:	48 8b 95 e8 fe ff ff 	mov    rdx,QWORD PTR [rbp-0x118]
    28eb:	89 50 60             	mov    DWORD PTR [rax+0x60],edx
    28ee:	48 8b 85 c8 fe ff ff 	mov    rax,QWORD PTR [rbp-0x138]
    28f5:	48 8b 90 98 01 00 00 	mov    rdx,QWORD PTR [rax+0x198]
    28fc:	48 8b 85 e8 fe ff ff 	mov    rax,QWORD PTR [rbp-0x118]
    2903:	48 01 d0             	add    rax,rdx
    2906:	48 6b d0 68          	imul   rdx,rax,0x68
    290a:	48 8b 85 08 ff ff ff 	mov    rax,QWORD PTR [rbp-0xf8]
    2911:	48 01 d0             	add    rax,rdx
    2914:	48 c7 40 50 01 00 00 	mov    QWORD PTR [rax+0x50],0x1
    291b:	00 
    291c:	48 8b 95 d0 fe ff ff 	mov    rdx,QWORD PTR [rbp-0x130]
    2923:	48 8b 85 e8 fe ff ff 	mov    rax,QWORD PTR [rbp-0x118]
    292a:	48 6b c8 68          	imul   rcx,rax,0x68
    292e:	48 8b 85 08 ff ff ff 	mov    rax,QWORD PTR [rbp-0xf8]
    2935:	48 01 c8             	add    rax,rcx
    2938:	89 50 64             	mov    DWORD PTR [rax+0x64],edx
    293b:	48 8b 95 d8 fe ff ff 	mov    rdx,QWORD PTR [rbp-0x128]
    2942:	48 8b 85 c8 fe ff ff 	mov    rax,QWORD PTR [rbp-0x138]
    2949:	48 8b 88 98 01 00 00 	mov    rcx,QWORD PTR [rax+0x198]
    2950:	48 8b 85 e8 fe ff ff 	mov    rax,QWORD PTR [rbp-0x118]
    2957:	48 01 c8             	add    rax,rcx
    295a:	48 6b c8 68          	imul   rcx,rax,0x68
    295e:	48 8b 85 08 ff ff ff 	mov    rax,QWORD PTR [rbp-0xf8]
    2965:	48 01 c8             	add    rax,rcx
    2968:	89 50 64             	mov    DWORD PTR [rax+0x64],edx
    296b:	48 8b 85 f0 fe ff ff 	mov    rax,QWORD PTR [rbp-0x110]
    2972:	89 c2                	mov    edx,eax
    2974:	48 8b 85 f8 fe ff ff 	mov    rax,QWORD PTR [rbp-0x108]
    297b:	89 10                	mov    DWORD PTR [rax],edx
    297d:	48 8b 85 c8 fe ff ff 	mov    rax,QWORD PTR [rbp-0x138]
    2984:	48 8b 80 90 01 00 00 	mov    rax,QWORD PTR [rax+0x190]
    298b:	48 6b d0 68          	imul   rdx,rax,0x68
    298f:	48 8b 85 08 ff ff ff 	mov    rax,QWORD PTR [rbp-0xf8]
    2996:	48 01 c2             	add    rdx,rax
    2999:	48 8b 85 f8 fe ff ff 	mov    rax,QWORD PTR [rbp-0x108]
    29a0:	48 89 50 10          	mov    QWORD PTR [rax+0x10],rdx
    29a4:	48 8b 85 e8 fe ff ff 	mov    rax,QWORD PTR [rbp-0x118]
    29ab:	48 6b d0 68          	imul   rdx,rax,0x68
    29af:	48 8b 85 08 ff ff ff 	mov    rax,QWORD PTR [rbp-0xf8]
    29b6:	48 01 c2             	add    rdx,rax
    29b9:	48 8b 85 f8 fe ff ff 	mov    rax,QWORD PTR [rbp-0x108]
    29c0:	48 89 50 18          	mov    QWORD PTR [rax+0x18],rdx
    29c4:	48 8b 85 c8 fe ff ff 	mov    rax,QWORD PTR [rbp-0x138]
    29cb:	48 8b 80 10 02 00 00 	mov    rax,QWORD PTR [rax+0x210]
    29d2:	48 8d 50 0f          	lea    rdx,[rax+0xf]
    29d6:	48 8b 85 f8 fe ff ff 	mov    rax,QWORD PTR [rbp-0x108]
    29dd:	48 89 50 08          	mov    QWORD PTR [rax+0x8],rdx
    29e1:	48 8b 85 f8 fe ff ff 	mov    rax,QWORD PTR [rbp-0x108]
    29e8:	48 8b 50 08          	mov    rdx,QWORD PTR [rax+0x8]
    29ec:	48 8b 85 f8 fe ff ff 	mov    rax,QWORD PTR [rbp-0x108]
    29f3:	48 89 50 40          	mov    QWORD PTR [rax+0x40],rdx
    29f7:	48 8b 85 f8 fe ff ff 	mov    rax,QWORD PTR [rbp-0x108]
    29fe:	48 8b 40 10          	mov    rax,QWORD PTR [rax+0x10]
    2a02:	48 8b 50 38          	mov    rdx,QWORD PTR [rax+0x38]
    2a06:	48 8b 85 f8 fe ff ff 	mov    rax,QWORD PTR [rbp-0x108]
    2a0d:	48 89 50 28          	mov    QWORD PTR [rax+0x28],rdx
    2a11:	48 8b 85 f8 fe ff ff 	mov    rax,QWORD PTR [rbp-0x108]
    2a18:	48 8b 40 10          	mov    rax,QWORD PTR [rax+0x10]
    2a1c:	48 8b 95 f8 fe ff ff 	mov    rdx,QWORD PTR [rbp-0x108]
    2a23:	48 89 50 38          	mov    QWORD PTR [rax+0x38],rdx
    2a27:	48 8b 85 f8 fe ff ff 	mov    rax,QWORD PTR [rbp-0x108]
    2a2e:	48 8b 40 18          	mov    rax,QWORD PTR [rax+0x18]
    2a32:	48 8b 50 40          	mov    rdx,QWORD PTR [rax+0x40]
    2a36:	48 8b 85 f8 fe ff ff 	mov    rax,QWORD PTR [rbp-0x108]
    2a3d:	48 89 50 30          	mov    QWORD PTR [rax+0x30],rdx
    2a41:	48 8b 85 f8 fe ff ff 	mov    rax,QWORD PTR [rbp-0x108]
    2a48:	48 8b 40 18          	mov    rax,QWORD PTR [rax+0x18]
    2a4c:	48 8b 95 f8 fe ff ff 	mov    rdx,QWORD PTR [rbp-0x108]
    2a53:	48 89 50 40          	mov    QWORD PTR [rax+0x40],rdx
    2a57:	48 8b 85 c8 fe ff ff 	mov    rax,QWORD PTR [rbp-0x138]
    2a5e:	48 8b 98 38 02 00 00 	mov    rbx,QWORD PTR [rax+0x238]
    2a65:	48 ff 85 f0 fe ff ff 	inc    QWORD PTR [rbp-0x110]
    2a6c:	48 8b 95 f0 fe ff ff 	mov    rdx,QWORD PTR [rbp-0x110]
    2a73:	48 8b 85 c8 fe ff ff 	mov    rax,QWORD PTR [rbp-0x138]
    2a7a:	48 89 d6             	mov    rsi,rdx
    2a7d:	48 89 c7             	mov    rdi,rax
    2a80:	e8 49 f0 ff ff       	call   1ace <fwrite@plt+0x81e>
    2a85:	48 89 c2             	mov    rdx,rax
    2a88:	48 89 d0             	mov    rax,rdx
    2a8b:	48 c1 e0 03          	shl    rax,0x3
    2a8f:	48 01 d0             	add    rax,rdx
    2a92:	48 c1 e0 03          	shl    rax,0x3
    2a96:	48 01 d8             	add    rax,rbx
    2a99:	48 89 85 f8 fe ff ff 	mov    QWORD PTR [rbp-0x108],rax
    2aa0:	48 8b 85 f0 fe ff ff 	mov    rax,QWORD PTR [rbp-0x110]
    2aa7:	89 c2                	mov    edx,eax
    2aa9:	48 8b 85 f8 fe ff ff 	mov    rax,QWORD PTR [rbp-0x108]
    2ab0:	89 10                	mov    DWORD PTR [rax],edx
    2ab2:	48 8b 85 c8 fe ff ff 	mov    rax,QWORD PTR [rbp-0x138]
    2ab9:	48 8b 90 98 01 00 00 	mov    rdx,QWORD PTR [rax+0x198]
    2ac0:	48 8b 85 e8 fe ff ff 	mov    rax,QWORD PTR [rbp-0x118]
    2ac7:	48 01 d0             	add    rax,rdx
    2aca:	48 6b d0 68          	imul   rdx,rax,0x68
    2ace:	48 8b 85 08 ff ff ff 	mov    rax,QWORD PTR [rbp-0xf8]
    2ad5:	48 01 c2             	add    rdx,rax
    2ad8:	48 8b 85 f8 fe ff ff 	mov    rax,QWORD PTR [rbp-0x108]
    2adf:	48 89 50 10          	mov    QWORD PTR [rax+0x10],rdx
    2ae3:	48 8b 85 c8 fe ff ff 	mov    rax,QWORD PTR [rbp-0x138]
    2aea:	48 8b 80 90 01 00 00 	mov    rax,QWORD PTR [rax+0x190]
    2af1:	48 6b d0 68          	imul   rdx,rax,0x68
    2af5:	48 8b 85 08 ff ff ff 	mov    rax,QWORD PTR [rbp-0xf8]
    2afc:	48 01 c2             	add    rdx,rax
    2aff:	48 8b 85 f8 fe ff ff 	mov    rax,QWORD PTR [rbp-0x108]
    2b06:	48 89 50 18          	mov    QWORD PTR [rax+0x18],rdx
    2b0a:	48 8b 85 f8 fe ff ff 	mov    rax,QWORD PTR [rbp-0x108]
    2b11:	48 c7 40 08 0f 00 00 	mov    QWORD PTR [rax+0x8],0xf
    2b18:	00 
    2b19:	48 8b 85 f8 fe ff ff 	mov    rax,QWORD PTR [rbp-0x108]
    2b20:	48 8b 50 08          	mov    rdx,QWORD PTR [rax+0x8]
    2b24:	48 8b 85 f8 fe ff ff 	mov    rax,QWORD PTR [rbp-0x108]
    2b2b:	48 89 50 40          	mov    QWORD PTR [rax+0x40],rdx
    2b2f:	48 8b 85 f8 fe ff ff 	mov    rax,QWORD PTR [rbp-0x108]
    2b36:	48 8b 40 10          	mov    rax,QWORD PTR [rax+0x10]
    2b3a:	48 8b 50 38          	mov    rdx,QWORD PTR [rax+0x38]
    2b3e:	48 8b 85 f8 fe ff ff 	mov    rax,QWORD PTR [rbp-0x108]
    2b45:	48 89 50 28          	mov    QWORD PTR [rax+0x28],rdx
    2b49:	48 8b 85 f8 fe ff ff 	mov    rax,QWORD PTR [rbp-0x108]
    2b50:	48 8b 40 10          	mov    rax,QWORD PTR [rax+0x10]
    2b54:	48 8b 95 f8 fe ff ff 	mov    rdx,QWORD PTR [rbp-0x108]
    2b5b:	48 89 50 38          	mov    QWORD PTR [rax+0x38],rdx
    2b5f:	48 8b 85 f8 fe ff ff 	mov    rax,QWORD PTR [rbp-0x108]
    2b66:	48 8b 40 18          	mov    rax,QWORD PTR [rax+0x18]
    2b6a:	48 8b 50 40          	mov    rdx,QWORD PTR [rax+0x40]
    2b6e:	48 8b 85 f8 fe ff ff 	mov    rax,QWORD PTR [rbp-0x108]
    2b75:	48 89 50 30          	mov    QWORD PTR [rax+0x30],rdx
    2b79:	48 8b 85 f8 fe ff ff 	mov    rax,QWORD PTR [rbp-0x108]
    2b80:	48 8b 40 18          	mov    rax,QWORD PTR [rax+0x18]
    2b84:	48 8b 95 f8 fe ff ff 	mov    rdx,QWORD PTR [rbp-0x108]
    2b8b:	48 89 50 40          	mov    QWORD PTR [rax+0x40],rdx
    2b8f:	48 8b 85 c8 fe ff ff 	mov    rax,QWORD PTR [rbp-0x138]
    2b96:	48 8b 98 38 02 00 00 	mov    rbx,QWORD PTR [rax+0x238]
    2b9d:	48 ff 85 f0 fe ff ff 	inc    QWORD PTR [rbp-0x110]
    2ba4:	48 8b 95 f0 fe ff ff 	mov    rdx,QWORD PTR [rbp-0x110]
    2bab:	48 8b 85 c8 fe ff ff 	mov    rax,QWORD PTR [rbp-0x138]
    2bb2:	48 89 d6             	mov    rsi,rdx
    2bb5:	48 89 c7             	mov    rdi,rax
    2bb8:	e8 11 ef ff ff       	call   1ace <fwrite@plt+0x81e>
    2bbd:	48 89 c2             	mov    rdx,rax
    2bc0:	48 89 d0             	mov    rax,rdx
    2bc3:	48 c1 e0 03          	shl    rax,0x3
    2bc7:	48 01 d0             	add    rax,rdx
    2bca:	48 c1 e0 03          	shl    rax,0x3
    2bce:	48 01 d8             	add    rax,rbx
    2bd1:	48 89 85 f8 fe ff ff 	mov    QWORD PTR [rbp-0x108],rax
    2bd8:	48 8b 85 f0 fe ff ff 	mov    rax,QWORD PTR [rbp-0x110]
    2bdf:	89 c2                	mov    edx,eax
    2be1:	48 8b 85 f8 fe ff ff 	mov    rax,QWORD PTR [rbp-0x108]
    2be8:	89 10                	mov    DWORD PTR [rax],edx
    2bea:	48 8b 85 e8 fe ff ff 	mov    rax,QWORD PTR [rbp-0x118]
    2bf1:	48 6b d0 68          	imul   rdx,rax,0x68
    2bf5:	48 8b 85 08 ff ff ff 	mov    rax,QWORD PTR [rbp-0xf8]
    2bfc:	48 01 c2             	add    rdx,rax
    2bff:	48 8b 85 f8 fe ff ff 	mov    rax,QWORD PTR [rbp-0x108]
    2c06:	48 89 50 10          	mov    QWORD PTR [rax+0x10],rdx
    2c0a:	48 8b 85 c8 fe ff ff 	mov    rax,QWORD PTR [rbp-0x138]
    2c11:	48 8b 90 98 01 00 00 	mov    rdx,QWORD PTR [rax+0x198]
    2c18:	48 8b 85 e8 fe ff ff 	mov    rax,QWORD PTR [rbp-0x118]
    2c1f:	48 01 d0             	add    rax,rdx
    2c22:	48 6b d0 68          	imul   rdx,rax,0x68
    2c26:	48 8b 85 08 ff ff ff 	mov    rax,QWORD PTR [rbp-0xf8]
    2c2d:	48 01 c2             	add    rdx,rax
    2c30:	48 8b 85 f8 fe ff ff 	mov    rax,QWORD PTR [rbp-0x108]
    2c37:	48 89 50 18          	mov    QWORD PTR [rax+0x18],rdx
    2c3b:	48 8b 85 c8 fe ff ff 	mov    rax,QWORD PTR [rbp-0x138]
    2c42:	48 8b 80 10 02 00 00 	mov    rax,QWORD PTR [rax+0x210]
    2c49:	ba 80 96 98 00       	mov    edx,0x989680
    2c4e:	48 3d 80 96 98 00    	cmp    rax,0x989680
    2c54:	48 0f 4c c2          	cmovl  rax,rdx
    2c58:	48 8d 14 00          	lea    rdx,[rax+rax*1]
    2c5c:	48 8b 85 f8 fe ff ff 	mov    rax,QWORD PTR [rbp-0x108]
    2c63:	48 89 50 08          	mov    QWORD PTR [rax+0x8],rdx
    2c67:	48 8b 85 f8 fe ff ff 	mov    rax,QWORD PTR [rbp-0x108]
    2c6e:	48 8b 50 08          	mov    rdx,QWORD PTR [rax+0x8]
    2c72:	48 8b 85 f8 fe ff ff 	mov    rax,QWORD PTR [rbp-0x108]
    2c79:	48 89 50 40          	mov    QWORD PTR [rax+0x40],rdx
    2c7d:	48 8b 85 f8 fe ff ff 	mov    rax,QWORD PTR [rbp-0x108]
    2c84:	48 8b 40 10          	mov    rax,QWORD PTR [rax+0x10]
    2c88:	48 8b 50 38          	mov    rdx,QWORD PTR [rax+0x38]
    2c8c:	48 8b 85 f8 fe ff ff 	mov    rax,QWORD PTR [rbp-0x108]
    2c93:	48 89 50 28          	mov    QWORD PTR [rax+0x28],rdx
    2c97:	48 8b 85 f8 fe ff ff 	mov    rax,QWORD PTR [rbp-0x108]
    2c9e:	48 8b 40 10          	mov    rax,QWORD PTR [rax+0x10]
    2ca2:	48 8b 95 f8 fe ff ff 	mov    rdx,QWORD PTR [rbp-0x108]
    2ca9:	48 89 50 38          	mov    QWORD PTR [rax+0x38],rdx
    2cad:	48 8b 85 f8 fe ff ff 	mov    rax,QWORD PTR [rbp-0x108]
    2cb4:	48 8b 40 18          	mov    rax,QWORD PTR [rax+0x18]
    2cb8:	48 8b 50 40          	mov    rdx,QWORD PTR [rax+0x40]
    2cbc:	48 8b 85 f8 fe ff ff 	mov    rax,QWORD PTR [rbp-0x108]
    2cc3:	48 89 50 30          	mov    QWORD PTR [rax+0x30],rdx
    2cc7:	48 8b 85 f8 fe ff ff 	mov    rax,QWORD PTR [rbp-0x108]
    2cce:	48 8b 40 18          	mov    rax,QWORD PTR [rax+0x18]
    2cd2:	48 8b 95 f8 fe ff ff 	mov    rdx,QWORD PTR [rbp-0x108]
    2cd9:	48 89 50 40          	mov    QWORD PTR [rax+0x40],rdx
    2cdd:	48 8b 85 c8 fe ff ff 	mov    rax,QWORD PTR [rbp-0x138]
    2ce4:	48 8b 98 38 02 00 00 	mov    rbx,QWORD PTR [rax+0x238]
    2ceb:	48 ff 85 f0 fe ff ff 	inc    QWORD PTR [rbp-0x110]
    2cf2:	48 8b 95 f0 fe ff ff 	mov    rdx,QWORD PTR [rbp-0x110]
    2cf9:	48 8b 85 c8 fe ff ff 	mov    rax,QWORD PTR [rbp-0x138]
    2d00:	48 89 d6             	mov    rsi,rdx
    2d03:	48 89 c7             	mov    rdi,rax
    2d06:	e8 c3 ed ff ff       	call   1ace <fwrite@plt+0x81e>
    2d0b:	48 89 c2             	mov    rdx,rax
    2d0e:	48 89 d0             	mov    rax,rdx
    2d11:	48 c1 e0 03          	shl    rax,0x3
    2d15:	48 01 d0             	add    rax,rdx
    2d18:	48 c1 e0 03          	shl    rax,0x3
    2d1c:	48 01 d8             	add    rax,rbx
    2d1f:	48 89 85 f8 fe ff ff 	mov    QWORD PTR [rbp-0x108],rax
    2d26:	48 ff 85 e8 fe ff ff 	inc    QWORD PTR [rbp-0x118]
    2d2d:	48 8b 85 c8 fe ff ff 	mov    rax,QWORD PTR [rbp-0x138]
    2d34:	48 8b 80 98 01 00 00 	mov    rax,QWORD PTR [rax+0x198]
    2d3b:	48 39 85 e8 fe ff ff 	cmp    QWORD PTR [rbp-0x118],rax
    2d42:	0f 8e cc fa ff ff    	jle    2814 <fwrite@plt+0x1564>
    2d48:	48 8b 85 c8 fe ff ff 	mov    rax,QWORD PTR [rbp-0x138]
    2d4f:	48 8b 80 98 01 00 00 	mov    rax,QWORD PTR [rax+0x198]
    2d56:	48 ff c0             	inc    rax
    2d59:	48 39 85 e8 fe ff ff 	cmp    QWORD PTR [rbp-0x118],rax
    2d60:	74 0c                	je     2d6e <fwrite@plt+0x1abe>
    2d62:	48 c7 c0 ff ff ff ff 	mov    rax,0xffffffffffffffff
    2d69:	e9 99 03 00 00       	jmp    3107 <fwrite@plt+0x1e57>
    2d6e:	48 c7 85 e8 fe ff ff 	mov    QWORD PTR [rbp-0x118],0x0
    2d75:	00 00 00 00 
    2d79:	e9 96 01 00 00       	jmp    2f14 <fwrite@plt+0x1c64>
    2d7e:	48 8b 95 00 ff ff ff 	mov    rdx,QWORD PTR [rbp-0x100]
    2d85:	48 8d 85 10 ff ff ff 	lea    rax,[rbp-0xf0]
    2d8c:	be c8 00 00 00       	mov    esi,0xc8
    2d91:	48 89 c7             	mov    rdi,rax
    2d94:	e8 67 e4 ff ff       	call   1200 <fgets@plt>
    2d99:	48 8d b5 e0 fe ff ff 	lea    rsi,[rbp-0x120]
    2da0:	48 8d 8d d8 fe ff ff 	lea    rcx,[rbp-0x128]
    2da7:	48 8d 95 d0 fe ff ff 	lea    rdx,[rbp-0x130]
    2dae:	48 8d 85 10 ff ff ff 	lea    rax,[rbp-0xf0]
    2db5:	49 89 f0             	mov    r8,rsi
    2db8:	48 8d 35 61 65 00 00 	lea    rsi,[rip+0x6561]        # 9320 <fwrite@plt+0x8070>
    2dbf:	48 89 c7             	mov    rdi,rax
    2dc2:	b8 00 00 00 00       	mov    eax,0x0
    2dc7:	e8 84 e4 ff ff       	call   1250 <__isoc99_sscanf@plt>
    2dcc:	83 f8 03             	cmp    eax,0x3
    2dcf:	74 0c                	je     2ddd <fwrite@plt+0x1b2d>
    2dd1:	48 c7 c0 ff ff ff ff 	mov    rax,0xffffffffffffffff
    2dd8:	e9 2a 03 00 00       	jmp    3107 <fwrite@plt+0x1e57>
    2ddd:	48 8b 85 f0 fe ff ff 	mov    rax,QWORD PTR [rbp-0x110]
    2de4:	89 c2                	mov    edx,eax
    2de6:	48 8b 85 f8 fe ff ff 	mov    rax,QWORD PTR [rbp-0x108]
    2ded:	89 10                	mov    DWORD PTR [rax],edx
    2def:	48 8b 85 c8 fe ff ff 	mov    rax,QWORD PTR [rbp-0x138]
    2df6:	48 8b 90 98 01 00 00 	mov    rdx,QWORD PTR [rax+0x198]
    2dfd:	48 8b 85 d0 fe ff ff 	mov    rax,QWORD PTR [rbp-0x130]
    2e04:	48 01 d0             	add    rax,rdx
    2e07:	48 6b d0 68          	imul   rdx,rax,0x68
    2e0b:	48 8b 85 08 ff ff ff 	mov    rax,QWORD PTR [rbp-0xf8]
    2e12:	48 01 c2             	add    rdx,rax
    2e15:	48 8b 85 f8 fe ff ff 	mov    rax,QWORD PTR [rbp-0x108]
    2e1c:	48 89 50 10          	mov    QWORD PTR [rax+0x10],rdx
    2e20:	48 8b 85 d8 fe ff ff 	mov    rax,QWORD PTR [rbp-0x128]
    2e27:	48 6b d0 68          	imul   rdx,rax,0x68
    2e2b:	48 8b 85 08 ff ff ff 	mov    rax,QWORD PTR [rbp-0xf8]
    2e32:	48 01 c2             	add    rdx,rax
    2e35:	48 8b 85 f8 fe ff ff 	mov    rax,QWORD PTR [rbp-0x108]
    2e3c:	48 89 50 18          	mov    QWORD PTR [rax+0x18],rdx
    2e40:	48 8b 95 e0 fe ff ff 	mov    rdx,QWORD PTR [rbp-0x120]
    2e47:	48 8b 85 f8 fe ff ff 	mov    rax,QWORD PTR [rbp-0x108]
    2e4e:	48 89 50 40          	mov    QWORD PTR [rax+0x40],rdx
    2e52:	48 8b 95 e0 fe ff ff 	mov    rdx,QWORD PTR [rbp-0x120]
    2e59:	48 8b 85 f8 fe ff ff 	mov    rax,QWORD PTR [rbp-0x108]
    2e60:	48 89 50 08          	mov    QWORD PTR [rax+0x8],rdx
    2e64:	48 8b 85 f8 fe ff ff 	mov    rax,QWORD PTR [rbp-0x108]
    2e6b:	48 8b 40 10          	mov    rax,QWORD PTR [rax+0x10]
    2e6f:	48 8b 50 38          	mov    rdx,QWORD PTR [rax+0x38]
    2e73:	48 8b 85 f8 fe ff ff 	mov    rax,QWORD PTR [rbp-0x108]
    2e7a:	48 89 50 28          	mov    QWORD PTR [rax+0x28],rdx
    2e7e:	48 8b 85 f8 fe ff ff 	mov    rax,QWORD PTR [rbp-0x108]
    2e85:	48 8b 40 10          	mov    rax,QWORD PTR [rax+0x10]
    2e89:	48 8b 95 f8 fe ff ff 	mov    rdx,QWORD PTR [rbp-0x108]
    2e90:	48 89 50 38          	mov    QWORD PTR [rax+0x38],rdx
    2e94:	48 8b 85 f8 fe ff ff 	mov    rax,QWORD PTR [rbp-0x108]
    2e9b:	48 8b 40 18          	mov    rax,QWORD PTR [rax+0x18]
    2e9f:	48 8b 50 40          	mov    rdx,QWORD PTR [rax+0x40]
    2ea3:	48 8b 85 f8 fe ff ff 	mov    rax,QWORD PTR [rbp-0x108]
    2eaa:	48 89 50 30          	mov    QWORD PTR [rax+0x30],rdx
    2eae:	48 8b 85 f8 fe ff ff 	mov    rax,QWORD PTR [rbp-0x108]
    2eb5:	48 8b 40 18          	mov    rax,QWORD PTR [rax+0x18]
    2eb9:	48 8b 95 f8 fe ff ff 	mov    rdx,QWORD PTR [rbp-0x108]
    2ec0:	48 89 50 40          	mov    QWORD PTR [rax+0x40],rdx
    2ec4:	48 ff 85 e8 fe ff ff 	inc    QWORD PTR [rbp-0x118]
    2ecb:	48 8b 85 c8 fe ff ff 	mov    rax,QWORD PTR [rbp-0x138]
    2ed2:	48 8b 98 38 02 00 00 	mov    rbx,QWORD PTR [rax+0x238]
    2ed9:	48 ff 85 f0 fe ff ff 	inc    QWORD PTR [rbp-0x110]
    2ee0:	48 8b 95 f0 fe ff ff 	mov    rdx,QWORD PTR [rbp-0x110]
    2ee7:	48 8b 85 c8 fe ff ff 	mov    rax,QWORD PTR [rbp-0x138]
    2eee:	48 89 d6             	mov    rsi,rdx
    2ef1:	48 89 c7             	mov    rdi,rax
    2ef4:	e8 d5 eb ff ff       	call   1ace <fwrite@plt+0x81e>
    2ef9:	48 89 c2             	mov    rdx,rax
    2efc:	48 89 d0             	mov    rax,rdx
    2eff:	48 c1 e0 03          	shl    rax,0x3
    2f03:	48 01 d0             	add    rax,rdx
    2f06:	48 c1 e0 03          	shl    rax,0x3
    2f0a:	48 01 d8             	add    rax,rbx
    2f0d:	48 89 85 f8 fe ff ff 	mov    QWORD PTR [rbp-0x108],rax
    2f14:	48 8b 85 c8 fe ff ff 	mov    rax,QWORD PTR [rbp-0x138]
    2f1b:	48 8b 80 b0 01 00 00 	mov    rax,QWORD PTR [rax+0x1b0]
    2f22:	48 39 85 e8 fe ff ff 	cmp    QWORD PTR [rbp-0x118],rax
    2f29:	0f 8c 4f fe ff ff    	jl     2d7e <fwrite@plt+0x1ace>
    2f2f:	48 8b 85 c8 fe ff ff 	mov    rax,QWORD PTR [rbp-0x138]
    2f36:	48 8b 80 40 02 00 00 	mov    rax,QWORD PTR [rax+0x240]
    2f3d:	48 89 85 f8 fe ff ff 	mov    QWORD PTR [rbp-0x108],rax
    2f44:	48 8b 85 c8 fe ff ff 	mov    rax,QWORD PTR [rbp-0x138]
    2f4b:	48 8b 80 40 02 00 00 	mov    rax,QWORD PTR [rax+0x240]
    2f52:	48 39 85 f8 fe ff ff 	cmp    QWORD PTR [rbp-0x108],rax
    2f59:	0f 84 99 00 00 00    	je     2ff8 <fwrite@plt+0x1d48>
    2f5f:	48 8b 85 c8 fe ff ff 	mov    rax,QWORD PTR [rbp-0x138]
    2f66:	48 8b 95 f8 fe ff ff 	mov    rdx,QWORD PTR [rbp-0x108]
    2f6d:	48 89 90 40 02 00 00 	mov    QWORD PTR [rax+0x240],rdx
    2f74:	48 8b 85 c8 fe ff ff 	mov    rax,QWORD PTR [rbp-0x138]
    2f7b:	48 8b 80 38 02 00 00 	mov    rax,QWORD PTR [rax+0x238]
    2f82:	48 89 85 f8 fe ff ff 	mov    QWORD PTR [rbp-0x108],rax
    2f89:	48 8b 85 c8 fe ff ff 	mov    rax,QWORD PTR [rbp-0x138]
    2f90:	48 c7 80 a8 01 00 00 	mov    QWORD PTR [rax+0x1a8],0x0
    2f97:	00 00 00 00 
    2f9b:	eb 28                	jmp    2fc5 <fwrite@plt+0x1d15>
    2f9d:	48 8b 85 c8 fe ff ff 	mov    rax,QWORD PTR [rbp-0x138]
    2fa4:	48 8b 80 a8 01 00 00 	mov    rax,QWORD PTR [rax+0x1a8]
    2fab:	48 8d 50 01          	lea    rdx,[rax+0x1]
    2faf:	48 8b 85 c8 fe ff ff 	mov    rax,QWORD PTR [rbp-0x138]
    2fb6:	48 89 90 a8 01 00 00 	mov    QWORD PTR [rax+0x1a8],rdx
    2fbd:	48 83 85 f8 fe ff ff 	add    QWORD PTR [rbp-0x108],0x48
    2fc4:	48 
    2fc5:	48 8b 85 c8 fe ff ff 	mov    rax,QWORD PTR [rbp-0x138]
    2fcc:	48 8b 80 40 02 00 00 	mov    rax,QWORD PTR [rax+0x240]
    2fd3:	48 39 85 f8 fe ff ff 	cmp    QWORD PTR [rbp-0x108],rax
    2fda:	72 c1                	jb     2f9d <fwrite@plt+0x1ced>
    2fdc:	48 8b 85 c8 fe ff ff 	mov    rax,QWORD PTR [rbp-0x138]
    2fe3:	48 8b 90 a8 01 00 00 	mov    rdx,QWORD PTR [rax+0x1a8]
    2fea:	48 8b 85 c8 fe ff ff 	mov    rax,QWORD PTR [rbp-0x138]
    2ff1:	48 89 90 b0 01 00 00 	mov    QWORD PTR [rax+0x1b0],rdx
    2ff8:	48 8b 85 00 ff ff ff 	mov    rax,QWORD PTR [rbp-0x100]
    2fff:	48 89 c7             	mov    rdi,rax
    3002:	e8 b9 e1 ff ff       	call   11c0 <fclose@plt>
    3007:	48 8b 85 c8 fe ff ff 	mov    rax,QWORD PTR [rbp-0x138]
    300e:	c6 80 c8 00 00 00 00 	mov    BYTE PTR [rax+0xc8],0x0
    3015:	48 c7 85 e8 fe ff ff 	mov    QWORD PTR [rbp-0x118],0x1
    301c:	01 00 00 00 
    3020:	e9 c2 00 00 00       	jmp    30e7 <fwrite@plt+0x1e37>
    3025:	48 8b 85 c8 fe ff ff 	mov    rax,QWORD PTR [rbp-0x138]
    302c:	48 8b 98 38 02 00 00 	mov    rbx,QWORD PTR [rax+0x238]
    3033:	48 8b 95 e8 fe ff ff 	mov    rdx,QWORD PTR [rbp-0x118]
    303a:	48 89 d0             	mov    rax,rdx
    303d:	48 01 c0             	add    rax,rax
    3040:	48 01 d0             	add    rax,rdx
    3043:	48 8d 50 ff          	lea    rdx,[rax-0x1]
    3047:	48 8b 85 c8 fe ff ff 	mov    rax,QWORD PTR [rbp-0x138]
    304e:	48 89 d6             	mov    rsi,rdx
    3051:	48 89 c7             	mov    rdi,rax
    3054:	e8 75 ea ff ff       	call   1ace <fwrite@plt+0x81e>
    3059:	48 89 c2             	mov    rdx,rax
    305c:	48 89 d0             	mov    rax,rdx
    305f:	48 c1 e0 03          	shl    rax,0x3
    3063:	48 01 d0             	add    rax,rdx
    3066:	48 c1 e0 03          	shl    rax,0x3
    306a:	48 01 d8             	add    rax,rbx
    306d:	48 89 85 f8 fe ff ff 	mov    QWORD PTR [rbp-0x108],rax
    3074:	48 8b 85 c8 fe ff ff 	mov    rax,QWORD PTR [rbp-0x138]
    307b:	48 8b 80 10 02 00 00 	mov    rax,QWORD PTR [rax+0x210]
    3082:	ba 80 96 98 00       	mov    edx,0x989680
    3087:	48 3d 80 96 98 00    	cmp    rax,0x989680
    308d:	48 0f 4d d0          	cmovge rdx,rax
    3091:	b8 00 00 00 00       	mov    eax,0x0
    3096:	48 29 d0             	sub    rax,rdx
    3099:	48 01 c0             	add    rax,rax
    309c:	48 89 c2             	mov    rdx,rax
    309f:	48 8b 85 f8 fe ff ff 	mov    rax,QWORD PTR [rbp-0x108]
    30a6:	48 89 50 08          	mov    QWORD PTR [rax+0x8],rdx
    30aa:	48 8b 85 c8 fe ff ff 	mov    rax,QWORD PTR [rbp-0x138]
    30b1:	48 8b 80 10 02 00 00 	mov    rax,QWORD PTR [rax+0x210]
    30b8:	ba 80 96 98 00       	mov    edx,0x989680
    30bd:	48 3d 80 96 98 00    	cmp    rax,0x989680
    30c3:	48 0f 4d d0          	cmovge rdx,rax
    30c7:	b8 00 00 00 00       	mov    eax,0x0
    30cc:	48 29 d0             	sub    rax,rdx
    30cf:	48 01 c0             	add    rax,rax
    30d2:	48 89 c2             	mov    rdx,rax
    30d5:	48 8b 85 f8 fe ff ff 	mov    rax,QWORD PTR [rbp-0x108]
    30dc:	48 89 50 40          	mov    QWORD PTR [rax+0x40],rdx
    30e0:	48 ff 85 e8 fe ff ff 	inc    QWORD PTR [rbp-0x118]
    30e7:	48 8b 85 c8 fe ff ff 	mov    rax,QWORD PTR [rbp-0x138]
    30ee:	48 8b 80 98 01 00 00 	mov    rax,QWORD PTR [rax+0x198]
    30f5:	48 39 85 e8 fe ff ff 	cmp    QWORD PTR [rbp-0x118],rax
    30fc:	0f 8e 23 ff ff ff    	jle    3025 <fwrite@plt+0x1d75>
    3102:	b8 00 00 00 00       	mov    eax,0x0
    3107:	48 8b 5d e8          	mov    rbx,QWORD PTR [rbp-0x18]
    310b:	64 48 33 1c 25 28 00 	xor    rbx,QWORD PTR fs:0x28
    3112:	00 00 
    3114:	74 05                	je     311b <fwrite@plt+0x1e6b>
    3116:	e8 b5 e0 ff ff       	call   11d0 <__stack_chk_fail@plt>
    311b:	48 81 c4 38 01 00 00 	add    rsp,0x138
    3122:	5b                   	pop    rbx
    3123:	5d                   	pop    rbp
    3124:	c3                   	ret    
    3125:	f3 0f 1e fa          	endbr64 
    3129:	55                   	push   rbp
    312a:	48 89 e5             	mov    rbp,rsp
    312d:	48 89 7d f8          	mov    QWORD PTR [rbp-0x8],rdi
    3131:	48 89 75 f0          	mov    QWORD PTR [rbp-0x10],rsi
    3135:	48 8b 45 f8          	mov    rax,QWORD PTR [rbp-0x8]
    3139:	48 8b 00             	mov    rax,QWORD PTR [rax]
    313c:	48 8b 50 38          	mov    rdx,QWORD PTR [rax+0x38]
    3140:	48 8b 45 f0          	mov    rax,QWORD PTR [rbp-0x10]
    3144:	48 8b 00             	mov    rax,QWORD PTR [rax]
    3147:	48 8b 40 38          	mov    rax,QWORD PTR [rax+0x38]
    314b:	48 39 c2             	cmp    rdx,rax
    314e:	7e 07                	jle    3157 <fwrite@plt+0x1ea7>
    3150:	b8 01 00 00 00       	mov    eax,0x1
    3155:	eb 44                	jmp    319b <fwrite@plt+0x1eeb>
    3157:	48 8b 45 f8          	mov    rax,QWORD PTR [rbp-0x8]
    315b:	48 8b 00             	mov    rax,QWORD PTR [rax]
    315e:	48 8b 50 38          	mov    rdx,QWORD PTR [rax+0x38]
    3162:	48 8b 45 f0          	mov    rax,QWORD PTR [rbp-0x10]
    3166:	48 8b 00             	mov    rax,QWORD PTR [rax]
    3169:	48 8b 40 38          	mov    rax,QWORD PTR [rax+0x38]
    316d:	48 39 c2             	cmp    rdx,rax
    3170:	7d 07                	jge    3179 <fwrite@plt+0x1ec9>
    3172:	b8 ff ff ff ff       	mov    eax,0xffffffff
    3177:	eb 22                	jmp    319b <fwrite@plt+0x1eeb>
    3179:	48 8b 45 f8          	mov    rax,QWORD PTR [rbp-0x8]
    317d:	48 8b 00             	mov    rax,QWORD PTR [rax]
    3180:	8b 10                	mov    edx,DWORD PTR [rax]
    3182:	48 8b 45 f0          	mov    rax,QWORD PTR [rbp-0x10]
    3186:	48 8b 00             	mov    rax,QWORD PTR [rax]
    3189:	8b 00                	mov    eax,DWORD PTR [rax]
    318b:	39 c2                	cmp    edx,eax
    318d:	7d 07                	jge    3196 <fwrite@plt+0x1ee6>
    318f:	b8 ff ff ff ff       	mov    eax,0xffffffff
    3194:	eb 05                	jmp    319b <fwrite@plt+0x1eeb>
    3196:	b8 01 00 00 00       	mov    eax,0x1
    319b:	5d                   	pop    rbp
    319c:	c3                   	ret    
    319d:	f3 0f 1e fa          	endbr64 
    31a1:	55                   	push   rbp
    31a2:	48 89 e5             	mov    rbp,rsp
    31a5:	48 83 ec 30          	sub    rsp,0x30
    31a9:	48 89 7d e8          	mov    QWORD PTR [rbp-0x18],rdi
    31ad:	48 89 75 e0          	mov    QWORD PTR [rbp-0x20],rsi
    31b1:	48 89 55 d8          	mov    QWORD PTR [rbp-0x28],rdx
    31b5:	48 c7 45 f0 00 00 00 	mov    QWORD PTR [rbp-0x10],0x0
    31bc:	00 
    31bd:	e9 2f 01 00 00       	jmp    32f1 <fwrite@plt+0x2041>
    31c2:	48 8b 45 e8          	mov    rax,QWORD PTR [rbp-0x18]
    31c6:	48 8b 90 28 02 00 00 	mov    rdx,QWORD PTR [rax+0x228]
    31cd:	48 8b 45 f0          	mov    rax,QWORD PTR [rbp-0x10]
    31d1:	48 6b c0 68          	imul   rax,rax,0x68
    31d5:	48 01 d0             	add    rax,rdx
    31d8:	48 89 45 f8          	mov    QWORD PTR [rbp-0x8],rax
    31dc:	48 8b 45 f8          	mov    rax,QWORD PTR [rbp-0x8]
    31e0:	48 8b 40 30          	mov    rax,QWORD PTR [rax+0x30]
    31e4:	48 85 c0             	test   rax,rax
    31e7:	74 4e                	je     3237 <fwrite@plt+0x1f87>
    31e9:	48 8b 45 f8          	mov    rax,QWORD PTR [rbp-0x8]
    31ed:	48 8b 40 30          	mov    rax,QWORD PTR [rax+0x30]
    31f1:	8b 00                	mov    eax,DWORD PTR [rax]
    31f3:	85 c0                	test   eax,eax
    31f5:	78 40                	js     3237 <fwrite@plt+0x1f87>
    31f7:	48 8b 45 f8          	mov    rax,QWORD PTR [rbp-0x8]
    31fb:	48 8b 40 30          	mov    rax,QWORD PTR [rax+0x30]
    31ff:	8b 00                	mov    eax,DWORD PTR [rax]
    3201:	48 63 d0             	movsxd rdx,eax
    3204:	48 8b 45 e8          	mov    rax,QWORD PTR [rbp-0x18]
    3208:	48 8b 4d e0          	mov    rcx,QWORD PTR [rbp-0x20]
    320c:	48 89 d6             	mov    rsi,rdx
    320f:	48 89 c7             	mov    rdi,rax
    3212:	ff d1                	call   rcx
    3214:	48 89 c2             	mov    rdx,rax
    3217:	48 89 d0             	mov    rax,rdx
    321a:	48 c1 e0 03          	shl    rax,0x3
    321e:	48 01 d0             	add    rax,rdx
    3221:	48 c1 e0 03          	shl    rax,0x3
    3225:	48 89 c2             	mov    rdx,rax
    3228:	48 8b 45 d8          	mov    rax,QWORD PTR [rbp-0x28]
    322c:	48 01 c2             	add    rdx,rax
    322f:	48 8b 45 f8          	mov    rax,QWORD PTR [rbp-0x8]
    3233:	48 89 50 30          	mov    QWORD PTR [rax+0x30],rdx
    3237:	48 8b 45 f8          	mov    rax,QWORD PTR [rbp-0x8]
    323b:	48 8b 40 40          	mov    rax,QWORD PTR [rax+0x40]
    323f:	48 85 c0             	test   rax,rax
    3242:	74 4e                	je     3292 <fwrite@plt+0x1fe2>
    3244:	48 8b 45 f8          	mov    rax,QWORD PTR [rbp-0x8]
    3248:	48 8b 40 40          	mov    rax,QWORD PTR [rax+0x40]
    324c:	8b 00                	mov    eax,DWORD PTR [rax]
    324e:	85 c0                	test   eax,eax
    3250:	78 40                	js     3292 <fwrite@plt+0x1fe2>
    3252:	48 8b 45 f8          	mov    rax,QWORD PTR [rbp-0x8]
    3256:	48 8b 40 40          	mov    rax,QWORD PTR [rax+0x40]
    325a:	8b 00                	mov    eax,DWORD PTR [rax]
    325c:	48 63 d0             	movsxd rdx,eax
    325f:	48 8b 45 e8          	mov    rax,QWORD PTR [rbp-0x18]
    3263:	48 8b 4d e0          	mov    rcx,QWORD PTR [rbp-0x20]
    3267:	48 89 d6             	mov    rsi,rdx
    326a:	48 89 c7             	mov    rdi,rax
    326d:	ff d1                	call   rcx
    326f:	48 89 c2             	mov    rdx,rax
    3272:	48 89 d0             	mov    rax,rdx
    3275:	48 c1 e0 03          	shl    rax,0x3
    3279:	48 01 d0             	add    rax,rdx
    327c:	48 c1 e0 03          	shl    rax,0x3
    3280:	48 89 c2             	mov    rdx,rax
    3283:	48 8b 45 d8          	mov    rax,QWORD PTR [rbp-0x28]
    3287:	48 01 c2             	add    rdx,rax
    328a:	48 8b 45 f8          	mov    rax,QWORD PTR [rbp-0x8]
    328e:	48 89 50 40          	mov    QWORD PTR [rax+0x40],rdx
    3292:	48 8b 45 f8          	mov    rax,QWORD PTR [rbp-0x8]
    3296:	48 8b 40 38          	mov    rax,QWORD PTR [rax+0x38]
    329a:	48 85 c0             	test   rax,rax
    329d:	74 4e                	je     32ed <fwrite@plt+0x203d>
    329f:	48 8b 45 f8          	mov    rax,QWORD PTR [rbp-0x8]
    32a3:	48 8b 40 38          	mov    rax,QWORD PTR [rax+0x38]
    32a7:	8b 00                	mov    eax,DWORD PTR [rax]
    32a9:	85 c0                	test   eax,eax
    32ab:	78 40                	js     32ed <fwrite@plt+0x203d>
    32ad:	48 8b 45 f8          	mov    rax,QWORD PTR [rbp-0x8]
    32b1:	48 8b 40 38          	mov    rax,QWORD PTR [rax+0x38]
    32b5:	8b 00                	mov    eax,DWORD PTR [rax]
    32b7:	48 63 d0             	movsxd rdx,eax
    32ba:	48 8b 45 e8          	mov    rax,QWORD PTR [rbp-0x18]
    32be:	48 8b 4d e0          	mov    rcx,QWORD PTR [rbp-0x20]
    32c2:	48 89 d6             	mov    rsi,rdx
    32c5:	48 89 c7             	mov    rdi,rax
    32c8:	ff d1                	call   rcx
    32ca:	48 89 c2             	mov    rdx,rax
    32cd:	48 89 d0             	mov    rax,rdx
    32d0:	48 c1 e0 03          	shl    rax,0x3
    32d4:	48 01 d0             	add    rax,rdx
    32d7:	48 c1 e0 03          	shl    rax,0x3
    32db:	48 89 c2             	mov    rdx,rax
    32de:	48 8b 45 d8          	mov    rax,QWORD PTR [rbp-0x28]
    32e2:	48 01 c2             	add    rdx,rax
    32e5:	48 8b 45 f8          	mov    rax,QWORD PTR [rbp-0x8]
    32e9:	48 89 50 38          	mov    QWORD PTR [rax+0x38],rdx
    32ed:	48 ff 45 f0          	inc    QWORD PTR [rbp-0x10]
    32f1:	48 8b 45 e8          	mov    rax,QWORD PTR [rbp-0x18]
    32f5:	48 8b 80 90 01 00 00 	mov    rax,QWORD PTR [rax+0x190]
    32fc:	48 39 45 f0          	cmp    QWORD PTR [rbp-0x10],rax
    3300:	0f 8e bc fe ff ff    	jle    31c2 <fwrite@plt+0x1f12>
    3306:	b8 00 00 00 00       	mov    eax,0x0
    330b:	c9                   	leave  
    330c:	c3                   	ret    
    330d:	f3 0f 1e fa          	endbr64 
    3311:	55                   	push   rbp
    3312:	48 89 e5             	mov    rbp,rsp
    3315:	53                   	push   rbx
    3316:	48 83 ec 48          	sub    rsp,0x48
    331a:	48 89 7d c8          	mov    QWORD PTR [rbp-0x38],rdi
    331e:	48 89 75 c0          	mov    QWORD PTR [rbp-0x40],rsi
    3322:	48 89 55 b8          	mov    QWORD PTR [rbp-0x48],rdx
    3326:	48 8b 45 c8          	mov    rax,QWORD PTR [rbp-0x38]
    332a:	48 8b 80 48 02 00 00 	mov    rax,QWORD PTR [rax+0x248]
    3331:	48 89 45 d8          	mov    QWORD PTR [rbp-0x28],rax
    3335:	48 8b 55 d8          	mov    rdx,QWORD PTR [rbp-0x28]
    3339:	48 8b 4d c0          	mov    rcx,QWORD PTR [rbp-0x40]
    333d:	48 8b 45 c8          	mov    rax,QWORD PTR [rbp-0x38]
    3341:	48 89 ce             	mov    rsi,rcx
    3344:	48 89 c7             	mov    rdi,rax
    3347:	e8 51 fe ff ff       	call   319d <fwrite@plt+0x1eed>
    334c:	48 c7 45 d0 00 00 00 	mov    QWORD PTR [rbp-0x30],0x0
    3353:	00 
    3354:	e9 bc 00 00 00       	jmp    3415 <fwrite@plt+0x2165>
    3359:	48 8b 45 c8          	mov    rax,QWORD PTR [rbp-0x38]
    335d:	48 8b 88 38 02 00 00 	mov    rcx,QWORD PTR [rax+0x238]
    3364:	48 8b 55 d0          	mov    rdx,QWORD PTR [rbp-0x30]
    3368:	48 89 d0             	mov    rax,rdx
    336b:	48 c1 e0 03          	shl    rax,0x3
    336f:	48 01 d0             	add    rax,rdx
    3372:	48 c1 e0 03          	shl    rax,0x3
    3376:	48 01 c8             	add    rax,rcx
    3379:	48 89 45 e0          	mov    QWORD PTR [rbp-0x20],rax
    337d:	48 8b 45 e0          	mov    rax,QWORD PTR [rbp-0x20]
    3381:	8b 00                	mov    eax,DWORD PTR [rax]
    3383:	85 c0                	test   eax,eax
    3385:	0f 88 85 00 00 00    	js     3410 <fwrite@plt+0x2160>
    338b:	48 8b 45 e0          	mov    rax,QWORD PTR [rbp-0x20]
    338f:	8b 00                	mov    eax,DWORD PTR [rax]
    3391:	48 63 d0             	movsxd rdx,eax
    3394:	48 8b 45 c8          	mov    rax,QWORD PTR [rbp-0x38]
    3398:	48 8b 4d c0          	mov    rcx,QWORD PTR [rbp-0x40]
    339c:	48 89 d6             	mov    rsi,rdx
    339f:	48 89 c7             	mov    rdi,rax
    33a2:	ff d1                	call   rcx
    33a4:	48 89 45 e8          	mov    QWORD PTR [rbp-0x18],rax
    33a8:	48 8b 55 e8          	mov    rdx,QWORD PTR [rbp-0x18]
    33ac:	48 89 d0             	mov    rax,rdx
    33af:	48 c1 e0 03          	shl    rax,0x3
    33b3:	48 01 d0             	add    rax,rdx
    33b6:	48 c1 e0 03          	shl    rax,0x3
    33ba:	48 89 c2             	mov    rdx,rax
    33bd:	48 8b 45 d8          	mov    rax,QWORD PTR [rbp-0x28]
    33c1:	48 01 c2             	add    rdx,rax
    33c4:	48 8b 45 e0          	mov    rax,QWORD PTR [rbp-0x20]
    33c8:	48 8b 08             	mov    rcx,QWORD PTR [rax]
    33cb:	48 8b 58 08          	mov    rbx,QWORD PTR [rax+0x8]
    33cf:	48 89 0a             	mov    QWORD PTR [rdx],rcx
    33d2:	48 89 5a 08          	mov    QWORD PTR [rdx+0x8],rbx
    33d6:	48 8b 48 10          	mov    rcx,QWORD PTR [rax+0x10]
    33da:	48 8b 58 18          	mov    rbx,QWORD PTR [rax+0x18]
    33de:	48 89 4a 10          	mov    QWORD PTR [rdx+0x10],rcx
    33e2:	48 89 5a 18          	mov    QWORD PTR [rdx+0x18],rbx
    33e6:	48 8b 48 20          	mov    rcx,QWORD PTR [rax+0x20]
    33ea:	48 8b 58 28          	mov    rbx,QWORD PTR [rax+0x28]
    33ee:	48 89 4a 20          	mov    QWORD PTR [rdx+0x20],rcx
    33f2:	48 89 5a 28          	mov    QWORD PTR [rdx+0x28],rbx
    33f6:	48 8b 48 30          	mov    rcx,QWORD PTR [rax+0x30]
    33fa:	48 8b 58 38          	mov    rbx,QWORD PTR [rax+0x38]
    33fe:	48 89 4a 30          	mov    QWORD PTR [rdx+0x30],rcx
    3402:	48 89 5a 38          	mov    QWORD PTR [rdx+0x38],rbx
    3406:	48 8b 40 40          	mov    rax,QWORD PTR [rax+0x40]
    340a:	48 89 42 40          	mov    QWORD PTR [rdx+0x40],rax
    340e:	eb 01                	jmp    3411 <fwrite@plt+0x2161>
    3410:	90                   	nop
    3411:	48 ff 45 d0          	inc    QWORD PTR [rbp-0x30]
    3415:	48 8b 45 d0          	mov    rax,QWORD PTR [rbp-0x30]
    3419:	48 3b 45 b8          	cmp    rax,QWORD PTR [rbp-0x48]
    341d:	0f 8c 36 ff ff ff    	jl     3359 <fwrite@plt+0x20a9>
    3423:	48 8b 45 c8          	mov    rax,QWORD PTR [rbp-0x38]
    3427:	48 8b 80 38 02 00 00 	mov    rax,QWORD PTR [rax+0x238]
    342e:	48 89 45 e0          	mov    QWORD PTR [rbp-0x20],rax
    3432:	48 8b 45 c8          	mov    rax,QWORD PTR [rbp-0x38]
    3436:	48 8b 55 d8          	mov    rdx,QWORD PTR [rbp-0x28]
    343a:	48 89 90 38 02 00 00 	mov    QWORD PTR [rax+0x238],rdx
    3441:	48 8b 45 c8          	mov    rax,QWORD PTR [rbp-0x38]
    3445:	48 8b 55 e0          	mov    rdx,QWORD PTR [rbp-0x20]
    3449:	48 89 90 48 02 00 00 	mov    QWORD PTR [rax+0x248],rdx
    3450:	48 8b 55 b8          	mov    rdx,QWORD PTR [rbp-0x48]
    3454:	48 89 d0             	mov    rax,rdx
    3457:	48 c1 e0 03          	shl    rax,0x3
    345b:	48 01 d0             	add    rax,rdx
    345e:	48 c1 e0 03          	shl    rax,0x3
    3462:	48 89 c2             	mov    rdx,rax
    3465:	48 8b 45 d8          	mov    rax,QWORD PTR [rbp-0x28]
    3469:	48 01 c2             	add    rdx,rax
    346c:	48 8b 45 c8          	mov    rax,QWORD PTR [rbp-0x38]
    3470:	48 89 90 40 02 00 00 	mov    QWORD PTR [rax+0x240],rdx
    3477:	b8 00 00 00 00       	mov    eax,0x0
    347c:	48 83 c4 48          	add    rsp,0x48
    3480:	5b                   	pop    rbx
    3481:	5d                   	pop    rbp
    3482:	c3                   	ret    
    3483:	f3 0f 1e fa          	endbr64 
    3487:	55                   	push   rbp
    3488:	48 89 e5             	mov    rbp,rsp
    348b:	48 83 ec 70          	sub    rsp,0x70
    348f:	48 89 7d a8          	mov    QWORD PTR [rbp-0x58],rdi
    3493:	48 89 75 a0          	mov    QWORD PTR [rbp-0x60],rsi
    3497:	48 89 55 98          	mov    QWORD PTR [rbp-0x68],rdx
    349b:	48 89 4d 90          	mov    QWORD PTR [rbp-0x70],rcx
    349f:	64 48 8b 04 25 28 00 	mov    rax,QWORD PTR fs:0x28
    34a6:	00 00 
    34a8:	48 89 45 f8          	mov    QWORD PTR [rbp-0x8],rax
    34ac:	31 c0                	xor    eax,eax
    34ae:	48 c7 45 c0 00 00 00 	mov    QWORD PTR [rbp-0x40],0x0
    34b5:	00 
    34b6:	48 c7 45 c8 00 00 00 	mov    QWORD PTR [rbp-0x38],0x0
    34bd:	00 
    34be:	48 c7 45 e0 01 00 00 	mov    QWORD PTR [rbp-0x20],0x1
    34c5:	00 
    34c6:	48 8b 45 e0          	mov    rax,QWORD PTR [rbp-0x20]
    34ca:	48 c1 e0 03          	shl    rax,0x3
    34ce:	48 89 c7             	mov    rdi,rax
    34d1:	e8 5a dd ff ff       	call   1230 <malloc@plt>
    34d6:	48 89 45 e8          	mov    QWORD PTR [rbp-0x18],rax
    34da:	48 8b 45 e0          	mov    rax,QWORD PTR [rbp-0x20]
    34de:	48 c1 e0 03          	shl    rax,0x3
    34e2:	48 89 c7             	mov    rdi,rax
    34e5:	e8 46 dd ff ff       	call   1230 <malloc@plt>
    34ea:	48 89 45 f0          	mov    QWORD PTR [rbp-0x10],rax
    34ee:	48 8b 45 a8          	mov    rax,QWORD PTR [rbp-0x58]
    34f2:	48 8b 80 98 01 00 00 	mov    rax,QWORD PTR [rax+0x198]
    34f9:	48 3d 98 3a 00 00    	cmp    rax,0x3a98
    34ff:	7f 17                	jg     3518 <fwrite@plt+0x2268>
    3501:	48 8b 45 a8          	mov    rax,QWORD PTR [rbp-0x58]
    3505:	48 8b 80 c0 01 00 00 	mov    rax,QWORD PTR [rax+0x1c0]
    350c:	48 2d 40 42 0f 00    	sub    rax,0xf4240
    3512:	48 89 45 b8          	mov    QWORD PTR [rbp-0x48],rax
    3516:	eb 15                	jmp    352d <fwrite@plt+0x227d>
    3518:	48 8b 45 a8          	mov    rax,QWORD PTR [rbp-0x58]
    351c:	48 8b 80 c0 01 00 00 	mov    rax,QWORD PTR [rax+0x1c0]
    3523:	48 2d 00 09 3d 00    	sub    rax,0x3d0900
    3529:	48 89 45 b8          	mov    QWORD PTR [rbp-0x48],rax
    352d:	48 8b 45 a0          	mov    rax,QWORD PTR [rbp-0x60]
    3531:	48 c7 00 00 00 00 00 	mov    QWORD PTR [rax],0x0
    3538:	48 c7 45 d8 00 00 00 	mov    QWORD PTR [rbp-0x28],0x0
    353f:	00 
    3540:	eb 71                	jmp    35b3 <fwrite@plt+0x2303>
    3542:	48 8b 45 a0          	mov    rax,QWORD PTR [rbp-0x60]
    3546:	48 8b 10             	mov    rdx,QWORD PTR [rax]
    3549:	48 8b 45 d8          	mov    rax,QWORD PTR [rbp-0x28]
    354d:	48 8d 0c c5 00 00 00 	lea    rcx,[rax*8+0x0]
    3554:	00 
    3555:	48 8b 45 98          	mov    rax,QWORD PTR [rbp-0x68]
    3559:	48 01 c8             	add    rax,rcx
    355c:	48 8b 00             	mov    rax,QWORD PTR [rax]
    355f:	48 01 c2             	add    rdx,rax
    3562:	48 8b 45 a0          	mov    rax,QWORD PTR [rbp-0x60]
    3566:	48 89 10             	mov    QWORD PTR [rax],rdx
    3569:	48 8b 45 d8          	mov    rax,QWORD PTR [rbp-0x28]
    356d:	48 8d 14 c5 00 00 00 	lea    rdx,[rax*8+0x0]
    3574:	00 
    3575:	48 8b 45 90          	mov    rax,QWORD PTR [rbp-0x70]
    3579:	48 01 d0             	add    rax,rdx
    357c:	48 8b 55 d8          	mov    rdx,QWORD PTR [rbp-0x28]
    3580:	48 8d 0c d5 00 00 00 	lea    rcx,[rdx*8+0x0]
    3587:	00 
    3588:	48 8b 55 e8          	mov    rdx,QWORD PTR [rbp-0x18]
    358c:	48 01 ca             	add    rdx,rcx
    358f:	48 8b 00             	mov    rax,QWORD PTR [rax]
    3592:	48 89 02             	mov    QWORD PTR [rdx],rax
    3595:	48 8b 45 d8          	mov    rax,QWORD PTR [rbp-0x28]
    3599:	48 8d 14 c5 00 00 00 	lea    rdx,[rax*8+0x0]
    35a0:	00 
    35a1:	48 8b 45 f0          	mov    rax,QWORD PTR [rbp-0x10]
    35a5:	48 01 d0             	add    rax,rdx
    35a8:	48 c7 00 00 00 00 00 	mov    QWORD PTR [rax],0x0
    35af:	48 ff 45 d8          	inc    QWORD PTR [rbp-0x28]
    35b3:	48 8b 45 d8          	mov    rax,QWORD PTR [rbp-0x28]
    35b7:	48 3b 45 e0          	cmp    rax,QWORD PTR [rbp-0x20]
    35bb:	7c 85                	jl     3542 <fwrite@plt+0x2292>
    35bd:	48 8b 45 a8          	mov    rax,QWORD PTR [rbp-0x58]
    35c1:	48 8b 80 a8 01 00 00 	mov    rax,QWORD PTR [rax+0x1a8]
    35c8:	48 89 45 d0          	mov    QWORD PTR [rbp-0x30],rax
    35cc:	e9 35 01 00 00       	jmp    3706 <fwrite@plt+0x2456>
    35d1:	48 8b 45 f0          	mov    rax,QWORD PTR [rbp-0x10]
    35d5:	48 8b 10             	mov    rdx,QWORD PTR [rax]
    35d8:	48 8b 45 98          	mov    rax,QWORD PTR [rbp-0x68]
    35dc:	48 8b 00             	mov    rax,QWORD PTR [rax]
    35df:	48 39 c2             	cmp    rdx,rax
    35e2:	7d 18                	jge    35fc <fwrite@plt+0x234c>
    35e4:	48 8b 45 e8          	mov    rax,QWORD PTR [rbp-0x18]
    35e8:	48 8b 00             	mov    rax,QWORD PTR [rax]
    35eb:	48 8b 00             	mov    rax,QWORD PTR [rax]
    35ee:	48 89 45 b0          	mov    QWORD PTR [rbp-0x50],rax
    35f2:	48 c7 45 c8 00 00 00 	mov    QWORD PTR [rbp-0x38],0x0
    35f9:	00 
    35fa:	eb 08                	jmp    3604 <fwrite@plt+0x2354>
    35fc:	48 c7 45 b0 00 00 00 	mov    QWORD PTR [rbp-0x50],0x0
    3603:	00 
    3604:	48 c7 45 d8 01 00 00 	mov    QWORD PTR [rbp-0x28],0x1
    360b:	00 
    360c:	e9 8c 00 00 00       	jmp    369d <fwrite@plt+0x23ed>
    3611:	48 8b 45 d8          	mov    rax,QWORD PTR [rbp-0x28]
    3615:	48 8d 14 c5 00 00 00 	lea    rdx,[rax*8+0x0]
    361c:	00 
    361d:	48 8b 45 f0          	mov    rax,QWORD PTR [rbp-0x10]
    3621:	48 01 d0             	add    rax,rdx
    3624:	48 8b 10             	mov    rdx,QWORD PTR [rax]
    3627:	48 8b 45 d8          	mov    rax,QWORD PTR [rbp-0x28]
    362b:	48 8d 0c c5 00 00 00 	lea    rcx,[rax*8+0x0]
    3632:	00 
    3633:	48 8b 45 98          	mov    rax,QWORD PTR [rbp-0x68]
    3637:	48 01 c8             	add    rax,rcx
    363a:	48 8b 00             	mov    rax,QWORD PTR [rax]
    363d:	48 39 c2             	cmp    rdx,rax
    3640:	7d 57                	jge    3699 <fwrite@plt+0x23e9>
    3642:	48 8b 45 b0          	mov    rax,QWORD PTR [rbp-0x50]
    3646:	48 85 c0             	test   rax,rax
    3649:	74 29                	je     3674 <fwrite@plt+0x23c4>
    364b:	48 8b 45 d8          	mov    rax,QWORD PTR [rbp-0x28]
    364f:	48 8d 14 c5 00 00 00 	lea    rdx,[rax*8+0x0]
    3656:	00 
    3657:	48 8b 45 e8          	mov    rax,QWORD PTR [rbp-0x18]
    365b:	48 01 d0             	add    rax,rdx
    365e:	48 8b 00             	mov    rax,QWORD PTR [rax]
    3661:	48 8d 55 b0          	lea    rdx,[rbp-0x50]
    3665:	48 89 d6             	mov    rsi,rdx
    3668:	48 89 c7             	mov    rdi,rax
    366b:	e8 b5 fa ff ff       	call   3125 <fwrite@plt+0x1e75>
    3670:	85 c0                	test   eax,eax
    3672:	79 25                	jns    3699 <fwrite@plt+0x23e9>
    3674:	48 8b 45 d8          	mov    rax,QWORD PTR [rbp-0x28]
    3678:	48 8d 14 c5 00 00 00 	lea    rdx,[rax*8+0x0]
    367f:	00 
    3680:	48 8b 45 e8          	mov    rax,QWORD PTR [rbp-0x18]
    3684:	48 01 d0             	add    rax,rdx
    3687:	48 8b 00             	mov    rax,QWORD PTR [rax]
    368a:	48 8b 00             	mov    rax,QWORD PTR [rax]
    368d:	48 89 45 b0          	mov    QWORD PTR [rbp-0x50],rax
    3691:	48 8b 45 d8          	mov    rax,QWORD PTR [rbp-0x28]
    3695:	48 89 45 c8          	mov    QWORD PTR [rbp-0x38],rax
    3699:	48 ff 45 d8          	inc    QWORD PTR [rbp-0x28]
    369d:	48 8b 45 d8          	mov    rax,QWORD PTR [rbp-0x28]
    36a1:	48 3b 45 e0          	cmp    rax,QWORD PTR [rbp-0x20]
    36a5:	0f 8c 66 ff ff ff    	jl     3611 <fwrite@plt+0x2361>
    36ab:	48 8b 45 d0          	mov    rax,QWORD PTR [rbp-0x30]
    36af:	48 8d 50 01          	lea    rdx,[rax+0x1]
    36b3:	48 89 55 d0          	mov    QWORD PTR [rbp-0x30],rdx
    36b7:	48 8b 55 b0          	mov    rdx,QWORD PTR [rbp-0x50]
    36bb:	89 02                	mov    DWORD PTR [rdx],eax
    36bd:	48 8b 45 b0          	mov    rax,QWORD PTR [rbp-0x50]
    36c1:	48 c7 40 38 01 00 00 	mov    QWORD PTR [rax+0x38],0x1
    36c8:	00 
    36c9:	48 ff 45 c0          	inc    QWORD PTR [rbp-0x40]
    36cd:	48 8b 45 c8          	mov    rax,QWORD PTR [rbp-0x38]
    36d1:	48 8d 14 c5 00 00 00 	lea    rdx,[rax*8+0x0]
    36d8:	00 
    36d9:	48 8b 45 e8          	mov    rax,QWORD PTR [rbp-0x18]
    36dd:	48 01 d0             	add    rax,rdx
    36e0:	48 8b 10             	mov    rdx,QWORD PTR [rax]
    36e3:	48 83 c2 08          	add    rdx,0x8
    36e7:	48 89 10             	mov    QWORD PTR [rax],rdx
    36ea:	48 8b 45 c8          	mov    rax,QWORD PTR [rbp-0x38]
    36ee:	48 8d 14 c5 00 00 00 	lea    rdx,[rax*8+0x0]
    36f5:	00 
    36f6:	48 8b 45 f0          	mov    rax,QWORD PTR [rbp-0x10]
    36fa:	48 01 d0             	add    rax,rdx
    36fd:	48 8b 10             	mov    rdx,QWORD PTR [rax]
    3700:	48 ff c2             	inc    rdx
    3703:	48 89 10             	mov    QWORD PTR [rax],rdx
    3706:	48 8b 45 a0          	mov    rax,QWORD PTR [rbp-0x60]
    370a:	48 8b 00             	mov    rax,QWORD PTR [rax]
    370d:	48 39 45 c0          	cmp    QWORD PTR [rbp-0x40],rax
    3711:	7d 0e                	jge    3721 <fwrite@plt+0x2471>
    3713:	48 8b 45 c0          	mov    rax,QWORD PTR [rbp-0x40]
    3717:	48 3b 45 b8          	cmp    rax,QWORD PTR [rbp-0x48]
    371b:	0f 8c b0 fe ff ff    	jl     35d1 <fwrite@plt+0x2321>
    3721:	48 8b 45 a0          	mov    rax,QWORD PTR [rbp-0x60]
    3725:	48 c7 00 00 00 00 00 	mov    QWORD PTR [rax],0x0
    372c:	48 c7 45 d8 00 00 00 	mov    QWORD PTR [rbp-0x28],0x0
    3733:	00 
    3734:	eb 2b                	jmp    3761 <fwrite@plt+0x24b1>
    3736:	48 8b 45 a0          	mov    rax,QWORD PTR [rbp-0x60]
    373a:	48 8b 10             	mov    rdx,QWORD PTR [rax]
    373d:	48 8b 45 d8          	mov    rax,QWORD PTR [rbp-0x28]
    3741:	48 8d 0c c5 00 00 00 	lea    rcx,[rax*8+0x0]
    3748:	00 
    3749:	48 8b 45 f0          	mov    rax,QWORD PTR [rbp-0x10]
    374d:	48 01 c8             	add    rax,rcx
    3750:	48 8b 00             	mov    rax,QWORD PTR [rax]
    3753:	48 01 c2             	add    rdx,rax
    3756:	48 8b 45 a0          	mov    rax,QWORD PTR [rbp-0x60]
    375a:	48 89 10             	mov    QWORD PTR [rax],rdx
    375d:	48 ff 45 d8          	inc    QWORD PTR [rbp-0x28]
    3761:	48 8b 45 d8          	mov    rax,QWORD PTR [rbp-0x28]
    3765:	48 3b 45 e0          	cmp    rax,QWORD PTR [rbp-0x20]
    3769:	7c cb                	jl     3736 <fwrite@plt+0x2486>
    376b:	48 8b 45 a8          	mov    rax,QWORD PTR [rbp-0x58]
    376f:	48 c7 80 80 02 00 00 	mov    QWORD PTR [rax+0x280],0xfa0
    3776:	a0 0f 00 00 
    377a:	48 8b 45 a0          	mov    rax,QWORD PTR [rbp-0x60]
    377e:	48 8b 10             	mov    rdx,QWORD PTR [rax]
    3781:	48 8b 45 a8          	mov    rax,QWORD PTR [rbp-0x58]
    3785:	48 8b 80 a8 01 00 00 	mov    rax,QWORD PTR [rax+0x1a8]
    378c:	48 01 d0             	add    rax,rdx
    378f:	48 8d 48 ff          	lea    rcx,[rax-0x1]
    3793:	48 ba cf f7 53 e3 a5 	movabs rdx,0x20c49ba5e353f7cf
    379a:	9b c4 20 
    379d:	48 89 c8             	mov    rax,rcx
    37a0:	48 f7 ea             	imul   rdx
    37a3:	48 c1 fa 09          	sar    rdx,0x9
    37a7:	48 89 c8             	mov    rax,rcx
    37aa:	48 c1 f8 3f          	sar    rax,0x3f
    37ae:	48 29 c2             	sub    rdx,rax
    37b1:	48 89 d0             	mov    rax,rdx
    37b4:	48 8d 50 01          	lea    rdx,[rax+0x1]
    37b8:	48 8b 45 a8          	mov    rax,QWORD PTR [rbp-0x58]
    37bc:	48 89 90 70 02 00 00 	mov    QWORD PTR [rax+0x270],rdx
    37c3:	48 8b 45 a0          	mov    rax,QWORD PTR [rbp-0x60]
    37c7:	48 8b 10             	mov    rdx,QWORD PTR [rax]
    37ca:	48 8b 45 a8          	mov    rax,QWORD PTR [rbp-0x58]
    37ce:	48 8b 80 a8 01 00 00 	mov    rax,QWORD PTR [rax+0x1a8]
    37d5:	48 8d 0c 02          	lea    rcx,[rdx+rax*1]
    37d9:	48 ba cf f7 53 e3 a5 	movabs rdx,0x20c49ba5e353f7cf
    37e0:	9b c4 20 
    37e3:	48 89 c8             	mov    rax,rcx
    37e6:	48 f7 ea             	imul   rdx
    37e9:	48 c1 fa 09          	sar    rdx,0x9
    37ed:	48 89 c8             	mov    rax,rcx
    37f0:	48 c1 f8 3f          	sar    rax,0x3f
    37f4:	48 29 c2             	sub    rdx,rax
    37f7:	48 89 d0             	mov    rax,rdx
    37fa:	48 69 c0 a0 0f 00 00 	imul   rax,rax,0xfa0
    3801:	48 29 c1             	sub    rcx,rax
    3804:	48 89 c8             	mov    rax,rcx
    3807:	48 85 c0             	test   rax,rax
    380a:	74 6d                	je     3879 <fwrite@plt+0x25c9>
    380c:	48 8b 45 a8          	mov    rax,QWORD PTR [rbp-0x58]
    3810:	48 8b b0 70 02 00 00 	mov    rsi,QWORD PTR [rax+0x270]
    3817:	48 8b 45 a0          	mov    rax,QWORD PTR [rbp-0x60]
    381b:	48 8b 10             	mov    rdx,QWORD PTR [rax]
    381e:	48 8b 45 a8          	mov    rax,QWORD PTR [rbp-0x58]
    3822:	48 8b 80 a8 01 00 00 	mov    rax,QWORD PTR [rax+0x1a8]
    3829:	48 8d 0c 02          	lea    rcx,[rdx+rax*1]
    382d:	48 ba cf f7 53 e3 a5 	movabs rdx,0x20c49ba5e353f7cf
    3834:	9b c4 20 
    3837:	48 89 c8             	mov    rax,rcx
    383a:	48 f7 ea             	imul   rdx
    383d:	48 c1 fa 09          	sar    rdx,0x9
    3841:	48 89 c8             	mov    rax,rcx
    3844:	48 c1 f8 3f          	sar    rax,0x3f
    3848:	48 29 c2             	sub    rdx,rax
    384b:	48 89 d0             	mov    rax,rdx
    384e:	48 69 c0 a0 0f 00 00 	imul   rax,rax,0xfa0
    3855:	48 29 c1             	sub    rcx,rax
    3858:	48 89 c8             	mov    rax,rcx
    385b:	ba a0 0f 00 00       	mov    edx,0xfa0
    3860:	48 29 c2             	sub    rdx,rax
    3863:	48 89 d0             	mov    rax,rdx
    3866:	48 29 c6             	sub    rsi,rax
    3869:	48 89 f2             	mov    rdx,rsi
    386c:	48 8b 45 a8          	mov    rax,QWORD PTR [rbp-0x58]
    3870:	48 89 90 78 02 00 00 	mov    QWORD PTR [rax+0x278],rdx
    3877:	eb 56                	jmp    38cf <fwrite@plt+0x261f>
    3879:	48 8b 45 a8          	mov    rax,QWORD PTR [rbp-0x58]
    387d:	48 8b 90 70 02 00 00 	mov    rdx,QWORD PTR [rax+0x270]
    3884:	48 8b 45 a8          	mov    rax,QWORD PTR [rbp-0x58]
    3888:	48 89 90 78 02 00 00 	mov    QWORD PTR [rax+0x278],rdx
    388f:	eb 3e                	jmp    38cf <fwrite@plt+0x261f>
    3891:	48 8b 45 a8          	mov    rax,QWORD PTR [rbp-0x58]
    3895:	48 8b 90 70 02 00 00 	mov    rdx,QWORD PTR [rax+0x270]
    389c:	48 8b 45 a8          	mov    rax,QWORD PTR [rbp-0x58]
    38a0:	48 8b 80 78 02 00 00 	mov    rax,QWORD PTR [rax+0x278]
    38a7:	48 01 c2             	add    rdx,rax
    38aa:	48 8b 45 a8          	mov    rax,QWORD PTR [rbp-0x58]
    38ae:	48 89 90 78 02 00 00 	mov    QWORD PTR [rax+0x278],rdx
    38b5:	48 8b 45 a8          	mov    rax,QWORD PTR [rbp-0x58]
    38b9:	48 8b 80 80 02 00 00 	mov    rax,QWORD PTR [rax+0x280]
    38c0:	48 8d 50 ff          	lea    rdx,[rax-0x1]
    38c4:	48 8b 45 a8          	mov    rax,QWORD PTR [rbp-0x58]
    38c8:	48 89 90 80 02 00 00 	mov    QWORD PTR [rax+0x280],rdx
    38cf:	48 8b 45 a8          	mov    rax,QWORD PTR [rbp-0x58]
    38d3:	48 8b 80 78 02 00 00 	mov    rax,QWORD PTR [rax+0x278]
    38da:	48 85 c0             	test   rax,rax
    38dd:	78 b2                	js     3891 <fwrite@plt+0x25e1>
    38df:	48 8b 45 e8          	mov    rax,QWORD PTR [rbp-0x18]
    38e3:	48 89 c7             	mov    rdi,rax
    38e6:	e8 95 d8 ff ff       	call   1180 <free@plt>
    38eb:	48 8b 45 f0          	mov    rax,QWORD PTR [rbp-0x10]
    38ef:	48 89 c7             	mov    rdi,rax
    38f2:	e8 89 d8 ff ff       	call   1180 <free@plt>
    38f7:	90                   	nop
    38f8:	48 8b 45 f8          	mov    rax,QWORD PTR [rbp-0x8]
    38fc:	64 48 33 04 25 28 00 	xor    rax,QWORD PTR fs:0x28
    3903:	00 00 
    3905:	74 05                	je     390c <fwrite@plt+0x265c>
    3907:	e8 c4 d8 ff ff       	call   11d0 <__stack_chk_fail@plt>
    390c:	c9                   	leave  
    390d:	c3                   	ret    
    390e:	f3 0f 1e fa          	endbr64 
    3912:	55                   	push   rbp
    3913:	48 89 e5             	mov    rbp,rsp
    3916:	48 83 ec 40          	sub    rsp,0x40
    391a:	48 89 7d c8          	mov    QWORD PTR [rbp-0x38],rdi
    391e:	48 8b 45 c8          	mov    rax,QWORD PTR [rbp-0x38]
    3922:	48 8b 90 a0 01 00 00 	mov    rdx,QWORD PTR [rax+0x1a0]
    3929:	48 8b 45 c8          	mov    rax,QWORD PTR [rbp-0x38]
    392d:	48 8b 80 c8 01 00 00 	mov    rax,QWORD PTR [rax+0x1c8]
    3934:	48 01 c2             	add    rdx,rax
    3937:	48 8b 45 c8          	mov    rax,QWORD PTR [rbp-0x38]
    393b:	48 89 90 a0 01 00 00 	mov    QWORD PTR [rax+0x1a0],rdx
    3942:	48 8b 45 c8          	mov    rax,QWORD PTR [rbp-0x38]
    3946:	48 8b 90 c0 01 00 00 	mov    rdx,QWORD PTR [rax+0x1c0]
    394d:	48 8b 45 c8          	mov    rax,QWORD PTR [rbp-0x38]
    3951:	48 8b 80 c8 01 00 00 	mov    rax,QWORD PTR [rax+0x1c8]
    3958:	48 01 c2             	add    rdx,rax
    395b:	48 8b 45 c8          	mov    rax,QWORD PTR [rbp-0x38]
    395f:	48 89 90 c0 01 00 00 	mov    QWORD PTR [rax+0x1c0],rdx
    3966:	48 8b 45 c8          	mov    rax,QWORD PTR [rbp-0x38]
    396a:	48 8b 80 a0 01 00 00 	mov    rax,QWORD PTR [rax+0x1a0]
    3971:	48 89 c2             	mov    rdx,rax
    3974:	48 89 d0             	mov    rax,rdx
    3977:	48 c1 e0 03          	shl    rax,0x3
    397b:	48 01 d0             	add    rax,rdx
    397e:	48 c1 e0 03          	shl    rax,0x3
    3982:	48 89 c2             	mov    rdx,rax
    3985:	48 8b 45 c8          	mov    rax,QWORD PTR [rbp-0x38]
    3989:	48 8b 80 38 02 00 00 	mov    rax,QWORD PTR [rax+0x238]
    3990:	48 89 d6             	mov    rsi,rdx
    3993:	48 89 c7             	mov    rdi,rax
    3996:	e8 c5 d8 ff ff       	call   1260 <realloc@plt>
    399b:	48 89 45 d8          	mov    QWORD PTR [rbp-0x28],rax
    399f:	48 83 7d d8 00       	cmp    QWORD PTR [rbp-0x28],0x0
    39a4:	75 33                	jne    39d9 <fwrite@plt+0x2729>
    39a6:	48 8b 45 c8          	mov    rax,QWORD PTR [rbp-0x38]
    39aa:	48 89 c6             	mov    rsi,rax
    39ad:	48 8d 3d 84 59 00 00 	lea    rdi,[rip+0x5984]        # 9338 <fwrite@plt+0x8088>
    39b4:	b8 00 00 00 00       	mov    eax,0x0
    39b9:	e8 22 d8 ff ff       	call   11e0 <printf@plt>
    39be:	48 8b 05 5b 76 00 00 	mov    rax,QWORD PTR [rip+0x765b]        # b020 <stdout@@GLIBC_2.2.5>
    39c5:	48 89 c7             	mov    rdi,rax
    39c8:	e8 73 d8 ff ff       	call   1240 <fflush@plt>
    39cd:	48 c7 c0 ff ff ff ff 	mov    rax,0xffffffffffffffff
    39d4:	e9 41 01 00 00       	jmp    3b1a <fwrite@plt+0x286a>
    39d9:	48 8b 45 c8          	mov    rax,QWORD PTR [rbp-0x38]
    39dd:	48 8b 80 38 02 00 00 	mov    rax,QWORD PTR [rax+0x238]
    39e4:	48 89 45 e0          	mov    QWORD PTR [rbp-0x20],rax
    39e8:	48 8b 45 c8          	mov    rax,QWORD PTR [rbp-0x38]
    39ec:	48 8b 55 d8          	mov    rdx,QWORD PTR [rbp-0x28]
    39f0:	48 89 90 38 02 00 00 	mov    QWORD PTR [rax+0x238],rdx
    39f7:	48 8b 45 c8          	mov    rax,QWORD PTR [rbp-0x38]
    39fb:	48 8b 80 a8 01 00 00 	mov    rax,QWORD PTR [rax+0x1a8]
    3a02:	48 89 c2             	mov    rdx,rax
    3a05:	48 89 d0             	mov    rax,rdx
    3a08:	48 c1 e0 03          	shl    rax,0x3
    3a0c:	48 01 d0             	add    rax,rdx
    3a0f:	48 c1 e0 03          	shl    rax,0x3
    3a13:	48 89 c2             	mov    rdx,rax
    3a16:	48 8b 45 d8          	mov    rax,QWORD PTR [rbp-0x28]
    3a1a:	48 01 c2             	add    rdx,rax
    3a1d:	48 8b 45 c8          	mov    rax,QWORD PTR [rbp-0x38]
    3a21:	48 89 90 40 02 00 00 	mov    QWORD PTR [rax+0x240],rdx
    3a28:	48 8b 45 c8          	mov    rax,QWORD PTR [rbp-0x38]
    3a2c:	48 8b 80 28 02 00 00 	mov    rax,QWORD PTR [rax+0x228]
    3a33:	48 89 45 d0          	mov    QWORD PTR [rbp-0x30],rax
    3a37:	48 8b 45 d0          	mov    rax,QWORD PTR [rbp-0x30]
    3a3b:	48 89 45 e8          	mov    QWORD PTR [rbp-0x18],rax
    3a3f:	48 83 45 d0 68       	add    QWORD PTR [rbp-0x30],0x68
    3a44:	48 8b 45 c8          	mov    rax,QWORD PTR [rbp-0x38]
    3a48:	48 8b 80 30 02 00 00 	mov    rax,QWORD PTR [rax+0x230]
    3a4f:	48 89 45 f0          	mov    QWORD PTR [rbp-0x10],rax
    3a53:	eb 6e                	jmp    3ac3 <fwrite@plt+0x2813>
    3a55:	48 8b 45 d0          	mov    rax,QWORD PTR [rbp-0x30]
    3a59:	48 8b 40 30          	mov    rax,QWORD PTR [rax+0x30]
    3a5d:	48 85 c0             	test   rax,rax
    3a60:	74 5c                	je     3abe <fwrite@plt+0x280e>
    3a62:	48 8b 45 d0          	mov    rax,QWORD PTR [rbp-0x30]
    3a66:	48 8b 40 18          	mov    rax,QWORD PTR [rax+0x18]
    3a6a:	48 39 45 e8          	cmp    QWORD PTR [rbp-0x18],rax
    3a6e:	74 4e                	je     3abe <fwrite@plt+0x280e>
    3a70:	48 8b 45 d0          	mov    rax,QWORD PTR [rbp-0x30]
    3a74:	48 8b 40 30          	mov    rax,QWORD PTR [rax+0x30]
    3a78:	48 2b 45 e0          	sub    rax,QWORD PTR [rbp-0x20]
    3a7c:	48 c1 f8 03          	sar    rax,0x3
    3a80:	48 89 c2             	mov    rdx,rax
    3a83:	48 b8 39 8e e3 38 8e 	movabs rax,0x8e38e38e38e38e39
    3a8a:	e3 38 8e 
    3a8d:	48 0f af c2          	imul   rax,rdx
    3a91:	48 89 45 f8          	mov    QWORD PTR [rbp-0x8],rax
    3a95:	48 8b 45 c8          	mov    rax,QWORD PTR [rbp-0x38]
    3a99:	48 8b 88 38 02 00 00 	mov    rcx,QWORD PTR [rax+0x238]
    3aa0:	48 8b 55 f8          	mov    rdx,QWORD PTR [rbp-0x8]
    3aa4:	48 89 d0             	mov    rax,rdx
    3aa7:	48 c1 e0 03          	shl    rax,0x3
    3aab:	48 01 d0             	add    rax,rdx
    3aae:	48 c1 e0 03          	shl    rax,0x3
    3ab2:	48 8d 14 01          	lea    rdx,[rcx+rax*1]
    3ab6:	48 8b 45 d0          	mov    rax,QWORD PTR [rbp-0x30]
    3aba:	48 89 50 30          	mov    QWORD PTR [rax+0x30],rdx
    3abe:	48 83 45 d0 68       	add    QWORD PTR [rbp-0x30],0x68
    3ac3:	48 8b 45 d0          	mov    rax,QWORD PTR [rbp-0x30]
    3ac7:	48 3b 45 f0          	cmp    rax,QWORD PTR [rbp-0x10]
    3acb:	72 88                	jb     3a55 <fwrite@plt+0x27a5>
    3acd:	48 8b 45 c8          	mov    rax,QWORD PTR [rbp-0x38]
    3ad1:	48 8b 80 a0 01 00 00 	mov    rax,QWORD PTR [rax+0x1a0]
    3ad8:	48 89 c2             	mov    rdx,rax
    3adb:	48 89 d0             	mov    rax,rdx
    3ade:	48 c1 e0 03          	shl    rax,0x3
    3ae2:	48 01 d0             	add    rax,rdx
    3ae5:	48 c1 e0 03          	shl    rax,0x3
    3ae9:	48 89 c2             	mov    rdx,rax
    3aec:	48 8b 45 c8          	mov    rax,QWORD PTR [rbp-0x38]
    3af0:	48 8b 80 48 02 00 00 	mov    rax,QWORD PTR [rax+0x248]
    3af7:	48 89 d6             	mov    rsi,rdx
    3afa:	48 89 c7             	mov    rdi,rax
    3afd:	e8 5e d7 ff ff       	call   1260 <realloc@plt>
    3b02:	48 89 45 d8          	mov    QWORD PTR [rbp-0x28],rax
    3b06:	48 8b 45 c8          	mov    rax,QWORD PTR [rbp-0x38]
    3b0a:	48 8b 55 d8          	mov    rdx,QWORD PTR [rbp-0x28]
    3b0e:	48 89 90 48 02 00 00 	mov    QWORD PTR [rax+0x248],rdx
    3b15:	b8 00 00 00 00       	mov    eax,0x0
    3b1a:	c9                   	leave  
    3b1b:	c3                   	ret    
    3b1c:	f3 0f 1e fa          	endbr64 
    3b20:	55                   	push   rbp
    3b21:	48 89 e5             	mov    rbp,rsp
    3b24:	48 89 7d e8          	mov    QWORD PTR [rbp-0x18],rdi
    3b28:	48 89 75 e0          	mov    QWORD PTR [rbp-0x20],rsi
    3b2c:	48 89 55 d8          	mov    QWORD PTR [rbp-0x28],rdx
    3b30:	48 89 4d d0          	mov    QWORD PTR [rbp-0x30],rcx
    3b34:	4c 89 45 c8          	mov    QWORD PTR [rbp-0x38],r8
    3b38:	4c 89 4d c0          	mov    QWORD PTR [rbp-0x40],r9
    3b3c:	48 8b 55 e0          	mov    rdx,QWORD PTR [rbp-0x20]
    3b40:	48 89 d0             	mov    rax,rdx
    3b43:	48 c1 e0 03          	shl    rax,0x3
    3b47:	48 01 d0             	add    rax,rdx
    3b4a:	48 c1 e0 03          	shl    rax,0x3
    3b4e:	48 89 c2             	mov    rdx,rax
    3b51:	48 8b 45 e8          	mov    rax,QWORD PTR [rbp-0x18]
    3b55:	48 01 c2             	add    rdx,rax
    3b58:	48 8b 45 d8          	mov    rax,QWORD PTR [rbp-0x28]
    3b5c:	48 89 42 10          	mov    QWORD PTR [rdx+0x10],rax
    3b60:	48 8b 55 e0          	mov    rdx,QWORD PTR [rbp-0x20]
    3b64:	48 89 d0             	mov    rax,rdx
    3b67:	48 c1 e0 03          	shl    rax,0x3
    3b6b:	48 01 d0             	add    rax,rdx
    3b6e:	48 c1 e0 03          	shl    rax,0x3
    3b72:	48 89 c2             	mov    rdx,rax
    3b75:	48 8b 45 e8          	mov    rax,QWORD PTR [rbp-0x18]
    3b79:	48 01 c2             	add    rdx,rax
    3b7c:	48 8b 45 d0          	mov    rax,QWORD PTR [rbp-0x30]
    3b80:	48 89 42 18          	mov    QWORD PTR [rdx+0x18],rax
    3b84:	48 8b 55 e0          	mov    rdx,QWORD PTR [rbp-0x20]
    3b88:	48 89 d0             	mov    rax,rdx
    3b8b:	48 c1 e0 03          	shl    rax,0x3
    3b8f:	48 01 d0             	add    rax,rdx
    3b92:	48 c1 e0 03          	shl    rax,0x3
    3b96:	48 89 c2             	mov    rdx,rax
    3b99:	48 8b 45 e8          	mov    rax,QWORD PTR [rbp-0x18]
    3b9d:	48 01 c2             	add    rdx,rax
    3ba0:	48 8b 45 c8          	mov    rax,QWORD PTR [rbp-0x38]
    3ba4:	48 89 42 40          	mov    QWORD PTR [rdx+0x40],rax
    3ba8:	48 8b 55 e0          	mov    rdx,QWORD PTR [rbp-0x20]
    3bac:	48 89 d0             	mov    rax,rdx
    3baf:	48 c1 e0 03          	shl    rax,0x3
    3bb3:	48 01 d0             	add    rax,rdx
    3bb6:	48 c1 e0 03          	shl    rax,0x3
    3bba:	48 89 c2             	mov    rdx,rax
    3bbd:	48 8b 45 e8          	mov    rax,QWORD PTR [rbp-0x18]
    3bc1:	48 01 c2             	add    rdx,rax
    3bc4:	48 8b 45 c8          	mov    rax,QWORD PTR [rbp-0x38]
    3bc8:	48 89 42 08          	mov    QWORD PTR [rdx+0x8],rax
    3bcc:	48 8b 55 e0          	mov    rdx,QWORD PTR [rbp-0x20]
    3bd0:	48 89 d0             	mov    rax,rdx
    3bd3:	48 c1 e0 03          	shl    rax,0x3
    3bd7:	48 01 d0             	add    rax,rdx
    3bda:	48 c1 e0 03          	shl    rax,0x3
    3bde:	48 89 c2             	mov    rdx,rax
    3be1:	48 8b 45 e8          	mov    rax,QWORD PTR [rbp-0x18]
    3be5:	48 01 c2             	add    rdx,rax
    3be8:	48 8b 45 c0          	mov    rax,QWORD PTR [rbp-0x40]
    3bec:	48 89 42 38          	mov    QWORD PTR [rdx+0x38],rax
    3bf0:	48 8b 55 e0          	mov    rdx,QWORD PTR [rbp-0x20]
    3bf4:	48 89 d0             	mov    rax,rdx
    3bf7:	48 c1 e0 03          	shl    rax,0x3
    3bfb:	48 01 d0             	add    rax,rdx
    3bfe:	48 c1 e0 03          	shl    rax,0x3
    3c02:	48 89 c2             	mov    rdx,rax
    3c05:	48 8b 45 e8          	mov    rax,QWORD PTR [rbp-0x18]
    3c09:	48 01 d0             	add    rax,rdx
    3c0c:	48 8b 55 18          	mov    rdx,QWORD PTR [rbp+0x18]
    3c10:	89 10                	mov    DWORD PTR [rax],edx
    3c12:	48 8b 45 e0          	mov    rax,QWORD PTR [rbp-0x20]
    3c16:	48 ff c0             	inc    rax
    3c19:	48 89 45 f8          	mov    QWORD PTR [rbp-0x8],rax
    3c1d:	e9 df 02 00 00       	jmp    3f01 <fwrite@plt+0x2c51>
    3c22:	48 8b 45 f8          	mov    rax,QWORD PTR [rbp-0x8]
    3c26:	48 89 c2             	mov    rdx,rax
    3c29:	48 c1 ea 3f          	shr    rdx,0x3f
    3c2d:	48 01 d0             	add    rax,rdx
    3c30:	48 d1 f8             	sar    rax,1
    3c33:	48 89 c2             	mov    rdx,rax
    3c36:	48 89 d0             	mov    rax,rdx
    3c39:	48 c1 e0 03          	shl    rax,0x3
    3c3d:	48 01 d0             	add    rax,rdx
    3c40:	48 c1 e0 03          	shl    rax,0x3
    3c44:	48 8d 50 b8          	lea    rdx,[rax-0x48]
    3c48:	48 8b 45 e8          	mov    rax,QWORD PTR [rbp-0x18]
    3c4c:	48 8d 0c 02          	lea    rcx,[rdx+rax*1]
    3c50:	48 8b 55 f8          	mov    rdx,QWORD PTR [rbp-0x8]
    3c54:	48 89 d0             	mov    rax,rdx
    3c57:	48 c1 e0 03          	shl    rax,0x3
    3c5b:	48 01 d0             	add    rax,rdx
    3c5e:	48 c1 e0 03          	shl    rax,0x3
    3c62:	48 8d 50 b8          	lea    rdx,[rax-0x48]
    3c66:	48 8b 45 e8          	mov    rax,QWORD PTR [rbp-0x18]
    3c6a:	48 01 c2             	add    rdx,rax
    3c6d:	48 8b 41 10          	mov    rax,QWORD PTR [rcx+0x10]
    3c71:	48 89 42 10          	mov    QWORD PTR [rdx+0x10],rax
    3c75:	48 8b 45 f8          	mov    rax,QWORD PTR [rbp-0x8]
    3c79:	48 89 c2             	mov    rdx,rax
    3c7c:	48 c1 ea 3f          	shr    rdx,0x3f
    3c80:	48 01 d0             	add    rax,rdx
    3c83:	48 d1 f8             	sar    rax,1
    3c86:	48 89 c2             	mov    rdx,rax
    3c89:	48 89 d0             	mov    rax,rdx
    3c8c:	48 c1 e0 03          	shl    rax,0x3
    3c90:	48 01 d0             	add    rax,rdx
    3c93:	48 c1 e0 03          	shl    rax,0x3
    3c97:	48 8d 50 b8          	lea    rdx,[rax-0x48]
    3c9b:	48 8b 45 e8          	mov    rax,QWORD PTR [rbp-0x18]
    3c9f:	48 8d 0c 02          	lea    rcx,[rdx+rax*1]
    3ca3:	48 8b 55 f8          	mov    rdx,QWORD PTR [rbp-0x8]
    3ca7:	48 89 d0             	mov    rax,rdx
    3caa:	48 c1 e0 03          	shl    rax,0x3
    3cae:	48 01 d0             	add    rax,rdx
    3cb1:	48 c1 e0 03          	shl    rax,0x3
    3cb5:	48 8d 50 b8          	lea    rdx,[rax-0x48]
    3cb9:	48 8b 45 e8          	mov    rax,QWORD PTR [rbp-0x18]
    3cbd:	48 01 c2             	add    rdx,rax
    3cc0:	48 8b 41 18          	mov    rax,QWORD PTR [rcx+0x18]
    3cc4:	48 89 42 18          	mov    QWORD PTR [rdx+0x18],rax
    3cc8:	48 8b 45 f8          	mov    rax,QWORD PTR [rbp-0x8]
    3ccc:	48 89 c2             	mov    rdx,rax
    3ccf:	48 c1 ea 3f          	shr    rdx,0x3f
    3cd3:	48 01 d0             	add    rax,rdx
    3cd6:	48 d1 f8             	sar    rax,1
    3cd9:	48 89 c2             	mov    rdx,rax
    3cdc:	48 89 d0             	mov    rax,rdx
    3cdf:	48 c1 e0 03          	shl    rax,0x3
    3ce3:	48 01 d0             	add    rax,rdx
    3ce6:	48 c1 e0 03          	shl    rax,0x3
    3cea:	48 8d 50 b8          	lea    rdx,[rax-0x48]
    3cee:	48 8b 45 e8          	mov    rax,QWORD PTR [rbp-0x18]
    3cf2:	48 8d 0c 02          	lea    rcx,[rdx+rax*1]
    3cf6:	48 8b 55 f8          	mov    rdx,QWORD PTR [rbp-0x8]
    3cfa:	48 89 d0             	mov    rax,rdx
    3cfd:	48 c1 e0 03          	shl    rax,0x3
    3d01:	48 01 d0             	add    rax,rdx
    3d04:	48 c1 e0 03          	shl    rax,0x3
    3d08:	48 8d 50 b8          	lea    rdx,[rax-0x48]
    3d0c:	48 8b 45 e8          	mov    rax,QWORD PTR [rbp-0x18]
    3d10:	48 01 c2             	add    rdx,rax
    3d13:	48 8b 41 08          	mov    rax,QWORD PTR [rcx+0x8]
    3d17:	48 89 42 08          	mov    QWORD PTR [rdx+0x8],rax
    3d1b:	48 8b 45 f8          	mov    rax,QWORD PTR [rbp-0x8]
    3d1f:	48 89 c2             	mov    rdx,rax
    3d22:	48 c1 ea 3f          	shr    rdx,0x3f
    3d26:	48 01 d0             	add    rax,rdx
    3d29:	48 d1 f8             	sar    rax,1
    3d2c:	48 89 c2             	mov    rdx,rax
    3d2f:	48 89 d0             	mov    rax,rdx
    3d32:	48 c1 e0 03          	shl    rax,0x3
    3d36:	48 01 d0             	add    rax,rdx
    3d39:	48 c1 e0 03          	shl    rax,0x3
    3d3d:	48 8d 50 b8          	lea    rdx,[rax-0x48]
    3d41:	48 8b 45 e8          	mov    rax,QWORD PTR [rbp-0x18]
    3d45:	48 8d 0c 02          	lea    rcx,[rdx+rax*1]
    3d49:	48 8b 55 f8          	mov    rdx,QWORD PTR [rbp-0x8]
    3d4d:	48 89 d0             	mov    rax,rdx
    3d50:	48 c1 e0 03          	shl    rax,0x3
    3d54:	48 01 d0             	add    rax,rdx
    3d57:	48 c1 e0 03          	shl    rax,0x3
    3d5b:	48 8d 50 b8          	lea    rdx,[rax-0x48]
    3d5f:	48 8b 45 e8          	mov    rax,QWORD PTR [rbp-0x18]
    3d63:	48 01 c2             	add    rdx,rax
    3d66:	48 8b 41 08          	mov    rax,QWORD PTR [rcx+0x8]
    3d6a:	48 89 42 40          	mov    QWORD PTR [rdx+0x40],rax
    3d6e:	48 8b 45 f8          	mov    rax,QWORD PTR [rbp-0x8]
    3d72:	48 89 c2             	mov    rdx,rax
    3d75:	48 c1 ea 3f          	shr    rdx,0x3f
    3d79:	48 01 d0             	add    rax,rdx
    3d7c:	48 d1 f8             	sar    rax,1
    3d7f:	48 89 c2             	mov    rdx,rax
    3d82:	48 89 d0             	mov    rax,rdx
    3d85:	48 c1 e0 03          	shl    rax,0x3
    3d89:	48 01 d0             	add    rax,rdx
    3d8c:	48 c1 e0 03          	shl    rax,0x3
    3d90:	48 8d 50 b8          	lea    rdx,[rax-0x48]
    3d94:	48 8b 45 e8          	mov    rax,QWORD PTR [rbp-0x18]
    3d98:	48 8d 0c 02          	lea    rcx,[rdx+rax*1]
    3d9c:	48 8b 55 f8          	mov    rdx,QWORD PTR [rbp-0x8]
    3da0:	48 89 d0             	mov    rax,rdx
    3da3:	48 c1 e0 03          	shl    rax,0x3
    3da7:	48 01 d0             	add    rax,rdx
    3daa:	48 c1 e0 03          	shl    rax,0x3
    3dae:	48 8d 50 b8          	lea    rdx,[rax-0x48]
    3db2:	48 8b 45 e8          	mov    rax,QWORD PTR [rbp-0x18]
    3db6:	48 01 c2             	add    rdx,rax
    3db9:	48 8b 41 38          	mov    rax,QWORD PTR [rcx+0x38]
    3dbd:	48 89 42 38          	mov    QWORD PTR [rdx+0x38],rax
    3dc1:	48 8b 45 f8          	mov    rax,QWORD PTR [rbp-0x8]
    3dc5:	48 89 c2             	mov    rdx,rax
    3dc8:	48 c1 ea 3f          	shr    rdx,0x3f
    3dcc:	48 01 d0             	add    rax,rdx
    3dcf:	48 d1 f8             	sar    rax,1
    3dd2:	48 89 c2             	mov    rdx,rax
    3dd5:	48 89 d0             	mov    rax,rdx
    3dd8:	48 c1 e0 03          	shl    rax,0x3
    3ddc:	48 01 d0             	add    rax,rdx
    3ddf:	48 c1 e0 03          	shl    rax,0x3
    3de3:	48 8d 50 b8          	lea    rdx,[rax-0x48]
    3de7:	48 8b 45 e8          	mov    rax,QWORD PTR [rbp-0x18]
    3deb:	48 8d 0c 02          	lea    rcx,[rdx+rax*1]
    3def:	48 8b 55 f8          	mov    rdx,QWORD PTR [rbp-0x8]
    3df3:	48 89 d0             	mov    rax,rdx
    3df6:	48 c1 e0 03          	shl    rax,0x3
    3dfa:	48 01 d0             	add    rax,rdx
    3dfd:	48 c1 e0 03          	shl    rax,0x3
    3e01:	48 8d 50 b8          	lea    rdx,[rax-0x48]
    3e05:	48 8b 45 e8          	mov    rax,QWORD PTR [rbp-0x18]
    3e09:	48 01 c2             	add    rdx,rax
    3e0c:	8b 01                	mov    eax,DWORD PTR [rcx]
    3e0e:	89 02                	mov    DWORD PTR [rdx],eax
    3e10:	48 8b 45 f8          	mov    rax,QWORD PTR [rbp-0x8]
    3e14:	48 89 c2             	mov    rdx,rax
    3e17:	48 c1 ea 3f          	shr    rdx,0x3f
    3e1b:	48 01 d0             	add    rax,rdx
    3e1e:	48 d1 f8             	sar    rax,1
    3e21:	48 89 45 f8          	mov    QWORD PTR [rbp-0x8],rax
    3e25:	48 8b 55 f8          	mov    rdx,QWORD PTR [rbp-0x8]
    3e29:	48 89 d0             	mov    rax,rdx
    3e2c:	48 c1 e0 03          	shl    rax,0x3
    3e30:	48 01 d0             	add    rax,rdx
    3e33:	48 c1 e0 03          	shl    rax,0x3
    3e37:	48 8d 50 b8          	lea    rdx,[rax-0x48]
    3e3b:	48 8b 45 e8          	mov    rax,QWORD PTR [rbp-0x18]
    3e3f:	48 01 c2             	add    rdx,rax
    3e42:	48 8b 45 d8          	mov    rax,QWORD PTR [rbp-0x28]
    3e46:	48 89 42 10          	mov    QWORD PTR [rdx+0x10],rax
    3e4a:	48 8b 55 f8          	mov    rdx,QWORD PTR [rbp-0x8]
    3e4e:	48 89 d0             	mov    rax,rdx
    3e51:	48 c1 e0 03          	shl    rax,0x3
    3e55:	48 01 d0             	add    rax,rdx
    3e58:	48 c1 e0 03          	shl    rax,0x3
    3e5c:	48 8d 50 b8          	lea    rdx,[rax-0x48]
    3e60:	48 8b 45 e8          	mov    rax,QWORD PTR [rbp-0x18]
    3e64:	48 01 c2             	add    rdx,rax
    3e67:	48 8b 45 d0          	mov    rax,QWORD PTR [rbp-0x30]
    3e6b:	48 89 42 18          	mov    QWORD PTR [rdx+0x18],rax
    3e6f:	48 8b 55 f8          	mov    rdx,QWORD PTR [rbp-0x8]
    3e73:	48 89 d0             	mov    rax,rdx
    3e76:	48 c1 e0 03          	shl    rax,0x3
    3e7a:	48 01 d0             	add    rax,rdx
    3e7d:	48 c1 e0 03          	shl    rax,0x3
    3e81:	48 8d 50 b8          	lea    rdx,[rax-0x48]
    3e85:	48 8b 45 e8          	mov    rax,QWORD PTR [rbp-0x18]
    3e89:	48 01 c2             	add    rdx,rax
    3e8c:	48 8b 45 c8          	mov    rax,QWORD PTR [rbp-0x38]
    3e90:	48 89 42 08          	mov    QWORD PTR [rdx+0x8],rax
    3e94:	48 8b 55 f8          	mov    rdx,QWORD PTR [rbp-0x8]
    3e98:	48 89 d0             	mov    rax,rdx
    3e9b:	48 c1 e0 03          	shl    rax,0x3
    3e9f:	48 01 d0             	add    rax,rdx
    3ea2:	48 c1 e0 03          	shl    rax,0x3
    3ea6:	48 8d 50 b8          	lea    rdx,[rax-0x48]
    3eaa:	48 8b 45 e8          	mov    rax,QWORD PTR [rbp-0x18]
    3eae:	48 01 c2             	add    rdx,rax
    3eb1:	48 8b 45 c8          	mov    rax,QWORD PTR [rbp-0x38]
    3eb5:	48 89 42 40          	mov    QWORD PTR [rdx+0x40],rax
    3eb9:	48 8b 55 f8          	mov    rdx,QWORD PTR [rbp-0x8]
    3ebd:	48 89 d0             	mov    rax,rdx
    3ec0:	48 c1 e0 03          	shl    rax,0x3
    3ec4:	48 01 d0             	add    rax,rdx
    3ec7:	48 c1 e0 03          	shl    rax,0x3
    3ecb:	48 8d 50 b8          	lea    rdx,[rax-0x48]
    3ecf:	48 8b 45 e8          	mov    rax,QWORD PTR [rbp-0x18]
    3ed3:	48 01 c2             	add    rdx,rax
    3ed6:	48 8b 45 c0          	mov    rax,QWORD PTR [rbp-0x40]
    3eda:	48 89 42 38          	mov    QWORD PTR [rdx+0x38],rax
    3ede:	48 8b 55 f8          	mov    rdx,QWORD PTR [rbp-0x8]
    3ee2:	48 89 d0             	mov    rax,rdx
    3ee5:	48 c1 e0 03          	shl    rax,0x3
    3ee9:	48 01 d0             	add    rax,rdx
    3eec:	48 c1 e0 03          	shl    rax,0x3
    3ef0:	48 8d 50 b8          	lea    rdx,[rax-0x48]
    3ef4:	48 8b 45 e8          	mov    rax,QWORD PTR [rbp-0x18]
    3ef8:	48 01 d0             	add    rax,rdx
    3efb:	48 8b 55 18          	mov    rdx,QWORD PTR [rbp+0x18]
    3eff:	89 10                	mov    DWORD PTR [rax],edx
    3f01:	48 83 7d f8 01       	cmp    QWORD PTR [rbp-0x8],0x1
    3f06:	74 3c                	je     3f44 <fwrite@plt+0x2c94>
    3f08:	48 8b 45 f8          	mov    rax,QWORD PTR [rbp-0x8]
    3f0c:	48 89 c2             	mov    rdx,rax
    3f0f:	48 c1 ea 3f          	shr    rdx,0x3f
    3f13:	48 01 d0             	add    rax,rdx
    3f16:	48 d1 f8             	sar    rax,1
    3f19:	48 89 c2             	mov    rdx,rax
    3f1c:	48 89 d0             	mov    rax,rdx
    3f1f:	48 c1 e0 03          	shl    rax,0x3
    3f23:	48 01 d0             	add    rax,rdx
    3f26:	48 c1 e0 03          	shl    rax,0x3
    3f2a:	48 8d 50 b8          	lea    rdx,[rax-0x48]
    3f2e:	48 8b 45 e8          	mov    rax,QWORD PTR [rbp-0x18]
    3f32:	48 01 d0             	add    rax,rdx
    3f35:	48 8b 40 38          	mov    rax,QWORD PTR [rax+0x38]
    3f39:	48 39 45 c0          	cmp    QWORD PTR [rbp-0x40],rax
    3f3d:	0f 8f df fc ff ff    	jg     3c22 <fwrite@plt+0x2972>
    3f43:	90                   	nop
    3f44:	90                   	nop
    3f45:	5d                   	pop    rbp
    3f46:	c3                   	ret    
    3f47:	f3 0f 1e fa          	endbr64 
    3f4b:	55                   	push   rbp
    3f4c:	48 89 e5             	mov    rbp,rsp
    3f4f:	48 89 7d e8          	mov    QWORD PTR [rbp-0x18],rdi
    3f53:	48 89 75 e0          	mov    QWORD PTR [rbp-0x20],rsi
    3f57:	48 89 55 d8          	mov    QWORD PTR [rbp-0x28],rdx
    3f5b:	48 89 4d d0          	mov    QWORD PTR [rbp-0x30],rcx
    3f5f:	4c 89 45 c8          	mov    QWORD PTR [rbp-0x38],r8
    3f63:	4c 89 4d c0          	mov    QWORD PTR [rbp-0x40],r9
    3f67:	48 8b 45 e8          	mov    rax,QWORD PTR [rbp-0x18]
    3f6b:	48 8b 55 e0          	mov    rdx,QWORD PTR [rbp-0x20]
    3f6f:	48 89 50 10          	mov    QWORD PTR [rax+0x10],rdx
    3f73:	48 8b 45 e8          	mov    rax,QWORD PTR [rbp-0x18]
    3f77:	48 8b 55 d8          	mov    rdx,QWORD PTR [rbp-0x28]
    3f7b:	48 89 50 18          	mov    QWORD PTR [rax+0x18],rdx
    3f7f:	48 8b 45 e8          	mov    rax,QWORD PTR [rbp-0x18]
    3f83:	48 8b 55 d0          	mov    rdx,QWORD PTR [rbp-0x30]
    3f87:	48 89 50 40          	mov    QWORD PTR [rax+0x40],rdx
    3f8b:	48 8b 45 e8          	mov    rax,QWORD PTR [rbp-0x18]
    3f8f:	48 8b 55 d0          	mov    rdx,QWORD PTR [rbp-0x30]
    3f93:	48 89 50 08          	mov    QWORD PTR [rax+0x8],rdx
    3f97:	48 8b 45 e8          	mov    rax,QWORD PTR [rbp-0x18]
    3f9b:	48 8b 55 c8          	mov    rdx,QWORD PTR [rbp-0x38]
    3f9f:	48 89 50 38          	mov    QWORD PTR [rax+0x38],rdx
    3fa3:	48 8b 45 10          	mov    rax,QWORD PTR [rbp+0x10]
    3fa7:	89 c2                	mov    edx,eax
    3fa9:	48 8b 45 e8          	mov    rax,QWORD PTR [rbp-0x18]
    3fad:	89 10                	mov    DWORD PTR [rax],edx
    3faf:	48 c7 45 f0 01 00 00 	mov    QWORD PTR [rbp-0x10],0x1
    3fb6:	00 
    3fb7:	48 8b 45 e8          	mov    rax,QWORD PTR [rbp-0x18]
    3fbb:	48 83 c0 48          	add    rax,0x48
    3fbf:	48 8b 50 38          	mov    rdx,QWORD PTR [rax+0x38]
    3fc3:	48 8b 45 e8          	mov    rax,QWORD PTR [rbp-0x18]
    3fc7:	48 05 90 00 00 00    	add    rax,0x90
    3fcd:	48 8b 40 38          	mov    rax,QWORD PTR [rax+0x38]
    3fd1:	48 39 c2             	cmp    rdx,rax
    3fd4:	7e 07                	jle    3fdd <fwrite@plt+0x2d2d>
    3fd6:	b8 02 00 00 00       	mov    eax,0x2
    3fdb:	eb 05                	jmp    3fe2 <fwrite@plt+0x2d32>
    3fdd:	b8 03 00 00 00       	mov    eax,0x3
    3fe2:	48 89 45 f8          	mov    QWORD PTR [rbp-0x8],rax
    3fe6:	e9 ca 02 00 00       	jmp    42b5 <fwrite@plt+0x3005>
    3feb:	48 8b 55 f8          	mov    rdx,QWORD PTR [rbp-0x8]
    3fef:	48 89 d0             	mov    rax,rdx
    3ff2:	48 c1 e0 03          	shl    rax,0x3
    3ff6:	48 01 d0             	add    rax,rdx
    3ff9:	48 c1 e0 03          	shl    rax,0x3
    3ffd:	48 8d 50 b8          	lea    rdx,[rax-0x48]
    4001:	48 8b 45 e8          	mov    rax,QWORD PTR [rbp-0x18]
    4005:	48 8d 0c 02          	lea    rcx,[rdx+rax*1]
    4009:	48 8b 55 f0          	mov    rdx,QWORD PTR [rbp-0x10]
    400d:	48 89 d0             	mov    rax,rdx
    4010:	48 c1 e0 03          	shl    rax,0x3
    4014:	48 01 d0             	add    rax,rdx
    4017:	48 c1 e0 03          	shl    rax,0x3
    401b:	48 8d 50 b8          	lea    rdx,[rax-0x48]
    401f:	48 8b 45 e8          	mov    rax,QWORD PTR [rbp-0x18]
    4023:	48 01 c2             	add    rdx,rax
    4026:	48 8b 41 10          	mov    rax,QWORD PTR [rcx+0x10]
    402a:	48 89 42 10          	mov    QWORD PTR [rdx+0x10],rax
    402e:	48 8b 55 f8          	mov    rdx,QWORD PTR [rbp-0x8]
    4032:	48 89 d0             	mov    rax,rdx
    4035:	48 c1 e0 03          	shl    rax,0x3
    4039:	48 01 d0             	add    rax,rdx
    403c:	48 c1 e0 03          	shl    rax,0x3
    4040:	48 8d 50 b8          	lea    rdx,[rax-0x48]
    4044:	48 8b 45 e8          	mov    rax,QWORD PTR [rbp-0x18]
    4048:	48 8d 0c 02          	lea    rcx,[rdx+rax*1]
    404c:	48 8b 55 f0          	mov    rdx,QWORD PTR [rbp-0x10]
    4050:	48 89 d0             	mov    rax,rdx
    4053:	48 c1 e0 03          	shl    rax,0x3
    4057:	48 01 d0             	add    rax,rdx
    405a:	48 c1 e0 03          	shl    rax,0x3
    405e:	48 8d 50 b8          	lea    rdx,[rax-0x48]
    4062:	48 8b 45 e8          	mov    rax,QWORD PTR [rbp-0x18]
    4066:	48 01 c2             	add    rdx,rax
    4069:	48 8b 41 18          	mov    rax,QWORD PTR [rcx+0x18]
    406d:	48 89 42 18          	mov    QWORD PTR [rdx+0x18],rax
    4071:	48 8b 55 f8          	mov    rdx,QWORD PTR [rbp-0x8]
    4075:	48 89 d0             	mov    rax,rdx
    4078:	48 c1 e0 03          	shl    rax,0x3
    407c:	48 01 d0             	add    rax,rdx
    407f:	48 c1 e0 03          	shl    rax,0x3
    4083:	48 8d 50 b8          	lea    rdx,[rax-0x48]
    4087:	48 8b 45 e8          	mov    rax,QWORD PTR [rbp-0x18]
    408b:	48 8d 0c 02          	lea    rcx,[rdx+rax*1]
    408f:	48 8b 55 f0          	mov    rdx,QWORD PTR [rbp-0x10]
    4093:	48 89 d0             	mov    rax,rdx
    4096:	48 c1 e0 03          	shl    rax,0x3
    409a:	48 01 d0             	add    rax,rdx
    409d:	48 c1 e0 03          	shl    rax,0x3
    40a1:	48 8d 50 b8          	lea    rdx,[rax-0x48]
    40a5:	48 8b 45 e8          	mov    rax,QWORD PTR [rbp-0x18]
    40a9:	48 01 c2             	add    rdx,rax
    40ac:	48 8b 41 08          	mov    rax,QWORD PTR [rcx+0x8]
    40b0:	48 89 42 08          	mov    QWORD PTR [rdx+0x8],rax
    40b4:	48 8b 55 f8          	mov    rdx,QWORD PTR [rbp-0x8]
    40b8:	48 89 d0             	mov    rax,rdx
    40bb:	48 c1 e0 03          	shl    rax,0x3
    40bf:	48 01 d0             	add    rax,rdx
    40c2:	48 c1 e0 03          	shl    rax,0x3
    40c6:	48 8d 50 b8          	lea    rdx,[rax-0x48]
    40ca:	48 8b 45 e8          	mov    rax,QWORD PTR [rbp-0x18]
    40ce:	48 8d 0c 02          	lea    rcx,[rdx+rax*1]
    40d2:	48 8b 55 f0          	mov    rdx,QWORD PTR [rbp-0x10]
    40d6:	48 89 d0             	mov    rax,rdx
    40d9:	48 c1 e0 03          	shl    rax,0x3
    40dd:	48 01 d0             	add    rax,rdx
    40e0:	48 c1 e0 03          	shl    rax,0x3
    40e4:	48 8d 50 b8          	lea    rdx,[rax-0x48]
    40e8:	48 8b 45 e8          	mov    rax,QWORD PTR [rbp-0x18]
    40ec:	48 01 c2             	add    rdx,rax
    40ef:	48 8b 41 08          	mov    rax,QWORD PTR [rcx+0x8]
    40f3:	48 89 42 40          	mov    QWORD PTR [rdx+0x40],rax
    40f7:	48 8b 55 f8          	mov    rdx,QWORD PTR [rbp-0x8]
    40fb:	48 89 d0             	mov    rax,rdx
    40fe:	48 c1 e0 03          	shl    rax,0x3
    4102:	48 01 d0             	add    rax,rdx
    4105:	48 c1 e0 03          	shl    rax,0x3
    4109:	48 8d 50 b8          	lea    rdx,[rax-0x48]
    410d:	48 8b 45 e8          	mov    rax,QWORD PTR [rbp-0x18]
    4111:	48 8d 0c 02          	lea    rcx,[rdx+rax*1]
    4115:	48 8b 55 f0          	mov    rdx,QWORD PTR [rbp-0x10]
    4119:	48 89 d0             	mov    rax,rdx
    411c:	48 c1 e0 03          	shl    rax,0x3
    4120:	48 01 d0             	add    rax,rdx
    4123:	48 c1 e0 03          	shl    rax,0x3
    4127:	48 8d 50 b8          	lea    rdx,[rax-0x48]
    412b:	48 8b 45 e8          	mov    rax,QWORD PTR [rbp-0x18]
    412f:	48 01 c2             	add    rdx,rax
    4132:	48 8b 41 38          	mov    rax,QWORD PTR [rcx+0x38]
    4136:	48 89 42 38          	mov    QWORD PTR [rdx+0x38],rax
    413a:	48 8b 55 f8          	mov    rdx,QWORD PTR [rbp-0x8]
    413e:	48 89 d0             	mov    rax,rdx
    4141:	48 c1 e0 03          	shl    rax,0x3
    4145:	48 01 d0             	add    rax,rdx
    4148:	48 c1 e0 03          	shl    rax,0x3
    414c:	48 8d 50 b8          	lea    rdx,[rax-0x48]
    4150:	48 8b 45 e8          	mov    rax,QWORD PTR [rbp-0x18]
    4154:	48 8d 0c 02          	lea    rcx,[rdx+rax*1]
    4158:	48 8b 55 f0          	mov    rdx,QWORD PTR [rbp-0x10]
    415c:	48 89 d0             	mov    rax,rdx
    415f:	48 c1 e0 03          	shl    rax,0x3
    4163:	48 01 d0             	add    rax,rdx
    4166:	48 c1 e0 03          	shl    rax,0x3
    416a:	48 8d 50 b8          	lea    rdx,[rax-0x48]
    416e:	48 8b 45 e8          	mov    rax,QWORD PTR [rbp-0x18]
    4172:	48 01 c2             	add    rdx,rax
    4175:	8b 01                	mov    eax,DWORD PTR [rcx]
    4177:	89 02                	mov    DWORD PTR [rdx],eax
    4179:	48 8b 55 f8          	mov    rdx,QWORD PTR [rbp-0x8]
    417d:	48 89 d0             	mov    rax,rdx
    4180:	48 c1 e0 03          	shl    rax,0x3
    4184:	48 01 d0             	add    rax,rdx
    4187:	48 c1 e0 03          	shl    rax,0x3
    418b:	48 8d 50 b8          	lea    rdx,[rax-0x48]
    418f:	48 8b 45 e8          	mov    rax,QWORD PTR [rbp-0x18]
    4193:	48 01 c2             	add    rdx,rax
    4196:	48 8b 45 e0          	mov    rax,QWORD PTR [rbp-0x20]
    419a:	48 89 42 10          	mov    QWORD PTR [rdx+0x10],rax
    419e:	48 8b 55 f8          	mov    rdx,QWORD PTR [rbp-0x8]
    41a2:	48 89 d0             	mov    rax,rdx
    41a5:	48 c1 e0 03          	shl    rax,0x3
    41a9:	48 01 d0             	add    rax,rdx
    41ac:	48 c1 e0 03          	shl    rax,0x3
    41b0:	48 8d 50 b8          	lea    rdx,[rax-0x48]
    41b4:	48 8b 45 e8          	mov    rax,QWORD PTR [rbp-0x18]
    41b8:	48 01 c2             	add    rdx,rax
    41bb:	48 8b 45 d8          	mov    rax,QWORD PTR [rbp-0x28]
    41bf:	48 89 42 18          	mov    QWORD PTR [rdx+0x18],rax
    41c3:	48 8b 55 f8          	mov    rdx,QWORD PTR [rbp-0x8]
    41c7:	48 89 d0             	mov    rax,rdx
    41ca:	48 c1 e0 03          	shl    rax,0x3
    41ce:	48 01 d0             	add    rax,rdx
    41d1:	48 c1 e0 03          	shl    rax,0x3
    41d5:	48 8d 50 b8          	lea    rdx,[rax-0x48]
    41d9:	48 8b 45 e8          	mov    rax,QWORD PTR [rbp-0x18]
    41dd:	48 01 c2             	add    rdx,rax
    41e0:	48 8b 45 d0          	mov    rax,QWORD PTR [rbp-0x30]
    41e4:	48 89 42 08          	mov    QWORD PTR [rdx+0x8],rax
    41e8:	48 8b 55 f8          	mov    rdx,QWORD PTR [rbp-0x8]
    41ec:	48 89 d0             	mov    rax,rdx
    41ef:	48 c1 e0 03          	shl    rax,0x3
    41f3:	48 01 d0             	add    rax,rdx
    41f6:	48 c1 e0 03          	shl    rax,0x3
    41fa:	48 8d 50 b8          	lea    rdx,[rax-0x48]
    41fe:	48 8b 45 e8          	mov    rax,QWORD PTR [rbp-0x18]
    4202:	48 01 c2             	add    rdx,rax
    4205:	48 8b 45 d0          	mov    rax,QWORD PTR [rbp-0x30]
    4209:	48 89 42 40          	mov    QWORD PTR [rdx+0x40],rax
    420d:	48 8b 55 f8          	mov    rdx,QWORD PTR [rbp-0x8]
    4211:	48 89 d0             	mov    rax,rdx
    4214:	48 c1 e0 03          	shl    rax,0x3
    4218:	48 01 d0             	add    rax,rdx
    421b:	48 c1 e0 03          	shl    rax,0x3
    421f:	48 8d 50 b8          	lea    rdx,[rax-0x48]
    4223:	48 8b 45 e8          	mov    rax,QWORD PTR [rbp-0x18]
    4227:	48 01 c2             	add    rdx,rax
    422a:	48 8b 45 c8          	mov    rax,QWORD PTR [rbp-0x38]
    422e:	48 89 42 38          	mov    QWORD PTR [rdx+0x38],rax
    4232:	48 8b 55 f8          	mov    rdx,QWORD PTR [rbp-0x8]
    4236:	48 89 d0             	mov    rax,rdx
    4239:	48 c1 e0 03          	shl    rax,0x3
    423d:	48 01 d0             	add    rax,rdx
    4240:	48 c1 e0 03          	shl    rax,0x3
    4244:	48 8d 50 b8          	lea    rdx,[rax-0x48]
    4248:	48 8b 45 e8          	mov    rax,QWORD PTR [rbp-0x18]
    424c:	48 01 d0             	add    rax,rdx
    424f:	48 8b 55 10          	mov    rdx,QWORD PTR [rbp+0x10]
    4253:	89 10                	mov    DWORD PTR [rax],edx
    4255:	48 8b 45 f8          	mov    rax,QWORD PTR [rbp-0x8]
    4259:	48 89 45 f0          	mov    QWORD PTR [rbp-0x10],rax
    425d:	48 d1 65 f8          	shl    QWORD PTR [rbp-0x8],1
    4261:	48 8b 45 f8          	mov    rax,QWORD PTR [rbp-0x8]
    4265:	48 3b 45 c0          	cmp    rax,QWORD PTR [rbp-0x40]
    4269:	7d 4a                	jge    42b5 <fwrite@plt+0x3005>
    426b:	48 8b 55 f8          	mov    rdx,QWORD PTR [rbp-0x8]
    426f:	48 89 d0             	mov    rax,rdx
    4272:	48 c1 e0 03          	shl    rax,0x3
    4276:	48 01 d0             	add    rax,rdx
    4279:	48 c1 e0 03          	shl    rax,0x3
    427d:	48 8d 50 b8          	lea    rdx,[rax-0x48]
    4281:	48 8b 45 e8          	mov    rax,QWORD PTR [rbp-0x18]
    4285:	48 01 d0             	add    rax,rdx
    4288:	48 8b 48 38          	mov    rcx,QWORD PTR [rax+0x38]
    428c:	48 8b 55 f8          	mov    rdx,QWORD PTR [rbp-0x8]
    4290:	48 89 d0             	mov    rax,rdx
    4293:	48 c1 e0 03          	shl    rax,0x3
    4297:	48 01 d0             	add    rax,rdx
    429a:	48 c1 e0 03          	shl    rax,0x3
    429e:	48 89 c2             	mov    rdx,rax
    42a1:	48 8b 45 e8          	mov    rax,QWORD PTR [rbp-0x18]
    42a5:	48 01 d0             	add    rax,rdx
    42a8:	48 8b 40 38          	mov    rax,QWORD PTR [rax+0x38]
    42ac:	48 39 c1             	cmp    rcx,rax
    42af:	7d 04                	jge    42b5 <fwrite@plt+0x3005>
    42b1:	48 ff 45 f8          	inc    QWORD PTR [rbp-0x8]
    42b5:	48 8b 45 f8          	mov    rax,QWORD PTR [rbp-0x8]
    42b9:	48 3b 45 c0          	cmp    rax,QWORD PTR [rbp-0x40]
    42bd:	7f 2c                	jg     42eb <fwrite@plt+0x303b>
    42bf:	48 8b 55 f8          	mov    rdx,QWORD PTR [rbp-0x8]
    42c3:	48 89 d0             	mov    rax,rdx
    42c6:	48 c1 e0 03          	shl    rax,0x3
    42ca:	48 01 d0             	add    rax,rdx
    42cd:	48 c1 e0 03          	shl    rax,0x3
    42d1:	48 8d 50 b8          	lea    rdx,[rax-0x48]
    42d5:	48 8b 45 e8          	mov    rax,QWORD PTR [rbp-0x18]
    42d9:	48 01 d0             	add    rax,rdx
    42dc:	48 8b 40 38          	mov    rax,QWORD PTR [rax+0x38]
    42e0:	48 39 45 c8          	cmp    QWORD PTR [rbp-0x38],rax
    42e4:	0f 8c 01 fd ff ff    	jl     3feb <fwrite@plt+0x2d3b>
    42ea:	90                   	nop
    42eb:	90                   	nop
    42ec:	5d                   	pop    rbp
    42ed:	c3                   	ret    
    42ee:	f3 0f 1e fa          	endbr64 
    42f2:	55                   	push   rbp
    42f3:	48 89 e5             	mov    rbp,rsp
    42f6:	48 89 7d e8          	mov    QWORD PTR [rbp-0x18],rdi
    42fa:	48 89 75 e0          	mov    QWORD PTR [rbp-0x20],rsi
    42fe:	48 89 55 d8          	mov    QWORD PTR [rbp-0x28],rdx
    4302:	48 89 4d d0          	mov    QWORD PTR [rbp-0x30],rcx
    4306:	48 8b 45 e0          	mov    rax,QWORD PTR [rbp-0x20]
    430a:	48 c7 00 00 00 00 00 	mov    QWORD PTR [rax],0x0
    4311:	48 c7 45 f8 00 00 00 	mov    QWORD PTR [rbp-0x8],0x0
    4318:	00 
    4319:	eb 51                	jmp    436c <fwrite@plt+0x30bc>
    431b:	48 8b 45 f8          	mov    rax,QWORD PTR [rbp-0x8]
    431f:	48 8d 14 c5 00 00 00 	lea    rdx,[rax*8+0x0]
    4326:	00 
    4327:	48 8b 45 d8          	mov    rax,QWORD PTR [rbp-0x28]
    432b:	48 01 d0             	add    rax,rdx
    432e:	48 8b 00             	mov    rax,QWORD PTR [rax]
    4331:	48 8b 00             	mov    rax,QWORD PTR [rax]
    4334:	48 8b 50 38          	mov    rdx,QWORD PTR [rax+0x38]
    4338:	48 8b 45 e0          	mov    rax,QWORD PTR [rbp-0x20]
    433c:	48 8b 00             	mov    rax,QWORD PTR [rax]
    433f:	48 39 c2             	cmp    rdx,rax
    4342:	7e 24                	jle    4368 <fwrite@plt+0x30b8>
    4344:	48 8b 45 f8          	mov    rax,QWORD PTR [rbp-0x8]
    4348:	48 8d 14 c5 00 00 00 	lea    rdx,[rax*8+0x0]
    434f:	00 
    4350:	48 8b 45 d8          	mov    rax,QWORD PTR [rbp-0x28]
    4354:	48 01 d0             	add    rax,rdx
    4357:	48 8b 00             	mov    rax,QWORD PTR [rax]
    435a:	48 8b 00             	mov    rax,QWORD PTR [rax]
    435d:	48 8b 50 38          	mov    rdx,QWORD PTR [rax+0x38]
    4361:	48 8b 45 e0          	mov    rax,QWORD PTR [rbp-0x20]
    4365:	48 89 10             	mov    QWORD PTR [rax],rdx
    4368:	48 ff 45 f8          	inc    QWORD PTR [rbp-0x8]
    436c:	48 8b 45 f8          	mov    rax,QWORD PTR [rbp-0x8]
    4370:	48 3b 45 d0          	cmp    rax,QWORD PTR [rbp-0x30]
    4374:	7c a5                	jl     431b <fwrite@plt+0x306b>
    4376:	90                   	nop
    4377:	90                   	nop
    4378:	5d                   	pop    rbp
    4379:	c3                   	ret    
    437a:	f3 0f 1e fa          	endbr64 
    437e:	55                   	push   rbp
    437f:	48 89 e5             	mov    rbp,rsp
    4382:	53                   	push   rbx
    4383:	48 81 ec b0 00 00 00 	sub    rsp,0xb0
    438a:	48 89 bd 70 ff ff ff 	mov    QWORD PTR [rbp-0x90],rdi
    4391:	48 89 b5 68 ff ff ff 	mov    QWORD PTR [rbp-0x98],rsi
    4398:	48 89 95 60 ff ff ff 	mov    QWORD PTR [rbp-0xa0],rdx
    439f:	48 89 8d 58 ff ff ff 	mov    QWORD PTR [rbp-0xa8],rcx
    43a6:	44 89 85 54 ff ff ff 	mov    DWORD PTR [rbp-0xac],r8d
    43ad:	4c 89 8d 48 ff ff ff 	mov    QWORD PTR [rbp-0xb8],r9
    43b4:	48 c7 45 90 00 00 00 	mov    QWORD PTR [rbp-0x70],0x0
    43bb:	00 
    43bc:	48 c7 85 78 ff ff ff 	mov    QWORD PTR [rbp-0x88],0x0
    43c3:	00 00 00 00 
    43c7:	8b 85 54 ff ff ff    	mov    eax,DWORD PTR [rbp-0xac]
    43cd:	48 98                	cdqe   
    43cf:	48 89 45 80          	mov    QWORD PTR [rbp-0x80],rax
    43d3:	e9 bc 01 00 00       	jmp    4594 <fwrite@plt+0x32e4>
    43d8:	48 8b 45 80          	mov    rax,QWORD PTR [rbp-0x80]
    43dc:	48 8d 14 c5 00 00 00 	lea    rdx,[rax*8+0x0]
    43e3:	00 
    43e4:	48 8b 85 68 ff ff ff 	mov    rax,QWORD PTR [rbp-0x98]
    43eb:	48 01 d0             	add    rax,rdx
    43ee:	48 8b 00             	mov    rax,QWORD PTR [rax]
    43f1:	48 39 45 10          	cmp    QWORD PTR [rbp+0x10],rax
    43f5:	48 0f 4e 45 10       	cmovle rax,QWORD PTR [rbp+0x10]
    43fa:	48 89 45 98          	mov    QWORD PTR [rbp-0x68],rax
    43fe:	48 c7 45 88 00 00 00 	mov    QWORD PTR [rbp-0x78],0x0
    4405:	00 
    4406:	e9 63 01 00 00       	jmp    456e <fwrite@plt+0x32be>
    440b:	48 8b 45 80          	mov    rax,QWORD PTR [rbp-0x80]
    440f:	48 8d 14 c5 00 00 00 	lea    rdx,[rax*8+0x0]
    4416:	00 
    4417:	48 8b 85 60 ff ff ff 	mov    rax,QWORD PTR [rbp-0xa0]
    441e:	48 01 d0             	add    rax,rdx
    4421:	48 8b 08             	mov    rcx,QWORD PTR [rax]
    4424:	48 8b 55 88          	mov    rdx,QWORD PTR [rbp-0x78]
    4428:	48 89 d0             	mov    rax,rdx
    442b:	48 c1 e0 03          	shl    rax,0x3
    442f:	48 01 d0             	add    rax,rdx
    4432:	48 c1 e0 03          	shl    rax,0x3
    4436:	48 01 c8             	add    rax,rcx
    4439:	48 89 45 a0          	mov    QWORD PTR [rbp-0x60],rax
    443d:	48 8b 45 a0          	mov    rax,QWORD PTR [rbp-0x60]
    4441:	0f b7 40 20          	movzx  eax,WORD PTR [rax+0x20]
    4445:	66 85 c0             	test   ax,ax
    4448:	0f 85 1c 01 00 00    	jne    456a <fwrite@plt+0x32ba>
    444e:	48 8b 45 a0          	mov    rax,QWORD PTR [rbp-0x60]
    4452:	48 8b 50 38          	mov    rdx,QWORD PTR [rax+0x38]
    4456:	48 8b 85 58 ff ff ff 	mov    rax,QWORD PTR [rbp-0xa8]
    445d:	48 8b 40 38          	mov    rax,QWORD PTR [rax+0x38]
    4461:	48 39 c2             	cmp    rdx,rax
    4464:	7c 33                	jl     4499 <fwrite@plt+0x31e9>
    4466:	48 8b 45 a0          	mov    rax,QWORD PTR [rbp-0x60]
    446a:	48 8b 50 38          	mov    rdx,QWORD PTR [rax+0x38]
    446e:	48 8b 85 58 ff ff ff 	mov    rax,QWORD PTR [rbp-0xa8]
    4475:	48 8b 40 38          	mov    rax,QWORD PTR [rax+0x38]
    4479:	48 39 c2             	cmp    rdx,rax
    447c:	0f 85 e8 00 00 00    	jne    456a <fwrite@plt+0x32ba>
    4482:	48 8b 45 a0          	mov    rax,QWORD PTR [rbp-0x60]
    4486:	8b 10                	mov    edx,DWORD PTR [rax]
    4488:	48 8b 85 58 ff ff ff 	mov    rax,QWORD PTR [rbp-0xa8]
    448f:	8b 00                	mov    eax,DWORD PTR [rax]
    4491:	39 c2                	cmp    edx,eax
    4493:	0f 8d d1 00 00 00    	jge    456a <fwrite@plt+0x32ba>
    4499:	48 8b 45 a0          	mov    rax,QWORD PTR [rbp-0x60]
    449d:	48 8b 08             	mov    rcx,QWORD PTR [rax]
    44a0:	48 8b 58 08          	mov    rbx,QWORD PTR [rax+0x8]
    44a4:	48 89 4d a8          	mov    QWORD PTR [rbp-0x58],rcx
    44a8:	48 89 5d b0          	mov    QWORD PTR [rbp-0x50],rbx
    44ac:	48 8b 48 10          	mov    rcx,QWORD PTR [rax+0x10]
    44b0:	48 8b 58 18          	mov    rbx,QWORD PTR [rax+0x18]
    44b4:	48 89 4d b8          	mov    QWORD PTR [rbp-0x48],rcx
    44b8:	48 89 5d c0          	mov    QWORD PTR [rbp-0x40],rbx
    44bc:	48 8b 48 20          	mov    rcx,QWORD PTR [rax+0x20]
    44c0:	48 8b 58 28          	mov    rbx,QWORD PTR [rax+0x28]
    44c4:	48 89 4d c8          	mov    QWORD PTR [rbp-0x38],rcx
    44c8:	48 89 5d d0          	mov    QWORD PTR [rbp-0x30],rbx
    44cc:	48 8b 48 30          	mov    rcx,QWORD PTR [rax+0x30]
    44d0:	48 8b 58 38          	mov    rbx,QWORD PTR [rax+0x38]
    44d4:	48 89 4d d8          	mov    QWORD PTR [rbp-0x28],rcx
    44d8:	48 89 5d e0          	mov    QWORD PTR [rbp-0x20],rbx
    44dc:	48 8b 40 40          	mov    rax,QWORD PTR [rax+0x40]
    44e0:	48 89 45 e8          	mov    QWORD PTR [rbp-0x18],rax
    44e4:	48 ff 45 90          	inc    QWORD PTR [rbp-0x70]
    44e8:	48 8b 45 a0          	mov    rax,QWORD PTR [rbp-0x60]
    44ec:	48 8b 95 58 ff ff ff 	mov    rdx,QWORD PTR [rbp-0xa8]
    44f3:	48 8b 0a             	mov    rcx,QWORD PTR [rdx]
    44f6:	48 8b 5a 08          	mov    rbx,QWORD PTR [rdx+0x8]
    44fa:	48 89 08             	mov    QWORD PTR [rax],rcx
    44fd:	48 89 58 08          	mov    QWORD PTR [rax+0x8],rbx
    4501:	48 8b 4a 10          	mov    rcx,QWORD PTR [rdx+0x10]
    4505:	48 8b 5a 18          	mov    rbx,QWORD PTR [rdx+0x18]
    4509:	48 89 48 10          	mov    QWORD PTR [rax+0x10],rcx
    450d:	48 89 58 18          	mov    QWORD PTR [rax+0x18],rbx
    4511:	48 8b 4a 20          	mov    rcx,QWORD PTR [rdx+0x20]
    4515:	48 8b 5a 28          	mov    rbx,QWORD PTR [rdx+0x28]
    4519:	48 89 48 20          	mov    QWORD PTR [rax+0x20],rcx
    451d:	48 89 58 28          	mov    QWORD PTR [rax+0x28],rbx
    4521:	48 8b 4a 30          	mov    rcx,QWORD PTR [rdx+0x30]
    4525:	48 8b 5a 38          	mov    rbx,QWORD PTR [rdx+0x38]
    4529:	48 89 48 30          	mov    QWORD PTR [rax+0x30],rcx
    452d:	48 89 58 38          	mov    QWORD PTR [rax+0x38],rbx
    4531:	48 8b 52 40          	mov    rdx,QWORD PTR [rdx+0x40]
    4535:	48 89 50 40          	mov    QWORD PTR [rax+0x40],rdx
    4539:	8b 45 a8             	mov    eax,DWORD PTR [rbp-0x58]
    453c:	48 63 f8             	movsxd rdi,eax
    453f:	4c 8b 45 e0          	mov    r8,QWORD PTR [rbp-0x20]
    4543:	48 8b 4d b0          	mov    rcx,QWORD PTR [rbp-0x50]
    4547:	48 8b 55 c0          	mov    rdx,QWORD PTR [rbp-0x40]
    454b:	48 8b 75 b8          	mov    rsi,QWORD PTR [rbp-0x48]
    454f:	4c 8b 8d 48 ff ff ff 	mov    r9,QWORD PTR [rbp-0xb8]
    4556:	48 8b 85 58 ff ff ff 	mov    rax,QWORD PTR [rbp-0xa8]
    455d:	57                   	push   rdi
    455e:	48 89 c7             	mov    rdi,rax
    4561:	e8 e1 f9 ff ff       	call   3f47 <fwrite@plt+0x2c97>
    4566:	48 83 c4 08          	add    rsp,0x8
    456a:	48 ff 45 88          	inc    QWORD PTR [rbp-0x78]
    456e:	48 8b 45 88          	mov    rax,QWORD PTR [rbp-0x78]
    4572:	48 3b 45 98          	cmp    rax,QWORD PTR [rbp-0x68]
    4576:	0f 8c 8f fe ff ff    	jl     440b <fwrite@plt+0x315b>
    457c:	48 ff 85 78 ff ff ff 	inc    QWORD PTR [rbp-0x88]
    4583:	48 8b 45 80          	mov    rax,QWORD PTR [rbp-0x80]
    4587:	48 ff c0             	inc    rax
    458a:	48 99                	cqo    
    458c:	48 f7 7d 18          	idiv   QWORD PTR [rbp+0x18]
    4590:	48 89 55 80          	mov    QWORD PTR [rbp-0x80],rdx
    4594:	48 8b 85 78 ff ff ff 	mov    rax,QWORD PTR [rbp-0x88]
    459b:	48 3b 45 18          	cmp    rax,QWORD PTR [rbp+0x18]
    459f:	0f 8c 33 fe ff ff    	jl     43d8 <fwrite@plt+0x3128>
    45a5:	48 8b 45 90          	mov    rax,QWORD PTR [rbp-0x70]
    45a9:	48 8b 5d f8          	mov    rbx,QWORD PTR [rbp-0x8]
    45ad:	c9                   	leave  
    45ae:	c3                   	ret    
    45af:	f3 0f 1e fa          	endbr64 
    45b3:	55                   	push   rbp
    45b4:	48 89 e5             	mov    rbp,rsp
    45b7:	41 57                	push   r15
    45b9:	41 56                	push   r14
    45bb:	41 55                	push   r13
    45bd:	41 54                	push   r12
    45bf:	53                   	push   rbx
    45c0:	48 81 ec d8 00 00 00 	sub    rsp,0xd8
    45c7:	48 89 bd 28 ff ff ff 	mov    QWORD PTR [rbp-0xd8],rdi
    45ce:	64 48 8b 04 25 28 00 	mov    rax,QWORD PTR fs:0x28
    45d5:	00 00 
    45d7:	48 89 45 c8          	mov    QWORD PTR [rbp-0x38],rax
    45db:	31 c0                	xor    eax,eax
    45dd:	48 c7 85 38 ff ff ff 	mov    QWORD PTR [rbp-0xc8],0x0
    45e4:	00 00 00 00 
    45e8:	48 c7 85 50 ff ff ff 	mov    QWORD PTR [rbp-0xb0],0x0
    45ef:	00 00 00 00 
    45f3:	48 c7 85 78 ff ff ff 	mov    QWORD PTR [rbp-0x88],0xf
    45fa:	0f 00 00 00 
    45fe:	66 c7 85 30 ff ff ff 	mov    WORD PTR [rbp-0xd0],0x1
    4605:	01 00 
    4607:	48 c7 85 68 ff ff ff 	mov    QWORD PTR [rbp-0x98],0x0
    460e:	00 00 00 00 
    4612:	48 8b 85 28 ff ff ff 	mov    rax,QWORD PTR [rbp-0xd8]
    4619:	48 8b 98 10 02 00 00 	mov    rbx,QWORD PTR [rax+0x210]
    4620:	48 c7 85 20 ff ff ff 	mov    QWORD PTR [rbp-0xe0],0x1e
    4627:	1e 00 00 00 
    462b:	48 c7 45 80 01 00 00 	mov    QWORD PTR [rbp-0x80],0x1
    4632:	00 
    4633:	48 8b 45 80          	mov    rax,QWORD PTR [rbp-0x80]
    4637:	48 c1 e0 03          	shl    rax,0x3
    463b:	48 89 c7             	mov    rdi,rax
    463e:	e8 ed cb ff ff       	call   1230 <malloc@plt>
    4643:	48 89 45 88          	mov    QWORD PTR [rbp-0x78],rax
    4647:	48 8b 45 80          	mov    rax,QWORD PTR [rbp-0x80]
    464b:	48 c1 e0 03          	shl    rax,0x3
    464f:	48 89 c7             	mov    rdi,rax
    4652:	e8 d9 cb ff ff       	call   1230 <malloc@plt>
    4657:	48 89 45 90          	mov    QWORD PTR [rbp-0x70],rax
    465b:	48 8b 45 80          	mov    rax,QWORD PTR [rbp-0x80]
    465f:	48 c1 e0 03          	shl    rax,0x3
    4663:	48 89 c7             	mov    rdi,rax
    4666:	e8 c5 cb ff ff       	call   1230 <malloc@plt>
    466b:	48 89 45 98          	mov    QWORD PTR [rbp-0x68],rax
    466f:	48 8b 45 80          	mov    rax,QWORD PTR [rbp-0x80]
    4673:	48 c1 e0 03          	shl    rax,0x3
    4677:	48 89 c7             	mov    rdi,rax
    467a:	e8 b1 cb ff ff       	call   1230 <malloc@plt>
    467f:	48 89 45 a0          	mov    QWORD PTR [rbp-0x60],rax
    4683:	48 2b 9d 78 ff ff ff 	sub    rbx,QWORD PTR [rbp-0x88]
    468a:	48 89 9d 08 ff ff ff 	mov    QWORD PTR [rbp-0xf8],rbx
    4691:	48 8b 85 28 ff ff ff 	mov    rax,QWORD PTR [rbp-0xd8]
    4698:	48 8b 80 98 01 00 00 	mov    rax,QWORD PTR [rax+0x198]
    469f:	48 3d 98 3a 00 00    	cmp    rax,0x3a98
    46a5:	0f 8f d7 00 00 00    	jg     4782 <fwrite@plt+0x34d2>
    46ab:	48 8b 85 28 ff ff ff 	mov    rax,QWORD PTR [rbp-0xd8]
    46b2:	48 8b 90 a8 01 00 00 	mov    rdx,QWORD PTR [rax+0x1a8]
    46b9:	48 8b 85 28 ff ff ff 	mov    rax,QWORD PTR [rbp-0xd8]
    46c0:	48 8b 80 c8 01 00 00 	mov    rax,QWORD PTR [rax+0x1c8]
    46c7:	48 01 c2             	add    rdx,rax
    46ca:	48 8b 85 28 ff ff ff 	mov    rax,QWORD PTR [rbp-0xd8]
    46d1:	48 8b 80 a0 01 00 00 	mov    rax,QWORD PTR [rax+0x1a0]
    46d8:	48 39 c2             	cmp    rdx,rax
    46db:	0f 8e 6f 01 00 00    	jle    4850 <fwrite@plt+0x35a0>
    46e1:	48 8b 85 28 ff ff ff 	mov    rax,QWORD PTR [rbp-0xd8]
    46e8:	48 8b 90 98 01 00 00 	mov    rdx,QWORD PTR [rax+0x198]
    46ef:	48 8b 85 28 ff ff ff 	mov    rax,QWORD PTR [rbp-0xd8]
    46f6:	48 8b 80 98 01 00 00 	mov    rax,QWORD PTR [rax+0x198]
    46fd:	48 0f af c2          	imul   rax,rdx
    4701:	48 89 c2             	mov    rdx,rax
    4704:	48 c1 ea 3f          	shr    rdx,0x3f
    4708:	48 01 d0             	add    rax,rdx
    470b:	48 d1 f8             	sar    rax,1
    470e:	48 89 c2             	mov    rdx,rax
    4711:	48 8b 85 28 ff ff ff 	mov    rax,QWORD PTR [rbp-0xd8]
    4718:	48 8b 80 a8 01 00 00 	mov    rax,QWORD PTR [rax+0x1a8]
    471f:	48 01 c2             	add    rdx,rax
    4722:	48 8b 85 28 ff ff ff 	mov    rax,QWORD PTR [rbp-0xd8]
    4729:	48 8b 80 a0 01 00 00 	mov    rax,QWORD PTR [rax+0x1a0]
    4730:	48 39 c2             	cmp    rdx,rax
    4733:	0f 8e 17 01 00 00    	jle    4850 <fwrite@plt+0x35a0>
    4739:	48 c7 85 50 ff ff ff 	mov    QWORD PTR [rbp-0xb0],0x1
    4740:	01 00 00 00 
    4744:	48 8b 85 28 ff ff ff 	mov    rax,QWORD PTR [rbp-0xd8]
    474b:	48 89 c7             	mov    rdi,rax
    474e:	e8 bb f1 ff ff       	call   390e <fwrite@plt+0x265e>
    4753:	48 85 c0             	test   rax,rax
    4756:	74 0c                	je     4764 <fwrite@plt+0x34b4>
    4758:	48 c7 c0 ff ff ff ff 	mov    rax,0xffffffffffffffff
    475f:	e9 32 0c 00 00       	jmp    5396 <fwrite@plt+0x40e6>
    4764:	48 8b 85 28 ff ff ff 	mov    rax,QWORD PTR [rbp-0xd8]
    476b:	48 8d 15 2a d4 ff ff 	lea    rdx,[rip+0xffffffffffffd42a]        # 1b9c <fwrite@plt+0x8ec>
    4772:	48 89 d6             	mov    rsi,rdx
    4775:	48 89 c7             	mov    rdi,rax
    4778:	e8 80 cf ff ff       	call   16fd <fwrite@plt+0x44d>
    477d:	e9 ce 00 00 00       	jmp    4850 <fwrite@plt+0x35a0>
    4782:	48 8b 85 28 ff ff ff 	mov    rax,QWORD PTR [rbp-0xd8]
    4789:	48 8b 90 a8 01 00 00 	mov    rdx,QWORD PTR [rax+0x1a8]
    4790:	48 8b 85 28 ff ff ff 	mov    rax,QWORD PTR [rbp-0xd8]
    4797:	48 8b 80 c8 01 00 00 	mov    rax,QWORD PTR [rax+0x1c8]
    479e:	48 01 c2             	add    rdx,rax
    47a1:	48 8b 85 28 ff ff ff 	mov    rax,QWORD PTR [rbp-0xd8]
    47a8:	48 8b 80 a0 01 00 00 	mov    rax,QWORD PTR [rax+0x1a0]
    47af:	48 39 c2             	cmp    rdx,rax
    47b2:	0f 8e 98 00 00 00    	jle    4850 <fwrite@plt+0x35a0>
    47b8:	48 8b 85 28 ff ff ff 	mov    rax,QWORD PTR [rbp-0xd8]
    47bf:	48 8b 90 98 01 00 00 	mov    rdx,QWORD PTR [rax+0x198]
    47c6:	48 8b 85 28 ff ff ff 	mov    rax,QWORD PTR [rbp-0xd8]
    47cd:	48 8b 80 98 01 00 00 	mov    rax,QWORD PTR [rax+0x198]
    47d4:	48 0f af c2          	imul   rax,rdx
    47d8:	48 89 c2             	mov    rdx,rax
    47db:	48 c1 ea 3f          	shr    rdx,0x3f
    47df:	48 01 d0             	add    rax,rdx
    47e2:	48 d1 f8             	sar    rax,1
    47e5:	48 89 c2             	mov    rdx,rax
    47e8:	48 8b 85 28 ff ff ff 	mov    rax,QWORD PTR [rbp-0xd8]
    47ef:	48 8b 80 a8 01 00 00 	mov    rax,QWORD PTR [rax+0x1a8]
    47f6:	48 01 c2             	add    rdx,rax
    47f9:	48 8b 85 28 ff ff ff 	mov    rax,QWORD PTR [rbp-0xd8]
    4800:	48 8b 80 a0 01 00 00 	mov    rax,QWORD PTR [rax+0x1a0]
    4807:	48 39 c2             	cmp    rdx,rax
    480a:	7e 44                	jle    4850 <fwrite@plt+0x35a0>
    480c:	48 c7 85 50 ff ff ff 	mov    QWORD PTR [rbp-0xb0],0x1
    4813:	01 00 00 00 
    4817:	48 8b 85 28 ff ff ff 	mov    rax,QWORD PTR [rbp-0xd8]
    481e:	48 89 c7             	mov    rdi,rax
    4821:	e8 e8 f0 ff ff       	call   390e <fwrite@plt+0x265e>
    4826:	48 85 c0             	test   rax,rax
    4829:	74 0c                	je     4837 <fwrite@plt+0x3587>
    482b:	48 c7 c0 ff ff ff ff 	mov    rax,0xffffffffffffffff
    4832:	e9 5f 0b 00 00       	jmp    5396 <fwrite@plt+0x40e6>
    4837:	48 8b 85 28 ff ff ff 	mov    rax,QWORD PTR [rbp-0xd8]
    483e:	48 8d 15 57 d3 ff ff 	lea    rdx,[rip+0xffffffffffffd357]        # 1b9c <fwrite@plt+0x8ec>
    4845:	48 89 d6             	mov    rsi,rdx
    4848:	48 89 c7             	mov    rdi,rax
    484b:	e8 ad ce ff ff       	call   16fd <fwrite@plt+0x44d>
    4850:	48 8b 85 28 ff ff ff 	mov    rax,QWORD PTR [rbp-0xd8]
    4857:	48 8b 80 98 01 00 00 	mov    rax,QWORD PTR [rax+0x198]
    485e:	48 3d 98 3a 00 00    	cmp    rax,0x3a98
    4864:	7f 0d                	jg     4873 <fwrite@plt+0x35c3>
    4866:	48 c7 85 70 ff ff ff 	mov    QWORD PTR [rbp-0x90],0x3e8
    486d:	e8 03 00 00 
    4871:	eb 0b                	jmp    487e <fwrite@plt+0x35ce>
    4873:	48 c7 85 70 ff ff ff 	mov    QWORD PTR [rbp-0x90],0x7d0
    487a:	d0 07 00 00 
    487e:	48 8b 85 28 ff ff ff 	mov    rax,QWORD PTR [rbp-0xd8]
    4885:	48 8b 80 48 02 00 00 	mov    rax,QWORD PTR [rax+0x248]
    488c:	48 89 85 18 ff ff ff 	mov    QWORD PTR [rbp-0xe8],rax
    4893:	48 85 c0             	test   rax,rax
    4896:	75 0c                	jne    48a4 <fwrite@plt+0x35f4>
    4898:	48 c7 c0 ff ff ff ff 	mov    rax,0xffffffffffffffff
    489f:	e9 f2 0a 00 00       	jmp    5396 <fwrite@plt+0x40e6>
    48a4:	48 8b 85 28 ff ff ff 	mov    rax,QWORD PTR [rbp-0xd8]
    48ab:	48 8b 80 c0 01 00 00 	mov    rax,QWORD PTR [rax+0x1c0]
    48b2:	48 99                	cqo    
    48b4:	48 f7 7d 80          	idiv   QWORD PTR [rbp-0x80]
    48b8:	48 89 45 a8          	mov    QWORD PTR [rbp-0x58],rax
    48bc:	66 c7 85 30 ff ff ff 	mov    WORD PTR [rbp-0xd0],0x1
    48c3:	01 00 
    48c5:	48 8b 85 28 ff ff ff 	mov    rax,QWORD PTR [rbp-0xd8]
    48cc:	48 8b 80 a0 01 00 00 	mov    rax,QWORD PTR [rax+0x1a0]
    48d3:	48 99                	cqo    
    48d5:	48 f7 7d 80          	idiv   QWORD PTR [rbp-0x80]
    48d9:	48 89 45 b0          	mov    QWORD PTR [rbp-0x50],rax
    48dd:	66 c7 85 32 ff ff ff 	mov    WORD PTR [rbp-0xce],0x1
    48e4:	01 00 
    48e6:	48 c7 85 40 ff ff ff 	mov    QWORD PTR [rbp-0xc0],0x0
    48ed:	00 00 00 00 
    48f1:	48 c7 85 68 ff ff ff 	mov    QWORD PTR [rbp-0x98],0x0
    48f8:	00 00 00 00 
    48fc:	c7 85 34 ff ff ff 00 	mov    DWORD PTR [rbp-0xcc],0x0
    4903:	00 00 00 
    4906:	8b 85 34 ff ff ff    	mov    eax,DWORD PTR [rbp-0xcc]
    490c:	48 98                	cdqe   
    490e:	48 0f af 45 b0       	imul   rax,QWORD PTR [rbp-0x50]
    4913:	48 89 c2             	mov    rdx,rax
    4916:	48 89 d0             	mov    rax,rdx
    4919:	48 c1 e0 03          	shl    rax,0x3
    491d:	48 01 d0             	add    rax,rdx
    4920:	48 c1 e0 03          	shl    rax,0x3
    4924:	48 89 c1             	mov    rcx,rax
    4927:	8b 85 34 ff ff ff    	mov    eax,DWORD PTR [rbp-0xcc]
    492d:	48 98                	cdqe   
    492f:	48 8d 14 c5 00 00 00 	lea    rdx,[rax*8+0x0]
    4936:	00 
    4937:	48 8b 45 a0          	mov    rax,QWORD PTR [rbp-0x60]
    493b:	48 01 d0             	add    rax,rdx
    493e:	48 8b bd 18 ff ff ff 	mov    rdi,QWORD PTR [rbp-0xe8]
    4945:	48 8d 14 0f          	lea    rdx,[rdi+rcx*1]
    4949:	48 89 10             	mov    QWORD PTR [rax],rdx
    494c:	8b 85 34 ff ff ff    	mov    eax,DWORD PTR [rbp-0xcc]
    4952:	48 98                	cdqe   
    4954:	48 8d 14 c5 00 00 00 	lea    rdx,[rax*8+0x0]
    495b:	00 
    495c:	48 8b 45 90          	mov    rax,QWORD PTR [rbp-0x70]
    4960:	48 01 d0             	add    rax,rdx
    4963:	48 c7 00 00 00 00 00 	mov    QWORD PTR [rax],0x0
    496a:	8b 85 34 ff ff ff    	mov    eax,DWORD PTR [rbp-0xcc]
    4970:	48 98                	cdqe   
    4972:	48 8d 14 c5 00 00 00 	lea    rdx,[rax*8+0x0]
    4979:	00 
    497a:	48 8b 45 88          	mov    rax,QWORD PTR [rbp-0x78]
    497e:	48 01 d0             	add    rax,rdx
    4981:	48 c7 00 00 00 00 00 	mov    QWORD PTR [rax],0x0
    4988:	48 8b 85 28 ff ff ff 	mov    rax,QWORD PTR [rbp-0xd8]
    498f:	48 8b 88 40 02 00 00 	mov    rcx,QWORD PTR [rax+0x240]
    4996:	8b 85 34 ff ff ff    	mov    eax,DWORD PTR [rbp-0xcc]
    499c:	48 98                	cdqe   
    499e:	48 0f af 45 a8       	imul   rax,QWORD PTR [rbp-0x58]
    49a3:	48 89 c2             	mov    rdx,rax
    49a6:	48 89 d0             	mov    rax,rdx
    49a9:	48 c1 e0 03          	shl    rax,0x3
    49ad:	48 01 d0             	add    rax,rdx
    49b0:	48 c1 e0 03          	shl    rax,0x3
    49b4:	48 8d 1c 01          	lea    rbx,[rcx+rax*1]
    49b8:	48 8b 85 28 ff ff ff 	mov    rax,QWORD PTR [rbp-0xd8]
    49bf:	48 8b 80 98 01 00 00 	mov    rax,QWORD PTR [rax+0x198]
    49c6:	48 89 45 b8          	mov    QWORD PTR [rbp-0x48],rax
    49ca:	48 c7 85 58 ff ff ff 	mov    QWORD PTR [rbp-0xa8],0x0
    49d1:	00 00 00 00 
    49d5:	48 c7 85 60 ff ff ff 	mov    QWORD PTR [rbp-0xa0],0xffffffffffffffff
    49dc:	ff ff ff ff 
    49e0:	48 8b 45 a8          	mov    rax,QWORD PTR [rbp-0x58]
    49e4:	8b 95 34 ff ff ff    	mov    edx,DWORD PTR [rbp-0xcc]
    49ea:	48 63 d2             	movsxd rdx,edx
    49ed:	48 8d 0c d5 00 00 00 	lea    rcx,[rdx*8+0x0]
    49f4:	00 
    49f5:	48 8b 55 98          	mov    rdx,QWORD PTR [rbp-0x68]
    49f9:	4c 8d 24 11          	lea    r12,[rcx+rdx*1]
    49fd:	be 08 00 00 00       	mov    esi,0x8
    4a02:	48 89 c7             	mov    rdi,rax
    4a05:	e8 06 c8 ff ff       	call   1210 <calloc@plt>
    4a0a:	49 89 04 24          	mov    QWORD PTR [r12],rax
    4a0e:	48 c7 85 48 ff ff ff 	mov    QWORD PTR [rbp-0xb8],0x0
    4a15:	00 00 00 00 
    4a19:	eb 4e                	jmp    4a69 <fwrite@plt+0x37b9>
    4a1b:	48 8b 95 48 ff ff ff 	mov    rdx,QWORD PTR [rbp-0xb8]
    4a22:	48 89 d0             	mov    rax,rdx
    4a25:	48 c1 e0 03          	shl    rax,0x3
    4a29:	48 01 d0             	add    rax,rdx
    4a2c:	48 c1 e0 03          	shl    rax,0x3
    4a30:	48 89 c1             	mov    rcx,rax
    4a33:	8b 85 34 ff ff ff    	mov    eax,DWORD PTR [rbp-0xcc]
    4a39:	48 98                	cdqe   
    4a3b:	48 8d 14 c5 00 00 00 	lea    rdx,[rax*8+0x0]
    4a42:	00 
    4a43:	48 8b 45 98          	mov    rax,QWORD PTR [rbp-0x68]
    4a47:	48 01 d0             	add    rax,rdx
    4a4a:	48 8b 00             	mov    rax,QWORD PTR [rax]
    4a4d:	48 8b 95 48 ff ff ff 	mov    rdx,QWORD PTR [rbp-0xb8]
    4a54:	48 c1 e2 03          	shl    rdx,0x3
    4a58:	48 01 d0             	add    rax,rdx
    4a5b:	48 8d 14 0b          	lea    rdx,[rbx+rcx*1]
    4a5f:	48 89 10             	mov    QWORD PTR [rax],rdx
    4a62:	48 ff 85 48 ff ff ff 	inc    QWORD PTR [rbp-0xb8]
    4a69:	48 8b 85 48 ff ff ff 	mov    rax,QWORD PTR [rbp-0xb8]
    4a70:	48 3b 45 a8          	cmp    rax,QWORD PTR [rbp-0x58]
    4a74:	7c a5                	jl     4a1b <fwrite@plt+0x376b>
    4a76:	48 8b 85 28 ff ff ff 	mov    rax,QWORD PTR [rbp-0xd8]
    4a7d:	4c 8b a0 38 02 00 00 	mov    r12,QWORD PTR [rax+0x238]
    4a84:	48 c7 85 48 ff ff ff 	mov    QWORD PTR [rbp-0xb8],0x0
    4a8b:	00 00 00 00 
    4a8f:	eb 0e                	jmp    4a9f <fwrite@plt+0x37ef>
    4a91:	48 ff 85 48 ff ff ff 	inc    QWORD PTR [rbp-0xb8]
    4a98:	49 81 c4 d8 00 00 00 	add    r12,0xd8
    4a9f:	48 8b 85 48 ff ff ff 	mov    rax,QWORD PTR [rbp-0xb8]
    4aa6:	48 3b 45 b8          	cmp    rax,QWORD PTR [rbp-0x48]
    4aaa:	7d 0f                	jge    4abb <fwrite@plt+0x380b>
    4aac:	49 8d 44 24 48       	lea    rax,[r12+0x48]
    4ab1:	0f b7 40 20          	movzx  eax,WORD PTR [rax+0x20]
    4ab5:	66 83 f8 ff          	cmp    ax,0xffff
    4ab9:	74 d6                	je     4a91 <fwrite@plt+0x37e1>
    4abb:	41 bd 00 00 00 00    	mov    r13d,0x0
    4ac1:	e9 81 04 00 00       	jmp    4f47 <fwrite@plt+0x3c97>
    4ac6:	66 83 bd 30 ff ff ff 	cmp    WORD PTR [rbp-0xd0],0x0
    4acd:	00 
    4ace:	75 1e                	jne    4aee <fwrite@plt+0x383e>
    4ad0:	48 8b 4d 80          	mov    rcx,QWORD PTR [rbp-0x80]
    4ad4:	48 8b 55 98          	mov    rdx,QWORD PTR [rbp-0x68]
    4ad8:	48 8d b5 40 ff ff ff 	lea    rsi,[rbp-0xc0]
    4adf:	48 8b 85 28 ff ff ff 	mov    rax,QWORD PTR [rbp-0xd8]
    4ae6:	48 89 c7             	mov    rdi,rax
    4ae9:	e8 00 f8 ff ff       	call   42ee <fwrite@plt+0x303e>
    4aee:	48 8b 85 48 ff ff ff 	mov    rax,QWORD PTR [rbp-0xb8]
    4af5:	48 99                	cqo    
    4af7:	48 f7 bd 70 ff ff ff 	idiv   QWORD PTR [rbp-0x90]
    4afe:	48 89 d0             	mov    rax,rdx
    4b01:	48 85 c0             	test   rax,rax
    4b04:	0f 85 a6 00 00 00    	jne    4bb0 <fwrite@plt+0x3900>
    4b0a:	48 8b 4d 80          	mov    rcx,QWORD PTR [rbp-0x80]
    4b0e:	48 8b 55 98          	mov    rdx,QWORD PTR [rbp-0x68]
    4b12:	48 8d b5 40 ff ff ff 	lea    rsi,[rbp-0xc0]
    4b19:	48 8b 85 28 ff ff ff 	mov    rax,QWORD PTR [rbp-0xd8]
    4b20:	48 89 c7             	mov    rdi,rax
    4b23:	e8 c6 f7 ff ff       	call   42ee <fwrite@plt+0x303e>
    4b28:	66 83 bd 30 ff ff ff 	cmp    WORD PTR [rbp-0xd0],0x0
    4b2f:	00 
    4b30:	75 7e                	jne    4bb0 <fwrite@plt+0x3900>
    4b32:	8b 85 34 ff ff ff    	mov    eax,DWORD PTR [rbp-0xcc]
    4b38:	48 98                	cdqe   
    4b3a:	48 8d 14 c5 00 00 00 	lea    rdx,[rax*8+0x0]
    4b41:	00 
    4b42:	48 8b 45 90          	mov    rax,QWORD PTR [rbp-0x70]
    4b46:	48 01 c2             	add    rdx,rax
    4b49:	48 8b 85 68 ff ff ff 	mov    rax,QWORD PTR [rbp-0x98]
    4b50:	48 89 02             	mov    QWORD PTR [rdx],rax
    4b53:	48 8b 7d a8          	mov    rdi,QWORD PTR [rbp-0x58]
    4b57:	8b 8d 34 ff ff ff    	mov    ecx,DWORD PTR [rbp-0xcc]
    4b5d:	48 8b 55 a0          	mov    rdx,QWORD PTR [rbp-0x60]
    4b61:	48 8b 75 90          	mov    rsi,QWORD PTR [rbp-0x70]
    4b65:	48 8b 85 28 ff ff ff 	mov    rax,QWORD PTR [rbp-0xd8]
    4b6c:	ff 75 80             	push   QWORD PTR [rbp-0x80]
    4b6f:	ff 75 b0             	push   QWORD PTR [rbp-0x50]
    4b72:	49 89 f9             	mov    r9,rdi
    4b75:	41 89 c8             	mov    r8d,ecx
    4b78:	48 89 d9             	mov    rcx,rbx
    4b7b:	48 89 c7             	mov    rdi,rax
    4b7e:	e8 f7 f7 ff ff       	call   437a <fwrite@plt+0x30ca>
    4b83:	48 83 c4 10          	add    rsp,0x10
    4b87:	48 c7 85 68 ff ff ff 	mov    QWORD PTR [rbp-0x98],0x0
    4b8e:	00 00 00 00 
    4b92:	8b 85 34 ff ff ff    	mov    eax,DWORD PTR [rbp-0xcc]
    4b98:	48 98                	cdqe   
    4b9a:	48 8d 14 c5 00 00 00 	lea    rdx,[rax*8+0x0]
    4ba1:	00 
    4ba2:	48 8b 45 90          	mov    rax,QWORD PTR [rbp-0x70]
    4ba6:	48 01 d0             	add    rax,rdx
    4ba9:	48 c7 00 00 00 00 00 	mov    QWORD PTR [rax],0x0
    4bb0:	49 8d 44 24 48       	lea    rax,[r12+0x48]
    4bb5:	0f b7 40 20          	movzx  eax,WORD PTR [rax+0x20]
    4bb9:	66 83 f8 ff          	cmp    ax,0xffff
    4bbd:	74 28                	je     4be7 <fwrite@plt+0x3937>
    4bbf:	be 10 00 00 00       	mov    esi,0x10
    4bc4:	bf 01 00 00 00       	mov    edi,0x1
    4bc9:	e8 42 c6 ff ff       	call   1210 <calloc@plt>
    4bce:	49 89 c6             	mov    r14,rax
    4bd1:	4d 89 6e 08          	mov    QWORD PTR [r14+0x8],r13
    4bd5:	49 8d 44 24 48       	lea    rax,[r12+0x48]
    4bda:	49 89 06             	mov    QWORD PTR [r14],rax
    4bdd:	4d 89 f5             	mov    r13,r14
    4be0:	48 ff 85 60 ff ff ff 	inc    QWORD PTR [rbp-0xa0]
    4be7:	41 0f b7 44 24 20    	movzx  eax,WORD PTR [r12+0x20]
    4bed:	66 83 f8 ff          	cmp    ax,0xffff
    4bf1:	74 1a                	je     4c0d <fwrite@plt+0x395d>
    4bf3:	48 8b 85 48 ff ff ff 	mov    rax,QWORD PTR [rbp-0xb8]
    4bfa:	48 99                	cqo    
    4bfc:	48 f7 7d 80          	idiv   QWORD PTR [rbp-0x80]
    4c00:	8b 85 34 ff ff ff    	mov    eax,DWORD PTR [rbp-0xcc]
    4c06:	48 98                	cdqe   
    4c08:	48 39 c2             	cmp    rdx,rax
    4c0b:	74 13                	je     4c20 <fwrite@plt+0x3970>
    4c0d:	48 8b 85 60 ff ff ff 	mov    rax,QWORD PTR [rbp-0xa0]
    4c14:	48 01 85 58 ff ff ff 	add    QWORD PTR [rbp-0xa8],rax
    4c1b:	e9 19 03 00 00       	jmp    4f39 <fwrite@plt+0x3c89>
    4c20:	49 8b 44 24 18       	mov    rax,QWORD PTR [r12+0x18]
    4c25:	48 89 85 10 ff ff ff 	mov    QWORD PTR [rbp-0xf0],rax
    4c2c:	8b 40 64             	mov    eax,DWORD PTR [rax+0x64]
    4c2f:	48 63 d0             	movsxd rdx,eax
    4c32:	49 8b 44 24 40       	mov    rax,QWORD PTR [r12+0x40]
    4c37:	48 29 c2             	sub    rdx,rax
    4c3a:	48 89 d0             	mov    rax,rdx
    4c3d:	48 03 85 08 ff ff ff 	add    rax,QWORD PTR [rbp-0xf8]
    4c44:	48 89 45 c0          	mov    QWORD PTR [rbp-0x40],rax
    4c48:	4d 8b 7d 08          	mov    r15,QWORD PTR [r13+0x8]
    4c4c:	e9 df 02 00 00       	jmp    4f30 <fwrite@plt+0x3c80>
    4c51:	4d 8b 37             	mov    r14,QWORD PTR [r15]
    4c54:	49 8b 46 10          	mov    rax,QWORD PTR [r14+0x10]
    4c58:	49 89 c2             	mov    r10,rax
    4c5b:	8b 40 64             	mov    eax,DWORD PTR [rax+0x64]
    4c5e:	48 63 d0             	movsxd rdx,eax
    4c61:	49 8b 46 40          	mov    rax,QWORD PTR [r14+0x40]
    4c65:	48 01 d0             	add    rax,rdx
    4c68:	48 39 45 c0          	cmp    QWORD PTR [rbp-0x40],rax
    4c6c:	7d 10                	jge    4c7e <fwrite@plt+0x39ce>
    4c6e:	4d 8b 7f 08          	mov    r15,QWORD PTR [r15+0x8]
    4c72:	48 ff 85 58 ff ff ff 	inc    QWORD PTR [rbp-0xa8]
    4c79:	e9 b2 02 00 00       	jmp    4f30 <fwrite@plt+0x3c80>
    4c7e:	4c 89 d6             	mov    rsi,r10
    4c81:	48 8b 06             	mov    rax,QWORD PTR [rsi]
    4c84:	4c 8b 85 20 ff ff ff 	mov    r8,QWORD PTR [rbp-0xe0]
    4c8b:	4c 89 c7             	mov    rdi,r8
    4c8e:	48 29 c7             	sub    rdi,rax
    4c91:	48 89 fa             	mov    rdx,rdi
    4c94:	48 8b bd 10 ff ff ff 	mov    rdi,QWORD PTR [rbp-0xf0]
    4c9b:	48 8b 07             	mov    rax,QWORD PTR [rdi]
    4c9e:	4c 8d 0c 02          	lea    r9,[rdx+rax*1]
    4ca2:	4d 89 cb             	mov    r11,r9
    4ca5:	4d 85 c9             	test   r9,r9
    4ca8:	0f 89 77 02 00 00    	jns    4f25 <fwrite@plt+0x3c75>
    4cae:	8b 85 34 ff ff ff    	mov    eax,DWORD PTR [rbp-0xcc]
    4cb4:	48 98                	cdqe   
    4cb6:	48 8d 14 c5 00 00 00 	lea    rdx,[rax*8+0x0]
    4cbd:	00 
    4cbe:	48 8b 45 88          	mov    rax,QWORD PTR [rbp-0x78]
    4cc2:	48 01 d0             	add    rax,rdx
    4cc5:	48 8b 00             	mov    rax,QWORD PTR [rax]
    4cc8:	48 39 45 a8          	cmp    QWORD PTR [rbp-0x58],rax
    4ccc:	7e 69                	jle    4d37 <fwrite@plt+0x3a87>
    4cce:	48 8b 85 28 ff ff ff 	mov    rax,QWORD PTR [rbp-0xd8]
    4cd5:	48 8b 90 a8 01 00 00 	mov    rdx,QWORD PTR [rax+0x1a8]
    4cdc:	8b 85 34 ff ff ff    	mov    eax,DWORD PTR [rbp-0xcc]
    4ce2:	48 98                	cdqe   
    4ce4:	48 8d 0c c5 00 00 00 	lea    rcx,[rax*8+0x0]
    4ceb:	00 
    4cec:	48 8b 45 88          	mov    rax,QWORD PTR [rbp-0x78]
    4cf0:	48 01 c8             	add    rax,rcx
    4cf3:	48 8b 00             	mov    rax,QWORD PTR [rax]
    4cf6:	ff b5 58 ff ff ff    	push   QWORD PTR [rbp-0xa8]
    4cfc:	52                   	push   rdx
    4cfd:	48 89 f9             	mov    rcx,rdi
    4d00:	48 89 f2             	mov    rdx,rsi
    4d03:	48 89 c6             	mov    rsi,rax
    4d06:	48 89 df             	mov    rdi,rbx
    4d09:	e8 0e ee ff ff       	call   3b1c <fwrite@plt+0x286c>
    4d0e:	48 83 c4 10          	add    rsp,0x10
    4d12:	8b 85 34 ff ff ff    	mov    eax,DWORD PTR [rbp-0xcc]
    4d18:	48 98                	cdqe   
    4d1a:	48 8d 14 c5 00 00 00 	lea    rdx,[rax*8+0x0]
    4d21:	00 
    4d22:	48 8b 45 88          	mov    rax,QWORD PTR [rbp-0x78]
    4d26:	48 01 d0             	add    rax,rdx
    4d29:	48 8b 10             	mov    rdx,QWORD PTR [rax]
    4d2c:	48 ff c2             	inc    rdx
    4d2f:	48 89 10             	mov    QWORD PTR [rax],rdx
    4d32:	e9 b0 01 00 00       	jmp    4ee7 <fwrite@plt+0x3c37>
    4d37:	48 8b 43 38          	mov    rax,QWORD PTR [rbx+0x38]
    4d3b:	4c 89 d9             	mov    rcx,r11
    4d3e:	48 39 c1             	cmp    rcx,rax
    4d41:	0f 8d 07 01 00 00    	jge    4e4e <fwrite@plt+0x3b9e>
    4d47:	66 83 bd 32 ff ff ff 	cmp    WORD PTR [rbp-0xce],0x0
    4d4e:	00 
    4d4f:	74 12                	je     4d63 <fwrite@plt+0x3ab3>
    4d51:	66 c7 85 30 ff ff ff 	mov    WORD PTR [rbp-0xd0],0x0
    4d58:	00 00 
    4d5a:	66 c7 85 32 ff ff ff 	mov    WORD PTR [rbp-0xce],0x0
    4d61:	00 00 
    4d63:	8b 85 34 ff ff ff    	mov    eax,DWORD PTR [rbp-0xcc]
    4d69:	48 98                	cdqe   
    4d6b:	48 8d 14 c5 00 00 00 	lea    rdx,[rax*8+0x0]
    4d72:	00 
    4d73:	48 8b 45 a0          	mov    rax,QWORD PTR [rbp-0x60]
    4d77:	48 01 d0             	add    rax,rdx
    4d7a:	48 8b 08             	mov    rcx,QWORD PTR [rax]
    4d7d:	8b 85 34 ff ff ff    	mov    eax,DWORD PTR [rbp-0xcc]
    4d83:	48 98                	cdqe   
    4d85:	48 8d 14 c5 00 00 00 	lea    rdx,[rax*8+0x0]
    4d8c:	00 
    4d8d:	48 8b 45 90          	mov    rax,QWORD PTR [rbp-0x70]
    4d91:	48 01 d0             	add    rax,rdx
    4d94:	48 8b 00             	mov    rax,QWORD PTR [rax]
    4d97:	48 89 c2             	mov    rdx,rax
    4d9a:	48 89 d0             	mov    rax,rdx
    4d9d:	48 c1 e0 03          	shl    rax,0x3
    4da1:	48 01 d0             	add    rax,rdx
    4da4:	48 c1 e0 03          	shl    rax,0x3
    4da8:	48 01 c8             	add    rax,rcx
    4dab:	48 8b 33             	mov    rsi,QWORD PTR [rbx]
    4dae:	48 8b 7b 08          	mov    rdi,QWORD PTR [rbx+0x8]
    4db2:	48 89 30             	mov    QWORD PTR [rax],rsi
    4db5:	48 89 78 08          	mov    QWORD PTR [rax+0x8],rdi
    4db9:	48 8b 73 10          	mov    rsi,QWORD PTR [rbx+0x10]
    4dbd:	48 8b 7b 18          	mov    rdi,QWORD PTR [rbx+0x18]
    4dc1:	48 89 70 10          	mov    QWORD PTR [rax+0x10],rsi
    4dc5:	48 89 78 18          	mov    QWORD PTR [rax+0x18],rdi
    4dc9:	48 8b 73 20          	mov    rsi,QWORD PTR [rbx+0x20]
    4dcd:	48 8b 7b 28          	mov    rdi,QWORD PTR [rbx+0x28]
    4dd1:	48 89 70 20          	mov    QWORD PTR [rax+0x20],rsi
    4dd5:	48 89 78 28          	mov    QWORD PTR [rax+0x28],rdi
    4dd9:	48 8b 73 30          	mov    rsi,QWORD PTR [rbx+0x30]
    4ddd:	48 8b 7b 38          	mov    rdi,QWORD PTR [rbx+0x38]
    4de1:	48 89 70 30          	mov    QWORD PTR [rax+0x30],rsi
    4de5:	48 89 78 38          	mov    QWORD PTR [rax+0x38],rdi
    4de9:	48 8b 53 40          	mov    rdx,QWORD PTR [rbx+0x40]
    4ded:	48 89 50 40          	mov    QWORD PTR [rax+0x40],rdx
    4df1:	8b 85 34 ff ff ff    	mov    eax,DWORD PTR [rbp-0xcc]
    4df7:	48 98                	cdqe   
    4df9:	48 8d 14 c5 00 00 00 	lea    rdx,[rax*8+0x0]
    4e00:	00 
    4e01:	48 8b 45 90          	mov    rax,QWORD PTR [rbp-0x70]
    4e05:	48 01 d0             	add    rax,rdx
    4e08:	48 8b 10             	mov    rdx,QWORD PTR [rax]
    4e0b:	48 ff c2             	inc    rdx
    4e0e:	48 89 10             	mov    QWORD PTR [rax],rdx
    4e11:	48 ff 85 68 ff ff ff 	inc    QWORD PTR [rbp-0x98]
    4e18:	48 8b 45 a8          	mov    rax,QWORD PTR [rbp-0x58]
    4e1c:	48 83 ec 08          	sub    rsp,0x8
    4e20:	ff b5 58 ff ff ff    	push   QWORD PTR [rbp-0xa8]
    4e26:	49 89 c1             	mov    r9,rax
    4e29:	4d 89 d8             	mov    r8,r11
    4e2c:	48 8b 8d 20 ff ff ff 	mov    rcx,QWORD PTR [rbp-0xe0]
    4e33:	48 8b 95 10 ff ff ff 	mov    rdx,QWORD PTR [rbp-0xf0]
    4e3a:	4c 89 d6             	mov    rsi,r10
    4e3d:	48 89 df             	mov    rdi,rbx
    4e40:	e8 02 f1 ff ff       	call   3f47 <fwrite@plt+0x2c97>
    4e45:	48 83 c4 10          	add    rsp,0x10
    4e49:	e9 99 00 00 00       	jmp    4ee7 <fwrite@plt+0x3c37>
    4e4e:	48 8b 85 40 ff ff ff 	mov    rax,QWORD PTR [rbp-0xc0]
    4e55:	4c 89 df             	mov    rdi,r11
    4e58:	48 39 c7             	cmp    rdi,rax
    4e5b:	0f 8d 86 00 00 00    	jge    4ee7 <fwrite@plt+0x3c37>
    4e61:	8b 85 34 ff ff ff    	mov    eax,DWORD PTR [rbp-0xcc]
    4e67:	48 98                	cdqe   
    4e69:	48 8d 14 c5 00 00 00 	lea    rdx,[rax*8+0x0]
    4e70:	00 
    4e71:	48 8b 45 a0          	mov    rax,QWORD PTR [rbp-0x60]
    4e75:	48 01 d0             	add    rax,rdx
    4e78:	48 8b 30             	mov    rsi,QWORD PTR [rax]
    4e7b:	8b 85 34 ff ff ff    	mov    eax,DWORD PTR [rbp-0xcc]
    4e81:	48 98                	cdqe   
    4e83:	48 8d 14 c5 00 00 00 	lea    rdx,[rax*8+0x0]
    4e8a:	00 
    4e8b:	48 8b 45 90          	mov    rax,QWORD PTR [rbp-0x70]
    4e8f:	48 01 c2             	add    rdx,rax
    4e92:	48 8b 02             	mov    rax,QWORD PTR [rdx]
    4e95:	48 8d 48 01          	lea    rcx,[rax+0x1]
    4e99:	48 89 0a             	mov    QWORD PTR [rdx],rcx
    4e9c:	48 89 c2             	mov    rdx,rax
    4e9f:	48 89 d0             	mov    rax,rdx
    4ea2:	48 c1 e0 03          	shl    rax,0x3
    4ea6:	48 01 d0             	add    rax,rdx
    4ea9:	48 c1 e0 03          	shl    rax,0x3
    4ead:	4c 8d 34 06          	lea    r14,[rsi+rax*1]
    4eb1:	4c 89 d0             	mov    rax,r10
    4eb4:	49 89 46 10          	mov    QWORD PTR [r14+0x10],rax
    4eb8:	48 8b 85 10 ff ff ff 	mov    rax,QWORD PTR [rbp-0xf0]
    4ebf:	49 89 46 18          	mov    QWORD PTR [r14+0x18],rax
    4ec3:	48 8b 85 20 ff ff ff 	mov    rax,QWORD PTR [rbp-0xe0]
    4eca:	49 89 46 40          	mov    QWORD PTR [r14+0x40],rax
    4ece:	49 89 46 08          	mov    QWORD PTR [r14+0x8],rax
    4ed2:	49 89 7e 38          	mov    QWORD PTR [r14+0x38],rdi
    4ed6:	48 8b 85 58 ff ff ff 	mov    rax,QWORD PTR [rbp-0xa8]
    4edd:	41 89 06             	mov    DWORD PTR [r14],eax
    4ee0:	48 ff 85 68 ff ff ff 	inc    QWORD PTR [rbp-0x98]
    4ee7:	8b 85 34 ff ff ff    	mov    eax,DWORD PTR [rbp-0xcc]
    4eed:	48 98                	cdqe   
    4eef:	48 8d 14 c5 00 00 00 	lea    rdx,[rax*8+0x0]
    4ef6:	00 
    4ef7:	48 8b 45 90          	mov    rax,QWORD PTR [rbp-0x70]
    4efb:	48 01 d0             	add    rax,rdx
    4efe:	48 8b 00             	mov    rax,QWORD PTR [rax]
    4f01:	48 39 45 b0          	cmp    QWORD PTR [rbp-0x50],rax
    4f05:	75 1e                	jne    4f25 <fwrite@plt+0x3c75>
    4f07:	8b 85 34 ff ff ff    	mov    eax,DWORD PTR [rbp-0xcc]
    4f0d:	48 98                	cdqe   
    4f0f:	48 8d 14 c5 00 00 00 	lea    rdx,[rax*8+0x0]
    4f16:	00 
    4f17:	48 8b 45 90          	mov    rax,QWORD PTR [rbp-0x70]
    4f1b:	48 01 d0             	add    rax,rdx
    4f1e:	48 c7 00 00 00 00 00 	mov    QWORD PTR [rax],0x0
    4f25:	4d 8b 7f 08          	mov    r15,QWORD PTR [r15+0x8]
    4f29:	48 ff 85 58 ff ff ff 	inc    QWORD PTR [rbp-0xa8]
    4f30:	4d 85 ff             	test   r15,r15
    4f33:	0f 85 18 fd ff ff    	jne    4c51 <fwrite@plt+0x39a1>
    4f39:	48 ff 85 48 ff ff ff 	inc    QWORD PTR [rbp-0xb8]
    4f40:	49 81 c4 d8 00 00 00 	add    r12,0xd8
    4f47:	48 8b 85 48 ff ff ff 	mov    rax,QWORD PTR [rbp-0xb8]
    4f4e:	48 3b 45 b8          	cmp    rax,QWORD PTR [rbp-0x48]
    4f52:	0f 8c 6e fb ff ff    	jl     4ac6 <fwrite@plt+0x3816>
    4f58:	8b 85 34 ff ff ff    	mov    eax,DWORD PTR [rbp-0xcc]
    4f5e:	48 98                	cdqe   
    4f60:	48 8d 14 c5 00 00 00 	lea    rdx,[rax*8+0x0]
    4f67:	00 
    4f68:	48 8b 45 90          	mov    rax,QWORD PTR [rbp-0x70]
    4f6c:	48 01 c2             	add    rdx,rax
    4f6f:	48 8b 85 68 ff ff ff 	mov    rax,QWORD PTR [rbp-0x98]
    4f76:	48 89 02             	mov    QWORD PTR [rdx],rax
    4f79:	eb 57                	jmp    4fd2 <fwrite@plt+0x3d22>
    4f7b:	66 c7 85 30 ff ff ff 	mov    WORD PTR [rbp-0xd0],0x1
    4f82:	01 00 
    4f84:	48 8b 7d a8          	mov    rdi,QWORD PTR [rbp-0x58]
    4f88:	8b 8d 34 ff ff ff    	mov    ecx,DWORD PTR [rbp-0xcc]
    4f8e:	48 8b 55 a0          	mov    rdx,QWORD PTR [rbp-0x60]
    4f92:	48 8b 75 90          	mov    rsi,QWORD PTR [rbp-0x70]
    4f96:	48 8b 85 28 ff ff ff 	mov    rax,QWORD PTR [rbp-0xd8]
    4f9d:	ff 75 80             	push   QWORD PTR [rbp-0x80]
    4fa0:	ff 75 b0             	push   QWORD PTR [rbp-0x50]
    4fa3:	49 89 f9             	mov    r9,rdi
    4fa6:	41 89 c8             	mov    r8d,ecx
    4fa9:	48 89 d9             	mov    rcx,rbx
    4fac:	48 89 c7             	mov    rdi,rax
    4faf:	e8 c6 f3 ff ff       	call   437a <fwrite@plt+0x30ca>
    4fb4:	48 83 c4 10          	add    rsp,0x10
    4fb8:	48 89 85 68 ff ff ff 	mov    QWORD PTR [rbp-0x98],rax
    4fbf:	48 83 bd 68 ff ff ff 	cmp    QWORD PTR [rbp-0x98],0x0
    4fc6:	00 
    4fc7:	74 09                	je     4fd2 <fwrite@plt+0x3d22>
    4fc9:	66 c7 85 30 ff ff ff 	mov    WORD PTR [rbp-0xd0],0x0
    4fd0:	00 00 
    4fd2:	66 83 bd 30 ff ff ff 	cmp    WORD PTR [rbp-0xd0],0x0
    4fd9:	00 
    4fda:	74 9f                	je     4f7b <fwrite@plt+0x3ccb>
    4fdc:	eb 0f                	jmp    4fed <fwrite@plt+0x3d3d>
    4fde:	4d 89 ee             	mov    r14,r13
    4fe1:	4d 8b 6d 08          	mov    r13,QWORD PTR [r13+0x8]
    4fe5:	4c 89 f7             	mov    rdi,r14
    4fe8:	e8 93 c1 ff ff       	call   1180 <free@plt>
    4fed:	49 8b 45 08          	mov    rax,QWORD PTR [r13+0x8]
    4ff1:	48 85 c0             	test   rax,rax
    4ff4:	75 e8                	jne    4fde <fwrite@plt+0x3d2e>
    4ff6:	4c 89 ef             	mov    rdi,r13
    4ff9:	e8 82 c1 ff ff       	call   1180 <free@plt>
    4ffe:	8b 85 34 ff ff ff    	mov    eax,DWORD PTR [rbp-0xcc]
    5004:	48 98                	cdqe   
    5006:	48 8d 14 c5 00 00 00 	lea    rdx,[rax*8+0x0]
    500d:	00 
    500e:	48 8b 45 88          	mov    rax,QWORD PTR [rbp-0x78]
    5012:	48 01 d0             	add    rax,rdx
    5015:	48 8b 00             	mov    rax,QWORD PTR [rax]
    5018:	48 89 c6             	mov    rsi,rax
    501b:	8b 85 34 ff ff ff    	mov    eax,DWORD PTR [rbp-0xcc]
    5021:	48 98                	cdqe   
    5023:	48 8d 14 c5 00 00 00 	lea    rdx,[rax*8+0x0]
    502a:	00 
    502b:	48 8b 45 98          	mov    rax,QWORD PTR [rbp-0x68]
    502f:	48 01 d0             	add    rax,rdx
    5032:	48 8b 00             	mov    rax,QWORD PTR [rax]
    5035:	48 8d 0d e9 e0 ff ff 	lea    rcx,[rip+0xffffffffffffe0e9]        # 3125 <fwrite@plt+0x1e75>
    503c:	ba 08 00 00 00       	mov    edx,0x8
    5041:	48 89 c7             	mov    rdi,rax
    5044:	e8 a5 26 00 00       	call   76ee <fwrite@plt+0x643e>
    5049:	48 8b 4d 98          	mov    rcx,QWORD PTR [rbp-0x68]
    504d:	48 8b 55 88          	mov    rdx,QWORD PTR [rbp-0x78]
    5051:	48 8d b5 38 ff ff ff 	lea    rsi,[rbp-0xc8]
    5058:	48 8b 85 28 ff ff ff 	mov    rax,QWORD PTR [rbp-0xd8]
    505f:	48 89 c7             	mov    rdi,rax
    5062:	e8 1c e4 ff ff       	call   3483 <fwrite@plt+0x21d3>
    5067:	8b 85 34 ff ff ff    	mov    eax,DWORD PTR [rbp-0xcc]
    506d:	48 98                	cdqe   
    506f:	48 8d 14 c5 00 00 00 	lea    rdx,[rax*8+0x0]
    5076:	00 
    5077:	48 8b 45 98          	mov    rax,QWORD PTR [rbp-0x68]
    507b:	48 01 d0             	add    rax,rdx
    507e:	48 8b 00             	mov    rax,QWORD PTR [rax]
    5081:	48 89 c7             	mov    rdi,rax
    5084:	e8 f7 c0 ff ff       	call   1180 <free@plt>
    5089:	8b 85 34 ff ff ff    	mov    eax,DWORD PTR [rbp-0xcc]
    508f:	48 98                	cdqe   
    5091:	48 8d 14 c5 00 00 00 	lea    rdx,[rax*8+0x0]
    5098:	00 
    5099:	48 8b 45 88          	mov    rax,QWORD PTR [rbp-0x78]
    509d:	48 01 d0             	add    rax,rdx
    50a0:	48 8b 00             	mov    rax,QWORD PTR [rax]
    50a3:	48 85 c0             	test   rax,rax
    50a6:	0f 84 db 01 00 00    	je     5287 <fwrite@plt+0x3fd7>
    50ac:	48 8b 85 28 ff ff ff 	mov    rax,QWORD PTR [rbp-0xd8]
    50b3:	48 8b 88 40 02 00 00 	mov    rcx,QWORD PTR [rax+0x240]
    50ba:	8b 85 34 ff ff ff    	mov    eax,DWORD PTR [rbp-0xcc]
    50c0:	48 98                	cdqe   
    50c2:	48 0f af 45 a8       	imul   rax,QWORD PTR [rbp-0x58]
    50c7:	48 89 c2             	mov    rdx,rax
    50ca:	48 89 d0             	mov    rax,rdx
    50cd:	48 c1 e0 03          	shl    rax,0x3
    50d1:	48 01 d0             	add    rax,rdx
    50d4:	48 c1 e0 03          	shl    rax,0x3
    50d8:	48 8d 1c 01          	lea    rbx,[rcx+rax*1]
    50dc:	8b 85 34 ff ff ff    	mov    eax,DWORD PTR [rbp-0xcc]
    50e2:	48 98                	cdqe   
    50e4:	48 8d 14 c5 00 00 00 	lea    rdx,[rax*8+0x0]
    50eb:	00 
    50ec:	48 8b 45 88          	mov    rax,QWORD PTR [rbp-0x78]
    50f0:	48 01 d0             	add    rax,rdx
    50f3:	48 8b 00             	mov    rax,QWORD PTR [rax]
    50f6:	48 89 c2             	mov    rdx,rax
    50f9:	48 89 d0             	mov    rax,rdx
    50fc:	48 c1 e0 03          	shl    rax,0x3
    5100:	48 01 d0             	add    rax,rdx
    5103:	48 c1 e0 03          	shl    rax,0x3
    5107:	4c 8d 24 03          	lea    r12,[rbx+rax*1]
    510b:	48 83 bd 50 ff ff ff 	cmp    QWORD PTR [rbp-0xb0],0x0
    5112:	00 
    5113:	0f 84 65 01 00 00    	je     527e <fwrite@plt+0x3fce>
    5119:	e9 95 00 00 00       	jmp    51b3 <fwrite@plt+0x3f03>
    511e:	48 8b 43 38          	mov    rax,QWORD PTR [rbx+0x38]
    5122:	48 83 f8 01          	cmp    rax,0x1
    5126:	0f 85 83 00 00 00    	jne    51af <fwrite@plt+0x3eff>
    512c:	48 c7 43 38 00 00 00 	mov    QWORD PTR [rbx+0x38],0x0
    5133:	00 
    5134:	66 c7 43 20 01 00    	mov    WORD PTR [rbx+0x20],0x1
    513a:	8b 03                	mov    eax,DWORD PTR [rbx]
    513c:	48 63 d0             	movsxd rdx,eax
    513f:	48 8b 85 28 ff ff ff 	mov    rax,QWORD PTR [rbp-0xd8]
    5146:	48 89 d6             	mov    rsi,rdx
    5149:	48 89 c7             	mov    rdi,rax
    514c:	e8 7d c9 ff ff       	call   1ace <fwrite@plt+0x81e>
    5151:	48 89 c2             	mov    rdx,rax
    5154:	48 89 d0             	mov    rax,rdx
    5157:	48 c1 e0 03          	shl    rax,0x3
    515b:	48 01 d0             	add    rax,rdx
    515e:	48 c1 e0 03          	shl    rax,0x3
    5162:	48 03 85 18 ff ff ff 	add    rax,QWORD PTR [rbp-0xe8]
    5169:	48 8b 33             	mov    rsi,QWORD PTR [rbx]
    516c:	48 8b 7b 08          	mov    rdi,QWORD PTR [rbx+0x8]
    5170:	48 89 30             	mov    QWORD PTR [rax],rsi
    5173:	48 89 78 08          	mov    QWORD PTR [rax+0x8],rdi
    5177:	48 8b 73 10          	mov    rsi,QWORD PTR [rbx+0x10]
    517b:	48 8b 7b 18          	mov    rdi,QWORD PTR [rbx+0x18]
    517f:	48 89 70 10          	mov    QWORD PTR [rax+0x10],rsi
    5183:	48 89 78 18          	mov    QWORD PTR [rax+0x18],rdi
    5187:	48 8b 73 20          	mov    rsi,QWORD PTR [rbx+0x20]
    518b:	48 8b 7b 28          	mov    rdi,QWORD PTR [rbx+0x28]
    518f:	48 89 70 20          	mov    QWORD PTR [rax+0x20],rsi
    5193:	48 89 78 28          	mov    QWORD PTR [rax+0x28],rdi
    5197:	48 8b 73 30          	mov    rsi,QWORD PTR [rbx+0x30]
    519b:	48 8b 7b 38          	mov    rdi,QWORD PTR [rbx+0x38]
    519f:	48 89 70 30          	mov    QWORD PTR [rax+0x30],rsi
    51a3:	48 89 78 38          	mov    QWORD PTR [rax+0x38],rdi
    51a7:	48 8b 53 40          	mov    rdx,QWORD PTR [rbx+0x40]
    51ab:	48 89 50 40          	mov    QWORD PTR [rax+0x40],rdx
    51af:	48 83 c3 48          	add    rbx,0x48
    51b3:	4c 39 e3             	cmp    rbx,r12
    51b6:	0f 85 62 ff ff ff    	jne    511e <fwrite@plt+0x3e6e>
    51bc:	e9 c6 00 00 00       	jmp    5287 <fwrite@plt+0x3fd7>
    51c1:	48 8b 43 38          	mov    rax,QWORD PTR [rbx+0x38]
    51c5:	48 83 f8 01          	cmp    rax,0x1
    51c9:	0f 85 ab 00 00 00    	jne    527a <fwrite@plt+0x3fca>
    51cf:	48 c7 43 38 00 00 00 	mov    QWORD PTR [rbx+0x38],0x0
    51d6:	00 
    51d7:	66 c7 43 20 01 00    	mov    WORD PTR [rbx+0x20],0x1
    51dd:	48 8b 43 10          	mov    rax,QWORD PTR [rbx+0x10]
    51e1:	48 8b 40 38          	mov    rax,QWORD PTR [rax+0x38]
    51e5:	48 89 43 28          	mov    QWORD PTR [rbx+0x28],rax
    51e9:	48 8b 43 10          	mov    rax,QWORD PTR [rbx+0x10]
    51ed:	48 89 58 38          	mov    QWORD PTR [rax+0x38],rbx
    51f1:	48 8b 43 18          	mov    rax,QWORD PTR [rbx+0x18]
    51f5:	48 8b 40 40          	mov    rax,QWORD PTR [rax+0x40]
    51f9:	48 89 43 30          	mov    QWORD PTR [rbx+0x30],rax
    51fd:	48 8b 43 18          	mov    rax,QWORD PTR [rbx+0x18]
    5201:	48 89 58 40          	mov    QWORD PTR [rax+0x40],rbx
    5205:	8b 03                	mov    eax,DWORD PTR [rbx]
    5207:	48 63 d0             	movsxd rdx,eax
    520a:	48 8b 85 28 ff ff ff 	mov    rax,QWORD PTR [rbp-0xd8]
    5211:	48 89 d6             	mov    rsi,rdx
    5214:	48 89 c7             	mov    rdi,rax
    5217:	e8 b2 c8 ff ff       	call   1ace <fwrite@plt+0x81e>
    521c:	48 89 c2             	mov    rdx,rax
    521f:	48 89 d0             	mov    rax,rdx
    5222:	48 c1 e0 03          	shl    rax,0x3
    5226:	48 01 d0             	add    rax,rdx
    5229:	48 c1 e0 03          	shl    rax,0x3
    522d:	48 03 85 18 ff ff ff 	add    rax,QWORD PTR [rbp-0xe8]
    5234:	48 8b 33             	mov    rsi,QWORD PTR [rbx]
    5237:	48 8b 7b 08          	mov    rdi,QWORD PTR [rbx+0x8]
    523b:	48 89 30             	mov    QWORD PTR [rax],rsi
    523e:	48 89 78 08          	mov    QWORD PTR [rax+0x8],rdi
    5242:	48 8b 73 10          	mov    rsi,QWORD PTR [rbx+0x10]
    5246:	48 8b 7b 18          	mov    rdi,QWORD PTR [rbx+0x18]
    524a:	48 89 70 10          	mov    QWORD PTR [rax+0x10],rsi
    524e:	48 89 78 18          	mov    QWORD PTR [rax+0x18],rdi
    5252:	48 8b 73 20          	mov    rsi,QWORD PTR [rbx+0x20]
    5256:	48 8b 7b 28          	mov    rdi,QWORD PTR [rbx+0x28]
    525a:	48 89 70 20          	mov    QWORD PTR [rax+0x20],rsi
    525e:	48 89 78 28          	mov    QWORD PTR [rax+0x28],rdi
    5262:	48 8b 73 30          	mov    rsi,QWORD PTR [rbx+0x30]
    5266:	48 8b 7b 38          	mov    rdi,QWORD PTR [rbx+0x38]
    526a:	48 89 70 30          	mov    QWORD PTR [rax+0x30],rsi
    526e:	48 89 78 38          	mov    QWORD PTR [rax+0x38],rdi
    5272:	48 8b 53 40          	mov    rdx,QWORD PTR [rbx+0x40]
    5276:	48 89 50 40          	mov    QWORD PTR [rax+0x40],rdx
    527a:	48 83 c3 48          	add    rbx,0x48
    527e:	4c 39 e3             	cmp    rbx,r12
    5281:	0f 85 3a ff ff ff    	jne    51c1 <fwrite@plt+0x3f11>
    5287:	48 8b 85 28 ff ff ff 	mov    rax,QWORD PTR [rbp-0xd8]
    528e:	48 8b 90 b8 01 00 00 	mov    rdx,QWORD PTR [rax+0x1b8]
    5295:	48 8b 85 38 ff ff ff 	mov    rax,QWORD PTR [rbp-0xc8]
    529c:	48 01 c2             	add    rdx,rax
    529f:	48 8b 85 28 ff ff ff 	mov    rax,QWORD PTR [rbp-0xd8]
    52a6:	48 89 90 b8 01 00 00 	mov    QWORD PTR [rax+0x1b8],rdx
    52ad:	48 8b 85 28 ff ff ff 	mov    rax,QWORD PTR [rbp-0xd8]
    52b4:	48 8b 90 c0 01 00 00 	mov    rdx,QWORD PTR [rax+0x1c0]
    52bb:	48 8b 85 38 ff ff ff 	mov    rax,QWORD PTR [rbp-0xc8]
    52c2:	48 29 c2             	sub    rdx,rax
    52c5:	48 8b 85 28 ff ff ff 	mov    rax,QWORD PTR [rbp-0xd8]
    52cc:	48 89 90 c0 01 00 00 	mov    QWORD PTR [rax+0x1c0],rdx
    52d3:	48 8b 85 28 ff ff ff 	mov    rax,QWORD PTR [rbp-0xd8]
    52da:	48 8b 90 a8 01 00 00 	mov    rdx,QWORD PTR [rax+0x1a8]
    52e1:	48 8b 85 28 ff ff ff 	mov    rax,QWORD PTR [rbp-0xd8]
    52e8:	48 8d 0d df c7 ff ff 	lea    rcx,[rip+0xffffffffffffc7df]        # 1ace <fwrite@plt+0x81e>
    52ef:	48 89 ce             	mov    rsi,rcx
    52f2:	48 89 c7             	mov    rdi,rax
    52f5:	e8 13 e0 ff ff       	call   330d <fwrite@plt+0x205d>
    52fa:	48 8b 85 28 ff ff ff 	mov    rax,QWORD PTR [rbp-0xd8]
    5301:	48 8b 90 a8 01 00 00 	mov    rdx,QWORD PTR [rax+0x1a8]
    5308:	48 8b 85 38 ff ff ff 	mov    rax,QWORD PTR [rbp-0xc8]
    530f:	48 01 c2             	add    rdx,rax
    5312:	48 8b 85 28 ff ff ff 	mov    rax,QWORD PTR [rbp-0xd8]
    5319:	48 89 90 a8 01 00 00 	mov    QWORD PTR [rax+0x1a8],rdx
    5320:	48 8b 85 28 ff ff ff 	mov    rax,QWORD PTR [rbp-0xd8]
    5327:	48 8b 88 38 02 00 00 	mov    rcx,QWORD PTR [rax+0x238]
    532e:	48 8b 85 28 ff ff ff 	mov    rax,QWORD PTR [rbp-0xd8]
    5335:	48 8b 80 a8 01 00 00 	mov    rax,QWORD PTR [rax+0x1a8]
    533c:	48 89 c2             	mov    rdx,rax
    533f:	48 89 d0             	mov    rax,rdx
    5342:	48 c1 e0 03          	shl    rax,0x3
    5346:	48 01 d0             	add    rax,rdx
    5349:	48 c1 e0 03          	shl    rax,0x3
    534d:	48 8d 14 01          	lea    rdx,[rcx+rax*1]
    5351:	48 8b 85 28 ff ff ff 	mov    rax,QWORD PTR [rbp-0xd8]
    5358:	48 89 90 40 02 00 00 	mov    QWORD PTR [rax+0x240],rdx
    535f:	48 8b 45 88          	mov    rax,QWORD PTR [rbp-0x78]
    5363:	48 89 c7             	mov    rdi,rax
    5366:	e8 15 be ff ff       	call   1180 <free@plt>
    536b:	48 8b 45 90          	mov    rax,QWORD PTR [rbp-0x70]
    536f:	48 89 c7             	mov    rdi,rax
    5372:	e8 09 be ff ff       	call   1180 <free@plt>
    5377:	48 8b 45 98          	mov    rax,QWORD PTR [rbp-0x68]
    537b:	48 89 c7             	mov    rdi,rax
    537e:	e8 fd bd ff ff       	call   1180 <free@plt>
    5383:	48 8b 45 a0          	mov    rax,QWORD PTR [rbp-0x60]
    5387:	48 89 c7             	mov    rdi,rax
    538a:	e8 f1 bd ff ff       	call   1180 <free@plt>
    538f:	48 8b 85 38 ff ff ff 	mov    rax,QWORD PTR [rbp-0xc8]
    5396:	48 8b 4d c8          	mov    rcx,QWORD PTR [rbp-0x38]
    539a:	64 48 33 0c 25 28 00 	xor    rcx,QWORD PTR fs:0x28
    53a1:	00 00 
    53a3:	74 05                	je     53aa <fwrite@plt+0x40fa>
    53a5:	e8 26 be ff ff       	call   11d0 <__stack_chk_fail@plt>
    53aa:	48 8d 65 d8          	lea    rsp,[rbp-0x28]
    53ae:	5b                   	pop    rbx
    53af:	41 5c                	pop    r12
    53b1:	41 5d                	pop    r13
    53b3:	41 5e                	pop    r14
    53b5:	41 5f                	pop    r15
    53b7:	5d                   	pop    rbp
    53b8:	c3                   	ret    
    53b9:	f3 0f 1e fa          	endbr64 
    53bd:	55                   	push   rbp
    53be:	48 89 e5             	mov    rbp,rsp
    53c1:	53                   	push   rbx
    53c2:	48 83 ec 58          	sub    rsp,0x58
    53c6:	48 89 7d b8          	mov    QWORD PTR [rbp-0x48],rdi
    53ca:	48 89 75 b0          	mov    QWORD PTR [rbp-0x50],rsi
    53ce:	48 89 55 a8          	mov    QWORD PTR [rbp-0x58],rdx
    53d2:	48 8b 45 b8          	mov    rax,QWORD PTR [rbp-0x48]
    53d6:	48 c7 80 80 02 00 00 	mov    QWORD PTR [rax+0x280],0xfa0
    53dd:	a0 0f 00 00 
    53e1:	48 8b 45 b8          	mov    rax,QWORD PTR [rbp-0x48]
    53e5:	48 8b 80 a8 01 00 00 	mov    rax,QWORD PTR [rax+0x1a8]
    53ec:	48 8d 48 ff          	lea    rcx,[rax-0x1]
    53f0:	48 ba cf f7 53 e3 a5 	movabs rdx,0x20c49ba5e353f7cf
    53f7:	9b c4 20 
    53fa:	48 89 c8             	mov    rax,rcx
    53fd:	48 f7 ea             	imul   rdx
    5400:	48 c1 fa 09          	sar    rdx,0x9
    5404:	48 89 c8             	mov    rax,rcx
    5407:	48 c1 f8 3f          	sar    rax,0x3f
    540b:	48 29 c2             	sub    rdx,rax
    540e:	48 89 d0             	mov    rax,rdx
    5411:	48 8d 50 01          	lea    rdx,[rax+0x1]
    5415:	48 8b 45 b8          	mov    rax,QWORD PTR [rbp-0x48]
    5419:	48 89 90 70 02 00 00 	mov    QWORD PTR [rax+0x270],rdx
    5420:	48 8b 45 b8          	mov    rax,QWORD PTR [rbp-0x48]
    5424:	48 8b b0 70 02 00 00 	mov    rsi,QWORD PTR [rax+0x270]
    542b:	48 8b 45 b8          	mov    rax,QWORD PTR [rbp-0x48]
    542f:	48 8b 88 a8 01 00 00 	mov    rcx,QWORD PTR [rax+0x1a8]
    5436:	48 ba cf f7 53 e3 a5 	movabs rdx,0x20c49ba5e353f7cf
    543d:	9b c4 20 
    5440:	48 89 c8             	mov    rax,rcx
    5443:	48 f7 ea             	imul   rdx
    5446:	48 c1 fa 09          	sar    rdx,0x9
    544a:	48 89 c8             	mov    rax,rcx
    544d:	48 c1 f8 3f          	sar    rax,0x3f
    5451:	48 29 c2             	sub    rdx,rax
    5454:	48 89 d0             	mov    rax,rdx
    5457:	48 69 c0 a0 0f 00 00 	imul   rax,rax,0xfa0
    545e:	48 29 c1             	sub    rcx,rax
    5461:	48 89 c8             	mov    rax,rcx
    5464:	ba a0 0f 00 00       	mov    edx,0xfa0
    5469:	48 29 c2             	sub    rdx,rax
    546c:	48 89 d0             	mov    rax,rdx
    546f:	48 29 c6             	sub    rsi,rax
    5472:	48 89 f2             	mov    rdx,rsi
    5475:	48 8b 45 b8          	mov    rax,QWORD PTR [rbp-0x48]
    5479:	48 89 90 78 02 00 00 	mov    QWORD PTR [rax+0x278],rdx
    5480:	eb 3e                	jmp    54c0 <fwrite@plt+0x4210>
    5482:	48 8b 45 b8          	mov    rax,QWORD PTR [rbp-0x48]
    5486:	48 8b 90 70 02 00 00 	mov    rdx,QWORD PTR [rax+0x270]
    548d:	48 8b 45 b8          	mov    rax,QWORD PTR [rbp-0x48]
    5491:	48 8b 80 78 02 00 00 	mov    rax,QWORD PTR [rax+0x278]
    5498:	48 01 c2             	add    rdx,rax
    549b:	48 8b 45 b8          	mov    rax,QWORD PTR [rbp-0x48]
    549f:	48 89 90 78 02 00 00 	mov    QWORD PTR [rax+0x278],rdx
    54a6:	48 8b 45 b8          	mov    rax,QWORD PTR [rbp-0x48]
    54aa:	48 8b 80 80 02 00 00 	mov    rax,QWORD PTR [rax+0x280]
    54b1:	48 8d 50 ff          	lea    rdx,[rax-0x1]
    54b5:	48 8b 45 b8          	mov    rax,QWORD PTR [rbp-0x48]
    54b9:	48 89 90 80 02 00 00 	mov    QWORD PTR [rax+0x280],rdx
    54c0:	48 8b 45 b8          	mov    rax,QWORD PTR [rbp-0x48]
    54c4:	48 8b 80 78 02 00 00 	mov    rax,QWORD PTR [rax+0x278]
    54cb:	48 85 c0             	test   rax,rax
    54ce:	78 b2                	js     5482 <fwrite@plt+0x41d2>
    54d0:	48 83 7d a8 00       	cmp    QWORD PTR [rbp-0x58],0x0
    54d5:	74 14                	je     54eb <fwrite@plt+0x423b>
    54d7:	48 8b 45 b8          	mov    rax,QWORD PTR [rbp-0x48]
    54db:	48 8b 80 b8 01 00 00 	mov    rax,QWORD PTR [rax+0x1b8]
    54e2:	48 89 45 c8          	mov    QWORD PTR [rbp-0x38],rax
    54e6:	e9 35 01 00 00       	jmp    5620 <fwrite@plt+0x4370>
    54eb:	48 8b 45 b8          	mov    rax,QWORD PTR [rbp-0x48]
    54ef:	48 8b 90 a8 01 00 00 	mov    rdx,QWORD PTR [rax+0x1a8]
    54f6:	48 8b 45 b8          	mov    rax,QWORD PTR [rbp-0x48]
    54fa:	48 8b 80 b8 01 00 00 	mov    rax,QWORD PTR [rax+0x1b8]
    5501:	48 29 c2             	sub    rdx,rax
    5504:	48 89 d0             	mov    rax,rdx
    5507:	48 89 45 e0          	mov    QWORD PTR [rbp-0x20],rax
    550b:	48 8b 45 b8          	mov    rax,QWORD PTR [rbp-0x48]
    550f:	48 8b 90 a8 01 00 00 	mov    rdx,QWORD PTR [rax+0x1a8]
    5516:	48 8b 45 b8          	mov    rax,QWORD PTR [rbp-0x48]
    551a:	48 8b 80 b8 01 00 00 	mov    rax,QWORD PTR [rax+0x1b8]
    5521:	48 29 c2             	sub    rdx,rax
    5524:	48 89 d0             	mov    rax,rdx
    5527:	48 89 45 d8          	mov    QWORD PTR [rbp-0x28],rax
    552b:	48 c7 45 c8 00 00 00 	mov    QWORD PTR [rbp-0x38],0x0
    5532:	00 
    5533:	e9 d3 00 00 00       	jmp    560b <fwrite@plt+0x435b>
    5538:	48 8b 45 b8          	mov    rax,QWORD PTR [rbp-0x48]
    553c:	48 8b 98 38 02 00 00 	mov    rbx,QWORD PTR [rax+0x238]
    5543:	48 8b 55 d8          	mov    rdx,QWORD PTR [rbp-0x28]
    5547:	48 8b 45 b8          	mov    rax,QWORD PTR [rbp-0x48]
    554b:	48 89 d6             	mov    rsi,rdx
    554e:	48 89 c7             	mov    rdi,rax
    5551:	e8 78 c5 ff ff       	call   1ace <fwrite@plt+0x81e>
    5556:	48 89 c2             	mov    rdx,rax
    5559:	48 89 d0             	mov    rax,rdx
    555c:	48 c1 e0 03          	shl    rax,0x3
    5560:	48 01 d0             	add    rax,rdx
    5563:	48 c1 e0 03          	shl    rax,0x3
    5567:	48 01 d8             	add    rax,rbx
    556a:	48 89 45 e8          	mov    QWORD PTR [rbp-0x18],rax
    556e:	48 8b 45 e8          	mov    rax,QWORD PTR [rbp-0x18]
    5572:	0f b7 40 20          	movzx  eax,WORD PTR [rax+0x20]
    5576:	66 83 f8 01          	cmp    ax,0x1
    557a:	75 2a                	jne    55a6 <fwrite@plt+0x42f6>
    557c:	48 8b 45 e8          	mov    rax,QWORD PTR [rbp-0x18]
    5580:	48 8b 50 08          	mov    rdx,QWORD PTR [rax+0x8]
    5584:	48 8b 45 e8          	mov    rax,QWORD PTR [rbp-0x18]
    5588:	48 8b 40 10          	mov    rax,QWORD PTR [rax+0x10]
    558c:	48 8b 00             	mov    rax,QWORD PTR [rax]
    558f:	48 29 c2             	sub    rdx,rax
    5592:	48 8b 45 e8          	mov    rax,QWORD PTR [rbp-0x18]
    5596:	48 8b 40 18          	mov    rax,QWORD PTR [rax+0x18]
    559a:	48 8b 00             	mov    rax,QWORD PTR [rax]
    559d:	48 01 d0             	add    rax,rdx
    55a0:	48 89 45 d0          	mov    QWORD PTR [rbp-0x30],rax
    55a4:	eb 37                	jmp    55dd <fwrite@plt+0x432d>
    55a6:	48 c7 45 d0 fe ff ff 	mov    QWORD PTR [rbp-0x30],0xfffffffffffffffe
    55ad:	ff 
    55ae:	48 8b 45 e8          	mov    rax,QWORD PTR [rbp-0x18]
    55b2:	0f b7 40 20          	movzx  eax,WORD PTR [rax+0x20]
    55b6:	66 85 c0             	test   ax,ax
    55b9:	75 22                	jne    55dd <fwrite@plt+0x432d>
    55bb:	48 8b 45 e8          	mov    rax,QWORD PTR [rbp-0x18]
    55bf:	48 8b 40 10          	mov    rax,QWORD PTR [rax+0x10]
    55c3:	48 8b 40 30          	mov    rax,QWORD PTR [rax+0x30]
    55c7:	48 39 45 e8          	cmp    QWORD PTR [rbp-0x18],rax
    55cb:	74 10                	je     55dd <fwrite@plt+0x432d>
    55cd:	48 8b 45 e8          	mov    rax,QWORD PTR [rbp-0x18]
    55d1:	48 8b 40 18          	mov    rax,QWORD PTR [rax+0x18]
    55d5:	48 8b 55 e8          	mov    rdx,QWORD PTR [rbp-0x18]
    55d9:	48 89 50 30          	mov    QWORD PTR [rax+0x30],rdx
    55dd:	48 8b 45 d0          	mov    rax,QWORD PTR [rbp-0x30]
    55e1:	48 3b 45 b0          	cmp    rax,QWORD PTR [rbp-0x50]
    55e5:	7e 10                	jle    55f7 <fwrite@plt+0x4347>
    55e7:	48 ff 45 c8          	inc    QWORD PTR [rbp-0x38]
    55eb:	48 8b 45 e8          	mov    rax,QWORD PTR [rbp-0x18]
    55ef:	c7 00 ff ff ff ff    	mov    DWORD PTR [rax],0xffffffff
    55f5:	eb 10                	jmp    5607 <fwrite@plt+0x4357>
    55f7:	48 8b 45 e0          	mov    rax,QWORD PTR [rbp-0x20]
    55fb:	89 c2                	mov    edx,eax
    55fd:	48 8b 45 e8          	mov    rax,QWORD PTR [rbp-0x18]
    5601:	89 10                	mov    DWORD PTR [rax],edx
    5603:	48 ff 45 e0          	inc    QWORD PTR [rbp-0x20]
    5607:	48 ff 45 d8          	inc    QWORD PTR [rbp-0x28]
    560b:	48 8b 45 b8          	mov    rax,QWORD PTR [rbp-0x48]
    560f:	48 8b 80 a8 01 00 00 	mov    rax,QWORD PTR [rax+0x1a8]
    5616:	48 39 45 d8          	cmp    QWORD PTR [rbp-0x28],rax
    561a:	0f 8c 18 ff ff ff    	jl     5538 <fwrite@plt+0x4288>
    5620:	48 83 7d c8 00       	cmp    QWORD PTR [rbp-0x38],0x0
    5625:	0f 84 23 02 00 00    	je     584e <fwrite@plt+0x459e>
    562b:	48 8b 45 b8          	mov    rax,QWORD PTR [rbp-0x48]
    562f:	48 8b 80 b8 01 00 00 	mov    rax,QWORD PTR [rax+0x1b8]
    5636:	48 2b 45 c8          	sub    rax,QWORD PTR [rbp-0x38]
    563a:	48 89 c2             	mov    rdx,rax
    563d:	48 8b 45 b8          	mov    rax,QWORD PTR [rbp-0x48]
    5641:	48 89 90 b8 01 00 00 	mov    QWORD PTR [rax+0x1b8],rdx
    5648:	48 8b 45 b8          	mov    rax,QWORD PTR [rbp-0x48]
    564c:	48 8b 90 c0 01 00 00 	mov    rdx,QWORD PTR [rax+0x1c0]
    5653:	48 8b 45 c8          	mov    rax,QWORD PTR [rbp-0x38]
    5657:	48 01 c2             	add    rdx,rax
    565a:	48 8b 45 b8          	mov    rax,QWORD PTR [rbp-0x48]
    565e:	48 89 90 c0 01 00 00 	mov    QWORD PTR [rax+0x1c0],rdx
    5665:	48 8b 45 b8          	mov    rax,QWORD PTR [rbp-0x48]
    5669:	48 c7 80 80 02 00 00 	mov    QWORD PTR [rax+0x280],0xfa0
    5670:	a0 0f 00 00 
    5674:	48 8b 45 b8          	mov    rax,QWORD PTR [rbp-0x48]
    5678:	48 8b 80 a8 01 00 00 	mov    rax,QWORD PTR [rax+0x1a8]
    567f:	48 2b 45 c8          	sub    rax,QWORD PTR [rbp-0x38]
    5683:	48 8d 48 ff          	lea    rcx,[rax-0x1]
    5687:	48 ba cf f7 53 e3 a5 	movabs rdx,0x20c49ba5e353f7cf
    568e:	9b c4 20 
    5691:	48 89 c8             	mov    rax,rcx
    5694:	48 f7 ea             	imul   rdx
    5697:	48 c1 fa 09          	sar    rdx,0x9
    569b:	48 89 c8             	mov    rax,rcx
    569e:	48 c1 f8 3f          	sar    rax,0x3f
    56a2:	48 29 c2             	sub    rdx,rax
    56a5:	48 89 d0             	mov    rax,rdx
    56a8:	48 8d 50 01          	lea    rdx,[rax+0x1]
    56ac:	48 8b 45 b8          	mov    rax,QWORD PTR [rbp-0x48]
    56b0:	48 89 90 70 02 00 00 	mov    QWORD PTR [rax+0x270],rdx
    56b7:	48 8b 45 b8          	mov    rax,QWORD PTR [rbp-0x48]
    56bb:	48 8b 80 a8 01 00 00 	mov    rax,QWORD PTR [rax+0x1a8]
    56c2:	48 2b 45 c8          	sub    rax,QWORD PTR [rbp-0x38]
    56c6:	48 89 c1             	mov    rcx,rax
    56c9:	48 ba cf f7 53 e3 a5 	movabs rdx,0x20c49ba5e353f7cf
    56d0:	9b c4 20 
    56d3:	48 89 c8             	mov    rax,rcx
    56d6:	48 f7 ea             	imul   rdx
    56d9:	48 c1 fa 09          	sar    rdx,0x9
    56dd:	48 89 c8             	mov    rax,rcx
    56e0:	48 c1 f8 3f          	sar    rax,0x3f
    56e4:	48 29 c2             	sub    rdx,rax
    56e7:	48 89 d0             	mov    rax,rdx
    56ea:	48 69 c0 a0 0f 00 00 	imul   rax,rax,0xfa0
    56f1:	48 29 c1             	sub    rcx,rax
    56f4:	48 89 c8             	mov    rax,rcx
    56f7:	48 85 c0             	test   rax,rax
    56fa:	74 69                	je     5765 <fwrite@plt+0x44b5>
    56fc:	48 8b 45 b8          	mov    rax,QWORD PTR [rbp-0x48]
    5700:	48 8b b0 70 02 00 00 	mov    rsi,QWORD PTR [rax+0x270]
    5707:	48 8b 45 b8          	mov    rax,QWORD PTR [rbp-0x48]
    570b:	48 8b 80 a8 01 00 00 	mov    rax,QWORD PTR [rax+0x1a8]
    5712:	48 2b 45 c8          	sub    rax,QWORD PTR [rbp-0x38]
    5716:	48 89 c1             	mov    rcx,rax
    5719:	48 ba cf f7 53 e3 a5 	movabs rdx,0x20c49ba5e353f7cf
    5720:	9b c4 20 
    5723:	48 89 c8             	mov    rax,rcx
    5726:	48 f7 ea             	imul   rdx
    5729:	48 c1 fa 09          	sar    rdx,0x9
    572d:	48 89 c8             	mov    rax,rcx
    5730:	48 c1 f8 3f          	sar    rax,0x3f
    5734:	48 29 c2             	sub    rdx,rax
    5737:	48 89 d0             	mov    rax,rdx
    573a:	48 69 c0 a0 0f 00 00 	imul   rax,rax,0xfa0
    5741:	48 29 c1             	sub    rcx,rax
    5744:	48 89 c8             	mov    rax,rcx
    5747:	ba a0 0f 00 00       	mov    edx,0xfa0
    574c:	48 29 c2             	sub    rdx,rax
    574f:	48 89 d0             	mov    rax,rdx
    5752:	48 29 c6             	sub    rsi,rax
    5755:	48 89 f2             	mov    rdx,rsi
    5758:	48 8b 45 b8          	mov    rax,QWORD PTR [rbp-0x48]
    575c:	48 89 90 78 02 00 00 	mov    QWORD PTR [rax+0x278],rdx
    5763:	eb 56                	jmp    57bb <fwrite@plt+0x450b>
    5765:	48 8b 45 b8          	mov    rax,QWORD PTR [rbp-0x48]
    5769:	48 8b 90 70 02 00 00 	mov    rdx,QWORD PTR [rax+0x270]
    5770:	48 8b 45 b8          	mov    rax,QWORD PTR [rbp-0x48]
    5774:	48 89 90 78 02 00 00 	mov    QWORD PTR [rax+0x278],rdx
    577b:	eb 3e                	jmp    57bb <fwrite@plt+0x450b>
    577d:	48 8b 45 b8          	mov    rax,QWORD PTR [rbp-0x48]
    5781:	48 8b 90 70 02 00 00 	mov    rdx,QWORD PTR [rax+0x270]
    5788:	48 8b 45 b8          	mov    rax,QWORD PTR [rbp-0x48]
    578c:	48 8b 80 78 02 00 00 	mov    rax,QWORD PTR [rax+0x278]
    5793:	48 01 c2             	add    rdx,rax
    5796:	48 8b 45 b8          	mov    rax,QWORD PTR [rbp-0x48]
    579a:	48 89 90 78 02 00 00 	mov    QWORD PTR [rax+0x278],rdx
    57a1:	48 8b 45 b8          	mov    rax,QWORD PTR [rbp-0x48]
    57a5:	48 8b 80 80 02 00 00 	mov    rax,QWORD PTR [rax+0x280]
    57ac:	48 8d 50 ff          	lea    rdx,[rax-0x1]
    57b0:	48 8b 45 b8          	mov    rax,QWORD PTR [rbp-0x48]
    57b4:	48 89 90 80 02 00 00 	mov    QWORD PTR [rax+0x280],rdx
    57bb:	48 8b 45 b8          	mov    rax,QWORD PTR [rbp-0x48]
    57bf:	48 8b 80 78 02 00 00 	mov    rax,QWORD PTR [rax+0x278]
    57c6:	48 85 c0             	test   rax,rax
    57c9:	78 b2                	js     577d <fwrite@plt+0x44cd>
    57cb:	48 8b 45 b8          	mov    rax,QWORD PTR [rbp-0x48]
    57cf:	48 8b 90 a8 01 00 00 	mov    rdx,QWORD PTR [rax+0x1a8]
    57d6:	48 8b 45 b8          	mov    rax,QWORD PTR [rbp-0x48]
    57da:	48 8d 0d bb c3 ff ff 	lea    rcx,[rip+0xffffffffffffc3bb]        # 1b9c <fwrite@plt+0x8ec>
    57e1:	48 89 ce             	mov    rsi,rcx
    57e4:	48 89 c7             	mov    rdi,rax
    57e7:	e8 21 db ff ff       	call   330d <fwrite@plt+0x205d>
    57ec:	48 8b 45 b8          	mov    rax,QWORD PTR [rbp-0x48]
    57f0:	48 8b 80 a8 01 00 00 	mov    rax,QWORD PTR [rax+0x1a8]
    57f7:	48 2b 45 c8          	sub    rax,QWORD PTR [rbp-0x38]
    57fb:	48 89 c2             	mov    rdx,rax
    57fe:	48 8b 45 b8          	mov    rax,QWORD PTR [rbp-0x48]
    5802:	48 89 90 a8 01 00 00 	mov    QWORD PTR [rax+0x1a8],rdx
    5809:	48 8b 45 b8          	mov    rax,QWORD PTR [rbp-0x48]
    580d:	48 8b 88 40 02 00 00 	mov    rcx,QWORD PTR [rax+0x240]
    5814:	48 8b 55 c8          	mov    rdx,QWORD PTR [rbp-0x38]
    5818:	48 89 d0             	mov    rax,rdx
    581b:	48 c1 e0 03          	shl    rax,0x3
    581f:	48 01 d0             	add    rax,rdx
    5822:	48 c1 e0 03          	shl    rax,0x3
    5826:	48 f7 d8             	neg    rax
    5829:	48 8d 14 01          	lea    rdx,[rcx+rax*1]
    582d:	48 8b 45 b8          	mov    rax,QWORD PTR [rbp-0x48]
    5831:	48 89 90 40 02 00 00 	mov    QWORD PTR [rax+0x240],rdx
    5838:	48 8b 45 b8          	mov    rax,QWORD PTR [rbp-0x48]
    583c:	48 8d 15 59 c3 ff ff 	lea    rdx,[rip+0xffffffffffffc359]        # 1b9c <fwrite@plt+0x8ec>
    5843:	48 89 d6             	mov    rsi,rdx
    5846:	48 89 c7             	mov    rdi,rax
    5849:	e8 af be ff ff       	call   16fd <fwrite@plt+0x44d>
    584e:	48 8b 45 c8          	mov    rax,QWORD PTR [rbp-0x38]
    5852:	48 83 c4 58          	add    rsp,0x58
    5856:	5b                   	pop    rbx
    5857:	5d                   	pop    rbp
    5858:	c3                   	ret    
    5859:	f3 0f 1e fa          	endbr64 
    585d:	55                   	push   rbp
    585e:	48 89 e5             	mov    rbp,rsp
    5861:	48 89 7d d8          	mov    QWORD PTR [rbp-0x28],rdi
    5865:	48 8b 45 d8          	mov    rax,QWORD PTR [rbp-0x28]
    5869:	48 8b 80 28 02 00 00 	mov    rax,QWORD PTR [rax+0x228]
    5870:	48 89 45 e8          	mov    QWORD PTR [rbp-0x18],rax
    5874:	48 8b 45 e8          	mov    rax,QWORD PTR [rbp-0x18]
    5878:	48 89 45 f0          	mov    QWORD PTR [rbp-0x10],rax
    587c:	48 83 45 e8 68       	add    QWORD PTR [rbp-0x18],0x68
    5881:	48 8b 45 f0          	mov    rax,QWORD PTR [rbp-0x10]
    5885:	48 c7 40 30 00 00 00 	mov    QWORD PTR [rax+0x30],0x0
    588c:	00 
    588d:	48 8b 45 f0          	mov    rax,QWORD PTR [rbp-0x10]
    5891:	48 c7 40 18 00 00 00 	mov    QWORD PTR [rax+0x18],0x0
    5898:	00 
    5899:	48 8b 45 f0          	mov    rax,QWORD PTR [rbp-0x10]
    589d:	48 8b 55 e8          	mov    rdx,QWORD PTR [rbp-0x18]
    58a1:	48 89 50 10          	mov    QWORD PTR [rax+0x10],rdx
    58a5:	48 8b 45 f0          	mov    rax,QWORD PTR [rbp-0x10]
    58a9:	48 c7 40 20 00 00 00 	mov    QWORD PTR [rax+0x20],0x0
    58b0:	00 
    58b1:	48 8b 45 f0          	mov    rax,QWORD PTR [rbp-0x10]
    58b5:	48 c7 40 28 00 00 00 	mov    QWORD PTR [rax+0x28],0x0
    58bc:	00 
    58bd:	48 8b 45 d8          	mov    rax,QWORD PTR [rbp-0x28]
    58c1:	48 8b 80 90 01 00 00 	mov    rax,QWORD PTR [rax+0x190]
    58c8:	48 8d 50 01          	lea    rdx,[rax+0x1]
    58cc:	48 8b 45 f0          	mov    rax,QWORD PTR [rbp-0x10]
    58d0:	48 89 50 58          	mov    QWORD PTR [rax+0x58],rdx
    58d4:	48 8b 45 f0          	mov    rax,QWORD PTR [rbp-0x10]
    58d8:	c7 40 08 00 00 00 00 	mov    DWORD PTR [rax+0x8],0x0
    58df:	48 8b 45 f0          	mov    rax,QWORD PTR [rbp-0x10]
    58e3:	48 c7 00 00 1f 0a fa 	mov    QWORD PTR [rax],0xfffffffffa0a1f00
    58ea:	48 8b 45 f0          	mov    rax,QWORD PTR [rbp-0x10]
    58ee:	48 c7 40 50 00 00 00 	mov    QWORD PTR [rax+0x50],0x0
    58f5:	00 
    58f6:	48 8b 45 d8          	mov    rax,QWORD PTR [rbp-0x28]
    58fa:	48 8b 80 38 02 00 00 	mov    rax,QWORD PTR [rax+0x238]
    5901:	48 89 45 f8          	mov    QWORD PTR [rbp-0x8],rax
    5905:	c7 45 e4 00 00 00 00 	mov    DWORD PTR [rbp-0x1c],0x0
    590c:	eb 4f                	jmp    595d <fwrite@plt+0x46ad>
    590e:	8b 45 e4             	mov    eax,DWORD PTR [rbp-0x1c]
    5911:	48 63 d0             	movsxd rdx,eax
    5914:	48 89 d0             	mov    rax,rdx
    5917:	48 c1 e0 03          	shl    rax,0x3
    591b:	48 01 d0             	add    rax,rdx
    591e:	48 c1 e0 03          	shl    rax,0x3
    5922:	48 89 c2             	mov    rdx,rax
    5925:	48 8b 45 f8          	mov    rax,QWORD PTR [rbp-0x8]
    5929:	48 01 d0             	add    rax,rdx
    592c:	0f b7 40 20          	movzx  eax,WORD PTR [rax+0x20]
    5930:	66 83 f8 ff          	cmp    ax,0xffff
    5934:	74 24                	je     595a <fwrite@plt+0x46aa>
    5936:	8b 45 e4             	mov    eax,DWORD PTR [rbp-0x1c]
    5939:	48 63 d0             	movsxd rdx,eax
    593c:	48 89 d0             	mov    rax,rdx
    593f:	48 c1 e0 03          	shl    rax,0x3
    5943:	48 01 d0             	add    rax,rdx
    5946:	48 c1 e0 03          	shl    rax,0x3
    594a:	48 89 c2             	mov    rdx,rax
    594d:	48 8b 45 f8          	mov    rax,QWORD PTR [rbp-0x8]
    5951:	48 01 d0             	add    rax,rdx
    5954:	66 c7 40 20 01 00    	mov    WORD PTR [rax+0x20],0x1
    595a:	ff 45 e4             	inc    DWORD PTR [rbp-0x1c]
    595d:	8b 45 e4             	mov    eax,DWORD PTR [rbp-0x1c]
    5960:	48 63 d0             	movsxd rdx,eax
    5963:	48 8b 45 d8          	mov    rax,QWORD PTR [rbp-0x28]
    5967:	48 8b 80 a8 01 00 00 	mov    rax,QWORD PTR [rax+0x1a8]
    596e:	48 39 c2             	cmp    rdx,rax
    5971:	7c 9b                	jl     590e <fwrite@plt+0x465e>
    5973:	48 8b 45 d8          	mov    rax,QWORD PTR [rbp-0x28]
    5977:	48 8b 80 50 02 00 00 	mov    rax,QWORD PTR [rax+0x250]
    597e:	48 89 45 f8          	mov    QWORD PTR [rbp-0x8],rax
    5982:	c7 45 e4 00 00 00 00 	mov    DWORD PTR [rbp-0x1c],0x0
    5989:	e9 d8 01 00 00       	jmp    5b66 <fwrite@plt+0x48b6>
    598e:	8b 45 e4             	mov    eax,DWORD PTR [rbp-0x1c]
    5991:	48 63 d0             	movsxd rdx,eax
    5994:	48 89 d0             	mov    rax,rdx
    5997:	48 c1 e0 03          	shl    rax,0x3
    599b:	48 01 d0             	add    rax,rdx
    599e:	48 c1 e0 03          	shl    rax,0x3
    59a2:	48 89 c1             	mov    rcx,rax
    59a5:	8b 45 e4             	mov    eax,DWORD PTR [rbp-0x1c]
    59a8:	48 98                	cdqe   
    59aa:	48 6b d0 68          	imul   rdx,rax,0x68
    59ae:	48 8b 45 e8          	mov    rax,QWORD PTR [rbp-0x18]
    59b2:	48 01 d0             	add    rax,rdx
    59b5:	48 8b 55 f8          	mov    rdx,QWORD PTR [rbp-0x8]
    59b9:	48 01 ca             	add    rdx,rcx
    59bc:	48 89 50 30          	mov    QWORD PTR [rax+0x30],rdx
    59c0:	8b 45 e4             	mov    eax,DWORD PTR [rbp-0x1c]
    59c3:	48 98                	cdqe   
    59c5:	48 6b d0 68          	imul   rdx,rax,0x68
    59c9:	48 8b 45 e8          	mov    rax,QWORD PTR [rbp-0x18]
    59cd:	48 01 c2             	add    rdx,rax
    59d0:	48 8b 45 f0          	mov    rax,QWORD PTR [rbp-0x10]
    59d4:	48 89 42 18          	mov    QWORD PTR [rdx+0x18],rax
    59d8:	8b 45 e4             	mov    eax,DWORD PTR [rbp-0x1c]
    59db:	48 98                	cdqe   
    59dd:	48 6b d0 68          	imul   rdx,rax,0x68
    59e1:	48 8b 45 e8          	mov    rax,QWORD PTR [rbp-0x18]
    59e5:	48 01 d0             	add    rax,rdx
    59e8:	48 c7 40 10 00 00 00 	mov    QWORD PTR [rax+0x10],0x0
    59ef:	00 
    59f0:	8b 45 e4             	mov    eax,DWORD PTR [rbp-0x1c]
    59f3:	48 98                	cdqe   
    59f5:	48 ff c0             	inc    rax
    59f8:	48 6b c8 68          	imul   rcx,rax,0x68
    59fc:	8b 45 e4             	mov    eax,DWORD PTR [rbp-0x1c]
    59ff:	48 98                	cdqe   
    5a01:	48 6b d0 68          	imul   rdx,rax,0x68
    5a05:	48 8b 45 e8          	mov    rax,QWORD PTR [rbp-0x18]
    5a09:	48 01 d0             	add    rax,rdx
    5a0c:	48 8b 55 e8          	mov    rdx,QWORD PTR [rbp-0x18]
    5a10:	48 01 ca             	add    rdx,rcx
    5a13:	48 89 50 20          	mov    QWORD PTR [rax+0x20],rdx
    5a17:	8b 45 e4             	mov    eax,DWORD PTR [rbp-0x1c]
    5a1a:	48 98                	cdqe   
    5a1c:	48 6b c0 68          	imul   rax,rax,0x68
    5a20:	48 8d 48 98          	lea    rcx,[rax-0x68]
    5a24:	8b 45 e4             	mov    eax,DWORD PTR [rbp-0x1c]
    5a27:	48 98                	cdqe   
    5a29:	48 6b d0 68          	imul   rdx,rax,0x68
    5a2d:	48 8b 45 e8          	mov    rax,QWORD PTR [rbp-0x18]
    5a31:	48 01 d0             	add    rax,rdx
    5a34:	48 8b 55 e8          	mov    rdx,QWORD PTR [rbp-0x18]
    5a38:	48 01 ca             	add    rdx,rcx
    5a3b:	48 89 50 28          	mov    QWORD PTR [rax+0x28],rdx
    5a3f:	8b 45 e4             	mov    eax,DWORD PTR [rbp-0x1c]
    5a42:	48 98                	cdqe   
    5a44:	48 6b d0 68          	imul   rdx,rax,0x68
    5a48:	48 8b 45 e8          	mov    rax,QWORD PTR [rbp-0x18]
    5a4c:	48 01 d0             	add    rax,rdx
    5a4f:	48 c7 40 58 01 00 00 	mov    QWORD PTR [rax+0x58],0x1
    5a56:	00 
    5a57:	8b 45 e4             	mov    eax,DWORD PTR [rbp-0x1c]
    5a5a:	48 63 d0             	movsxd rdx,eax
    5a5d:	48 89 d0             	mov    rax,rdx
    5a60:	48 c1 e0 03          	shl    rax,0x3
    5a64:	48 01 d0             	add    rax,rdx
    5a67:	48 c1 e0 03          	shl    rax,0x3
    5a6b:	48 89 c2             	mov    rdx,rax
    5a6e:	48 8b 45 f8          	mov    rax,QWORD PTR [rbp-0x8]
    5a72:	48 01 d0             	add    rax,rdx
    5a75:	48 c7 40 08 00 e1 f5 	mov    QWORD PTR [rax+0x8],0x5f5e100
    5a7c:	05 
    5a7d:	8b 45 e4             	mov    eax,DWORD PTR [rbp-0x1c]
    5a80:	48 63 d0             	movsxd rdx,eax
    5a83:	48 89 d0             	mov    rax,rdx
    5a86:	48 c1 e0 03          	shl    rax,0x3
    5a8a:	48 01 d0             	add    rax,rdx
    5a8d:	48 c1 e0 03          	shl    rax,0x3
    5a91:	48 89 c2             	mov    rdx,rax
    5a94:	48 8b 45 f8          	mov    rax,QWORD PTR [rbp-0x8]
    5a98:	48 01 d0             	add    rax,rdx
    5a9b:	66 c7 40 20 00 00    	mov    WORD PTR [rax+0x20],0x0
    5aa1:	8b 45 e4             	mov    eax,DWORD PTR [rbp-0x1c]
    5aa4:	48 98                	cdqe   
    5aa6:	48 6b d0 68          	imul   rdx,rax,0x68
    5aaa:	48 8b 45 e8          	mov    rax,QWORD PTR [rbp-0x18]
    5aae:	48 01 d0             	add    rax,rdx
    5ab1:	c7 40 08 01 00 00 00 	mov    DWORD PTR [rax+0x8],0x1
    5ab8:	8b 45 e4             	mov    eax,DWORD PTR [rbp-0x1c]
    5abb:	48 98                	cdqe   
    5abd:	48 6b d0 68          	imul   rdx,rax,0x68
    5ac1:	48 8b 45 e8          	mov    rax,QWORD PTR [rbp-0x18]
    5ac5:	48 01 d0             	add    rax,rdx
    5ac8:	48 c7 00 00 00 00 00 	mov    QWORD PTR [rax],0x0
    5acf:	8b 45 e4             	mov    eax,DWORD PTR [rbp-0x1c]
    5ad2:	48 98                	cdqe   
    5ad4:	48 6b c8 68          	imul   rcx,rax,0x68
    5ad8:	8b 45 e4             	mov    eax,DWORD PTR [rbp-0x1c]
    5adb:	48 63 d0             	movsxd rdx,eax
    5ade:	48 89 d0             	mov    rax,rdx
    5ae1:	48 c1 e0 03          	shl    rax,0x3
    5ae5:	48 01 d0             	add    rax,rdx
    5ae8:	48 c1 e0 03          	shl    rax,0x3
    5aec:	48 89 c2             	mov    rdx,rax
    5aef:	48 8b 45 f8          	mov    rax,QWORD PTR [rbp-0x8]
    5af3:	48 01 d0             	add    rax,rdx
    5af6:	48 8b 55 e8          	mov    rdx,QWORD PTR [rbp-0x18]
    5afa:	48 01 ca             	add    rdx,rcx
    5afd:	48 89 50 10          	mov    QWORD PTR [rax+0x10],rdx
    5b01:	8b 45 e4             	mov    eax,DWORD PTR [rbp-0x1c]
    5b04:	48 63 d0             	movsxd rdx,eax
    5b07:	48 89 d0             	mov    rax,rdx
    5b0a:	48 c1 e0 03          	shl    rax,0x3
    5b0e:	48 01 d0             	add    rax,rdx
    5b11:	48 c1 e0 03          	shl    rax,0x3
    5b15:	48 89 c2             	mov    rdx,rax
    5b18:	48 8b 45 f8          	mov    rax,QWORD PTR [rbp-0x8]
    5b1c:	48 01 c2             	add    rdx,rax
    5b1f:	48 8b 45 f0          	mov    rax,QWORD PTR [rbp-0x10]
    5b23:	48 89 42 18          	mov    QWORD PTR [rdx+0x18],rax
    5b27:	8b 45 e4             	mov    eax,DWORD PTR [rbp-0x1c]
    5b2a:	48 63 d0             	movsxd rdx,eax
    5b2d:	48 89 d0             	mov    rax,rdx
    5b30:	48 c1 e0 03          	shl    rax,0x3
    5b34:	48 01 d0             	add    rax,rdx
    5b37:	48 c1 e0 03          	shl    rax,0x3
    5b3b:	48 89 c2             	mov    rdx,rax
    5b3e:	48 8b 45 f8          	mov    rax,QWORD PTR [rbp-0x8]
    5b42:	48 01 d0             	add    rax,rdx
    5b45:	c7 00 fe ff ff ff    	mov    DWORD PTR [rax],0xfffffffe
    5b4b:	8b 45 e4             	mov    eax,DWORD PTR [rbp-0x1c]
    5b4e:	48 98                	cdqe   
    5b50:	48 6b d0 68          	imul   rdx,rax,0x68
    5b54:	48 8b 45 e8          	mov    rax,QWORD PTR [rbp-0x18]
    5b58:	48 01 d0             	add    rax,rdx
    5b5b:	48 c7 40 50 00 00 00 	mov    QWORD PTR [rax+0x50],0x0
    5b62:	00 
    5b63:	ff 45 e4             	inc    DWORD PTR [rbp-0x1c]
    5b66:	8b 45 e4             	mov    eax,DWORD PTR [rbp-0x1c]
    5b69:	48 63 d0             	movsxd rdx,eax
    5b6c:	48 8b 45 d8          	mov    rax,QWORD PTR [rbp-0x28]
    5b70:	48 8b 80 90 01 00 00 	mov    rax,QWORD PTR [rax+0x190]
    5b77:	48 39 c2             	cmp    rdx,rax
    5b7a:	0f 8c 0e fe ff ff    	jl     598e <fwrite@plt+0x46de>
    5b80:	48 83 6d e8 68       	sub    QWORD PTR [rbp-0x18],0x68
    5b85:	48 83 45 f0 68       	add    QWORD PTR [rbp-0x10],0x68
    5b8a:	48 8b 45 d8          	mov    rax,QWORD PTR [rbp-0x28]
    5b8e:	48 8b 80 90 01 00 00 	mov    rax,QWORD PTR [rax+0x190]
    5b95:	48 6b d0 68          	imul   rdx,rax,0x68
    5b99:	48 8b 45 e8          	mov    rax,QWORD PTR [rbp-0x18]
    5b9d:	48 01 d0             	add    rax,rdx
    5ba0:	48 c7 40 20 00 00 00 	mov    QWORD PTR [rax+0x20],0x0
    5ba7:	00 
    5ba8:	48 8b 45 f0          	mov    rax,QWORD PTR [rbp-0x10]
    5bac:	48 c7 40 28 00 00 00 	mov    QWORD PTR [rax+0x28],0x0
    5bb3:	00 
    5bb4:	b8 00 00 00 00       	mov    eax,0x0
    5bb9:	5d                   	pop    rbp
    5bba:	c3                   	ret    
    5bbb:	f3 0f 1e fa          	endbr64 
    5bbf:	55                   	push   rbp
    5bc0:	48 89 e5             	mov    rbp,rsp
    5bc3:	48 83 ec 40          	sub    rsp,0x40
    5bc7:	48 89 7d c8          	mov    QWORD PTR [rbp-0x38],rdi
    5bcb:	48 89 75 c0          	mov    QWORD PTR [rbp-0x40],rsi
    5bcf:	48 c7 45 f0 00 00 00 	mov    QWORD PTR [rbp-0x10],0x0
    5bd6:	00 
    5bd7:	48 8b 45 c0          	mov    rax,QWORD PTR [rbp-0x40]
    5bdb:	48 8b 88 40 02 00 00 	mov    rcx,QWORD PTR [rax+0x240]
    5be2:	48 8b 45 c0          	mov    rax,QWORD PTR [rbp-0x40]
    5be6:	48 8b 80 b8 01 00 00 	mov    rax,QWORD PTR [rax+0x1b8]
    5bed:	48 89 c2             	mov    rdx,rax
    5bf0:	48 89 d0             	mov    rax,rdx
    5bf3:	48 c1 e0 03          	shl    rax,0x3
    5bf7:	48 01 d0             	add    rax,rdx
    5bfa:	48 c1 e0 03          	shl    rax,0x3
    5bfe:	48 f7 d8             	neg    rax
    5c01:	48 01 c8             	add    rax,rcx
    5c04:	48 89 45 f8          	mov    QWORD PTR [rbp-0x8],rax
    5c08:	48 8b 45 c8          	mov    rax,QWORD PTR [rbp-0x38]
    5c0c:	48 8d 35 44 37 00 00 	lea    rsi,[rip+0x3744]        # 9357 <fwrite@plt+0x80a7>
    5c13:	48 89 c7             	mov    rdi,rax
    5c16:	e8 55 b6 ff ff       	call   1270 <fopen@plt>
    5c1b:	48 89 45 f0          	mov    QWORD PTR [rbp-0x10],rax
    5c1f:	48 83 7d f0 00       	cmp    QWORD PTR [rbp-0x10],0x0
    5c24:	75 0c                	jne    5c32 <fwrite@plt+0x4982>
    5c26:	48 c7 c0 ff ff ff ff 	mov    rax,0xffffffffffffffff
    5c2d:	e9 80 01 00 00       	jmp    5db2 <fwrite@plt+0x4b02>
    5c32:	48 8b 45 c0          	mov    rax,QWORD PTR [rbp-0x40]
    5c36:	48 8d 15 91 be ff ff 	lea    rdx,[rip+0xffffffffffffbe91]        # 1ace <fwrite@plt+0x81e>
    5c3d:	48 89 d6             	mov    rsi,rdx
    5c40:	48 89 c7             	mov    rdi,rax
    5c43:	e8 b5 ba ff ff       	call   16fd <fwrite@plt+0x44d>
    5c48:	48 8b 45 c0          	mov    rax,QWORD PTR [rbp-0x40]
    5c4c:	48 8b 90 28 02 00 00 	mov    rdx,QWORD PTR [rax+0x228]
    5c53:	48 8b 45 c0          	mov    rax,QWORD PTR [rbp-0x40]
    5c57:	48 8b 80 90 01 00 00 	mov    rax,QWORD PTR [rax+0x190]
    5c5e:	48 6b c0 68          	imul   rax,rax,0x68
    5c62:	48 01 d0             	add    rax,rdx
    5c65:	48 8b 40 38          	mov    rax,QWORD PTR [rax+0x38]
    5c69:	48 89 45 d8          	mov    QWORD PTR [rbp-0x28],rax
    5c6d:	e9 24 01 00 00       	jmp    5d96 <fwrite@plt+0x4ae6>
    5c72:	48 8b 45 d8          	mov    rax,QWORD PTR [rbp-0x28]
    5c76:	48 8b 40 38          	mov    rax,QWORD PTR [rax+0x38]
    5c7a:	48 85 c0             	test   rax,rax
    5c7d:	0f 84 07 01 00 00    	je     5d8a <fwrite@plt+0x4ada>
    5c83:	48 8b 45 f0          	mov    rax,QWORD PTR [rbp-0x10]
    5c87:	48 89 c1             	mov    rcx,rax
    5c8a:	ba 03 00 00 00       	mov    edx,0x3
    5c8f:	be 01 00 00 00       	mov    esi,0x1
    5c94:	48 8d 3d be 36 00 00 	lea    rdi,[rip+0x36be]        # 9359 <fwrite@plt+0x80a9>
    5c9b:	e8 10 b6 ff ff       	call   12b0 <fwrite@plt>
    5ca0:	48 8b 45 d8          	mov    rax,QWORD PTR [rbp-0x28]
    5ca4:	48 89 45 e0          	mov    QWORD PTR [rbp-0x20],rax
    5ca8:	e9 d2 00 00 00       	jmp    5d7f <fwrite@plt+0x4acf>
    5cad:	48 8b 45 e0          	mov    rax,QWORD PTR [rbp-0x20]
    5cb1:	48 3b 45 f8          	cmp    rax,QWORD PTR [rbp-0x8]
    5cb5:	72 1d                	jb     5cd4 <fwrite@plt+0x4a24>
    5cb7:	48 8b 45 f0          	mov    rax,QWORD PTR [rbp-0x10]
    5cbb:	48 89 c1             	mov    rcx,rax
    5cbe:	ba 04 00 00 00       	mov    edx,0x4
    5cc3:	be 01 00 00 00       	mov    esi,0x1
    5cc8:	48 8d 3d 8e 36 00 00 	lea    rdi,[rip+0x368e]        # 935d <fwrite@plt+0x80ad>
    5ccf:	e8 dc b5 ff ff       	call   12b0 <fwrite@plt>
    5cd4:	48 8b 45 e0          	mov    rax,QWORD PTR [rbp-0x20]
    5cd8:	48 8b 40 18          	mov    rax,QWORD PTR [rax+0x18]
    5cdc:	8b 40 60             	mov    eax,DWORD PTR [rax+0x60]
    5cdf:	f7 d8                	neg    eax
    5ce1:	89 c2                	mov    edx,eax
    5ce3:	48 8b 45 f0          	mov    rax,QWORD PTR [rbp-0x10]
    5ce7:	48 8d 35 74 36 00 00 	lea    rsi,[rip+0x3674]        # 9362 <fwrite@plt+0x80b2>
    5cee:	48 89 c7             	mov    rdi,rax
    5cf1:	b8 00 00 00 00       	mov    eax,0x0
    5cf6:	e8 25 b5 ff ff       	call   1220 <fprintf@plt>
    5cfb:	48 8b 45 e0          	mov    rax,QWORD PTR [rbp-0x20]
    5cff:	48 8b 50 18          	mov    rdx,QWORD PTR [rax+0x18]
    5d03:	48 8b 45 c0          	mov    rax,QWORD PTR [rbp-0x40]
    5d07:	48 8b 80 98 01 00 00 	mov    rax,QWORD PTR [rax+0x198]
    5d0e:	48 6b c0 68          	imul   rax,rax,0x68
    5d12:	48 01 d0             	add    rax,rdx
    5d15:	48 8b 40 38          	mov    rax,QWORD PTR [rax+0x38]
    5d19:	48 89 45 e8          	mov    QWORD PTR [rbp-0x18],rax
    5d1d:	eb 19                	jmp    5d38 <fwrite@plt+0x4a88>
    5d1f:	48 8b 45 e8          	mov    rax,QWORD PTR [rbp-0x18]
    5d23:	48 8b 40 38          	mov    rax,QWORD PTR [rax+0x38]
    5d27:	48 85 c0             	test   rax,rax
    5d2a:	75 15                	jne    5d41 <fwrite@plt+0x4a91>
    5d2c:	48 8b 45 e8          	mov    rax,QWORD PTR [rbp-0x18]
    5d30:	48 8b 40 28          	mov    rax,QWORD PTR [rax+0x28]
    5d34:	48 89 45 e8          	mov    QWORD PTR [rbp-0x18],rax
    5d38:	48 83 7d e8 00       	cmp    QWORD PTR [rbp-0x18],0x0
    5d3d:	75 e0                	jne    5d1f <fwrite@plt+0x4a6f>
    5d3f:	eb 01                	jmp    5d42 <fwrite@plt+0x4a92>
    5d41:	90                   	nop
    5d42:	48 83 7d e8 00       	cmp    QWORD PTR [rbp-0x18],0x0
    5d47:	75 15                	jne    5d5e <fwrite@plt+0x4aae>
    5d49:	48 8b 45 f0          	mov    rax,QWORD PTR [rbp-0x10]
    5d4d:	48 89 c7             	mov    rdi,rax
    5d50:	e8 6b b4 ff ff       	call   11c0 <fclose@plt>
    5d55:	48 c7 c0 ff ff ff ff 	mov    rax,0xffffffffffffffff
    5d5c:	eb 54                	jmp    5db2 <fwrite@plt+0x4b02>
    5d5e:	48 8b 45 e8          	mov    rax,QWORD PTR [rbp-0x18]
    5d62:	48 8b 40 18          	mov    rax,QWORD PTR [rax+0x18]
    5d66:	8b 40 60             	mov    eax,DWORD PTR [rax+0x60]
    5d69:	85 c0                	test   eax,eax
    5d6b:	74 0a                	je     5d77 <fwrite@plt+0x4ac7>
    5d6d:	48 8b 45 e8          	mov    rax,QWORD PTR [rbp-0x18]
    5d71:	48 89 45 e0          	mov    QWORD PTR [rbp-0x20],rax
    5d75:	eb 08                	jmp    5d7f <fwrite@plt+0x4acf>
    5d77:	48 c7 45 e0 00 00 00 	mov    QWORD PTR [rbp-0x20],0x0
    5d7e:	00 
    5d7f:	48 83 7d e0 00       	cmp    QWORD PTR [rbp-0x20],0x0
    5d84:	0f 85 23 ff ff ff    	jne    5cad <fwrite@plt+0x49fd>
    5d8a:	48 8b 45 d8          	mov    rax,QWORD PTR [rbp-0x28]
    5d8e:	48 8b 40 28          	mov    rax,QWORD PTR [rax+0x28]
    5d92:	48 89 45 d8          	mov    QWORD PTR [rbp-0x28],rax
    5d96:	48 83 7d d8 00       	cmp    QWORD PTR [rbp-0x28],0x0
    5d9b:	0f 85 d1 fe ff ff    	jne    5c72 <fwrite@plt+0x49c2>
    5da1:	48 8b 45 f0          	mov    rax,QWORD PTR [rbp-0x10]
    5da5:	48 89 c7             	mov    rdi,rax
    5da8:	e8 13 b4 ff ff       	call   11c0 <fclose@plt>
    5dad:	b8 00 00 00 00       	mov    eax,0x0
    5db2:	c9                   	leave  
    5db3:	c3                   	ret    
    5db4:	f3 0f 1e fa          	endbr64 
    5db8:	55                   	push   rbp
    5db9:	48 89 e5             	mov    rbp,rsp
    5dbc:	48 83 ec 20          	sub    rsp,0x20
    5dc0:	48 89 7d e8          	mov    QWORD PTR [rbp-0x18],rdi
    5dc4:	48 89 75 e0          	mov    QWORD PTR [rbp-0x20],rsi
    5dc8:	48 c7 45 f8 00 00 00 	mov    QWORD PTR [rbp-0x8],0x0
    5dcf:	00 
    5dd0:	48 8b 45 e8          	mov    rax,QWORD PTR [rbp-0x18]
    5dd4:	48 8d 35 7c 35 00 00 	lea    rsi,[rip+0x357c]        # 9357 <fwrite@plt+0x80a7>
    5ddb:	48 89 c7             	mov    rdi,rax
    5dde:	e8 8d b4 ff ff       	call   1270 <fopen@plt>
    5de3:	48 89 45 f8          	mov    QWORD PTR [rbp-0x8],rax
    5de7:	48 83 7d f8 00       	cmp    QWORD PTR [rbp-0x8],0x0
    5dec:	75 09                	jne    5df7 <fwrite@plt+0x4b47>
    5dee:	48 c7 c0 ff ff ff ff 	mov    rax,0xffffffffffffffff
    5df5:	eb 35                	jmp    5e2c <fwrite@plt+0x4b7c>
    5df7:	48 8b 45 e0          	mov    rax,QWORD PTR [rbp-0x20]
    5dfb:	48 89 c7             	mov    rdi,rax
    5dfe:	e8 17 ba ff ff       	call   181a <fwrite@plt+0x56a>
    5e03:	48 8b 45 f8          	mov    rax,QWORD PTR [rbp-0x8]
    5e07:	48 8d 35 58 35 00 00 	lea    rsi,[rip+0x3558]        # 9366 <fwrite@plt+0x80b6>
    5e0e:	48 89 c7             	mov    rdi,rax
    5e11:	b8 01 00 00 00       	mov    eax,0x1
    5e16:	e8 05 b4 ff ff       	call   1220 <fprintf@plt>
    5e1b:	48 8b 45 f8          	mov    rax,QWORD PTR [rbp-0x8]
    5e1f:	48 89 c7             	mov    rdi,rax
    5e22:	e8 99 b3 ff ff       	call   11c0 <fclose@plt>
    5e27:	b8 00 00 00 00       	mov    eax,0x0
    5e2c:	c9                   	leave  
    5e2d:	c3                   	ret    
    5e2e:	f3 0f 1e fa          	endbr64 
    5e32:	55                   	push   rbp
    5e33:	48 89 e5             	mov    rbp,rsp
    5e36:	48 83 ec 08          	sub    rsp,0x8
    5e3a:	48 89 7d a8          	mov    QWORD PTR [rbp-0x58],rdi
    5e3e:	48 89 75 a0          	mov    QWORD PTR [rbp-0x60],rsi
    5e42:	48 89 55 98          	mov    QWORD PTR [rbp-0x68],rdx
    5e46:	48 89 4d 90          	mov    QWORD PTR [rbp-0x70],rcx
    5e4a:	4c 89 45 88          	mov    QWORD PTR [rbp-0x78],r8
    5e4e:	4c 89 4d 80          	mov    QWORD PTR [rbp-0x80],r9
    5e52:	48 8b 45 28          	mov    rax,QWORD PTR [rbp+0x28]
    5e56:	48 8b 40 10          	mov    rax,QWORD PTR [rax+0x10]
    5e5a:	48 39 45 80          	cmp    QWORD PTR [rbp-0x80],rax
    5e5e:	75 07                	jne    5e67 <fwrite@plt+0x4bb7>
    5e60:	48 83 7d 30 00       	cmp    QWORD PTR [rbp+0x30],0x0
    5e65:	78 15                	js     5e7c <fwrite@plt+0x4bcc>
    5e67:	48 8b 45 28          	mov    rax,QWORD PTR [rbp+0x28]
    5e6b:	48 8b 40 10          	mov    rax,QWORD PTR [rax+0x10]
    5e6f:	48 39 45 88          	cmp    QWORD PTR [rbp-0x78],rax
    5e73:	75 19                	jne    5e8e <fwrite@plt+0x4bde>
    5e75:	48 83 7d 30 00       	cmp    QWORD PTR [rbp+0x30],0x0
    5e7a:	7e 12                	jle    5e8e <fwrite@plt+0x4bde>
    5e7c:	48 8b 45 30          	mov    rax,QWORD PTR [rbp+0x30]
    5e80:	48 c1 f8 3f          	sar    rax,0x3f
    5e84:	48 31 45 30          	xor    QWORD PTR [rbp+0x30],rax
    5e88:	48 29 45 30          	sub    QWORD PTR [rbp+0x30],rax
    5e8c:	eb 17                	jmp    5ea5 <fwrite@plt+0x4bf5>
    5e8e:	48 8b 45 30          	mov    rax,QWORD PTR [rbp+0x30]
    5e92:	48 99                	cqo    
    5e94:	48 89 d0             	mov    rax,rdx
    5e97:	48 33 45 30          	xor    rax,QWORD PTR [rbp+0x30]
    5e9b:	48 29 d0             	sub    rax,rdx
    5e9e:	48 f7 d8             	neg    rax
    5ea1:	48 89 45 30          	mov    QWORD PTR [rbp+0x30],rax
    5ea5:	48 8b 45 10          	mov    rax,QWORD PTR [rbp+0x10]
    5ea9:	48 89 45 b8          	mov    QWORD PTR [rbp-0x48],rax
    5ead:	48 8b 45 b8          	mov    rax,QWORD PTR [rbp-0x48]
    5eb1:	48 8b 10             	mov    rdx,QWORD PTR [rax]
    5eb4:	48 8b 45 30          	mov    rax,QWORD PTR [rbp+0x30]
    5eb8:	48 01 c2             	add    rdx,rax
    5ebb:	48 8b 45 b8          	mov    rax,QWORD PTR [rbp-0x48]
    5ebf:	48 89 10             	mov    QWORD PTR [rax],rdx
    5ec2:	48 8b 45 b8          	mov    rax,QWORD PTR [rbp-0x48]
    5ec6:	48 8b 40 10          	mov    rax,QWORD PTR [rax+0x10]
    5eca:	48 89 45 c0          	mov    QWORD PTR [rbp-0x40],rax
    5ece:	48 83 7d c0 00       	cmp    QWORD PTR [rbp-0x40],0x0
    5ed3:	74 23                	je     5ef8 <fwrite@plt+0x4c48>
    5ed5:	90                   	nop
    5ed6:	eb 01                	jmp    5ed9 <fwrite@plt+0x4c29>
    5ed8:	90                   	nop
    5ed9:	48 8b 45 c0          	mov    rax,QWORD PTR [rbp-0x40]
    5edd:	48 8b 10             	mov    rdx,QWORD PTR [rax]
    5ee0:	48 8b 45 30          	mov    rax,QWORD PTR [rbp+0x30]
    5ee4:	48 01 c2             	add    rdx,rax
    5ee7:	48 8b 45 c0          	mov    rax,QWORD PTR [rbp-0x40]
    5eeb:	48 89 10             	mov    QWORD PTR [rax],rdx
    5eee:	48 8b 45 c0          	mov    rax,QWORD PTR [rbp-0x40]
    5ef2:	48 89 45 b8          	mov    QWORD PTR [rbp-0x48],rax
    5ef6:	eb ca                	jmp    5ec2 <fwrite@plt+0x4c12>
    5ef8:	90                   	nop
    5ef9:	48 8b 45 b8          	mov    rax,QWORD PTR [rbp-0x48]
    5efd:	48 3b 45 10          	cmp    rax,QWORD PTR [rbp+0x10]
    5f01:	74 21                	je     5f24 <fwrite@plt+0x4c74>
    5f03:	48 8b 45 b8          	mov    rax,QWORD PTR [rbp-0x48]
    5f07:	48 8b 40 20          	mov    rax,QWORD PTR [rax+0x20]
    5f0b:	48 89 45 c0          	mov    QWORD PTR [rbp-0x40],rax
    5f0f:	48 83 7d c0 00       	cmp    QWORD PTR [rbp-0x40],0x0
    5f14:	75 c2                	jne    5ed8 <fwrite@plt+0x4c28>
    5f16:	48 8b 45 b8          	mov    rax,QWORD PTR [rbp-0x48]
    5f1a:	48 8b 40 18          	mov    rax,QWORD PTR [rax+0x18]
    5f1e:	48 89 45 b8          	mov    QWORD PTR [rbp-0x48],rax
    5f22:	eb d5                	jmp    5ef9 <fwrite@plt+0x4c49>
    5f24:	90                   	nop
    5f25:	f3 0f 1e fa          	endbr64 
    5f29:	48 8b 45 88          	mov    rax,QWORD PTR [rbp-0x78]
    5f2d:	48 89 45 c0          	mov    QWORD PTR [rbp-0x40],rax
    5f31:	48 8b 45 c0          	mov    rax,QWORD PTR [rbp-0x40]
    5f35:	48 8b 40 18          	mov    rax,QWORD PTR [rax+0x18]
    5f39:	48 89 45 b8          	mov    QWORD PTR [rbp-0x48],rax
    5f3d:	48 8b 45 10          	mov    rax,QWORD PTR [rbp+0x10]
    5f41:	48 8b 40 58          	mov    rax,QWORD PTR [rax+0x58]
    5f45:	48 89 45 e0          	mov    QWORD PTR [rbp-0x20],rax
    5f49:	48 8b 45 e0          	mov    rax,QWORD PTR [rbp-0x20]
    5f4d:	48 89 45 d0          	mov    QWORD PTR [rbp-0x30],rax
    5f51:	48 8b 45 80          	mov    rax,QWORD PTR [rbp-0x80]
    5f55:	48 89 45 c8          	mov    QWORD PTR [rbp-0x38],rax
    5f59:	48 8b 45 28          	mov    rax,QWORD PTR [rbp+0x28]
    5f5d:	48 89 45 b0          	mov    QWORD PTR [rbp-0x50],rax
    5f61:	e9 70 01 00 00       	jmp    60d6 <fwrite@plt+0x4e26>
    5f66:	48 8b 45 c0          	mov    rax,QWORD PTR [rbp-0x40]
    5f6a:	48 8b 40 20          	mov    rax,QWORD PTR [rax+0x20]
    5f6e:	48 85 c0             	test   rax,rax
    5f71:	74 14                	je     5f87 <fwrite@plt+0x4cd7>
    5f73:	48 8b 45 c0          	mov    rax,QWORD PTR [rbp-0x40]
    5f77:	48 8b 40 20          	mov    rax,QWORD PTR [rax+0x20]
    5f7b:	48 8b 55 c0          	mov    rdx,QWORD PTR [rbp-0x40]
    5f7f:	48 8b 52 28          	mov    rdx,QWORD PTR [rdx+0x28]
    5f83:	48 89 50 28          	mov    QWORD PTR [rax+0x28],rdx
    5f87:	48 8b 45 c0          	mov    rax,QWORD PTR [rbp-0x40]
    5f8b:	48 8b 40 28          	mov    rax,QWORD PTR [rax+0x28]
    5f8f:	48 85 c0             	test   rax,rax
    5f92:	74 16                	je     5faa <fwrite@plt+0x4cfa>
    5f94:	48 8b 45 c0          	mov    rax,QWORD PTR [rbp-0x40]
    5f98:	48 8b 40 28          	mov    rax,QWORD PTR [rax+0x28]
    5f9c:	48 8b 55 c0          	mov    rdx,QWORD PTR [rbp-0x40]
    5fa0:	48 8b 52 20          	mov    rdx,QWORD PTR [rdx+0x20]
    5fa4:	48 89 50 20          	mov    QWORD PTR [rax+0x20],rdx
    5fa8:	eb 10                	jmp    5fba <fwrite@plt+0x4d0a>
    5faa:	48 8b 45 c0          	mov    rax,QWORD PTR [rbp-0x40]
    5fae:	48 8b 50 20          	mov    rdx,QWORD PTR [rax+0x20]
    5fb2:	48 8b 45 b8          	mov    rax,QWORD PTR [rbp-0x48]
    5fb6:	48 89 50 10          	mov    QWORD PTR [rax+0x10],rdx
    5fba:	48 8b 45 c0          	mov    rax,QWORD PTR [rbp-0x40]
    5fbe:	48 8b 55 c8          	mov    rdx,QWORD PTR [rbp-0x38]
    5fc2:	48 89 50 18          	mov    QWORD PTR [rax+0x18],rdx
    5fc6:	48 8b 45 c8          	mov    rax,QWORD PTR [rbp-0x38]
    5fca:	48 8b 50 10          	mov    rdx,QWORD PTR [rax+0x10]
    5fce:	48 8b 45 c0          	mov    rax,QWORD PTR [rbp-0x40]
    5fd2:	48 89 50 20          	mov    QWORD PTR [rax+0x20],rdx
    5fd6:	48 8b 45 c0          	mov    rax,QWORD PTR [rbp-0x40]
    5fda:	48 8b 40 20          	mov    rax,QWORD PTR [rax+0x20]
    5fde:	48 85 c0             	test   rax,rax
    5fe1:	74 10                	je     5ff3 <fwrite@plt+0x4d43>
    5fe3:	48 8b 45 c0          	mov    rax,QWORD PTR [rbp-0x40]
    5fe7:	48 8b 40 20          	mov    rax,QWORD PTR [rax+0x20]
    5feb:	48 8b 55 c0          	mov    rdx,QWORD PTR [rbp-0x40]
    5fef:	48 89 50 28          	mov    QWORD PTR [rax+0x28],rdx
    5ff3:	48 8b 45 c8          	mov    rax,QWORD PTR [rbp-0x38]
    5ff7:	48 8b 55 c0          	mov    rdx,QWORD PTR [rbp-0x40]
    5ffb:	48 89 50 10          	mov    QWORD PTR [rax+0x10],rdx
    5fff:	48 8b 45 c0          	mov    rax,QWORD PTR [rbp-0x40]
    6003:	48 c7 40 28 00 00 00 	mov    QWORD PTR [rax+0x28],0x0
    600a:	00 
    600b:	48 8b 45 c0          	mov    rax,QWORD PTR [rbp-0x40]
    600f:	8b 40 08             	mov    eax,DWORD PTR [rax+0x8]
    6012:	85 c0                	test   eax,eax
    6014:	0f 94 c0             	sete   al
    6017:	0f b6 c0             	movzx  eax,al
    601a:	48 89 45 e8          	mov    QWORD PTR [rbp-0x18],rax
    601e:	48 8b 45 e8          	mov    rax,QWORD PTR [rbp-0x18]
    6022:	48 3b 45 a8          	cmp    rax,QWORD PTR [rbp-0x58]
    6026:	75 15                	jne    603d <fwrite@plt+0x4d8d>
    6028:	48 8b 45 c0          	mov    rax,QWORD PTR [rbp-0x40]
    602c:	48 8b 50 50          	mov    rdx,QWORD PTR [rax+0x50]
    6030:	48 8b 45 98          	mov    rax,QWORD PTR [rbp-0x68]
    6034:	48 01 d0             	add    rax,rdx
    6037:	48 89 45 d8          	mov    QWORD PTR [rbp-0x28],rax
    603b:	eb 10                	jmp    604d <fwrite@plt+0x4d9d>
    603d:	48 8b 45 c0          	mov    rax,QWORD PTR [rbp-0x40]
    6041:	48 8b 40 50          	mov    rax,QWORD PTR [rax+0x50]
    6045:	48 2b 45 98          	sub    rax,QWORD PTR [rbp-0x68]
    6049:	48 89 45 d8          	mov    QWORD PTR [rbp-0x28],rax
    604d:	48 8b 45 c0          	mov    rax,QWORD PTR [rbp-0x40]
    6051:	48 8b 40 30          	mov    rax,QWORD PTR [rax+0x30]
    6055:	48 89 45 f0          	mov    QWORD PTR [rbp-0x10],rax
    6059:	48 8b 45 c0          	mov    rax,QWORD PTR [rbp-0x40]
    605d:	48 8b 40 58          	mov    rax,QWORD PTR [rax+0x58]
    6061:	48 89 45 f8          	mov    QWORD PTR [rbp-0x8],rax
    6065:	48 8b 45 a0          	mov    rax,QWORD PTR [rbp-0x60]
    6069:	89 c2                	mov    edx,eax
    606b:	48 8b 45 c0          	mov    rax,QWORD PTR [rbp-0x40]
    606f:	89 50 08             	mov    DWORD PTR [rax+0x8],edx
    6072:	48 8b 45 c0          	mov    rax,QWORD PTR [rbp-0x40]
    6076:	48 8b 55 90          	mov    rdx,QWORD PTR [rbp-0x70]
    607a:	48 89 50 50          	mov    QWORD PTR [rax+0x50],rdx
    607e:	48 8b 45 c0          	mov    rax,QWORD PTR [rbp-0x40]
    6082:	48 8b 55 b0          	mov    rdx,QWORD PTR [rbp-0x50]
    6086:	48 89 50 30          	mov    QWORD PTR [rax+0x30],rdx
    608a:	48 8b 45 c0          	mov    rax,QWORD PTR [rbp-0x40]
    608e:	48 8b 55 d0          	mov    rdx,QWORD PTR [rbp-0x30]
    6092:	48 89 50 58          	mov    QWORD PTR [rax+0x58],rdx
    6096:	48 8b 45 c0          	mov    rax,QWORD PTR [rbp-0x40]
    609a:	48 89 45 c8          	mov    QWORD PTR [rbp-0x38],rax
    609e:	48 8b 45 e8          	mov    rax,QWORD PTR [rbp-0x18]
    60a2:	48 89 45 a0          	mov    QWORD PTR [rbp-0x60],rax
    60a6:	48 8b 45 d8          	mov    rax,QWORD PTR [rbp-0x28]
    60aa:	48 89 45 90          	mov    QWORD PTR [rbp-0x70],rax
    60ae:	48 8b 45 f0          	mov    rax,QWORD PTR [rbp-0x10]
    60b2:	48 89 45 b0          	mov    QWORD PTR [rbp-0x50],rax
    60b6:	48 8b 45 e0          	mov    rax,QWORD PTR [rbp-0x20]
    60ba:	48 2b 45 f8          	sub    rax,QWORD PTR [rbp-0x8]
    60be:	48 89 45 d0          	mov    QWORD PTR [rbp-0x30],rax
    60c2:	48 8b 45 b8          	mov    rax,QWORD PTR [rbp-0x48]
    60c6:	48 89 45 c0          	mov    QWORD PTR [rbp-0x40],rax
    60ca:	48 8b 45 c0          	mov    rax,QWORD PTR [rbp-0x40]
    60ce:	48 8b 40 18          	mov    rax,QWORD PTR [rax+0x18]
    60d2:	48 89 45 b8          	mov    QWORD PTR [rbp-0x48],rax
    60d6:	48 8b 45 c0          	mov    rax,QWORD PTR [rbp-0x40]
    60da:	48 3b 45 18          	cmp    rax,QWORD PTR [rbp+0x18]
    60de:	0f 85 82 fe ff ff    	jne    5f66 <fwrite@plt+0x4cb6>
    60e4:	48 8b 45 98          	mov    rax,QWORD PTR [rbp-0x68]
    60e8:	48 3b 45 38          	cmp    rax,QWORD PTR [rbp+0x38]
    60ec:	0f 8e ee 00 00 00    	jle    61e0 <fwrite@plt+0x4f30>
    60f2:	48 8b 45 18          	mov    rax,QWORD PTR [rbp+0x18]
    60f6:	48 89 45 c0          	mov    QWORD PTR [rbp-0x40],rax
    60fa:	eb 62                	jmp    615e <fwrite@plt+0x4eae>
    60fc:	48 8b 45 c0          	mov    rax,QWORD PTR [rbp-0x40]
    6100:	48 8b 40 58          	mov    rax,QWORD PTR [rax+0x58]
    6104:	48 2b 45 e0          	sub    rax,QWORD PTR [rbp-0x20]
    6108:	48 89 c2             	mov    rdx,rax
    610b:	48 8b 45 c0          	mov    rax,QWORD PTR [rbp-0x40]
    610f:	48 89 50 58          	mov    QWORD PTR [rax+0x58],rdx
    6113:	48 8b 45 c0          	mov    rax,QWORD PTR [rbp-0x40]
    6117:	8b 40 08             	mov    eax,DWORD PTR [rax+0x8]
    611a:	48 98                	cdqe   
    611c:	48 39 45 a8          	cmp    QWORD PTR [rbp-0x58],rax
    6120:	74 19                	je     613b <fwrite@plt+0x4e8b>
    6122:	48 8b 45 c0          	mov    rax,QWORD PTR [rbp-0x40]
    6126:	48 8b 50 50          	mov    rdx,QWORD PTR [rax+0x50]
    612a:	48 8b 45 98          	mov    rax,QWORD PTR [rbp-0x68]
    612e:	48 01 c2             	add    rdx,rax
    6131:	48 8b 45 c0          	mov    rax,QWORD PTR [rbp-0x40]
    6135:	48 89 50 50          	mov    QWORD PTR [rax+0x50],rdx
    6139:	eb 17                	jmp    6152 <fwrite@plt+0x4ea2>
    613b:	48 8b 45 c0          	mov    rax,QWORD PTR [rbp-0x40]
    613f:	48 8b 40 50          	mov    rax,QWORD PTR [rax+0x50]
    6143:	48 2b 45 98          	sub    rax,QWORD PTR [rbp-0x68]
    6147:	48 89 c2             	mov    rdx,rax
    614a:	48 8b 45 c0          	mov    rax,QWORD PTR [rbp-0x40]
    614e:	48 89 50 50          	mov    QWORD PTR [rax+0x50],rdx
    6152:	48 8b 45 c0          	mov    rax,QWORD PTR [rbp-0x40]
    6156:	48 8b 40 18          	mov    rax,QWORD PTR [rax+0x18]
    615a:	48 89 45 c0          	mov    QWORD PTR [rbp-0x40],rax
    615e:	48 8b 45 c0          	mov    rax,QWORD PTR [rbp-0x40]
    6162:	48 3b 45 20          	cmp    rax,QWORD PTR [rbp+0x20]
    6166:	75 94                	jne    60fc <fwrite@plt+0x4e4c>
    6168:	48 8b 45 80          	mov    rax,QWORD PTR [rbp-0x80]
    616c:	48 89 45 c0          	mov    QWORD PTR [rbp-0x40],rax
    6170:	eb 62                	jmp    61d4 <fwrite@plt+0x4f24>
    6172:	48 8b 45 c0          	mov    rax,QWORD PTR [rbp-0x40]
    6176:	48 8b 50 58          	mov    rdx,QWORD PTR [rax+0x58]
    617a:	48 8b 45 e0          	mov    rax,QWORD PTR [rbp-0x20]
    617e:	48 01 c2             	add    rdx,rax
    6181:	48 8b 45 c0          	mov    rax,QWORD PTR [rbp-0x40]
    6185:	48 89 50 58          	mov    QWORD PTR [rax+0x58],rdx
    6189:	48 8b 45 c0          	mov    rax,QWORD PTR [rbp-0x40]
    618d:	8b 40 08             	mov    eax,DWORD PTR [rax+0x8]
    6190:	48 98                	cdqe   
    6192:	48 39 45 a8          	cmp    QWORD PTR [rbp-0x58],rax
    6196:	75 19                	jne    61b1 <fwrite@plt+0x4f01>
    6198:	48 8b 45 c0          	mov    rax,QWORD PTR [rbp-0x40]
    619c:	48 8b 50 50          	mov    rdx,QWORD PTR [rax+0x50]
    61a0:	48 8b 45 98          	mov    rax,QWORD PTR [rbp-0x68]
    61a4:	48 01 c2             	add    rdx,rax
    61a7:	48 8b 45 c0          	mov    rax,QWORD PTR [rbp-0x40]
    61ab:	48 89 50 50          	mov    QWORD PTR [rax+0x50],rdx
    61af:	eb 17                	jmp    61c8 <fwrite@plt+0x4f18>
    61b1:	48 8b 45 c0          	mov    rax,QWORD PTR [rbp-0x40]
    61b5:	48 8b 40 50          	mov    rax,QWORD PTR [rax+0x50]
    61b9:	48 2b 45 98          	sub    rax,QWORD PTR [rbp-0x68]
    61bd:	48 89 c2             	mov    rdx,rax
    61c0:	48 8b 45 c0          	mov    rax,QWORD PTR [rbp-0x40]
    61c4:	48 89 50 50          	mov    QWORD PTR [rax+0x50],rdx
    61c8:	48 8b 45 c0          	mov    rax,QWORD PTR [rbp-0x40]
    61cc:	48 8b 40 18          	mov    rax,QWORD PTR [rax+0x18]
    61d0:	48 89 45 c0          	mov    QWORD PTR [rbp-0x40],rax
    61d4:	48 8b 45 c0          	mov    rax,QWORD PTR [rbp-0x40]
    61d8:	48 3b 45 20          	cmp    rax,QWORD PTR [rbp+0x20]
    61dc:	75 94                	jne    6172 <fwrite@plt+0x4ec2>
    61de:	eb 6e                	jmp    624e <fwrite@plt+0x4f9e>
    61e0:	48 8b 45 18          	mov    rax,QWORD PTR [rbp+0x18]
    61e4:	48 89 45 c0          	mov    QWORD PTR [rbp-0x40],rax
    61e8:	eb 23                	jmp    620d <fwrite@plt+0x4f5d>
    61ea:	48 8b 45 c0          	mov    rax,QWORD PTR [rbp-0x40]
    61ee:	48 8b 40 58          	mov    rax,QWORD PTR [rax+0x58]
    61f2:	48 2b 45 e0          	sub    rax,QWORD PTR [rbp-0x20]
    61f6:	48 89 c2             	mov    rdx,rax
    61f9:	48 8b 45 c0          	mov    rax,QWORD PTR [rbp-0x40]
    61fd:	48 89 50 58          	mov    QWORD PTR [rax+0x58],rdx
    6201:	48 8b 45 c0          	mov    rax,QWORD PTR [rbp-0x40]
    6205:	48 8b 40 18          	mov    rax,QWORD PTR [rax+0x18]
    6209:	48 89 45 c0          	mov    QWORD PTR [rbp-0x40],rax
    620d:	48 8b 45 c0          	mov    rax,QWORD PTR [rbp-0x40]
    6211:	48 3b 45 20          	cmp    rax,QWORD PTR [rbp+0x20]
    6215:	75 d3                	jne    61ea <fwrite@plt+0x4f3a>
    6217:	48 8b 45 80          	mov    rax,QWORD PTR [rbp-0x80]
    621b:	48 89 45 c0          	mov    QWORD PTR [rbp-0x40],rax
    621f:	eb 23                	jmp    6244 <fwrite@plt+0x4f94>
    6221:	48 8b 45 c0          	mov    rax,QWORD PTR [rbp-0x40]
    6225:	48 8b 50 58          	mov    rdx,QWORD PTR [rax+0x58]
    6229:	48 8b 45 e0          	mov    rax,QWORD PTR [rbp-0x20]
    622d:	48 01 c2             	add    rdx,rax
    6230:	48 8b 45 c0          	mov    rax,QWORD PTR [rbp-0x40]
    6234:	48 89 50 58          	mov    QWORD PTR [rax+0x58],rdx
    6238:	48 8b 45 c0          	mov    rax,QWORD PTR [rbp-0x40]
    623c:	48 8b 40 18          	mov    rax,QWORD PTR [rax+0x18]
    6240:	48 89 45 c0          	mov    QWORD PTR [rbp-0x40],rax
    6244:	48 8b 45 c0          	mov    rax,QWORD PTR [rbp-0x40]
    6248:	48 3b 45 20          	cmp    rax,QWORD PTR [rbp+0x20]
    624c:	75 d3                	jne    6221 <fwrite@plt+0x4f71>
    624e:	90                   	nop
    624f:	c9                   	leave  
    6250:	c3                   	ret    
    6251:	f3 0f 1e fa          	endbr64 
    6255:	55                   	push   rbp
    6256:	48 89 e5             	mov    rbp,rsp
    6259:	48 89 7d e8          	mov    QWORD PTR [rbp-0x18],rdi
    625d:	48 89 75 e0          	mov    QWORD PTR [rbp-0x20],rsi
    6261:	48 89 55 d8          	mov    QWORD PTR [rbp-0x28],rdx
    6265:	48 89 4d d0          	mov    QWORD PTR [rbp-0x30],rcx
    6269:	4c 89 45 c8          	mov    QWORD PTR [rbp-0x38],r8
    626d:	48 c7 45 f8 00 00 00 	mov    QWORD PTR [rbp-0x8],0x0
    6274:	00 
    6275:	e9 70 01 00 00       	jmp    63ea <fwrite@plt+0x513a>
    627a:	48 8b 45 d8          	mov    rax,QWORD PTR [rbp-0x28]
    627e:	48 8b 50 58          	mov    rdx,QWORD PTR [rax+0x58]
    6282:	48 8b 45 d0          	mov    rax,QWORD PTR [rbp-0x30]
    6286:	48 8b 40 58          	mov    rax,QWORD PTR [rax+0x58]
    628a:	48 39 c2             	cmp    rdx,rax
    628d:	0f 8d ae 00 00 00    	jge    6341 <fwrite@plt+0x5091>
    6293:	48 8b 45 d8          	mov    rax,QWORD PTR [rbp-0x28]
    6297:	8b 40 08             	mov    eax,DWORD PTR [rax+0x8]
    629a:	85 c0                	test   eax,eax
    629c:	74 38                	je     62d6 <fwrite@plt+0x5026>
    629e:	48 8b 45 e8          	mov    rax,QWORD PTR [rbp-0x18]
    62a2:	48 8b 10             	mov    rdx,QWORD PTR [rax]
    62a5:	48 8b 45 d8          	mov    rax,QWORD PTR [rbp-0x28]
    62a9:	48 8b 40 50          	mov    rax,QWORD PTR [rax+0x50]
    62ad:	48 39 c2             	cmp    rdx,rax
    62b0:	7e 7e                	jle    6330 <fwrite@plt+0x5080>
    62b2:	48 8b 45 d8          	mov    rax,QWORD PTR [rbp-0x28]
    62b6:	48 89 45 f8          	mov    QWORD PTR [rbp-0x8],rax
    62ba:	48 8b 45 d8          	mov    rax,QWORD PTR [rbp-0x28]
    62be:	48 8b 50 50          	mov    rdx,QWORD PTR [rax+0x50]
    62c2:	48 8b 45 e8          	mov    rax,QWORD PTR [rbp-0x18]
    62c6:	48 89 10             	mov    QWORD PTR [rax],rdx
    62c9:	48 8b 45 e0          	mov    rax,QWORD PTR [rbp-0x20]
    62cd:	48 c7 00 00 00 00 00 	mov    QWORD PTR [rax],0x0
    62d4:	eb 5a                	jmp    6330 <fwrite@plt+0x5080>
    62d6:	48 8b 45 d8          	mov    rax,QWORD PTR [rbp-0x28]
    62da:	48 8b 40 18          	mov    rax,QWORD PTR [rax+0x18]
    62de:	48 8b 40 18          	mov    rax,QWORD PTR [rax+0x18]
    62e2:	48 85 c0             	test   rax,rax
    62e5:	74 49                	je     6330 <fwrite@plt+0x5080>
    62e7:	48 8b 45 e8          	mov    rax,QWORD PTR [rbp-0x18]
    62eb:	48 8b 10             	mov    rdx,QWORD PTR [rax]
    62ee:	48 8b 45 d8          	mov    rax,QWORD PTR [rbp-0x28]
    62f2:	48 8b 40 50          	mov    rax,QWORD PTR [rax+0x50]
    62f6:	b9 01 00 00 00       	mov    ecx,0x1
    62fb:	48 29 c1             	sub    rcx,rax
    62fe:	48 89 c8             	mov    rax,rcx
    6301:	48 39 c2             	cmp    rdx,rax
    6304:	7e 2a                	jle    6330 <fwrite@plt+0x5080>
    6306:	48 8b 45 d8          	mov    rax,QWORD PTR [rbp-0x28]
    630a:	48 89 45 f8          	mov    QWORD PTR [rbp-0x8],rax
    630e:	48 8b 45 d8          	mov    rax,QWORD PTR [rbp-0x28]
    6312:	48 8b 40 50          	mov    rax,QWORD PTR [rax+0x50]
    6316:	ba 01 00 00 00       	mov    edx,0x1
    631b:	48 29 c2             	sub    rdx,rax
    631e:	48 8b 45 e8          	mov    rax,QWORD PTR [rbp-0x18]
    6322:	48 89 10             	mov    QWORD PTR [rax],rdx
    6325:	48 8b 45 e0          	mov    rax,QWORD PTR [rbp-0x20]
    6329:	48 c7 00 00 00 00 00 	mov    QWORD PTR [rax],0x0
    6330:	48 8b 45 d8          	mov    rax,QWORD PTR [rbp-0x28]
    6334:	48 8b 40 18          	mov    rax,QWORD PTR [rax+0x18]
    6338:	48 89 45 d8          	mov    QWORD PTR [rbp-0x28],rax
    633c:	e9 a9 00 00 00       	jmp    63ea <fwrite@plt+0x513a>
    6341:	48 8b 45 d0          	mov    rax,QWORD PTR [rbp-0x30]
    6345:	8b 40 08             	mov    eax,DWORD PTR [rax+0x8]
    6348:	85 c0                	test   eax,eax
    634a:	75 38                	jne    6384 <fwrite@plt+0x50d4>
    634c:	48 8b 45 e8          	mov    rax,QWORD PTR [rbp-0x18]
    6350:	48 8b 10             	mov    rdx,QWORD PTR [rax]
    6353:	48 8b 45 d0          	mov    rax,QWORD PTR [rbp-0x30]
    6357:	48 8b 40 50          	mov    rax,QWORD PTR [rax+0x50]
    635b:	48 39 c2             	cmp    rdx,rax
    635e:	7c 7e                	jl     63de <fwrite@plt+0x512e>
    6360:	48 8b 45 d0          	mov    rax,QWORD PTR [rbp-0x30]
    6364:	48 89 45 f8          	mov    QWORD PTR [rbp-0x8],rax
    6368:	48 8b 45 d0          	mov    rax,QWORD PTR [rbp-0x30]
    636c:	48 8b 50 50          	mov    rdx,QWORD PTR [rax+0x50]
    6370:	48 8b 45 e8          	mov    rax,QWORD PTR [rbp-0x18]
    6374:	48 89 10             	mov    QWORD PTR [rax],rdx
    6377:	48 8b 45 e0          	mov    rax,QWORD PTR [rbp-0x20]
    637b:	48 c7 00 01 00 00 00 	mov    QWORD PTR [rax],0x1
    6382:	eb 5a                	jmp    63de <fwrite@plt+0x512e>
    6384:	48 8b 45 d0          	mov    rax,QWORD PTR [rbp-0x30]
    6388:	48 8b 40 18          	mov    rax,QWORD PTR [rax+0x18]
    638c:	48 8b 40 18          	mov    rax,QWORD PTR [rax+0x18]
    6390:	48 85 c0             	test   rax,rax
    6393:	74 49                	je     63de <fwrite@plt+0x512e>
    6395:	48 8b 45 e8          	mov    rax,QWORD PTR [rbp-0x18]
    6399:	48 8b 10             	mov    rdx,QWORD PTR [rax]
    639c:	48 8b 45 d0          	mov    rax,QWORD PTR [rbp-0x30]
    63a0:	48 8b 40 50          	mov    rax,QWORD PTR [rax+0x50]
    63a4:	b9 01 00 00 00       	mov    ecx,0x1
    63a9:	48 29 c1             	sub    rcx,rax
    63ac:	48 89 c8             	mov    rax,rcx
    63af:	48 39 c2             	cmp    rdx,rax
    63b2:	7c 2a                	jl     63de <fwrite@plt+0x512e>
    63b4:	48 8b 45 d0          	mov    rax,QWORD PTR [rbp-0x30]
    63b8:	48 89 45 f8          	mov    QWORD PTR [rbp-0x8],rax
    63bc:	48 8b 45 d0          	mov    rax,QWORD PTR [rbp-0x30]
    63c0:	48 8b 40 50          	mov    rax,QWORD PTR [rax+0x50]
    63c4:	ba 01 00 00 00       	mov    edx,0x1
    63c9:	48 29 c2             	sub    rdx,rax
    63cc:	48 8b 45 e8          	mov    rax,QWORD PTR [rbp-0x18]
    63d0:	48 89 10             	mov    QWORD PTR [rax],rdx
    63d3:	48 8b 45 e0          	mov    rax,QWORD PTR [rbp-0x20]
    63d7:	48 c7 00 01 00 00 00 	mov    QWORD PTR [rax],0x1
    63de:	48 8b 45 d0          	mov    rax,QWORD PTR [rbp-0x30]
    63e2:	48 8b 40 18          	mov    rax,QWORD PTR [rax+0x18]
    63e6:	48 89 45 d0          	mov    QWORD PTR [rbp-0x30],rax
    63ea:	48 8b 45 d8          	mov    rax,QWORD PTR [rbp-0x28]
    63ee:	48 3b 45 d0          	cmp    rax,QWORD PTR [rbp-0x30]
    63f2:	0f 85 82 fe ff ff    	jne    627a <fwrite@plt+0x4fca>
    63f8:	48 8b 45 c8          	mov    rax,QWORD PTR [rbp-0x38]
    63fc:	48 8b 55 d8          	mov    rdx,QWORD PTR [rbp-0x28]
    6400:	48 89 10             	mov    QWORD PTR [rax],rdx
    6403:	48 8b 45 f8          	mov    rax,QWORD PTR [rbp-0x8]
    6407:	5d                   	pop    rbp
    6408:	c3                   	ret    
    6409:	f3 0f 1e fa          	endbr64 
    640d:	55                   	push   rbp
    640e:	48 89 e5             	mov    rbp,rsp
    6411:	48 89 7d f8          	mov    QWORD PTR [rbp-0x8],rdi
    6415:	48 89 75 f0          	mov    QWORD PTR [rbp-0x10],rsi
    6419:	48 89 55 e8          	mov    QWORD PTR [rbp-0x18],rdx
    641d:	eb 31                	jmp    6450 <fwrite@plt+0x51a0>
    641f:	48 8b 45 f8          	mov    rax,QWORD PTR [rbp-0x8]
    6423:	8b 40 08             	mov    eax,DWORD PTR [rax+0x8]
    6426:	85 c0                	test   eax,eax
    6428:	74 0e                	je     6438 <fwrite@plt+0x5188>
    642a:	48 8b 45 f8          	mov    rax,QWORD PTR [rbp-0x8]
    642e:	48 c7 40 50 00 00 00 	mov    QWORD PTR [rax+0x50],0x0
    6435:	00 
    6436:	eb 0c                	jmp    6444 <fwrite@plt+0x5194>
    6438:	48 8b 45 f8          	mov    rax,QWORD PTR [rbp-0x8]
    643c:	48 c7 40 50 01 00 00 	mov    QWORD PTR [rax+0x50],0x1
    6443:	00 
    6444:	48 8b 45 f8          	mov    rax,QWORD PTR [rbp-0x8]
    6448:	48 8b 40 18          	mov    rax,QWORD PTR [rax+0x18]
    644c:	48 89 45 f8          	mov    QWORD PTR [rbp-0x8],rax
    6450:	48 8b 45 f8          	mov    rax,QWORD PTR [rbp-0x8]
    6454:	48 3b 45 e8          	cmp    rax,QWORD PTR [rbp-0x18]
    6458:	75 c5                	jne    641f <fwrite@plt+0x516f>
    645a:	eb 31                	jmp    648d <fwrite@plt+0x51dd>
    645c:	48 8b 45 f0          	mov    rax,QWORD PTR [rbp-0x10]
    6460:	8b 40 08             	mov    eax,DWORD PTR [rax+0x8]
    6463:	85 c0                	test   eax,eax
    6465:	74 0e                	je     6475 <fwrite@plt+0x51c5>
    6467:	48 8b 45 f0          	mov    rax,QWORD PTR [rbp-0x10]
    646b:	48 c7 40 50 01 00 00 	mov    QWORD PTR [rax+0x50],0x1
    6472:	00 
    6473:	eb 0c                	jmp    6481 <fwrite@plt+0x51d1>
    6475:	48 8b 45 f0          	mov    rax,QWORD PTR [rbp-0x10]
    6479:	48 c7 40 50 00 00 00 	mov    QWORD PTR [rax+0x50],0x0
    6480:	00 
    6481:	48 8b 45 f0          	mov    rax,QWORD PTR [rbp-0x10]
    6485:	48 8b 40 18          	mov    rax,QWORD PTR [rax+0x18]
    6489:	48 89 45 f0          	mov    QWORD PTR [rbp-0x10],rax
    648d:	48 8b 45 f0          	mov    rax,QWORD PTR [rbp-0x10]
    6491:	48 3b 45 e8          	cmp    rax,QWORD PTR [rbp-0x18]
    6495:	75 c5                	jne    645c <fwrite@plt+0x51ac>
    6497:	90                   	nop
    6498:	90                   	nop
    6499:	5d                   	pop    rbp
    649a:	c3                   	ret    
    649b:	f3 0f 1e fa          	endbr64 
    649f:	55                   	push   rbp
    64a0:	48 89 e5             	mov    rbp,rsp
    64a3:	48 83 ec 40          	sub    rsp,0x40
    64a7:	48 89 7d c8          	mov    QWORD PTR [rbp-0x38],rdi
    64ab:	64 48 8b 04 25 28 00 	mov    rax,QWORD PTR fs:0x28
    64b2:	00 00 
    64b4:	48 89 45 f8          	mov    QWORD PTR [rbp-0x8],rax
    64b8:	31 c0                	xor    eax,eax
    64ba:	48 c7 45 f0 00 00 00 	mov    QWORD PTR [rbp-0x10],0x0
    64c1:	00 
    64c2:	48 c7 45 e0 01 00 00 	mov    QWORD PTR [rbp-0x20],0x1
    64c9:	00 
    64ca:	e9 df 00 00 00       	jmp    65ae <fwrite@plt+0x52fe>
    64cf:	48 8b 05 9a 4b 00 00 	mov    rax,QWORD PTR [rip+0x4b9a]        # b070 <stderr@@GLIBC_2.2.5+0x30>
    64d6:	48 8b 00             	mov    rax,QWORD PTR [rax]
    64d9:	48 8b 00             	mov    rax,QWORD PTR [rax]
    64dc:	48 8b 40 18          	mov    rax,QWORD PTR [rax+0x18]
    64e0:	48 85 c0             	test   rax,rax
    64e3:	78 1b                	js     6500 <fwrite@plt+0x5250>
    64e5:	48 8b 05 84 4b 00 00 	mov    rax,QWORD PTR [rip+0x4b84]        # b070 <stderr@@GLIBC_2.2.5+0x30>
    64ec:	48 8b 00             	mov    rax,QWORD PTR [rax]
    64ef:	48 8b 00             	mov    rax,QWORD PTR [rax]
    64f2:	48 89 45 d0          	mov    QWORD PTR [rbp-0x30],rax
    64f6:	48 c7 45 f0 00 00 00 	mov    QWORD PTR [rbp-0x10],0x0
    64fd:	00 
    64fe:	eb 08                	jmp    6508 <fwrite@plt+0x5258>
    6500:	48 c7 45 d0 00 00 00 	mov    QWORD PTR [rbp-0x30],0x0
    6507:	00 
    6508:	48 c7 45 e8 01 00 00 	mov    QWORD PTR [rbp-0x18],0x1
    650f:	00 
    6510:	eb 5d                	jmp    656f <fwrite@plt+0x52bf>
    6512:	48 8b 05 57 4b 00 00 	mov    rax,QWORD PTR [rip+0x4b57]        # b070 <stderr@@GLIBC_2.2.5+0x30>
    6519:	48 8b 55 e8          	mov    rdx,QWORD PTR [rbp-0x18]
    651d:	48 c1 e2 03          	shl    rdx,0x3
    6521:	48 01 d0             	add    rax,rdx
    6524:	48 8b 00             	mov    rax,QWORD PTR [rax]
    6527:	48 8b 00             	mov    rax,QWORD PTR [rax]
    652a:	48 89 45 d8          	mov    QWORD PTR [rbp-0x28],rax
    652e:	48 8b 45 d8          	mov    rax,QWORD PTR [rbp-0x28]
    6532:	48 8b 40 18          	mov    rax,QWORD PTR [rax+0x18]
    6536:	48 85 c0             	test   rax,rax
    6539:	78 30                	js     656b <fwrite@plt+0x52bb>
    653b:	48 8b 45 d0          	mov    rax,QWORD PTR [rbp-0x30]
    653f:	48 85 c0             	test   rax,rax
    6542:	74 17                	je     655b <fwrite@plt+0x52ab>
    6544:	48 8d 55 d0          	lea    rdx,[rbp-0x30]
    6548:	48 8d 45 d8          	lea    rax,[rbp-0x28]
    654c:	48 89 d6             	mov    rsi,rdx
    654f:	48 89 c7             	mov    rdi,rax
    6552:	e8 86 0a 00 00       	call   6fdd <fwrite@plt+0x5d2d>
    6557:	85 c0                	test   eax,eax
    6559:	79 10                	jns    656b <fwrite@plt+0x52bb>
    655b:	48 8b 45 d8          	mov    rax,QWORD PTR [rbp-0x28]
    655f:	48 89 45 d0          	mov    QWORD PTR [rbp-0x30],rax
    6563:	48 8b 45 e8          	mov    rax,QWORD PTR [rbp-0x18]
    6567:	48 89 45 f0          	mov    QWORD PTR [rbp-0x10],rax
    656b:	48 ff 45 e8          	inc    QWORD PTR [rbp-0x18]
    656f:	48 8b 45 e8          	mov    rax,QWORD PTR [rbp-0x18]
    6573:	48 3b 45 c8          	cmp    rax,QWORD PTR [rbp-0x38]
    6577:	7c 99                	jl     6512 <fwrite@plt+0x5262>
    6579:	48 8b 45 d0          	mov    rax,QWORD PTR [rbp-0x30]
    657d:	48 85 c0             	test   rax,rax
    6580:	74 39                	je     65bb <fwrite@plt+0x530b>
    6582:	48 8b 45 d0          	mov    rax,QWORD PTR [rbp-0x30]
    6586:	48 8b 55 e0          	mov    rdx,QWORD PTR [rbp-0x20]
    658a:	48 89 50 18          	mov    QWORD PTR [rax+0x18],rdx
    658e:	48 8b 05 db 4a 00 00 	mov    rax,QWORD PTR [rip+0x4adb]        # b070 <stderr@@GLIBC_2.2.5+0x30>
    6595:	48 8b 55 f0          	mov    rdx,QWORD PTR [rbp-0x10]
    6599:	48 c1 e2 03          	shl    rdx,0x3
    659d:	48 01 d0             	add    rax,rdx
    65a0:	48 8b 10             	mov    rdx,QWORD PTR [rax]
    65a3:	48 83 c2 08          	add    rdx,0x8
    65a7:	48 89 10             	mov    QWORD PTR [rax],rdx
    65aa:	48 ff 45 e0          	inc    QWORD PTR [rbp-0x20]
    65ae:	48 83 7d e0 3c       	cmp    QWORD PTR [rbp-0x20],0x3c
    65b3:	0f 8e 16 ff ff ff    	jle    64cf <fwrite@plt+0x521f>
    65b9:	eb 01                	jmp    65bc <fwrite@plt+0x530c>
    65bb:	90                   	nop
    65bc:	48 8b 45 f8          	mov    rax,QWORD PTR [rbp-0x8]
    65c0:	64 48 33 04 25 28 00 	xor    rax,QWORD PTR fs:0x28
    65c7:	00 00 
    65c9:	74 05                	je     65d0 <fwrite@plt+0x5320>
    65cb:	e8 00 ac ff ff       	call   11d0 <__stack_chk_fail@plt>
    65d0:	c9                   	leave  
    65d1:	c3                   	ret    
    65d2:	f3 0f 1e fa          	endbr64 
    65d6:	55                   	push   rbp
    65d7:	48 89 e5             	mov    rbp,rsp
    65da:	53                   	push   rbx
    65db:	4c 8d 9c 24 00 90 ff 	lea    r11,[rsp-0x7000]
    65e2:	ff 
    65e3:	48 81 ec 00 10 00 00 	sub    rsp,0x1000
    65ea:	48 83 0c 24 00       	or     QWORD PTR [rsp],0x0
    65ef:	4c 39 dc             	cmp    rsp,r11
    65f2:	75 ef                	jne    65e3 <fwrite@plt+0x5333>
    65f4:	48 81 ec 48 0f 00 00 	sub    rsp,0xf48
    65fb:	48 89 bd b8 80 ff ff 	mov    QWORD PTR [rbp-0x7f48],rdi
    6602:	89 b5 b4 80 ff ff    	mov    DWORD PTR [rbp-0x7f4c],esi
    6608:	89 95 b0 80 ff ff    	mov    DWORD PTR [rbp-0x7f50],edx
    660e:	64 48 8b 04 25 28 00 	mov    rax,QWORD PTR fs:0x28
    6615:	00 00 
    6617:	48 89 45 e8          	mov    QWORD PTR [rbp-0x18],rax
    661b:	31 c0                	xor    eax,eax
    661d:	48 8b 85 b8 80 ff ff 	mov    rax,QWORD PTR [rbp-0x7f48]
    6624:	48 8b 80 38 02 00 00 	mov    rax,QWORD PTR [rax+0x238]
    662b:	48 89 85 e0 80 ff ff 	mov    QWORD PTR [rbp-0x7f20],rax
    6632:	48 8b 85 b8 80 ff ff 	mov    rax,QWORD PTR [rbp-0x7f48]
    6639:	48 8b 80 40 02 00 00 	mov    rax,QWORD PTR [rax+0x240]
    6640:	48 89 85 e8 80 ff ff 	mov    QWORD PTR [rbp-0x7f18],rax
    6647:	48 8b 85 b8 80 ff ff 	mov    rax,QWORD PTR [rbp-0x7f48]
    664e:	48 8b 80 a8 01 00 00 	mov    rax,QWORD PTR [rax+0x1a8]
    6655:	48 89 85 f0 80 ff ff 	mov    QWORD PTR [rbp-0x7f10],rax
    665c:	48 8b 85 b8 80 ff ff 	mov    rax,QWORD PTR [rbp-0x7f48]
    6663:	48 05 60 02 00 00    	add    rax,0x260
    6669:	48 89 85 f8 80 ff ff 	mov    QWORD PTR [rbp-0x7f08],rax
    6670:	48 8b 85 b8 80 ff ff 	mov    rax,QWORD PTR [rbp-0x7f48]
    6677:	48 8b 80 38 02 00 00 	mov    rax,QWORD PTR [rax+0x238]
    667e:	48 89 85 c8 80 ff ff 	mov    QWORD PTR [rbp-0x7f38],rax
    6685:	48 8b 05 ec 49 00 00 	mov    rax,QWORD PTR [rip+0x49ec]        # b078 <stderr@@GLIBC_2.2.5+0x38>
    668c:	8b 95 b4 80 ff ff    	mov    edx,DWORD PTR [rbp-0x7f4c]
    6692:	48 63 d2             	movsxd rdx,edx
    6695:	48 c1 e2 03          	shl    rdx,0x3
    6699:	48 01 d0             	add    rax,rdx
    669c:	48 c7 00 00 00 00 00 	mov    QWORD PTR [rax],0x0
    66a3:	b8 a0 0f 00 00       	mov    eax,0xfa0
    66a8:	99                   	cdq    
    66a9:	f7 bd b0 80 ff ff    	idiv   DWORD PTR [rbp-0x7f50]
    66af:	05 05 01 00 00       	add    eax,0x105
    66b4:	0f af 85 b4 80 ff ff 	imul   eax,DWORD PTR [rbp-0x7f4c]
    66bb:	ff c0                	inc    eax
    66bd:	48 98                	cdqe   
    66bf:	48 89 85 d8 80 ff ff 	mov    QWORD PTR [rbp-0x7f28],rax
    66c6:	48 c7 85 d0 80 ff ff 	mov    QWORD PTR [rbp-0x7f30],0x1
    66cd:	01 00 00 00 
    66d1:	eb 32                	jmp    6705 <fwrite@plt+0x5455>
    66d3:	48 8b 05 ae 49 00 00 	mov    rax,QWORD PTR [rip+0x49ae]        # b088 <stderr@@GLIBC_2.2.5+0x48>
    66da:	48 8b 95 d8 80 ff ff 	mov    rdx,QWORD PTR [rbp-0x7f28]
    66e1:	48 c1 e2 05          	shl    rdx,0x5
    66e5:	48 01 c2             	add    rdx,rax
    66e8:	48 8b 85 d0 80 ff ff 	mov    rax,QWORD PTR [rbp-0x7f30]
    66ef:	48 89 94 c5 00 81 ff 	mov    QWORD PTR [rbp+rax*8-0x7f00],rdx
    66f6:	ff 
    66f7:	48 ff 85 d0 80 ff ff 	inc    QWORD PTR [rbp-0x7f30]
    66fe:	48 ff 85 d8 80 ff ff 	inc    QWORD PTR [rbp-0x7f28]
    6705:	b8 a0 0f 00 00       	mov    eax,0xfa0
    670a:	99                   	cdq    
    670b:	f7 bd b0 80 ff ff    	idiv   DWORD PTR [rbp-0x7f50]
    6711:	83 c0 3d             	add    eax,0x3d
    6714:	48 98                	cdqe   
    6716:	48 39 85 d0 80 ff ff 	cmp    QWORD PTR [rbp-0x7f30],rax
    671d:	7c b4                	jl     66d3 <fwrite@plt+0x5423>
    671f:	e9 dc 00 00 00       	jmp    6800 <fwrite@plt+0x5550>
    6724:	48 8b 85 b8 80 ff ff 	mov    rax,QWORD PTR [rbp-0x7f48]
    672b:	4c 8b 80 80 02 00 00 	mov    r8,QWORD PTR [rax+0x280]
    6732:	8b 85 b0 80 ff ff    	mov    eax,DWORD PTR [rbp-0x7f50]
    6738:	48 63 f8             	movsxd rdi,eax
    673b:	48 8b 85 f8 80 ff ff 	mov    rax,QWORD PTR [rbp-0x7f08]
    6742:	48 8b 10             	mov    rdx,QWORD PTR [rax]
    6745:	8b 85 b4 80 ff ff    	mov    eax,DWORD PTR [rbp-0x7f4c]
    674b:	48 98                	cdqe   
    674d:	48 01 d0             	add    rax,rdx
    6750:	8b 95 b0 80 ff ff    	mov    edx,DWORD PTR [rbp-0x7f50]
    6756:	48 63 ca             	movsxd rcx,edx
    6759:	48 99                	cqo    
    675b:	48 f7 f9             	idiv   rcx
    675e:	49 89 d3             	mov    r11,rdx
    6761:	48 8b 0d 10 49 00 00 	mov    rcx,QWORD PTR [rip+0x4910]        # b078 <stderr@@GLIBC_2.2.5+0x38>
    6768:	48 8b 05 f9 48 00 00 	mov    rax,QWORD PTR [rip+0x48f9]        # b068 <stderr@@GLIBC_2.2.5+0x28>
    676f:	8b 95 b4 80 ff ff    	mov    edx,DWORD PTR [rbp-0x7f4c]
    6775:	48 63 d2             	movsxd rdx,edx
    6778:	48 c1 e2 03          	shl    rdx,0x3
    677c:	48 8d 1c 10          	lea    rbx,[rax+rdx*1]
    6780:	44 8b 8d b4 80 ff ff 	mov    r9d,DWORD PTR [rbp-0x7f4c]
    6787:	4c 8d 95 00 81 ff ff 	lea    r10,[rbp-0x7f00]
    678e:	48 8b 95 e8 80 ff ff 	mov    rdx,QWORD PTR [rbp-0x7f18]
    6795:	48 8b b5 e0 80 ff ff 	mov    rsi,QWORD PTR [rbp-0x7f20]
    679c:	48 8b 85 f0 80 ff ff 	mov    rax,QWORD PTR [rbp-0x7f10]
    67a3:	41 50                	push   r8
    67a5:	57                   	push   rdi
    67a6:	41 53                	push   r11
    67a8:	48 8d bd c8 80 ff ff 	lea    rdi,[rbp-0x7f38]
    67af:	57                   	push   rdi
    67b0:	4d 89 d0             	mov    r8,r10
    67b3:	48 89 c7             	mov    rdi,rax
    67b6:	e8 a0 08 00 00       	call   705b <fwrite@plt+0x5dab>
    67bb:	48 83 c4 20          	add    rsp,0x20
    67bf:	48 89 03             	mov    QWORD PTR [rbx],rax
    67c2:	48 8b 05 a7 48 00 00 	mov    rax,QWORD PTR [rip+0x48a7]        # b070 <stderr@@GLIBC_2.2.5+0x30>
    67c9:	8b 95 b4 80 ff ff    	mov    edx,DWORD PTR [rbp-0x7f4c]
    67cf:	48 63 d2             	movsxd rdx,edx
    67d2:	48 c1 e2 03          	shl    rdx,0x3
    67d6:	48 01 c2             	add    rdx,rax
    67d9:	48 8d 85 00 81 ff ff 	lea    rax,[rbp-0x7f00]
    67e0:	48 83 c0 08          	add    rax,0x8
    67e4:	48 89 02             	mov    QWORD PTR [rdx],rax
    67e7:	83 bd b4 80 ff ff 01 	cmp    DWORD PTR [rbp-0x7f4c],0x1
    67ee:	75 10                	jne    6800 <fwrite@plt+0x5550>
    67f0:	8b 85 b0 80 ff ff    	mov    eax,DWORD PTR [rbp-0x7f50]
    67f6:	48 98                	cdqe   
    67f8:	48 89 c7             	mov    rdi,rax
    67fb:	e8 9b fc ff ff       	call   649b <fwrite@plt+0x51eb>
    6800:	48 8b 05 79 48 00 00 	mov    rax,QWORD PTR [rip+0x4879]        # b080 <stderr@@GLIBC_2.2.5+0x40>
    6807:	48 85 c0             	test   rax,rax
    680a:	0f 84 14 ff ff ff    	je     6724 <fwrite@plt+0x5474>
    6810:	90                   	nop
    6811:	48 8b 45 e8          	mov    rax,QWORD PTR [rbp-0x18]
    6815:	64 48 33 04 25 28 00 	xor    rax,QWORD PTR fs:0x28
    681c:	00 00 
    681e:	74 05                	je     6825 <fwrite@plt+0x5575>
    6820:	e8 ab a9 ff ff       	call   11d0 <__stack_chk_fail@plt>
    6825:	48 8b 5d f8          	mov    rbx,QWORD PTR [rbp-0x8]
    6829:	c9                   	leave  
    682a:	c3                   	ret    
    682b:	f3 0f 1e fa          	endbr64 
    682f:	55                   	push   rbp
    6830:	48 89 e5             	mov    rbp,rsp
    6833:	53                   	push   rbx
    6834:	4c 8d 9c 24 00 90 ff 	lea    r11,[rsp-0x7000]
    683b:	ff 
    683c:	48 81 ec 00 10 00 00 	sub    rsp,0x1000
    6843:	48 83 0c 24 00       	or     QWORD PTR [rsp],0x0
    6848:	4c 39 dc             	cmp    rsp,r11
    684b:	75 ef                	jne    683c <fwrite@plt+0x558c>
    684d:	48 81 ec c8 0f 00 00 	sub    rsp,0xfc8
    6854:	48 89 bd 38 80 ff ff 	mov    QWORD PTR [rbp-0x7fc8],rdi
    685b:	89 b5 34 80 ff ff    	mov    DWORD PTR [rbp-0x7fcc],esi
    6861:	64 48 8b 04 25 28 00 	mov    rax,QWORD PTR fs:0x28
    6868:	00 00 
    686a:	48 89 45 e8          	mov    QWORD PTR [rbp-0x18],rax
    686e:	31 c0                	xor    eax,eax
    6870:	48 8b 85 38 80 ff ff 	mov    rax,QWORD PTR [rbp-0x7fc8]
    6877:	48 8b 80 38 02 00 00 	mov    rax,QWORD PTR [rax+0x238]
    687e:	48 89 85 b8 80 ff ff 	mov    QWORD PTR [rbp-0x7f48],rax
    6885:	48 8b 85 38 80 ff ff 	mov    rax,QWORD PTR [rbp-0x7fc8]
    688c:	48 8b 80 40 02 00 00 	mov    rax,QWORD PTR [rax+0x240]
    6893:	48 89 85 c0 80 ff ff 	mov    QWORD PTR [rbp-0x7f40],rax
    689a:	48 8b 85 38 80 ff ff 	mov    rax,QWORD PTR [rbp-0x7fc8]
    68a1:	48 8b 80 a8 01 00 00 	mov    rax,QWORD PTR [rax+0x1a8]
    68a8:	48 89 85 c8 80 ff ff 	mov    QWORD PTR [rbp-0x7f38],rax
    68af:	48 8b 85 38 80 ff ff 	mov    rax,QWORD PTR [rbp-0x7fc8]
    68b6:	48 05 60 02 00 00    	add    rax,0x260
    68bc:	48 89 85 d0 80 ff ff 	mov    QWORD PTR [rbp-0x7f30],rax
    68c3:	48 8b 85 38 80 ff ff 	mov    rax,QWORD PTR [rbp-0x7fc8]
    68ca:	48 05 68 02 00 00    	add    rax,0x268
    68d0:	48 89 85 d8 80 ff ff 	mov    QWORD PTR [rbp-0x7f28],rax
    68d7:	48 8b 85 38 80 ff ff 	mov    rax,QWORD PTR [rbp-0x7fc8]
    68de:	48 8b 80 38 02 00 00 	mov    rax,QWORD PTR [rax+0x238]
    68e5:	48 89 85 68 80 ff ff 	mov    QWORD PTR [rbp-0x7f98],rax
    68ec:	48 8b 05 85 47 00 00 	mov    rax,QWORD PTR [rip+0x4785]        # b078 <stderr@@GLIBC_2.2.5+0x38>
    68f3:	48 c7 00 00 00 00 00 	mov    QWORD PTR [rax],0x0
    68fa:	48 c7 85 b0 80 ff ff 	mov    QWORD PTR [rbp-0x7f50],0x1
    6901:	01 00 00 00 
    6905:	48 c7 85 a8 80 ff ff 	mov    QWORD PTR [rbp-0x7f58],0x1
    690c:	01 00 00 00 
    6910:	eb 32                	jmp    6944 <fwrite@plt+0x5694>
    6912:	48 8b 05 6f 47 00 00 	mov    rax,QWORD PTR [rip+0x476f]        # b088 <stderr@@GLIBC_2.2.5+0x48>
    6919:	48 8b 95 b0 80 ff ff 	mov    rdx,QWORD PTR [rbp-0x7f50]
    6920:	48 c1 e2 05          	shl    rdx,0x5
    6924:	48 01 c2             	add    rdx,rax
    6927:	48 8b 85 a8 80 ff ff 	mov    rax,QWORD PTR [rbp-0x7f58]
    692e:	48 89 94 c5 00 81 ff 	mov    QWORD PTR [rbp+rax*8-0x7f00],rdx
    6935:	ff 
    6936:	48 ff 85 a8 80 ff ff 	inc    QWORD PTR [rbp-0x7f58]
    693d:	48 ff 85 b0 80 ff ff 	inc    QWORD PTR [rbp-0x7f50]
    6944:	b8 a0 0f 00 00       	mov    eax,0xfa0
    6949:	99                   	cdq    
    694a:	f7 bd 34 80 ff ff    	idiv   DWORD PTR [rbp-0x7fcc]
    6950:	83 c0 3d             	add    eax,0x3d
    6953:	48 98                	cdqe   
    6955:	48 39 85 a8 80 ff ff 	cmp    QWORD PTR [rbp-0x7f58],rax
    695c:	7c b4                	jl     6912 <fwrite@plt+0x5662>
    695e:	e9 7a 04 00 00       	jmp    6ddd <fwrite@plt+0x5b2d>
    6963:	48 8b 85 38 80 ff ff 	mov    rax,QWORD PTR [rbp-0x7fc8]
    696a:	4c 8b 80 80 02 00 00 	mov    r8,QWORD PTR [rax+0x280]
    6971:	8b 85 34 80 ff ff    	mov    eax,DWORD PTR [rbp-0x7fcc]
    6977:	48 63 f8             	movsxd rdi,eax
    697a:	48 8b 85 d0 80 ff ff 	mov    rax,QWORD PTR [rbp-0x7f30]
    6981:	48 8b 00             	mov    rax,QWORD PTR [rax]
    6984:	8b 95 34 80 ff ff    	mov    edx,DWORD PTR [rbp-0x7fcc]
    698a:	48 63 ca             	movsxd rcx,edx
    698d:	48 99                	cqo    
    698f:	48 f7 f9             	idiv   rcx
    6992:	49 89 d1             	mov    r9,rdx
    6995:	48 8b 0d dc 46 00 00 	mov    rcx,QWORD PTR [rip+0x46dc]        # b078 <stderr@@GLIBC_2.2.5+0x38>
    699c:	48 8b 1d c5 46 00 00 	mov    rbx,QWORD PTR [rip+0x46c5]        # b068 <stderr@@GLIBC_2.2.5+0x28>
    69a3:	4c 8d 95 00 81 ff ff 	lea    r10,[rbp-0x7f00]
    69aa:	48 8b 95 c0 80 ff ff 	mov    rdx,QWORD PTR [rbp-0x7f40]
    69b1:	48 8b b5 b8 80 ff ff 	mov    rsi,QWORD PTR [rbp-0x7f48]
    69b8:	48 8b 85 c8 80 ff ff 	mov    rax,QWORD PTR [rbp-0x7f38]
    69bf:	41 50                	push   r8
    69c1:	57                   	push   rdi
    69c2:	41 51                	push   r9
    69c4:	48 8d bd 68 80 ff ff 	lea    rdi,[rbp-0x7f98]
    69cb:	57                   	push   rdi
    69cc:	41 b9 00 00 00 00    	mov    r9d,0x0
    69d2:	4d 89 d0             	mov    r8,r10
    69d5:	48 89 c7             	mov    rdi,rax
    69d8:	e8 7e 06 00 00       	call   705b <fwrite@plt+0x5dab>
    69dd:	48 83 c4 20          	add    rsp,0x20
    69e1:	48 89 03             	mov    QWORD PTR [rbx],rax
    69e4:	48 8b 15 85 46 00 00 	mov    rdx,QWORD PTR [rip+0x4685]        # b070 <stderr@@GLIBC_2.2.5+0x30>
    69eb:	48 8d 85 00 81 ff ff 	lea    rax,[rbp-0x7f00]
    69f2:	48 83 c0 08          	add    rax,0x8
    69f6:	48 89 02             	mov    QWORD PTR [rdx],rax
    69f9:	48 c7 85 60 80 ff ff 	mov    QWORD PTR [rbp-0x7fa0],0x0
    6a00:	00 00 00 00 
    6a04:	48 c7 85 a8 80 ff ff 	mov    QWORD PTR [rbp-0x7f58],0x0
    6a0b:	00 00 00 00 
    6a0f:	e9 97 00 00 00       	jmp    6aab <fwrite@plt+0x57fb>
    6a14:	48 8b 85 60 80 ff ff 	mov    rax,QWORD PTR [rbp-0x7fa0]
    6a1b:	48 85 c0             	test   rax,rax
    6a1e:	75 1d                	jne    6a3d <fwrite@plt+0x578d>
    6a20:	48 8b 05 41 46 00 00 	mov    rax,QWORD PTR [rip+0x4641]        # b068 <stderr@@GLIBC_2.2.5+0x28>
    6a27:	48 8b 95 a8 80 ff ff 	mov    rdx,QWORD PTR [rbp-0x7f58]
    6a2e:	48 c1 e2 03          	shl    rdx,0x3
    6a32:	48 01 d0             	add    rax,rdx
    6a35:	48 8b 00             	mov    rax,QWORD PTR [rax]
    6a38:	48 85 c0             	test   rax,rax
    6a3b:	75 48                	jne    6a85 <fwrite@plt+0x57d5>
    6a3d:	48 8b 05 24 46 00 00 	mov    rax,QWORD PTR [rip+0x4624]        # b068 <stderr@@GLIBC_2.2.5+0x28>
    6a44:	48 8b 95 a8 80 ff ff 	mov    rdx,QWORD PTR [rbp-0x7f58]
    6a4b:	48 c1 e2 03          	shl    rdx,0x3
    6a4f:	48 01 d0             	add    rax,rdx
    6a52:	48 8b 00             	mov    rax,QWORD PTR [rax]
    6a55:	48 85 c0             	test   rax,rax
    6a58:	74 4a                	je     6aa4 <fwrite@plt+0x57f4>
    6a5a:	48 8b 05 07 46 00 00 	mov    rax,QWORD PTR [rip+0x4607]        # b068 <stderr@@GLIBC_2.2.5+0x28>
    6a61:	48 8b 95 a8 80 ff ff 	mov    rdx,QWORD PTR [rbp-0x7f58]
    6a68:	48 c1 e2 03          	shl    rdx,0x3
    6a6c:	48 01 c2             	add    rdx,rax
    6a6f:	48 8d 85 60 80 ff ff 	lea    rax,[rbp-0x7fa0]
    6a76:	48 89 c6             	mov    rsi,rax
    6a79:	48 89 d7             	mov    rdi,rdx
    6a7c:	e8 5c 05 00 00       	call   6fdd <fwrite@plt+0x5d2d>
    6a81:	85 c0                	test   eax,eax
    6a83:	79 1f                	jns    6aa4 <fwrite@plt+0x57f4>
    6a85:	48 8b 05 dc 45 00 00 	mov    rax,QWORD PTR [rip+0x45dc]        # b068 <stderr@@GLIBC_2.2.5+0x28>
    6a8c:	48 8b 95 a8 80 ff ff 	mov    rdx,QWORD PTR [rbp-0x7f58]
    6a93:	48 c1 e2 03          	shl    rdx,0x3
    6a97:	48 01 d0             	add    rax,rdx
    6a9a:	48 8b 00             	mov    rax,QWORD PTR [rax]
    6a9d:	48 89 85 60 80 ff ff 	mov    QWORD PTR [rbp-0x7fa0],rax
    6aa4:	48 ff 85 a8 80 ff ff 	inc    QWORD PTR [rbp-0x7f58]
    6aab:	8b 85 34 80 ff ff    	mov    eax,DWORD PTR [rbp-0x7fcc]
    6ab1:	48 98                	cdqe   
    6ab3:	48 39 85 a8 80 ff ff 	cmp    QWORD PTR [rbp-0x7f58],rax
    6aba:	0f 8c 54 ff ff ff    	jl     6a14 <fwrite@plt+0x5764>
    6ac0:	48 8b 85 60 80 ff ff 	mov    rax,QWORD PTR [rbp-0x7fa0]
    6ac7:	48 85 c0             	test   rax,rax
    6aca:	75 0d                	jne    6ad9 <fwrite@plt+0x5829>
    6acc:	48 c7 85 a0 80 ff ff 	mov    QWORD PTR [rbp-0x7f60],0x0
    6ad3:	00 00 00 00 
    6ad7:	eb 3c                	jmp    6b15 <fwrite@plt+0x5865>
    6ad9:	48 8b 85 60 80 ff ff 	mov    rax,QWORD PTR [rbp-0x7fa0]
    6ae0:	48 8b 40 08          	mov    rax,QWORD PTR [rax+0x8]
    6ae4:	48 89 85 a0 80 ff ff 	mov    QWORD PTR [rbp-0x7f60],rax
    6aeb:	48 8b 85 60 80 ff ff 	mov    rax,QWORD PTR [rbp-0x7fa0]
    6af2:	48 8b 00             	mov    rax,QWORD PTR [rax]
    6af5:	48 89 85 90 80 ff ff 	mov    QWORD PTR [rbp-0x7f70],rax
    6afc:	83 bd 34 80 ff ff 01 	cmp    DWORD PTR [rbp-0x7fcc],0x1
    6b03:	75 10                	jne    6b15 <fwrite@plt+0x5865>
    6b05:	8b 85 34 80 ff ff    	mov    eax,DWORD PTR [rbp-0x7fcc]
    6b0b:	48 98                	cdqe   
    6b0d:	48 89 c7             	mov    rdi,rax
    6b10:	e8 86 f9 ff ff       	call   649b <fwrite@plt+0x51eb>
    6b15:	48 83 bd a0 80 ff ff 	cmp    QWORD PTR [rbp-0x7f60],0x0
    6b1c:	00 
    6b1d:	0f 84 af 02 00 00    	je     6dd2 <fwrite@plt+0x5b22>
    6b23:	48 8b 85 d0 80 ff ff 	mov    rax,QWORD PTR [rbp-0x7f30]
    6b2a:	48 8b 00             	mov    rax,QWORD PTR [rax]
    6b2d:	48 8d 50 01          	lea    rdx,[rax+0x1]
    6b31:	48 8b 85 d0 80 ff ff 	mov    rax,QWORD PTR [rbp-0x7f30]
    6b38:	48 89 10             	mov    QWORD PTR [rax],rdx
    6b3b:	48 83 bd a0 80 ff ff 	cmp    QWORD PTR [rbp-0x7f60],0x0
    6b42:	00 
    6b43:	7e 26                	jle    6b6b <fwrite@plt+0x58bb>
    6b45:	48 8b 85 90 80 ff ff 	mov    rax,QWORD PTR [rbp-0x7f70]
    6b4c:	48 8b 40 18          	mov    rax,QWORD PTR [rax+0x18]
    6b50:	48 89 85 80 80 ff ff 	mov    QWORD PTR [rbp-0x7f80],rax
    6b57:	48 8b 85 90 80 ff ff 	mov    rax,QWORD PTR [rbp-0x7f70]
    6b5e:	48 8b 40 10          	mov    rax,QWORD PTR [rax+0x10]
    6b62:	48 89 85 88 80 ff ff 	mov    QWORD PTR [rbp-0x7f78],rax
    6b69:	eb 24                	jmp    6b8f <fwrite@plt+0x58df>
    6b6b:	48 8b 85 90 80 ff ff 	mov    rax,QWORD PTR [rbp-0x7f70]
    6b72:	48 8b 40 10          	mov    rax,QWORD PTR [rax+0x10]
    6b76:	48 89 85 80 80 ff ff 	mov    QWORD PTR [rbp-0x7f80],rax
    6b7d:	48 8b 85 90 80 ff ff 	mov    rax,QWORD PTR [rbp-0x7f70]
    6b84:	48 8b 40 18          	mov    rax,QWORD PTR [rax+0x18]
    6b88:	48 89 85 88 80 ff ff 	mov    QWORD PTR [rbp-0x7f78],rax
    6b8f:	48 c7 85 48 80 ff ff 	mov    QWORD PTR [rbp-0x7fb8],0x1
    6b96:	01 00 00 00 
    6b9a:	48 8d bd 58 80 ff ff 	lea    rdi,[rbp-0x7fa8]
    6ba1:	48 8b 8d 88 80 ff ff 	mov    rcx,QWORD PTR [rbp-0x7f78]
    6ba8:	48 8b 95 80 80 ff ff 	mov    rdx,QWORD PTR [rbp-0x7f80]
    6baf:	48 8d b5 50 80 ff ff 	lea    rsi,[rbp-0x7fb0]
    6bb6:	48 8d 85 48 80 ff ff 	lea    rax,[rbp-0x7fb8]
    6bbd:	49 89 f8             	mov    r8,rdi
    6bc0:	48 89 c7             	mov    rdi,rax
    6bc3:	e8 89 f6 ff ff       	call   6251 <fwrite@plt+0x4fa1>
    6bc8:	48 89 85 e0 80 ff ff 	mov    QWORD PTR [rbp-0x7f20],rax
    6bcf:	48 83 bd e0 80 ff ff 	cmp    QWORD PTR [rbp-0x7f20],0x0
    6bd6:	00 
    6bd7:	75 7a                	jne    6c53 <fwrite@plt+0x59a3>
    6bd9:	48 8b 85 d8 80 ff ff 	mov    rax,QWORD PTR [rbp-0x7f28]
    6be0:	48 8b 00             	mov    rax,QWORD PTR [rax]
    6be3:	48 8d 50 01          	lea    rdx,[rax+0x1]
    6be7:	48 8b 85 d8 80 ff ff 	mov    rax,QWORD PTR [rbp-0x7f28]
    6bee:	48 89 10             	mov    QWORD PTR [rax],rdx
    6bf1:	48 8b 85 90 80 ff ff 	mov    rax,QWORD PTR [rbp-0x7f70]
    6bf8:	0f b7 40 20          	movzx  eax,WORD PTR [rax+0x20]
    6bfc:	66 83 f8 02          	cmp    ax,0x2
    6c00:	75 0f                	jne    6c11 <fwrite@plt+0x5961>
    6c02:	48 8b 85 90 80 ff ff 	mov    rax,QWORD PTR [rbp-0x7f70]
    6c09:	66 c7 40 20 01 00    	mov    WORD PTR [rax+0x20],0x1
    6c0f:	eb 0d                	jmp    6c1e <fwrite@plt+0x596e>
    6c11:	48 8b 85 90 80 ff ff 	mov    rax,QWORD PTR [rbp-0x7f70]
    6c18:	66 c7 40 20 02 00    	mov    WORD PTR [rax+0x20],0x2
    6c1e:	48 8b 85 48 80 ff ff 	mov    rax,QWORD PTR [rbp-0x7fb8]
    6c25:	48 85 c0             	test   rax,rax
    6c28:	0f 84 af 01 00 00    	je     6ddd <fwrite@plt+0x5b2d>
    6c2e:	48 8b 95 58 80 ff ff 	mov    rdx,QWORD PTR [rbp-0x7fa8]
    6c35:	48 8b 8d 88 80 ff ff 	mov    rcx,QWORD PTR [rbp-0x7f78]
    6c3c:	48 8b 85 80 80 ff ff 	mov    rax,QWORD PTR [rbp-0x7f80]
    6c43:	48 89 ce             	mov    rsi,rcx
    6c46:	48 89 c7             	mov    rdi,rax
    6c49:	e8 bb f7 ff ff       	call   6409 <fwrite@plt+0x5159>
    6c4e:	e9 8a 01 00 00       	jmp    6ddd <fwrite@plt+0x5b2d>
    6c53:	48 8b 85 50 80 ff ff 	mov    rax,QWORD PTR [rbp-0x7fb0]
    6c5a:	48 85 c0             	test   rax,rax
    6c5d:	74 2a                	je     6c89 <fwrite@plt+0x59d9>
    6c5f:	48 8b 85 88 80 ff ff 	mov    rax,QWORD PTR [rbp-0x7f78]
    6c66:	48 89 85 e8 80 ff ff 	mov    QWORD PTR [rbp-0x7f18],rax
    6c6d:	48 8b 85 80 80 ff ff 	mov    rax,QWORD PTR [rbp-0x7f80]
    6c74:	48 89 85 88 80 ff ff 	mov    QWORD PTR [rbp-0x7f78],rax
    6c7b:	48 8b 85 e8 80 ff ff 	mov    rax,QWORD PTR [rbp-0x7f18]
    6c82:	48 89 85 80 80 ff ff 	mov    QWORD PTR [rbp-0x7f80],rax
    6c89:	48 8b 85 e0 80 ff ff 	mov    rax,QWORD PTR [rbp-0x7f20]
    6c90:	48 8b 40 18          	mov    rax,QWORD PTR [rax+0x18]
    6c94:	48 89 85 f0 80 ff ff 	mov    QWORD PTR [rbp-0x7f10],rax
    6c9b:	48 8b 85 e0 80 ff ff 	mov    rax,QWORD PTR [rbp-0x7f20]
    6ca2:	48 8b 40 30          	mov    rax,QWORD PTR [rax+0x30]
    6ca6:	48 89 85 f8 80 ff ff 	mov    QWORD PTR [rbp-0x7f08],rax
    6cad:	48 8b 85 e0 80 ff ff 	mov    rax,QWORD PTR [rbp-0x7f20]
    6cb4:	8b 40 08             	mov    eax,DWORD PTR [rax+0x8]
    6cb7:	48 63 d0             	movsxd rdx,eax
    6cba:	48 8b 85 50 80 ff ff 	mov    rax,QWORD PTR [rbp-0x7fb0]
    6cc1:	48 39 c2             	cmp    rdx,rax
    6cc4:	74 0d                	je     6cd3 <fwrite@plt+0x5a23>
    6cc6:	48 c7 85 98 80 ff ff 	mov    QWORD PTR [rbp-0x7f68],0x1
    6ccd:	01 00 00 00 
    6cd1:	eb 0b                	jmp    6cde <fwrite@plt+0x5a2e>
    6cd3:	48 c7 85 98 80 ff ff 	mov    QWORD PTR [rbp-0x7f68],0x2
    6cda:	02 00 00 00 
    6cde:	48 83 bd a0 80 ff ff 	cmp    QWORD PTR [rbp-0x7f60],0x0
    6ce5:	00 
    6ce6:	7e 1b                	jle    6d03 <fwrite@plt+0x5a53>
    6ce8:	48 8b 85 48 80 ff ff 	mov    rax,QWORD PTR [rbp-0x7fb8]
    6cef:	ba 01 00 00 00       	mov    edx,0x1
    6cf4:	48 29 c2             	sub    rdx,rax
    6cf7:	48 89 d0             	mov    rax,rdx
    6cfa:	48 89 85 70 80 ff ff 	mov    QWORD PTR [rbp-0x7f90],rax
    6d01:	eb 0e                	jmp    6d11 <fwrite@plt+0x5a61>
    6d03:	48 8b 85 48 80 ff ff 	mov    rax,QWORD PTR [rbp-0x7fb8]
    6d0a:	48 89 85 70 80 ff ff 	mov    QWORD PTR [rbp-0x7f90],rax
    6d11:	48 8b 85 90 80 ff ff 	mov    rax,QWORD PTR [rbp-0x7f70]
    6d18:	48 8b 40 10          	mov    rax,QWORD PTR [rax+0x10]
    6d1c:	48 39 85 80 80 ff ff 	cmp    QWORD PTR [rbp-0x7f80],rax
    6d23:	75 0d                	jne    6d32 <fwrite@plt+0x5a82>
    6d25:	48 c7 85 78 80 ff ff 	mov    QWORD PTR [rbp-0x7f88],0x1
    6d2c:	01 00 00 00 
    6d30:	eb 0b                	jmp    6d3d <fwrite@plt+0x5a8d>
    6d32:	48 c7 85 78 80 ff ff 	mov    QWORD PTR [rbp-0x7f88],0x0
    6d39:	00 00 00 00 
    6d3d:	48 8b 85 38 80 ff ff 	mov    rax,QWORD PTR [rbp-0x7fc8]
    6d44:	4c 8b 80 00 02 00 00 	mov    r8,QWORD PTR [rax+0x200]
    6d4b:	48 8b bd 58 80 ff ff 	mov    rdi,QWORD PTR [rbp-0x7fa8]
    6d52:	48 8b 95 48 80 ff ff 	mov    rdx,QWORD PTR [rbp-0x7fb8]
    6d59:	48 8b 85 50 80 ff ff 	mov    rax,QWORD PTR [rbp-0x7fb0]
    6d60:	48 85 c0             	test   rax,rax
    6d63:	0f 94 c0             	sete   al
    6d66:	0f b6 c0             	movzx  eax,al
    6d69:	4c 8b 8d 88 80 ff ff 	mov    r9,QWORD PTR [rbp-0x7f78]
    6d70:	4c 8b 95 80 80 ff ff 	mov    r10,QWORD PTR [rbp-0x7f80]
    6d77:	48 8b 8d 70 80 ff ff 	mov    rcx,QWORD PTR [rbp-0x7f90]
    6d7e:	48 8b b5 78 80 ff ff 	mov    rsi,QWORD PTR [rbp-0x7f88]
    6d85:	41 50                	push   r8
    6d87:	ff b5 a0 80 ff ff    	push   QWORD PTR [rbp-0x7f60]
    6d8d:	ff b5 90 80 ff ff    	push   QWORD PTR [rbp-0x7f70]
    6d93:	57                   	push   rdi
    6d94:	ff b5 f0 80 ff ff    	push   QWORD PTR [rbp-0x7f10]
    6d9a:	ff b5 e0 80 ff ff    	push   QWORD PTR [rbp-0x7f20]
    6da0:	4d 89 d0             	mov    r8,r10
    6da3:	48 89 c7             	mov    rdi,rax
    6da6:	e8 83 f0 ff ff       	call   5e2e <fwrite@plt+0x4b7e>
    6dab:	48 83 c4 30          	add    rsp,0x30
    6daf:	48 8b 85 90 80 ff ff 	mov    rax,QWORD PTR [rbp-0x7f70]
    6db6:	66 c7 40 20 00 00    	mov    WORD PTR [rax+0x20],0x0
    6dbc:	48 8b 85 98 80 ff ff 	mov    rax,QWORD PTR [rbp-0x7f68]
    6dc3:	89 c2                	mov    edx,eax
    6dc5:	48 8b 85 f8 80 ff ff 	mov    rax,QWORD PTR [rbp-0x7f08]
    6dcc:	66 89 50 20          	mov    WORD PTR [rax+0x20],dx
    6dd0:	eb 0b                	jmp    6ddd <fwrite@plt+0x5b2d>
    6dd2:	48 c7 05 a3 42 00 00 	mov    QWORD PTR [rip+0x42a3],0x1        # b080 <stderr@@GLIBC_2.2.5+0x40>
    6dd9:	01 00 00 00 
    6ddd:	48 8b 05 9c 42 00 00 	mov    rax,QWORD PTR [rip+0x429c]        # b080 <stderr@@GLIBC_2.2.5+0x40>
    6de4:	48 85 c0             	test   rax,rax
    6de7:	0f 84 76 fb ff ff    	je     6963 <fwrite@plt+0x56b3>
    6ded:	90                   	nop
    6dee:	48 8b 45 e8          	mov    rax,QWORD PTR [rbp-0x18]
    6df2:	64 48 33 04 25 28 00 	xor    rax,QWORD PTR fs:0x28
    6df9:	00 00 
    6dfb:	74 05                	je     6e02 <fwrite@plt+0x5b52>
    6dfd:	e8 ce a3 ff ff       	call   11d0 <__stack_chk_fail@plt>
    6e02:	48 8b 5d f8          	mov    rbx,QWORD PTR [rbp-0x8]
    6e06:	c9                   	leave  
    6e07:	c3                   	ret    
    6e08:	f3 0f 1e fa          	endbr64 
    6e0c:	55                   	push   rbp
    6e0d:	48 89 e5             	mov    rbp,rsp
    6e10:	48 83 ec 20          	sub    rsp,0x20
    6e14:	48 89 7d e8          	mov    QWORD PTR [rbp-0x18],rdi
    6e18:	c7 45 f8 01 00 00 00 	mov    DWORD PTR [rbp-0x8],0x1
    6e1f:	8b 45 f8             	mov    eax,DWORD PTR [rbp-0x8]
    6e22:	48 98                	cdqe   
    6e24:	be 08 00 00 00       	mov    esi,0x8
    6e29:	48 89 c7             	mov    rdi,rax
    6e2c:	e8 df a3 ff ff       	call   1210 <calloc@plt>
    6e31:	48 89 05 38 42 00 00 	mov    QWORD PTR [rip+0x4238],rax        # b070 <stderr@@GLIBC_2.2.5+0x30>
    6e38:	8b 45 f8             	mov    eax,DWORD PTR [rbp-0x8]
    6e3b:	48 98                	cdqe   
    6e3d:	be 08 00 00 00       	mov    esi,0x8
    6e42:	48 89 c7             	mov    rdi,rax
    6e45:	e8 c6 a3 ff ff       	call   1210 <calloc@plt>
    6e4a:	48 89 05 17 42 00 00 	mov    QWORD PTR [rip+0x4217],rax        # b068 <stderr@@GLIBC_2.2.5+0x28>
    6e51:	8b 45 f8             	mov    eax,DWORD PTR [rbp-0x8]
    6e54:	48 98                	cdqe   
    6e56:	be 08 00 00 00       	mov    esi,0x8
    6e5b:	48 89 c7             	mov    rdi,rax
    6e5e:	e8 ad a3 ff ff       	call   1210 <calloc@plt>
    6e63:	48 89 05 0e 42 00 00 	mov    QWORD PTR [rip+0x420e],rax        # b078 <stderr@@GLIBC_2.2.5+0x38>
    6e6a:	b8 a0 0f 00 00       	mov    eax,0xfa0
    6e6f:	99                   	cdq    
    6e70:	f7 7d f8             	idiv   DWORD PTR [rbp-0x8]
    6e73:	05 05 01 00 00       	add    eax,0x105
    6e78:	0f af 45 f8          	imul   eax,DWORD PTR [rbp-0x8]
    6e7c:	48 98                	cdqe   
    6e7e:	be 20 00 00 00       	mov    esi,0x20
    6e83:	48 89 c7             	mov    rdi,rax
    6e86:	e8 85 a3 ff ff       	call   1210 <calloc@plt>
    6e8b:	48 89 05 f6 41 00 00 	mov    QWORD PTR [rip+0x41f6],rax        # b088 <stderr@@GLIBC_2.2.5+0x48>
    6e92:	48 8b 45 e8          	mov    rax,QWORD PTR [rbp-0x18]
    6e96:	48 8b 90 38 02 00 00 	mov    rdx,QWORD PTR [rax+0x238]
    6e9d:	48 8b 45 e8          	mov    rax,QWORD PTR [rbp-0x18]
    6ea1:	48 89 d6             	mov    rsi,rdx
    6ea4:	48 89 c7             	mov    rdi,rax
    6ea7:	e8 9a 00 00 00       	call   6f46 <fwrite@plt+0x5c96>
    6eac:	c7 45 fc 00 00 00 00 	mov    DWORD PTR [rbp-0x4],0x0
    6eb3:	83 7d fc 00          	cmp    DWORD PTR [rbp-0x4],0x0
    6eb7:	75 13                	jne    6ecc <fwrite@plt+0x5c1c>
    6eb9:	8b 55 f8             	mov    edx,DWORD PTR [rbp-0x8]
    6ebc:	48 8b 45 e8          	mov    rax,QWORD PTR [rbp-0x18]
    6ec0:	89 d6                	mov    esi,edx
    6ec2:	48 89 c7             	mov    rdi,rax
    6ec5:	e8 61 f9 ff ff       	call   682b <fwrite@plt+0x557b>
    6eca:	eb 14                	jmp    6ee0 <fwrite@plt+0x5c30>
    6ecc:	8b 55 f8             	mov    edx,DWORD PTR [rbp-0x8]
    6ecf:	8b 4d fc             	mov    ecx,DWORD PTR [rbp-0x4]
    6ed2:	48 8b 45 e8          	mov    rax,QWORD PTR [rbp-0x18]
    6ed6:	89 ce                	mov    esi,ecx
    6ed8:	48 89 c7             	mov    rdi,rax
    6edb:	e8 f2 f6 ff ff       	call   65d2 <fwrite@plt+0x5322>
    6ee0:	48 8b 45 e8          	mov    rax,QWORD PTR [rbp-0x18]
    6ee4:	48 89 c7             	mov    rdi,rax
    6ee7:	e8 8e af ff ff       	call   1e7a <fwrite@plt+0xbca>
    6eec:	48 8b 45 e8          	mov    rax,QWORD PTR [rbp-0x18]
    6ef0:	48 89 c7             	mov    rdi,rax
    6ef3:	e8 ed b0 ff ff       	call   1fe5 <fwrite@plt+0xd35>
    6ef8:	48 c7 05 7d 41 00 00 	mov    QWORD PTR [rip+0x417d],0x0        # b080 <stderr@@GLIBC_2.2.5+0x40>
    6eff:	00 00 00 00 
    6f03:	48 8b 05 66 41 00 00 	mov    rax,QWORD PTR [rip+0x4166]        # b070 <stderr@@GLIBC_2.2.5+0x30>
    6f0a:	48 89 c7             	mov    rdi,rax
    6f0d:	e8 6e a2 ff ff       	call   1180 <free@plt>
    6f12:	48 8b 05 4f 41 00 00 	mov    rax,QWORD PTR [rip+0x414f]        # b068 <stderr@@GLIBC_2.2.5+0x28>
    6f19:	48 89 c7             	mov    rdi,rax
    6f1c:	e8 5f a2 ff ff       	call   1180 <free@plt>
    6f21:	48 8b 05 50 41 00 00 	mov    rax,QWORD PTR [rip+0x4150]        # b078 <stderr@@GLIBC_2.2.5+0x38>
    6f28:	48 89 c7             	mov    rdi,rax
    6f2b:	e8 50 a2 ff ff       	call   1180 <free@plt>
    6f30:	48 8b 05 51 41 00 00 	mov    rax,QWORD PTR [rip+0x4151]        # b088 <stderr@@GLIBC_2.2.5+0x48>
    6f37:	48 89 c7             	mov    rdi,rax
    6f3a:	e8 41 a2 ff ff       	call   1180 <free@plt>
    6f3f:	b8 00 00 00 00       	mov    eax,0x0
    6f44:	c9                   	leave  
    6f45:	c3                   	ret    
    6f46:	f3 0f 1e fa          	endbr64 
    6f4a:	55                   	push   rbp
    6f4b:	48 89 e5             	mov    rbp,rsp
    6f4e:	48 89 7d f8          	mov    QWORD PTR [rbp-0x8],rdi
    6f52:	48 89 75 f0          	mov    QWORD PTR [rbp-0x10],rsi
    6f56:	48 8b 45 f8          	mov    rax,QWORD PTR [rbp-0x8]
    6f5a:	48 8b 90 78 02 00 00 	mov    rdx,QWORD PTR [rax+0x278]
    6f61:	48 8b 45 f8          	mov    rax,QWORD PTR [rbp-0x8]
    6f65:	48 8b 80 80 02 00 00 	mov    rax,QWORD PTR [rax+0x280]
    6f6c:	48 0f af c2          	imul   rax,rdx
    6f70:	48 89 c2             	mov    rdx,rax
    6f73:	48 89 d0             	mov    rax,rdx
    6f76:	48 c1 e0 03          	shl    rax,0x3
    6f7a:	48 01 d0             	add    rax,rdx
    6f7d:	48 c1 e0 03          	shl    rax,0x3
    6f81:	48 89 c2             	mov    rdx,rax
    6f84:	48 8b 45 f0          	mov    rax,QWORD PTR [rbp-0x10]
    6f88:	48 01 d0             	add    rax,rdx
    6f8b:	48 89 05 fe 40 00 00 	mov    QWORD PTR [rip+0x40fe],rax        # b090 <stderr@@GLIBC_2.2.5+0x50>
    6f92:	90                   	nop
    6f93:	5d                   	pop    rbp
    6f94:	c3                   	ret    
    6f95:	f3 0f 1e fa          	endbr64 
    6f99:	55                   	push   rbp
    6f9a:	48 89 e5             	mov    rbp,rsp
    6f9d:	48 89 7d f8          	mov    QWORD PTR [rbp-0x8],rdi
    6fa1:	48 89 75 f0          	mov    QWORD PTR [rbp-0x10],rsi
    6fa5:	48 83 7d f0 00       	cmp    QWORD PTR [rbp-0x10],0x0
    6faa:	79 0e                	jns    6fba <fwrite@plt+0x5d0a>
    6fac:	48 8b 45 f8          	mov    rax,QWORD PTR [rbp-0x8]
    6fb0:	0f b7 40 20          	movzx  eax,WORD PTR [rax+0x20]
    6fb4:	66 83 f8 01          	cmp    ax,0x1
    6fb8:	74 15                	je     6fcf <fwrite@plt+0x5d1f>
    6fba:	48 83 7d f0 00       	cmp    QWORD PTR [rbp-0x10],0x0
    6fbf:	7e 15                	jle    6fd6 <fwrite@plt+0x5d26>
    6fc1:	48 8b 45 f8          	mov    rax,QWORD PTR [rbp-0x8]
    6fc5:	0f b7 40 20          	movzx  eax,WORD PTR [rax+0x20]
    6fc9:	66 83 f8 02          	cmp    ax,0x2
    6fcd:	75 07                	jne    6fd6 <fwrite@plt+0x5d26>
    6fcf:	b8 01 00 00 00       	mov    eax,0x1
    6fd4:	eb 05                	jmp    6fdb <fwrite@plt+0x5d2b>
    6fd6:	b8 00 00 00 00       	mov    eax,0x0
    6fdb:	5d                   	pop    rbp
    6fdc:	c3                   	ret    
    6fdd:	f3 0f 1e fa          	endbr64 
    6fe1:	55                   	push   rbp
    6fe2:	48 89 e5             	mov    rbp,rsp
    6fe5:	48 89 7d f8          	mov    QWORD PTR [rbp-0x8],rdi
    6fe9:	48 89 75 f0          	mov    QWORD PTR [rbp-0x10],rsi
    6fed:	48 8b 45 f8          	mov    rax,QWORD PTR [rbp-0x8]
    6ff1:	48 8b 00             	mov    rax,QWORD PTR [rax]
    6ff4:	48 8b 50 10          	mov    rdx,QWORD PTR [rax+0x10]
    6ff8:	48 8b 45 f0          	mov    rax,QWORD PTR [rbp-0x10]
    6ffc:	48 8b 00             	mov    rax,QWORD PTR [rax]
    6fff:	48 8b 40 10          	mov    rax,QWORD PTR [rax+0x10]
    7003:	48 39 c2             	cmp    rdx,rax
    7006:	7d 07                	jge    700f <fwrite@plt+0x5d5f>
    7008:	b8 01 00 00 00       	mov    eax,0x1
    700d:	eb 4a                	jmp    7059 <fwrite@plt+0x5da9>
    700f:	48 8b 45 f8          	mov    rax,QWORD PTR [rbp-0x8]
    7013:	48 8b 00             	mov    rax,QWORD PTR [rax]
    7016:	48 8b 50 10          	mov    rdx,QWORD PTR [rax+0x10]
    701a:	48 8b 45 f0          	mov    rax,QWORD PTR [rbp-0x10]
    701e:	48 8b 00             	mov    rax,QWORD PTR [rax]
    7021:	48 8b 40 10          	mov    rax,QWORD PTR [rax+0x10]
    7025:	48 39 c2             	cmp    rdx,rax
    7028:	7e 07                	jle    7031 <fwrite@plt+0x5d81>
    702a:	b8 ff ff ff ff       	mov    eax,0xffffffff
    702f:	eb 28                	jmp    7059 <fwrite@plt+0x5da9>
    7031:	48 8b 45 f8          	mov    rax,QWORD PTR [rbp-0x8]
    7035:	48 8b 00             	mov    rax,QWORD PTR [rax]
    7038:	48 8b 00             	mov    rax,QWORD PTR [rax]
    703b:	8b 10                	mov    edx,DWORD PTR [rax]
    703d:	48 8b 45 f0          	mov    rax,QWORD PTR [rbp-0x10]
    7041:	48 8b 00             	mov    rax,QWORD PTR [rax]
    7044:	48 8b 00             	mov    rax,QWORD PTR [rax]
    7047:	8b 00                	mov    eax,DWORD PTR [rax]
    7049:	39 c2                	cmp    edx,eax
    704b:	7e 07                	jle    7054 <fwrite@plt+0x5da4>
    704d:	b8 01 00 00 00       	mov    eax,0x1
    7052:	eb 05                	jmp    7059 <fwrite@plt+0x5da9>
    7054:	b8 ff ff ff ff       	mov    eax,0xffffffff
    7059:	5d                   	pop    rbp
    705a:	c3                   	ret    
    705b:	f3 0f 1e fa          	endbr64 
    705f:	55                   	push   rbp
    7060:	48 89 e5             	mov    rbp,rsp
    7063:	48 83 ec 70          	sub    rsp,0x70
    7067:	48 89 7d b8          	mov    QWORD PTR [rbp-0x48],rdi
    706b:	48 89 75 b0          	mov    QWORD PTR [rbp-0x50],rsi
    706f:	48 89 55 a8          	mov    QWORD PTR [rbp-0x58],rdx
    7073:	48 89 4d a0          	mov    QWORD PTR [rbp-0x60],rcx
    7077:	4c 89 45 98          	mov    QWORD PTR [rbp-0x68],r8
    707b:	44 89 4d 94          	mov    DWORD PTR [rbp-0x6c],r9d
    707f:	48 c7 45 c0 01 00 00 	mov    QWORD PTR [rbp-0x40],0x1
    7086:	00 
    7087:	48 c7 45 d8 00 00 00 	mov    QWORD PTR [rbp-0x28],0x0
    708e:	00 
    708f:	e9 2b 01 00 00       	jmp    71bf <fwrite@plt+0x5f0f>
    7094:	48 8b 45 c0          	mov    rax,QWORD PTR [rbp-0x40]
    7098:	48 8d 14 c5 00 00 00 	lea    rdx,[rax*8+0x0]
    709f:	00 
    70a0:	48 8b 45 98          	mov    rax,QWORD PTR [rbp-0x68]
    70a4:	48 01 d0             	add    rax,rdx
    70a7:	48 8b 00             	mov    rax,QWORD PTR [rax]
    70aa:	48 8b 00             	mov    rax,QWORD PTR [rax]
    70ad:	48 89 45 e0          	mov    QWORD PTR [rbp-0x20],rax
    70b1:	48 8b 45 c0          	mov    rax,QWORD PTR [rbp-0x40]
    70b5:	48 8d 14 c5 00 00 00 	lea    rdx,[rax*8+0x0]
    70bc:	00 
    70bd:	48 8b 45 98          	mov    rax,QWORD PTR [rbp-0x68]
    70c1:	48 01 d0             	add    rax,rdx
    70c4:	48 8b 00             	mov    rax,QWORD PTR [rax]
    70c7:	48 8b 40 18          	mov    rax,QWORD PTR [rax+0x18]
    70cb:	48 89 45 e8          	mov    QWORD PTR [rbp-0x18],rax
    70cf:	48 8b 45 e0          	mov    rax,QWORD PTR [rbp-0x20]
    70d3:	48 8b 50 08          	mov    rdx,QWORD PTR [rax+0x8]
    70d7:	48 8b 45 e0          	mov    rax,QWORD PTR [rbp-0x20]
    70db:	48 8b 40 10          	mov    rax,QWORD PTR [rax+0x10]
    70df:	48 8b 00             	mov    rax,QWORD PTR [rax]
    70e2:	48 29 c2             	sub    rdx,rax
    70e5:	48 8b 45 e0          	mov    rax,QWORD PTR [rbp-0x20]
    70e9:	48 8b 40 18          	mov    rax,QWORD PTR [rax+0x18]
    70ed:	48 8b 00             	mov    rax,QWORD PTR [rax]
    70f0:	48 01 d0             	add    rax,rdx
    70f3:	48 89 45 f0          	mov    QWORD PTR [rbp-0x10],rax
    70f7:	48 83 7d e8 00       	cmp    QWORD PTR [rbp-0x18],0x0
    70fc:	0f 8e b9 00 00 00    	jle    71bb <fwrite@plt+0x5f0b>
    7102:	48 83 7d f0 00       	cmp    QWORD PTR [rbp-0x10],0x0
    7107:	79 0e                	jns    7117 <fwrite@plt+0x5e67>
    7109:	48 8b 45 e0          	mov    rax,QWORD PTR [rbp-0x20]
    710d:	0f b7 40 20          	movzx  eax,WORD PTR [rax+0x20]
    7111:	66 83 f8 01          	cmp    ax,0x1
    7115:	74 1d                	je     7134 <fwrite@plt+0x5e84>
    7117:	48 83 7d f0 00       	cmp    QWORD PTR [rbp-0x10],0x0
    711c:	0f 8e 99 00 00 00    	jle    71bb <fwrite@plt+0x5f0b>
    7122:	48 8b 45 e0          	mov    rax,QWORD PTR [rbp-0x20]
    7126:	0f b7 40 20          	movzx  eax,WORD PTR [rax+0x20]
    712a:	66 83 f8 02          	cmp    ax,0x2
    712e:	0f 85 87 00 00 00    	jne    71bb <fwrite@plt+0x5f0b>
    7134:	48 ff 45 d8          	inc    QWORD PTR [rbp-0x28]
    7138:	48 8b 45 d8          	mov    rax,QWORD PTR [rbp-0x28]
    713c:	48 8d 14 c5 00 00 00 	lea    rdx,[rax*8+0x0]
    7143:	00 
    7144:	48 8b 45 98          	mov    rax,QWORD PTR [rbp-0x68]
    7148:	48 01 d0             	add    rax,rdx
    714b:	48 8b 00             	mov    rax,QWORD PTR [rax]
    714e:	48 8b 55 e0          	mov    rdx,QWORD PTR [rbp-0x20]
    7152:	48 89 10             	mov    QWORD PTR [rax],rdx
    7155:	48 8b 45 d8          	mov    rax,QWORD PTR [rbp-0x28]
    7159:	48 8d 14 c5 00 00 00 	lea    rdx,[rax*8+0x0]
    7160:	00 
    7161:	48 8b 45 98          	mov    rax,QWORD PTR [rbp-0x68]
    7165:	48 01 d0             	add    rax,rdx
    7168:	48 8b 00             	mov    rax,QWORD PTR [rax]
    716b:	48 8b 55 f0          	mov    rdx,QWORD PTR [rbp-0x10]
    716f:	48 89 50 08          	mov    QWORD PTR [rax+0x8],rdx
    7173:	48 8b 45 d8          	mov    rax,QWORD PTR [rbp-0x28]
    7177:	48 8d 14 c5 00 00 00 	lea    rdx,[rax*8+0x0]
    717e:	00 
    717f:	48 8b 45 98          	mov    rax,QWORD PTR [rbp-0x68]
    7183:	48 01 d0             	add    rax,rdx
    7186:	48 8b 08             	mov    rcx,QWORD PTR [rax]
    7189:	48 8b 45 f0          	mov    rax,QWORD PTR [rbp-0x10]
    718d:	48 99                	cqo    
    718f:	48 89 d0             	mov    rax,rdx
    7192:	48 33 45 f0          	xor    rax,QWORD PTR [rbp-0x10]
    7196:	48 29 d0             	sub    rax,rdx
    7199:	48 89 41 10          	mov    QWORD PTR [rcx+0x10],rax
    719d:	48 8b 45 d8          	mov    rax,QWORD PTR [rbp-0x28]
    71a1:	48 8d 14 c5 00 00 00 	lea    rdx,[rax*8+0x0]
    71a8:	00 
    71a9:	48 8b 45 98          	mov    rax,QWORD PTR [rbp-0x68]
    71ad:	48 01 d0             	add    rax,rdx
    71b0:	48 8b 00             	mov    rax,QWORD PTR [rax]
    71b3:	48 c7 40 18 00 00 00 	mov    QWORD PTR [rax+0x18],0x0
    71ba:	00 
    71bb:	48 ff 45 c0          	inc    QWORD PTR [rbp-0x40]
    71bf:	48 83 7d c0 3c       	cmp    QWORD PTR [rbp-0x40],0x3c
    71c4:	7f 21                	jg     71e7 <fwrite@plt+0x5f37>
    71c6:	8b 45 94             	mov    eax,DWORD PTR [rbp-0x6c]
    71c9:	48 98                	cdqe   
    71cb:	48 8d 14 c5 00 00 00 	lea    rdx,[rax*8+0x0]
    71d2:	00 
    71d3:	48 8b 45 a0          	mov    rax,QWORD PTR [rbp-0x60]
    71d7:	48 01 d0             	add    rax,rdx
    71da:	48 8b 00             	mov    rax,QWORD PTR [rax]
    71dd:	48 39 45 c0          	cmp    QWORD PTR [rbp-0x40],rax
    71e1:	0f 8e ad fe ff ff    	jle    7094 <fwrite@plt+0x5de4>
    71e7:	8b 45 94             	mov    eax,DWORD PTR [rbp-0x6c]
    71ea:	48 98                	cdqe   
    71ec:	48 8d 14 c5 00 00 00 	lea    rdx,[rax*8+0x0]
    71f3:	00 
    71f4:	48 8b 45 a0          	mov    rax,QWORD PTR [rbp-0x60]
    71f8:	48 01 c2             	add    rdx,rax
    71fb:	48 8b 45 d8          	mov    rax,QWORD PTR [rbp-0x28]
    71ff:	48 89 02             	mov    QWORD PTR [rdx],rax
    7202:	48 8b 45 10          	mov    rax,QWORD PTR [rbp+0x10]
    7206:	48 8b 00             	mov    rax,QWORD PTR [rax]
    7209:	48 89 45 f8          	mov    QWORD PTR [rbp-0x8],rax
    720d:	48 8b 45 10          	mov    rax,QWORD PTR [rbp+0x10]
    7211:	48 8b 08             	mov    rcx,QWORD PTR [rax]
    7214:	48 8b 55 18          	mov    rdx,QWORD PTR [rbp+0x18]
    7218:	48 89 d0             	mov    rax,rdx
    721b:	48 c1 e0 03          	shl    rax,0x3
    721f:	48 01 d0             	add    rax,rdx
    7222:	48 c1 e0 03          	shl    rax,0x3
    7226:	48 01 c8             	add    rax,rcx
    7229:	48 89 45 e0          	mov    QWORD PTR [rbp-0x20],rax
    722d:	48 8b 45 10          	mov    rax,QWORD PTR [rbp+0x10]
    7231:	48 8b 10             	mov    rdx,QWORD PTR [rax]
    7234:	48 8b 05 55 3e 00 00 	mov    rax,QWORD PTR [rip+0x3e55]        # b090 <stderr@@GLIBC_2.2.5+0x50>
    723b:	48 39 c2             	cmp    rdx,rax
    723e:	72 2d                	jb     726d <fwrite@plt+0x5fbd>
    7240:	48 8b 45 10          	mov    rax,QWORD PTR [rbp+0x10]
    7244:	48 8b 08             	mov    rcx,QWORD PTR [rax]
    7247:	48 8b 55 28          	mov    rdx,QWORD PTR [rbp+0x28]
    724b:	48 89 d0             	mov    rax,rdx
    724e:	48 c1 e0 03          	shl    rax,0x3
    7252:	48 01 d0             	add    rax,rdx
    7255:	48 c1 e0 03          	shl    rax,0x3
    7259:	48 83 e8 48          	sub    rax,0x48
    725d:	48 8d 14 01          	lea    rdx,[rcx+rax*1]
    7261:	48 8b 45 10          	mov    rax,QWORD PTR [rbp+0x10]
    7265:	48 89 10             	mov    QWORD PTR [rax],rdx
    7268:	e9 7f 01 00 00       	jmp    73ec <fwrite@plt+0x613c>
    726d:	48 8b 45 10          	mov    rax,QWORD PTR [rbp+0x10]
    7271:	48 8b 08             	mov    rcx,QWORD PTR [rax]
    7274:	48 8b 55 28          	mov    rdx,QWORD PTR [rbp+0x28]
    7278:	48 89 d0             	mov    rax,rdx
    727b:	48 c1 e0 03          	shl    rax,0x3
    727f:	48 01 d0             	add    rax,rdx
    7282:	48 c1 e0 03          	shl    rax,0x3
    7286:	48 8d 14 01          	lea    rdx,[rcx+rax*1]
    728a:	48 8b 45 10          	mov    rax,QWORD PTR [rbp+0x10]
    728e:	48 89 10             	mov    QWORD PTR [rax],rdx
    7291:	e9 56 01 00 00       	jmp    73ec <fwrite@plt+0x613c>
    7296:	48 8b 45 e0          	mov    rax,QWORD PTR [rbp-0x20]
    729a:	0f b7 40 20          	movzx  eax,WORD PTR [rax+0x20]
    729e:	66 85 c0             	test   ax,ax
    72a1:	0f 8e 2f 01 00 00    	jle    73d6 <fwrite@plt+0x6126>
    72a7:	48 8b 45 e0          	mov    rax,QWORD PTR [rbp-0x20]
    72ab:	48 8b 50 08          	mov    rdx,QWORD PTR [rax+0x8]
    72af:	48 8b 45 e0          	mov    rax,QWORD PTR [rbp-0x20]
    72b3:	48 8b 40 10          	mov    rax,QWORD PTR [rax+0x10]
    72b7:	48 8b 00             	mov    rax,QWORD PTR [rax]
    72ba:	48 29 c2             	sub    rdx,rax
    72bd:	48 8b 45 e0          	mov    rax,QWORD PTR [rbp-0x20]
    72c1:	48 8b 40 18          	mov    rax,QWORD PTR [rax+0x18]
    72c5:	48 8b 00             	mov    rax,QWORD PTR [rax]
    72c8:	48 01 d0             	add    rax,rdx
    72cb:	48 89 45 f0          	mov    QWORD PTR [rbp-0x10],rax
    72cf:	48 8b 55 f0          	mov    rdx,QWORD PTR [rbp-0x10]
    72d3:	48 8b 45 e0          	mov    rax,QWORD PTR [rbp-0x20]
    72d7:	48 89 d6             	mov    rsi,rdx
    72da:	48 89 c7             	mov    rdi,rax
    72dd:	e8 b3 fc ff ff       	call   6f95 <fwrite@plt+0x5ce5>
    72e2:	85 c0                	test   eax,eax
    72e4:	0f 84 ec 00 00 00    	je     73d6 <fwrite@plt+0x6126>
    72ea:	8b 45 94             	mov    eax,DWORD PTR [rbp-0x6c]
    72ed:	48 98                	cdqe   
    72ef:	48 8d 14 c5 00 00 00 	lea    rdx,[rax*8+0x0]
    72f6:	00 
    72f7:	48 8b 45 a0          	mov    rax,QWORD PTR [rbp-0x60]
    72fb:	48 01 d0             	add    rax,rdx
    72fe:	48 8b 10             	mov    rdx,QWORD PTR [rax]
    7301:	48 ff c2             	inc    rdx
    7304:	48 89 10             	mov    QWORD PTR [rax],rdx
    7307:	8b 45 94             	mov    eax,DWORD PTR [rbp-0x6c]
    730a:	48 98                	cdqe   
    730c:	48 8d 14 c5 00 00 00 	lea    rdx,[rax*8+0x0]
    7313:	00 
    7314:	48 8b 45 a0          	mov    rax,QWORD PTR [rbp-0x60]
    7318:	48 01 d0             	add    rax,rdx
    731b:	48 8b 00             	mov    rax,QWORD PTR [rax]
    731e:	48 8d 14 c5 00 00 00 	lea    rdx,[rax*8+0x0]
    7325:	00 
    7326:	48 8b 45 98          	mov    rax,QWORD PTR [rbp-0x68]
    732a:	48 01 d0             	add    rax,rdx
    732d:	48 8b 00             	mov    rax,QWORD PTR [rax]
    7330:	48 8b 55 e0          	mov    rdx,QWORD PTR [rbp-0x20]
    7334:	48 89 10             	mov    QWORD PTR [rax],rdx
    7337:	8b 45 94             	mov    eax,DWORD PTR [rbp-0x6c]
    733a:	48 98                	cdqe   
    733c:	48 8d 14 c5 00 00 00 	lea    rdx,[rax*8+0x0]
    7343:	00 
    7344:	48 8b 45 a0          	mov    rax,QWORD PTR [rbp-0x60]
    7348:	48 01 d0             	add    rax,rdx
    734b:	48 8b 00             	mov    rax,QWORD PTR [rax]
    734e:	48 8d 14 c5 00 00 00 	lea    rdx,[rax*8+0x0]
    7355:	00 
    7356:	48 8b 45 98          	mov    rax,QWORD PTR [rbp-0x68]
    735a:	48 01 d0             	add    rax,rdx
    735d:	48 8b 00             	mov    rax,QWORD PTR [rax]
    7360:	48 8b 55 f0          	mov    rdx,QWORD PTR [rbp-0x10]
    7364:	48 89 50 08          	mov    QWORD PTR [rax+0x8],rdx
    7368:	8b 45 94             	mov    eax,DWORD PTR [rbp-0x6c]
    736b:	48 98                	cdqe   
    736d:	48 8d 14 c5 00 00 00 	lea    rdx,[rax*8+0x0]
    7374:	00 
    7375:	48 8b 45 a0          	mov    rax,QWORD PTR [rbp-0x60]
    7379:	48 01 d0             	add    rax,rdx
    737c:	48 8b 00             	mov    rax,QWORD PTR [rax]
    737f:	48 8d 14 c5 00 00 00 	lea    rdx,[rax*8+0x0]
    7386:	00 
    7387:	48 8b 45 98          	mov    rax,QWORD PTR [rbp-0x68]
    738b:	48 01 d0             	add    rax,rdx
    738e:	48 8b 08             	mov    rcx,QWORD PTR [rax]
    7391:	48 8b 45 f0          	mov    rax,QWORD PTR [rbp-0x10]
    7395:	48 99                	cqo    
    7397:	48 89 d0             	mov    rax,rdx
    739a:	48 33 45 f0          	xor    rax,QWORD PTR [rbp-0x10]
    739e:	48 29 d0             	sub    rax,rdx
    73a1:	48 89 41 10          	mov    QWORD PTR [rcx+0x10],rax
    73a5:	8b 45 94             	mov    eax,DWORD PTR [rbp-0x6c]
    73a8:	48 98                	cdqe   
    73aa:	48 8d 14 c5 00 00 00 	lea    rdx,[rax*8+0x0]
    73b1:	00 
    73b2:	48 8b 45 a0          	mov    rax,QWORD PTR [rbp-0x60]
    73b6:	48 01 d0             	add    rax,rdx
    73b9:	48 8b 00             	mov    rax,QWORD PTR [rax]
    73bc:	48 8d 14 c5 00 00 00 	lea    rdx,[rax*8+0x0]
    73c3:	00 
    73c4:	48 8b 45 98          	mov    rax,QWORD PTR [rbp-0x68]
    73c8:	48 01 d0             	add    rax,rdx
    73cb:	48 8b 00             	mov    rax,QWORD PTR [rax]
    73ce:	48 c7 40 18 00 00 00 	mov    QWORD PTR [rax+0x18],0x0
    73d5:	00 
    73d6:	48 8b 55 20          	mov    rdx,QWORD PTR [rbp+0x20]
    73da:	48 89 d0             	mov    rax,rdx
    73dd:	48 c1 e0 03          	shl    rax,0x3
    73e1:	48 01 d0             	add    rax,rdx
    73e4:	48 c1 e0 03          	shl    rax,0x3
    73e8:	48 01 45 e0          	add    QWORD PTR [rbp-0x20],rax
    73ec:	48 8b 45 10          	mov    rax,QWORD PTR [rbp+0x10]
    73f0:	48 8b 00             	mov    rax,QWORD PTR [rax]
    73f3:	48 39 45 e0          	cmp    QWORD PTR [rbp-0x20],rax
    73f7:	0f 82 99 fe ff ff    	jb     7296 <fwrite@plt+0x5fe6>
    73fd:	48 8b 45 10          	mov    rax,QWORD PTR [rbp+0x10]
    7401:	48 8b 00             	mov    rax,QWORD PTR [rax]
    7404:	48 39 45 a8          	cmp    QWORD PTR [rbp-0x58],rax
    7408:	77 0b                	ja     7415 <fwrite@plt+0x6165>
    740a:	48 8b 45 10          	mov    rax,QWORD PTR [rbp+0x10]
    740e:	48 8b 55 b0          	mov    rdx,QWORD PTR [rbp-0x50]
    7412:	48 89 10             	mov    QWORD PTR [rax],rdx
    7415:	48 8b 45 10          	mov    rax,QWORD PTR [rbp+0x10]
    7419:	48 8b 00             	mov    rax,QWORD PTR [rax]
    741c:	48 39 45 f8          	cmp    QWORD PTR [rbp-0x8],rax
    7420:	74 46                	je     7468 <fwrite@plt+0x61b8>
    7422:	48 c7 45 d0 00 00 00 	mov    QWORD PTR [rbp-0x30],0x0
    7429:	00 
    742a:	48 c7 45 c8 00 00 00 	mov    QWORD PTR [rbp-0x38],0x0
    7431:	00 
    7432:	eb 1e                	jmp    7452 <fwrite@plt+0x61a2>
    7434:	48 8b 45 c8          	mov    rax,QWORD PTR [rbp-0x38]
    7438:	48 8d 14 c5 00 00 00 	lea    rdx,[rax*8+0x0]
    743f:	00 
    7440:	48 8b 45 a0          	mov    rax,QWORD PTR [rbp-0x60]
    7444:	48 01 d0             	add    rax,rdx
    7447:	48 8b 00             	mov    rax,QWORD PTR [rax]
    744a:	48 01 45 d0          	add    QWORD PTR [rbp-0x30],rax
    744e:	48 ff 45 c8          	inc    QWORD PTR [rbp-0x38]
    7452:	48 8b 45 c8          	mov    rax,QWORD PTR [rbp-0x38]
    7456:	48 3b 45 20          	cmp    rax,QWORD PTR [rbp+0x20]
    745a:	7c d8                	jl     7434 <fwrite@plt+0x6184>
    745c:	48 83 7d d0 3b       	cmp    QWORD PTR [rbp-0x30],0x3b
    7461:	7f 08                	jg     746b <fwrite@plt+0x61bb>
    7463:	e9 a5 fd ff ff       	jmp    720d <fwrite@plt+0x5f5d>
    7468:	90                   	nop
    7469:	eb 01                	jmp    746c <fwrite@plt+0x61bc>
    746b:	90                   	nop
    746c:	8b 45 94             	mov    eax,DWORD PTR [rbp-0x6c]
    746f:	48 98                	cdqe   
    7471:	48 8d 14 c5 00 00 00 	lea    rdx,[rax*8+0x0]
    7478:	00 
    7479:	48 8b 45 a0          	mov    rax,QWORD PTR [rbp-0x60]
    747d:	48 01 d0             	add    rax,rdx
    7480:	48 8b 00             	mov    rax,QWORD PTR [rax]
    7483:	48 ff c0             	inc    rax
    7486:	48 8d 14 c5 00 00 00 	lea    rdx,[rax*8+0x0]
    748d:	00 
    748e:	48 8b 45 98          	mov    rax,QWORD PTR [rbp-0x68]
    7492:	48 01 d0             	add    rax,rdx
    7495:	48 8b 00             	mov    rax,QWORD PTR [rax]
    7498:	48 c7 40 18 ff ff ff 	mov    QWORD PTR [rax+0x18],0xffffffffffffffff
    749f:	ff 
    74a0:	8b 45 94             	mov    eax,DWORD PTR [rbp-0x6c]
    74a3:	48 98                	cdqe   
    74a5:	48 8d 14 c5 00 00 00 	lea    rdx,[rax*8+0x0]
    74ac:	00 
    74ad:	48 8b 45 a0          	mov    rax,QWORD PTR [rbp-0x60]
    74b1:	48 01 d0             	add    rax,rdx
    74b4:	48 8b 00             	mov    rax,QWORD PTR [rax]
    74b7:	48 85 c0             	test   rax,rax
    74ba:	75 07                	jne    74c3 <fwrite@plt+0x6213>
    74bc:	b8 00 00 00 00       	mov    eax,0x0
    74c1:	eb 3e                	jmp    7501 <fwrite@plt+0x6251>
    74c3:	8b 45 94             	mov    eax,DWORD PTR [rbp-0x6c]
    74c6:	48 98                	cdqe   
    74c8:	48 8d 14 c5 00 00 00 	lea    rdx,[rax*8+0x0]
    74cf:	00 
    74d0:	48 8b 45 a0          	mov    rax,QWORD PTR [rbp-0x60]
    74d4:	48 01 d0             	add    rax,rdx
    74d7:	48 8b 00             	mov    rax,QWORD PTR [rax]
    74da:	48 89 c6             	mov    rsi,rax
    74dd:	48 8b 45 98          	mov    rax,QWORD PTR [rbp-0x68]
    74e1:	48 83 c0 08          	add    rax,0x8
    74e5:	48 8d 0d f1 fa ff ff 	lea    rcx,[rip+0xfffffffffffffaf1]        # 6fdd <fwrite@plt+0x5d2d>
    74ec:	ba 08 00 00 00       	mov    edx,0x8
    74f1:	48 89 c7             	mov    rdi,rax
    74f4:	e8 f5 01 00 00       	call   76ee <fwrite@plt+0x643e>
    74f9:	48 8b 45 98          	mov    rax,QWORD PTR [rbp-0x68]
    74fd:	48 8b 40 08          	mov    rax,QWORD PTR [rax+0x8]
    7501:	c9                   	leave  
    7502:	c3                   	ret    
    7503:	55                   	push   rbp
    7504:	48 89 e5             	mov    rbp,rsp
    7507:	48 83 ec 08          	sub    rsp,0x8
    750b:	48 89 7d 98          	mov    QWORD PTR [rbp-0x68],rdi
    750f:	48 89 75 90          	mov    QWORD PTR [rbp-0x70],rsi
    7513:	89 55 8c             	mov    DWORD PTR [rbp-0x74],edx
    7516:	89 4d 88             	mov    DWORD PTR [rbp-0x78],ecx
    7519:	44 89 45 84          	mov    DWORD PTR [rbp-0x7c],r8d
    751d:	83 7d 88 01          	cmp    DWORD PTR [rbp-0x78],0x1
    7521:	7f 61                	jg     7584 <fwrite@plt+0x62d4>
    7523:	8b 45 8c             	mov    eax,DWORD PTR [rbp-0x74]
    7526:	48 98                	cdqe   
    7528:	48 c1 e8 03          	shr    rax,0x3
    752c:	48 89 45 b0          	mov    QWORD PTR [rbp-0x50],rax
    7530:	48 8b 45 98          	mov    rax,QWORD PTR [rbp-0x68]
    7534:	48 89 45 b8          	mov    QWORD PTR [rbp-0x48],rax
    7538:	48 8b 45 90          	mov    rax,QWORD PTR [rbp-0x70]
    753c:	48 89 45 c0          	mov    QWORD PTR [rbp-0x40],rax
    7540:	48 8b 45 b8          	mov    rax,QWORD PTR [rbp-0x48]
    7544:	48 8b 00             	mov    rax,QWORD PTR [rax]
    7547:	48 89 45 f8          	mov    QWORD PTR [rbp-0x8],rax
    754b:	48 8b 45 b8          	mov    rax,QWORD PTR [rbp-0x48]
    754f:	48 8d 50 08          	lea    rdx,[rax+0x8]
    7553:	48 89 55 b8          	mov    QWORD PTR [rbp-0x48],rdx
    7557:	48 8b 55 c0          	mov    rdx,QWORD PTR [rbp-0x40]
    755b:	48 8b 12             	mov    rdx,QWORD PTR [rdx]
    755e:	48 89 10             	mov    QWORD PTR [rax],rdx
    7561:	48 8b 45 c0          	mov    rax,QWORD PTR [rbp-0x40]
    7565:	48 8d 50 08          	lea    rdx,[rax+0x8]
    7569:	48 89 55 c0          	mov    QWORD PTR [rbp-0x40],rdx
    756d:	48 8b 55 f8          	mov    rdx,QWORD PTR [rbp-0x8]
    7571:	48 89 10             	mov    QWORD PTR [rax],rdx
    7574:	48 ff 4d b0          	dec    QWORD PTR [rbp-0x50]
    7578:	48 83 7d b0 00       	cmp    QWORD PTR [rbp-0x50],0x0
    757d:	7f c1                	jg     7540 <fwrite@plt+0x6290>
    757f:	e9 b3 00 00 00       	jmp    7637 <fwrite@plt+0x6387>
    7584:	83 7d 84 01          	cmp    DWORD PTR [rbp-0x7c],0x1
    7588:	7f 58                	jg     75e2 <fwrite@plt+0x6332>
    758a:	8b 45 8c             	mov    eax,DWORD PTR [rbp-0x74]
    758d:	48 98                	cdqe   
    758f:	48 c1 e8 02          	shr    rax,0x2
    7593:	48 89 45 c8          	mov    QWORD PTR [rbp-0x38],rax
    7597:	48 8b 45 98          	mov    rax,QWORD PTR [rbp-0x68]
    759b:	48 89 45 d0          	mov    QWORD PTR [rbp-0x30],rax
    759f:	48 8b 45 90          	mov    rax,QWORD PTR [rbp-0x70]
    75a3:	48 89 45 d8          	mov    QWORD PTR [rbp-0x28],rax
    75a7:	48 8b 45 d0          	mov    rax,QWORD PTR [rbp-0x30]
    75ab:	8b 00                	mov    eax,DWORD PTR [rax]
    75ad:	89 45 ac             	mov    DWORD PTR [rbp-0x54],eax
    75b0:	48 8b 45 d0          	mov    rax,QWORD PTR [rbp-0x30]
    75b4:	48 8d 50 04          	lea    rdx,[rax+0x4]
    75b8:	48 89 55 d0          	mov    QWORD PTR [rbp-0x30],rdx
    75bc:	48 8b 55 d8          	mov    rdx,QWORD PTR [rbp-0x28]
    75c0:	8b 12                	mov    edx,DWORD PTR [rdx]
    75c2:	89 10                	mov    DWORD PTR [rax],edx
    75c4:	48 8b 45 d8          	mov    rax,QWORD PTR [rbp-0x28]
    75c8:	48 8d 50 04          	lea    rdx,[rax+0x4]
    75cc:	48 89 55 d8          	mov    QWORD PTR [rbp-0x28],rdx
    75d0:	8b 55 ac             	mov    edx,DWORD PTR [rbp-0x54]
    75d3:	89 10                	mov    DWORD PTR [rax],edx
    75d5:	48 ff 4d c8          	dec    QWORD PTR [rbp-0x38]
    75d9:	48 83 7d c8 00       	cmp    QWORD PTR [rbp-0x38],0x0
    75de:	7f c7                	jg     75a7 <fwrite@plt+0x62f7>
    75e0:	eb 55                	jmp    7637 <fwrite@plt+0x6387>
    75e2:	8b 45 8c             	mov    eax,DWORD PTR [rbp-0x74]
    75e5:	48 98                	cdqe   
    75e7:	48 89 45 e0          	mov    QWORD PTR [rbp-0x20],rax
    75eb:	48 8b 45 98          	mov    rax,QWORD PTR [rbp-0x68]
    75ef:	48 89 45 e8          	mov    QWORD PTR [rbp-0x18],rax
    75f3:	48 8b 45 90          	mov    rax,QWORD PTR [rbp-0x70]
    75f7:	48 89 45 f0          	mov    QWORD PTR [rbp-0x10],rax
    75fb:	48 8b 45 e8          	mov    rax,QWORD PTR [rbp-0x18]
    75ff:	0f b6 00             	movzx  eax,BYTE PTR [rax]
    7602:	88 45 ab             	mov    BYTE PTR [rbp-0x55],al
    7605:	48 8b 55 e8          	mov    rdx,QWORD PTR [rbp-0x18]
    7609:	48 8d 42 01          	lea    rax,[rdx+0x1]
    760d:	48 89 45 e8          	mov    QWORD PTR [rbp-0x18],rax
    7611:	48 8b 45 f0          	mov    rax,QWORD PTR [rbp-0x10]
    7615:	0f b6 00             	movzx  eax,BYTE PTR [rax]
    7618:	88 02                	mov    BYTE PTR [rdx],al
    761a:	48 8b 55 f0          	mov    rdx,QWORD PTR [rbp-0x10]
    761e:	48 8d 42 01          	lea    rax,[rdx+0x1]
    7622:	48 89 45 f0          	mov    QWORD PTR [rbp-0x10],rax
    7626:	0f b6 45 ab          	movzx  eax,BYTE PTR [rbp-0x55]
    762a:	88 02                	mov    BYTE PTR [rdx],al
    762c:	48 ff 4d e0          	dec    QWORD PTR [rbp-0x20]
    7630:	48 83 7d e0 00       	cmp    QWORD PTR [rbp-0x20],0x0
    7635:	7f c4                	jg     75fb <fwrite@plt+0x634b>
    7637:	90                   	nop
    7638:	c9                   	leave  
    7639:	c3                   	ret    
    763a:	55                   	push   rbp
    763b:	48 89 e5             	mov    rbp,rsp
    763e:	48 83 ec 20          	sub    rsp,0x20
    7642:	48 89 7d f8          	mov    QWORD PTR [rbp-0x8],rdi
    7646:	48 89 75 f0          	mov    QWORD PTR [rbp-0x10],rsi
    764a:	48 89 55 e8          	mov    QWORD PTR [rbp-0x18],rdx
    764e:	48 89 4d e0          	mov    QWORD PTR [rbp-0x20],rcx
    7652:	48 8b 55 f0          	mov    rdx,QWORD PTR [rbp-0x10]
    7656:	48 8b 45 f8          	mov    rax,QWORD PTR [rbp-0x8]
    765a:	48 8b 4d e0          	mov    rcx,QWORD PTR [rbp-0x20]
    765e:	48 89 d6             	mov    rsi,rdx
    7661:	48 89 c7             	mov    rdi,rax
    7664:	ff d1                	call   rcx
    7666:	85 c0                	test   eax,eax
    7668:	79 42                	jns    76ac <fwrite@plt+0x63fc>
    766a:	48 8b 55 e8          	mov    rdx,QWORD PTR [rbp-0x18]
    766e:	48 8b 45 f0          	mov    rax,QWORD PTR [rbp-0x10]
    7672:	48 8b 4d e0          	mov    rcx,QWORD PTR [rbp-0x20]
    7676:	48 89 d6             	mov    rsi,rdx
    7679:	48 89 c7             	mov    rdi,rax
    767c:	ff d1                	call   rcx
    767e:	85 c0                	test   eax,eax
    7680:	78 24                	js     76a6 <fwrite@plt+0x63f6>
    7682:	48 8b 55 e8          	mov    rdx,QWORD PTR [rbp-0x18]
    7686:	48 8b 45 f8          	mov    rax,QWORD PTR [rbp-0x8]
    768a:	48 8b 4d e0          	mov    rcx,QWORD PTR [rbp-0x20]
    768e:	48 89 d6             	mov    rsi,rdx
    7691:	48 89 c7             	mov    rdi,rax
    7694:	ff d1                	call   rcx
    7696:	85 c0                	test   eax,eax
    7698:	79 06                	jns    76a0 <fwrite@plt+0x63f0>
    769a:	48 8b 45 e8          	mov    rax,QWORD PTR [rbp-0x18]
    769e:	eb 4c                	jmp    76ec <fwrite@plt+0x643c>
    76a0:	48 8b 45 f8          	mov    rax,QWORD PTR [rbp-0x8]
    76a4:	eb 46                	jmp    76ec <fwrite@plt+0x643c>
    76a6:	48 8b 45 f0          	mov    rax,QWORD PTR [rbp-0x10]
    76aa:	eb 40                	jmp    76ec <fwrite@plt+0x643c>
    76ac:	48 8b 55 e8          	mov    rdx,QWORD PTR [rbp-0x18]
    76b0:	48 8b 45 f0          	mov    rax,QWORD PTR [rbp-0x10]
    76b4:	48 8b 4d e0          	mov    rcx,QWORD PTR [rbp-0x20]
    76b8:	48 89 d6             	mov    rsi,rdx
    76bb:	48 89 c7             	mov    rdi,rax
    76be:	ff d1                	call   rcx
    76c0:	85 c0                	test   eax,eax
    76c2:	7f 24                	jg     76e8 <fwrite@plt+0x6438>
    76c4:	48 8b 55 e8          	mov    rdx,QWORD PTR [rbp-0x18]
    76c8:	48 8b 45 f8          	mov    rax,QWORD PTR [rbp-0x8]
    76cc:	48 8b 4d e0          	mov    rcx,QWORD PTR [rbp-0x20]
    76d0:	48 89 d6             	mov    rsi,rdx
    76d3:	48 89 c7             	mov    rdi,rax
    76d6:	ff d1                	call   rcx
    76d8:	85 c0                	test   eax,eax
    76da:	79 06                	jns    76e2 <fwrite@plt+0x6432>
    76dc:	48 8b 45 f8          	mov    rax,QWORD PTR [rbp-0x8]
    76e0:	eb 0a                	jmp    76ec <fwrite@plt+0x643c>
    76e2:	48 8b 45 e8          	mov    rax,QWORD PTR [rbp-0x18]
    76e6:	eb 04                	jmp    76ec <fwrite@plt+0x643c>
    76e8:	48 8b 45 f0          	mov    rax,QWORD PTR [rbp-0x10]
    76ec:	c9                   	leave  
    76ed:	c3                   	ret    
    76ee:	f3 0f 1e fa          	endbr64 
    76f2:	55                   	push   rbp
    76f3:	48 89 e5             	mov    rbp,rsp
    76f6:	48 81 ec c0 00 00 00 	sub    rsp,0xc0
    76fd:	48 89 bd 58 ff ff ff 	mov    QWORD PTR [rbp-0xa8],rdi
    7704:	48 89 b5 50 ff ff ff 	mov    QWORD PTR [rbp-0xb0],rsi
    770b:	48 89 95 48 ff ff ff 	mov    QWORD PTR [rbp-0xb8],rdx
    7712:	48 89 8d 40 ff ff ff 	mov    QWORD PTR [rbp-0xc0],rcx
    7719:	48 8b 85 58 ff ff ff 	mov    rax,QWORD PTR [rbp-0xa8]
    7720:	83 e0 07             	and    eax,0x7
    7723:	48 85 c0             	test   rax,rax
    7726:	75 1f                	jne    7747 <fwrite@plt+0x6497>
    7728:	48 8b 85 48 ff ff ff 	mov    rax,QWORD PTR [rbp-0xb8]
    772f:	83 e0 07             	and    eax,0x7
    7732:	48 85 c0             	test   rax,rax
    7735:	75 10                	jne    7747 <fwrite@plt+0x6497>
    7737:	48 83 bd 48 ff ff ff 	cmp    QWORD PTR [rbp-0xb8],0x8
    773e:	08 
    773f:	0f 95 c0             	setne  al
    7742:	0f b6 c0             	movzx  eax,al
    7745:	eb 05                	jmp    774c <fwrite@plt+0x649c>
    7747:	b8 02 00 00 00       	mov    eax,0x2
    774c:	89 85 64 ff ff ff    	mov    DWORD PTR [rbp-0x9c],eax
    7752:	48 8b 85 58 ff ff ff 	mov    rax,QWORD PTR [rbp-0xa8]
    7759:	83 e0 03             	and    eax,0x3
    775c:	48 85 c0             	test   rax,rax
    775f:	75 1f                	jne    7780 <fwrite@plt+0x64d0>
    7761:	48 8b 85 48 ff ff ff 	mov    rax,QWORD PTR [rbp-0xb8]
    7768:	83 e0 03             	and    eax,0x3
    776b:	48 85 c0             	test   rax,rax
    776e:	75 10                	jne    7780 <fwrite@plt+0x64d0>
    7770:	48 83 bd 48 ff ff ff 	cmp    QWORD PTR [rbp-0xb8],0x4
    7777:	04 
    7778:	0f 95 c0             	setne  al
    777b:	0f b6 c0             	movzx  eax,al
    777e:	eb 05                	jmp    7785 <fwrite@plt+0x64d5>
    7780:	b8 02 00 00 00       	mov    eax,0x2
    7785:	89 85 68 ff ff ff    	mov    DWORD PTR [rbp-0x98],eax
    778b:	c7 85 60 ff ff ff 00 	mov    DWORD PTR [rbp-0xa0],0x0
    7792:	00 00 00 
    7795:	48 83 bd 50 ff ff ff 	cmp    QWORD PTR [rbp-0xb0],0x6
    779c:	06 
    779d:	0f 87 80 01 00 00    	ja     7923 <fwrite@plt+0x6673>
    77a3:	48 8b 95 58 ff ff ff 	mov    rdx,QWORD PTR [rbp-0xa8]
    77aa:	48 8b 85 48 ff ff ff 	mov    rax,QWORD PTR [rbp-0xb8]
    77b1:	48 01 d0             	add    rax,rdx
    77b4:	48 89 45 b0          	mov    QWORD PTR [rbp-0x50],rax
    77b8:	e9 3b 01 00 00       	jmp    78f8 <fwrite@plt+0x6648>
    77bd:	48 8b 45 b0          	mov    rax,QWORD PTR [rbp-0x50]
    77c1:	48 89 45 a8          	mov    QWORD PTR [rbp-0x58],rax
    77c5:	e9 e6 00 00 00       	jmp    78b0 <fwrite@plt+0x6600>
    77ca:	83 bd 64 ff ff ff 00 	cmp    DWORD PTR [rbp-0x9c],0x0
    77d1:	75 49                	jne    781c <fwrite@plt+0x656c>
    77d3:	48 8b 45 a8          	mov    rax,QWORD PTR [rbp-0x58]
    77d7:	48 8b 00             	mov    rax,QWORD PTR [rax]
    77da:	48 89 45 f8          	mov    QWORD PTR [rbp-0x8],rax
    77de:	48 8b 85 48 ff ff ff 	mov    rax,QWORD PTR [rbp-0xb8]
    77e5:	48 f7 d8             	neg    rax
    77e8:	48 89 c2             	mov    rdx,rax
    77eb:	48 8b 45 a8          	mov    rax,QWORD PTR [rbp-0x58]
    77ef:	48 01 d0             	add    rax,rdx
    77f2:	48 8b 10             	mov    rdx,QWORD PTR [rax]
    77f5:	48 8b 45 a8          	mov    rax,QWORD PTR [rbp-0x58]
    77f9:	48 89 10             	mov    QWORD PTR [rax],rdx
    77fc:	48 8b 85 48 ff ff ff 	mov    rax,QWORD PTR [rbp-0xb8]
    7803:	48 f7 d8             	neg    rax
    7806:	48 89 c2             	mov    rdx,rax
    7809:	48 8b 45 a8          	mov    rax,QWORD PTR [rbp-0x58]
    780d:	48 01 c2             	add    rdx,rax
    7810:	48 8b 45 f8          	mov    rax,QWORD PTR [rbp-0x8]
    7814:	48 89 02             	mov    QWORD PTR [rdx],rax
    7817:	e9 86 00 00 00       	jmp    78a2 <fwrite@plt+0x65f2>
    781c:	83 bd 68 ff ff ff 00 	cmp    DWORD PTR [rbp-0x98],0x0
    7823:	75 40                	jne    7865 <fwrite@plt+0x65b5>
    7825:	48 8b 45 a8          	mov    rax,QWORD PTR [rbp-0x58]
    7829:	8b 00                	mov    eax,DWORD PTR [rax]
    782b:	89 45 84             	mov    DWORD PTR [rbp-0x7c],eax
    782e:	48 8b 85 48 ff ff ff 	mov    rax,QWORD PTR [rbp-0xb8]
    7835:	48 f7 d8             	neg    rax
    7838:	48 89 c2             	mov    rdx,rax
    783b:	48 8b 45 a8          	mov    rax,QWORD PTR [rbp-0x58]
    783f:	48 01 d0             	add    rax,rdx
    7842:	8b 10                	mov    edx,DWORD PTR [rax]
    7844:	48 8b 45 a8          	mov    rax,QWORD PTR [rbp-0x58]
    7848:	89 10                	mov    DWORD PTR [rax],edx
    784a:	48 8b 85 48 ff ff ff 	mov    rax,QWORD PTR [rbp-0xb8]
    7851:	48 f7 d8             	neg    rax
    7854:	48 89 c2             	mov    rdx,rax
    7857:	48 8b 45 a8          	mov    rax,QWORD PTR [rbp-0x58]
    785b:	48 01 c2             	add    rdx,rax
    785e:	8b 45 84             	mov    eax,DWORD PTR [rbp-0x7c]
    7861:	89 02                	mov    DWORD PTR [rdx],eax
    7863:	eb 3d                	jmp    78a2 <fwrite@plt+0x65f2>
    7865:	48 8b 85 48 ff ff ff 	mov    rax,QWORD PTR [rbp-0xb8]
    786c:	89 c7                	mov    edi,eax
    786e:	48 8b 85 48 ff ff ff 	mov    rax,QWORD PTR [rbp-0xb8]
    7875:	48 f7 d8             	neg    rax
    7878:	48 89 c2             	mov    rdx,rax
    787b:	48 8b 45 a8          	mov    rax,QWORD PTR [rbp-0x58]
    787f:	48 8d 34 02          	lea    rsi,[rdx+rax*1]
    7883:	8b 8d 68 ff ff ff    	mov    ecx,DWORD PTR [rbp-0x98]
    7889:	8b 95 64 ff ff ff    	mov    edx,DWORD PTR [rbp-0x9c]
    788f:	48 8b 45 a8          	mov    rax,QWORD PTR [rbp-0x58]
    7893:	41 89 c8             	mov    r8d,ecx
    7896:	89 d1                	mov    ecx,edx
    7898:	89 fa                	mov    edx,edi
    789a:	48 89 c7             	mov    rdi,rax
    789d:	e8 61 fc ff ff       	call   7503 <fwrite@plt+0x6253>
    78a2:	48 8b 85 48 ff ff ff 	mov    rax,QWORD PTR [rbp-0xb8]
    78a9:	48 f7 d8             	neg    rax
    78ac:	48 01 45 a8          	add    QWORD PTR [rbp-0x58],rax
    78b0:	48 8b 45 a8          	mov    rax,QWORD PTR [rbp-0x58]
    78b4:	48 3b 85 58 ff ff ff 	cmp    rax,QWORD PTR [rbp-0xa8]
    78bb:	76 30                	jbe    78ed <fwrite@plt+0x663d>
    78bd:	48 8b 85 48 ff ff ff 	mov    rax,QWORD PTR [rbp-0xb8]
    78c4:	48 f7 d8             	neg    rax
    78c7:	48 89 c2             	mov    rdx,rax
    78ca:	48 8b 45 a8          	mov    rax,QWORD PTR [rbp-0x58]
    78ce:	48 8d 0c 02          	lea    rcx,[rdx+rax*1]
    78d2:	48 8b 45 a8          	mov    rax,QWORD PTR [rbp-0x58]
    78d6:	48 8b 95 40 ff ff ff 	mov    rdx,QWORD PTR [rbp-0xc0]
    78dd:	48 89 c6             	mov    rsi,rax
    78e0:	48 89 cf             	mov    rdi,rcx
    78e3:	ff d2                	call   rdx
    78e5:	85 c0                	test   eax,eax
    78e7:	0f 8f dd fe ff ff    	jg     77ca <fwrite@plt+0x651a>
    78ed:	48 8b 85 48 ff ff ff 	mov    rax,QWORD PTR [rbp-0xb8]
    78f4:	48 01 45 b0          	add    QWORD PTR [rbp-0x50],rax
    78f8:	48 8b 85 50 ff ff ff 	mov    rax,QWORD PTR [rbp-0xb0]
    78ff:	48 0f af 85 48 ff ff 	imul   rax,QWORD PTR [rbp-0xb8]
    7906:	ff 
    7907:	48 89 c2             	mov    rdx,rax
    790a:	48 8b 85 58 ff ff ff 	mov    rax,QWORD PTR [rbp-0xa8]
    7911:	48 01 d0             	add    rax,rdx
    7914:	48 39 45 b0          	cmp    QWORD PTR [rbp-0x50],rax
    7918:	0f 82 9f fe ff ff    	jb     77bd <fwrite@plt+0x650d>
    791e:	e9 fb 07 00 00       	jmp    811e <fwrite@plt+0x6e6e>
    7923:	48 8b 85 50 ff ff ff 	mov    rax,QWORD PTR [rbp-0xb0]
    792a:	48 d1 e8             	shr    rax,1
    792d:	48 0f af 85 48 ff ff 	imul   rax,QWORD PTR [rbp-0xb8]
    7934:	ff 
    7935:	48 89 c2             	mov    rdx,rax
    7938:	48 8b 85 58 ff ff ff 	mov    rax,QWORD PTR [rbp-0xa8]
    793f:	48 01 d0             	add    rax,rdx
    7942:	48 89 45 b0          	mov    QWORD PTR [rbp-0x50],rax
    7946:	48 83 bd 50 ff ff ff 	cmp    QWORD PTR [rbp-0xb0],0x7
    794d:	07 
    794e:	0f 86 2d 01 00 00    	jbe    7a81 <fwrite@plt+0x67d1>
    7954:	48 8b 85 58 ff ff ff 	mov    rax,QWORD PTR [rbp-0xa8]
    795b:	48 89 45 a8          	mov    QWORD PTR [rbp-0x58],rax
    795f:	48 8b 85 50 ff ff ff 	mov    rax,QWORD PTR [rbp-0xb0]
    7966:	48 ff c8             	dec    rax
    7969:	48 0f af 85 48 ff ff 	imul   rax,QWORD PTR [rbp-0xb8]
    7970:	ff 
    7971:	48 89 c2             	mov    rdx,rax
    7974:	48 8b 85 58 ff ff ff 	mov    rax,QWORD PTR [rbp-0xa8]
    797b:	48 01 d0             	add    rax,rdx
    797e:	48 89 45 b8          	mov    QWORD PTR [rbp-0x48],rax
    7982:	48 83 bd 50 ff ff ff 	cmp    QWORD PTR [rbp-0xb0],0x28
    7989:	28 
    798a:	0f 86 d2 00 00 00    	jbe    7a62 <fwrite@plt+0x67b2>
    7990:	48 8b 85 50 ff ff ff 	mov    rax,QWORD PTR [rbp-0xb0]
    7997:	48 c1 e8 03          	shr    rax,0x3
    799b:	48 89 c2             	mov    rdx,rax
    799e:	48 8b 85 48 ff ff ff 	mov    rax,QWORD PTR [rbp-0xb8]
    79a5:	48 0f af c2          	imul   rax,rdx
    79a9:	48 89 45 c0          	mov    QWORD PTR [rbp-0x40],rax
    79ad:	48 8b 45 c0          	mov    rax,QWORD PTR [rbp-0x40]
    79b1:	48 8d 14 00          	lea    rdx,[rax+rax*1]
    79b5:	48 8b 45 a8          	mov    rax,QWORD PTR [rbp-0x58]
    79b9:	48 8d 3c 02          	lea    rdi,[rdx+rax*1]
    79bd:	48 8b 55 a8          	mov    rdx,QWORD PTR [rbp-0x58]
    79c1:	48 8b 45 c0          	mov    rax,QWORD PTR [rbp-0x40]
    79c5:	48 8d 34 02          	lea    rsi,[rdx+rax*1]
    79c9:	48 8b 95 40 ff ff ff 	mov    rdx,QWORD PTR [rbp-0xc0]
    79d0:	48 8b 45 a8          	mov    rax,QWORD PTR [rbp-0x58]
    79d4:	48 89 d1             	mov    rcx,rdx
    79d7:	48 89 fa             	mov    rdx,rdi
    79da:	48 89 c7             	mov    rdi,rax
    79dd:	e8 58 fc ff ff       	call   763a <fwrite@plt+0x638a>
    79e2:	48 89 45 a8          	mov    QWORD PTR [rbp-0x58],rax
    79e6:	48 8b 55 b0          	mov    rdx,QWORD PTR [rbp-0x50]
    79ea:	48 8b 45 c0          	mov    rax,QWORD PTR [rbp-0x40]
    79ee:	48 8d 34 02          	lea    rsi,[rdx+rax*1]
    79f2:	48 8b 45 c0          	mov    rax,QWORD PTR [rbp-0x40]
    79f6:	48 f7 d8             	neg    rax
    79f9:	48 89 c2             	mov    rdx,rax
    79fc:	48 8b 45 b0          	mov    rax,QWORD PTR [rbp-0x50]
    7a00:	48 8d 3c 02          	lea    rdi,[rdx+rax*1]
    7a04:	48 8b 95 40 ff ff ff 	mov    rdx,QWORD PTR [rbp-0xc0]
    7a0b:	48 8b 45 b0          	mov    rax,QWORD PTR [rbp-0x50]
    7a0f:	48 89 d1             	mov    rcx,rdx
    7a12:	48 89 f2             	mov    rdx,rsi
    7a15:	48 89 c6             	mov    rsi,rax
    7a18:	e8 1d fc ff ff       	call   763a <fwrite@plt+0x638a>
    7a1d:	48 89 45 b0          	mov    QWORD PTR [rbp-0x50],rax
    7a21:	48 8b 45 c0          	mov    rax,QWORD PTR [rbp-0x40]
    7a25:	48 f7 d8             	neg    rax
    7a28:	48 89 c2             	mov    rdx,rax
    7a2b:	48 8b 45 b8          	mov    rax,QWORD PTR [rbp-0x48]
    7a2f:	48 8d 34 02          	lea    rsi,[rdx+rax*1]
    7a33:	48 8b 45 c0          	mov    rax,QWORD PTR [rbp-0x40]
    7a37:	48 01 c0             	add    rax,rax
    7a3a:	48 f7 d8             	neg    rax
    7a3d:	48 89 c2             	mov    rdx,rax
    7a40:	48 8b 45 b8          	mov    rax,QWORD PTR [rbp-0x48]
    7a44:	48 8d 3c 02          	lea    rdi,[rdx+rax*1]
    7a48:	48 8b 95 40 ff ff ff 	mov    rdx,QWORD PTR [rbp-0xc0]
    7a4f:	48 8b 45 b8          	mov    rax,QWORD PTR [rbp-0x48]
    7a53:	48 89 d1             	mov    rcx,rdx
    7a56:	48 89 c2             	mov    rdx,rax
    7a59:	e8 dc fb ff ff       	call   763a <fwrite@plt+0x638a>
    7a5e:	48 89 45 b8          	mov    QWORD PTR [rbp-0x48],rax
    7a62:	48 8b 8d 40 ff ff ff 	mov    rcx,QWORD PTR [rbp-0xc0]
    7a69:	48 8b 55 b8          	mov    rdx,QWORD PTR [rbp-0x48]
    7a6d:	48 8b 75 b0          	mov    rsi,QWORD PTR [rbp-0x50]
    7a71:	48 8b 45 a8          	mov    rax,QWORD PTR [rbp-0x58]
    7a75:	48 89 c7             	mov    rdi,rax
    7a78:	e8 bd fb ff ff       	call   763a <fwrite@plt+0x638a>
    7a7d:	48 89 45 b0          	mov    QWORD PTR [rbp-0x50],rax
    7a81:	83 bd 64 ff ff ff 00 	cmp    DWORD PTR [rbp-0x9c],0x0
    7a88:	75 2c                	jne    7ab6 <fwrite@plt+0x6806>
    7a8a:	48 8b 85 58 ff ff ff 	mov    rax,QWORD PTR [rbp-0xa8]
    7a91:	48 8b 00             	mov    rax,QWORD PTR [rax]
    7a94:	48 89 45 c8          	mov    QWORD PTR [rbp-0x38],rax
    7a98:	48 8b 45 b0          	mov    rax,QWORD PTR [rbp-0x50]
    7a9c:	48 8b 10             	mov    rdx,QWORD PTR [rax]
    7a9f:	48 8b 85 58 ff ff ff 	mov    rax,QWORD PTR [rbp-0xa8]
    7aa6:	48 89 10             	mov    QWORD PTR [rax],rdx
    7aa9:	48 8b 45 b0          	mov    rax,QWORD PTR [rbp-0x50]
    7aad:	48 8b 55 c8          	mov    rdx,QWORD PTR [rbp-0x38]
    7ab1:	48 89 10             	mov    QWORD PTR [rax],rdx
    7ab4:	eb 64                	jmp    7b1a <fwrite@plt+0x686a>
    7ab6:	83 bd 68 ff ff ff 00 	cmp    DWORD PTR [rbp-0x98],0x0
    7abd:	75 2c                	jne    7aeb <fwrite@plt+0x683b>
    7abf:	48 8b 85 58 ff ff ff 	mov    rax,QWORD PTR [rbp-0xa8]
    7ac6:	8b 00                	mov    eax,DWORD PTR [rax]
    7ac8:	89 85 6c ff ff ff    	mov    DWORD PTR [rbp-0x94],eax
    7ace:	48 8b 45 b0          	mov    rax,QWORD PTR [rbp-0x50]
    7ad2:	8b 10                	mov    edx,DWORD PTR [rax]
    7ad4:	48 8b 85 58 ff ff ff 	mov    rax,QWORD PTR [rbp-0xa8]
    7adb:	89 10                	mov    DWORD PTR [rax],edx
    7add:	48 8b 45 b0          	mov    rax,QWORD PTR [rbp-0x50]
    7ae1:	8b 95 6c ff ff ff    	mov    edx,DWORD PTR [rbp-0x94]
    7ae7:	89 10                	mov    DWORD PTR [rax],edx
    7ae9:	eb 2f                	jmp    7b1a <fwrite@plt+0x686a>
    7aeb:	48 8b 85 48 ff ff ff 	mov    rax,QWORD PTR [rbp-0xb8]
    7af2:	89 c7                	mov    edi,eax
    7af4:	8b 8d 68 ff ff ff    	mov    ecx,DWORD PTR [rbp-0x98]
    7afa:	8b 95 64 ff ff ff    	mov    edx,DWORD PTR [rbp-0x9c]
    7b00:	48 8b 75 b0          	mov    rsi,QWORD PTR [rbp-0x50]
    7b04:	48 8b 85 58 ff ff ff 	mov    rax,QWORD PTR [rbp-0xa8]
    7b0b:	41 89 c8             	mov    r8d,ecx
    7b0e:	89 d1                	mov    ecx,edx
    7b10:	89 fa                	mov    edx,edi
    7b12:	48 89 c7             	mov    rdi,rax
    7b15:	e8 e9 f9 ff ff       	call   7503 <fwrite@plt+0x6253>
    7b1a:	48 8b 95 58 ff ff ff 	mov    rdx,QWORD PTR [rbp-0xa8]
    7b21:	48 8b 85 48 ff ff ff 	mov    rax,QWORD PTR [rbp-0xb8]
    7b28:	48 01 d0             	add    rax,rdx
    7b2b:	48 89 45 90          	mov    QWORD PTR [rbp-0x70],rax
    7b2f:	48 8b 45 90          	mov    rax,QWORD PTR [rbp-0x70]
    7b33:	48 89 45 88          	mov    QWORD PTR [rbp-0x78],rax
    7b37:	48 8b 85 50 ff ff ff 	mov    rax,QWORD PTR [rbp-0xb0]
    7b3e:	48 ff c8             	dec    rax
    7b41:	48 0f af 85 48 ff ff 	imul   rax,QWORD PTR [rbp-0xb8]
    7b48:	ff 
    7b49:	48 89 c2             	mov    rdx,rax
    7b4c:	48 8b 85 58 ff ff ff 	mov    rax,QWORD PTR [rbp-0xa8]
    7b53:	48 01 d0             	add    rax,rdx
    7b56:	48 89 45 a0          	mov    QWORD PTR [rbp-0x60],rax
    7b5a:	48 8b 45 a0          	mov    rax,QWORD PTR [rbp-0x60]
    7b5e:	48 89 45 98          	mov    QWORD PTR [rbp-0x68],rax
    7b62:	e9 b7 00 00 00       	jmp    7c1e <fwrite@plt+0x696e>
    7b67:	83 bd 70 ff ff ff 00 	cmp    DWORD PTR [rbp-0x90],0x0
    7b6e:	0f 85 9f 00 00 00    	jne    7c13 <fwrite@plt+0x6963>
    7b74:	c7 85 60 ff ff ff 01 	mov    DWORD PTR [rbp-0xa0],0x1
    7b7b:	00 00 00 
    7b7e:	83 bd 64 ff ff ff 00 	cmp    DWORD PTR [rbp-0x9c],0x0
    7b85:	75 26                	jne    7bad <fwrite@plt+0x68fd>
    7b87:	48 8b 45 88          	mov    rax,QWORD PTR [rbp-0x78]
    7b8b:	48 8b 00             	mov    rax,QWORD PTR [rax]
    7b8e:	48 89 45 d0          	mov    QWORD PTR [rbp-0x30],rax
    7b92:	48 8b 45 90          	mov    rax,QWORD PTR [rbp-0x70]
    7b96:	48 8b 10             	mov    rdx,QWORD PTR [rax]
    7b99:	48 8b 45 88          	mov    rax,QWORD PTR [rbp-0x78]
    7b9d:	48 89 10             	mov    QWORD PTR [rax],rdx
    7ba0:	48 8b 45 90          	mov    rax,QWORD PTR [rbp-0x70]
    7ba4:	48 8b 55 d0          	mov    rdx,QWORD PTR [rbp-0x30]
    7ba8:	48 89 10             	mov    QWORD PTR [rax],rdx
    7bab:	eb 5b                	jmp    7c08 <fwrite@plt+0x6958>
    7bad:	83 bd 68 ff ff ff 00 	cmp    DWORD PTR [rbp-0x98],0x0
    7bb4:	75 26                	jne    7bdc <fwrite@plt+0x692c>
    7bb6:	48 8b 45 88          	mov    rax,QWORD PTR [rbp-0x78]
    7bba:	8b 00                	mov    eax,DWORD PTR [rax]
    7bbc:	89 85 74 ff ff ff    	mov    DWORD PTR [rbp-0x8c],eax
    7bc2:	48 8b 45 90          	mov    rax,QWORD PTR [rbp-0x70]
    7bc6:	8b 10                	mov    edx,DWORD PTR [rax]
    7bc8:	48 8b 45 88          	mov    rax,QWORD PTR [rbp-0x78]
    7bcc:	89 10                	mov    DWORD PTR [rax],edx
    7bce:	48 8b 45 90          	mov    rax,QWORD PTR [rbp-0x70]
    7bd2:	8b 95 74 ff ff ff    	mov    edx,DWORD PTR [rbp-0x8c]
    7bd8:	89 10                	mov    DWORD PTR [rax],edx
    7bda:	eb 2c                	jmp    7c08 <fwrite@plt+0x6958>
    7bdc:	48 8b 85 48 ff ff ff 	mov    rax,QWORD PTR [rbp-0xb8]
    7be3:	89 c7                	mov    edi,eax
    7be5:	8b 8d 68 ff ff ff    	mov    ecx,DWORD PTR [rbp-0x98]
    7beb:	8b 95 64 ff ff ff    	mov    edx,DWORD PTR [rbp-0x9c]
    7bf1:	48 8b 75 90          	mov    rsi,QWORD PTR [rbp-0x70]
    7bf5:	48 8b 45 88          	mov    rax,QWORD PTR [rbp-0x78]
    7bf9:	41 89 c8             	mov    r8d,ecx
    7bfc:	89 d1                	mov    ecx,edx
    7bfe:	89 fa                	mov    edx,edi
    7c00:	48 89 c7             	mov    rdi,rax
    7c03:	e8 fb f8 ff ff       	call   7503 <fwrite@plt+0x6253>
    7c08:	48 8b 85 48 ff ff ff 	mov    rax,QWORD PTR [rbp-0xb8]
    7c0f:	48 01 45 88          	add    QWORD PTR [rbp-0x78],rax
    7c13:	48 8b 85 48 ff ff ff 	mov    rax,QWORD PTR [rbp-0xb8]
    7c1a:	48 01 45 90          	add    QWORD PTR [rbp-0x70],rax
    7c1e:	48 8b 45 90          	mov    rax,QWORD PTR [rbp-0x70]
    7c22:	48 3b 45 98          	cmp    rax,QWORD PTR [rbp-0x68]
    7c26:	0f 87 ef 00 00 00    	ja     7d1b <fwrite@plt+0x6a6b>
    7c2c:	48 8b 95 58 ff ff ff 	mov    rdx,QWORD PTR [rbp-0xa8]
    7c33:	48 8b 45 90          	mov    rax,QWORD PTR [rbp-0x70]
    7c37:	48 8b 8d 40 ff ff ff 	mov    rcx,QWORD PTR [rbp-0xc0]
    7c3e:	48 89 d6             	mov    rsi,rdx
    7c41:	48 89 c7             	mov    rdi,rax
    7c44:	ff d1                	call   rcx
    7c46:	89 85 70 ff ff ff    	mov    DWORD PTR [rbp-0x90],eax
    7c4c:	83 bd 70 ff ff ff 00 	cmp    DWORD PTR [rbp-0x90],0x0
    7c53:	0f 8e 0e ff ff ff    	jle    7b67 <fwrite@plt+0x68b7>
    7c59:	e9 bd 00 00 00       	jmp    7d1b <fwrite@plt+0x6a6b>
    7c5e:	83 bd 70 ff ff ff 00 	cmp    DWORD PTR [rbp-0x90],0x0
    7c65:	0f 85 a2 00 00 00    	jne    7d0d <fwrite@plt+0x6a5d>
    7c6b:	c7 85 60 ff ff ff 01 	mov    DWORD PTR [rbp-0xa0],0x1
    7c72:	00 00 00 
    7c75:	83 bd 64 ff ff ff 00 	cmp    DWORD PTR [rbp-0x9c],0x0
    7c7c:	75 26                	jne    7ca4 <fwrite@plt+0x69f4>
    7c7e:	48 8b 45 98          	mov    rax,QWORD PTR [rbp-0x68]
    7c82:	48 8b 00             	mov    rax,QWORD PTR [rax]
    7c85:	48 89 45 d8          	mov    QWORD PTR [rbp-0x28],rax
    7c89:	48 8b 45 a0          	mov    rax,QWORD PTR [rbp-0x60]
    7c8d:	48 8b 10             	mov    rdx,QWORD PTR [rax]
    7c90:	48 8b 45 98          	mov    rax,QWORD PTR [rbp-0x68]
    7c94:	48 89 10             	mov    QWORD PTR [rax],rdx
    7c97:	48 8b 45 a0          	mov    rax,QWORD PTR [rbp-0x60]
    7c9b:	48 8b 55 d8          	mov    rdx,QWORD PTR [rbp-0x28]
    7c9f:	48 89 10             	mov    QWORD PTR [rax],rdx
    7ca2:	eb 5b                	jmp    7cff <fwrite@plt+0x6a4f>
    7ca4:	83 bd 68 ff ff ff 00 	cmp    DWORD PTR [rbp-0x98],0x0
    7cab:	75 26                	jne    7cd3 <fwrite@plt+0x6a23>
    7cad:	48 8b 45 98          	mov    rax,QWORD PTR [rbp-0x68]
    7cb1:	8b 00                	mov    eax,DWORD PTR [rax]
    7cb3:	89 85 78 ff ff ff    	mov    DWORD PTR [rbp-0x88],eax
    7cb9:	48 8b 45 a0          	mov    rax,QWORD PTR [rbp-0x60]
    7cbd:	8b 10                	mov    edx,DWORD PTR [rax]
    7cbf:	48 8b 45 98          	mov    rax,QWORD PTR [rbp-0x68]
    7cc3:	89 10                	mov    DWORD PTR [rax],edx
    7cc5:	48 8b 45 a0          	mov    rax,QWORD PTR [rbp-0x60]
    7cc9:	8b 95 78 ff ff ff    	mov    edx,DWORD PTR [rbp-0x88]
    7ccf:	89 10                	mov    DWORD PTR [rax],edx
    7cd1:	eb 2c                	jmp    7cff <fwrite@plt+0x6a4f>
    7cd3:	48 8b 85 48 ff ff ff 	mov    rax,QWORD PTR [rbp-0xb8]
    7cda:	89 c7                	mov    edi,eax
    7cdc:	8b 8d 68 ff ff ff    	mov    ecx,DWORD PTR [rbp-0x98]
    7ce2:	8b 95 64 ff ff ff    	mov    edx,DWORD PTR [rbp-0x9c]
    7ce8:	48 8b 75 a0          	mov    rsi,QWORD PTR [rbp-0x60]
    7cec:	48 8b 45 98          	mov    rax,QWORD PTR [rbp-0x68]
    7cf0:	41 89 c8             	mov    r8d,ecx
    7cf3:	89 d1                	mov    ecx,edx
    7cf5:	89 fa                	mov    edx,edi
    7cf7:	48 89 c7             	mov    rdi,rax
    7cfa:	e8 04 f8 ff ff       	call   7503 <fwrite@plt+0x6253>
    7cff:	48 8b 85 48 ff ff ff 	mov    rax,QWORD PTR [rbp-0xb8]
    7d06:	48 f7 d8             	neg    rax
    7d09:	48 01 45 a0          	add    QWORD PTR [rbp-0x60],rax
    7d0d:	48 8b 85 48 ff ff ff 	mov    rax,QWORD PTR [rbp-0xb8]
    7d14:	48 f7 d8             	neg    rax
    7d17:	48 01 45 98          	add    QWORD PTR [rbp-0x68],rax
    7d1b:	48 8b 45 90          	mov    rax,QWORD PTR [rbp-0x70]
    7d1f:	48 3b 45 98          	cmp    rax,QWORD PTR [rbp-0x68]
    7d23:	77 2d                	ja     7d52 <fwrite@plt+0x6aa2>
    7d25:	48 8b 95 58 ff ff ff 	mov    rdx,QWORD PTR [rbp-0xa8]
    7d2c:	48 8b 45 98          	mov    rax,QWORD PTR [rbp-0x68]
    7d30:	48 8b 8d 40 ff ff ff 	mov    rcx,QWORD PTR [rbp-0xc0]
    7d37:	48 89 d6             	mov    rsi,rdx
    7d3a:	48 89 c7             	mov    rdi,rax
    7d3d:	ff d1                	call   rcx
    7d3f:	89 85 70 ff ff ff    	mov    DWORD PTR [rbp-0x90],eax
    7d45:	83 bd 70 ff ff ff 00 	cmp    DWORD PTR [rbp-0x90],0x0
    7d4c:	0f 89 0c ff ff ff    	jns    7c5e <fwrite@plt+0x69ae>
    7d52:	48 8b 45 90          	mov    rax,QWORD PTR [rbp-0x70]
    7d56:	48 3b 45 98          	cmp    rax,QWORD PTR [rbp-0x68]
    7d5a:	0f 87 b2 00 00 00    	ja     7e12 <fwrite@plt+0x6b62>
    7d60:	83 bd 64 ff ff ff 00 	cmp    DWORD PTR [rbp-0x9c],0x0
    7d67:	75 26                	jne    7d8f <fwrite@plt+0x6adf>
    7d69:	48 8b 45 90          	mov    rax,QWORD PTR [rbp-0x70]
    7d6d:	48 8b 00             	mov    rax,QWORD PTR [rax]
    7d70:	48 89 45 e0          	mov    QWORD PTR [rbp-0x20],rax
    7d74:	48 8b 45 98          	mov    rax,QWORD PTR [rbp-0x68]
    7d78:	48 8b 10             	mov    rdx,QWORD PTR [rax]
    7d7b:	48 8b 45 90          	mov    rax,QWORD PTR [rbp-0x70]
    7d7f:	48 89 10             	mov    QWORD PTR [rax],rdx
    7d82:	48 8b 45 98          	mov    rax,QWORD PTR [rbp-0x68]
    7d86:	48 8b 55 e0          	mov    rdx,QWORD PTR [rbp-0x20]
    7d8a:	48 89 10             	mov    QWORD PTR [rax],rdx
    7d8d:	eb 5b                	jmp    7dea <fwrite@plt+0x6b3a>
    7d8f:	83 bd 68 ff ff ff 00 	cmp    DWORD PTR [rbp-0x98],0x0
    7d96:	75 26                	jne    7dbe <fwrite@plt+0x6b0e>
    7d98:	48 8b 45 90          	mov    rax,QWORD PTR [rbp-0x70]
    7d9c:	8b 00                	mov    eax,DWORD PTR [rax]
    7d9e:	89 85 7c ff ff ff    	mov    DWORD PTR [rbp-0x84],eax
    7da4:	48 8b 45 98          	mov    rax,QWORD PTR [rbp-0x68]
    7da8:	8b 10                	mov    edx,DWORD PTR [rax]
    7daa:	48 8b 45 90          	mov    rax,QWORD PTR [rbp-0x70]
    7dae:	89 10                	mov    DWORD PTR [rax],edx
    7db0:	48 8b 45 98          	mov    rax,QWORD PTR [rbp-0x68]
    7db4:	8b 95 7c ff ff ff    	mov    edx,DWORD PTR [rbp-0x84]
    7dba:	89 10                	mov    DWORD PTR [rax],edx
    7dbc:	eb 2c                	jmp    7dea <fwrite@plt+0x6b3a>
    7dbe:	48 8b 85 48 ff ff ff 	mov    rax,QWORD PTR [rbp-0xb8]
    7dc5:	89 c7                	mov    edi,eax
    7dc7:	8b 8d 68 ff ff ff    	mov    ecx,DWORD PTR [rbp-0x98]
    7dcd:	8b 95 64 ff ff ff    	mov    edx,DWORD PTR [rbp-0x9c]
    7dd3:	48 8b 75 98          	mov    rsi,QWORD PTR [rbp-0x68]
    7dd7:	48 8b 45 90          	mov    rax,QWORD PTR [rbp-0x70]
    7ddb:	41 89 c8             	mov    r8d,ecx
    7dde:	89 d1                	mov    ecx,edx
    7de0:	89 fa                	mov    edx,edi
    7de2:	48 89 c7             	mov    rdi,rax
    7de5:	e8 19 f7 ff ff       	call   7503 <fwrite@plt+0x6253>
    7dea:	c7 85 60 ff ff ff 01 	mov    DWORD PTR [rbp-0xa0],0x1
    7df1:	00 00 00 
    7df4:	48 8b 85 48 ff ff ff 	mov    rax,QWORD PTR [rbp-0xb8]
    7dfb:	48 01 45 90          	add    QWORD PTR [rbp-0x70],rax
    7dff:	48 8b 85 48 ff ff ff 	mov    rax,QWORD PTR [rbp-0xb8]
    7e06:	48 f7 d8             	neg    rax
    7e09:	48 01 45 98          	add    QWORD PTR [rbp-0x68],rax
    7e0d:	e9 0c fe ff ff       	jmp    7c1e <fwrite@plt+0x696e>
    7e12:	90                   	nop
    7e13:	83 bd 60 ff ff ff 00 	cmp    DWORD PTR [rbp-0xa0],0x0
    7e1a:	0f 85 80 01 00 00    	jne    7fa0 <fwrite@plt+0x6cf0>
    7e20:	48 8b 95 58 ff ff ff 	mov    rdx,QWORD PTR [rbp-0xa8]
    7e27:	48 8b 85 48 ff ff ff 	mov    rax,QWORD PTR [rbp-0xb8]
    7e2e:	48 01 d0             	add    rax,rdx
    7e31:	48 89 45 b0          	mov    QWORD PTR [rbp-0x50],rax
    7e35:	e9 3b 01 00 00       	jmp    7f75 <fwrite@plt+0x6cc5>
    7e3a:	48 8b 45 b0          	mov    rax,QWORD PTR [rbp-0x50]
    7e3e:	48 89 45 a8          	mov    QWORD PTR [rbp-0x58],rax
    7e42:	e9 e6 00 00 00       	jmp    7f2d <fwrite@plt+0x6c7d>
    7e47:	83 bd 64 ff ff ff 00 	cmp    DWORD PTR [rbp-0x9c],0x0
    7e4e:	75 49                	jne    7e99 <fwrite@plt+0x6be9>
    7e50:	48 8b 45 a8          	mov    rax,QWORD PTR [rbp-0x58]
    7e54:	48 8b 00             	mov    rax,QWORD PTR [rax]
    7e57:	48 89 45 f0          	mov    QWORD PTR [rbp-0x10],rax
    7e5b:	48 8b 85 48 ff ff ff 	mov    rax,QWORD PTR [rbp-0xb8]
    7e62:	48 f7 d8             	neg    rax
    7e65:	48 89 c2             	mov    rdx,rax
    7e68:	48 8b 45 a8          	mov    rax,QWORD PTR [rbp-0x58]
    7e6c:	48 01 d0             	add    rax,rdx
    7e6f:	48 8b 10             	mov    rdx,QWORD PTR [rax]
    7e72:	48 8b 45 a8          	mov    rax,QWORD PTR [rbp-0x58]
    7e76:	48 89 10             	mov    QWORD PTR [rax],rdx
    7e79:	48 8b 85 48 ff ff ff 	mov    rax,QWORD PTR [rbp-0xb8]
    7e80:	48 f7 d8             	neg    rax
    7e83:	48 89 c2             	mov    rdx,rax
    7e86:	48 8b 45 a8          	mov    rax,QWORD PTR [rbp-0x58]
    7e8a:	48 01 c2             	add    rdx,rax
    7e8d:	48 8b 45 f0          	mov    rax,QWORD PTR [rbp-0x10]
    7e91:	48 89 02             	mov    QWORD PTR [rdx],rax
    7e94:	e9 86 00 00 00       	jmp    7f1f <fwrite@plt+0x6c6f>
    7e99:	83 bd 68 ff ff ff 00 	cmp    DWORD PTR [rbp-0x98],0x0
    7ea0:	75 40                	jne    7ee2 <fwrite@plt+0x6c32>
    7ea2:	48 8b 45 a8          	mov    rax,QWORD PTR [rbp-0x58]
    7ea6:	8b 00                	mov    eax,DWORD PTR [rax]
    7ea8:	89 45 80             	mov    DWORD PTR [rbp-0x80],eax
    7eab:	48 8b 85 48 ff ff ff 	mov    rax,QWORD PTR [rbp-0xb8]
    7eb2:	48 f7 d8             	neg    rax
    7eb5:	48 89 c2             	mov    rdx,rax
    7eb8:	48 8b 45 a8          	mov    rax,QWORD PTR [rbp-0x58]
    7ebc:	48 01 d0             	add    rax,rdx
    7ebf:	8b 10                	mov    edx,DWORD PTR [rax]
    7ec1:	48 8b 45 a8          	mov    rax,QWORD PTR [rbp-0x58]
    7ec5:	89 10                	mov    DWORD PTR [rax],edx
    7ec7:	48 8b 85 48 ff ff ff 	mov    rax,QWORD PTR [rbp-0xb8]
    7ece:	48 f7 d8             	neg    rax
    7ed1:	48 89 c2             	mov    rdx,rax
    7ed4:	48 8b 45 a8          	mov    rax,QWORD PTR [rbp-0x58]
    7ed8:	48 01 c2             	add    rdx,rax
    7edb:	8b 45 80             	mov    eax,DWORD PTR [rbp-0x80]
    7ede:	89 02                	mov    DWORD PTR [rdx],eax
    7ee0:	eb 3d                	jmp    7f1f <fwrite@plt+0x6c6f>
    7ee2:	48 8b 85 48 ff ff ff 	mov    rax,QWORD PTR [rbp-0xb8]
    7ee9:	89 c7                	mov    edi,eax
    7eeb:	48 8b 85 48 ff ff ff 	mov    rax,QWORD PTR [rbp-0xb8]
    7ef2:	48 f7 d8             	neg    rax
    7ef5:	48 89 c2             	mov    rdx,rax
    7ef8:	48 8b 45 a8          	mov    rax,QWORD PTR [rbp-0x58]
    7efc:	48 8d 34 02          	lea    rsi,[rdx+rax*1]
    7f00:	8b 8d 68 ff ff ff    	mov    ecx,DWORD PTR [rbp-0x98]
    7f06:	8b 95 64 ff ff ff    	mov    edx,DWORD PTR [rbp-0x9c]
    7f0c:	48 8b 45 a8          	mov    rax,QWORD PTR [rbp-0x58]
    7f10:	41 89 c8             	mov    r8d,ecx
    7f13:	89 d1                	mov    ecx,edx
    7f15:	89 fa                	mov    edx,edi
    7f17:	48 89 c7             	mov    rdi,rax
    7f1a:	e8 e4 f5 ff ff       	call   7503 <fwrite@plt+0x6253>
    7f1f:	48 8b 85 48 ff ff ff 	mov    rax,QWORD PTR [rbp-0xb8]
    7f26:	48 f7 d8             	neg    rax
    7f29:	48 01 45 a8          	add    QWORD PTR [rbp-0x58],rax
    7f2d:	48 8b 45 a8          	mov    rax,QWORD PTR [rbp-0x58]
    7f31:	48 3b 85 58 ff ff ff 	cmp    rax,QWORD PTR [rbp-0xa8]
    7f38:	76 30                	jbe    7f6a <fwrite@plt+0x6cba>
    7f3a:	48 8b 85 48 ff ff ff 	mov    rax,QWORD PTR [rbp-0xb8]
    7f41:	48 f7 d8             	neg    rax
    7f44:	48 89 c2             	mov    rdx,rax
    7f47:	48 8b 45 a8          	mov    rax,QWORD PTR [rbp-0x58]
    7f4b:	48 8d 0c 02          	lea    rcx,[rdx+rax*1]
    7f4f:	48 8b 45 a8          	mov    rax,QWORD PTR [rbp-0x58]
    7f53:	48 8b 95 40 ff ff ff 	mov    rdx,QWORD PTR [rbp-0xc0]
    7f5a:	48 89 c6             	mov    rsi,rax
    7f5d:	48 89 cf             	mov    rdi,rcx
    7f60:	ff d2                	call   rdx
    7f62:	85 c0                	test   eax,eax
    7f64:	0f 8f dd fe ff ff    	jg     7e47 <fwrite@plt+0x6b97>
    7f6a:	48 8b 85 48 ff ff ff 	mov    rax,QWORD PTR [rbp-0xb8]
    7f71:	48 01 45 b0          	add    QWORD PTR [rbp-0x50],rax
    7f75:	48 8b 85 50 ff ff ff 	mov    rax,QWORD PTR [rbp-0xb0]
    7f7c:	48 0f af 85 48 ff ff 	imul   rax,QWORD PTR [rbp-0xb8]
    7f83:	ff 
    7f84:	48 89 c2             	mov    rdx,rax
    7f87:	48 8b 85 58 ff ff ff 	mov    rax,QWORD PTR [rbp-0xa8]
    7f8e:	48 01 d0             	add    rax,rdx
    7f91:	48 39 45 b0          	cmp    QWORD PTR [rbp-0x50],rax
    7f95:	0f 82 9f fe ff ff    	jb     7e3a <fwrite@plt+0x6b8a>
    7f9b:	e9 7e 01 00 00       	jmp    811e <fwrite@plt+0x6e6e>
    7fa0:	48 8b 85 50 ff ff ff 	mov    rax,QWORD PTR [rbp-0xb0]
    7fa7:	48 0f af 85 48 ff ff 	imul   rax,QWORD PTR [rbp-0xb8]
    7fae:	ff 
    7faf:	48 89 c2             	mov    rdx,rax
    7fb2:	48 8b 85 58 ff ff ff 	mov    rax,QWORD PTR [rbp-0xa8]
    7fb9:	48 01 d0             	add    rax,rdx
    7fbc:	48 89 45 b8          	mov    QWORD PTR [rbp-0x48],rax
    7fc0:	48 8b 45 90          	mov    rax,QWORD PTR [rbp-0x70]
    7fc4:	48 2b 45 88          	sub    rax,QWORD PTR [rbp-0x78]
    7fc8:	48 89 c2             	mov    rdx,rax
    7fcb:	48 8b 45 88          	mov    rax,QWORD PTR [rbp-0x78]
    7fcf:	48 2b 85 58 ff ff ff 	sub    rax,QWORD PTR [rbp-0xa8]
    7fd6:	48 39 c2             	cmp    rdx,rax
    7fd9:	48 0f 4e c2          	cmovle rax,rdx
    7fdd:	48 89 45 e8          	mov    QWORD PTR [rbp-0x18],rax
    7fe1:	48 83 7d e8 00       	cmp    QWORD PTR [rbp-0x18],0x0
    7fe6:	74 3a                	je     8022 <fwrite@plt+0x6d72>
    7fe8:	48 8b 45 e8          	mov    rax,QWORD PTR [rbp-0x18]
    7fec:	89 c7                	mov    edi,eax
    7fee:	48 8b 45 e8          	mov    rax,QWORD PTR [rbp-0x18]
    7ff2:	48 f7 d8             	neg    rax
    7ff5:	48 89 c2             	mov    rdx,rax
    7ff8:	48 8b 45 90          	mov    rax,QWORD PTR [rbp-0x70]
    7ffc:	48 8d 34 02          	lea    rsi,[rdx+rax*1]
    8000:	8b 8d 68 ff ff ff    	mov    ecx,DWORD PTR [rbp-0x98]
    8006:	8b 95 64 ff ff ff    	mov    edx,DWORD PTR [rbp-0x9c]
    800c:	48 8b 85 58 ff ff ff 	mov    rax,QWORD PTR [rbp-0xa8]
    8013:	41 89 c8             	mov    r8d,ecx
    8016:	89 d1                	mov    ecx,edx
    8018:	89 fa                	mov    edx,edi
    801a:	48 89 c7             	mov    rdi,rax
    801d:	e8 e1 f4 ff ff       	call   7503 <fwrite@plt+0x6253>
    8022:	48 8b 45 b8          	mov    rax,QWORD PTR [rbp-0x48]
    8026:	48 2b 45 a0          	sub    rax,QWORD PTR [rbp-0x60]
    802a:	48 89 c2             	mov    rdx,rax
    802d:	48 8b 85 48 ff ff ff 	mov    rax,QWORD PTR [rbp-0xb8]
    8034:	48 29 c2             	sub    rdx,rax
    8037:	48 8b 45 a0          	mov    rax,QWORD PTR [rbp-0x60]
    803b:	48 2b 45 98          	sub    rax,QWORD PTR [rbp-0x68]
    803f:	48 39 c2             	cmp    rdx,rax
    8042:	48 0f 4e c2          	cmovle rax,rdx
    8046:	48 89 45 e8          	mov    QWORD PTR [rbp-0x18],rax
    804a:	48 83 7d e8 00       	cmp    QWORD PTR [rbp-0x18],0x0
    804f:	74 37                	je     8088 <fwrite@plt+0x6dd8>
    8051:	48 8b 45 e8          	mov    rax,QWORD PTR [rbp-0x18]
    8055:	89 c7                	mov    edi,eax
    8057:	48 8b 45 e8          	mov    rax,QWORD PTR [rbp-0x18]
    805b:	48 f7 d8             	neg    rax
    805e:	48 89 c2             	mov    rdx,rax
    8061:	48 8b 45 b8          	mov    rax,QWORD PTR [rbp-0x48]
    8065:	48 8d 34 02          	lea    rsi,[rdx+rax*1]
    8069:	8b 8d 68 ff ff ff    	mov    ecx,DWORD PTR [rbp-0x98]
    806f:	8b 95 64 ff ff ff    	mov    edx,DWORD PTR [rbp-0x9c]
    8075:	48 8b 45 90          	mov    rax,QWORD PTR [rbp-0x70]
    8079:	41 89 c8             	mov    r8d,ecx
    807c:	89 d1                	mov    ecx,edx
    807e:	89 fa                	mov    edx,edi
    8080:	48 89 c7             	mov    rdi,rax
    8083:	e8 7b f4 ff ff       	call   7503 <fwrite@plt+0x6253>
    8088:	48 8b 45 90          	mov    rax,QWORD PTR [rbp-0x70]
    808c:	48 2b 45 88          	sub    rax,QWORD PTR [rbp-0x78]
    8090:	48 89 45 e8          	mov    QWORD PTR [rbp-0x18],rax
    8094:	48 8b 45 e8          	mov    rax,QWORD PTR [rbp-0x18]
    8098:	48 3b 85 48 ff ff ff 	cmp    rax,QWORD PTR [rbp-0xb8]
    809f:	76 30                	jbe    80d1 <fwrite@plt+0x6e21>
    80a1:	48 8b 45 e8          	mov    rax,QWORD PTR [rbp-0x18]
    80a5:	ba 00 00 00 00       	mov    edx,0x0
    80aa:	48 f7 b5 48 ff ff ff 	div    QWORD PTR [rbp-0xb8]
    80b1:	48 89 c6             	mov    rsi,rax
    80b4:	48 8b 8d 40 ff ff ff 	mov    rcx,QWORD PTR [rbp-0xc0]
    80bb:	48 8b 95 48 ff ff ff 	mov    rdx,QWORD PTR [rbp-0xb8]
    80c2:	48 8b 85 58 ff ff ff 	mov    rax,QWORD PTR [rbp-0xa8]
    80c9:	48 89 c7             	mov    rdi,rax
    80cc:	e8 1d f6 ff ff       	call   76ee <fwrite@plt+0x643e>
    80d1:	48 8b 45 a0          	mov    rax,QWORD PTR [rbp-0x60]
    80d5:	48 2b 45 98          	sub    rax,QWORD PTR [rbp-0x68]
    80d9:	48 89 45 e8          	mov    QWORD PTR [rbp-0x18],rax
    80dd:	48 8b 45 e8          	mov    rax,QWORD PTR [rbp-0x18]
    80e1:	48 3b 85 48 ff ff ff 	cmp    rax,QWORD PTR [rbp-0xb8]
    80e8:	76 34                	jbe    811e <fwrite@plt+0x6e6e>
    80ea:	48 8b 45 e8          	mov    rax,QWORD PTR [rbp-0x18]
    80ee:	48 f7 d8             	neg    rax
    80f1:	48 89 c2             	mov    rdx,rax
    80f4:	48 8b 45 b8          	mov    rax,QWORD PTR [rbp-0x48]
    80f8:	48 01 d0             	add    rax,rdx
    80fb:	48 89 85 58 ff ff ff 	mov    QWORD PTR [rbp-0xa8],rax
    8102:	48 8b 45 e8          	mov    rax,QWORD PTR [rbp-0x18]
    8106:	ba 00 00 00 00       	mov    edx,0x0
    810b:	48 f7 b5 48 ff ff ff 	div    QWORD PTR [rbp-0xb8]
    8112:	48 89 85 50 ff ff ff 	mov    QWORD PTR [rbp-0xb0],rax
    8119:	e9 fb f5 ff ff       	jmp    7719 <fwrite@plt+0x6469>
    811e:	c9                   	leave  
    811f:	c3                   	ret    
    8120:	f3 0f 1e fa          	endbr64 
    8124:	41 57                	push   r15
    8126:	4c 8d 3d f3 2b 00 00 	lea    r15,[rip+0x2bf3]        # ad20 <fwrite@plt+0x9a70>
    812d:	41 56                	push   r14
    812f:	49 89 d6             	mov    r14,rdx
    8132:	41 55                	push   r13
    8134:	49 89 f5             	mov    r13,rsi
    8137:	41 54                	push   r12
    8139:	41 89 fc             	mov    r12d,edi
    813c:	55                   	push   rbp
    813d:	48 8d 2d e4 2b 00 00 	lea    rbp,[rip+0x2be4]        # ad28 <fwrite@plt+0x9a78>
    8144:	53                   	push   rbx
    8145:	4c 29 fd             	sub    rbp,r15
    8148:	48 83 ec 08          	sub    rsp,0x8
    814c:	e8 af 8e ff ff       	call   1000 <__cxa_finalize@plt-0x170>
    8151:	48 c1 fd 03          	sar    rbp,0x3
    8155:	74 1f                	je     8176 <fwrite@plt+0x6ec6>
    8157:	31 db                	xor    ebx,ebx
    8159:	0f 1f 80 00 00 00 00 	nop    DWORD PTR [rax+0x0]
    8160:	4c 89 f2             	mov    rdx,r14
    8163:	4c 89 ee             	mov    rsi,r13
    8166:	44 89 e7             	mov    edi,r12d
    8169:	41 ff 14 df          	call   QWORD PTR [r15+rbx*8]
    816d:	48 83 c3 01          	add    rbx,0x1
    8171:	48 39 dd             	cmp    rbp,rbx
    8174:	75 ea                	jne    8160 <fwrite@plt+0x6eb0>
    8176:	48 83 c4 08          	add    rsp,0x8
    817a:	5b                   	pop    rbx
    817b:	5d                   	pop    rbp
    817c:	41 5c                	pop    r12
    817e:	41 5d                	pop    r13
    8180:	41 5e                	pop    r14
    8182:	41 5f                	pop    r15
    8184:	c3                   	ret    
    8185:	66 66 2e 0f 1f 84 00 	data16 cs nop WORD PTR [rax+rax*1+0x0]
    818c:	00 00 00 00 
    8190:	f3 0f 1e fa          	endbr64 
    8194:	c3                   	ret    

Disassembly of section .fini:

0000000000008198 <.fini>:
    8198:	f3 0f 1e fa          	endbr64 
    819c:	48 83 ec 08          	sub    rsp,0x8
    81a0:	48 83 c4 08          	add    rsp,0x8
    81a4:	c3                   	ret    
