
/home/jjang/Desktop/sample/gcc/531/strip/deepsjeng_r_op1:     file format elf64-x86-64


Disassembly of section .init:

0000000000001000 <.init>:
    1000:	f3 0f 1e fa          	endbr64 
    1004:	48 83 ec 08          	sub    rsp,0x8
    1008:	48 8b 05 d9 5f 01 00 	mov    rax,QWORD PTR [rip+0x15fd9]        # 16fe8 <__sprintf_chk@plt+0x15c98>
    100f:	48 85 c0             	test   rax,rax
    1012:	74 02                	je     1016 <__cxa_finalize@plt-0x1aa>
    1014:	ff d0                	call   rax
    1016:	48 83 c4 08          	add    rsp,0x8
    101a:	c3                   	ret    

Disassembly of section .plt:

0000000000001020 <.plt>:
    1020:	ff 35 da 5e 01 00    	push   QWORD PTR [rip+0x15eda]        # 16f00 <__sprintf_chk@plt+0x15bb0>
    1026:	f2 ff 25 db 5e 01 00 	bnd jmp QWORD PTR [rip+0x15edb]        # 16f08 <__sprintf_chk@plt+0x15bb8>
    102d:	0f 1f 00             	nop    DWORD PTR [rax]
    1030:	f3 0f 1e fa          	endbr64 
    1034:	68 00 00 00 00       	push   0x0
    1039:	f2 e9 e1 ff ff ff    	bnd jmp 1020 <__cxa_finalize@plt-0x1a0>
    103f:	90                   	nop
    1040:	f3 0f 1e fa          	endbr64 
    1044:	68 01 00 00 00       	push   0x1
    1049:	f2 e9 d1 ff ff ff    	bnd jmp 1020 <__cxa_finalize@plt-0x1a0>
    104f:	90                   	nop
    1050:	f3 0f 1e fa          	endbr64 
    1054:	68 02 00 00 00       	push   0x2
    1059:	f2 e9 c1 ff ff ff    	bnd jmp 1020 <__cxa_finalize@plt-0x1a0>
    105f:	90                   	nop
    1060:	f3 0f 1e fa          	endbr64 
    1064:	68 03 00 00 00       	push   0x3
    1069:	f2 e9 b1 ff ff ff    	bnd jmp 1020 <__cxa_finalize@plt-0x1a0>
    106f:	90                   	nop
    1070:	f3 0f 1e fa          	endbr64 
    1074:	68 04 00 00 00       	push   0x4
    1079:	f2 e9 a1 ff ff ff    	bnd jmp 1020 <__cxa_finalize@plt-0x1a0>
    107f:	90                   	nop
    1080:	f3 0f 1e fa          	endbr64 
    1084:	68 05 00 00 00       	push   0x5
    1089:	f2 e9 91 ff ff ff    	bnd jmp 1020 <__cxa_finalize@plt-0x1a0>
    108f:	90                   	nop
    1090:	f3 0f 1e fa          	endbr64 
    1094:	68 06 00 00 00       	push   0x6
    1099:	f2 e9 81 ff ff ff    	bnd jmp 1020 <__cxa_finalize@plt-0x1a0>
    109f:	90                   	nop
    10a0:	f3 0f 1e fa          	endbr64 
    10a4:	68 07 00 00 00       	push   0x7
    10a9:	f2 e9 71 ff ff ff    	bnd jmp 1020 <__cxa_finalize@plt-0x1a0>
    10af:	90                   	nop
    10b0:	f3 0f 1e fa          	endbr64 
    10b4:	68 08 00 00 00       	push   0x8
    10b9:	f2 e9 61 ff ff ff    	bnd jmp 1020 <__cxa_finalize@plt-0x1a0>
    10bf:	90                   	nop
    10c0:	f3 0f 1e fa          	endbr64 
    10c4:	68 09 00 00 00       	push   0x9
    10c9:	f2 e9 51 ff ff ff    	bnd jmp 1020 <__cxa_finalize@plt-0x1a0>
    10cf:	90                   	nop
    10d0:	f3 0f 1e fa          	endbr64 
    10d4:	68 0a 00 00 00       	push   0xa
    10d9:	f2 e9 41 ff ff ff    	bnd jmp 1020 <__cxa_finalize@plt-0x1a0>
    10df:	90                   	nop
    10e0:	f3 0f 1e fa          	endbr64 
    10e4:	68 0b 00 00 00       	push   0xb
    10e9:	f2 e9 31 ff ff ff    	bnd jmp 1020 <__cxa_finalize@plt-0x1a0>
    10ef:	90                   	nop
    10f0:	f3 0f 1e fa          	endbr64 
    10f4:	68 0c 00 00 00       	push   0xc
    10f9:	f2 e9 21 ff ff ff    	bnd jmp 1020 <__cxa_finalize@plt-0x1a0>
    10ff:	90                   	nop
    1100:	f3 0f 1e fa          	endbr64 
    1104:	68 0d 00 00 00       	push   0xd
    1109:	f2 e9 11 ff ff ff    	bnd jmp 1020 <__cxa_finalize@plt-0x1a0>
    110f:	90                   	nop
    1110:	f3 0f 1e fa          	endbr64 
    1114:	68 0e 00 00 00       	push   0xe
    1119:	f2 e9 01 ff ff ff    	bnd jmp 1020 <__cxa_finalize@plt-0x1a0>
    111f:	90                   	nop
    1120:	f3 0f 1e fa          	endbr64 
    1124:	68 0f 00 00 00       	push   0xf
    1129:	f2 e9 f1 fe ff ff    	bnd jmp 1020 <__cxa_finalize@plt-0x1a0>
    112f:	90                   	nop
    1130:	f3 0f 1e fa          	endbr64 
    1134:	68 10 00 00 00       	push   0x10
    1139:	f2 e9 e1 fe ff ff    	bnd jmp 1020 <__cxa_finalize@plt-0x1a0>
    113f:	90                   	nop
    1140:	f3 0f 1e fa          	endbr64 
    1144:	68 11 00 00 00       	push   0x11
    1149:	f2 e9 d1 fe ff ff    	bnd jmp 1020 <__cxa_finalize@plt-0x1a0>
    114f:	90                   	nop
    1150:	f3 0f 1e fa          	endbr64 
    1154:	68 12 00 00 00       	push   0x12
    1159:	f2 e9 c1 fe ff ff    	bnd jmp 1020 <__cxa_finalize@plt-0x1a0>
    115f:	90                   	nop
    1160:	f3 0f 1e fa          	endbr64 
    1164:	68 13 00 00 00       	push   0x13
    1169:	f2 e9 b1 fe ff ff    	bnd jmp 1020 <__cxa_finalize@plt-0x1a0>
    116f:	90                   	nop
    1170:	f3 0f 1e fa          	endbr64 
    1174:	68 14 00 00 00       	push   0x14
    1179:	f2 e9 a1 fe ff ff    	bnd jmp 1020 <__cxa_finalize@plt-0x1a0>
    117f:	90                   	nop
    1180:	f3 0f 1e fa          	endbr64 
    1184:	68 15 00 00 00       	push   0x15
    1189:	f2 e9 91 fe ff ff    	bnd jmp 1020 <__cxa_finalize@plt-0x1a0>
    118f:	90                   	nop
    1190:	f3 0f 1e fa          	endbr64 
    1194:	68 16 00 00 00       	push   0x16
    1199:	f2 e9 81 fe ff ff    	bnd jmp 1020 <__cxa_finalize@plt-0x1a0>
    119f:	90                   	nop
    11a0:	f3 0f 1e fa          	endbr64 
    11a4:	68 17 00 00 00       	push   0x17
    11a9:	f2 e9 71 fe ff ff    	bnd jmp 1020 <__cxa_finalize@plt-0x1a0>
    11af:	90                   	nop
    11b0:	f3 0f 1e fa          	endbr64 
    11b4:	68 18 00 00 00       	push   0x18
    11b9:	f2 e9 61 fe ff ff    	bnd jmp 1020 <__cxa_finalize@plt-0x1a0>
    11bf:	90                   	nop

Disassembly of section .plt.got:

00000000000011c0 <__cxa_finalize@plt>:
    11c0:	f3 0f 1e fa          	endbr64 
    11c4:	f2 ff 25 2d 5e 01 00 	bnd jmp QWORD PTR [rip+0x15e2d]        # 16ff8 <__sprintf_chk@plt+0x15ca8>
    11cb:	0f 1f 44 00 00       	nop    DWORD PTR [rax+rax*1+0x0]

Disassembly of section .plt.sec:

00000000000011d0 <__strcat_chk@plt>:
    11d0:	f3 0f 1e fa          	endbr64 
    11d4:	f2 ff 25 35 5d 01 00 	bnd jmp QWORD PTR [rip+0x15d35]        # 16f10 <__sprintf_chk@plt+0x15bc0>
    11db:	0f 1f 44 00 00       	nop    DWORD PTR [rax+rax*1+0x0]

00000000000011e0 <free@plt>:
    11e0:	f3 0f 1e fa          	endbr64 
    11e4:	f2 ff 25 2d 5d 01 00 	bnd jmp QWORD PTR [rip+0x15d2d]        # 16f18 <__sprintf_chk@plt+0x15bc8>
    11eb:	0f 1f 44 00 00       	nop    DWORD PTR [rax+rax*1+0x0]

00000000000011f0 <__vfprintf_chk@plt>:
    11f0:	f3 0f 1e fa          	endbr64 
    11f4:	f2 ff 25 25 5d 01 00 	bnd jmp QWORD PTR [rip+0x15d25]        # 16f20 <__sprintf_chk@plt+0x15bd0>
    11fb:	0f 1f 44 00 00       	nop    DWORD PTR [rax+rax*1+0x0]

0000000000001200 <strncpy@plt>:
    1200:	f3 0f 1e fa          	endbr64 
    1204:	f2 ff 25 1d 5d 01 00 	bnd jmp QWORD PTR [rip+0x15d1d]        # 16f28 <__sprintf_chk@plt+0x15bd8>
    120b:	0f 1f 44 00 00       	nop    DWORD PTR [rax+rax*1+0x0]

0000000000001210 <strncmp@plt>:
    1210:	f3 0f 1e fa          	endbr64 
    1214:	f2 ff 25 15 5d 01 00 	bnd jmp QWORD PTR [rip+0x15d15]        # 16f30 <__sprintf_chk@plt+0x15be0>
    121b:	0f 1f 44 00 00       	nop    DWORD PTR [rax+rax*1+0x0]

0000000000001220 <strcpy@plt>:
    1220:	f3 0f 1e fa          	endbr64 
    1224:	f2 ff 25 0d 5d 01 00 	bnd jmp QWORD PTR [rip+0x15d0d]        # 16f38 <__sprintf_chk@plt+0x15be8>
    122b:	0f 1f 44 00 00       	nop    DWORD PTR [rax+rax*1+0x0]

0000000000001230 <fclose@plt>:
    1230:	f3 0f 1e fa          	endbr64 
    1234:	f2 ff 25 05 5d 01 00 	bnd jmp QWORD PTR [rip+0x15d05]        # 16f40 <__sprintf_chk@plt+0x15bf0>
    123b:	0f 1f 44 00 00       	nop    DWORD PTR [rax+rax*1+0x0]

0000000000001240 <__stack_chk_fail@plt>:
    1240:	f3 0f 1e fa          	endbr64 
    1244:	f2 ff 25 fd 5c 01 00 	bnd jmp QWORD PTR [rip+0x15cfd]        # 16f48 <__sprintf_chk@plt+0x15bf8>
    124b:	0f 1f 44 00 00       	nop    DWORD PTR [rax+rax*1+0x0]

0000000000001250 <setbuf@plt>:
    1250:	f3 0f 1e fa          	endbr64 
    1254:	f2 ff 25 f5 5c 01 00 	bnd jmp QWORD PTR [rip+0x15cf5]        # 16f50 <__sprintf_chk@plt+0x15c00>
    125b:	0f 1f 44 00 00       	nop    DWORD PTR [rax+rax*1+0x0]

0000000000001260 <memset@plt>:
    1260:	f3 0f 1e fa          	endbr64 
    1264:	f2 ff 25 ed 5c 01 00 	bnd jmp QWORD PTR [rip+0x15ced]        # 16f58 <__sprintf_chk@plt+0x15c08>
    126b:	0f 1f 44 00 00       	nop    DWORD PTR [rax+rax*1+0x0]

0000000000001270 <fgets@plt>:
    1270:	f3 0f 1e fa          	endbr64 
    1274:	f2 ff 25 e5 5c 01 00 	bnd jmp QWORD PTR [rip+0x15ce5]        # 16f60 <__sprintf_chk@plt+0x15c10>
    127b:	0f 1f 44 00 00       	nop    DWORD PTR [rax+rax*1+0x0]

0000000000001280 <strcmp@plt>:
    1280:	f3 0f 1e fa          	endbr64 
    1284:	f2 ff 25 dd 5c 01 00 	bnd jmp QWORD PTR [rip+0x15cdd]        # 16f68 <__sprintf_chk@plt+0x15c18>
    128b:	0f 1f 44 00 00       	nop    DWORD PTR [rax+rax*1+0x0]

0000000000001290 <strtol@plt>:
    1290:	f3 0f 1e fa          	endbr64 
    1294:	f2 ff 25 d5 5c 01 00 	bnd jmp QWORD PTR [rip+0x15cd5]        # 16f70 <__sprintf_chk@plt+0x15c20>
    129b:	0f 1f 44 00 00       	nop    DWORD PTR [rax+rax*1+0x0]

00000000000012a0 <malloc@plt>:
    12a0:	f3 0f 1e fa          	endbr64 
    12a4:	f2 ff 25 cd 5c 01 00 	bnd jmp QWORD PTR [rip+0x15ccd]        # 16f78 <__sprintf_chk@plt+0x15c28>
    12ab:	0f 1f 44 00 00       	nop    DWORD PTR [rax+rax*1+0x0]

00000000000012b0 <__isoc99_sscanf@plt>:
    12b0:	f3 0f 1e fa          	endbr64 
    12b4:	f2 ff 25 c5 5c 01 00 	bnd jmp QWORD PTR [rip+0x15cc5]        # 16f80 <__sprintf_chk@plt+0x15c30>
    12bb:	0f 1f 44 00 00       	nop    DWORD PTR [rax+rax*1+0x0]

00000000000012c0 <ungetc@plt>:
    12c0:	f3 0f 1e fa          	endbr64 
    12c4:	f2 ff 25 bd 5c 01 00 	bnd jmp QWORD PTR [rip+0x15cbd]        # 16f88 <__sprintf_chk@plt+0x15c38>
    12cb:	0f 1f 44 00 00       	nop    DWORD PTR [rax+rax*1+0x0]

00000000000012d0 <isalpha@plt>:
    12d0:	f3 0f 1e fa          	endbr64 
    12d4:	f2 ff 25 b5 5c 01 00 	bnd jmp QWORD PTR [rip+0x15cb5]        # 16f90 <__sprintf_chk@plt+0x15c40>
    12db:	0f 1f 44 00 00       	nop    DWORD PTR [rax+rax*1+0x0]

00000000000012e0 <__strcpy_chk@plt>:
    12e0:	f3 0f 1e fa          	endbr64 
    12e4:	f2 ff 25 ad 5c 01 00 	bnd jmp QWORD PTR [rip+0x15cad]        # 16f98 <__sprintf_chk@plt+0x15c48>
    12eb:	0f 1f 44 00 00       	nop    DWORD PTR [rax+rax*1+0x0]

00000000000012f0 <fopen@plt>:
    12f0:	f3 0f 1e fa          	endbr64 
    12f4:	f2 ff 25 a5 5c 01 00 	bnd jmp QWORD PTR [rip+0x15ca5]        # 16fa0 <__sprintf_chk@plt+0x15c50>
    12fb:	0f 1f 44 00 00       	nop    DWORD PTR [rax+rax*1+0x0]

0000000000001300 <strcat@plt>:
    1300:	f3 0f 1e fa          	endbr64 
    1304:	f2 ff 25 9d 5c 01 00 	bnd jmp QWORD PTR [rip+0x15c9d]        # 16fa8 <__sprintf_chk@plt+0x15c58>
    130b:	0f 1f 44 00 00       	nop    DWORD PTR [rax+rax*1+0x0]

0000000000001310 <exit@plt>:
    1310:	f3 0f 1e fa          	endbr64 
    1314:	f2 ff 25 95 5c 01 00 	bnd jmp QWORD PTR [rip+0x15c95]        # 16fb0 <__sprintf_chk@plt+0x15c60>
    131b:	0f 1f 44 00 00       	nop    DWORD PTR [rax+rax*1+0x0]

0000000000001320 <__fprintf_chk@plt>:
    1320:	f3 0f 1e fa          	endbr64 
    1324:	f2 ff 25 8d 5c 01 00 	bnd jmp QWORD PTR [rip+0x15c8d]        # 16fb8 <__sprintf_chk@plt+0x15c68>
    132b:	0f 1f 44 00 00       	nop    DWORD PTR [rax+rax*1+0x0]

0000000000001330 <getc@plt>:
    1330:	f3 0f 1e fa          	endbr64 
    1334:	f2 ff 25 85 5c 01 00 	bnd jmp QWORD PTR [rip+0x15c85]        # 16fc0 <__sprintf_chk@plt+0x15c70>
    133b:	0f 1f 44 00 00       	nop    DWORD PTR [rax+rax*1+0x0]

0000000000001340 <strstr@plt>:
    1340:	f3 0f 1e fa          	endbr64 
    1344:	f2 ff 25 7d 5c 01 00 	bnd jmp QWORD PTR [rip+0x15c7d]        # 16fc8 <__sprintf_chk@plt+0x15c78>
    134b:	0f 1f 44 00 00       	nop    DWORD PTR [rax+rax*1+0x0]

0000000000001350 <__sprintf_chk@plt>:
    1350:	f3 0f 1e fa          	endbr64 
    1354:	f2 ff 25 75 5c 01 00 	bnd jmp QWORD PTR [rip+0x15c75]        # 16fd0 <__sprintf_chk@plt+0x15c80>
    135b:	0f 1f 44 00 00       	nop    DWORD PTR [rax+rax*1+0x0]

Disassembly of section .text:

0000000000001360 <.text>:
    1360:	f3 0f 1e fa          	endbr64 
    1364:	31 ed                	xor    ebp,ebp
    1366:	49 89 d1             	mov    r9,rdx
    1369:	5e                   	pop    rsi
    136a:	48 89 e2             	mov    rdx,rsp
    136d:	48 83 e4 f0          	and    rsp,0xfffffffffffffff0
    1371:	50                   	push   rax
    1372:	54                   	push   rsp
    1373:	4c 8d 05 36 0a 01 00 	lea    r8,[rip+0x10a36]        # 11db0 <__sprintf_chk@plt+0x10a60>
    137a:	48 8d 0d bf 09 01 00 	lea    rcx,[rip+0x109bf]        # 11d40 <__sprintf_chk@plt+0x109f0>
    1381:	48 8d 3d 6e d8 00 00 	lea    rdi,[rip+0xd86e]        # ebf6 <__sprintf_chk@plt+0xd8a6>
    1388:	ff 15 52 5c 01 00    	call   QWORD PTR [rip+0x15c52]        # 16fe0 <__sprintf_chk@plt+0x15c90>
    138e:	f4                   	hlt    
    138f:	90                   	nop
    1390:	48 8d 3d 79 5c 01 00 	lea    rdi,[rip+0x15c79]        # 17010 <__sprintf_chk@plt+0x15cc0>
    1397:	48 8d 05 72 5c 01 00 	lea    rax,[rip+0x15c72]        # 17010 <__sprintf_chk@plt+0x15cc0>
    139e:	48 39 f8             	cmp    rax,rdi
    13a1:	74 15                	je     13b8 <__sprintf_chk@plt+0x68>
    13a3:	48 8b 05 2e 5c 01 00 	mov    rax,QWORD PTR [rip+0x15c2e]        # 16fd8 <__sprintf_chk@plt+0x15c88>
    13aa:	48 85 c0             	test   rax,rax
    13ad:	74 09                	je     13b8 <__sprintf_chk@plt+0x68>
    13af:	ff e0                	jmp    rax
    13b1:	0f 1f 80 00 00 00 00 	nop    DWORD PTR [rax+0x0]
    13b8:	c3                   	ret    
    13b9:	0f 1f 80 00 00 00 00 	nop    DWORD PTR [rax+0x0]
    13c0:	48 8d 3d 49 5c 01 00 	lea    rdi,[rip+0x15c49]        # 17010 <__sprintf_chk@plt+0x15cc0>
    13c7:	48 8d 35 42 5c 01 00 	lea    rsi,[rip+0x15c42]        # 17010 <__sprintf_chk@plt+0x15cc0>
    13ce:	48 29 fe             	sub    rsi,rdi
    13d1:	48 89 f0             	mov    rax,rsi
    13d4:	48 c1 ee 3f          	shr    rsi,0x3f
    13d8:	48 c1 f8 03          	sar    rax,0x3
    13dc:	48 01 c6             	add    rsi,rax
    13df:	48 d1 fe             	sar    rsi,1
    13e2:	74 14                	je     13f8 <__sprintf_chk@plt+0xa8>
    13e4:	48 8b 05 05 5c 01 00 	mov    rax,QWORD PTR [rip+0x15c05]        # 16ff0 <__sprintf_chk@plt+0x15ca0>
    13eb:	48 85 c0             	test   rax,rax
    13ee:	74 08                	je     13f8 <__sprintf_chk@plt+0xa8>
    13f0:	ff e0                	jmp    rax
    13f2:	66 0f 1f 44 00 00    	nop    WORD PTR [rax+rax*1+0x0]
    13f8:	c3                   	ret    
    13f9:	0f 1f 80 00 00 00 00 	nop    DWORD PTR [rax+0x0]
    1400:	f3 0f 1e fa          	endbr64 
    1404:	80 3d 2d 5c 01 00 00 	cmp    BYTE PTR [rip+0x15c2d],0x0        # 17038 <stdin@@GLIBC_2.2.5+0x8>
    140b:	75 2b                	jne    1438 <__sprintf_chk@plt+0xe8>
    140d:	55                   	push   rbp
    140e:	48 83 3d e2 5b 01 00 	cmp    QWORD PTR [rip+0x15be2],0x0        # 16ff8 <__sprintf_chk@plt+0x15ca8>
    1415:	00 
    1416:	48 89 e5             	mov    rbp,rsp
    1419:	74 0c                	je     1427 <__sprintf_chk@plt+0xd7>
    141b:	48 8b 3d e6 5b 01 00 	mov    rdi,QWORD PTR [rip+0x15be6]        # 17008 <__sprintf_chk@plt+0x15cb8>
    1422:	e8 99 fd ff ff       	call   11c0 <__cxa_finalize@plt>
    1427:	e8 64 ff ff ff       	call   1390 <__sprintf_chk@plt+0x40>
    142c:	c6 05 05 5c 01 00 01 	mov    BYTE PTR [rip+0x15c05],0x1        # 17038 <stdin@@GLIBC_2.2.5+0x8>
    1433:	5d                   	pop    rbp
    1434:	c3                   	ret    
    1435:	0f 1f 00             	nop    DWORD PTR [rax]
    1438:	c3                   	ret    
    1439:	0f 1f 80 00 00 00 00 	nop    DWORD PTR [rax+0x0]
    1440:	f3 0f 1e fa          	endbr64 
    1444:	e9 77 ff ff ff       	jmp    13c0 <__sprintf_chk@plt+0x70>
    1449:	f3 0f 1e fa          	endbr64 
    144d:	41 56                	push   r14
    144f:	41 55                	push   r13
    1451:	41 54                	push   r12
    1453:	55                   	push   rbp
    1454:	53                   	push   rbx
    1455:	48 89 fb             	mov    rbx,rdi
    1458:	89 f5                	mov    ebp,esi
    145a:	4c 8b af 08 01 00 00 	mov    r13,QWORD PTR [rdi+0x108]
    1461:	85 d2                	test   edx,edx
    1463:	0f 85 2d 01 00 00    	jne    1596 <__sprintf_chk@plt+0x246>
    1469:	41 89 d4             	mov    r12d,edx
    146c:	48 63 d6             	movsxd rdx,esi
    146f:	48 8b b7 30 01 00 00 	mov    rsi,QWORD PTR [rdi+0x130]
    1476:	b8 02 00 00 00       	mov    eax,0x2
    147b:	48 8d 0d 1e 9e 01 00 	lea    rcx,[rip+0x19e1e]        # 1b2a0 <stdin@@GLIBC_2.2.5+0x4270>
    1482:	48 85 34 d1          	test   QWORD PTR [rcx+rdx*8],rsi
    1486:	0f 85 9e 00 00 00    	jne    152a <__sprintf_chk@plt+0x1da>
    148c:	48 8b b7 40 01 00 00 	mov    rsi,QWORD PTR [rdi+0x140]
    1493:	b8 04 00 00 00       	mov    eax,0x4
    1498:	48 8d 0d 01 a4 01 00 	lea    rcx,[rip+0x1a401]        # 1b8a0 <stdin@@GLIBC_2.2.5+0x4870>
    149f:	48 85 34 d1          	test   QWORD PTR [rcx+rdx*8],rsi
    14a3:	0f 85 81 00 00 00    	jne    152a <__sprintf_chk@plt+0x1da>
    14a9:	48 8b b7 50 01 00 00 	mov    rsi,QWORD PTR [rdi+0x150]
    14b0:	b8 06 00 00 00       	mov    eax,0x6
    14b5:	48 8d 0d e4 a1 01 00 	lea    rcx,[rip+0x1a1e4]        # 1b6a0 <stdin@@GLIBC_2.2.5+0x4670>
    14bc:	48 85 34 d1          	test   QWORD PTR [rcx+rdx*8],rsi
    14c0:	75 68                	jne    152a <__sprintf_chk@plt+0x1da>
    14c2:	4c 8b b7 60 01 00 00 	mov    r14,QWORD PTR [rdi+0x160]
    14c9:	4c 0b b7 70 01 00 00 	or     r14,QWORD PTR [rdi+0x170]
    14d0:	89 e8                	mov    eax,ebp
    14d2:	c1 f8 03             	sar    eax,0x3
    14d5:	48 98                	cdqe   
    14d7:	48 8d 15 42 6f 01 00 	lea    rdx,[rip+0x16f42]        # 18420 <stdin@@GLIBC_2.2.5+0x13f0>
    14de:	4c 85 34 c2          	test   QWORD PTR [rdx+rax*8],r14
    14e2:	75 4f                	jne    1533 <__sprintf_chk@plt+0x1e3>
    14e4:	89 ea                	mov    edx,ebp
    14e6:	83 e2 07             	and    edx,0x7
    14e9:	48 8d 05 70 6f 01 00 	lea    rax,[rip+0x16f70]        # 18460 <stdin@@GLIBC_2.2.5+0x1430>
    14f0:	4c 85 34 d0          	test   QWORD PTR [rax+rdx*8],r14
    14f4:	75 56                	jne    154c <__sprintf_chk@plt+0x1fc>
    14f6:	48 8b 83 80 01 00 00 	mov    rax,QWORD PTR [rbx+0x180]
    14fd:	48 0b 83 70 01 00 00 	or     rax,QWORD PTR [rbx+0x170]
    1504:	48 89 c3             	mov    rbx,rax
    1507:	48 63 c5             	movsxd rax,ebp
    150a:	48 8d 15 8f 71 01 00 	lea    rdx,[rip+0x1718f]        # 186a0 <stdin@@GLIBC_2.2.5+0x1670>
    1511:	48 85 1c c2          	test   QWORD PTR [rdx+rax*8],rbx
    1515:	75 4e                	jne    1565 <__sprintf_chk@plt+0x215>
    1517:	48 63 d5             	movsxd rdx,ebp
    151a:	44 89 e0             	mov    eax,r12d
    151d:	48 8d 0d 7c 6f 01 00 	lea    rcx,[rip+0x16f7c]        # 184a0 <stdin@@GLIBC_2.2.5+0x1470>
    1524:	48 85 1c d1          	test   QWORD PTR [rcx+rdx*8],rbx
    1528:	75 54                	jne    157e <__sprintf_chk@plt+0x22e>
    152a:	5b                   	pop    rbx
    152b:	5d                   	pop    rbp
    152c:	41 5c                	pop    r12
    152e:	41 5d                	pop    r13
    1530:	41 5e                	pop    r14
    1532:	c3                   	ret    
    1533:	89 ee                	mov    esi,ebp
    1535:	4c 89 ef             	mov    rdi,r13
    1538:	e8 55 13 00 00       	call   2892 <__sprintf_chk@plt+0x1542>
    153d:	48 89 c2             	mov    rdx,rax
    1540:	b8 08 00 00 00       	mov    eax,0x8
    1545:	49 85 d6             	test   r14,rdx
    1548:	74 9a                	je     14e4 <__sprintf_chk@plt+0x194>
    154a:	eb de                	jmp    152a <__sprintf_chk@plt+0x1da>
    154c:	89 ee                	mov    esi,ebp
    154e:	4c 89 ef             	mov    rdi,r13
    1551:	e8 68 13 00 00       	call   28be <__sprintf_chk@plt+0x156e>
    1556:	48 89 c2             	mov    rdx,rax
    1559:	b8 08 00 00 00       	mov    eax,0x8
    155e:	49 85 d6             	test   r14,rdx
    1561:	74 93                	je     14f6 <__sprintf_chk@plt+0x1a6>
    1563:	eb c5                	jmp    152a <__sprintf_chk@plt+0x1da>
    1565:	89 ee                	mov    esi,ebp
    1567:	4c 89 ef             	mov    rdi,r13
    156a:	e8 96 13 00 00       	call   2905 <__sprintf_chk@plt+0x15b5>
    156f:	48 89 c2             	mov    rdx,rax
    1572:	b8 0c 00 00 00       	mov    eax,0xc
    1577:	48 85 d3             	test   rbx,rdx
    157a:	74 9b                	je     1517 <__sprintf_chk@plt+0x1c7>
    157c:	eb ac                	jmp    152a <__sprintf_chk@plt+0x1da>
    157e:	89 ee                	mov    esi,ebp
    1580:	4c 89 ef             	mov    rdi,r13
    1583:	e8 b6 13 00 00       	call   293e <__sprintf_chk@plt+0x15ee>
    1588:	48 85 c3             	test   rbx,rax
    158b:	b8 0c 00 00 00       	mov    eax,0xc
    1590:	41 0f 44 c4          	cmove  eax,r12d
    1594:	eb 94                	jmp    152a <__sprintf_chk@plt+0x1da>
    1596:	48 63 d6             	movsxd rdx,esi
    1599:	48 8b b7 28 01 00 00 	mov    rsi,QWORD PTR [rdi+0x128]
    15a0:	b8 01 00 00 00       	mov    eax,0x1
    15a5:	48 8d 0d f4 9e 01 00 	lea    rcx,[rip+0x19ef4]        # 1b4a0 <stdin@@GLIBC_2.2.5+0x4470>
    15ac:	48 85 34 d1          	test   QWORD PTR [rcx+rdx*8],rsi
    15b0:	0f 85 74 ff ff ff    	jne    152a <__sprintf_chk@plt+0x1da>
    15b6:	48 8b b7 38 01 00 00 	mov    rsi,QWORD PTR [rdi+0x138]
    15bd:	b8 03 00 00 00       	mov    eax,0x3
    15c2:	48 8d 0d d7 a2 01 00 	lea    rcx,[rip+0x1a2d7]        # 1b8a0 <stdin@@GLIBC_2.2.5+0x4870>
    15c9:	48 85 34 d1          	test   QWORD PTR [rcx+rdx*8],rsi
    15cd:	0f 85 57 ff ff ff    	jne    152a <__sprintf_chk@plt+0x1da>
    15d3:	48 8b b7 48 01 00 00 	mov    rsi,QWORD PTR [rdi+0x148]
    15da:	b8 05 00 00 00       	mov    eax,0x5
    15df:	48 8d 0d ba a0 01 00 	lea    rcx,[rip+0x1a0ba]        # 1b6a0 <stdin@@GLIBC_2.2.5+0x4670>
    15e6:	48 85 34 d1          	test   QWORD PTR [rcx+rdx*8],rsi
    15ea:	0f 85 3a ff ff ff    	jne    152a <__sprintf_chk@plt+0x1da>
    15f0:	4c 8b a7 58 01 00 00 	mov    r12,QWORD PTR [rdi+0x158]
    15f7:	4c 0b a7 68 01 00 00 	or     r12,QWORD PTR [rdi+0x168]
    15fe:	89 e8                	mov    eax,ebp
    1600:	c1 f8 03             	sar    eax,0x3
    1603:	48 98                	cdqe   
    1605:	48 8d 15 14 6e 01 00 	lea    rdx,[rip+0x16e14]        # 18420 <stdin@@GLIBC_2.2.5+0x13f0>
    160c:	4c 85 24 c2          	test   QWORD PTR [rdx+rax*8],r12
    1610:	75 69                	jne    167b <__sprintf_chk@plt+0x32b>
    1612:	89 ea                	mov    edx,ebp
    1614:	83 e2 07             	and    edx,0x7
    1617:	48 8d 05 42 6e 01 00 	lea    rax,[rip+0x16e42]        # 18460 <stdin@@GLIBC_2.2.5+0x1430>
    161e:	4c 85 24 d0          	test   QWORD PTR [rax+rdx*8],r12
    1622:	75 73                	jne    1697 <__sprintf_chk@plt+0x347>
    1624:	48 8b 83 78 01 00 00 	mov    rax,QWORD PTR [rbx+0x178]
    162b:	48 0b 83 68 01 00 00 	or     rax,QWORD PTR [rbx+0x168]
    1632:	48 89 c3             	mov    rbx,rax
    1635:	48 63 c5             	movsxd rax,ebp
    1638:	48 8d 15 61 70 01 00 	lea    rdx,[rip+0x17061]        # 186a0 <stdin@@GLIBC_2.2.5+0x1670>
    163f:	48 85 1c c2          	test   QWORD PTR [rdx+rax*8],rbx
    1643:	75 72                	jne    16b7 <__sprintf_chk@plt+0x367>
    1645:	48 63 d5             	movsxd rdx,ebp
    1648:	b8 00 00 00 00       	mov    eax,0x0
    164d:	48 8d 0d 4c 6e 01 00 	lea    rcx,[rip+0x16e4c]        # 184a0 <stdin@@GLIBC_2.2.5+0x1470>
    1654:	48 85 1c d1          	test   QWORD PTR [rcx+rdx*8],rbx
    1658:	0f 84 cc fe ff ff    	je     152a <__sprintf_chk@plt+0x1da>
    165e:	89 ee                	mov    esi,ebp
    1660:	4c 89 ef             	mov    rdi,r13
    1663:	e8 d6 12 00 00       	call   293e <__sprintf_chk@plt+0x15ee>
    1668:	48 21 c3             	and    rbx,rax
    166b:	48 83 fb 01          	cmp    rbx,0x1
    166f:	19 c0                	sbb    eax,eax
    1671:	f7 d0                	not    eax
    1673:	83 e0 0b             	and    eax,0xb
    1676:	e9 af fe ff ff       	jmp    152a <__sprintf_chk@plt+0x1da>
    167b:	89 ee                	mov    esi,ebp
    167d:	4c 89 ef             	mov    rdi,r13
    1680:	e8 0d 12 00 00       	call   2892 <__sprintf_chk@plt+0x1542>
    1685:	48 89 c2             	mov    rdx,rax
    1688:	b8 07 00 00 00       	mov    eax,0x7
    168d:	49 85 d4             	test   r12,rdx
    1690:	74 80                	je     1612 <__sprintf_chk@plt+0x2c2>
    1692:	e9 93 fe ff ff       	jmp    152a <__sprintf_chk@plt+0x1da>
    1697:	89 ee                	mov    esi,ebp
    1699:	4c 89 ef             	mov    rdi,r13
    169c:	e8 1d 12 00 00       	call   28be <__sprintf_chk@plt+0x156e>
    16a1:	48 89 c2             	mov    rdx,rax
    16a4:	b8 07 00 00 00       	mov    eax,0x7
    16a9:	49 85 d4             	test   r12,rdx
    16ac:	0f 84 72 ff ff ff    	je     1624 <__sprintf_chk@plt+0x2d4>
    16b2:	e9 73 fe ff ff       	jmp    152a <__sprintf_chk@plt+0x1da>
    16b7:	89 ee                	mov    esi,ebp
    16b9:	4c 89 ef             	mov    rdi,r13
    16bc:	e8 44 12 00 00       	call   2905 <__sprintf_chk@plt+0x15b5>
    16c1:	48 89 c2             	mov    rdx,rax
    16c4:	b8 0b 00 00 00       	mov    eax,0xb
    16c9:	48 85 d3             	test   rbx,rdx
    16cc:	0f 84 73 ff ff ff    	je     1645 <__sprintf_chk@plt+0x2f5>
    16d2:	e9 53 fe ff ff       	jmp    152a <__sprintf_chk@plt+0x1da>
    16d7:	f3 0f 1e fa          	endbr64 
    16db:	48 83 ec 08          	sub    rsp,0x8
    16df:	83 bf cc 01 00 00 00 	cmp    DWORD PTR [rdi+0x1cc],0x0
    16e6:	74 15                	je     16fd <__sprintf_chk@plt+0x3ad>
    16e8:	8b b7 d0 01 00 00    	mov    esi,DWORD PTR [rdi+0x1d0]
    16ee:	ba 00 00 00 00       	mov    edx,0x0
    16f3:	e8 51 fd ff ff       	call   1449 <__sprintf_chk@plt+0xf9>
    16f8:	48 83 c4 08          	add    rsp,0x8
    16fc:	c3                   	ret    
    16fd:	8b b7 d4 01 00 00    	mov    esi,DWORD PTR [rdi+0x1d4]
    1703:	ba 01 00 00 00       	mov    edx,0x1
    1708:	e8 3c fd ff ff       	call   1449 <__sprintf_chk@plt+0xf9>
    170d:	eb e9                	jmp    16f8 <__sprintf_chk@plt+0x3a8>
    170f:	f3 0f 1e fa          	endbr64 
    1713:	41 57                	push   r15
    1715:	41 56                	push   r14
    1717:	41 55                	push   r13
    1719:	41 54                	push   r12
    171b:	55                   	push   rbp
    171c:	53                   	push   rbx
    171d:	48 83 ec 08          	sub    rsp,0x8
    1721:	89 f5                	mov    ebp,esi
    1723:	41 89 f5             	mov    r13d,esi
    1726:	41 83 e5 07          	and    r13d,0x7
    172a:	4c 8b b7 08 01 00 00 	mov    r14,QWORD PTR [rdi+0x108]
    1731:	48 63 d6             	movsxd rdx,esi
    1734:	48 8b 87 30 01 00 00 	mov    rax,QWORD PTR [rdi+0x130]
    173b:	48 8d 0d 5e 9b 01 00 	lea    rcx,[rip+0x19b5e]        # 1b2a0 <stdin@@GLIBC_2.2.5+0x4270>
    1742:	48 23 04 d1          	and    rax,QWORD PTR [rcx+rdx*8]
    1746:	48 89 c3             	mov    rbx,rax
    1749:	48 8b 87 28 01 00 00 	mov    rax,QWORD PTR [rdi+0x128]
    1750:	48 8d 0d 49 9d 01 00 	lea    rcx,[rip+0x19d49]        # 1b4a0 <stdin@@GLIBC_2.2.5+0x4470>
    1757:	48 23 04 d1          	and    rax,QWORD PTR [rcx+rdx*8]
    175b:	48 09 d8             	or     rax,rbx
    175e:	48 8b 9f 40 01 00 00 	mov    rbx,QWORD PTR [rdi+0x140]
    1765:	48 0b 9f 38 01 00 00 	or     rbx,QWORD PTR [rdi+0x138]
    176c:	48 8d 0d 2d a1 01 00 	lea    rcx,[rip+0x1a12d]        # 1b8a0 <stdin@@GLIBC_2.2.5+0x4870>
    1773:	48 23 1c d1          	and    rbx,QWORD PTR [rcx+rdx*8]
    1777:	48 09 d8             	or     rax,rbx
    177a:	48 8b 9f 50 01 00 00 	mov    rbx,QWORD PTR [rdi+0x150]
    1781:	48 0b 9f 48 01 00 00 	or     rbx,QWORD PTR [rdi+0x148]
    1788:	48 8d 0d 11 9f 01 00 	lea    rcx,[rip+0x19f11]        # 1b6a0 <stdin@@GLIBC_2.2.5+0x4670>
    178f:	48 23 1c d1          	and    rbx,QWORD PTR [rcx+rdx*8]
    1793:	48 09 c3             	or     rbx,rax
    1796:	4c 8b bf 70 01 00 00 	mov    r15,QWORD PTR [rdi+0x170]
    179d:	48 8b 87 68 01 00 00 	mov    rax,QWORD PTR [rdi+0x168]
    17a4:	4d 89 fc             	mov    r12,r15
    17a7:	4c 0b a7 60 01 00 00 	or     r12,QWORD PTR [rdi+0x160]
    17ae:	4c 0b a7 58 01 00 00 	or     r12,QWORD PTR [rdi+0x158]
    17b5:	49 09 c4             	or     r12,rax
    17b8:	49 09 c7             	or     r15,rax
    17bb:	4c 0b bf 80 01 00 00 	or     r15,QWORD PTR [rdi+0x180]
    17c2:	4c 0b bf 78 01 00 00 	or     r15,QWORD PTR [rdi+0x178]
    17c9:	89 f0                	mov    eax,esi
    17cb:	c1 f8 03             	sar    eax,0x3
    17ce:	48 98                	cdqe   
    17d0:	48 8d 15 49 6c 01 00 	lea    rdx,[rip+0x16c49]        # 18420 <stdin@@GLIBC_2.2.5+0x13f0>
    17d7:	4c 85 24 c2          	test   QWORD PTR [rdx+rax*8],r12
    17db:	75 42                	jne    181f <__sprintf_chk@plt+0x4cf>
    17dd:	4d 63 ed             	movsxd r13,r13d
    17e0:	48 8d 05 79 6c 01 00 	lea    rax,[rip+0x16c79]        # 18460 <stdin@@GLIBC_2.2.5+0x1430>
    17e7:	4e 85 24 e8          	test   QWORD PTR [rax+r13*8],r12
    17eb:	75 42                	jne    182f <__sprintf_chk@plt+0x4df>
    17ed:	48 63 c5             	movsxd rax,ebp
    17f0:	48 8d 15 a9 6e 01 00 	lea    rdx,[rip+0x16ea9]        # 186a0 <stdin@@GLIBC_2.2.5+0x1670>
    17f7:	4c 85 3c c2          	test   QWORD PTR [rdx+rax*8],r15
    17fb:	75 44                	jne    1841 <__sprintf_chk@plt+0x4f1>
    17fd:	48 63 c5             	movsxd rax,ebp
    1800:	48 8d 15 99 6c 01 00 	lea    rdx,[rip+0x16c99]        # 184a0 <stdin@@GLIBC_2.2.5+0x1470>
    1807:	4c 85 3c c2          	test   QWORD PTR [rdx+rax*8],r15
    180b:	75 46                	jne    1853 <__sprintf_chk@plt+0x503>
    180d:	48 89 d8             	mov    rax,rbx
    1810:	48 83 c4 08          	add    rsp,0x8
    1814:	5b                   	pop    rbx
    1815:	5d                   	pop    rbp
    1816:	41 5c                	pop    r12
    1818:	41 5d                	pop    r13
    181a:	41 5e                	pop    r14
    181c:	41 5f                	pop    r15
    181e:	c3                   	ret    
    181f:	4c 89 f7             	mov    rdi,r14
    1822:	e8 6b 10 00 00       	call   2892 <__sprintf_chk@plt+0x1542>
    1827:	4c 21 e0             	and    rax,r12
    182a:	48 09 c3             	or     rbx,rax
    182d:	eb ae                	jmp    17dd <__sprintf_chk@plt+0x48d>
    182f:	89 ee                	mov    esi,ebp
    1831:	4c 89 f7             	mov    rdi,r14
    1834:	e8 85 10 00 00       	call   28be <__sprintf_chk@plt+0x156e>
    1839:	49 21 c4             	and    r12,rax
    183c:	4c 09 e3             	or     rbx,r12
    183f:	eb ac                	jmp    17ed <__sprintf_chk@plt+0x49d>
    1841:	89 ee                	mov    esi,ebp
    1843:	4c 89 f7             	mov    rdi,r14
    1846:	e8 ba 10 00 00       	call   2905 <__sprintf_chk@plt+0x15b5>
    184b:	4c 21 f8             	and    rax,r15
    184e:	48 09 c3             	or     rbx,rax
    1851:	eb aa                	jmp    17fd <__sprintf_chk@plt+0x4ad>
    1853:	89 ee                	mov    esi,ebp
    1855:	4c 89 f7             	mov    rdi,r14
    1858:	e8 e1 10 00 00       	call   293e <__sprintf_chk@plt+0x15ee>
    185d:	49 21 c7             	and    r15,rax
    1860:	4c 09 fb             	or     rbx,r15
    1863:	eb a8                	jmp    180d <__sprintf_chk@plt+0x4bd>
    1865:	f3 0f 1e fa          	endbr64 
    1869:	41 54                	push   r12
    186b:	55                   	push   rbp
    186c:	53                   	push   rbx
    186d:	48 89 fd             	mov    rbp,rdi
    1870:	bb 00 00 00 00       	mov    ebx,0x0
    1875:	41 bc 01 00 00 00    	mov    r12d,0x1
    187b:	eb 2d                	jmp    18aa <__sprintf_chk@plt+0x55a>
    187d:	48 8d 3d 82 07 01 00 	lea    rdi,[rip+0x10782]        # 12006 <__sprintf_chk@plt+0x10cb6>
    1884:	b8 00 00 00 00       	mov    eax,0x0
    1889:	e8 12 ee 00 00       	call   106a0 <__sprintf_chk@plt+0xf350>
    188e:	89 da                	mov    edx,ebx
    1890:	c1 fa 1f             	sar    edx,0x1f
    1893:	c1 ea 1d             	shr    edx,0x1d
    1896:	8d 04 13             	lea    eax,[rbx+rdx*1]
    1899:	83 e0 07             	and    eax,0x7
    189c:	29 d0                	sub    eax,edx
    189e:	83 f8 07             	cmp    eax,0x7
    18a1:	74 24                	je     18c7 <__sprintf_chk@plt+0x577>
    18a3:	ff c3                	inc    ebx
    18a5:	83 fb 40             	cmp    ebx,0x40
    18a8:	74 30                	je     18da <__sprintf_chk@plt+0x58a>
    18aa:	c4 c2 e1 f7 c4       	shlx   rax,r12,rbx
    18af:	48 85 e8             	test   rax,rbp
    18b2:	74 c9                	je     187d <__sprintf_chk@plt+0x52d>
    18b4:	48 8d 3d 49 07 01 00 	lea    rdi,[rip+0x10749]        # 12004 <__sprintf_chk@plt+0x10cb4>
    18bb:	b8 00 00 00 00       	mov    eax,0x0
    18c0:	e8 db ed 00 00       	call   106a0 <__sprintf_chk@plt+0xf350>
    18c5:	eb c7                	jmp    188e <__sprintf_chk@plt+0x53e>
    18c7:	48 8d 3d 48 1b 01 00 	lea    rdi,[rip+0x11b48]        # 13416 <__sprintf_chk@plt+0x120c6>
    18ce:	b8 00 00 00 00       	mov    eax,0x0
    18d3:	e8 c8 ed 00 00       	call   106a0 <__sprintf_chk@plt+0xf350>
    18d8:	eb c9                	jmp    18a3 <__sprintf_chk@plt+0x553>
    18da:	48 8d 3d 35 1b 01 00 	lea    rdi,[rip+0x11b35]        # 13416 <__sprintf_chk@plt+0x120c6>
    18e1:	b8 00 00 00 00       	mov    eax,0x0
    18e6:	e8 b5 ed 00 00       	call   106a0 <__sprintf_chk@plt+0xf350>
    18eb:	5b                   	pop    rbx
    18ec:	5d                   	pop    rbp
    18ed:	41 5c                	pop    r12
    18ef:	c3                   	ret    
    18f0:	f3 0f 1e fa          	endbr64 
    18f4:	53                   	push   rbx
    18f5:	48 89 fb             	mov    rbx,rdi
    18f8:	48 8d 3d 09 07 01 00 	lea    rdi,[rip+0x10709]        # 12008 <__sprintf_chk@plt+0x10cb8>
    18ff:	b8 00 00 00 00       	mov    eax,0x0
    1904:	e8 97 ed 00 00       	call   106a0 <__sprintf_chk@plt+0xf350>
    1909:	48 8b bb 08 01 00 00 	mov    rdi,QWORD PTR [rbx+0x108]
    1910:	e8 50 ff ff ff       	call   1865 <__sprintf_chk@plt+0x515>
    1915:	5b                   	pop    rbx
    1916:	c3                   	ret    
    1917:	f3 0f 1e fa          	endbr64 
    191b:	53                   	push   rbx
    191c:	48 89 fb             	mov    rbx,rdi
    191f:	48 8d 3d e7 06 01 00 	lea    rdi,[rip+0x106e7]        # 1200d <__sprintf_chk@plt+0x10cbd>
    1926:	b8 00 00 00 00       	mov    eax,0x0
    192b:	e8 70 ed 00 00       	call   106a0 <__sprintf_chk@plt+0xf350>
    1930:	48 8b bb 18 01 00 00 	mov    rdi,QWORD PTR [rbx+0x118]
    1937:	e8 29 ff ff ff       	call   1865 <__sprintf_chk@plt+0x515>
    193c:	48 8d 3d d7 06 01 00 	lea    rdi,[rip+0x106d7]        # 1201a <__sprintf_chk@plt+0x10cca>
    1943:	b8 00 00 00 00       	mov    eax,0x0
    1948:	e8 53 ed 00 00       	call   106a0 <__sprintf_chk@plt+0xf350>
    194d:	48 8b bb 10 01 00 00 	mov    rdi,QWORD PTR [rbx+0x110]
    1954:	e8 0c ff ff ff       	call   1865 <__sprintf_chk@plt+0x515>
    1959:	48 8d 3d a8 06 01 00 	lea    rdi,[rip+0x106a8]        # 12008 <__sprintf_chk@plt+0x10cb8>
    1960:	b8 00 00 00 00       	mov    eax,0x0
    1965:	e8 36 ed 00 00       	call   106a0 <__sprintf_chk@plt+0xf350>
    196a:	48 8b bb 08 01 00 00 	mov    rdi,QWORD PTR [rbx+0x108]
    1971:	e8 ef fe ff ff       	call   1865 <__sprintf_chk@plt+0x515>
    1976:	48 8d 3d aa 06 01 00 	lea    rdi,[rip+0x106aa]        # 12027 <__sprintf_chk@plt+0x10cd7>
    197d:	b8 00 00 00 00       	mov    eax,0x0
    1982:	e8 19 ed 00 00       	call   106a0 <__sprintf_chk@plt+0xf350>
    1987:	48 8b bb 28 01 00 00 	mov    rdi,QWORD PTR [rbx+0x128]
    198e:	e8 d2 fe ff ff       	call   1865 <__sprintf_chk@plt+0x515>
    1993:	48 8d 3d 99 06 01 00 	lea    rdi,[rip+0x10699]        # 12033 <__sprintf_chk@plt+0x10ce3>
    199a:	b8 00 00 00 00       	mov    eax,0x0
    199f:	e8 fc ec 00 00       	call   106a0 <__sprintf_chk@plt+0xf350>
    19a4:	48 8b bb 30 01 00 00 	mov    rdi,QWORD PTR [rbx+0x130]
    19ab:	e8 b5 fe ff ff       	call   1865 <__sprintf_chk@plt+0x515>
    19b0:	48 8d 3d 88 06 01 00 	lea    rdi,[rip+0x10688]        # 1203f <__sprintf_chk@plt+0x10cef>
    19b7:	b8 00 00 00 00       	mov    eax,0x0
    19bc:	e8 df ec 00 00       	call   106a0 <__sprintf_chk@plt+0xf350>
    19c1:	48 8b bb 38 01 00 00 	mov    rdi,QWORD PTR [rbx+0x138]
    19c8:	e8 98 fe ff ff       	call   1865 <__sprintf_chk@plt+0x515>
    19cd:	48 8d 3d 79 06 01 00 	lea    rdi,[rip+0x10679]        # 1204d <__sprintf_chk@plt+0x10cfd>
    19d4:	b8 00 00 00 00       	mov    eax,0x0
    19d9:	e8 c2 ec 00 00       	call   106a0 <__sprintf_chk@plt+0xf350>
    19de:	48 8b bb 40 01 00 00 	mov    rdi,QWORD PTR [rbx+0x140]
    19e5:	e8 7b fe ff ff       	call   1865 <__sprintf_chk@plt+0x515>
    19ea:	48 8d 3d 6a 06 01 00 	lea    rdi,[rip+0x1066a]        # 1205b <__sprintf_chk@plt+0x10d0b>
    19f1:	b8 00 00 00 00       	mov    eax,0x0
    19f6:	e8 a5 ec 00 00       	call   106a0 <__sprintf_chk@plt+0xf350>
    19fb:	48 8b bb 78 01 00 00 	mov    rdi,QWORD PTR [rbx+0x178]
    1a02:	e8 5e fe ff ff       	call   1865 <__sprintf_chk@plt+0x515>
    1a07:	48 8d 3d 5b 06 01 00 	lea    rdi,[rip+0x1065b]        # 12069 <__sprintf_chk@plt+0x10d19>
    1a0e:	b8 00 00 00 00       	mov    eax,0x0
    1a13:	e8 88 ec 00 00       	call   106a0 <__sprintf_chk@plt+0xf350>
    1a18:	48 8b bb 80 01 00 00 	mov    rdi,QWORD PTR [rbx+0x180]
    1a1f:	e8 41 fe ff ff       	call   1865 <__sprintf_chk@plt+0x515>
    1a24:	48 8d 3d 4c 06 01 00 	lea    rdi,[rip+0x1064c]        # 12077 <__sprintf_chk@plt+0x10d27>
    1a2b:	b8 00 00 00 00       	mov    eax,0x0
    1a30:	e8 6b ec 00 00       	call   106a0 <__sprintf_chk@plt+0xf350>
    1a35:	48 8b bb 58 01 00 00 	mov    rdi,QWORD PTR [rbx+0x158]
    1a3c:	e8 24 fe ff ff       	call   1865 <__sprintf_chk@plt+0x515>
    1a41:	48 8d 3d 3b 06 01 00 	lea    rdi,[rip+0x1063b]        # 12083 <__sprintf_chk@plt+0x10d33>
    1a48:	b8 00 00 00 00       	mov    eax,0x0
    1a4d:	e8 4e ec 00 00       	call   106a0 <__sprintf_chk@plt+0xf350>
    1a52:	48 8b bb 60 01 00 00 	mov    rdi,QWORD PTR [rbx+0x160]
    1a59:	e8 07 fe ff ff       	call   1865 <__sprintf_chk@plt+0x515>
    1a5e:	48 8d 3d 2a 06 01 00 	lea    rdi,[rip+0x1062a]        # 1208f <__sprintf_chk@plt+0x10d3f>
    1a65:	b8 00 00 00 00       	mov    eax,0x0
    1a6a:	e8 31 ec 00 00       	call   106a0 <__sprintf_chk@plt+0xf350>
    1a6f:	48 8b bb 68 01 00 00 	mov    rdi,QWORD PTR [rbx+0x168]
    1a76:	e8 ea fd ff ff       	call   1865 <__sprintf_chk@plt+0x515>
    1a7b:	48 8d 3d 1a 06 01 00 	lea    rdi,[rip+0x1061a]        # 1209c <__sprintf_chk@plt+0x10d4c>
    1a82:	b8 00 00 00 00       	mov    eax,0x0
    1a87:	e8 14 ec 00 00       	call   106a0 <__sprintf_chk@plt+0xf350>
    1a8c:	48 8b bb 70 01 00 00 	mov    rdi,QWORD PTR [rbx+0x170]
    1a93:	e8 cd fd ff ff       	call   1865 <__sprintf_chk@plt+0x515>
    1a98:	5b                   	pop    rbx
    1a99:	c3                   	ret    
    1a9a:	f3 0f 1e fa          	endbr64 
    1a9e:	41 57                	push   r15
    1aa0:	41 56                	push   r14
    1aa2:	41 55                	push   r13
    1aa4:	41 54                	push   r12
    1aa6:	55                   	push   rbp
    1aa7:	53                   	push   rbx
    1aa8:	b8 00 00 00 00       	mov    eax,0x0
    1aad:	bf 01 00 00 00       	mov    edi,0x1
    1ab2:	48 8d 35 e7 6f 01 00 	lea    rsi,[rip+0x16fe7]        # 18aa0 <stdin@@GLIBC_2.2.5+0x1a70>
    1ab9:	48 8d 0d e0 6d 01 00 	lea    rcx,[rip+0x16de0]        # 188a0 <stdin@@GLIBC_2.2.5+0x1870>
    1ac0:	c4 e2 f9 f7 d7       	shlx   rdx,rdi,rax
    1ac5:	48 89 14 c6          	mov    QWORD PTR [rsi+rax*8],rdx
    1ac9:	48 f7 d2             	not    rdx
    1acc:	48 89 14 c1          	mov    QWORD PTR [rcx+rax*8],rdx
    1ad0:	48 ff c0             	inc    rax
    1ad3:	48 83 f8 40          	cmp    rax,0x40
    1ad7:	75 e7                	jne    1ac0 <__sprintf_chk@plt+0x770>
    1ad9:	48 8d 3d 80 69 01 00 	lea    rdi,[rip+0x16980]        # 18460 <stdin@@GLIBC_2.2.5+0x1430>
    1ae0:	41 ba 00 00 00 00    	mov    r10d,0x0
    1ae6:	48 8d 0d b3 6f 01 00 	lea    rcx,[rip+0x16fb3]        # 18aa0 <stdin@@GLIBC_2.2.5+0x1a70>
    1aed:	4c 8d 0d 2c 69 01 00 	lea    r9,[rip+0x1692c]        # 18420 <stdin@@GLIBC_2.2.5+0x13f0>
    1af4:	41 b8 ff 00 00 00    	mov    r8d,0xff
    1afa:	44 89 d6             	mov    esi,r10d
    1afd:	49 89 fb             	mov    r11,rdi
    1b00:	48 c7 07 00 00 00 00 	mov    QWORD PTR [rdi],0x0
    1b07:	41 83 fa 3f          	cmp    r10d,0x3f
    1b0b:	7f 18                	jg     1b25 <__sprintf_chk@plt+0x7d5>
    1b0d:	4c 89 d0             	mov    rax,r10
    1b10:	ba 00 00 00 00       	mov    edx,0x0
    1b15:	48 0b 14 c1          	or     rdx,QWORD PTR [rcx+rax*8]
    1b19:	48 83 c0 08          	add    rax,0x8
    1b1d:	83 f8 3f             	cmp    eax,0x3f
    1b20:	7e f3                	jle    1b15 <__sprintf_chk@plt+0x7c5>
    1b22:	49 89 13             	mov    QWORD PTR [r11],rdx
    1b25:	8d 04 f5 00 00 00 00 	lea    eax,[rsi*8+0x0]
    1b2c:	c4 c2 f9 f7 c0       	shlx   rax,r8,rax
    1b31:	4b 89 04 d1          	mov    QWORD PTR [r9+r10*8],rax
    1b35:	49 ff c2             	inc    r10
    1b38:	48 83 c7 08          	add    rdi,0x8
    1b3c:	49 83 fa 08          	cmp    r10,0x8
    1b40:	75 b8                	jne    1afa <__sprintf_chk@plt+0x7aa>
    1b42:	48 c7 05 b3 5f 01 00 	mov    QWORD PTR [rip+0x15fb3],0x0        # 17b00 <stdin@@GLIBC_2.2.5+0xad0>
    1b49:	00 00 00 00 
    1b4d:	48 c7 05 a8 5d 01 00 	mov    QWORD PTR [rip+0x15da8],0x0        # 17900 <stdin@@GLIBC_2.2.5+0x8d0>
    1b54:	00 00 00 00 
    1b58:	48 8d 3d a9 5f 01 00 	lea    rdi,[rip+0x15fa9]        # 17b08 <stdin@@GLIBC_2.2.5+0xad8>
    1b5f:	48 8d 35 9a 5d 01 00 	lea    rsi,[rip+0x15d9a]        # 17900 <stdin@@GLIBC_2.2.5+0x8d0>
    1b66:	49 c7 c0 f9 ff ff ff 	mov    r8,0xfffffffffffffff9
    1b6d:	48 8d 0d 2c 6f 01 00 	lea    rcx,[rip+0x16f2c]        # 18aa0 <stdin@@GLIBC_2.2.5+0x1a70>
    1b74:	eb 42                	jmp    1bb8 <__sprintf_chk@plt+0x868>
    1b76:	49 83 fa 47          	cmp    r10,0x47
    1b7a:	74 5d                	je     1bd9 <__sprintf_chk@plt+0x889>
    1b7c:	49 89 f9             	mov    r9,rdi
    1b7f:	48 c7 07 00 00 00 00 	mov    QWORD PTR [rdi],0x0
    1b86:	48 c7 46 08 00 00 00 	mov    QWORD PTR [rsi+0x8],0x0
    1b8d:	00 
    1b8e:	45 85 c0             	test   r8d,r8d
    1b91:	78 17                	js     1baa <__sprintf_chk@plt+0x85a>
    1b93:	4c 89 c0             	mov    rax,r8
    1b96:	ba 00 00 00 00       	mov    edx,0x0
    1b9b:	48 0b 14 c1          	or     rdx,QWORD PTR [rcx+rax*8]
    1b9f:	48 83 e8 08          	sub    rax,0x8
    1ba3:	85 c0                	test   eax,eax
    1ba5:	79 f4                	jns    1b9b <__sprintf_chk@plt+0x84b>
    1ba7:	49 89 11             	mov    QWORD PTR [r9],rdx
    1baa:	48 83 c7 08          	add    rdi,0x8
    1bae:	48 83 c6 08          	add    rsi,0x8
    1bb2:	49 ff c2             	inc    r10
    1bb5:	49 ff c0             	inc    r8
    1bb8:	41 83 fa 3f          	cmp    r10d,0x3f
    1bbc:	7f b8                	jg     1b76 <__sprintf_chk@plt+0x826>
    1bbe:	49 89 f1             	mov    r9,rsi
    1bc1:	48 8b 16             	mov    rdx,QWORD PTR [rsi]
    1bc4:	4c 89 d0             	mov    rax,r10
    1bc7:	48 0b 14 c1          	or     rdx,QWORD PTR [rcx+rax*8]
    1bcb:	48 83 c0 08          	add    rax,0x8
    1bcf:	83 f8 3f             	cmp    eax,0x3f
    1bd2:	7e f3                	jle    1bc7 <__sprintf_chk@plt+0x877>
    1bd4:	49 89 11             	mov    QWORD PTR [r9],rdx
    1bd7:	eb 9d                	jmp    1b76 <__sprintf_chk@plt+0x826>
    1bd9:	4c 8d 15 c0 6a 01 00 	lea    r10,[rip+0x16ac0]        # 186a0 <stdin@@GLIBC_2.2.5+0x1670>
    1be0:	4c 8d 0d b9 68 01 00 	lea    r9,[rip+0x168b9]        # 184a0 <stdin@@GLIBC_2.2.5+0x1470>
    1be7:	b9 00 00 00 00       	mov    ecx,0x0
    1bec:	4c 8d 3d cd 05 01 00 	lea    r15,[rip+0x105cd]        # 121c0 <__sprintf_chk@plt+0x10e70>
    1bf3:	48 8d 2d a6 6e 01 00 	lea    rbp,[rip+0x16ea6]        # 18aa0 <stdin@@GLIBC_2.2.5+0x1a70>
    1bfa:	4c 8d 35 bf 04 01 00 	lea    r14,[rip+0x104bf]        # 120c0 <__sprintf_chk@plt+0x10d70>
    1c01:	eb 24                	jmp    1c27 <__sprintf_chk@plt+0x8d7>
    1c03:	48 0b 10             	or     rdx,QWORD PTR [rax]
    1c06:	48 83 c0 48          	add    rax,0x48
    1c0a:	48 39 f0             	cmp    rax,rsi
    1c0d:	75 f4                	jne    1c03 <__sprintf_chk@plt+0x8b3>
    1c0f:	49 89 10             	mov    QWORD PTR [r8],rdx
    1c12:	48 ff c1             	inc    rcx
    1c15:	49 83 c2 08          	add    r10,0x8
    1c19:	49 83 c1 08          	add    r9,0x8
    1c1d:	48 83 f9 40          	cmp    rcx,0x40
    1c21:	0f 84 ba 00 00 00    	je     1ce1 <__sprintf_chk@plt+0x991>
    1c27:	41 89 cb             	mov    r11d,ecx
    1c2a:	4d 89 d4             	mov    r12,r10
    1c2d:	49 c7 02 00 00 00 00 	mov    QWORD PTR [r10],0x0
    1c34:	4d 89 c8             	mov    r8,r9
    1c37:	49 c7 01 00 00 00 00 	mov    QWORD PTR [r9],0x0
    1c3e:	89 cf                	mov    edi,ecx
    1c40:	c1 ff 03             	sar    edi,0x3
    1c43:	89 cb                	mov    ebx,ecx
    1c45:	83 e3 07             	and    ebx,0x7
    1c48:	b8 07 00 00 00       	mov    eax,0x7
    1c4d:	29 f8                	sub    eax,edi
    1c4f:	39 d8                	cmp    eax,ebx
    1c51:	0f 4f c3             	cmovg  eax,ebx
    1c54:	8d 14 c5 00 00 00 00 	lea    edx,[rax*8+0x0]
    1c5b:	29 c2                	sub    edx,eax
    1c5d:	89 d0                	mov    eax,edx
    1c5f:	01 c8                	add    eax,ecx
    1c61:	41 8b 34 8f          	mov    esi,DWORD PTR [r15+rcx*4]
    1c65:	85 f6                	test   esi,esi
    1c67:	7e 3a                	jle    1ca3 <__sprintf_chk@plt+0x953>
    1c69:	48 63 d0             	movsxd rdx,eax
    1c6c:	48 8d 44 d5 00       	lea    rax,[rbp+rdx*8+0x0]
    1c71:	44 8d 6e ff          	lea    r13d,[rsi-0x1]
    1c75:	4a 8d 34 ed 00 00 00 	lea    rsi,[r13*8+0x0]
    1c7c:	00 
    1c7d:	4c 29 ee             	sub    rsi,r13
    1c80:	48 29 f2             	sub    rdx,rsi
    1c83:	48 8d 35 de 6d 01 00 	lea    rsi,[rip+0x16dde]        # 18a68 <stdin@@GLIBC_2.2.5+0x1a38>
    1c8a:	48 8d 34 d6          	lea    rsi,[rsi+rdx*8]
    1c8e:	ba 00 00 00 00       	mov    edx,0x0
    1c93:	48 0b 10             	or     rdx,QWORD PTR [rax]
    1c96:	48 83 e8 38          	sub    rax,0x38
    1c9a:	48 39 f0             	cmp    rax,rsi
    1c9d:	75 f4                	jne    1c93 <__sprintf_chk@plt+0x943>
    1c9f:	49 89 14 24          	mov    QWORD PTR [r12],rdx
    1ca3:	39 df                	cmp    edi,ebx
    1ca5:	0f 4f fb             	cmovg  edi,ebx
    1ca8:	8d 04 ff             	lea    eax,[rdi+rdi*8]
    1cab:	41 29 c3             	sub    r11d,eax
    1cae:	41 8b 34 8e          	mov    esi,DWORD PTR [r14+rcx*4]
    1cb2:	85 f6                	test   esi,esi
    1cb4:	0f 8e 58 ff ff ff    	jle    1c12 <__sprintf_chk@plt+0x8c2>
    1cba:	49 63 d3             	movsxd rdx,r11d
    1cbd:	48 8d 44 d5 00       	lea    rax,[rbp+rdx*8+0x0]
    1cc2:	8d 76 ff             	lea    esi,[rsi-0x1]
    1cc5:	48 8d 34 f6          	lea    rsi,[rsi+rsi*8]
    1cc9:	48 01 f2             	add    rdx,rsi
    1ccc:	48 8d 1d 15 6e 01 00 	lea    rbx,[rip+0x16e15]        # 18ae8 <stdin@@GLIBC_2.2.5+0x1ab8>
    1cd3:	48 8d 34 d3          	lea    rsi,[rbx+rdx*8]
    1cd7:	ba 00 00 00 00       	mov    edx,0x0
    1cdc:	e9 22 ff ff ff       	jmp    1c03 <__sprintf_chk@plt+0x8b3>
    1ce1:	4c 8d 25 f8 59 01 00 	lea    r12,[rip+0x159f8]        # 176e0 <stdin@@GLIBC_2.2.5+0x6b0>
    1ce8:	41 b8 00 00 00 00    	mov    r8d,0x0
    1cee:	48 8d 1d ab 6d 01 00 	lea    rbx,[rip+0x16dab]        # 18aa0 <stdin@@GLIBC_2.2.5+0x1a70>
    1cf5:	eb 4e                	jmp    1d45 <__sprintf_chk@plt+0x9f5>
    1cf7:	ff c0                	inc    eax
    1cf9:	83 c2 08             	add    edx,0x8
    1cfc:	39 f0                	cmp    eax,esi
    1cfe:	74 16                	je     1d16 <__sprintf_chk@plt+0x9c6>
    1d00:	83 f8 07             	cmp    eax,0x7
    1d03:	77 f2                	ja     1cf7 <__sprintf_chk@plt+0x9a7>
    1d05:	44 39 c2             	cmp    edx,r8d
    1d08:	74 ed                	je     1cf7 <__sprintf_chk@plt+0x9a7>
    1d0a:	4c 63 ca             	movsxd r9,edx
    1d0d:	4e 8b 0c cb          	mov    r9,QWORD PTR [rbx+r9*8]
    1d11:	4c 09 0f             	or     QWORD PTR [rdi],r9
    1d14:	eb e1                	jmp    1cf7 <__sprintf_chk@plt+0x9a7>
    1d16:	ff c1                	inc    ecx
    1d18:	44 39 d1             	cmp    ecx,r10d
    1d1b:	74 1b                	je     1d38 <__sprintf_chk@plt+0x9e8>
    1d1d:	83 f9 07             	cmp    ecx,0x7
    1d20:	77 f4                	ja     1d16 <__sprintf_chk@plt+0x9c6>
    1d22:	41 8d 14 0e          	lea    edx,[r14+rcx*1]
    1d26:	45 39 dd             	cmp    r13d,r11d
    1d29:	0f 9e c0             	setle  al
    1d2c:	0f b6 c0             	movzx  eax,al
    1d2f:	8d 74 85 01          	lea    esi,[rbp+rax*4+0x1]
    1d33:	44 89 f8             	mov    eax,r15d
    1d36:	eb c8                	jmp    1d00 <__sprintf_chk@plt+0x9b0>
    1d38:	41 ff c0             	inc    r8d
    1d3b:	49 83 c4 08          	add    r12,0x8
    1d3f:	41 83 f8 40          	cmp    r8d,0x40
    1d43:	74 3a                	je     1d7f <__sprintf_chk@plt+0xa2f>
    1d45:	4c 89 e7             	mov    rdi,r12
    1d48:	49 c7 04 24 00 00 00 	mov    QWORD PTR [r12],0x0
    1d4f:	00 
    1d50:	45 89 c2             	mov    r10d,r8d
    1d53:	41 83 e2 07          	and    r10d,0x7
    1d57:	41 8d 4a fe          	lea    ecx,[r10-0x2]
    1d5b:	45 89 c3             	mov    r11d,r8d
    1d5e:	41 c1 fb 03          	sar    r11d,0x3
    1d62:	41 8d 6b fe          	lea    ebp,[r11-0x2]
    1d66:	41 89 ef             	mov    r15d,ebp
    1d69:	41 83 c2 03          	add    r10d,0x3
    1d6d:	46 8d 34 dd f0 ff ff 	lea    r14d,[r11*8-0x10]
    1d74:	ff 
    1d75:	45 8d 6b ff          	lea    r13d,[r11-0x1]
    1d79:	41 83 c3 03          	add    r11d,0x3
    1d7d:	eb 9e                	jmp    1d1d <__sprintf_chk@plt+0x9cd>
    1d7f:	4c 8d 1d 5a 57 01 00 	lea    r11,[rip+0x1575a]        # 174e0 <stdin@@GLIBC_2.2.5+0x4b0>
    1d86:	be 00 00 00 00       	mov    esi,0x0
    1d8b:	4c 8d 2d 0e 6d 01 00 	lea    r13,[rip+0x16d0e]        # 18aa0 <stdin@@GLIBC_2.2.5+0x1a70>
    1d92:	eb 4c                	jmp    1de0 <__sprintf_chk@plt+0xa90>
    1d94:	ff c0                	inc    eax
    1d96:	83 c1 08             	add    ecx,0x8
    1d99:	44 39 c0             	cmp    eax,r8d
    1d9c:	74 16                	je     1db4 <__sprintf_chk@plt+0xa64>
    1d9e:	83 f8 07             	cmp    eax,0x7
    1da1:	77 f1                	ja     1d94 <__sprintf_chk@plt+0xa44>
    1da3:	39 f1                	cmp    ecx,esi
    1da5:	74 ed                	je     1d94 <__sprintf_chk@plt+0xa44>
    1da7:	4c 63 c9             	movsxd r9,ecx
    1daa:	4f 8b 4c cd 00       	mov    r9,QWORD PTR [r13+r9*8+0x0]
    1daf:	4d 09 0a             	or     QWORD PTR [r10],r9
    1db2:	eb e0                	jmp    1d94 <__sprintf_chk@plt+0xa44>
    1db4:	ff c2                	inc    edx
    1db6:	39 fa                	cmp    edx,edi
    1db8:	74 1b                	je     1dd5 <__sprintf_chk@plt+0xa85>
    1dba:	83 fa 07             	cmp    edx,0x7
    1dbd:	77 f5                	ja     1db4 <__sprintf_chk@plt+0xa64>
    1dbf:	41 8d 0c 14          	lea    ecx,[r12+rdx*1]
    1dc3:	44 39 f3             	cmp    ebx,r14d
    1dc6:	0f 9e c0             	setle  al
    1dc9:	0f b6 c0             	movzx  eax,al
    1dcc:	44 8d 44 45 01       	lea    r8d,[rbp+rax*2+0x1]
    1dd1:	89 d8                	mov    eax,ebx
    1dd3:	eb c9                	jmp    1d9e <__sprintf_chk@plt+0xa4e>
    1dd5:	ff c6                	inc    esi
    1dd7:	49 83 c3 08          	add    r11,0x8
    1ddb:	83 fe 40             	cmp    esi,0x40
    1dde:	74 2d                	je     1e0d <__sprintf_chk@plt+0xabd>
    1de0:	4d 89 da             	mov    r10,r11
    1de3:	49 c7 03 00 00 00 00 	mov    QWORD PTR [r11],0x0
    1dea:	89 f7                	mov    edi,esi
    1dec:	83 e7 07             	and    edi,0x7
    1def:	8d 57 ff             	lea    edx,[rdi-0x1]
    1df2:	89 f0                	mov    eax,esi
    1df4:	c1 f8 03             	sar    eax,0x3
    1df7:	8d 68 ff             	lea    ebp,[rax-0x1]
    1dfa:	89 eb                	mov    ebx,ebp
    1dfc:	83 c7 02             	add    edi,0x2
    1dff:	44 8d 24 c5 f8 ff ff 	lea    r12d,[rax*8-0x8]
    1e06:	ff 
    1e07:	44 8d 70 01          	lea    r14d,[rax+0x1]
    1e0b:	eb ad                	jmp    1dba <__sprintf_chk@plt+0xa6a>
    1e0d:	b9 00 00 00 00       	mov    ecx,0x0
    1e12:	48 8d 35 87 9c 01 00 	lea    rsi,[rip+0x19c87]        # 1baa0 <stdin@@GLIBC_2.2.5+0x4a70>
    1e19:	eb 18                	jmp    1e33 <__sprintf_chk@plt+0xae3>
    1e1b:	b8 0f 00 00 00       	mov    eax,0xf
    1e20:	88 04 0e             	mov    BYTE PTR [rsi+rcx*1],al
    1e23:	48 ff c1             	inc    rcx
    1e26:	48 81 f9 ff ff 00 00 	cmp    rcx,0xffff
    1e2d:	0f 84 52 09 00 00    	je     2785 <__sprintf_chk@plt+0x1435>
    1e33:	89 ca                	mov    edx,ecx
    1e35:	f6 c5 80             	test   ch,0x80
    1e38:	75 e1                	jne    1e1b <__sprintf_chk@plt+0xacb>
    1e3a:	b8 0e 00 00 00       	mov    eax,0xe
    1e3f:	0f a3 c2             	bt     edx,eax
    1e42:	72 dc                	jb     1e20 <__sprintf_chk@plt+0xad0>
    1e44:	ff c8                	dec    eax
    1e46:	83 f8 ff             	cmp    eax,0xffffffff
    1e49:	75 f4                	jne    1e3f <__sprintf_chk@plt+0xaef>
    1e4b:	eb d6                	jmp    1e23 <__sprintf_chk@plt+0xad3>
    1e4d:	48 0b 5e 40          	or     rbx,QWORD PTR [rsi+0x40]
    1e51:	49 89 1c d3          	mov    QWORD PTR [r11+rdx*8],rbx
    1e55:	ff c0                	inc    eax
    1e57:	83 f8 3f             	cmp    eax,0x3f
    1e5a:	0f 8f fa 08 00 00    	jg     275a <__sprintf_chk@plt+0x140a>
    1e60:	48 63 c8             	movsxd rcx,eax
    1e63:	48 c7 04 cf 00 00 00 	mov    QWORD PTR [rdi+rcx*8],0x0
    1e6a:	00 
    1e6b:	49 c7 04 c8 00 00 00 	mov    QWORD PTR [r8+rcx*8],0x0
    1e72:	00 
    1e73:	49 c7 04 cb 00 00 00 	mov    QWORD PTR [r11+rcx*8],0x0
    1e7a:	00 
    1e7b:	49 c7 04 ca 00 00 00 	mov    QWORD PTR [r10+rcx*8],0x0
    1e82:	00 
    1e83:	41 89 c1             	mov    r9d,eax
    1e86:	41 83 e1 07          	and    r9d,0x7
    1e8a:	74 1b                	je     1ea7 <__sprintf_chk@plt+0xb57>
    1e8c:	83 f8 37             	cmp    eax,0x37
    1e8f:	7f 07                	jg     1e98 <__sprintf_chk@plt+0xb48>
    1e91:	48 8b 1e             	mov    rbx,QWORD PTR [rsi]
    1e94:	48 89 1c cf          	mov    QWORD PTR [rdi+rcx*8],rbx
    1e98:	83 f8 07             	cmp    eax,0x7
    1e9b:	7e 0a                	jle    1ea7 <__sprintf_chk@plt+0xb57>
    1e9d:	48 98                	cdqe   
    1e9f:	48 8b 4e 80          	mov    rcx,QWORD PTR [rsi-0x80]
    1ea3:	49 89 0c c0          	mov    QWORD PTR [r8+rax*8],rcx
    1ea7:	48 ff c2             	inc    rdx
    1eaa:	48 83 c6 08          	add    rsi,0x8
    1eae:	89 d0                	mov    eax,edx
    1eb0:	89 d1                	mov    ecx,edx
    1eb2:	41 83 f9 06          	cmp    r9d,0x6
    1eb6:	7f 24                	jg     1edc <__sprintf_chk@plt+0xb8c>
    1eb8:	89 d3                	mov    ebx,edx
    1eba:	83 fa 37             	cmp    edx,0x37
    1ebd:	7f 0c                	jg     1ecb <__sprintf_chk@plt+0xb7b>
    1ebf:	4c 8b 0c d7          	mov    r9,QWORD PTR [rdi+rdx*8]
    1ec3:	4c 0b 4e 08          	or     r9,QWORD PTR [rsi+0x8]
    1ec7:	4c 89 0c d7          	mov    QWORD PTR [rdi+rdx*8],r9
    1ecb:	83 fb 07             	cmp    ebx,0x7
    1ece:	7e 0c                	jle    1edc <__sprintf_chk@plt+0xb8c>
    1ed0:	4d 8b 0c d0          	mov    r9,QWORD PTR [r8+rdx*8]
    1ed4:	4c 0b 4e 88          	or     r9,QWORD PTR [rsi-0x78]
    1ed8:	4d 89 0c d0          	mov    QWORD PTR [r8+rdx*8],r9
    1edc:	c1 f9 03             	sar    ecx,0x3
    1edf:	0f 84 70 ff ff ff    	je     1e55 <__sprintf_chk@plt+0xb05>
    1ee5:	83 f9 07             	cmp    ecx,0x7
    1ee8:	0f 84 67 ff ff ff    	je     1e55 <__sprintf_chk@plt+0xb05>
    1eee:	48 8b 1e             	mov    rbx,QWORD PTR [rsi]
    1ef1:	49 89 1c d3          	mov    QWORD PTR [r11+rdx*8],rbx
    1ef5:	4c 8b 4e 80          	mov    r9,QWORD PTR [rsi-0x80]
    1ef9:	4d 89 0c d2          	mov    QWORD PTR [r10+rdx*8],r9
    1efd:	83 f9 01             	cmp    ecx,0x1
    1f00:	0f 84 47 ff ff ff    	je     1e4d <__sprintf_chk@plt+0xafd>
    1f06:	83 f9 06             	cmp    ecx,0x6
    1f09:	0f 85 46 ff ff ff    	jne    1e55 <__sprintf_chk@plt+0xb05>
    1f0f:	4c 0b 8e 40 ff ff ff 	or     r9,QWORD PTR [rsi-0xc0]
    1f16:	4d 89 0c d2          	mov    QWORD PTR [r10+rdx*8],r9
    1f1a:	ff c0                	inc    eax
    1f1c:	e9 3f ff ff ff       	jmp    1e60 <__sprintf_chk@plt+0xb10>
    1f21:	a8 06                	test   al,0x6
    1f23:	74 06                	je     1f2b <__sprintf_chk@plt+0xbdb>
    1f25:	49 8b 10             	mov    rdx,QWORD PTR [r8]
    1f28:	48 09 17             	or     QWORD PTR [rdi],rdx
    1f2b:	83 e0 07             	and    eax,0x7
    1f2e:	83 f8 05             	cmp    eax,0x5
    1f31:	7f 07                	jg     1f3a <__sprintf_chk@plt+0xbea>
    1f33:	49 8b 40 20          	mov    rax,QWORD PTR [r8+0x20]
    1f37:	48 09 07             	or     QWORD PTR [rdi],rax
    1f3a:	89 c8                	mov    eax,ecx
    1f3c:	48 63 d0             	movsxd rdx,eax
    1f3f:	49 c7 04 d1 00 00 00 	mov    QWORD PTR [r9+rdx*8],0x0
    1f46:	00 
    1f47:	89 c6                	mov    esi,eax
    1f49:	c1 fe 03             	sar    esi,0x3
    1f4c:	85 f6                	test   esi,esi
    1f4e:	7e 5c                	jle    1fac <__sprintf_chk@plt+0xc5c>
    1f50:	83 fe 01             	cmp    esi,0x1
    1f53:	7e 2c                	jle    1f81 <__sprintf_chk@plt+0xc31>
    1f55:	89 c2                	mov    edx,eax
    1f57:	83 e2 07             	and    edx,0x7
    1f5a:	74 0e                	je     1f6a <__sprintf_chk@plt+0xc1a>
    1f5c:	4c 63 d0             	movsxd r10,eax
    1f5f:	4d 8b 98 50 ff ff ff 	mov    r11,QWORD PTR [r8-0xb0]
    1f66:	4f 89 1c d1          	mov    QWORD PTR [r9+r10*8],r11
    1f6a:	83 fa 06             	cmp    edx,0x6
    1f6d:	7f 12                	jg     1f81 <__sprintf_chk@plt+0xc31>
    1f6f:	4c 63 d0             	movsxd r10,eax
    1f72:	4b 8b 14 d1          	mov    rdx,QWORD PTR [r9+r10*8]
    1f76:	49 0b 90 60 ff ff ff 	or     rdx,QWORD PTR [r8-0xa0]
    1f7d:	4b 89 14 d1          	mov    QWORD PTR [r9+r10*8],rdx
    1f81:	a8 06                	test   al,0x6
    1f83:	74 0f                	je     1f94 <__sprintf_chk@plt+0xc44>
    1f85:	4c 63 d0             	movsxd r10,eax
    1f88:	4b 8b 14 d1          	mov    rdx,QWORD PTR [r9+r10*8]
    1f8c:	49 0b 50 88          	or     rdx,QWORD PTR [r8-0x78]
    1f90:	4b 89 14 d1          	mov    QWORD PTR [r9+r10*8],rdx
    1f94:	89 c2                	mov    edx,eax
    1f96:	83 e2 07             	and    edx,0x7
    1f99:	83 fa 05             	cmp    edx,0x5
    1f9c:	7f 0e                	jg     1fac <__sprintf_chk@plt+0xc5c>
    1f9e:	48 98                	cdqe   
    1fa0:	49 8b 14 c1          	mov    rdx,QWORD PTR [r9+rax*8]
    1fa4:	49 0b 50 a8          	or     rdx,QWORD PTR [r8-0x58]
    1fa8:	49 89 14 c1          	mov    QWORD PTR [r9+rax*8],rdx
    1fac:	ff c1                	inc    ecx
    1fae:	49 83 c0 08          	add    r8,0x8
    1fb2:	48 83 c7 08          	add    rdi,0x8
    1fb6:	8d 41 ff             	lea    eax,[rcx-0x1]
    1fb9:	83 fe 06             	cmp    esi,0x6
    1fbc:	7f 2c                	jg     1fea <__sprintf_chk@plt+0xc9a>
    1fbe:	83 fe 05             	cmp    esi,0x5
    1fc1:	0f 8f 5a ff ff ff    	jg     1f21 <__sprintf_chk@plt+0xbd1>
    1fc7:	89 c2                	mov    edx,eax
    1fc9:	83 e2 07             	and    edx,0x7
    1fcc:	74 07                	je     1fd5 <__sprintf_chk@plt+0xc85>
    1fce:	49 8b 70 48          	mov    rsi,QWORD PTR [r8+0x48]
    1fd2:	48 09 37             	or     QWORD PTR [rdi],rsi
    1fd5:	83 fa 06             	cmp    edx,0x6
    1fd8:	0f 8f 43 ff ff ff    	jg     1f21 <__sprintf_chk@plt+0xbd1>
    1fde:	49 8b 50 58          	mov    rdx,QWORD PTR [r8+0x58]
    1fe2:	48 09 17             	or     QWORD PTR [rdi],rdx
    1fe5:	e9 37 ff ff ff       	jmp    1f21 <__sprintf_chk@plt+0xbd1>
    1fea:	89 c8                	mov    eax,ecx
    1fec:	83 f9 3f             	cmp    ecx,0x3f
    1fef:	0f 8e 47 ff ff ff    	jle    1f3c <__sprintf_chk@plt+0xbec>
    1ff5:	48 c7 05 a0 96 01 00 	mov    QWORD PTR [rip+0x196a0],0x0        # 1b6a0 <stdin@@GLIBC_2.2.5+0x4670>
    1ffc:	00 00 00 00 
    2000:	48 8d 15 99 96 01 00 	lea    rdx,[rip+0x19699]        # 1b6a0 <stdin@@GLIBC_2.2.5+0x4670>
    2007:	48 8d 3d 9a 6a 01 00 	lea    rdi,[rip+0x16a9a]        # 18aa8 <stdin@@GLIBC_2.2.5+0x1a78>
    200e:	48 89 f9             	mov    rcx,rdi
    2011:	b8 00 00 00 00       	mov    eax,0x0
    2016:	be 00 00 00 00       	mov    esi,0x0
    201b:	41 ba 01 00 00 00    	mov    r10d,0x1
    2021:	eb 6e                	jmp    2091 <__sprintf_chk@plt+0xd41>
    2023:	8d 70 08             	lea    esi,[rax+0x8]
    2026:	c4 c2 c9 f7 f2       	shlx   rsi,r10,rsi
    202b:	48 01 32             	add    QWORD PTR [rdx],rsi
    202e:	89 c6                	mov    esi,eax
    2030:	83 e6 07             	and    esi,0x7
    2033:	74 07                	je     203c <__sprintf_chk@plt+0xcec>
    2035:	4c 8b 41 f0          	mov    r8,QWORD PTR [rcx-0x10]
    2039:	4c 09 02             	or     QWORD PTR [rdx],r8
    203c:	83 fe 06             	cmp    esi,0x6
    203f:	7f 06                	jg     2047 <__sprintf_chk@plt+0xcf7>
    2041:	48 8b 31             	mov    rsi,QWORD PTR [rcx]
    2044:	48 09 32             	or     QWORD PTR [rdx],rsi
    2047:	ff c0                	inc    eax
    2049:	83 f8 40             	cmp    eax,0x40
    204c:	74 6b                	je     20b9 <__sprintf_chk@plt+0xd69>
    204e:	49 89 d0             	mov    r8,rdx
    2051:	48 c7 42 08 00 00 00 	mov    QWORD PTR [rdx+0x8],0x0
    2058:	00 
    2059:	89 c6                	mov    esi,eax
    205b:	c1 fe 03             	sar    esi,0x3
    205e:	85 f6                	test   esi,esi
    2060:	7e 27                	jle    2089 <__sprintf_chk@plt+0xd39>
    2062:	41 89 c1             	mov    r9d,eax
    2065:	41 83 e1 07          	and    r9d,0x7
    2069:	74 08                	je     2073 <__sprintf_chk@plt+0xd23>
    206b:	4c 8b 59 b8          	mov    r11,QWORD PTR [rcx-0x48]
    206f:	4c 89 5a 08          	mov    QWORD PTR [rdx+0x8],r11
    2073:	41 83 f9 06          	cmp    r9d,0x6
    2077:	7f 08                	jg     2081 <__sprintf_chk@plt+0xd31>
    2079:	4c 8b 49 c8          	mov    r9,QWORD PTR [rcx-0x38]
    207d:	4d 09 48 08          	or     QWORD PTR [r8+0x8],r9
    2081:	4c 8b 49 c0          	mov    r9,QWORD PTR [rcx-0x40]
    2085:	4d 09 48 08          	or     QWORD PTR [r8+0x8],r9
    2089:	48 83 c2 08          	add    rdx,0x8
    208d:	48 83 c1 08          	add    rcx,0x8
    2091:	83 fe 06             	cmp    esi,0x6
    2094:	7f 98                	jg     202e <__sprintf_chk@plt+0xcde>
    2096:	89 c6                	mov    esi,eax
    2098:	83 e6 07             	and    esi,0x7
    209b:	74 07                	je     20a4 <__sprintf_chk@plt+0xd54>
    209d:	4c 8b 41 30          	mov    r8,QWORD PTR [rcx+0x30]
    20a1:	4c 09 02             	or     QWORD PTR [rdx],r8
    20a4:	83 fe 06             	cmp    esi,0x6
    20a7:	0f 8f 76 ff ff ff    	jg     2023 <__sprintf_chk@plt+0xcd3>
    20ad:	48 8b 71 40          	mov    rsi,QWORD PTR [rcx+0x40]
    20b1:	48 09 32             	or     QWORD PTR [rdx],rsi
    20b4:	e9 6a ff ff ff       	jmp    2023 <__sprintf_chk@plt+0xcd3>
    20b9:	49 c7 c5 fe ff ff ff 	mov    r13,0xfffffffffffffffe
    20c0:	41 bc 02 00 00 00    	mov    r12d,0x2
    20c6:	41 be ff ff ff ff    	mov    r14d,0xffffffff
    20cc:	41 b8 00 00 00 00    	mov    r8d,0x0
    20d2:	48 8d 35 c7 69 01 00 	lea    rsi,[rip+0x169c7]        # 18aa0 <stdin@@GLIBC_2.2.5+0x1a70>
    20d9:	4c 8d 15 c0 6b 01 00 	lea    r10,[rip+0x16bc0]        # 18ca0 <stdin@@GLIBC_2.2.5+0x1c70>
    20e0:	eb 7e                	jmp    2160 <__sprintf_chk@plt+0xe10>
    20e2:	ba 00 00 00 00       	mov    edx,0x0
    20e7:	eb 3d                	jmp    2126 <__sprintf_chk@plt+0xdd6>
    20e9:	89 c8                	mov    eax,ecx
    20eb:	d1 f8                	sar    eax,1
    20ed:	83 e0 3f             	and    eax,0x3f
    20f0:	49 8d 04 c2          	lea    rax,[r10+rax*8]
    20f4:	42 88 14 08          	mov    BYTE PTR [rax+r9*1],dl
    20f8:	ff c1                	inc    ecx
    20fa:	81 f9 00 01 00 00    	cmp    ecx,0x100
    2100:	74 4b                	je     214d <__sprintf_chk@plt+0xdfd>
    2102:	45 85 db             	test   r11d,r11d
    2105:	78 db                	js     20e2 <__sprintf_chk@plt+0xd92>
    2107:	48 8b 57 f0          	mov    rdx,QWORD PTR [rdi-0x10]
    210b:	85 cd                	test   ebp,ecx
    210d:	75 17                	jne    2126 <__sprintf_chk@plt+0xdd6>
    210f:	4c 89 e8             	mov    rax,r13
    2112:	41 89 c7             	mov    r15d,eax
    2115:	85 c0                	test   eax,eax
    2117:	78 0d                	js     2126 <__sprintf_chk@plt+0xdd6>
    2119:	48 0b 14 c6          	or     rdx,QWORD PTR [rsi+rax*8]
    211d:	48 ff c8             	dec    rax
    2120:	44 0f a3 f9          	bt     ecx,r15d
    2124:	73 ec                	jae    2112 <__sprintf_chk@plt+0xdc2>
    2126:	41 83 f8 07          	cmp    r8d,0x7
    212a:	7f bd                	jg     20e9 <__sprintf_chk@plt+0xd99>
    212c:	48 0b 17             	or     rdx,QWORD PTR [rdi]
    212f:	85 cb                	test   ebx,ecx
    2131:	75 b6                	jne    20e9 <__sprintf_chk@plt+0xd99>
    2133:	4c 89 e0             	mov    rax,r12
    2136:	41 89 c7             	mov    r15d,eax
    2139:	83 f8 07             	cmp    eax,0x7
    213c:	7f ab                	jg     20e9 <__sprintf_chk@plt+0xd99>
    213e:	48 0b 14 c6          	or     rdx,QWORD PTR [rsi+rax*8]
    2142:	48 ff c0             	inc    rax
    2145:	44 0f a3 f9          	bt     ecx,r15d
    2149:	73 eb                	jae    2136 <__sprintf_chk@plt+0xde6>
    214b:	eb 9c                	jmp    20e9 <__sprintf_chk@plt+0xd99>
    214d:	41 ff c6             	inc    r14d
    2150:	48 83 c7 08          	add    rdi,0x8
    2154:	49 ff c4             	inc    r12
    2157:	49 ff c5             	inc    r13
    215a:	41 83 f8 08          	cmp    r8d,0x8
    215e:	74 22                	je     2182 <__sprintf_chk@plt+0xe32>
    2160:	45 89 f3             	mov    r11d,r14d
    2163:	b8 01 00 00 00       	mov    eax,0x1
    2168:	c4 e2 09 f7 e8       	shlx   ebp,eax,r14d
    216d:	45 89 c1             	mov    r9d,r8d
    2170:	41 ff c0             	inc    r8d
    2173:	c4 e2 39 f7 d8       	shlx   ebx,eax,r8d
    2178:	b9 00 00 00 00       	mov    ecx,0x0
    217d:	4d 63 c9             	movsxd r9,r9d
    2180:	eb 80                	jmp    2102 <__sprintf_chk@plt+0xdb2>
    2182:	48 8d 2d 17 7d 01 00 	lea    rbp,[rip+0x17d17]        # 19ea0 <stdin@@GLIBC_2.2.5+0x2e70>
    2189:	4c 8d 05 10 6b 01 00 	lea    r8,[rip+0x16b10]        # 18ca0 <stdin@@GLIBC_2.2.5+0x1c70>
    2190:	bb 00 00 00 00       	mov    ebx,0x0
    2195:	48 be 01 01 01 01 01 	movabs rsi,0x101010101010101
    219c:	01 01 01 
    219f:	4c 8d 1d fa 6c 01 00 	lea    r11,[rip+0x16cfa]        # 18ea0 <stdin@@GLIBC_2.2.5+0x1e70>
    21a6:	49 ba 01 02 04 08 10 	movabs r10,0x8040201008040201
    21ad:	20 40 80 
    21b0:	48 89 e9             	mov    rcx,rbp
    21b3:	ba 00 00 00 00       	mov    edx,0x0
    21b8:	41 89 d9             	mov    r9d,ebx
    21bb:	41 83 f1 07          	xor    r9d,0x7
    21bf:	4d 63 c9             	movsxd r9,r9d
    21c2:	41 0f b6 04 d0       	movzx  eax,BYTE PTR [r8+rdx*8]
    21c7:	48 89 c7             	mov    rdi,rax
    21ca:	48 0f af fe          	imul   rdi,rsi
    21ce:	48 89 39             	mov    QWORD PTR [rcx],rdi
    21d1:	48 63 fa             	movsxd rdi,edx
    21d4:	49 8d 3c f9          	lea    rdi,[r9+rdi*8]
    21d8:	49 0f af c2          	imul   rax,r10
    21dc:	48 c1 e8 07          	shr    rax,0x7
    21e0:	48 21 f0             	and    rax,rsi
    21e3:	49 89 04 fb          	mov    QWORD PTR [r11+rdi*8],rax
    21e7:	48 ff c2             	inc    rdx
    21ea:	48 83 c1 40          	add    rcx,0x40
    21ee:	48 83 fa 40          	cmp    rdx,0x40
    21f2:	75 ce                	jne    21c2 <__sprintf_chk@plt+0xe72>
    21f4:	ff c3                	inc    ebx
    21f6:	48 83 c5 08          	add    rbp,0x8
    21fa:	49 ff c0             	inc    r8
    21fd:	83 fb 08             	cmp    ebx,0x8
    2200:	75 ae                	jne    21b0 <__sprintf_chk@plt+0xe60>
    2202:	b8 00 00 00 00       	mov    eax,0x0
    2207:	48 8d 1d 52 62 01 00 	lea    rbx,[rip+0x16252]        # 18460 <stdin@@GLIBC_2.2.5+0x1430>
    220e:	4c 8d 1d 0b 62 01 00 	lea    r11,[rip+0x1620b]        # 18420 <stdin@@GLIBC_2.2.5+0x13f0>
    2215:	4c 8d 15 04 5f 01 00 	lea    r10,[rip+0x15f04]        # 18120 <stdin@@GLIBC_2.2.5+0x10f0>
    221c:	4c 8d 0d 7d 64 01 00 	lea    r9,[rip+0x1647d]        # 186a0 <stdin@@GLIBC_2.2.5+0x1670>
    2223:	4c 8d 05 76 62 01 00 	lea    r8,[rip+0x16276]        # 184a0 <stdin@@GLIBC_2.2.5+0x1470>
    222a:	48 8d 3d ef 5c 01 00 	lea    rdi,[rip+0x15cef]        # 17f20 <stdin@@GLIBC_2.2.5+0xef0>
    2231:	48 8d 35 e8 5a 01 00 	lea    rsi,[rip+0x15ae8]        # 17d20 <stdin@@GLIBC_2.2.5+0xcf0>
    2238:	48 89 c2             	mov    rdx,rax
    223b:	83 e2 07             	and    edx,0x7
    223e:	89 c1                	mov    ecx,eax
    2240:	c1 f9 03             	sar    ecx,0x3
    2243:	48 63 c9             	movsxd rcx,ecx
    2246:	48 8b 14 d3          	mov    rdx,QWORD PTR [rbx+rdx*8]
    224a:	49 0b 14 cb          	or     rdx,QWORD PTR [r11+rcx*8]
    224e:	49 89 14 c2          	mov    QWORD PTR [r10+rax*8],rdx
    2252:	49 8b 0c c1          	mov    rcx,QWORD PTR [r9+rax*8]
    2256:	49 0b 0c c0          	or     rcx,QWORD PTR [r8+rax*8]
    225a:	48 89 0c c7          	mov    QWORD PTR [rdi+rax*8],rcx
    225e:	48 09 ca             	or     rdx,rcx
    2261:	48 89 14 c6          	mov    QWORD PTR [rsi+rax*8],rdx
    2265:	48 ff c0             	inc    rax
    2268:	48 83 f8 40          	cmp    rax,0x40
    226c:	75 ca                	jne    2238 <__sprintf_chk@plt+0xee8>
    226e:	48 c7 05 67 61 01 00 	mov    QWORD PTR [rip+0x16167],0x0        # 183e0 <stdin@@GLIBC_2.2.5+0x13b0>
    2275:	00 00 00 00 
    2279:	48 c7 05 1c 61 01 00 	mov    QWORD PTR [rip+0x1611c],0x0        # 183a0 <stdin@@GLIBC_2.2.5+0x1370>
    2280:	00 00 00 00 
    2284:	48 c7 05 d1 60 01 00 	mov    QWORD PTR [rip+0x160d1],0x0        # 18360 <stdin@@GLIBC_2.2.5+0x1330>
    228b:	00 00 00 00 
    228f:	48 c7 05 86 60 01 00 	mov    QWORD PTR [rip+0x16086],0x0        # 18320 <stdin@@GLIBC_2.2.5+0x12f0>
    2296:	00 00 00 00 
    229a:	41 b9 00 00 00 00    	mov    r9d,0x0
    22a0:	4c 8d 1d f9 60 01 00 	lea    r11,[rip+0x160f9]        # 183a0 <stdin@@GLIBC_2.2.5+0x1370>
    22a7:	4c 8d 15 72 60 01 00 	lea    r10,[rip+0x16072]        # 18320 <stdin@@GLIBC_2.2.5+0x12f0>
    22ae:	48 8d 3d 6b 61 01 00 	lea    rdi,[rip+0x1616b]        # 18420 <stdin@@GLIBC_2.2.5+0x13f0>
    22b5:	48 8d 35 a4 61 01 00 	lea    rsi,[rip+0x161a4]        # 18460 <stdin@@GLIBC_2.2.5+0x1430>
    22bc:	48 8d 2d 1d 61 01 00 	lea    rbp,[rip+0x1611d]        # 183e0 <stdin@@GLIBC_2.2.5+0x13b0>
    22c3:	48 8d 1d 96 60 01 00 	lea    rbx,[rip+0x16096]        # 18360 <stdin@@GLIBC_2.2.5+0x1330>
    22ca:	eb 03                	jmp    22cf <__sprintf_chk@plt+0xf7f>
    22cc:	49 ff c1             	inc    r9
    22cf:	45 89 c8             	mov    r8d,r9d
    22d2:	41 83 f9 06          	cmp    r9d,0x6
    22d6:	0f 8f 81 00 00 00    	jg     235d <__sprintf_chk@plt+0x100d>
    22dc:	4b 8b 0c cb          	mov    rcx,QWORD PTR [r11+r9*8]
    22e0:	4b 8b 14 ca          	mov    rdx,QWORD PTR [r10+r9*8]
    22e4:	b8 07 00 00 00       	mov    eax,0x7
    22e9:	48 0b 0c c7          	or     rcx,QWORD PTR [rdi+rax*8]
    22ed:	48 0b 14 c6          	or     rdx,QWORD PTR [rsi+rax*8]
    22f1:	48 ff c8             	dec    rax
    22f4:	41 39 c0             	cmp    r8d,eax
    22f7:	7c f0                	jl     22e9 <__sprintf_chk@plt+0xf99>
    22f9:	4b 89 0c cb          	mov    QWORD PTR [r11+r9*8],rcx
    22fd:	4b 89 14 ca          	mov    QWORD PTR [r10+r9*8],rdx
    2301:	41 8d 51 01          	lea    edx,[r9+0x1]
    2305:	48 63 c2             	movsxd rax,edx
    2308:	48 c7 44 c5 00 00 00 	mov    QWORD PTR [rbp+rax*8+0x0],0x0
    230f:	00 00 
    2311:	49 c7 04 c3 00 00 00 	mov    QWORD PTR [r11+rax*8],0x0
    2318:	00 
    2319:	48 c7 04 c3 00 00 00 	mov    QWORD PTR [rbx+rax*8],0x0
    2320:	00 
    2321:	49 c7 04 c2 00 00 00 	mov    QWORD PTR [r10+rax*8],0x0
    2328:	00 
    2329:	85 d2                	test   edx,edx
    232b:	7e 9f                	jle    22cc <__sprintf_chk@plt+0xf7c>
    232d:	b8 00 00 00 00       	mov    eax,0x0
    2332:	b9 00 00 00 00       	mov    ecx,0x0
    2337:	41 b8 00 00 00 00    	mov    r8d,0x0
    233d:	4c 0b 04 c7          	or     r8,QWORD PTR [rdi+rax*8]
    2341:	48 0b 0c c6          	or     rcx,QWORD PTR [rsi+rax*8]
    2345:	48 ff c0             	inc    rax
    2348:	39 c2                	cmp    edx,eax
    234a:	7f f1                	jg     233d <__sprintf_chk@plt+0xfed>
    234c:	48 63 d2             	movsxd rdx,edx
    234f:	4c 89 44 d5 00       	mov    QWORD PTR [rbp+rdx*8+0x0],r8
    2354:	48 89 0c d3          	mov    QWORD PTR [rbx+rdx*8],rcx
    2358:	e9 6f ff ff ff       	jmp    22cc <__sprintf_chk@plt+0xf7c>
    235d:	41 8d 51 01          	lea    edx,[r9+0x1]
    2361:	83 fa 07             	cmp    edx,0x7
    2364:	7e 9f                	jle    2305 <__sprintf_chk@plt+0xfb5>
    2366:	48 c7 05 47 51 01 00 	mov    QWORD PTR [rip+0x15147],0x0        # 174b8 <stdin@@GLIBC_2.2.5+0x488>
    236d:	00 00 00 00 
    2371:	48 c7 05 34 51 01 00 	mov    QWORD PTR [rip+0x15134],0x0        # 174b0 <stdin@@GLIBC_2.2.5+0x480>
    2378:	00 00 00 00 
    237c:	b8 00 00 00 00       	mov    eax,0x0
    2381:	41 b9 00 00 00 00    	mov    r9d,0x0
    2387:	b9 00 00 00 00       	mov    ecx,0x0
    238c:	41 ba 00 00 00 00    	mov    r10d,0x0
    2392:	be 00 00 00 00       	mov    esi,0x0
    2397:	4c 8d 05 02 67 01 00 	lea    r8,[rip+0x16702]        # 18aa0 <stdin@@GLIBC_2.2.5+0x1a70>
    239e:	bf 01 00 00 00       	mov    edi,0x1
    23a3:	eb 10                	jmp    23b5 <__sprintf_chk@plt+0x1065>
    23a5:	49 0b 0c c0          	or     rcx,QWORD PTR [r8+rax*8]
    23a9:	41 89 f9             	mov    r9d,edi
    23ac:	48 ff c0             	inc    rax
    23af:	48 83 f8 40          	cmp    rax,0x40
    23b3:	74 15                	je     23ca <__sprintf_chk@plt+0x107a>
    23b5:	89 c2                	mov    edx,eax
    23b7:	c1 fa 03             	sar    edx,0x3
    23ba:	01 c2                	add    edx,eax
    23bc:	f6 c2 01             	test   dl,0x1
    23bf:	74 e4                	je     23a5 <__sprintf_chk@plt+0x1055>
    23c1:	49 0b 34 c0          	or     rsi,QWORD PTR [r8+rax*8]
    23c5:	41 89 fa             	mov    r10d,edi
    23c8:	eb e2                	jmp    23ac <__sprintf_chk@plt+0x105c>
    23ca:	45 84 d2             	test   r10b,r10b
    23cd:	74 07                	je     23d6 <__sprintf_chk@plt+0x1086>
    23cf:	48 89 35 da 50 01 00 	mov    QWORD PTR [rip+0x150da],rsi        # 174b0 <stdin@@GLIBC_2.2.5+0x480>
    23d6:	45 84 c9             	test   r9b,r9b
    23d9:	74 07                	je     23e2 <__sprintf_chk@plt+0x1092>
    23db:	48 89 0d d6 50 01 00 	mov    QWORD PTR [rip+0x150d6],rcx        # 174b8 <stdin@@GLIBC_2.2.5+0x488>
    23e2:	48 8b 0d cf 5f 01 00 	mov    rcx,QWORD PTR [rip+0x15fcf]        # 183b8 <stdin@@GLIBC_2.2.5+0x1388>
    23e9:	48 8b 15 48 5f 01 00 	mov    rdx,QWORD PTR [rip+0x15f48]        # 18338 <stdin@@GLIBC_2.2.5+0x1308>
    23f0:	48 89 c8             	mov    rax,rcx
    23f3:	48 21 d0             	and    rax,rdx
    23f6:	48 89 05 fb 54 01 00 	mov    QWORD PTR [rip+0x154fb],rax        # 178f8 <stdin@@GLIBC_2.2.5+0x8c8>
    23fd:	48 8b 05 7c 5f 01 00 	mov    rax,QWORD PTR [rip+0x15f7c]        # 18380 <stdin@@GLIBC_2.2.5+0x1350>
    2404:	48 21 c1             	and    rcx,rax
    2407:	48 89 0d e2 54 01 00 	mov    QWORD PTR [rip+0x154e2],rcx        # 178f0 <stdin@@GLIBC_2.2.5+0x8c0>
    240e:	48 8b 0d eb 5f 01 00 	mov    rcx,QWORD PTR [rip+0x15feb]        # 18400 <stdin@@GLIBC_2.2.5+0x13d0>
    2415:	48 21 ca             	and    rdx,rcx
    2418:	48 89 15 c9 54 01 00 	mov    QWORD PTR [rip+0x154c9],rdx        # 178e8 <stdin@@GLIBC_2.2.5+0x8b8>
    241f:	48 21 c8             	and    rax,rcx
    2422:	48 89 05 b7 54 01 00 	mov    QWORD PTR [rip+0x154b7],rax        # 178e0 <stdin@@GLIBC_2.2.5+0x8b0>
    2429:	4c 8b 35 40 60 01 00 	mov    r14,QWORD PTR [rip+0x16040]        # 18470 <stdin@@GLIBC_2.2.5+0x1440>
    2430:	48 8b 0d 29 60 01 00 	mov    rcx,QWORD PTR [rip+0x16029]        # 18460 <stdin@@GLIBC_2.2.5+0x1430>
    2437:	48 0b 0d 2a 60 01 00 	or     rcx,QWORD PTR [rip+0x1602a]        # 18468 <stdin@@GLIBC_2.2.5+0x1438>
    243e:	4c 09 f1             	or     rcx,r14
    2441:	4c 8b 3d 30 60 01 00 	mov    r15,QWORD PTR [rip+0x16030]        # 18478 <stdin@@GLIBC_2.2.5+0x1448>
    2448:	48 89 c8             	mov    rax,rcx
    244b:	4c 09 f8             	or     rax,r15
    244e:	48 89 05 4b 50 01 00 	mov    QWORD PTR [rip+0x1504b],rax        # 174a0 <stdin@@GLIBC_2.2.5+0x470>
    2455:	4c 8b 2d 2c 60 01 00 	mov    r13,QWORD PTR [rip+0x1602c]        # 18488 <stdin@@GLIBC_2.2.5+0x1458>
    245c:	4c 89 e8             	mov    rax,r13
    245f:	48 0b 05 1a 60 01 00 	or     rax,QWORD PTR [rip+0x1601a]        # 18480 <stdin@@GLIBC_2.2.5+0x1450>
    2466:	48 0b 05 23 60 01 00 	or     rax,QWORD PTR [rip+0x16023]        # 18490 <stdin@@GLIBC_2.2.5+0x1460>
    246d:	48 0b 05 24 60 01 00 	or     rax,QWORD PTR [rip+0x16024]        # 18498 <stdin@@GLIBC_2.2.5+0x1468>
    2474:	48 89 05 2d 50 01 00 	mov    QWORD PTR [rip+0x1502d],rax        # 174a8 <stdin@@GLIBC_2.2.5+0x478>
    247b:	48 8b 15 36 67 01 00 	mov    rdx,QWORD PTR [rip+0x16736]        # 18bb8 <stdin@@GLIBC_2.2.5+0x1b88>
    2482:	48 0b 15 37 67 01 00 	or     rdx,QWORD PTR [rip+0x16737]        # 18bc0 <stdin@@GLIBC_2.2.5+0x1b90>
    2489:	48 8b 05 e0 66 01 00 	mov    rax,QWORD PTR [rip+0x166e0]        # 18b70 <stdin@@GLIBC_2.2.5+0x1b40>
    2490:	48 89 44 24 b0       	mov    QWORD PTR [rsp-0x50],rax
    2495:	4c 8b 05 dc 66 01 00 	mov    r8,QWORD PTR [rip+0x166dc]        # 18b78 <stdin@@GLIBC_2.2.5+0x1b48>
    249c:	48 8b 3d dd 66 01 00 	mov    rdi,QWORD PTR [rip+0x166dd]        # 18b80 <stdin@@GLIBC_2.2.5+0x1b50>
    24a3:	48 8b 1d de 66 01 00 	mov    rbx,QWORD PTR [rip+0x166de]        # 18b88 <stdin@@GLIBC_2.2.5+0x1b58>
    24aa:	48 89 5c 24 b8       	mov    QWORD PTR [rsp-0x48],rbx
    24af:	48 8b 35 7a 66 01 00 	mov    rsi,QWORD PTR [rip+0x1667a]        # 18b30 <stdin@@GLIBC_2.2.5+0x1b00>
    24b6:	48 89 74 24 c0       	mov    QWORD PTR [rsp-0x40],rsi
    24bb:	4c 8b 15 76 66 01 00 	mov    r10,QWORD PTR [rip+0x16676]        # 18b38 <stdin@@GLIBC_2.2.5+0x1b08>
    24c2:	4c 89 54 24 c8       	mov    QWORD PTR [rsp-0x38],r10
    24c7:	4c 8b 1d 72 66 01 00 	mov    r11,QWORD PTR [rip+0x16672]        # 18b40 <stdin@@GLIBC_2.2.5+0x1b10>
    24ce:	4c 89 5c 24 d0       	mov    QWORD PTR [rsp-0x30],r11
    24d3:	4c 8b 0d 6e 66 01 00 	mov    r9,QWORD PTR [rip+0x1666e]        # 18b48 <stdin@@GLIBC_2.2.5+0x1b18>
    24da:	4c 89 4c 24 d8       	mov    QWORD PTR [rsp-0x28],r9
    24df:	48 09 d0             	or     rax,rdx
    24e2:	4c 09 c0             	or     rax,r8
    24e5:	48 09 f8             	or     rax,rdi
    24e8:	48 09 d8             	or     rax,rbx
    24eb:	48 09 f0             	or     rax,rsi
    24ee:	4c 09 d0             	or     rax,r10
    24f1:	4c 09 d8             	or     rax,r11
    24f4:	4c 09 c8             	or     rax,r9
    24f7:	48 89 c6             	mov    rsi,rax
    24fa:	48 8b 05 ef 65 01 00 	mov    rax,QWORD PTR [rip+0x165ef]        # 18af0 <stdin@@GLIBC_2.2.5+0x1ac0>
    2501:	48 89 44 24 e0       	mov    QWORD PTR [rsp-0x20],rax
    2506:	48 8b 1d eb 65 01 00 	mov    rbx,QWORD PTR [rip+0x165eb]        # 18af8 <stdin@@GLIBC_2.2.5+0x1ac8>
    250d:	48 89 5c 24 e8       	mov    QWORD PTR [rsp-0x18],rbx
    2512:	4c 8b 15 e7 65 01 00 	mov    r10,QWORD PTR [rip+0x165e7]        # 18b00 <stdin@@GLIBC_2.2.5+0x1ad0>
    2519:	4c 89 54 24 f0       	mov    QWORD PTR [rsp-0x10],r10
    251e:	4c 8b 1d e3 65 01 00 	mov    r11,QWORD PTR [rip+0x165e3]        # 18b08 <stdin@@GLIBC_2.2.5+0x1ad8>
    2525:	4c 89 5c 24 f8       	mov    QWORD PTR [rsp-0x8],r11
    252a:	48 09 f0             	or     rax,rsi
    252d:	48 09 d8             	or     rax,rbx
    2530:	4c 09 d0             	or     rax,r10
    2533:	4c 09 d8             	or     rax,r11
    2536:	48 89 05 8b 4f 01 00 	mov    QWORD PTR [rip+0x14f8b],rax        # 174c8 <stdin@@GLIBC_2.2.5+0x498>
    253d:	4c 8b 25 6c 66 01 00 	mov    r12,QWORD PTR [rip+0x1666c]        # 18bb0 <stdin@@GLIBC_2.2.5+0x1b80>
    2544:	48 8b 2d 7d 66 01 00 	mov    rbp,QWORD PTR [rip+0x1667d]        # 18bc8 <stdin@@GLIBC_2.2.5+0x1b98>
    254b:	48 8b 1d 9e 66 01 00 	mov    rbx,QWORD PTR [rip+0x1669e]        # 18bf0 <stdin@@GLIBC_2.2.5+0x1bc0>
    2552:	4c 8b 1d 9f 66 01 00 	mov    r11,QWORD PTR [rip+0x1669f]        # 18bf8 <stdin@@GLIBC_2.2.5+0x1bc8>
    2559:	4c 8b 15 a0 66 01 00 	mov    r10,QWORD PTR [rip+0x166a0]        # 18c00 <stdin@@GLIBC_2.2.5+0x1bd0>
    2560:	4c 8b 0d a1 66 01 00 	mov    r9,QWORD PTR [rip+0x166a1]        # 18c08 <stdin@@GLIBC_2.2.5+0x1bd8>
    2567:	48 8b 05 c2 66 01 00 	mov    rax,QWORD PTR [rip+0x166c2]        # 18c30 <stdin@@GLIBC_2.2.5+0x1c00>
    256e:	48 89 44 24 90       	mov    QWORD PTR [rsp-0x70],rax
    2573:	48 8b 05 be 66 01 00 	mov    rax,QWORD PTR [rip+0x166be]        # 18c38 <stdin@@GLIBC_2.2.5+0x1c08>
    257a:	48 89 44 24 98       	mov    QWORD PTR [rsp-0x68],rax
    257f:	48 8b 05 ba 66 01 00 	mov    rax,QWORD PTR [rip+0x166ba]        # 18c40 <stdin@@GLIBC_2.2.5+0x1c10>
    2586:	48 89 44 24 a0       	mov    QWORD PTR [rsp-0x60],rax
    258b:	48 8b 05 b6 66 01 00 	mov    rax,QWORD PTR [rip+0x166b6]        # 18c48 <stdin@@GLIBC_2.2.5+0x1c18>
    2592:	48 89 44 24 a8       	mov    QWORD PTR [rsp-0x58],rax
    2597:	48 89 d0             	mov    rax,rdx
    259a:	4c 09 c0             	or     rax,r8
    259d:	48 09 f8             	or     rax,rdi
    25a0:	4c 09 e0             	or     rax,r12
    25a3:	48 09 e8             	or     rax,rbp
    25a6:	48 09 d8             	or     rax,rbx
    25a9:	4c 09 d8             	or     rax,r11
    25ac:	4c 09 d0             	or     rax,r10
    25af:	4c 09 c8             	or     rax,r9
    25b2:	48 0b 44 24 90       	or     rax,QWORD PTR [rsp-0x70]
    25b7:	48 0b 44 24 98       	or     rax,QWORD PTR [rsp-0x68]
    25bc:	48 0b 44 24 a0       	or     rax,QWORD PTR [rsp-0x60]
    25c1:	48 0b 44 24 a8       	or     rax,QWORD PTR [rsp-0x58]
    25c6:	48 89 05 f3 4e 01 00 	mov    QWORD PTR [rip+0x14ef3],rax        # 174c0 <stdin@@GLIBC_2.2.5+0x490>
    25cd:	48 89 f0             	mov    rax,rsi
    25d0:	4c 09 e0             	or     rax,r12
    25d3:	48 09 e8             	or     rax,rbp
    25d6:	48 09 d8             	or     rax,rbx
    25d9:	4c 09 d8             	or     rax,r11
    25dc:	4c 09 d0             	or     rax,r10
    25df:	4c 09 c8             	or     rax,r9
    25e2:	48 89 05 67 4a 01 00 	mov    QWORD PTR [rip+0x14a67],rax        # 17050 <stdin@@GLIBC_2.2.5+0x20>
    25e9:	48 89 0d 70 4e 01 00 	mov    QWORD PTR [rip+0x14e70],rcx        # 17460 <stdin@@GLIBC_2.2.5+0x430>
    25f0:	48 89 0d 71 4e 01 00 	mov    QWORD PTR [rip+0x14e71],rcx        # 17468 <stdin@@GLIBC_2.2.5+0x438>
    25f7:	48 89 0d 72 4e 01 00 	mov    QWORD PTR [rip+0x14e72],rcx        # 17470 <stdin@@GLIBC_2.2.5+0x440>
    25fe:	4c 89 f0             	mov    rax,r14
    2601:	4c 09 f8             	or     rax,r15
    2604:	48 0b 05 75 5e 01 00 	or     rax,QWORD PTR [rip+0x15e75]        # 18480 <stdin@@GLIBC_2.2.5+0x1450>
    260b:	4c 09 e8             	or     rax,r13
    260e:	48 89 05 63 4e 01 00 	mov    QWORD PTR [rip+0x14e63],rax        # 17478 <stdin@@GLIBC_2.2.5+0x448>
    2615:	48 89 05 64 4e 01 00 	mov    QWORD PTR [rip+0x14e64],rax        # 17480 <stdin@@GLIBC_2.2.5+0x450>
    261c:	4c 89 e8             	mov    rax,r13
    261f:	48 0b 05 6a 5e 01 00 	or     rax,QWORD PTR [rip+0x15e6a]        # 18490 <stdin@@GLIBC_2.2.5+0x1460>
    2626:	48 0b 05 6b 5e 01 00 	or     rax,QWORD PTR [rip+0x15e6b]        # 18498 <stdin@@GLIBC_2.2.5+0x1468>
    262d:	48 89 05 54 4e 01 00 	mov    QWORD PTR [rip+0x14e54],rax        # 17488 <stdin@@GLIBC_2.2.5+0x458>
    2634:	48 89 05 55 4e 01 00 	mov    QWORD PTR [rip+0x14e55],rax        # 17490 <stdin@@GLIBC_2.2.5+0x460>
    263b:	48 89 05 56 4e 01 00 	mov    QWORD PTR [rip+0x14e56],rax        # 17498 <stdin@@GLIBC_2.2.5+0x468>
    2642:	b8 00 00 00 00       	mov    eax,0x0
    2647:	48 8d 35 12 4c 01 00 	lea    rsi,[rip+0x14c12]        # 17260 <stdin@@GLIBC_2.2.5+0x230>
    264e:	4c 8d 35 8b 50 01 00 	lea    r14,[rip+0x1508b]        # 176e0 <stdin@@GLIBC_2.2.5+0x6b0>
    2655:	4d 8d 7e f8          	lea    r15,[r14-0x8]
    2659:	4d 8d 6e 08          	lea    r13,[r14+0x8]
    265d:	eb 16                	jmp    2675 <__sprintf_chk@plt+0x1325>
    265f:	83 f9 07             	cmp    ecx,0x7
    2662:	74 23                	je     2687 <__sprintf_chk@plt+0x1337>
    2664:	49 8b 0c c6          	mov    rcx,QWORD PTR [r14+rax*8]
    2668:	48 89 0c c6          	mov    QWORD PTR [rsi+rax*8],rcx
    266c:	48 ff c0             	inc    rax
    266f:	48 83 f8 40          	cmp    rax,0x40
    2673:	74 1c                	je     2691 <__sprintf_chk@plt+0x1341>
    2675:	89 c1                	mov    ecx,eax
    2677:	83 e1 07             	and    ecx,0x7
    267a:	75 e3                	jne    265f <__sprintf_chk@plt+0x130f>
    267c:	49 8b 4c c5 00       	mov    rcx,QWORD PTR [r13+rax*8+0x0]
    2681:	48 89 0c c6          	mov    QWORD PTR [rsi+rax*8],rcx
    2685:	eb e5                	jmp    266c <__sprintf_chk@plt+0x131c>
    2687:	49 8b 0c c7          	mov    rcx,QWORD PTR [r15+rax*8]
    268b:	48 89 0c c6          	mov    QWORD PTR [rsi+rax*8],rcx
    268f:	eb db                	jmp    266c <__sprintf_chk@plt+0x131c>
    2691:	b8 00 00 00 00       	mov    eax,0x0
    2696:	48 8d 35 c3 49 01 00 	lea    rsi,[rip+0x149c3]        # 17060 <stdin@@GLIBC_2.2.5+0x30>
    269d:	4c 8d 35 3c 4e 01 00 	lea    r14,[rip+0x14e3c]        # 174e0 <stdin@@GLIBC_2.2.5+0x4b0>
    26a4:	4d 8d 7e f8          	lea    r15,[r14-0x8]
    26a8:	4d 8d 6e 08          	lea    r13,[r14+0x8]
    26ac:	eb 16                	jmp    26c4 <__sprintf_chk@plt+0x1374>
    26ae:	83 f9 07             	cmp    ecx,0x7
    26b1:	74 23                	je     26d6 <__sprintf_chk@plt+0x1386>
    26b3:	49 8b 0c c6          	mov    rcx,QWORD PTR [r14+rax*8]
    26b7:	48 89 0c c6          	mov    QWORD PTR [rsi+rax*8],rcx
    26bb:	48 ff c0             	inc    rax
    26be:	48 83 f8 40          	cmp    rax,0x40
    26c2:	74 1c                	je     26e0 <__sprintf_chk@plt+0x1390>
    26c4:	89 c1                	mov    ecx,eax
    26c6:	83 e1 07             	and    ecx,0x7
    26c9:	75 e3                	jne    26ae <__sprintf_chk@plt+0x135e>
    26cb:	49 8b 4c c5 00       	mov    rcx,QWORD PTR [r13+rax*8+0x0]
    26d0:	48 89 0c c6          	mov    QWORD PTR [rsi+rax*8],rcx
    26d4:	eb e5                	jmp    26bb <__sprintf_chk@plt+0x136b>
    26d6:	49 8b 0c c7          	mov    rcx,QWORD PTR [r15+rax*8]
    26da:	48 89 0c c6          	mov    QWORD PTR [rsi+rax*8],rcx
    26de:	eb db                	jmp    26bb <__sprintf_chk@plt+0x136b>
    26e0:	4c 09 e2             	or     rdx,r12
    26e3:	48 09 ea             	or     rdx,rbp
    26e6:	48 09 da             	or     rdx,rbx
    26e9:	4c 09 da             	or     rdx,r11
    26ec:	4c 09 d2             	or     rdx,r10
    26ef:	4c 09 ca             	or     rdx,r9
    26f2:	48 0b 54 24 90       	or     rdx,QWORD PTR [rsp-0x70]
    26f7:	48 8b 44 24 98       	mov    rax,QWORD PTR [rsp-0x68]
    26fc:	48 09 d0             	or     rax,rdx
    26ff:	48 0b 44 24 a0       	or     rax,QWORD PTR [rsp-0x60]
    2704:	48 0b 44 24 a8       	or     rax,QWORD PTR [rsp-0x58]
    2709:	48 89 05 30 49 01 00 	mov    QWORD PTR [rip+0x14930],rax        # 17040 <stdin@@GLIBC_2.2.5+0x10>
    2710:	48 8b 44 24 b0       	mov    rax,QWORD PTR [rsp-0x50]
    2715:	4c 09 c0             	or     rax,r8
    2718:	48 09 f8             	or     rax,rdi
    271b:	48 0b 44 24 b8       	or     rax,QWORD PTR [rsp-0x48]
    2720:	48 0b 44 24 c0       	or     rax,QWORD PTR [rsp-0x40]
    2725:	48 0b 44 24 c8       	or     rax,QWORD PTR [rsp-0x38]
    272a:	48 0b 44 24 d0       	or     rax,QWORD PTR [rsp-0x30]
    272f:	48 0b 44 24 d8       	or     rax,QWORD PTR [rsp-0x28]
    2734:	48 0b 44 24 e0       	or     rax,QWORD PTR [rsp-0x20]
    2739:	48 0b 44 24 e8       	or     rax,QWORD PTR [rsp-0x18]
    273e:	48 0b 44 24 f0       	or     rax,QWORD PTR [rsp-0x10]
    2743:	48 0b 44 24 f8       	or     rax,QWORD PTR [rsp-0x8]
    2748:	48 89 05 f9 48 01 00 	mov    QWORD PTR [rip+0x148f9],rax        # 17048 <stdin@@GLIBC_2.2.5+0x18>
    274f:	5b                   	pop    rbx
    2750:	5d                   	pop    rbp
    2751:	41 5c                	pop    r12
    2753:	41 5d                	pop    r13
    2755:	41 5e                	pop    r14
    2757:	41 5f                	pop    r15
    2759:	c3                   	ret    
    275a:	48 c7 05 3b 91 01 00 	mov    QWORD PTR [rip+0x1913b],0x0        # 1b8a0 <stdin@@GLIBC_2.2.5+0x4870>
    2761:	00 00 00 00 
    2765:	4c 8d 05 64 63 01 00 	lea    r8,[rip+0x16364]        # 18ad0 <stdin@@GLIBC_2.2.5+0x1aa0>
    276c:	48 8d 3d 2d 91 01 00 	lea    rdi,[rip+0x1912d]        # 1b8a0 <stdin@@GLIBC_2.2.5+0x4870>
    2773:	b9 01 00 00 00       	mov    ecx,0x1
    2778:	be 00 00 00 00       	mov    esi,0x0
    277d:	49 89 f9             	mov    r9,rdi
    2780:	e9 31 f8 ff ff       	jmp    1fb6 <__sprintf_chk@plt+0xc66>
    2785:	48 c7 05 10 8d 01 00 	mov    QWORD PTR [rip+0x18d10],0x0        # 1b4a0 <stdin@@GLIBC_2.2.5+0x4470>
    278c:	00 00 00 00 
    2790:	48 c7 05 05 8b 01 00 	mov    QWORD PTR [rip+0x18b05],0x0        # 1b2a0 <stdin@@GLIBC_2.2.5+0x4270>
    2797:	00 00 00 00 
    279b:	48 c7 05 fa 88 01 00 	mov    QWORD PTR [rip+0x188fa],0x0        # 1b0a0 <stdin@@GLIBC_2.2.5+0x4070>
    27a2:	00 00 00 00 
    27a6:	48 c7 05 ef 86 01 00 	mov    QWORD PTR [rip+0x186ef],0x0        # 1aea0 <stdin@@GLIBC_2.2.5+0x3e70>
    27ad:	00 00 00 00 
    27b1:	48 8d 35 28 63 01 00 	lea    rsi,[rip+0x16328]        # 18ae0 <stdin@@GLIBC_2.2.5+0x1ab0>
    27b8:	ba 00 00 00 00       	mov    edx,0x0
    27bd:	41 b9 00 00 00 00    	mov    r9d,0x0
    27c3:	4c 8d 05 d6 8a 01 00 	lea    r8,[rip+0x18ad6]        # 1b2a0 <stdin@@GLIBC_2.2.5+0x4270>
    27ca:	48 8d 3d cf 8c 01 00 	lea    rdi,[rip+0x18ccf]        # 1b4a0 <stdin@@GLIBC_2.2.5+0x4470>
    27d1:	4c 8d 1d c8 88 01 00 	lea    r11,[rip+0x188c8]        # 1b0a0 <stdin@@GLIBC_2.2.5+0x4070>
    27d8:	4c 8d 15 c1 86 01 00 	lea    r10,[rip+0x186c1]        # 1aea0 <stdin@@GLIBC_2.2.5+0x3e70>
    27df:	e9 ca f6 ff ff       	jmp    1eae <__sprintf_chk@plt+0xb5e>
    27e4:	f3 0f 1e fa          	endbr64 
    27e8:	48 8d 0d b1 62 01 00 	lea    rcx,[rip+0x162b1]        # 18aa0 <stdin@@GLIBC_2.2.5+0x1a70>
    27ef:	48 63 87 14 11 00 00 	movsxd rax,DWORD PTR [rdi+0x1114]
    27f6:	48 8b 34 c1          	mov    rsi,QWORD PTR [rcx+rax*8]
    27fa:	48 8b 15 8f 64 01 00 	mov    rdx,QWORD PTR [rip+0x1648f]        # 18c90 <stdin@@GLIBC_2.2.5+0x1c60>
    2801:	48 33 15 80 64 01 00 	xor    rdx,QWORD PTR [rip+0x16480]        # 18c88 <stdin@@GLIBC_2.2.5+0x1c58>
    2808:	48 31 f2             	xor    rdx,rsi
    280b:	48 63 87 20 11 00 00 	movsxd rax,DWORD PTR [rdi+0x1120]
    2812:	48 33 14 c1          	xor    rdx,QWORD PTR [rcx+rax*8]
    2816:	48 89 15 e3 54 01 00 	mov    QWORD PTR [rip+0x154e3],rdx        # 17d00 <stdin@@GLIBC_2.2.5+0xcd0>
    281d:	48 8b 05 4c 64 01 00 	mov    rax,QWORD PTR [rip+0x1644c]        # 18c70 <stdin@@GLIBC_2.2.5+0x1c40>
    2824:	48 33 05 4d 64 01 00 	xor    rax,QWORD PTR [rip+0x1644d]        # 18c78 <stdin@@GLIBC_2.2.5+0x1c48>
    282b:	48 31 f0             	xor    rax,rsi
    282e:	48 63 97 1c 11 00 00 	movsxd rdx,DWORD PTR [rdi+0x111c]
    2835:	48 33 04 d1          	xor    rax,QWORD PTR [rcx+rdx*8]
    2839:	48 89 05 c8 54 01 00 	mov    QWORD PTR [rip+0x154c8],rax        # 17d08 <stdin@@GLIBC_2.2.5+0xcd8>
    2840:	48 63 87 18 11 00 00 	movsxd rax,DWORD PTR [rdi+0x1118]
    2847:	48 8b 34 c1          	mov    rsi,QWORD PTR [rcx+rax*8]
    284b:	48 8b 15 7e 62 01 00 	mov    rdx,QWORD PTR [rip+0x1627e]        # 18ad0 <stdin@@GLIBC_2.2.5+0x1aa0>
    2852:	48 33 15 6f 62 01 00 	xor    rdx,QWORD PTR [rip+0x1626f]        # 18ac8 <stdin@@GLIBC_2.2.5+0x1a98>
    2859:	48 31 f2             	xor    rdx,rsi
    285c:	48 63 87 28 11 00 00 	movsxd rax,DWORD PTR [rdi+0x1128]
    2863:	48 33 14 c1          	xor    rdx,QWORD PTR [rcx+rax*8]
    2867:	48 89 15 a2 54 01 00 	mov    QWORD PTR [rip+0x154a2],rdx        # 17d10 <stdin@@GLIBC_2.2.5+0xce0>
    286e:	48 8b 05 3b 62 01 00 	mov    rax,QWORD PTR [rip+0x1623b]        # 18ab0 <stdin@@GLIBC_2.2.5+0x1a80>
    2875:	48 33 05 3c 62 01 00 	xor    rax,QWORD PTR [rip+0x1623c]        # 18ab8 <stdin@@GLIBC_2.2.5+0x1a88>
    287c:	48 31 f0             	xor    rax,rsi
    287f:	48 63 97 24 11 00 00 	movsxd rdx,DWORD PTR [rdi+0x1124]
    2886:	48 33 04 d1          	xor    rax,QWORD PTR [rcx+rdx*8]
    288a:	48 89 05 87 54 01 00 	mov    QWORD PTR [rip+0x15487],rax        # 17d18 <stdin@@GLIBC_2.2.5+0xce8>
    2891:	c3                   	ret    
    2892:	f3 0f 1e fa          	endbr64 
    2896:	89 f2                	mov    edx,esi
    2898:	83 e2 f8             	and    edx,0xfffffff8
    289b:	83 e6 07             	and    esi,0x7
    289e:	8d 42 01             	lea    eax,[rdx+0x1]
    28a1:	c4 e2 fb f7 ff       	shrx   rdi,rdi,rax
    28a6:	83 e7 3f             	and    edi,0x3f
    28a9:	48 8d 05 f0 63 01 00 	lea    rax,[rip+0x163f0]        # 18ca0 <stdin@@GLIBC_2.2.5+0x1c70>
    28b0:	48 8d 04 f8          	lea    rax,[rax+rdi*8]
    28b4:	0f b6 04 30          	movzx  eax,BYTE PTR [rax+rsi*1]
    28b8:	c4 e2 e9 f7 c0       	shlx   rax,rax,rdx
    28bd:	c3                   	ret    
    28be:	f3 0f 1e fa          	endbr64 
    28c2:	89 f2                	mov    edx,esi
    28c4:	83 e2 07             	and    edx,0x7
    28c7:	c4 e2 eb f7 ff       	shrx   rdi,rdi,rdx
    28cc:	c1 ee 03             	shr    esi,0x3
    28cf:	89 f6                	mov    esi,esi
    28d1:	48 b8 01 01 01 01 01 	movabs rax,0x101010101010101
    28d8:	01 01 01 
    28db:	48 21 c7             	and    rdi,rax
    28de:	48 b8 00 04 08 10 20 	movabs rax,0x80402010080400
    28e5:	40 80 00 
    28e8:	48 0f af f8          	imul   rdi,rax
    28ec:	48 c1 ef 3a          	shr    rdi,0x3a
    28f0:	48 8d 0c fe          	lea    rcx,[rsi+rdi*8]
    28f4:	48 8d 05 a5 65 01 00 	lea    rax,[rip+0x165a5]        # 18ea0 <stdin@@GLIBC_2.2.5+0x1e70>
    28fb:	48 8b 04 c8          	mov    rax,QWORD PTR [rax+rcx*8]
    28ff:	c4 e2 e9 f7 c0       	shlx   rax,rax,rdx
    2904:	c3                   	ret    
    2905:	f3 0f 1e fa          	endbr64 
    2909:	89 f2                	mov    edx,esi
    290b:	48 8d 05 8e 5d 01 00 	lea    rax,[rip+0x15d8e]        # 186a0 <stdin@@GLIBC_2.2.5+0x1670>
    2912:	48 8b 04 d0          	mov    rax,QWORD PTR [rax+rdx*8]
    2916:	83 e6 07             	and    esi,0x7
    2919:	48 21 c7             	and    rdi,rax
    291c:	48 ba 02 02 02 02 02 	movabs rdx,0x202020202020202
    2923:	02 02 02 
    2926:	48 0f af fa          	imul   rdi,rdx
    292a:	48 c1 ef 3a          	shr    rdi,0x3a
    292e:	48 8d 0c fe          	lea    rcx,[rsi+rdi*8]
    2932:	48 8d 15 67 75 01 00 	lea    rdx,[rip+0x17567]        # 19ea0 <stdin@@GLIBC_2.2.5+0x2e70>
    2939:	48 23 04 ca          	and    rax,QWORD PTR [rdx+rcx*8]
    293d:	c3                   	ret    
    293e:	f3 0f 1e fa          	endbr64 
    2942:	89 f2                	mov    edx,esi
    2944:	48 8d 05 55 5b 01 00 	lea    rax,[rip+0x15b55]        # 184a0 <stdin@@GLIBC_2.2.5+0x1470>
    294b:	48 8b 04 d0          	mov    rax,QWORD PTR [rax+rdx*8]
    294f:	83 e6 07             	and    esi,0x7
    2952:	48 21 c7             	and    rdi,rax
    2955:	48 ba 02 02 02 02 02 	movabs rdx,0x202020202020202
    295c:	02 02 02 
    295f:	48 0f af fa          	imul   rdi,rdx
    2963:	48 c1 ef 3a          	shr    rdi,0x3a
    2967:	48 8d 0c fe          	lea    rcx,[rsi+rdi*8]
    296b:	48 8d 15 2e 75 01 00 	lea    rdx,[rip+0x1752e]        # 19ea0 <stdin@@GLIBC_2.2.5+0x2e70>
    2972:	48 23 04 ca          	and    rax,QWORD PTR [rdx+rcx*8]
    2976:	c3                   	ret    
    2977:	f3 0f 1e fa          	endbr64 
    297b:	41 54                	push   r12
    297d:	55                   	push   rbp
    297e:	53                   	push   rbx
    297f:	89 f5                	mov    ebp,esi
    2981:	4c 8b a7 08 01 00 00 	mov    r12,QWORD PTR [rdi+0x108]
    2988:	4c 89 e7             	mov    rdi,r12
    298b:	e8 75 ff ff ff       	call   2905 <__sprintf_chk@plt+0x15b5>
    2990:	48 89 c3             	mov    rbx,rax
    2993:	89 ee                	mov    esi,ebp
    2995:	4c 89 e7             	mov    rdi,r12
    2998:	e8 a1 ff ff ff       	call   293e <__sprintf_chk@plt+0x15ee>
    299d:	48 09 d8             	or     rax,rbx
    29a0:	5b                   	pop    rbx
    29a1:	5d                   	pop    rbp
    29a2:	41 5c                	pop    r12
    29a4:	c3                   	ret    
    29a5:	f3 0f 1e fa          	endbr64 
    29a9:	41 54                	push   r12
    29ab:	55                   	push   rbp
    29ac:	53                   	push   rbx
    29ad:	89 f5                	mov    ebp,esi
    29af:	4c 8b a7 08 01 00 00 	mov    r12,QWORD PTR [rdi+0x108]
    29b6:	4c 89 e7             	mov    rdi,r12
    29b9:	e8 d4 fe ff ff       	call   2892 <__sprintf_chk@plt+0x1542>
    29be:	48 89 c3             	mov    rbx,rax
    29c1:	89 ee                	mov    esi,ebp
    29c3:	4c 89 e7             	mov    rdi,r12
    29c6:	e8 f3 fe ff ff       	call   28be <__sprintf_chk@plt+0x156e>
    29cb:	48 09 d8             	or     rax,rbx
    29ce:	5b                   	pop    rbx
    29cf:	5d                   	pop    rbp
    29d0:	41 5c                	pop    r12
    29d2:	c3                   	ret    
    29d3:	f3 0f 1e fa          	endbr64 
    29d7:	48 85 ff             	test   rdi,rdi
    29da:	74 12                	je     29ee <__sprintf_chk@plt+0x169e>
    29dc:	48 89 fa             	mov    rdx,rdi
    29df:	c4 e2 e8 f3 ca       	blsr   rdx,rdx
    29e4:	75 f9                	jne    29df <__sprintf_chk@plt+0x168f>
    29e6:	31 c0                	xor    eax,eax
    29e8:	f3 48 0f b8 c7       	popcnt rax,rdi
    29ed:	c3                   	ret    
    29ee:	b8 00 00 00 00       	mov    eax,0x0
    29f3:	c3                   	ret    
    29f4:	f3 0f 1e fa          	endbr64 
    29f8:	c4 e2 c0 f3 df       	blsi   rdi,rdi
    29fd:	48 b8 cd 56 f7 92 53 	movabs rax,0x3f08c5392f756cd
    2a04:	8c f0 03 
    2a07:	48 0f af f8          	imul   rdi,rax
    2a0b:	48 c1 ef 3a          	shr    rdi,0x3a
    2a0f:	48 8d 05 aa f8 00 00 	lea    rax,[rip+0xf8aa]        # 122c0 <__sprintf_chk@plt+0x10f70>
    2a16:	8b 04 b8             	mov    eax,DWORD PTR [rax+rdi*4]
    2a19:	c3                   	ret    
    2a1a:	f3 0f 1e fa          	endbr64 
    2a1e:	48 8b 17             	mov    rdx,QWORD PTR [rdi]
    2a21:	c4 e2 f8 f3 da       	blsi   rax,rdx
    2a26:	48 31 c2             	xor    rdx,rax
    2a29:	48 89 17             	mov    QWORD PTR [rdi],rdx
    2a2c:	48 ba cd 56 f7 92 53 	movabs rdx,0x3f08c5392f756cd
    2a33:	8c f0 03 
    2a36:	48 0f af c2          	imul   rax,rdx
    2a3a:	48 c1 e8 3a          	shr    rax,0x3a
    2a3e:	48 8d 15 7b f8 00 00 	lea    rdx,[rip+0xf87b]        # 122c0 <__sprintf_chk@plt+0x10f70>
    2a45:	8b 04 82             	mov    eax,DWORD PTR [rdx+rax*4]
    2a48:	c3                   	ret    
    2a49:	f3 0f 1e fa          	endbr64 
    2a4d:	ba 00 00 00 00       	mov    edx,0x0
    2a52:	b8 ff ff ff ff       	mov    eax,0xffffffff
    2a57:	48 39 c7             	cmp    rdi,rax
    2a5a:	76 09                	jbe    2a65 <__sprintf_chk@plt+0x1715>
    2a5c:	48 c1 ef 20          	shr    rdi,0x20
    2a60:	ba 20 00 00 00       	mov    edx,0x20
    2a65:	48 81 ff ff ff 00 00 	cmp    rdi,0xffff
    2a6c:	76 07                	jbe    2a75 <__sprintf_chk@plt+0x1725>
    2a6e:	48 c1 ef 10          	shr    rdi,0x10
    2a72:	83 c2 10             	add    edx,0x10
    2a75:	48 8d 05 24 90 01 00 	lea    rax,[rip+0x19024]        # 1baa0 <stdin@@GLIBC_2.2.5+0x4a70>
    2a7c:	0f b6 04 38          	movzx  eax,BYTE PTR [rax+rdi*1]
    2a80:	01 d0                	add    eax,edx
    2a82:	c3                   	ret    
    2a83:	f3 0f 1e fa          	endbr64 
    2a87:	48 89 f8             	mov    rax,rdi
    2a8a:	48 d1 e8             	shr    rax,1
    2a8d:	48 ba 55 55 55 55 55 	movabs rdx,0x5555555555555555
    2a94:	55 55 55 
    2a97:	48 21 d0             	and    rax,rdx
    2a9a:	48 29 c7             	sub    rdi,rax
    2a9d:	48 89 f8             	mov    rax,rdi
    2aa0:	48 c1 e8 02          	shr    rax,0x2
    2aa4:	48 ba 33 33 33 33 33 	movabs rdx,0x3333333333333333
    2aab:	33 33 33 
    2aae:	48 21 d0             	and    rax,rdx
    2ab1:	48 21 d7             	and    rdi,rdx
    2ab4:	48 01 c7             	add    rdi,rax
    2ab7:	48 89 f8             	mov    rax,rdi
    2aba:	48 c1 e8 04          	shr    rax,0x4
    2abe:	48 01 f8             	add    rax,rdi
    2ac1:	48 ba 0f 0f 0f 0f 0f 	movabs rdx,0xf0f0f0f0f0f0f0f
    2ac8:	0f 0f 0f 
    2acb:	48 21 d0             	and    rax,rdx
    2ace:	48 ba 01 01 01 01 01 	movabs rdx,0x101010101010101
    2ad5:	01 01 01 
    2ad8:	48 0f af c2          	imul   rax,rdx
    2adc:	48 c1 e8 38          	shr    rax,0x38
    2ae0:	c3                   	ret    
    2ae1:	f3 0f 1e fa          	endbr64 
    2ae5:	c1 ff 03             	sar    edi,0x3
    2ae8:	b8 08 00 00 00       	mov    eax,0x8
    2aed:	29 f8                	sub    eax,edi
    2aef:	c3                   	ret    
    2af0:	f3 0f 1e fa          	endbr64 
    2af4:	83 e7 07             	and    edi,0x7
    2af7:	8d 47 01             	lea    eax,[rdi+0x1]
    2afa:	c3                   	ret    
    2afb:	f3 0f 1e fa          	endbr64 
    2aff:	89 f8                	mov    eax,edi
    2b01:	83 e0 07             	and    eax,0x7
    2b04:	89 f2                	mov    edx,esi
    2b06:	83 e2 07             	and    edx,0x7
    2b09:	29 d0                	sub    eax,edx
    2b0b:	99                   	cdq    
    2b0c:	31 d0                	xor    eax,edx
    2b0e:	29 d0                	sub    eax,edx
    2b10:	c1 fe 03             	sar    esi,0x3
    2b13:	c1 ff 03             	sar    edi,0x3
    2b16:	29 fe                	sub    esi,edi
    2b18:	89 f2                	mov    edx,esi
    2b1a:	c1 fa 1f             	sar    edx,0x1f
    2b1d:	31 d6                	xor    esi,edx
    2b1f:	29 d6                	sub    esi,edx
    2b21:	01 f0                	add    eax,esi
    2b23:	c3                   	ret    
    2b24:	f3 0f 1e fa          	endbr64 
    2b28:	89 fa                	mov    edx,edi
    2b2a:	83 e2 07             	and    edx,0x7
    2b2d:	89 f0                	mov    eax,esi
    2b2f:	83 e0 07             	and    eax,0x7
    2b32:	29 c2                	sub    edx,eax
    2b34:	89 d0                	mov    eax,edx
    2b36:	c1 f8 1f             	sar    eax,0x1f
    2b39:	31 c2                	xor    edx,eax
    2b3b:	29 c2                	sub    edx,eax
    2b3d:	89 f0                	mov    eax,esi
    2b3f:	c1 f8 03             	sar    eax,0x3
    2b42:	c1 ff 03             	sar    edi,0x3
    2b45:	29 f8                	sub    eax,edi
    2b47:	89 c1                	mov    ecx,eax
    2b49:	c1 f9 1f             	sar    ecx,0x1f
    2b4c:	31 c8                	xor    eax,ecx
    2b4e:	29 c8                	sub    eax,ecx
    2b50:	39 c2                	cmp    edx,eax
    2b52:	0f 4d c2             	cmovge eax,edx
    2b55:	c3                   	ret    
    2b56:	f3 0f 1e fa          	endbr64 
    2b5a:	e8 c5 ff ff ff       	call   2b24 <__sprintf_chk@plt+0x17d4>
    2b5f:	c3                   	ret    
    2b60:	f3 0f 1e fa          	endbr64 
    2b64:	41 57                	push   r15
    2b66:	41 56                	push   r14
    2b68:	41 55                	push   r13
    2b6a:	41 54                	push   r12
    2b6c:	55                   	push   rbp
    2b6d:	53                   	push   rbx
    2b6e:	48 83 ec 28          	sub    rsp,0x28
    2b72:	48 89 7c 24 08       	mov    QWORD PTR [rsp+0x8],rdi
    2b77:	64 48 8b 04 25 28 00 	mov    rax,QWORD PTR fs:0x28
    2b7e:	00 00 
    2b80:	48 89 44 24 18       	mov    QWORD PTR [rsp+0x18],rax
    2b85:	31 c0                	xor    eax,eax
    2b87:	48 8b 86 08 01 00 00 	mov    rax,QWORD PTR [rsi+0x108]
    2b8e:	48 89 44 24 10       	mov    QWORD PTR [rsp+0x10],rax
    2b93:	48 85 c0             	test   rax,rax
    2b96:	0f 84 c0 00 00 00    	je     2c5c <__sprintf_chk@plt+0x190c>
    2b9c:	49 89 f4             	mov    r12,rsi
    2b9f:	48 8d 5e 04          	lea    rbx,[rsi+0x4]
    2ba3:	bd 00 00 00 00       	mov    ebp,0x0
    2ba8:	41 be 00 00 00 00    	mov    r14d,0x0
    2bae:	41 bf 00 00 00 00    	mov    r15d,0x0
    2bb4:	4c 8d 2d a5 fa 00 00 	lea    r13,[rip+0xfaa5]        # 12660 <__sprintf_chk@plt+0x11310>
    2bbb:	eb 22                	jmp    2bdf <__sprintf_chk@plt+0x188f>
    2bbd:	48 98                	cdqe   
    2bbf:	41 8b 54 85 00       	mov    edx,DWORD PTR [r13+rax*4+0x0]
    2bc4:	c1 fa 1f             	sar    edx,0x1f
    2bc7:	89 d6                	mov    esi,edx
    2bc9:	41 33 74 85 00       	xor    esi,DWORD PTR [r13+rax*4+0x0]
    2bce:	89 f0                	mov    eax,esi
    2bd0:	29 d0                	sub    eax,edx
    2bd2:	41 01 c6             	add    r14d,eax
    2bd5:	ff c5                	inc    ebp
    2bd7:	48 83 7c 24 10 00    	cmp    QWORD PTR [rsp+0x10],0x0
    2bdd:	74 50                	je     2c2f <__sprintf_chk@plt+0x18df>
    2bdf:	48 8d 7c 24 10       	lea    rdi,[rsp+0x10]
    2be4:	e8 31 fe ff ff       	call   2a1a <__sprintf_chk@plt+0x16ca>
    2be9:	48 98                	cdqe   
    2beb:	8b 04 83             	mov    eax,DWORD PTR [rbx+rax*4]
    2bee:	8d 50 ff             	lea    edx,[rax-0x1]
    2bf1:	83 fa 01             	cmp    edx,0x1
    2bf4:	76 e1                	jbe    2bd7 <__sprintf_chk@plt+0x1887>
    2bf6:	83 f8 0d             	cmp    eax,0xd
    2bf9:	74 dc                	je     2bd7 <__sprintf_chk@plt+0x1887>
    2bfb:	8d 50 fb             	lea    edx,[rax-0x5]
    2bfe:	83 fa 01             	cmp    edx,0x1
    2c01:	76 d2                	jbe    2bd5 <__sprintf_chk@plt+0x1885>
    2c03:	89 c1                	mov    ecx,eax
    2c05:	c1 e9 1f             	shr    ecx,0x1f
    2c08:	8d 14 08             	lea    edx,[rax+rcx*1]
    2c0b:	83 e2 01             	and    edx,0x1
    2c0e:	29 ca                	sub    edx,ecx
    2c10:	83 fa 01             	cmp    edx,0x1
    2c13:	75 a8                	jne    2bbd <__sprintf_chk@plt+0x186d>
    2c15:	48 98                	cdqe   
    2c17:	41 8b 54 85 00       	mov    edx,DWORD PTR [r13+rax*4+0x0]
    2c1c:	c1 fa 1f             	sar    edx,0x1f
    2c1f:	89 d6                	mov    esi,edx
    2c21:	41 33 74 85 00       	xor    esi,DWORD PTR [r13+rax*4+0x0]
    2c26:	89 f0                	mov    eax,esi
    2c28:	29 d0                	sub    eax,edx
    2c2a:	41 01 c7             	add    r15d,eax
    2c2d:	eb a6                	jmp    2bd5 <__sprintf_chk@plt+0x1885>
    2c2f:	83 fd 0b             	cmp    ebp,0xb
    2c32:	7e 16                	jle    2c4a <__sprintf_chk@plt+0x18fa>
    2c34:	41 83 bc 24 d0 01 00 	cmp    DWORD PTR [r12+0x1d0],0x3c
    2c3b:	00 3c 
    2c3d:	74 48                	je     2c87 <__sprintf_chk@plt+0x1937>
    2c3f:	41 83 bc 24 d4 01 00 	cmp    DWORD PTR [r12+0x1d4],0x4
    2c46:	00 04 
    2c48:	74 3d                	je     2c87 <__sprintf_chk@plt+0x1937>
    2c4a:	41 81 ff a4 06 00 00 	cmp    r15d,0x6a4
    2c51:	7f 4d                	jg     2ca0 <__sprintf_chk@plt+0x1950>
    2c53:	41 81 fe a4 06 00 00 	cmp    r14d,0x6a4
    2c5a:	7f 44                	jg     2ca0 <__sprintf_chk@plt+0x1950>
    2c5c:	48 8b 44 24 08       	mov    rax,QWORD PTR [rsp+0x8]
    2c61:	c7 40 04 02 00 00 00 	mov    DWORD PTR [rax+0x4],0x2
    2c68:	48 8b 44 24 18       	mov    rax,QWORD PTR [rsp+0x18]
    2c6d:	64 48 33 04 25 28 00 	xor    rax,QWORD PTR fs:0x28
    2c74:	00 00 
    2c76:	75 36                	jne    2cae <__sprintf_chk@plt+0x195e>
    2c78:	48 83 c4 28          	add    rsp,0x28
    2c7c:	5b                   	pop    rbx
    2c7d:	5d                   	pop    rbp
    2c7e:	41 5c                	pop    r12
    2c80:	41 5d                	pop    r13
    2c82:	41 5e                	pop    r14
    2c84:	41 5f                	pop    r15
    2c86:	c3                   	ret    
    2c87:	41 83 bc 24 c4 01 00 	cmp    DWORD PTR [r12+0x1c4],0x0
    2c8e:	00 00 
    2c90:	7e b8                	jle    2c4a <__sprintf_chk@plt+0x18fa>
    2c92:	48 8b 44 24 08       	mov    rax,QWORD PTR [rsp+0x8]
    2c97:	c7 40 04 00 00 00 00 	mov    DWORD PTR [rax+0x4],0x0
    2c9e:	eb c8                	jmp    2c68 <__sprintf_chk@plt+0x1918>
    2ca0:	48 8b 44 24 08       	mov    rax,QWORD PTR [rsp+0x8]
    2ca5:	c7 40 04 01 00 00 00 	mov    DWORD PTR [rax+0x4],0x1
    2cac:	eb ba                	jmp    2c68 <__sprintf_chk@plt+0x1918>
    2cae:	e8 8d e5 ff ff       	call   1240 <__stack_chk_fail@plt>
    2cb3:	f3 0f 1e fa          	endbr64 
    2cb7:	8b 8e dc 01 00 00    	mov    ecx,DWORD PTR [rsi+0x1dc]
    2cbd:	b8 00 00 00 00       	mov    eax,0x0
    2cc2:	83 f9 03             	cmp    ecx,0x3
    2cc5:	0f 8e ca 00 00 00    	jle    2d95 <__sprintf_chk@plt+0x1a45>
    2ccb:	8b 96 d8 01 00 00    	mov    edx,DWORD PTR [rsi+0x1d8]
    2cd1:	83 fa 01             	cmp    edx,0x1
    2cd4:	0f 8e b1 00 00 00    	jle    2d8b <__sprintf_chk@plt+0x1a3b>
    2cda:	03 57 3c             	add    edx,DWORD PTR [rdi+0x3c]
    2cdd:	8d 42 fd             	lea    eax,[rdx-0x3]
    2ce0:	ff ca                	dec    edx
    2ce2:	29 ca                	sub    edx,ecx
    2ce4:	b9 00 00 00 00       	mov    ecx,0x0
    2ce9:	0f 48 d1             	cmovs  edx,ecx
    2cec:	39 d0                	cmp    eax,edx
    2cee:	7c 46                	jl     2d36 <__sprintf_chk@plt+0x19e6>
    2cf0:	48 8b 8e e0 01 00 00 	mov    rcx,QWORD PTR [rsi+0x1e0]
    2cf7:	48 98                	cdqe   
    2cf9:	48 3b 8c c6 30 11 00 	cmp    rcx,QWORD PTR [rsi+rax*8+0x1130]
    2d00:	00 
    2d01:	74 39                	je     2d3c <__sprintf_chk@plt+0x19ec>
    2d03:	48 83 e8 02          	sub    rax,0x2
    2d07:	39 c2                	cmp    edx,eax
    2d09:	7e ee                	jle    2cf9 <__sprintf_chk@plt+0x19a9>
    2d0b:	b8 00 00 00 00       	mov    eax,0x0
    2d10:	c3                   	ret    
    2d11:	48 83 e9 10          	sub    rcx,0x10
    2d15:	48 39 c1             	cmp    rcx,rax
    2d18:	74 16                	je     2d30 <__sprintf_chk@plt+0x19e0>
    2d1a:	48 3b b9 30 11 00 00 	cmp    rdi,QWORD PTR [rcx+0x1130]
    2d21:	75 ee                	jne    2d11 <__sprintf_chk@plt+0x19c1>
    2d23:	ff c2                	inc    edx
    2d25:	83 fa 01             	cmp    edx,0x1
    2d28:	7e e7                	jle    2d11 <__sprintf_chk@plt+0x19c1>
    2d2a:	b8 01 00 00 00       	mov    eax,0x1
    2d2f:	c3                   	ret    
    2d30:	b8 00 00 00 00       	mov    eax,0x0
    2d35:	c3                   	ret    
    2d36:	b8 00 00 00 00       	mov    eax,0x0
    2d3b:	c3                   	ret    
    2d3c:	b8 01 00 00 00       	mov    eax,0x1
    2d41:	c3                   	ret    
    2d42:	b8 00 00 00 00       	mov    eax,0x0
    2d47:	c3                   	ret    
    2d48:	03 57 3c             	add    edx,DWORD PTR [rdi+0x3c]
    2d4b:	89 d0                	mov    eax,edx
    2d4d:	29 c8                	sub    eax,ecx
    2d4f:	b9 00 00 00 00       	mov    ecx,0x0
    2d54:	0f 48 c1             	cmovs  eax,ecx
    2d57:	39 c2                	cmp    edx,eax
    2d59:	7c e7                	jl     2d42 <__sprintf_chk@plt+0x19f2>
    2d5b:	48 8b be e0 01 00 00 	mov    rdi,QWORD PTR [rsi+0x1e0]
    2d62:	4c 63 c2             	movsxd r8,edx
    2d65:	49 c1 e0 03          	shl    r8,0x3
    2d69:	4a 8d 0c 06          	lea    rcx,[rsi+r8*1]
    2d6d:	4a 8d 74 06 f0       	lea    rsi,[rsi+r8*1-0x10]
    2d72:	29 c2                	sub    edx,eax
    2d74:	89 d0                	mov    eax,edx
    2d76:	d1 e8                	shr    eax,1
    2d78:	89 c0                	mov    eax,eax
    2d7a:	48 c1 e0 04          	shl    rax,0x4
    2d7e:	48 29 c6             	sub    rsi,rax
    2d81:	48 89 f0             	mov    rax,rsi
    2d84:	ba 00 00 00 00       	mov    edx,0x0
    2d89:	eb 8f                	jmp    2d1a <__sprintf_chk@plt+0x19ca>
    2d8b:	83 f9 05             	cmp    ecx,0x5
    2d8e:	7f b8                	jg     2d48 <__sprintf_chk@plt+0x19f8>
    2d90:	b8 00 00 00 00       	mov    eax,0x0
    2d95:	c3                   	ret    
    2d96:	f3 0f 1e fa          	endbr64 
    2d9a:	8b 87 94 01 00 00    	mov    eax,DWORD PTR [rdi+0x194]
    2da0:	85 c0                	test   eax,eax
    2da2:	0f 85 83 00 00 00    	jne    2e2b <__sprintf_chk@plt+0x1adb>
    2da8:	8b 97 98 01 00 00    	mov    edx,DWORD PTR [rdi+0x198]
    2dae:	85 d2                	test   edx,edx
    2db0:	75 3f                	jne    2df1 <__sprintf_chk@plt+0x1aa1>
    2db2:	8b 87 ac 01 00 00    	mov    eax,DWORD PTR [rdi+0x1ac]
    2db8:	85 c0                	test   eax,eax
    2dba:	75 75                	jne    2e31 <__sprintf_chk@plt+0x1ae1>
    2dbc:	8b 97 b0 01 00 00    	mov    edx,DWORD PTR [rdi+0x1b0]
    2dc2:	85 d2                	test   edx,edx
    2dc4:	75 2b                	jne    2df1 <__sprintf_chk@plt+0x1aa1>
    2dc6:	8b 87 b4 01 00 00    	mov    eax,DWORD PTR [rdi+0x1b4]
    2dcc:	85 c0                	test   eax,eax
    2dce:	75 64                	jne    2e34 <__sprintf_chk@plt+0x1ae4>
    2dd0:	8b 97 b8 01 00 00    	mov    edx,DWORD PTR [rdi+0x1b8]
    2dd6:	85 d2                	test   edx,edx
    2dd8:	75 17                	jne    2df1 <__sprintf_chk@plt+0x1aa1>
    2dda:	8b 8f c0 01 00 00    	mov    ecx,DWORD PTR [rdi+0x1c0]
    2de0:	83 f9 01             	cmp    ecx,0x1
    2de3:	7e 0d                	jle    2df2 <__sprintf_chk@plt+0x1aa2>
    2de5:	89 c8                	mov    eax,ecx
    2de7:	0b 87 bc 01 00 00    	or     eax,DWORD PTR [rdi+0x1bc]
    2ded:	74 25                	je     2e14 <__sprintf_chk@plt+0x1ac4>
    2def:	89 d0                	mov    eax,edx
    2df1:	c3                   	ret    
    2df2:	83 bf bc 01 00 00 01 	cmp    DWORD PTR [rdi+0x1bc],0x1
    2df9:	7f ea                	jg     2de5 <__sprintf_chk@plt+0x1a95>
    2dfb:	83 bf a0 01 00 00 00 	cmp    DWORD PTR [rdi+0x1a0],0x0
    2e02:	75 e1                	jne    2de5 <__sprintf_chk@plt+0x1a95>
    2e04:	b8 01 00 00 00       	mov    eax,0x1
    2e09:	83 bf 9c 01 00 00 00 	cmp    DWORD PTR [rdi+0x19c],0x0
    2e10:	75 d3                	jne    2de5 <__sprintf_chk@plt+0x1a95>
    2e12:	eb dd                	jmp    2df1 <__sprintf_chk@plt+0x1aa1>
    2e14:	83 bf 9c 01 00 00 02 	cmp    DWORD PTR [rdi+0x19c],0x2
    2e1b:	7f d4                	jg     2df1 <__sprintf_chk@plt+0x1aa1>
    2e1d:	83 bf a0 01 00 00 02 	cmp    DWORD PTR [rdi+0x1a0],0x2
    2e24:	0f 9e c0             	setle  al
    2e27:	0f b6 c0             	movzx  eax,al
    2e2a:	c3                   	ret    
    2e2b:	b8 00 00 00 00       	mov    eax,0x0
    2e30:	c3                   	ret    
    2e31:	89 d0                	mov    eax,edx
    2e33:	c3                   	ret    
    2e34:	89 d0                	mov    eax,edx
    2e36:	c3                   	ret    
    2e37:	f3 0f 1e fa          	endbr64 
    2e3b:	41 57                	push   r15
    2e3d:	41 56                	push   r14
    2e3f:	41 55                	push   r13
    2e41:	41 54                	push   r12
    2e43:	55                   	push   rbp
    2e44:	53                   	push   rbx
    2e45:	48 83 ec 28          	sub    rsp,0x28
    2e49:	48 89 fb             	mov    rbx,rdi
    2e4c:	41 89 f5             	mov    r13d,esi
    2e4f:	89 d5                	mov    ebp,edx
    2e51:	41 89 cc             	mov    r12d,ecx
    2e54:	8b 87 d0 01 00 00    	mov    eax,DWORD PTR [rdi+0x1d0]
    2e5a:	89 44 24 0c          	mov    DWORD PTR [rsp+0xc],eax
    2e5e:	8b 87 d4 01 00 00    	mov    eax,DWORD PTR [rdi+0x1d4]
    2e64:	89 44 24 08          	mov    DWORD PTR [rsp+0x8],eax
    2e68:	8b 87 cc 01 00 00    	mov    eax,DWORD PTR [rdi+0x1cc]
    2e6e:	89 44 24 10          	mov    DWORD PTR [rsp+0x10],eax
    2e72:	8b 87 94 01 00 00    	mov    eax,DWORD PTR [rdi+0x194]
    2e78:	85 c0                	test   eax,eax
    2e7a:	0f 85 b5 06 00 00    	jne    3535 <__sprintf_chk@plt+0x21e5>
    2e80:	44 8b bf 98 01 00 00 	mov    r15d,DWORD PTR [rdi+0x198]
    2e87:	45 85 ff             	test   r15d,r15d
    2e8a:	0f 85 10 05 00 00    	jne    33a0 <__sprintf_chk@plt+0x2050>
    2e90:	39 ca                	cmp    edx,ecx
    2e92:	0f 8f a8 00 00 00    	jg     2f40 <__sprintf_chk@plt+0x1bf0>
    2e98:	41 89 f6             	mov    r14d,esi
    2e9b:	0f 8c bd 00 00 00    	jl     2f5e <__sprintf_chk@plt+0x1c0e>
    2ea1:	8b b3 ac 01 00 00    	mov    esi,DWORD PTR [rbx+0x1ac]
    2ea7:	8b 8b b4 01 00 00    	mov    ecx,DWORD PTR [rbx+0x1b4]
    2ead:	8d 04 4e             	lea    eax,[rsi+rcx*2]
    2eb0:	8b bb b0 01 00 00    	mov    edi,DWORD PTR [rbx+0x1b0]
    2eb6:	8b 93 b8 01 00 00    	mov    edx,DWORD PTR [rbx+0x1b8]
    2ebc:	44 8d 04 57          	lea    r8d,[rdi+rdx*2]
    2ec0:	44 39 c0             	cmp    eax,r8d
    2ec3:	0f 84 b4 00 00 00    	je     2f7d <__sprintf_chk@plt+0x1c2d>
    2ec9:	41 89 f1             	mov    r9d,esi
    2ecc:	41 09 c9             	or     r9d,ecx
    2ecf:	41 09 f9             	or     r9d,edi
    2ed2:	41 09 d1             	or     r9d,edx
    2ed5:	0f 84 2f 01 00 00    	je     300a <__sprintf_chk@plt+0x1cba>
    2edb:	09 d1                	or     ecx,edx
    2edd:	0f 84 03 0d 00 00    	je     3be6 <__sprintf_chk@plt+0x2896>
    2ee3:	44 39 c0             	cmp    eax,r8d
    2ee6:	0f 84 e5 07 00 00    	je     36d1 <__sprintf_chk@plt+0x2381>
    2eec:	44 29 c0             	sub    eax,r8d
    2eef:	8b 93 a0 01 00 00    	mov    edx,DWORD PTR [rbx+0x1a0]
    2ef5:	03 93 c0 01 00 00    	add    edx,DWORD PTR [rbx+0x1c0]
    2efb:	2b 93 9c 01 00 00    	sub    edx,DWORD PTR [rbx+0x19c]
    2f01:	2b 93 bc 01 00 00    	sub    edx,DWORD PTR [rbx+0x1bc]
    2f07:	39 d0                	cmp    eax,edx
    2f09:	0f 85 c2 07 00 00    	jne    36d1 <__sprintf_chk@plt+0x2381>
    2f0f:	83 bb 94 01 00 00 00 	cmp    DWORD PTR [rbx+0x194],0x0
    2f16:	75 09                	jne    2f21 <__sprintf_chk@plt+0x1bd1>
    2f18:	45 85 f6             	test   r14d,r14d
    2f1b:	0f 8f 76 04 00 00    	jg     3397 <__sprintf_chk@plt+0x2047>
    2f21:	83 bb 98 01 00 00 00 	cmp    DWORD PTR [rbx+0x198],0x0
    2f28:	0f 85 a3 07 00 00    	jne    36d1 <__sprintf_chk@plt+0x2381>
    2f2e:	44 89 f0             	mov    eax,r14d
    2f31:	c1 f8 02             	sar    eax,0x2
    2f34:	45 85 f6             	test   r14d,r14d
    2f37:	44 0f 48 f0          	cmovs  r14d,eax
    2f3b:	e9 91 07 00 00       	jmp    36d1 <__sprintf_chk@plt+0x2381>
    2f40:	8b 74 24 08          	mov    esi,DWORD PTR [rsp+0x8]
    2f44:	8b 7c 24 0c          	mov    edi,DWORD PTR [rsp+0xc]
    2f48:	e8 d7 fb ff ff       	call   2b24 <__sprintf_chk@plt+0x17d4>
    2f4d:	89 c2                	mov    edx,eax
    2f4f:	c1 e2 04             	shl    edx,0x4
    2f52:	29 d0                	sub    eax,edx
    2f54:	45 8d 74 05 78       	lea    r14d,[r13+rax*1+0x78]
    2f59:	e9 43 ff ff ff       	jmp    2ea1 <__sprintf_chk@plt+0x1b51>
    2f5e:	8b 74 24 08          	mov    esi,DWORD PTR [rsp+0x8]
    2f62:	8b 7c 24 0c          	mov    edi,DWORD PTR [rsp+0xc]
    2f66:	e8 b9 fb ff ff       	call   2b24 <__sprintf_chk@plt+0x17d4>
    2f6b:	89 c2                	mov    edx,eax
    2f6d:	c1 e2 04             	shl    edx,0x4
    2f70:	29 d0                	sub    eax,edx
    2f72:	83 c0 78             	add    eax,0x78
    2f75:	41 29 c6             	sub    r14d,eax
    2f78:	e9 24 ff ff ff       	jmp    2ea1 <__sprintf_chk@plt+0x1b51>
    2f7d:	44 8b 9b 9c 01 00 00 	mov    r11d,DWORD PTR [rbx+0x19c]
    2f84:	44 8b 93 bc 01 00 00 	mov    r10d,DWORD PTR [rbx+0x1bc]
    2f8b:	44 89 54 24 18       	mov    DWORD PTR [rsp+0x18],r10d
    2f90:	47 8d 2c 13          	lea    r13d,[r11+r10*1]
    2f94:	44 8b 93 a0 01 00 00 	mov    r10d,DWORD PTR [rbx+0x1a0]
    2f9b:	44 89 54 24 14       	mov    DWORD PTR [rsp+0x14],r10d
    2fa0:	44 8b 8b c0 01 00 00 	mov    r9d,DWORD PTR [rbx+0x1c0]
    2fa7:	44 89 4c 24 1c       	mov    DWORD PTR [rsp+0x1c],r9d
    2fac:	45 01 d1             	add    r9d,r10d
    2faf:	45 89 ea             	mov    r10d,r13d
    2fb2:	45 29 ca             	sub    r10d,r9d
    2fb5:	41 83 fa 01          	cmp    r10d,0x1
    2fb9:	74 31                	je     2fec <__sprintf_chk@plt+0x1c9c>
    2fbb:	45 29 e9             	sub    r9d,r13d
    2fbe:	41 83 f9 01          	cmp    r9d,0x1
    2fc2:	0f 85 01 ff ff ff    	jne    2ec9 <__sprintf_chk@plt+0x1b79>
    2fc8:	41 83 fb 01          	cmp    r11d,0x1
    2fcc:	75 0b                	jne    2fd9 <__sprintf_chk@plt+0x1c89>
    2fce:	83 7c 24 1c 02       	cmp    DWORD PTR [rsp+0x1c],0x2
    2fd3:	0f 84 fb 0b 00 00    	je     3bd4 <__sprintf_chk@plt+0x2884>
    2fd9:	45 89 f1             	mov    r9d,r14d
    2fdc:	41 c1 f9 03          	sar    r9d,0x3
    2fe0:	45 85 f6             	test   r14d,r14d
    2fe3:	45 0f 48 f1          	cmovs  r14d,r9d
    2fe7:	e9 dd fe ff ff       	jmp    2ec9 <__sprintf_chk@plt+0x1b79>
    2fec:	83 7c 24 14 01       	cmp    DWORD PTR [rsp+0x14],0x1
    2ff1:	75 07                	jne    2ffa <__sprintf_chk@plt+0x1caa>
    2ff3:	83 7c 24 18 02       	cmp    DWORD PTR [rsp+0x18],0x2
    2ff8:	74 c1                	je     2fbb <__sprintf_chk@plt+0x1c6b>
    2ffa:	45 89 f2             	mov    r10d,r14d
    2ffd:	41 c1 fa 03          	sar    r10d,0x3
    3001:	45 85 f6             	test   r14d,r14d
    3004:	45 0f 4f f2          	cmovg  r14d,r10d
    3008:	eb b1                	jmp    2fbb <__sprintf_chk@plt+0x1c6b>
    300a:	8b 83 c0 01 00 00    	mov    eax,DWORD PTR [rbx+0x1c0]
    3010:	85 c0                	test   eax,eax
    3012:	75 32                	jne    3046 <__sprintf_chk@plt+0x1cf6>
    3014:	8b 93 bc 01 00 00    	mov    edx,DWORD PTR [rbx+0x1bc]
    301a:	85 d2                	test   edx,edx
    301c:	75 28                	jne    3046 <__sprintf_chk@plt+0x1cf6>
    301e:	83 bb 9c 01 00 00 02 	cmp    DWORD PTR [rbx+0x19c],0x2
    3025:	7f 0b                	jg     3032 <__sprintf_chk@plt+0x1ce2>
    3027:	83 bb a0 01 00 00 02 	cmp    DWORD PTR [rbx+0x1a0],0x2
    302e:	44 0f 4e f2          	cmovle r14d,edx
    3032:	89 d0                	mov    eax,edx
    3034:	83 bb a0 01 00 00 00 	cmp    DWORD PTR [rbx+0x1a0],0x0
    303b:	0f 85 b5 0a 00 00    	jne    3af6 <__sprintf_chk@plt+0x27a6>
    3041:	e9 8b 06 00 00       	jmp    36d1 <__sprintf_chk@plt+0x2381>
    3046:	8b 93 9c 01 00 00    	mov    edx,DWORD PTR [rbx+0x19c]
    304c:	85 d2                	test   edx,edx
    304e:	0f 85 91 0a 00 00    	jne    3ae5 <__sprintf_chk@plt+0x2795>
    3054:	8b 8b a0 01 00 00    	mov    ecx,DWORD PTR [rbx+0x1a0]
    305a:	85 c9                	test   ecx,ecx
    305c:	0f 85 2b 0b 00 00    	jne    3b8d <__sprintf_chk@plt+0x283d>
    3062:	8b 93 bc 01 00 00    	mov    edx,DWORD PTR [rbx+0x1bc]
    3068:	29 c2                	sub    edx,eax
    306a:	ff c2                	inc    edx
    306c:	83 fa 02             	cmp    edx,0x2
    306f:	44 0f 46 f1          	cmovbe r14d,ecx
    3073:	85 c0                	test   eax,eax
    3075:	0f 85 7b 0a 00 00    	jne    3af6 <__sprintf_chk@plt+0x27a6>
    307b:	83 bb bc 01 00 00 01 	cmp    DWORD PTR [rbx+0x1bc],0x1
    3082:	0f 85 49 06 00 00    	jne    36d1 <__sprintf_chk@plt+0x2381>
    3088:	eb 2d                	jmp    30b7 <__sprintf_chk@plt+0x1d67>
    308a:	45 89 fe             	mov    r14d,r15d
    308d:	44 89 f8             	mov    eax,r15d
    3090:	83 bb a0 01 00 00 00 	cmp    DWORD PTR [rbx+0x1a0],0x0
    3097:	0f 85 59 0a 00 00    	jne    3af6 <__sprintf_chk@plt+0x27a6>
    309d:	83 bb bc 01 00 00 01 	cmp    DWORD PTR [rbx+0x1bc],0x1
    30a4:	0f 85 27 06 00 00    	jne    36d1 <__sprintf_chk@plt+0x2381>
    30aa:	83 bb 9c 01 00 00 01 	cmp    DWORD PTR [rbx+0x19c],0x1
    30b1:	0f 84 95 00 00 00    	je     314c <__sprintf_chk@plt+0x1dfc>
    30b7:	83 fd 04             	cmp    ebp,0x4
    30ba:	0f 85 16 06 00 00    	jne    36d6 <__sprintf_chk@plt+0x2386>
    30c0:	83 bb 94 01 00 00 01 	cmp    DWORD PTR [rbx+0x194],0x1
    30c7:	0f 85 09 06 00 00    	jne    36d6 <__sprintf_chk@plt+0x2386>
    30cd:	48 8b 83 28 01 00 00 	mov    rax,QWORD PTR [rbx+0x128]
    30d4:	48 8b 15 bd 53 01 00 	mov    rdx,QWORD PTR [rip+0x153bd]        # 18498 <stdin@@GLIBC_2.2.5+0x1468>
    30db:	48 8b 0d 7e 53 01 00 	mov    rcx,QWORD PTR [rip+0x1537e]        # 18460 <stdin@@GLIBC_2.2.5+0x1430>
    30e2:	48 89 d6             	mov    rsi,rdx
    30e5:	48 09 ce             	or     rsi,rcx
    30e8:	48 85 c6             	test   rsi,rax
    30eb:	0f 84 0a 06 00 00    	je     36fb <__sprintf_chk@plt+0x23ab>
    30f1:	48 85 d0             	test   rax,rdx
    30f4:	0f 84 09 07 00 00    	je     3803 <__sprintf_chk@plt+0x24b3>
    30fa:	48 8b 93 30 01 00 00 	mov    rdx,QWORD PTR [rbx+0x130]
    3101:	48 85 15 88 53 01 00 	test   QWORD PTR [rip+0x15388],rdx        # 18490 <stdin@@GLIBC_2.2.5+0x1460>
    3108:	0f 85 f5 06 00 00    	jne    3803 <__sprintf_chk@plt+0x24b3>
    310e:	48 8b 83 78 01 00 00 	mov    rax,QWORD PTR [rbx+0x178]
    3115:	48 85 05 94 43 01 00 	test   QWORD PTR [rip+0x14394],rax        # 174b0 <stdin@@GLIBC_2.2.5+0x480>
    311c:	0f 85 d9 05 00 00    	jne    36fb <__sprintf_chk@plt+0x23ab>
    3122:	8b 74 24 08          	mov    esi,DWORD PTR [rsp+0x8]
    3126:	bf 07 00 00 00       	mov    edi,0x7
    312b:	e8 f4 f9 ff ff       	call   2b24 <__sprintf_chk@plt+0x17d4>
    3130:	89 c5                	mov    ebp,eax
    3132:	83 f8 01             	cmp    eax,0x1
    3135:	0f 8f 72 06 00 00    	jg     37ad <__sprintf_chk@plt+0x245d>
    313b:	45 85 f6             	test   r14d,r14d
    313e:	b8 00 00 00 00       	mov    eax,0x0
    3143:	44 0f 4f f0          	cmovg  r14d,eax
    3147:	e9 af 05 00 00       	jmp    36fb <__sprintf_chk@plt+0x23ab>
    314c:	48 8b 83 78 01 00 00 	mov    rax,QWORD PTR [rbx+0x178]
    3153:	48 85 05 56 43 01 00 	test   QWORD PTR [rip+0x14356],rax        # 174b0 <stdin@@GLIBC_2.2.5+0x480>
    315a:	74 62                	je     31be <__sprintf_chk@plt+0x1e6e>
    315c:	44 8b 7c 24 08       	mov    r15d,DWORD PTR [rsp+0x8]
    3161:	44 89 fe             	mov    esi,r15d
    3164:	bf 38 00 00 00       	mov    edi,0x38
    3169:	e8 8d f9 ff ff       	call   2afb <__sprintf_chk@plt+0x17ab>
    316e:	41 89 c5             	mov    r13d,eax
    3171:	44 89 fe             	mov    esi,r15d
    3174:	bf 07 00 00 00       	mov    edi,0x7
    3179:	e8 7d f9 ff ff       	call   2afb <__sprintf_chk@plt+0x17ab>
    317e:	41 39 c5             	cmp    r13d,eax
    3181:	7d 1d                	jge    31a0 <__sprintf_chk@plt+0x1e50>
    3183:	44 89 fe             	mov    esi,r15d
    3186:	bf 38 00 00 00       	mov    edi,0x38
    318b:	e8 6b f9 ff ff       	call   2afb <__sprintf_chk@plt+0x17ab>
    3190:	6b c0 e2             	imul   eax,eax,0xffffffe2
    3193:	45 8d b4 06 f0 00 00 	lea    r14d,[r14+rax*1+0xf0]
    319a:	00 
    319b:	e9 31 05 00 00       	jmp    36d1 <__sprintf_chk@plt+0x2381>
    31a0:	8b 74 24 08          	mov    esi,DWORD PTR [rsp+0x8]
    31a4:	bf 07 00 00 00       	mov    edi,0x7
    31a9:	e8 4d f9 ff ff       	call   2afb <__sprintf_chk@plt+0x17ab>
    31ae:	6b c0 e2             	imul   eax,eax,0xffffffe2
    31b1:	45 8d b4 06 f0 00 00 	lea    r14d,[r14+rax*1+0xf0]
    31b8:	00 
    31b9:	e9 13 05 00 00       	jmp    36d1 <__sprintf_chk@plt+0x2381>
    31be:	44 8b 7c 24 08       	mov    r15d,DWORD PTR [rsp+0x8]
    31c3:	44 89 fe             	mov    esi,r15d
    31c6:	bf 00 00 00 00       	mov    edi,0x0
    31cb:	e8 2b f9 ff ff       	call   2afb <__sprintf_chk@plt+0x17ab>
    31d0:	41 89 c5             	mov    r13d,eax
    31d3:	44 89 fe             	mov    esi,r15d
    31d6:	bf 3f 00 00 00       	mov    edi,0x3f
    31db:	e8 1b f9 ff ff       	call   2afb <__sprintf_chk@plt+0x17ab>
    31e0:	41 39 c5             	cmp    r13d,eax
    31e3:	7d 1d                	jge    3202 <__sprintf_chk@plt+0x1eb2>
    31e5:	44 89 fe             	mov    esi,r15d
    31e8:	bf 00 00 00 00       	mov    edi,0x0
    31ed:	e8 09 f9 ff ff       	call   2afb <__sprintf_chk@plt+0x17ab>
    31f2:	6b c0 e2             	imul   eax,eax,0xffffffe2
    31f5:	45 8d b4 06 f0 00 00 	lea    r14d,[r14+rax*1+0xf0]
    31fc:	00 
    31fd:	e9 cf 04 00 00       	jmp    36d1 <__sprintf_chk@plt+0x2381>
    3202:	8b 74 24 08          	mov    esi,DWORD PTR [rsp+0x8]
    3206:	bf 3f 00 00 00       	mov    edi,0x3f
    320b:	e8 eb f8 ff ff       	call   2afb <__sprintf_chk@plt+0x17ab>
    3210:	6b c0 e2             	imul   eax,eax,0xffffffe2
    3213:	45 8d b4 06 f0 00 00 	lea    r14d,[r14+rax*1+0xf0]
    321a:	00 
    321b:	e9 b1 04 00 00       	jmp    36d1 <__sprintf_chk@plt+0x2381>
    3220:	8b 74 24 0c          	mov    esi,DWORD PTR [rsp+0xc]
    3224:	bf 07 00 00 00       	mov    edi,0x7
    3229:	e8 cd f8 ff ff       	call   2afb <__sprintf_chk@plt+0x17ab>
    322e:	6b c0 e2             	imul   eax,eax,0xffffffe2
    3231:	05 f0 00 00 00       	add    eax,0xf0
    3236:	41 29 c6             	sub    r14d,eax
    3239:	e9 93 04 00 00       	jmp    36d1 <__sprintf_chk@plt+0x2381>
    323e:	44 8b 7c 24 0c       	mov    r15d,DWORD PTR [rsp+0xc]
    3243:	44 89 fe             	mov    esi,r15d
    3246:	bf 00 00 00 00       	mov    edi,0x0
    324b:	e8 ab f8 ff ff       	call   2afb <__sprintf_chk@plt+0x17ab>
    3250:	41 89 c5             	mov    r13d,eax
    3253:	44 89 fe             	mov    esi,r15d
    3256:	bf 3f 00 00 00       	mov    edi,0x3f
    325b:	e8 9b f8 ff ff       	call   2afb <__sprintf_chk@plt+0x17ab>
    3260:	41 39 c5             	cmp    r13d,eax
    3263:	7d 1d                	jge    3282 <__sprintf_chk@plt+0x1f32>
    3265:	44 89 fe             	mov    esi,r15d
    3268:	bf 00 00 00 00       	mov    edi,0x0
    326d:	e8 89 f8 ff ff       	call   2afb <__sprintf_chk@plt+0x17ab>
    3272:	6b c0 e2             	imul   eax,eax,0xffffffe2
    3275:	05 f0 00 00 00       	add    eax,0xf0
    327a:	41 29 c6             	sub    r14d,eax
    327d:	e9 4f 04 00 00       	jmp    36d1 <__sprintf_chk@plt+0x2381>
    3282:	8b 74 24 0c          	mov    esi,DWORD PTR [rsp+0xc]
    3286:	bf 3f 00 00 00       	mov    edi,0x3f
    328b:	e8 6b f8 ff ff       	call   2afb <__sprintf_chk@plt+0x17ab>
    3290:	6b c0 e2             	imul   eax,eax,0xffffffe2
    3293:	05 f0 00 00 00       	add    eax,0xf0
    3298:	41 29 c6             	sub    r14d,eax
    329b:	e9 31 04 00 00       	jmp    36d1 <__sprintf_chk@plt+0x2381>
    32a0:	8b 83 bc 01 00 00    	mov    eax,DWORD PTR [rbx+0x1bc]
    32a6:	03 83 9c 01 00 00    	add    eax,DWORD PTR [rbx+0x19c]
    32ac:	75 13                	jne    32c1 <__sprintf_chk@plt+0x1f71>
    32ae:	8b 93 c0 01 00 00    	mov    edx,DWORD PTR [rbx+0x1c0]
    32b4:	03 93 a0 01 00 00    	add    edx,DWORD PTR [rbx+0x1a0]
    32ba:	ff ca                	dec    edx
    32bc:	83 fa 01             	cmp    edx,0x1
    32bf:	76 2e                	jbe    32ef <__sprintf_chk@plt+0x1f9f>
    32c1:	8b 93 a0 01 00 00    	mov    edx,DWORD PTR [rbx+0x1a0]
    32c7:	03 93 c0 01 00 00    	add    edx,DWORD PTR [rbx+0x1c0]
    32cd:	29 c2                	sub    edx,eax
    32cf:	83 fa 01             	cmp    edx,0x1
    32d2:	0f 85 f9 03 00 00    	jne    36d1 <__sprintf_chk@plt+0x2381>
    32d8:	45 85 f6             	test   r14d,r14d
    32db:	0f 9f c2             	setg   dl
    32de:	44 89 f0             	mov    eax,r14d
    32e1:	c1 f8 02             	sar    eax,0x2
    32e4:	84 d2                	test   dl,dl
    32e6:	44 0f 45 f0          	cmovne r14d,eax
    32ea:	e9 e2 03 00 00       	jmp    36d1 <__sprintf_chk@plt+0x2381>
    32ef:	41 c1 fe 03          	sar    r14d,0x3
    32f3:	48 8b 93 40 01 00 00 	mov    rdx,QWORD PTR [rbx+0x140]
    32fa:	48 0b 93 80 01 00 00 	or     rdx,QWORD PTR [rbx+0x180]
    3301:	48 63 44 24 08       	movsxd rax,DWORD PTR [rsp+0x8]
    3306:	41 8d 4e 14          	lea    ecx,[r14+0x14]
    330a:	48 8d 35 cf 43 01 00 	lea    rsi,[rip+0x143cf]        # 176e0 <stdin@@GLIBC_2.2.5+0x6b0>
    3311:	48 85 14 c6          	test   QWORD PTR [rsi+rax*8],rdx
    3315:	44 0f 44 f1          	cmove  r14d,ecx
    3319:	e9 b3 03 00 00       	jmp    36d1 <__sprintf_chk@plt+0x2381>
    331e:	8b 83 c0 01 00 00    	mov    eax,DWORD PTR [rbx+0x1c0]
    3324:	03 83 a0 01 00 00    	add    eax,DWORD PTR [rbx+0x1a0]
    332a:	75 13                	jne    333f <__sprintf_chk@plt+0x1fef>
    332c:	8b 93 bc 01 00 00    	mov    edx,DWORD PTR [rbx+0x1bc]
    3332:	03 93 9c 01 00 00    	add    edx,DWORD PTR [rbx+0x19c]
    3338:	ff ca                	dec    edx
    333a:	83 fa 01             	cmp    edx,0x1
    333d:	76 29                	jbe    3368 <__sprintf_chk@plt+0x2018>
    333f:	8b 93 9c 01 00 00    	mov    edx,DWORD PTR [rbx+0x19c]
    3345:	03 93 bc 01 00 00    	add    edx,DWORD PTR [rbx+0x1bc]
    334b:	29 c2                	sub    edx,eax
    334d:	83 fa 01             	cmp    edx,0x1
    3350:	0f 85 7b 03 00 00    	jne    36d1 <__sprintf_chk@plt+0x2381>
    3356:	44 89 f0             	mov    eax,r14d
    3359:	c1 f8 02             	sar    eax,0x2
    335c:	45 85 f6             	test   r14d,r14d
    335f:	44 0f 48 f0          	cmovs  r14d,eax
    3363:	e9 69 03 00 00       	jmp    36d1 <__sprintf_chk@plt+0x2381>
    3368:	41 c1 fe 03          	sar    r14d,0x3
    336c:	48 8b 93 38 01 00 00 	mov    rdx,QWORD PTR [rbx+0x138]
    3373:	48 0b 93 78 01 00 00 	or     rdx,QWORD PTR [rbx+0x178]
    337a:	48 63 44 24 0c       	movsxd rax,DWORD PTR [rsp+0xc]
    337f:	41 8d 4e ec          	lea    ecx,[r14-0x14]
    3383:	48 8d 35 56 43 01 00 	lea    rsi,[rip+0x14356]        # 176e0 <stdin@@GLIBC_2.2.5+0x6b0>
    338a:	48 85 14 c6          	test   QWORD PTR [rsi+rax*8],rdx
    338e:	44 0f 44 f1          	cmove  r14d,ecx
    3392:	e9 3a 03 00 00       	jmp    36d1 <__sprintf_chk@plt+0x2381>
    3397:	41 c1 fe 02          	sar    r14d,0x2
    339b:	e9 31 03 00 00       	jmp    36d1 <__sprintf_chk@plt+0x2381>
    33a0:	83 bf ac 01 00 00 00 	cmp    DWORD PTR [rdi+0x1ac],0x0
    33a7:	75 21                	jne    33ca <__sprintf_chk@plt+0x207a>
    33a9:	83 bf b4 01 00 00 00 	cmp    DWORD PTR [rdi+0x1b4],0x0
    33b0:	75 18                	jne    33ca <__sprintf_chk@plt+0x207a>
    33b2:	8b 87 bc 01 00 00    	mov    eax,DWORD PTR [rdi+0x1bc]
    33b8:	83 f8 01             	cmp    eax,0x1
    33bb:	74 61                	je     341e <__sprintf_chk@plt+0x20ce>
    33bd:	83 bf 9c 01 00 00 01 	cmp    DWORD PTR [rdi+0x19c],0x1
    33c4:	75 04                	jne    33ca <__sprintf_chk@plt+0x207a>
    33c6:	85 c0                	test   eax,eax
    33c8:	74 6a                	je     3434 <__sprintf_chk@plt+0x20e4>
    33ca:	41 83 fc 06          	cmp    r12d,0x6
    33ce:	0f 94 c0             	sete   al
    33d1:	83 fd 0a             	cmp    ebp,0xa
    33d4:	75 66                	jne    343c <__sprintf_chk@plt+0x20ec>
    33d6:	84 c0                	test   al,al
    33d8:	74 62                	je     343c <__sprintf_chk@plt+0x20ec>
    33da:	45 85 ed             	test   r13d,r13d
    33dd:	7e 12                	jle    33f1 <__sprintf_chk@plt+0x20a1>
    33df:	45 85 ff             	test   r15d,r15d
    33e2:	0f 9f c2             	setg   dl
    33e5:	44 89 e8             	mov    eax,r13d
    33e8:	c1 f8 02             	sar    eax,0x2
    33eb:	84 d2                	test   dl,dl
    33ed:	44 0f 45 e8          	cmovne r13d,eax
    33f1:	83 fd 10             	cmp    ebp,0x10
    33f4:	7f 20                	jg     3416 <__sprintf_chk@plt+0x20c6>
    33f6:	44 39 e5             	cmp    ebp,r12d
    33f9:	7e 1b                	jle    3416 <__sprintf_chk@plt+0x20c6>
    33fb:	89 e8                	mov    eax,ebp
    33fd:	44 29 e0             	sub    eax,r12d
    3400:	83 f8 04             	cmp    eax,0x4
    3403:	7f 11                	jg     3416 <__sprintf_chk@plt+0x20c6>
    3405:	45 85 ed             	test   r13d,r13d
    3408:	0f 9f c2             	setg   dl
    340b:	44 89 e8             	mov    eax,r13d
    340e:	d1 f8                	sar    eax,1
    3410:	84 d2                	test   dl,dl
    3412:	44 0f 45 e8          	cmovne r13d,eax
    3416:	45 89 ee             	mov    r14d,r13d
    3419:	e9 b3 02 00 00       	jmp    36d1 <__sprintf_chk@plt+0x2381>
    341e:	83 bf 9c 01 00 00 00 	cmp    DWORD PTR [rdi+0x19c],0x0
    3425:	75 a3                	jne    33ca <__sprintf_chk@plt+0x207a>
    3427:	85 f6                	test   esi,esi
    3429:	b8 00 00 00 00       	mov    eax,0x0
    342e:	44 0f 4f e8          	cmovg  r13d,eax
    3432:	eb 96                	jmp    33ca <__sprintf_chk@plt+0x207a>
    3434:	85 f6                	test   esi,esi
    3436:	44 0f 4f e8          	cmovg  r13d,eax
    343a:	eb 8e                	jmp    33ca <__sprintf_chk@plt+0x207a>
    343c:	83 fd 08             	cmp    ebp,0x8
    343f:	0f 85 a0 00 00 00    	jne    34e5 <__sprintf_chk@plt+0x2195>
    3445:	83 bb bc 01 00 00 00 	cmp    DWORD PTR [rbx+0x1bc],0x0
    344c:	75 12                	jne    3460 <__sprintf_chk@plt+0x2110>
    344e:	45 85 ed             	test   r13d,r13d
    3451:	0f 9f c1             	setg   cl
    3454:	44 89 ea             	mov    edx,r13d
    3457:	c1 fa 03             	sar    edx,0x3
    345a:	84 c9                	test   cl,cl
    345c:	44 0f 45 ea          	cmovne r13d,edx
    3460:	45 89 ee             	mov    r14d,r13d
    3463:	89 ea                	mov    edx,ebp
    3465:	44 29 e2             	sub    edx,r12d
    3468:	83 fa 04             	cmp    edx,0x4
    346b:	7f 0d                	jg     347a <__sprintf_chk@plt+0x212a>
    346d:	44 89 f2             	mov    edx,r14d
    3470:	c1 fa 03             	sar    edx,0x3
    3473:	45 85 f6             	test   r14d,r14d
    3476:	44 0f 4f f2          	cmovg  r14d,edx
    347a:	41 83 ff 01          	cmp    r15d,0x1
    347e:	0f 85 4d 02 00 00    	jne    36d1 <__sprintf_chk@plt+0x2381>
    3484:	83 fd 06             	cmp    ebp,0x6
    3487:	0f 85 44 02 00 00    	jne    36d1 <__sprintf_chk@plt+0x2381>
    348d:	84 c0                	test   al,al
    348f:	0f 84 3c 02 00 00    	je     36d1 <__sprintf_chk@plt+0x2381>
    3495:	48 8b bb 30 01 00 00 	mov    rdi,QWORD PTR [rbx+0x130]
    349c:	e8 a8 f5 ff ff       	call   2a49 <__sprintf_chk@plt+0x16f9>
    34a1:	89 c5                	mov    ebp,eax
    34a3:	44 8b 7c 24 0c       	mov    r15d,DWORD PTR [rsp+0xc]
    34a8:	44 89 ff             	mov    edi,r15d
    34ab:	e8 40 f6 ff ff       	call   2af0 <__sprintf_chk@plt+0x17a0>
    34b0:	89 c3                	mov    ebx,eax
    34b2:	89 ef                	mov    edi,ebp
    34b4:	e8 37 f6 ff ff       	call   2af0 <__sprintf_chk@plt+0x17a0>
    34b9:	29 c3                	sub    ebx,eax
    34bb:	89 d8                	mov    eax,ebx
    34bd:	99                   	cdq    
    34be:	31 d0                	xor    eax,edx
    34c0:	29 d0                	sub    eax,edx
    34c2:	83 f8 01             	cmp    eax,0x1
    34c5:	7e 2c                	jle    34f3 <__sprintf_chk@plt+0x21a3>
    34c7:	8b 7c 24 08          	mov    edi,DWORD PTR [rsp+0x8]
    34cb:	e8 11 f6 ff ff       	call   2ae1 <__sprintf_chk@plt+0x1791>
    34d0:	89 c3                	mov    ebx,eax
    34d2:	89 ef                	mov    edi,ebp
    34d4:	e8 08 f6 ff ff       	call   2ae1 <__sprintf_chk@plt+0x1791>
    34d9:	39 c3                	cmp    ebx,eax
    34db:	7e 33                	jle    3510 <__sprintf_chk@plt+0x21c0>
    34dd:	41 d1 fe             	sar    r14d,1
    34e0:	e9 16 02 00 00       	jmp    36fb <__sprintf_chk@plt+0x23ab>
    34e5:	0f 8f 06 ff ff ff    	jg     33f1 <__sprintf_chk@plt+0x20a1>
    34eb:	45 89 ee             	mov    r14d,r13d
    34ee:	e9 70 ff ff ff       	jmp    3463 <__sprintf_chk@plt+0x2113>
    34f3:	44 89 ff             	mov    edi,r15d
    34f6:	e8 e6 f5 ff ff       	call   2ae1 <__sprintf_chk@plt+0x1791>
    34fb:	89 c3                	mov    ebx,eax
    34fd:	89 ef                	mov    edi,ebp
    34ff:	e8 dd f5 ff ff       	call   2ae1 <__sprintf_chk@plt+0x1791>
    3504:	39 c3                	cmp    ebx,eax
    3506:	7d bf                	jge    34c7 <__sprintf_chk@plt+0x2177>
    3508:	41 d1 fe             	sar    r14d,1
    350b:	e9 eb 01 00 00       	jmp    36fb <__sprintf_chk@plt+0x23ab>
    3510:	8b 7c 24 08          	mov    edi,DWORD PTR [rsp+0x8]
    3514:	e8 d7 f5 ff ff       	call   2af0 <__sprintf_chk@plt+0x17a0>
    3519:	89 c3                	mov    ebx,eax
    351b:	89 ef                	mov    edi,ebp
    351d:	e8 ce f5 ff ff       	call   2af0 <__sprintf_chk@plt+0x17a0>
    3522:	29 c3                	sub    ebx,eax
    3524:	89 d8                	mov    eax,ebx
    3526:	99                   	cdq    
    3527:	31 d0                	xor    eax,edx
    3529:	29 d0                	sub    eax,edx
    352b:	83 f8 01             	cmp    eax,0x1
    352e:	7f ad                	jg     34dd <__sprintf_chk@plt+0x218d>
    3530:	e9 c6 01 00 00       	jmp    36fb <__sprintf_chk@plt+0x23ab>
    3535:	83 bf 98 01 00 00 00 	cmp    DWORD PTR [rdi+0x198],0x0
    353c:	0f 85 8c 01 00 00    	jne    36ce <__sprintf_chk@plt+0x237e>
    3542:	83 bf b0 01 00 00 00 	cmp    DWORD PTR [rdi+0x1b0],0x0
    3549:	75 21                	jne    356c <__sprintf_chk@plt+0x221c>
    354b:	83 bf b8 01 00 00 00 	cmp    DWORD PTR [rdi+0x1b8],0x0
    3552:	75 18                	jne    356c <__sprintf_chk@plt+0x221c>
    3554:	8b 97 c0 01 00 00    	mov    edx,DWORD PTR [rdi+0x1c0]
    355a:	83 fa 01             	cmp    edx,0x1
    355d:	74 63                	je     35c2 <__sprintf_chk@plt+0x2272>
    355f:	83 bf a0 01 00 00 01 	cmp    DWORD PTR [rdi+0x1a0],0x1
    3566:	75 04                	jne    356c <__sprintf_chk@plt+0x221c>
    3568:	85 d2                	test   edx,edx
    356a:	74 78                	je     35e4 <__sprintf_chk@plt+0x2294>
    356c:	83 fd 06             	cmp    ebp,0x6
    356f:	0f 94 c1             	sete   cl
    3572:	41 83 fc 0a          	cmp    r12d,0xa
    3576:	0f 94 c2             	sete   dl
    3579:	44 89 ee             	mov    esi,r13d
    357c:	c1 ee 1f             	shr    esi,0x1f
    357f:	21 f2                	and    edx,esi
    3581:	84 ca                	test   dl,cl
    3583:	74 04                	je     3589 <__sprintf_chk@plt+0x2239>
    3585:	85 c0                	test   eax,eax
    3587:	7f 63                	jg     35ec <__sprintf_chk@plt+0x229c>
    3589:	41 83 fc 08          	cmp    r12d,0x8
    358d:	74 63                	je     35f2 <__sprintf_chk@plt+0x22a2>
    358f:	41 83 fc 08          	cmp    r12d,0x8
    3593:	0f 8e f1 00 00 00    	jle    368a <__sprintf_chk@plt+0x233a>
    3599:	41 83 fc 10          	cmp    r12d,0x10
    359d:	7f 1b                	jg     35ba <__sprintf_chk@plt+0x226a>
    359f:	44 39 e5             	cmp    ebp,r12d
    35a2:	7d 16                	jge    35ba <__sprintf_chk@plt+0x226a>
    35a4:	44 89 e0             	mov    eax,r12d
    35a7:	29 e8                	sub    eax,ebp
    35a9:	83 f8 04             	cmp    eax,0x4
    35ac:	7f 0c                	jg     35ba <__sprintf_chk@plt+0x226a>
    35ae:	44 89 e8             	mov    eax,r13d
    35b1:	d1 f8                	sar    eax,1
    35b3:	45 85 ed             	test   r13d,r13d
    35b6:	44 0f 48 e8          	cmovs  r13d,eax
    35ba:	45 89 ee             	mov    r14d,r13d
    35bd:	e9 0f 01 00 00       	jmp    36d1 <__sprintf_chk@plt+0x2381>
    35c2:	83 bf a0 01 00 00 00 	cmp    DWORD PTR [rdi+0x1a0],0x0
    35c9:	75 a1                	jne    356c <__sprintf_chk@plt+0x221c>
    35cb:	85 f6                	test   esi,esi
    35cd:	ba 00 00 00 00       	mov    edx,0x0
    35d2:	44 0f 48 ea          	cmovs  r13d,edx
    35d6:	83 fd 06             	cmp    ebp,0x6
    35d9:	0f 94 c1             	sete   cl
    35dc:	41 83 fc 08          	cmp    r12d,0x8
    35e0:	75 ad                	jne    358f <__sprintf_chk@plt+0x223f>
    35e2:	eb 24                	jmp    3608 <__sprintf_chk@plt+0x22b8>
    35e4:	85 f6                	test   esi,esi
    35e6:	44 0f 48 ea          	cmovs  r13d,edx
    35ea:	eb ea                	jmp    35d6 <__sprintf_chk@plt+0x2286>
    35ec:	41 c1 fd 02          	sar    r13d,0x2
    35f0:	eb a7                	jmp    3599 <__sprintf_chk@plt+0x2249>
    35f2:	83 bb c0 01 00 00 00 	cmp    DWORD PTR [rbx+0x1c0],0x0
    35f9:	75 0d                	jne    3608 <__sprintf_chk@plt+0x22b8>
    35fb:	44 89 ea             	mov    edx,r13d
    35fe:	c1 fa 03             	sar    edx,0x3
    3601:	45 85 ed             	test   r13d,r13d
    3604:	44 0f 48 ea          	cmovs  r13d,edx
    3608:	45 89 ee             	mov    r14d,r13d
    360b:	44 89 e2             	mov    edx,r12d
    360e:	29 ea                	sub    edx,ebp
    3610:	83 fa 04             	cmp    edx,0x4
    3613:	7f 0d                	jg     3622 <__sprintf_chk@plt+0x22d2>
    3615:	44 89 f2             	mov    edx,r14d
    3618:	c1 fa 03             	sar    edx,0x3
    361b:	45 85 f6             	test   r14d,r14d
    361e:	44 0f 48 f2          	cmovs  r14d,edx
    3622:	83 f8 01             	cmp    eax,0x1
    3625:	0f 85 a6 00 00 00    	jne    36d1 <__sprintf_chk@plt+0x2381>
    362b:	41 83 fc 06          	cmp    r12d,0x6
    362f:	0f 85 9c 00 00 00    	jne    36d1 <__sprintf_chk@plt+0x2381>
    3635:	84 c9                	test   cl,cl
    3637:	0f 84 94 00 00 00    	je     36d1 <__sprintf_chk@plt+0x2381>
    363d:	48 8b bb 28 01 00 00 	mov    rdi,QWORD PTR [rbx+0x128]
    3644:	e8 ab f3 ff ff       	call   29f4 <__sprintf_chk@plt+0x16a4>
    3649:	89 c5                	mov    ebp,eax
    364b:	44 8b 7c 24 08       	mov    r15d,DWORD PTR [rsp+0x8]
    3650:	44 89 ff             	mov    edi,r15d
    3653:	e8 98 f4 ff ff       	call   2af0 <__sprintf_chk@plt+0x17a0>
    3658:	89 c3                	mov    ebx,eax
    365a:	89 ef                	mov    edi,ebp
    365c:	e8 8f f4 ff ff       	call   2af0 <__sprintf_chk@plt+0x17a0>
    3661:	29 c3                	sub    ebx,eax
    3663:	89 d8                	mov    eax,ebx
    3665:	99                   	cdq    
    3666:	31 d0                	xor    eax,edx
    3668:	29 d0                	sub    eax,edx
    366a:	83 f8 01             	cmp    eax,0x1
    366d:	7e 23                	jle    3692 <__sprintf_chk@plt+0x2342>
    366f:	8b 7c 24 0c          	mov    edi,DWORD PTR [rsp+0xc]
    3673:	e8 69 f4 ff ff       	call   2ae1 <__sprintf_chk@plt+0x1791>
    3678:	89 c3                	mov    ebx,eax
    367a:	89 ef                	mov    edi,ebp
    367c:	e8 60 f4 ff ff       	call   2ae1 <__sprintf_chk@plt+0x1791>
    3681:	39 c3                	cmp    ebx,eax
    3683:	7d 27                	jge    36ac <__sprintf_chk@plt+0x235c>
    3685:	41 d1 fe             	sar    r14d,1
    3688:	eb 71                	jmp    36fb <__sprintf_chk@plt+0x23ab>
    368a:	45 89 ee             	mov    r14d,r13d
    368d:	e9 79 ff ff ff       	jmp    360b <__sprintf_chk@plt+0x22bb>
    3692:	44 89 ff             	mov    edi,r15d
    3695:	e8 47 f4 ff ff       	call   2ae1 <__sprintf_chk@plt+0x1791>
    369a:	89 c3                	mov    ebx,eax
    369c:	89 ef                	mov    edi,ebp
    369e:	e8 3e f4 ff ff       	call   2ae1 <__sprintf_chk@plt+0x1791>
    36a3:	39 c3                	cmp    ebx,eax
    36a5:	7e c8                	jle    366f <__sprintf_chk@plt+0x231f>
    36a7:	41 d1 fe             	sar    r14d,1
    36aa:	eb 4f                	jmp    36fb <__sprintf_chk@plt+0x23ab>
    36ac:	8b 7c 24 0c          	mov    edi,DWORD PTR [rsp+0xc]
    36b0:	e8 3b f4 ff ff       	call   2af0 <__sprintf_chk@plt+0x17a0>
    36b5:	89 c3                	mov    ebx,eax
    36b7:	89 ef                	mov    edi,ebp
    36b9:	e8 32 f4 ff ff       	call   2af0 <__sprintf_chk@plt+0x17a0>
    36be:	29 c3                	sub    ebx,eax
    36c0:	89 d8                	mov    eax,ebx
    36c2:	99                   	cdq    
    36c3:	31 d0                	xor    eax,edx
    36c5:	29 d0                	sub    eax,edx
    36c7:	83 f8 01             	cmp    eax,0x1
    36ca:	7f b9                	jg     3685 <__sprintf_chk@plt+0x2335>
    36cc:	eb 2d                	jmp    36fb <__sprintf_chk@plt+0x23ab>
    36ce:	41 89 f6             	mov    r14d,esi
    36d1:	83 fd 04             	cmp    ebp,0x4
    36d4:	74 37                	je     370d <__sprintf_chk@plt+0x23bd>
    36d6:	41 83 fc 04          	cmp    r12d,0x4
    36da:	74 44                	je     3720 <__sprintf_chk@plt+0x23d0>
    36dc:	44 09 e5             	or     ebp,r12d
    36df:	75 1a                	jne    36fb <__sprintf_chk@plt+0x23ab>
    36e1:	83 bb 94 01 00 00 01 	cmp    DWORD PTR [rbx+0x194],0x1
    36e8:	0f 84 c5 02 00 00    	je     39b3 <__sprintf_chk@plt+0x2663>
    36ee:	83 bb 98 01 00 00 01 	cmp    DWORD PTR [rbx+0x198],0x1
    36f5:	0f 84 51 03 00 00    	je     3a4c <__sprintf_chk@plt+0x26fc>
    36fb:	44 89 f0             	mov    eax,r14d
    36fe:	48 83 c4 28          	add    rsp,0x28
    3702:	5b                   	pop    rbx
    3703:	5d                   	pop    rbp
    3704:	41 5c                	pop    r12
    3706:	41 5d                	pop    r13
    3708:	41 5e                	pop    r14
    370a:	41 5f                	pop    r15
    370c:	c3                   	ret    
    370d:	83 bb bc 01 00 00 01 	cmp    DWORD PTR [rbx+0x1bc],0x1
    3714:	0f 84 a6 f9 ff ff    	je     30c0 <__sprintf_chk@plt+0x1d70>
    371a:	41 83 fc 04          	cmp    r12d,0x4
    371e:	75 db                	jne    36fb <__sprintf_chk@plt+0x23ab>
    3720:	83 bb c0 01 00 00 01 	cmp    DWORD PTR [rbx+0x1c0],0x1
    3727:	75 d2                	jne    36fb <__sprintf_chk@plt+0x23ab>
    3729:	83 bb 98 01 00 00 01 	cmp    DWORD PTR [rbx+0x198],0x1
    3730:	75 c9                	jne    36fb <__sprintf_chk@plt+0x23ab>
    3732:	48 8b 83 30 01 00 00 	mov    rax,QWORD PTR [rbx+0x130]
    3739:	48 8b 15 58 4d 01 00 	mov    rdx,QWORD PTR [rip+0x14d58]        # 18498 <stdin@@GLIBC_2.2.5+0x1468>
    3740:	48 8b 0d 19 4d 01 00 	mov    rcx,QWORD PTR [rip+0x14d19]        # 18460 <stdin@@GLIBC_2.2.5+0x1430>
    3747:	48 89 d6             	mov    rsi,rdx
    374a:	48 09 ce             	or     rsi,rcx
    374d:	48 85 c6             	test   rsi,rax
    3750:	74 a9                	je     36fb <__sprintf_chk@plt+0x23ab>
    3752:	48 85 d0             	test   rax,rdx
    3755:	0f 84 ab 01 00 00    	je     3906 <__sprintf_chk@plt+0x25b6>
    375b:	48 8b 93 28 01 00 00 	mov    rdx,QWORD PTR [rbx+0x128]
    3762:	48 85 15 27 4d 01 00 	test   QWORD PTR [rip+0x14d27],rdx        # 18490 <stdin@@GLIBC_2.2.5+0x1460>
    3769:	0f 85 97 01 00 00    	jne    3906 <__sprintf_chk@plt+0x25b6>
    376f:	48 8b 83 80 01 00 00 	mov    rax,QWORD PTR [rbx+0x180]
    3776:	48 85 05 3b 3d 01 00 	test   QWORD PTR [rip+0x13d3b],rax        # 174b8 <stdin@@GLIBC_2.2.5+0x488>
    377d:	0f 85 78 ff ff ff    	jne    36fb <__sprintf_chk@plt+0x23ab>
    3783:	8b 74 24 0c          	mov    esi,DWORD PTR [rsp+0xc]
    3787:	bf 3f 00 00 00       	mov    edi,0x3f
    378c:	e8 93 f3 ff ff       	call   2b24 <__sprintf_chk@plt+0x17d4>
    3791:	89 c5                	mov    ebp,eax
    3793:	83 f8 01             	cmp    eax,0x1
    3796:	0f 8f 14 01 00 00    	jg     38b0 <__sprintf_chk@plt+0x2560>
    379c:	45 85 f6             	test   r14d,r14d
    379f:	b8 00 00 00 00       	mov    eax,0x0
    37a4:	44 0f 48 f0          	cmovs  r14d,eax
    37a8:	e9 4e ff ff ff       	jmp    36fb <__sprintf_chk@plt+0x23ab>
    37ad:	8b 74 24 0c          	mov    esi,DWORD PTR [rsp+0xc]
    37b1:	bf 07 00 00 00       	mov    edi,0x7
    37b6:	e8 69 f3 ff ff       	call   2b24 <__sprintf_chk@plt+0x17d4>
    37bb:	41 89 c4             	mov    r12d,eax
    37be:	48 8b bb 28 01 00 00 	mov    rdi,QWORD PTR [rbx+0x128]
    37c5:	e8 2a f2 ff ff       	call   29f4 <__sprintf_chk@plt+0x16a4>
    37ca:	89 c6                	mov    esi,eax
    37cc:	bf 07 00 00 00       	mov    edi,0x7
    37d1:	e8 4e f3 ff ff       	call   2b24 <__sprintf_chk@plt+0x17d4>
    37d6:	8b 7c 24 10          	mov    edi,DWORD PTR [rsp+0x10]
    37da:	41 29 fc             	sub    r12d,edi
    37dd:	41 39 ec             	cmp    r12d,ebp
    37e0:	0f 8c 15 ff ff ff    	jl     36fb <__sprintf_chk@plt+0x23ab>
    37e6:	ff cd                	dec    ebp
    37e8:	29 f8                	sub    eax,edi
    37ea:	39 c5                	cmp    ebp,eax
    37ec:	0f 8f 09 ff ff ff    	jg     36fb <__sprintf_chk@plt+0x23ab>
    37f2:	45 85 f6             	test   r14d,r14d
    37f5:	b8 00 00 00 00       	mov    eax,0x0
    37fa:	44 0f 4f f0          	cmovg  r14d,eax
    37fe:	e9 f8 fe ff ff       	jmp    36fb <__sprintf_chk@plt+0x23ab>
    3803:	48 85 c8             	test   rax,rcx
    3806:	0f 84 ef fe ff ff    	je     36fb <__sprintf_chk@plt+0x23ab>
    380c:	48 8b 83 30 01 00 00 	mov    rax,QWORD PTR [rbx+0x130]
    3813:	48 85 05 4e 4c 01 00 	test   QWORD PTR [rip+0x14c4e],rax        # 18468 <stdin@@GLIBC_2.2.5+0x1438>
    381a:	0f 85 db fe ff ff    	jne    36fb <__sprintf_chk@plt+0x23ab>
    3820:	48 8b 83 78 01 00 00 	mov    rax,QWORD PTR [rbx+0x178]
    3827:	48 85 05 8a 3c 01 00 	test   QWORD PTR [rip+0x13c8a],rax        # 174b8 <stdin@@GLIBC_2.2.5+0x488>
    382e:	0f 85 c7 fe ff ff    	jne    36fb <__sprintf_chk@plt+0x23ab>
    3834:	8b 74 24 08          	mov    esi,DWORD PTR [rsp+0x8]
    3838:	bf 00 00 00 00       	mov    edi,0x0
    383d:	e8 e2 f2 ff ff       	call   2b24 <__sprintf_chk@plt+0x17d4>
    3842:	89 c5                	mov    ebp,eax
    3844:	83 f8 01             	cmp    eax,0x1
    3847:	7f 11                	jg     385a <__sprintf_chk@plt+0x250a>
    3849:	45 85 f6             	test   r14d,r14d
    384c:	b8 00 00 00 00       	mov    eax,0x0
    3851:	44 0f 4f f0          	cmovg  r14d,eax
    3855:	e9 a1 fe ff ff       	jmp    36fb <__sprintf_chk@plt+0x23ab>
    385a:	8b 74 24 0c          	mov    esi,DWORD PTR [rsp+0xc]
    385e:	bf 00 00 00 00       	mov    edi,0x0
    3863:	e8 bc f2 ff ff       	call   2b24 <__sprintf_chk@plt+0x17d4>
    3868:	41 89 c4             	mov    r12d,eax
    386b:	48 8b bb 28 01 00 00 	mov    rdi,QWORD PTR [rbx+0x128]
    3872:	e8 7d f1 ff ff       	call   29f4 <__sprintf_chk@plt+0x16a4>
    3877:	89 c6                	mov    esi,eax
    3879:	bf 00 00 00 00       	mov    edi,0x0
    387e:	e8 a1 f2 ff ff       	call   2b24 <__sprintf_chk@plt+0x17d4>
    3883:	8b 7c 24 10          	mov    edi,DWORD PTR [rsp+0x10]
    3887:	41 29 fc             	sub    r12d,edi
    388a:	41 39 ec             	cmp    r12d,ebp
    388d:	0f 8c 68 fe ff ff    	jl     36fb <__sprintf_chk@plt+0x23ab>
    3893:	ff cd                	dec    ebp
    3895:	29 f8                	sub    eax,edi
    3897:	39 c5                	cmp    ebp,eax
    3899:	0f 8f 5c fe ff ff    	jg     36fb <__sprintf_chk@plt+0x23ab>
    389f:	45 85 f6             	test   r14d,r14d
    38a2:	b8 00 00 00 00       	mov    eax,0x0
    38a7:	44 0f 4f f0          	cmovg  r14d,eax
    38ab:	e9 4b fe ff ff       	jmp    36fb <__sprintf_chk@plt+0x23ab>
    38b0:	8b 74 24 08          	mov    esi,DWORD PTR [rsp+0x8]
    38b4:	bf 3f 00 00 00       	mov    edi,0x3f
    38b9:	e8 66 f2 ff ff       	call   2b24 <__sprintf_chk@plt+0x17d4>
    38be:	41 89 c4             	mov    r12d,eax
    38c1:	48 8b bb 30 01 00 00 	mov    rdi,QWORD PTR [rbx+0x130]
    38c8:	e8 7c f1 ff ff       	call   2a49 <__sprintf_chk@plt+0x16f9>
    38cd:	89 c6                	mov    esi,eax
    38cf:	bf 3f 00 00 00       	mov    edi,0x3f
    38d4:	e8 4b f2 ff ff       	call   2b24 <__sprintf_chk@plt+0x17d4>
    38d9:	8b 7c 24 10          	mov    edi,DWORD PTR [rsp+0x10]
    38dd:	41 01 fc             	add    r12d,edi
    38e0:	41 39 ec             	cmp    r12d,ebp
    38e3:	0f 8c 12 fe ff ff    	jl     36fb <__sprintf_chk@plt+0x23ab>
    38e9:	ff cd                	dec    ebp
    38eb:	01 f8                	add    eax,edi
    38ed:	39 c5                	cmp    ebp,eax
    38ef:	0f 8f 06 fe ff ff    	jg     36fb <__sprintf_chk@plt+0x23ab>
    38f5:	45 85 f6             	test   r14d,r14d
    38f8:	b8 00 00 00 00       	mov    eax,0x0
    38fd:	44 0f 48 f0          	cmovs  r14d,eax
    3901:	e9 f5 fd ff ff       	jmp    36fb <__sprintf_chk@plt+0x23ab>
    3906:	48 85 c8             	test   rax,rcx
    3909:	0f 84 ec fd ff ff    	je     36fb <__sprintf_chk@plt+0x23ab>
    390f:	48 8b 83 28 01 00 00 	mov    rax,QWORD PTR [rbx+0x128]
    3916:	48 85 05 4b 4b 01 00 	test   QWORD PTR [rip+0x14b4b],rax        # 18468 <stdin@@GLIBC_2.2.5+0x1438>
    391d:	0f 85 d8 fd ff ff    	jne    36fb <__sprintf_chk@plt+0x23ab>
    3923:	48 8b 83 80 01 00 00 	mov    rax,QWORD PTR [rbx+0x180]
    392a:	48 85 05 7f 3b 01 00 	test   QWORD PTR [rip+0x13b7f],rax        # 174b0 <stdin@@GLIBC_2.2.5+0x480>
    3931:	0f 85 c4 fd ff ff    	jne    36fb <__sprintf_chk@plt+0x23ab>
    3937:	8b 74 24 0c          	mov    esi,DWORD PTR [rsp+0xc]
    393b:	bf 38 00 00 00       	mov    edi,0x38
    3940:	e8 df f1 ff ff       	call   2b24 <__sprintf_chk@plt+0x17d4>
    3945:	89 c5                	mov    ebp,eax
    3947:	83 f8 01             	cmp    eax,0x1
    394a:	7f 11                	jg     395d <__sprintf_chk@plt+0x260d>
    394c:	45 85 f6             	test   r14d,r14d
    394f:	b8 00 00 00 00       	mov    eax,0x0
    3954:	44 0f 48 f0          	cmovs  r14d,eax
    3958:	e9 9e fd ff ff       	jmp    36fb <__sprintf_chk@plt+0x23ab>
    395d:	8b 74 24 08          	mov    esi,DWORD PTR [rsp+0x8]
    3961:	bf 38 00 00 00       	mov    edi,0x38
    3966:	e8 b9 f1 ff ff       	call   2b24 <__sprintf_chk@plt+0x17d4>
    396b:	41 89 c4             	mov    r12d,eax
    396e:	48 8b bb 30 01 00 00 	mov    rdi,QWORD PTR [rbx+0x130]
    3975:	e8 cf f0 ff ff       	call   2a49 <__sprintf_chk@plt+0x16f9>
    397a:	89 c6                	mov    esi,eax
    397c:	bf 38 00 00 00       	mov    edi,0x38
    3981:	e8 9e f1 ff ff       	call   2b24 <__sprintf_chk@plt+0x17d4>
    3986:	8b 7c 24 10          	mov    edi,DWORD PTR [rsp+0x10]
    398a:	41 01 fc             	add    r12d,edi
    398d:	41 39 ec             	cmp    r12d,ebp
    3990:	0f 8c 65 fd ff ff    	jl     36fb <__sprintf_chk@plt+0x23ab>
    3996:	ff cd                	dec    ebp
    3998:	01 f8                	add    eax,edi
    399a:	39 c5                	cmp    ebp,eax
    399c:	0f 8f 59 fd ff ff    	jg     36fb <__sprintf_chk@plt+0x23ab>
    39a2:	45 85 f6             	test   r14d,r14d
    39a5:	b8 00 00 00 00       	mov    eax,0x0
    39aa:	44 0f 48 f0          	cmovs  r14d,eax
    39ae:	e9 48 fd ff ff       	jmp    36fb <__sprintf_chk@plt+0x23ab>
    39b3:	48 8b 83 28 01 00 00 	mov    rax,QWORD PTR [rbx+0x128]
    39ba:	48 85 05 d7 4a 01 00 	test   QWORD PTR [rip+0x14ad7],rax        # 18498 <stdin@@GLIBC_2.2.5+0x1468>
    39c1:	74 43                	je     3a06 <__sprintf_chk@plt+0x26b6>
    39c3:	48 8b 05 0e 51 01 00 	mov    rax,QWORD PTR [rip+0x1510e]        # 18ad8 <stdin@@GLIBC_2.2.5+0x1aa8>
    39ca:	48 0b 05 47 51 01 00 	or     rax,QWORD PTR [rip+0x15147]        # 18b18 <stdin@@GLIBC_2.2.5+0x1ae8>
    39d1:	48 0b 05 38 51 01 00 	or     rax,QWORD PTR [rip+0x15138]        # 18b10 <stdin@@GLIBC_2.2.5+0x1ae0>
    39d8:	48 0b 05 f1 50 01 00 	or     rax,QWORD PTR [rip+0x150f1]        # 18ad0 <stdin@@GLIBC_2.2.5+0x1aa0>
    39df:	48 0b 05 e2 50 01 00 	or     rax,QWORD PTR [rip+0x150e2]        # 18ac8 <stdin@@GLIBC_2.2.5+0x1a98>
    39e6:	48 0b 05 6b 51 01 00 	or     rax,QWORD PTR [rip+0x1516b]        # 18b58 <stdin@@GLIBC_2.2.5+0x1b28>
    39ed:	44 89 f2             	mov    edx,r14d
    39f0:	c1 fa 02             	sar    edx,0x2
    39f3:	48 85 83 50 01 00 00 	test   QWORD PTR [rbx+0x150],rax
    39fa:	44 0f 45 f2          	cmovne r14d,edx
    39fe:	41 d1 fe             	sar    r14d,1
    3a01:	e9 e8 fc ff ff       	jmp    36ee <__sprintf_chk@plt+0x239e>
    3a06:	48 85 05 53 4a 01 00 	test   QWORD PTR [rip+0x14a53],rax        # 18460 <stdin@@GLIBC_2.2.5+0x1430>
    3a0d:	74 ef                	je     39fe <__sprintf_chk@plt+0x26ae>
    3a0f:	48 8b 05 8a 50 01 00 	mov    rax,QWORD PTR [rip+0x1508a]        # 18aa0 <stdin@@GLIBC_2.2.5+0x1a70>
    3a16:	48 0b 05 c3 50 01 00 	or     rax,QWORD PTR [rip+0x150c3]        # 18ae0 <stdin@@GLIBC_2.2.5+0x1ab0>
    3a1d:	48 0b 05 c4 50 01 00 	or     rax,QWORD PTR [rip+0x150c4]        # 18ae8 <stdin@@GLIBC_2.2.5+0x1ab8>
    3a24:	48 0b 05 7d 50 01 00 	or     rax,QWORD PTR [rip+0x1507d]        # 18aa8 <stdin@@GLIBC_2.2.5+0x1a78>
    3a2b:	48 0b 05 7e 50 01 00 	or     rax,QWORD PTR [rip+0x1507e]        # 18ab0 <stdin@@GLIBC_2.2.5+0x1a80>
    3a32:	48 0b 05 e7 50 01 00 	or     rax,QWORD PTR [rip+0x150e7]        # 18b20 <stdin@@GLIBC_2.2.5+0x1af0>
    3a39:	44 89 f2             	mov    edx,r14d
    3a3c:	c1 fa 02             	sar    edx,0x2
    3a3f:	48 85 83 50 01 00 00 	test   QWORD PTR [rbx+0x150],rax
    3a46:	44 0f 45 f2          	cmovne r14d,edx
    3a4a:	eb b2                	jmp    39fe <__sprintf_chk@plt+0x26ae>
    3a4c:	48 8b 83 30 01 00 00 	mov    rax,QWORD PTR [rbx+0x130]
    3a53:	48 85 05 3e 4a 01 00 	test   QWORD PTR [rip+0x14a3e],rax        # 18498 <stdin@@GLIBC_2.2.5+0x1468>
    3a5a:	74 43                	je     3a9f <__sprintf_chk@plt+0x274f>
    3a5c:	48 8b 05 35 52 01 00 	mov    rax,QWORD PTR [rip+0x15235]        # 18c98 <stdin@@GLIBC_2.2.5+0x1c68>
    3a63:	48 0b 05 ee 51 01 00 	or     rax,QWORD PTR [rip+0x151ee]        # 18c58 <stdin@@GLIBC_2.2.5+0x1c28>
    3a6a:	48 0b 05 1f 52 01 00 	or     rax,QWORD PTR [rip+0x1521f]        # 18c90 <stdin@@GLIBC_2.2.5+0x1c60>
    3a71:	48 0b 05 d8 51 01 00 	or     rax,QWORD PTR [rip+0x151d8]        # 18c50 <stdin@@GLIBC_2.2.5+0x1c20>
    3a78:	48 0b 05 09 52 01 00 	or     rax,QWORD PTR [rip+0x15209]        # 18c88 <stdin@@GLIBC_2.2.5+0x1c58>
    3a7f:	48 0b 05 92 51 01 00 	or     rax,QWORD PTR [rip+0x15192]        # 18c18 <stdin@@GLIBC_2.2.5+0x1be8>
    3a86:	44 89 f2             	mov    edx,r14d
    3a89:	c1 fa 02             	sar    edx,0x2
    3a8c:	48 85 83 48 01 00 00 	test   QWORD PTR [rbx+0x148],rax
    3a93:	44 0f 45 f2          	cmovne r14d,edx
    3a97:	41 d1 fe             	sar    r14d,1
    3a9a:	e9 5c fc ff ff       	jmp    36fb <__sprintf_chk@plt+0x23ab>
    3a9f:	48 85 05 ba 49 01 00 	test   QWORD PTR [rip+0x149ba],rax        # 18460 <stdin@@GLIBC_2.2.5+0x1430>
    3aa6:	74 ef                	je     3a97 <__sprintf_chk@plt+0x2747>
    3aa8:	48 8b 05 b1 51 01 00 	mov    rax,QWORD PTR [rip+0x151b1]        # 18c60 <stdin@@GLIBC_2.2.5+0x1c30>
    3aaf:	48 0b 05 6a 51 01 00 	or     rax,QWORD PTR [rip+0x1516a]        # 18c20 <stdin@@GLIBC_2.2.5+0x1bf0>
    3ab6:	48 0b 05 ab 51 01 00 	or     rax,QWORD PTR [rip+0x151ab]        # 18c68 <stdin@@GLIBC_2.2.5+0x1c38>
    3abd:	48 0b 05 64 51 01 00 	or     rax,QWORD PTR [rip+0x15164]        # 18c28 <stdin@@GLIBC_2.2.5+0x1bf8>
    3ac4:	48 0b 05 a5 51 01 00 	or     rax,QWORD PTR [rip+0x151a5]        # 18c70 <stdin@@GLIBC_2.2.5+0x1c40>
    3acb:	48 0b 05 0e 51 01 00 	or     rax,QWORD PTR [rip+0x1510e]        # 18be0 <stdin@@GLIBC_2.2.5+0x1bb0>
    3ad2:	44 89 f2             	mov    edx,r14d
    3ad5:	c1 fa 02             	sar    edx,0x2
    3ad8:	48 85 83 48 01 00 00 	test   QWORD PTR [rbx+0x148],rax
    3adf:	44 0f 45 f2          	cmovne r14d,edx
    3ae3:	eb b2                	jmp    3a97 <__sprintf_chk@plt+0x2747>
    3ae5:	83 fa 02             	cmp    edx,0x2
    3ae8:	0f 8e 9f 00 00 00    	jle    3b8d <__sprintf_chk@plt+0x283d>
    3aee:	85 c0                	test   eax,eax
    3af0:	0f 84 97 f5 ff ff    	je     308d <__sprintf_chk@plt+0x1d3d>
    3af6:	83 bb bc 01 00 00 00 	cmp    DWORD PTR [rbx+0x1bc],0x0
    3afd:	0f 85 ce fb ff ff    	jne    36d1 <__sprintf_chk@plt+0x2381>
    3b03:	83 bb 9c 01 00 00 00 	cmp    DWORD PTR [rbx+0x19c],0x0
    3b0a:	0f 85 c1 fb ff ff    	jne    36d1 <__sprintf_chk@plt+0x2381>
    3b10:	83 f8 01             	cmp    eax,0x1
    3b13:	0f 85 b8 fb ff ff    	jne    36d1 <__sprintf_chk@plt+0x2381>
    3b19:	83 bb a0 01 00 00 01 	cmp    DWORD PTR [rbx+0x1a0],0x1
    3b20:	0f 85 ab fb ff ff    	jne    36d1 <__sprintf_chk@plt+0x2381>
    3b26:	48 8b 83 80 01 00 00 	mov    rax,QWORD PTR [rbx+0x180]
    3b2d:	48 85 05 7c 39 01 00 	test   QWORD PTR [rip+0x1397c],rax        # 174b0 <stdin@@GLIBC_2.2.5+0x480>
    3b34:	0f 84 04 f7 ff ff    	je     323e <__sprintf_chk@plt+0x1eee>
    3b3a:	44 8b 7c 24 0c       	mov    r15d,DWORD PTR [rsp+0xc]
    3b3f:	44 89 fe             	mov    esi,r15d
    3b42:	bf 38 00 00 00       	mov    edi,0x38
    3b47:	e8 af ef ff ff       	call   2afb <__sprintf_chk@plt+0x17ab>
    3b4c:	41 89 c5             	mov    r13d,eax
    3b4f:	44 89 fe             	mov    esi,r15d
    3b52:	bf 07 00 00 00       	mov    edi,0x7
    3b57:	e8 9f ef ff ff       	call   2afb <__sprintf_chk@plt+0x17ab>
    3b5c:	41 39 c5             	cmp    r13d,eax
    3b5f:	0f 8d bb f6 ff ff    	jge    3220 <__sprintf_chk@plt+0x1ed0>
    3b65:	44 89 fe             	mov    esi,r15d
    3b68:	bf 38 00 00 00       	mov    edi,0x38
    3b6d:	e8 89 ef ff ff       	call   2afb <__sprintf_chk@plt+0x17ab>
    3b72:	6b c0 e2             	imul   eax,eax,0xffffffe2
    3b75:	05 f0 00 00 00       	add    eax,0xf0
    3b7a:	41 29 c6             	sub    r14d,eax
    3b7d:	e9 4f fb ff ff       	jmp    36d1 <__sprintf_chk@plt+0x2381>
    3b82:	8b 93 9c 01 00 00    	mov    edx,DWORD PTR [rbx+0x19c]
    3b88:	b8 02 00 00 00       	mov    eax,0x2
    3b8d:	8b 8b bc 01 00 00    	mov    ecx,DWORD PTR [rbx+0x1bc]
    3b93:	85 c9                	test   ecx,ecx
    3b95:	74 11                	je     3ba8 <__sprintf_chk@plt+0x2858>
    3b97:	85 d2                	test   edx,edx
    3b99:	0f 85 94 00 00 00    	jne    3c33 <__sprintf_chk@plt+0x28e3>
    3b9f:	83 f9 01             	cmp    ecx,0x1
    3ba2:	0f 85 8b 00 00 00    	jne    3c33 <__sprintf_chk@plt+0x28e3>
    3ba8:	8b 93 a0 01 00 00    	mov    edx,DWORD PTR [rbx+0x1a0]
    3bae:	85 c0                	test   eax,eax
    3bb0:	75 09                	jne    3bbb <__sprintf_chk@plt+0x286b>
    3bb2:	83 fa 02             	cmp    edx,0x2
    3bb5:	0f 8e cf f4 ff ff    	jle    308a <__sprintf_chk@plt+0x1d3a>
    3bbb:	85 d2                	test   edx,edx
    3bbd:	0f 85 2b ff ff ff    	jne    3aee <__sprintf_chk@plt+0x279e>
    3bc3:	83 f8 01             	cmp    eax,0x1
    3bc6:	0f 85 22 ff ff ff    	jne    3aee <__sprintf_chk@plt+0x279e>
    3bcc:	45 89 fe             	mov    r14d,r15d
    3bcf:	e9 22 ff ff ff       	jmp    3af6 <__sprintf_chk@plt+0x27a6>
    3bd4:	89 f0                	mov    eax,esi
    3bd6:	09 c8                	or     eax,ecx
    3bd8:	09 f8                	or     eax,edi
    3bda:	09 d0                	or     eax,edx
    3bdc:	74 a4                	je     3b82 <__sprintf_chk@plt+0x2832>
    3bde:	09 d1                	or     ecx,edx
    3be0:	0f 85 eb fa ff ff    	jne    36d1 <__sprintf_chk@plt+0x2381>
    3be6:	85 ff                	test   edi,edi
    3be8:	75 09                	jne    3bf3 <__sprintf_chk@plt+0x28a3>
    3bea:	83 fe 01             	cmp    esi,0x1
    3bed:	0f 84 ad f6 ff ff    	je     32a0 <__sprintf_chk@plt+0x1f50>
    3bf3:	85 f6                	test   esi,esi
    3bf5:	75 09                	jne    3c00 <__sprintf_chk@plt+0x28b0>
    3bf7:	83 ff 01             	cmp    edi,0x1
    3bfa:	0f 84 1e f7 ff ff    	je     331e <__sprintf_chk@plt+0x1fce>
    3c00:	39 fe                	cmp    esi,edi
    3c02:	0f 84 c9 fa ff ff    	je     36d1 <__sprintf_chk@plt+0x2381>
    3c08:	29 fe                	sub    esi,edi
    3c0a:	8b 83 a0 01 00 00    	mov    eax,DWORD PTR [rbx+0x1a0]
    3c10:	03 83 c0 01 00 00    	add    eax,DWORD PTR [rbx+0x1c0]
    3c16:	2b 83 9c 01 00 00    	sub    eax,DWORD PTR [rbx+0x19c]
    3c1c:	2b 83 bc 01 00 00    	sub    eax,DWORD PTR [rbx+0x1bc]
    3c22:	44 89 f2             	mov    edx,r14d
    3c25:	c1 fa 02             	sar    edx,0x2
    3c28:	39 c6                	cmp    esi,eax
    3c2a:	44 0f 44 f2          	cmove  r14d,edx
    3c2e:	e9 9e fa ff ff       	jmp    36d1 <__sprintf_chk@plt+0x2381>
    3c33:	85 c0                	test   eax,eax
    3c35:	0f 85 96 fa ff ff    	jne    36d1 <__sprintf_chk@plt+0x2381>
    3c3b:	e9 4d f4 ff ff       	jmp    308d <__sprintf_chk@plt+0x1d3d>
    3c40:	f3 0f 1e fa          	endbr64 
    3c44:	41 57                	push   r15
    3c46:	41 56                	push   r14
    3c48:	41 55                	push   r13
    3c4a:	41 54                	push   r12
    3c4c:	55                   	push   rbp
    3c4d:	53                   	push   rbx
    3c4e:	48 83 ec 38          	sub    rsp,0x38
    3c52:	48 89 7c 24 28       	mov    QWORD PTR [rsp+0x28],rdi
    3c57:	49 89 f7             	mov    r15,rsi
    3c5a:	49 89 d4             	mov    r12,rdx
    3c5d:	e8 96 c8 00 00       	call   104f8 <__sprintf_chk@plt+0xf1a8>
    3c62:	be 00 00 00 00       	mov    esi,0x0
    3c67:	49 c7 47 04 00 00 00 	mov    QWORD PTR [r15+0x4],0x0
    3c6e:	00 
    3c6f:	49 c7 87 e4 00 00 00 	mov    QWORD PTR [r15+0xe4],0x0
    3c76:	00 00 00 00 
    3c7a:	49 c7 87 ec 00 00 00 	mov    QWORD PTR [r15+0xec],0x0
    3c81:	00 00 00 00 
    3c85:	49 c7 87 f4 00 00 00 	mov    QWORD PTR [r15+0xf4],0x0
    3c8c:	00 00 00 00 
    3c90:	49 c7 87 fc 00 00 00 	mov    QWORD PTR [r15+0xfc],0x0
    3c97:	00 00 00 00 
    3c9b:	49 8d 47 0c          	lea    rax,[r15+0xc]
    3c9f:	48 83 e0 f8          	and    rax,0xfffffffffffffff8
    3ca3:	44 89 fa             	mov    edx,r15d
    3ca6:	29 c2                	sub    edx,eax
    3ca8:	8d ba 04 01 00 00    	lea    edi,[rdx+0x104]
    3cae:	83 e7 e0             	and    edi,0xffffffe0
    3cb1:	b9 00 00 00 00       	mov    ecx,0x0
    3cb6:	89 ca                	mov    edx,ecx
    3cb8:	48 89 34 10          	mov    QWORD PTR [rax+rdx*1],rsi
    3cbc:	48 89 74 10 08       	mov    QWORD PTR [rax+rdx*1+0x8],rsi
    3cc1:	48 89 74 10 10       	mov    QWORD PTR [rax+rdx*1+0x10],rsi
    3cc6:	48 89 74 10 18       	mov    QWORD PTR [rax+rdx*1+0x18],rsi
    3ccb:	83 c1 20             	add    ecx,0x20
    3cce:	39 f9                	cmp    ecx,edi
    3cd0:	72 e4                	jb     3cb6 <__sprintf_chk@plt+0x2966>
    3cd2:	41 c7 87 c4 01 00 00 	mov    DWORD PTR [r15+0x1c4],0x0
    3cd9:	00 00 00 00 
    3cdd:	41 c7 87 1c 11 00 00 	mov    DWORD PTR [r15+0x111c],0x38
    3ce4:	38 00 00 00 
    3ce8:	41 c7 87 20 11 00 00 	mov    DWORD PTR [r15+0x1120],0x3f
    3cef:	3f 00 00 00 
    3cf3:	41 c7 87 24 11 00 00 	mov    DWORD PTR [r15+0x1124],0x0
    3cfa:	00 00 00 00 
    3cfe:	41 c7 87 28 11 00 00 	mov    DWORD PTR [r15+0x1128],0x7
    3d05:	07 00 00 00 
    3d09:	b8 01 00 00 00       	mov    eax,0x1
    3d0e:	41 80 3c 24 20       	cmp    BYTE PTR [r12],0x20
    3d13:	75 5b                	jne    3d70 <__sprintf_chk@plt+0x2a20>
    3d15:	89 c3                	mov    ebx,eax
    3d17:	48 ff c0             	inc    rax
    3d1a:	41 80 7c 04 ff 20    	cmp    BYTE PTR [r12+rax*1-0x1],0x20
    3d20:	74 f3                	je     3d15 <__sprintf_chk@plt+0x29c5>
    3d22:	48 63 c3             	movsxd rax,ebx
    3d25:	41 0f b6 04 04       	movzx  eax,BYTE PTR [r12+rax*1]
    3d2a:	84 c0                	test   al,al
    3d2c:	0f 84 2a 05 00 00    	je     425c <__sprintf_chk@plt+0x2f0c>
    3d32:	3c 0a                	cmp    al,0xa
    3d34:	0f 84 22 05 00 00    	je     425c <__sprintf_chk@plt+0x2f0c>
    3d3a:	c7 44 24 18 00 00 00 	mov    DWORD PTR [rsp+0x18],0x0
    3d41:	00 
    3d42:	c7 44 24 14 00 00 00 	mov    DWORD PTR [rsp+0x14],0x0
    3d49:	00 
    3d4a:	c7 44 24 0c 00 00 00 	mov    DWORD PTR [rsp+0xc],0x0
    3d51:	00 
    3d52:	c7 44 24 10 00 00 00 	mov    DWORD PTR [rsp+0x10],0x0
    3d59:	00 
    3d5a:	41 bd 00 00 00 00    	mov    r13d,0x0
    3d60:	4c 8d 35 59 e6 00 00 	lea    r14,[rip+0xe659]        # 123c0 <__sprintf_chk@plt+0x11070>
    3d67:	4c 89 3c 24          	mov    QWORD PTR [rsp],r15
    3d6b:	e9 83 02 00 00       	jmp    3ff3 <__sprintf_chk@plt+0x2ca3>
    3d70:	bb 00 00 00 00       	mov    ebx,0x0
    3d75:	eb ab                	jmp    3d22 <__sprintf_chk@plt+0x29d2>
    3d77:	41 ff c5             	inc    r13d
    3d7a:	ff c3                	inc    ebx
    3d7c:	48 63 c3             	movsxd rax,ebx
    3d7f:	89 c3                	mov    ebx,eax
    3d81:	48 ff c0             	inc    rax
    3d84:	41 80 7c 04 ff 20    	cmp    BYTE PTR [r12+rax*1-0x1],0x20
    3d8a:	74 f3                	je     3d7f <__sprintf_chk@plt+0x2a2f>
    3d8c:	e9 6a 02 00 00       	jmp    3ffb <__sprintf_chk@plt+0x2cab>
    3d91:	8b 44 24 0c          	mov    eax,DWORD PTR [rsp+0xc]
    3d95:	89 c1                	mov    ecx,eax
    3d97:	03 44 24 14          	add    eax,DWORD PTR [rsp+0x14]
    3d9b:	48 98                	cdqe   
    3d9d:	48 8b 34 24          	mov    rsi,QWORD PTR [rsp]
    3da1:	48 8d 04 86          	lea    rax,[rsi+rax*4]
    3da5:	bd 00 00 00 00       	mov    ebp,0x0
    3daa:	89 5c 24 0c          	mov    DWORD PTR [rsp+0xc],ebx
    3dae:	89 cb                	mov    ebx,ecx
    3db0:	44 89 6c 24 1c       	mov    DWORD PTR [rsp+0x1c],r13d
    3db5:	49 89 c5             	mov    r13,rax
    3db8:	4c 89 64 24 20       	mov    QWORD PTR [rsp+0x20],r12
    3dbd:	44 8d 24 2b          	lea    r12d,[rbx+rbp*1]
    3dc1:	ba 0a 00 00 00       	mov    edx,0xa
    3dc6:	be 00 00 00 00       	mov    esi,0x0
    3dcb:	4c 89 ff             	mov    rdi,r15
    3dce:	e8 bd d4 ff ff       	call   1290 <strtol@plt>
    3dd3:	39 c5                	cmp    ebp,eax
    3dd5:	0f 8d 15 04 00 00    	jge    41f0 <__sprintf_chk@plt+0x2ea0>
    3ddb:	41 c7 44 ad 04 0d 00 	mov    DWORD PTR [r13+rbp*4+0x4],0xd
    3de2:	00 00 
    3de4:	48 ff c5             	inc    rbp
    3de7:	eb d4                	jmp    3dbd <__sprintf_chk@plt+0x2a6d>
    3de9:	ff 44 24 10          	inc    DWORD PTR [rsp+0x10]
    3ded:	8b 44 24 10          	mov    eax,DWORD PTR [rsp+0x10]
    3df1:	48 98                	cdqe   
    3df3:	48 8d 0d e6 e6 00 00 	lea    rcx,[rip+0xe6e6]        # 124e0 <__sprintf_chk@plt+0x11190>
    3dfa:	8b 04 81             	mov    eax,DWORD PTR [rcx+rax*4]
    3dfd:	89 44 24 14          	mov    DWORD PTR [rsp+0x14],eax
    3e01:	44 89 6c 24 0c       	mov    DWORD PTR [rsp+0xc],r13d
    3e06:	ff c3                	inc    ebx
    3e08:	e9 ce 01 00 00       	jmp    3fdb <__sprintf_chk@plt+0x2c8b>
    3e0d:	8b 44 24 0c          	mov    eax,DWORD PTR [rsp+0xc]
    3e11:	03 44 24 14          	add    eax,DWORD PTR [rsp+0x14]
    3e15:	48 98                	cdqe   
    3e17:	48 8b 0c 24          	mov    rcx,QWORD PTR [rsp]
    3e1b:	c7 44 81 04 02 00 00 	mov    DWORD PTR [rcx+rax*4+0x4],0x2
    3e22:	00 
    3e23:	ff 44 24 0c          	inc    DWORD PTR [rsp+0xc]
    3e27:	e9 9b 01 00 00       	jmp    3fc7 <__sprintf_chk@plt+0x2c77>
    3e2c:	8b 44 24 0c          	mov    eax,DWORD PTR [rsp+0xc]
    3e30:	03 44 24 14          	add    eax,DWORD PTR [rsp+0x14]
    3e34:	48 98                	cdqe   
    3e36:	48 8b 0c 24          	mov    rcx,QWORD PTR [rsp]
    3e3a:	c7 44 81 04 01 00 00 	mov    DWORD PTR [rcx+rax*4+0x4],0x1
    3e41:	00 
    3e42:	eb df                	jmp    3e23 <__sprintf_chk@plt+0x2ad3>
    3e44:	8b 44 24 0c          	mov    eax,DWORD PTR [rsp+0xc]
    3e48:	03 44 24 14          	add    eax,DWORD PTR [rsp+0x14]
    3e4c:	48 98                	cdqe   
    3e4e:	48 8b 0c 24          	mov    rcx,QWORD PTR [rsp]
    3e52:	c7 44 81 04 04 00 00 	mov    DWORD PTR [rcx+rax*4+0x4],0x4
    3e59:	00 
    3e5a:	eb c7                	jmp    3e23 <__sprintf_chk@plt+0x2ad3>
    3e5c:	8b 44 24 0c          	mov    eax,DWORD PTR [rsp+0xc]
    3e60:	03 44 24 14          	add    eax,DWORD PTR [rsp+0x14]
    3e64:	48 98                	cdqe   
    3e66:	48 8b 0c 24          	mov    rcx,QWORD PTR [rsp]
    3e6a:	c7 44 81 04 03 00 00 	mov    DWORD PTR [rcx+rax*4+0x4],0x3
    3e71:	00 
    3e72:	eb af                	jmp    3e23 <__sprintf_chk@plt+0x2ad3>
    3e74:	8b 44 24 0c          	mov    eax,DWORD PTR [rsp+0xc]
    3e78:	03 44 24 14          	add    eax,DWORD PTR [rsp+0x14]
    3e7c:	48 98                	cdqe   
    3e7e:	48 8b 0c 24          	mov    rcx,QWORD PTR [rsp]
    3e82:	c7 44 81 04 0c 00 00 	mov    DWORD PTR [rcx+rax*4+0x4],0xc
    3e89:	00 
    3e8a:	eb 97                	jmp    3e23 <__sprintf_chk@plt+0x2ad3>
    3e8c:	8b 44 24 0c          	mov    eax,DWORD PTR [rsp+0xc]
    3e90:	03 44 24 14          	add    eax,DWORD PTR [rsp+0x14]
    3e94:	48 98                	cdqe   
    3e96:	48 8b 0c 24          	mov    rcx,QWORD PTR [rsp]
    3e9a:	c7 44 81 04 0b 00 00 	mov    DWORD PTR [rcx+rax*4+0x4],0xb
    3ea1:	00 
    3ea2:	e9 7c ff ff ff       	jmp    3e23 <__sprintf_chk@plt+0x2ad3>
    3ea7:	8b 44 24 0c          	mov    eax,DWORD PTR [rsp+0xc]
    3eab:	03 44 24 14          	add    eax,DWORD PTR [rsp+0x14]
    3eaf:	48 98                	cdqe   
    3eb1:	48 8b 0c 24          	mov    rcx,QWORD PTR [rsp]
    3eb5:	c7 44 81 04 08 00 00 	mov    DWORD PTR [rcx+rax*4+0x4],0x8
    3ebc:	00 
    3ebd:	e9 61 ff ff ff       	jmp    3e23 <__sprintf_chk@plt+0x2ad3>
    3ec2:	8b 44 24 0c          	mov    eax,DWORD PTR [rsp+0xc]
    3ec6:	03 44 24 14          	add    eax,DWORD PTR [rsp+0x14]
    3eca:	48 98                	cdqe   
    3ecc:	48 8b 0c 24          	mov    rcx,QWORD PTR [rsp]
    3ed0:	c7 44 81 04 07 00 00 	mov    DWORD PTR [rcx+rax*4+0x4],0x7
    3ed7:	00 
    3ed8:	e9 46 ff ff ff       	jmp    3e23 <__sprintf_chk@plt+0x2ad3>
    3edd:	8b 44 24 0c          	mov    eax,DWORD PTR [rsp+0xc]
    3ee1:	03 44 24 14          	add    eax,DWORD PTR [rsp+0x14]
    3ee5:	48 98                	cdqe   
    3ee7:	48 8b 0c 24          	mov    rcx,QWORD PTR [rsp]
    3eeb:	c7 44 81 04 0a 00 00 	mov    DWORD PTR [rcx+rax*4+0x4],0xa
    3ef2:	00 
    3ef3:	e9 2b ff ff ff       	jmp    3e23 <__sprintf_chk@plt+0x2ad3>
    3ef8:	8b 44 24 0c          	mov    eax,DWORD PTR [rsp+0xc]
    3efc:	03 44 24 14          	add    eax,DWORD PTR [rsp+0x14]
    3f00:	48 98                	cdqe   
    3f02:	48 8b 0c 24          	mov    rcx,QWORD PTR [rsp]
    3f06:	c7 44 81 04 09 00 00 	mov    DWORD PTR [rcx+rax*4+0x4],0x9
    3f0d:	00 
    3f0e:	e9 10 ff ff ff       	jmp    3e23 <__sprintf_chk@plt+0x2ad3>
    3f13:	8b 44 24 0c          	mov    eax,DWORD PTR [rsp+0xc]
    3f17:	03 44 24 14          	add    eax,DWORD PTR [rsp+0x14]
    3f1b:	48 8b 0c 24          	mov    rcx,QWORD PTR [rsp]
    3f1f:	89 81 d4 01 00 00    	mov    DWORD PTR [rcx+0x1d4],eax
    3f25:	48 63 d0             	movsxd rdx,eax
    3f28:	c7 44 91 04 06 00 00 	mov    DWORD PTR [rcx+rdx*4+0x4],0x6
    3f2f:	00 
    3f30:	89 81 18 11 00 00    	mov    DWORD PTR [rcx+0x1118],eax
    3f36:	e9 e8 fe ff ff       	jmp    3e23 <__sprintf_chk@plt+0x2ad3>
    3f3b:	8b 44 24 0c          	mov    eax,DWORD PTR [rsp+0xc]
    3f3f:	03 44 24 14          	add    eax,DWORD PTR [rsp+0x14]
    3f43:	48 8b 0c 24          	mov    rcx,QWORD PTR [rsp]
    3f47:	89 81 d0 01 00 00    	mov    DWORD PTR [rcx+0x1d0],eax
    3f4d:	48 63 d0             	movsxd rdx,eax
    3f50:	c7 44 91 04 05 00 00 	mov    DWORD PTR [rcx+rdx*4+0x4],0x5
    3f57:	00 
    3f58:	89 81 14 11 00 00    	mov    DWORD PTR [rcx+0x1114],eax
    3f5e:	e9 c0 fe ff ff       	jmp    3e23 <__sprintf_chk@plt+0x2ad3>
    3f63:	41 83 fd 01          	cmp    r13d,0x1
    3f67:	74 46                	je     3faf <__sprintf_chk@plt+0x2c5f>
    3f69:	41 83 fd 02          	cmp    r13d,0x2
    3f6d:	0f 84 de 00 00 00    	je     4051 <__sprintf_chk@plt+0x2d01>
    3f73:	41 83 fd 03          	cmp    r13d,0x3
    3f77:	0f 84 2f 02 00 00    	je     41ac <__sprintf_chk@plt+0x2e5c>
    3f7d:	41 83 fd 04          	cmp    r13d,0x4
    3f81:	75 44                	jne    3fc7 <__sprintf_chk@plt+0x2c77>
    3f83:	48 63 fb             	movsxd rdi,ebx
    3f86:	4c 01 e7             	add    rdi,r12
    3f89:	0f be 07             	movsx  eax,BYTE PTR [rdi]
    3f8c:	83 e8 30             	sub    eax,0x30
    3f8f:	83 f8 09             	cmp    eax,0x9
    3f92:	77 33                	ja     3fc7 <__sprintf_chk@plt+0x2c77>
    3f94:	ba 0a 00 00 00       	mov    edx,0xa
    3f99:	be 00 00 00 00       	mov    esi,0x0
    3f9e:	e8 ed d2 ff ff       	call   1290 <strtol@plt>
    3fa3:	48 8b 0c 24          	mov    rcx,QWORD PTR [rsp]
    3fa7:	89 81 dc 01 00 00    	mov    DWORD PTR [rcx+0x1dc],eax
    3fad:	eb 18                	jmp    3fc7 <__sprintf_chk@plt+0x2c77>
    3faf:	48 63 c3             	movsxd rax,ebx
    3fb2:	41 80 3c 04 77       	cmp    BYTE PTR [r12+rax*1],0x77
    3fb7:	0f 94 c0             	sete   al
    3fba:	0f b6 c0             	movzx  eax,al
    3fbd:	48 8b 0c 24          	mov    rcx,QWORD PTR [rsp]
    3fc1:	89 81 cc 01 00 00    	mov    DWORD PTR [rcx+0x1cc],eax
    3fc7:	48 63 c3             	movsxd rax,ebx
    3fca:	41 0f b6 04 04       	movzx  eax,BYTE PTR [r12+rax*1]
    3fcf:	84 c0                	test   al,al
    3fd1:	74 08                	je     3fdb <__sprintf_chk@plt+0x2c8b>
    3fd3:	3c 0a                	cmp    al,0xa
    3fd5:	0f 85 2b fe ff ff    	jne    3e06 <__sprintf_chk@plt+0x2ab6>
    3fdb:	48 63 c3             	movsxd rax,ebx
    3fde:	41 0f b6 04 04       	movzx  eax,BYTE PTR [r12+rax*1]
    3fe3:	3c 0a                	cmp    al,0xa
    3fe5:	0f 84 1d 02 00 00    	je     4208 <__sprintf_chk@plt+0x2eb8>
    3feb:	84 c0                	test   al,al
    3fed:	0f 84 15 02 00 00    	je     4208 <__sprintf_chk@plt+0x2eb8>
    3ff3:	3c 20                	cmp    al,0x20
    3ff5:	0f 84 7c fd ff ff    	je     3d77 <__sprintf_chk@plt+0x2a27>
    3ffb:	45 85 ed             	test   r13d,r13d
    3ffe:	0f 85 5f ff ff ff    	jne    3f63 <__sprintf_chk@plt+0x2c13>
    4004:	48 63 c3             	movsxd rax,ebx
    4007:	4d 8d 3c 04          	lea    r15,[r12+rax*1]
    400b:	41 0f b6 2f          	movzx  ebp,BYTE PTR [r15]
    400f:	40 0f be c5          	movsx  eax,bpl
    4013:	83 e8 30             	sub    eax,0x30
    4016:	83 f8 09             	cmp    eax,0x9
    4019:	0f 86 72 fd ff ff    	jbe    3d91 <__sprintf_chk@plt+0x2a41>
    401f:	40 80 fd 2f          	cmp    bpl,0x2f
    4023:	0f 84 c0 fd ff ff    	je     3de9 <__sprintf_chk@plt+0x2a99>
    4029:	40 0f be fd          	movsx  edi,bpl
    402d:	e8 9e d2 ff ff       	call   12d0 <isalpha@plt>
    4032:	85 c0                	test   eax,eax
    4034:	74 91                	je     3fc7 <__sprintf_chk@plt+0x2c77>
    4036:	83 ed 42             	sub    ebp,0x42
    4039:	40 80 fd 30          	cmp    bpl,0x30
    403d:	0f 87 e0 fd ff ff    	ja     3e23 <__sprintf_chk@plt+0x2ad3>
    4043:	40 0f b6 ed          	movzx  ebp,bpl
    4047:	49 63 04 ae          	movsxd rax,DWORD PTR [r14+rbp*4]
    404b:	4c 01 f0             	add    rax,r14
    404e:	3e ff e0             	notrack jmp rax
    4051:	48 63 c3             	movsxd rax,ebx
    4054:	41 0f b6 04 04       	movzx  eax,BYTE PTR [r12+rax*1]
    4059:	3c 51                	cmp    al,0x51
    405b:	74 4a                	je     40a7 <__sprintf_chk@plt+0x2d57>
    405d:	7e 24                	jle    4083 <__sprintf_chk@plt+0x2d33>
    405f:	3c 6b                	cmp    al,0x6b
    4061:	74 5c                	je     40bf <__sprintf_chk@plt+0x2d6f>
    4063:	3c 71                	cmp    al,0x71
    4065:	0f 85 82 02 00 00    	jne    42ed <__sprintf_chk@plt+0x2f9d>
    406b:	48 8b 04 24          	mov    rax,QWORD PTR [rsp]
    406f:	83 88 c4 01 00 00 10 	or     DWORD PTR [rax+0x1c4],0x10
    4076:	c7 44 24 18 01 00 00 	mov    DWORD PTR [rsp+0x18],0x1
    407d:	00 
    407e:	e9 44 ff ff ff       	jmp    3fc7 <__sprintf_chk@plt+0x2c77>
    4083:	3c 2d                	cmp    al,0x2d
    4085:	0f 84 7b fd ff ff    	je     3e06 <__sprintf_chk@plt+0x2ab6>
    408b:	3c 4b                	cmp    al,0x4b
    408d:	75 48                	jne    40d7 <__sprintf_chk@plt+0x2d87>
    408f:	48 8b 04 24          	mov    rax,QWORD PTR [rsp]
    4093:	83 88 c4 01 00 00 02 	or     DWORD PTR [rax+0x1c4],0x2
    409a:	c7 44 24 18 01 00 00 	mov    DWORD PTR [rsp+0x18],0x1
    40a1:	00 
    40a2:	e9 20 ff ff ff       	jmp    3fc7 <__sprintf_chk@plt+0x2c77>
    40a7:	48 8b 04 24          	mov    rax,QWORD PTR [rsp]
    40ab:	83 88 c4 01 00 00 04 	or     DWORD PTR [rax+0x1c4],0x4
    40b2:	c7 44 24 18 01 00 00 	mov    DWORD PTR [rsp+0x18],0x1
    40b9:	00 
    40ba:	e9 08 ff ff ff       	jmp    3fc7 <__sprintf_chk@plt+0x2c77>
    40bf:	48 8b 04 24          	mov    rax,QWORD PTR [rsp]
    40c3:	83 88 c4 01 00 00 08 	or     DWORD PTR [rax+0x1c4],0x8
    40ca:	c7 44 24 18 01 00 00 	mov    DWORD PTR [rsp+0x18],0x1
    40d1:	00 
    40d2:	e9 f0 fe ff ff       	jmp    3fc7 <__sprintf_chk@plt+0x2c77>
    40d7:	83 3d 1a 9f b3 00 00 	cmp    DWORD PTR [rip+0xb39f1a],0x0        # b3dff8 <stdin@@GLIBC_2.2.5+0xb26fc8>
    40de:	0f 84 e3 fe ff ff    	je     3fc7 <__sprintf_chk@plt+0x2c77>
    40e4:	0f be e8             	movsx  ebp,al
    40e7:	89 c2                	mov    edx,eax
    40e9:	83 e8 41             	sub    eax,0x41
    40ec:	3c 07                	cmp    al,0x7
    40ee:	76 45                	jbe    4135 <__sprintf_chk@plt+0x2de5>
    40f0:	83 ea 61             	sub    edx,0x61
    40f3:	80 fa 07             	cmp    dl,0x7
    40f6:	0f 87 cb fe ff ff    	ja     3fc7 <__sprintf_chk@plt+0x2c77>
    40fc:	44 8d 7d 9f          	lea    r15d,[rbp-0x61]
    4100:	48 8b 04 24          	mov    rax,QWORD PTR [rsp]
    4104:	8b b8 d4 01 00 00    	mov    edi,DWORD PTR [rax+0x1d4]
    410a:	e8 e1 e9 ff ff       	call   2af0 <__sprintf_chk@plt+0x17a0>
    410f:	83 ed 60             	sub    ebp,0x60
    4112:	39 c5                	cmp    ebp,eax
    4114:	7d 77                	jge    418d <__sprintf_chk@plt+0x2e3d>
    4116:	48 8b 04 24          	mov    rax,QWORD PTR [rsp]
    411a:	44 89 b8 24 11 00 00 	mov    DWORD PTR [rax+0x1124],r15d
    4121:	83 88 c4 01 00 00 10 	or     DWORD PTR [rax+0x1c4],0x10
    4128:	c7 44 24 18 01 00 00 	mov    DWORD PTR [rsp+0x18],0x1
    412f:	00 
    4130:	e9 92 fe ff ff       	jmp    3fc7 <__sprintf_chk@plt+0x2c77>
    4135:	44 8d 7d f7          	lea    r15d,[rbp-0x9]
    4139:	48 8b 04 24          	mov    rax,QWORD PTR [rsp]
    413d:	8b b8 d0 01 00 00    	mov    edi,DWORD PTR [rax+0x1d0]
    4143:	e8 a8 e9 ff ff       	call   2af0 <__sprintf_chk@plt+0x17a0>
    4148:	83 ed 40             	sub    ebp,0x40
    414b:	39 c5                	cmp    ebp,eax
    414d:	7d 1f                	jge    416e <__sprintf_chk@plt+0x2e1e>
    414f:	48 8b 04 24          	mov    rax,QWORD PTR [rsp]
    4153:	44 89 b8 1c 11 00 00 	mov    DWORD PTR [rax+0x111c],r15d
    415a:	83 88 c4 01 00 00 04 	or     DWORD PTR [rax+0x1c4],0x4
    4161:	c7 44 24 18 01 00 00 	mov    DWORD PTR [rsp+0x18],0x1
    4168:	00 
    4169:	e9 59 fe ff ff       	jmp    3fc7 <__sprintf_chk@plt+0x2c77>
    416e:	48 8b 04 24          	mov    rax,QWORD PTR [rsp]
    4172:	44 89 b8 20 11 00 00 	mov    DWORD PTR [rax+0x1120],r15d
    4179:	83 88 c4 01 00 00 02 	or     DWORD PTR [rax+0x1c4],0x2
    4180:	c7 44 24 18 01 00 00 	mov    DWORD PTR [rsp+0x18],0x1
    4187:	00 
    4188:	e9 3a fe ff ff       	jmp    3fc7 <__sprintf_chk@plt+0x2c77>
    418d:	48 8b 04 24          	mov    rax,QWORD PTR [rsp]
    4191:	44 89 b8 28 11 00 00 	mov    DWORD PTR [rax+0x1128],r15d
    4198:	83 88 c4 01 00 00 08 	or     DWORD PTR [rax+0x1c4],0x8
    419f:	c7 44 24 18 01 00 00 	mov    DWORD PTR [rsp+0x18],0x1
    41a6:	00 
    41a7:	e9 1b fe ff ff       	jmp    3fc7 <__sprintf_chk@plt+0x2c77>
    41ac:	48 63 c3             	movsxd rax,ebx
    41af:	41 0f b6 04 04       	movzx  eax,BYTE PTR [r12+rax*1]
    41b4:	3c 2d                	cmp    al,0x2d
    41b6:	74 25                	je     41dd <__sprintf_chk@plt+0x2e8d>
    41b8:	ff c3                	inc    ebx
    41ba:	48 63 d3             	movsxd rdx,ebx
    41bd:	41 0f be 14 14       	movsx  edx,BYTE PTR [r12+rdx*1]
    41c2:	83 ea 38             	sub    edx,0x38
    41c5:	f7 da                	neg    edx
    41c7:	0f be c0             	movsx  eax,al
    41ca:	8d 44 d0 9f          	lea    eax,[rax+rdx*8-0x61]
    41ce:	48 8b 0c 24          	mov    rcx,QWORD PTR [rsp]
    41d2:	89 81 c8 01 00 00    	mov    DWORD PTR [rcx+0x1c8],eax
    41d8:	e9 ea fd ff ff       	jmp    3fc7 <__sprintf_chk@plt+0x2c77>
    41dd:	48 8b 04 24          	mov    rax,QWORD PTR [rsp]
    41e1:	c7 80 c8 01 00 00 00 	mov    DWORD PTR [rax+0x1c8],0x0
    41e8:	00 00 00 
    41eb:	e9 d7 fd ff ff       	jmp    3fc7 <__sprintf_chk@plt+0x2c77>
    41f0:	8b 5c 24 0c          	mov    ebx,DWORD PTR [rsp+0xc]
    41f4:	44 8b 6c 24 1c       	mov    r13d,DWORD PTR [rsp+0x1c]
    41f9:	44 89 64 24 0c       	mov    DWORD PTR [rsp+0xc],r12d
    41fe:	4c 8b 64 24 20       	mov    r12,QWORD PTR [rsp+0x20]
    4203:	e9 bf fd ff ff       	jmp    3fc7 <__sprintf_chk@plt+0x2c77>
    4208:	4c 8b 3c 24          	mov    r15,QWORD PTR [rsp]
    420c:	83 7c 24 18 00       	cmp    DWORD PTR [rsp+0x18],0x0
    4211:	74 49                	je     425c <__sprintf_chk@plt+0x2f0c>
    4213:	4c 89 ff             	mov    rdi,r15
    4216:	e8 c9 e5 ff ff       	call   27e4 <__sprintf_chk@plt+0x1494>
    421b:	4c 89 ff             	mov    rdi,r15
    421e:	e8 20 c1 00 00       	call   10343 <__sprintf_chk@plt+0xeff3>
    4223:	4c 89 ff             	mov    rdi,r15
    4226:	e8 61 ac 00 00       	call   ee8c <__sprintf_chk@plt+0xdb3c>
    422b:	48 8b 4c 24 28       	mov    rcx,QWORD PTR [rsp+0x28]
    4230:	48 63 41 3c          	movsxd rax,DWORD PTR [rcx+0x3c]
    4234:	49 8b 97 e0 01 00 00 	mov    rdx,QWORD PTR [r15+0x1e0]
    423b:	49 89 94 c7 30 11 00 	mov    QWORD PTR [r15+rax*8+0x1130],rdx
    4242:	00 
    4243:	41 8b 87 cc 01 00 00 	mov    eax,DWORD PTR [r15+0x1cc]
    424a:	89 41 08             	mov    DWORD PTR [rcx+0x8],eax
    424d:	48 83 c4 38          	add    rsp,0x38
    4251:	5b                   	pop    rbx
    4252:	5d                   	pop    rbp
    4253:	41 5c                	pop    r12
    4255:	41 5d                	pop    r13
    4257:	41 5e                	pop    r14
    4259:	41 5f                	pop    r15
    425b:	c3                   	ret    
    425c:	83 3d 99 9d b3 00 00 	cmp    DWORD PTR [rip+0xb39d99],0x0        # b3dffc <stdin@@GLIBC_2.2.5+0xb26fcc>
    4263:	75 ae                	jne    4213 <__sprintf_chk@plt+0x2ec3>
    4265:	41 83 7f 04 08       	cmp    DWORD PTR [r15+0x4],0x8
    426a:	74 32                	je     429e <__sprintf_chk@plt+0x2f4e>
    426c:	41 83 7f 20 08       	cmp    DWORD PTR [r15+0x20],0x8
    4271:	74 43                	je     42b6 <__sprintf_chk@plt+0x2f66>
    4273:	41 83 bf e4 00 00 00 	cmp    DWORD PTR [r15+0xe4],0x7
    427a:	07 
    427b:	74 4a                	je     42c7 <__sprintf_chk@plt+0x2f77>
    427d:	41 83 bf 00 01 00 00 	cmp    DWORD PTR [r15+0x100],0x7
    4284:	07 
    4285:	75 8c                	jne    4213 <__sprintf_chk@plt+0x2ec3>
    4287:	41 83 bf f4 00 00 00 	cmp    DWORD PTR [r15+0xf4],0x5
    428e:	05 
    428f:	75 82                	jne    4213 <__sprintf_chk@plt+0x2ec3>
    4291:	41 83 8f c4 01 00 00 	or     DWORD PTR [r15+0x1c4],0x2
    4298:	02 
    4299:	e9 75 ff ff ff       	jmp    4213 <__sprintf_chk@plt+0x2ec3>
    429e:	41 83 7f 14 06       	cmp    DWORD PTR [r15+0x14],0x6
    42a3:	75 ce                	jne    4273 <__sprintf_chk@plt+0x2f23>
    42a5:	41 83 8f c4 01 00 00 	or     DWORD PTR [r15+0x1c4],0x10
    42ac:	10 
    42ad:	41 83 7f 20 08       	cmp    DWORD PTR [r15+0x20],0x8
    42b2:	75 bf                	jne    4273 <__sprintf_chk@plt+0x2f23>
    42b4:	eb 07                	jmp    42bd <__sprintf_chk@plt+0x2f6d>
    42b6:	41 83 7f 14 06       	cmp    DWORD PTR [r15+0x14],0x6
    42bb:	75 b6                	jne    4273 <__sprintf_chk@plt+0x2f23>
    42bd:	41 83 8f c4 01 00 00 	or     DWORD PTR [r15+0x1c4],0x8
    42c4:	08 
    42c5:	eb ac                	jmp    4273 <__sprintf_chk@plt+0x2f23>
    42c7:	41 83 bf f4 00 00 00 	cmp    DWORD PTR [r15+0xf4],0x5
    42ce:	05 
    42cf:	0f 85 3e ff ff ff    	jne    4213 <__sprintf_chk@plt+0x2ec3>
    42d5:	41 83 8f c4 01 00 00 	or     DWORD PTR [r15+0x1c4],0x4
    42dc:	04 
    42dd:	41 83 bf 00 01 00 00 	cmp    DWORD PTR [r15+0x100],0x7
    42e4:	07 
    42e5:	0f 85 28 ff ff ff    	jne    4213 <__sprintf_chk@plt+0x2ec3>
    42eb:	eb a4                	jmp    4291 <__sprintf_chk@plt+0x2f41>
    42ed:	83 3d 04 9d b3 00 00 	cmp    DWORD PTR [rip+0xb39d04],0x0        # b3dff8 <stdin@@GLIBC_2.2.5+0xb26fc8>
    42f4:	0f 84 cd fc ff ff    	je     3fc7 <__sprintf_chk@plt+0x2c77>
    42fa:	0f be e8             	movsx  ebp,al
    42fd:	89 c2                	mov    edx,eax
    42ff:	e9 ec fd ff ff       	jmp    40f0 <__sprintf_chk@plt+0x2da0>
    4304:	f3 0f 1e fa          	endbr64 
    4308:	55                   	push   rbp
    4309:	53                   	push   rbx
    430a:	48 83 ec 28          	sub    rsp,0x28
    430e:	48 89 f5             	mov    rbp,rsi
    4311:	89 d6                	mov    esi,edx
    4313:	64 48 8b 04 25 28 00 	mov    rax,QWORD PTR fs:0x28
    431a:	00 00 
    431c:	48 89 44 24 18       	mov    QWORD PTR [rsp+0x18],rax
    4321:	31 c0                	xor    eax,eax
    4323:	48 8d 5c 24 0e       	lea    rbx,[rsp+0xe]
    4328:	48 89 da             	mov    rdx,rbx
    432b:	e8 97 b3 00 00       	call   f6c7 <__sprintf_chk@plt+0xe377>
    4330:	48 c7 c1 ff ff ff ff 	mov    rcx,0xffffffffffffffff
    4337:	b8 00 00 00 00       	mov    eax,0x0
    433c:	48 89 df             	mov    rdi,rbx
    433f:	f2 ae                	repnz scas al,BYTE PTR es:[rdi]
    4341:	48 f7 d1             	not    rcx
    4344:	48 8d 59 ff          	lea    rbx,[rcx-0x1]
    4348:	48 8d 35 b1 e1 00 00 	lea    rsi,[rip+0xe1b1]        # 12500 <__sprintf_chk@plt+0x111b0>
    434f:	48 89 ef             	mov    rdi,rbp
    4352:	e8 e9 cf ff ff       	call   1340 <strstr@plt>
    4357:	48 85 c0             	test   rax,rax
    435a:	74 3e                	je     439a <__sprintf_chk@plt+0x304a>
    435c:	48 8d 78 03          	lea    rdi,[rax+0x3]
    4360:	80 78 03 20          	cmp    BYTE PTR [rax+0x3],0x20
    4364:	75 08                	jne    436e <__sprintf_chk@plt+0x301e>
    4366:	48 ff c7             	inc    rdi
    4369:	80 3f 20             	cmp    BYTE PTR [rdi],0x20
    436c:	74 f8                	je     4366 <__sprintf_chk@plt+0x3016>
    436e:	48 63 d3             	movsxd rdx,ebx
    4371:	48 8d 74 24 0e       	lea    rsi,[rsp+0xe]
    4376:	e8 95 ce ff ff       	call   1210 <strncmp@plt>
    437b:	85 c0                	test   eax,eax
    437d:	0f 94 c0             	sete   al
    4380:	0f b6 c0             	movzx  eax,al
    4383:	48 8b 5c 24 18       	mov    rbx,QWORD PTR [rsp+0x18]
    4388:	64 48 33 1c 25 28 00 	xor    rbx,QWORD PTR fs:0x28
    438f:	00 00 
    4391:	75 5c                	jne    43ef <__sprintf_chk@plt+0x309f>
    4393:	48 83 c4 28          	add    rsp,0x28
    4397:	5b                   	pop    rbx
    4398:	5d                   	pop    rbp
    4399:	c3                   	ret    
    439a:	48 8d 35 63 e1 00 00 	lea    rsi,[rip+0xe163]        # 12504 <__sprintf_chk@plt+0x111b4>
    43a1:	48 89 ef             	mov    rdi,rbp
    43a4:	e8 97 cf ff ff       	call   1340 <strstr@plt>
    43a9:	48 85 c0             	test   rax,rax
    43ac:	74 29                	je     43d7 <__sprintf_chk@plt+0x3087>
    43ae:	48 8d 78 03          	lea    rdi,[rax+0x3]
    43b2:	80 78 03 20          	cmp    BYTE PTR [rax+0x3],0x20
    43b6:	75 08                	jne    43c0 <__sprintf_chk@plt+0x3070>
    43b8:	48 ff c7             	inc    rdi
    43bb:	80 3f 20             	cmp    BYTE PTR [rdi],0x20
    43be:	74 f8                	je     43b8 <__sprintf_chk@plt+0x3068>
    43c0:	48 63 d3             	movsxd rdx,ebx
    43c3:	48 8d 74 24 0e       	lea    rsi,[rsp+0xe]
    43c8:	e8 43 ce ff ff       	call   1210 <strncmp@plt>
    43cd:	85 c0                	test   eax,eax
    43cf:	0f 95 c0             	setne  al
    43d2:	0f b6 c0             	movzx  eax,al
    43d5:	eb ac                	jmp    4383 <__sprintf_chk@plt+0x3033>
    43d7:	48 8d 3d 62 e1 00 00 	lea    rdi,[rip+0xe162]        # 12540 <__sprintf_chk@plt+0x111f0>
    43de:	b8 00 00 00 00       	mov    eax,0x0
    43e3:	e8 b8 c2 00 00       	call   106a0 <__sprintf_chk@plt+0xf350>
    43e8:	b8 00 00 00 00       	mov    eax,0x0
    43ed:	eb 94                	jmp    4383 <__sprintf_chk@plt+0x3033>
    43ef:	e8 4c ce ff ff       	call   1240 <__stack_chk_fail@plt>
    43f4:	f3 0f 1e fa          	endbr64 
    43f8:	41 55                	push   r13
    43fa:	41 54                	push   r12
    43fc:	55                   	push   rbp
    43fd:	53                   	push   rbx
    43fe:	48 81 ec 28 02 00 00 	sub    rsp,0x228
    4405:	48 89 fd             	mov    rbp,rdi
    4408:	48 89 f3             	mov    rbx,rsi
    440b:	48 89 d7             	mov    rdi,rdx
    440e:	64 48 8b 04 25 28 00 	mov    rax,QWORD PTR fs:0x28
    4415:	00 00 
    4417:	48 89 84 24 18 02 00 	mov    QWORD PTR [rsp+0x218],rax
    441e:	00 
    441f:	31 c0                	xor    eax,eax
    4421:	48 8d 35 15 ef 00 00 	lea    rsi,[rip+0xef15]        # 1333d <__sprintf_chk@plt+0x11fed>
    4428:	e8 c3 ce ff ff       	call   12f0 <fopen@plt>
    442d:	49 89 c4             	mov    r12,rax
    4430:	48 85 c0             	test   rax,rax
    4433:	0f 85 8a 00 00 00    	jne    44c3 <__sprintf_chk@plt+0x3173>
    4439:	48 8d 3d c8 e0 00 00 	lea    rdi,[rip+0xe0c8]        # 12508 <__sprintf_chk@plt+0x111b8>
    4440:	b8 00 00 00 00       	mov    eax,0x0
    4445:	e8 56 c2 00 00       	call   106a0 <__sprintf_chk@plt+0xf350>
    444a:	e9 4e 01 00 00       	jmp    459d <__sprintf_chk@plt+0x324d>
    444f:	48 89 c2             	mov    rdx,rax
    4452:	48 d1 ea             	shr    rdx,1
    4455:	83 e0 01             	and    eax,0x1
    4458:	48 09 c2             	or     rdx,rax
    445b:	c5 d8 57 e4          	vxorps xmm4,xmm4,xmm4
    445f:	c4 e1 da 2a c2       	vcvtsi2ss xmm0,xmm4,rdx
    4464:	c5 fa 58 c8          	vaddss xmm1,xmm0,xmm0
    4468:	e9 11 01 00 00       	jmp    457e <__sprintf_chk@plt+0x322e>
    446d:	48 89 f0             	mov    rax,rsi
    4470:	48 d1 e8             	shr    rax,1
    4473:	48 89 f2             	mov    rdx,rsi
    4476:	83 e2 01             	and    edx,0x1
    4479:	48 09 d0             	or     rax,rdx
    447c:	c5 d0 57 ed          	vxorps xmm5,xmm5,xmm5
    4480:	c4 e1 d2 2a c0       	vcvtsi2ss xmm0,xmm5,rax
    4485:	c5 fa 58 c0          	vaddss xmm0,xmm0,xmm0
    4489:	c5 f2 5e c0          	vdivss xmm0,xmm1,xmm0
    448d:	c5 fa 59 05 f3 e0 00 	vmulss xmm0,xmm0,DWORD PTR [rip+0xe0f3]        # 12588 <__sprintf_chk@plt+0x11238>
    4494:	00 
    4495:	c5 fa 5a c0          	vcvtss2sd xmm0,xmm0,xmm0
    4499:	48 8d 3d c8 e0 00 00 	lea    rdi,[rip+0xe0c8]        # 12568 <__sprintf_chk@plt+0x11218>
    44a0:	b8 01 00 00 00       	mov    eax,0x1
    44a5:	e8 f6 c1 00 00       	call   106a0 <__sprintf_chk@plt+0xf350>
    44aa:	48 89 df             	mov    rdi,rbx
    44ad:	e8 8f b0 00 00       	call   f541 <__sprintf_chk@plt+0xe1f1>
    44b2:	48 8d 3d 5d ef 00 00 	lea    rdi,[rip+0xef5d]        # 13416 <__sprintf_chk@plt+0x120c6>
    44b9:	b8 00 00 00 00       	mov    eax,0x0
    44be:	e8 dd c1 00 00       	call   106a0 <__sprintf_chk@plt+0xf350>
    44c3:	48 8d 7c 24 10       	lea    rdi,[rsp+0x10]
    44c8:	4c 89 e2             	mov    rdx,r12
    44cb:	be 00 02 00 00       	mov    esi,0x200
    44d0:	e8 9b cd ff ff       	call   1270 <fgets@plt>
    44d5:	48 85 c0             	test   rax,rax
    44d8:	0f 84 b7 00 00 00    	je     4595 <__sprintf_chk@plt+0x3245>
    44de:	e8 ce a8 00 00       	call   edb1 <__sprintf_chk@plt+0xda61>
    44e3:	4c 8d 6c 24 10       	lea    r13,[rsp+0x10]
    44e8:	4c 89 ea             	mov    rdx,r13
    44eb:	48 89 de             	mov    rsi,rbx
    44ee:	48 89 ef             	mov    rdi,rbp
    44f1:	e8 4a f7 ff ff       	call   3c40 <__sprintf_chk@plt+0x28f0>
    44f6:	4c 89 e2             	mov    rdx,r12
    44f9:	be 00 02 00 00       	mov    esi,0x200
    44fe:	4c 89 ef             	mov    rdi,r13
    4501:	e8 6a cd ff ff       	call   1270 <fgets@plt>
    4506:	48 8d 54 24 0c       	lea    rdx,[rsp+0xc]
    450b:	48 8d 35 e5 ee 00 00 	lea    rsi,[rip+0xeee5]        # 133f7 <__sprintf_chk@plt+0x120a7>
    4512:	4c 89 ef             	mov    rdi,r13
    4515:	b8 00 00 00 00       	mov    eax,0x0
    451a:	e8 91 cd ff ff       	call   12b0 <__isoc99_sscanf@plt>
    451f:	8b 74 24 0c          	mov    esi,DWORD PTR [rsp+0xc]
    4523:	48 8d 3d f2 df 00 00 	lea    rdi,[rip+0xdff2]        # 1251c <__sprintf_chk@plt+0x111cc>
    452a:	b8 00 00 00 00       	mov    eax,0x0
    452f:	e8 6c c1 00 00       	call   106a0 <__sprintf_chk@plt+0xf350>
    4534:	be 01 00 00 00       	mov    esi,0x1
    4539:	48 89 df             	mov    rdi,rbx
    453c:	e8 78 c2 00 00       	call   107b9 <__sprintf_chk@plt+0xf469>
    4541:	c7 45 34 ff e0 f5 05 	mov    DWORD PTR [rbp+0x34],0x5f5e0ff
    4548:	8b 44 24 0c          	mov    eax,DWORD PTR [rsp+0xc]
    454c:	89 45 38             	mov    DWORD PTR [rbp+0x38],eax
    454f:	48 89 de             	mov    rsi,rbx
    4552:	48 89 ef             	mov    rdi,rbp
    4555:	e8 f8 98 00 00       	call   de52 <__sprintf_chk@plt+0xcb02>
    455a:	48 8b b3 f0 0f 00 00 	mov    rsi,QWORD PTR [rbx+0xff0]
    4561:	48 8b 83 f8 0f 00 00 	mov    rax,QWORD PTR [rbx+0xff8]
    4568:	48 85 c0             	test   rax,rax
    456b:	0f 88 de fe ff ff    	js     444f <__sprintf_chk@plt+0x30ff>
    4571:	c5 e8 57 d2          	vxorps xmm2,xmm2,xmm2
    4575:	c4 e1 ea 2a c0       	vcvtsi2ss xmm0,xmm2,rax
    457a:	c5 f8 28 c8          	vmovaps xmm1,xmm0
    457e:	48 85 f6             	test   rsi,rsi
    4581:	0f 88 e6 fe ff ff    	js     446d <__sprintf_chk@plt+0x311d>
    4587:	c5 e0 57 db          	vxorps xmm3,xmm3,xmm3
    458b:	c4 e1 e2 2a c6       	vcvtsi2ss xmm0,xmm3,rsi
    4590:	e9 f4 fe ff ff       	jmp    4489 <__sprintf_chk@plt+0x3139>
    4595:	4c 89 e7             	mov    rdi,r12
    4598:	e8 93 cc ff ff       	call   1230 <fclose@plt>
    459d:	48 8b 84 24 18 02 00 	mov    rax,QWORD PTR [rsp+0x218]
    45a4:	00 
    45a5:	64 48 33 04 25 28 00 	xor    rax,QWORD PTR fs:0x28
    45ac:	00 00 
    45ae:	75 0e                	jne    45be <__sprintf_chk@plt+0x326e>
    45b0:	48 81 c4 28 02 00 00 	add    rsp,0x228
    45b7:	5b                   	pop    rbx
    45b8:	5d                   	pop    rbp
    45b9:	41 5c                	pop    r12
    45bb:	41 5d                	pop    r13
    45bd:	c3                   	ret    
    45be:	e8 7d cc ff ff       	call   1240 <__stack_chk_fail@plt>
    45c3:	f3 0f 1e fa          	endbr64 
    45c7:	41 57                	push   r15
    45c9:	41 56                	push   r14
    45cb:	41 55                	push   r13
    45cd:	41 54                	push   r12
    45cf:	55                   	push   rbp
    45d0:	53                   	push   rbx
    45d1:	48 83 ec 18          	sub    rsp,0x18
    45d5:	48 89 3c 24          	mov    QWORD PTR [rsp],rdi
    45d9:	49 89 f4             	mov    r12,rsi
    45dc:	4c 8d 77 04          	lea    r14,[rdi+0x4]
    45e0:	4c 8d 2d d5 de 00 00 	lea    r13,[rip+0xded5]        # 124bc <__sprintf_chk@plt+0x1116c>
    45e7:	4c 8d 3d e2 de 00 00 	lea    r15,[rip+0xdee2]        # 124d0 <__sprintf_chk@plt+0x11180>
    45ee:	e9 aa 00 00 00       	jmp    469d <__sprintf_chk@plt+0x334d>
    45f3:	48 63 ed             	movsxd rbp,ebp
    45f6:	45 0f be 04 2f       	movsx  r8d,BYTE PTR [r15+rbp*1]
    45fb:	48 8d 0d 00 ed 00 00 	lea    rcx,[rip+0xed00]        # 13302 <__sprintf_chk@plt+0x11fb2>
    4602:	48 c7 c2 ff ff ff ff 	mov    rdx,0xffffffffffffffff
    4609:	be 01 00 00 00       	mov    esi,0x1
    460e:	4c 89 e7             	mov    rdi,r12
    4611:	b8 00 00 00 00       	mov    eax,0x0
    4616:	e8 35 cd ff ff       	call   1350 <__sprintf_chk@plt>
    461b:	49 ff c4             	inc    r12
    461e:	ba 00 00 00 00       	mov    edx,0x0
    4623:	ff c3                	inc    ebx
    4625:	83 fb 08             	cmp    ebx,0x8
    4628:	74 4d                	je     4677 <__sprintf_chk@plt+0x3327>
    462a:	89 d8                	mov    eax,ebx
    462c:	41 03 45 00          	add    eax,DWORD PTR [r13+0x0]
    4630:	48 98                	cdqe   
    4632:	41 8b 2c 86          	mov    ebp,DWORD PTR [r14+rax*4]
    4636:	83 fd 0d             	cmp    ebp,0xd
    4639:	74 38                	je     4673 <__sprintf_chk@plt+0x3323>
    463b:	85 d2                	test   edx,edx
    463d:	74 b4                	je     45f3 <__sprintf_chk@plt+0x32a3>
    463f:	48 63 d2             	movsxd rdx,edx
    4642:	48 8d 05 77 de 00 00 	lea    rax,[rip+0xde77]        # 124c0 <__sprintf_chk@plt+0x11170>
    4649:	44 0f be 04 10       	movsx  r8d,BYTE PTR [rax+rdx*1]
    464e:	48 8d 0d ad ec 00 00 	lea    rcx,[rip+0xecad]        # 13302 <__sprintf_chk@plt+0x11fb2>
    4655:	48 c7 c2 ff ff ff ff 	mov    rdx,0xffffffffffffffff
    465c:	be 01 00 00 00       	mov    esi,0x1
    4661:	4c 89 e7             	mov    rdi,r12
    4664:	b8 00 00 00 00       	mov    eax,0x0
    4669:	e8 e2 cc ff ff       	call   1350 <__sprintf_chk@plt>
    466e:	49 ff c4             	inc    r12
    4671:	eb 80                	jmp    45f3 <__sprintf_chk@plt+0x32a3>
    4673:	ff c2                	inc    edx
    4675:	eb ac                	jmp    4623 <__sprintf_chk@plt+0x32d3>
    4677:	85 d2                	test   edx,edx
    4679:	75 2e                	jne    46a9 <__sprintf_chk@plt+0x3359>
    467b:	48 8d 0d 1e de 00 00 	lea    rcx,[rip+0xde1e]        # 124a0 <__sprintf_chk@plt+0x11150>
    4682:	49 39 cd             	cmp    r13,rcx
    4685:	74 56                	je     46dd <__sprintf_chk@plt+0x338d>
    4687:	66 41 c7 04 24 2f 00 	mov    WORD PTR [r12],0x2f
    468e:	49 ff c4             	inc    r12
    4691:	49 8d 45 fc          	lea    rax,[r13-0x4]
    4695:	49 39 cd             	cmp    r13,rcx
    4698:	74 43                	je     46dd <__sprintf_chk@plt+0x338d>
    469a:	49 89 c5             	mov    r13,rax
    469d:	ba 00 00 00 00       	mov    edx,0x0
    46a2:	bb 00 00 00 00       	mov    ebx,0x0
    46a7:	eb 81                	jmp    462a <__sprintf_chk@plt+0x32da>
    46a9:	48 63 d2             	movsxd rdx,edx
    46ac:	48 8d 05 0d de 00 00 	lea    rax,[rip+0xde0d]        # 124c0 <__sprintf_chk@plt+0x11170>
    46b3:	44 0f be 04 10       	movsx  r8d,BYTE PTR [rax+rdx*1]
    46b8:	48 8d 0d 43 ec 00 00 	lea    rcx,[rip+0xec43]        # 13302 <__sprintf_chk@plt+0x11fb2>
    46bf:	48 c7 c2 ff ff ff ff 	mov    rdx,0xffffffffffffffff
    46c6:	be 01 00 00 00       	mov    esi,0x1
    46cb:	4c 89 e7             	mov    rdi,r12
    46ce:	b8 00 00 00 00       	mov    eax,0x0
    46d3:	e8 78 cc ff ff       	call   1350 <__sprintf_chk@plt>
    46d8:	49 ff c4             	inc    r12
    46db:	eb 9e                	jmp    467b <__sprintf_chk@plt+0x332b>
    46dd:	4c 8b 3c 24          	mov    r15,QWORD PTR [rsp]
    46e1:	41 83 bf cc 01 00 00 	cmp    DWORD PTR [r15+0x1cc],0x1
    46e8:	01 
    46e9:	45 19 c0             	sbb    r8d,r8d
    46ec:	41 83 e0 eb          	and    r8d,0xffffffeb
    46f0:	41 83 c0 77          	add    r8d,0x77
    46f4:	48 8d 0d 38 de 00 00 	lea    rcx,[rip+0xde38]        # 12533 <__sprintf_chk@plt+0x111e3>
    46fb:	48 c7 c2 ff ff ff ff 	mov    rdx,0xffffffffffffffff
    4702:	be 01 00 00 00       	mov    esi,0x1
    4707:	4c 89 e7             	mov    rdi,r12
    470a:	b8 00 00 00 00       	mov    eax,0x0
    470f:	e8 3c cc ff ff       	call   1350 <__sprintf_chk@plt>
    4714:	49 8d 5c 24 03       	lea    rbx,[r12+0x3]
    4719:	41 8b 87 c4 01 00 00 	mov    eax,DWORD PTR [r15+0x1c4]
    4720:	89 44 24 0c          	mov    DWORD PTR [rsp+0xc],eax
    4724:	83 e0 02             	and    eax,0x2
    4727:	75 2f                	jne    4758 <__sprintf_chk@plt+0x3408>
    4729:	48 8b 34 24          	mov    rsi,QWORD PTR [rsp]
    472d:	f6 86 c4 01 00 00 04 	test   BYTE PTR [rsi+0x1c4],0x4
    4734:	75 36                	jne    476c <__sprintf_chk@plt+0x341c>
    4736:	48 8b 34 24          	mov    rsi,QWORD PTR [rsp]
    473a:	8b 96 c4 01 00 00    	mov    edx,DWORD PTR [rsi+0x1c4]
    4740:	f6 c2 08             	test   dl,0x8
    4743:	75 36                	jne    477b <__sprintf_chk@plt+0x342b>
    4745:	f6 c2 10             	test   dl,0x10
    4748:	75 42                	jne    478c <__sprintf_chk@plt+0x343c>
    474a:	85 c0                	test   eax,eax
    474c:	75 46                	jne    4794 <__sprintf_chk@plt+0x3444>
    474e:	66 c7 03 2d 00       	mov    WORD PTR [rbx],0x2d
    4753:	48 ff c3             	inc    rbx
    4756:	eb 3c                	jmp    4794 <__sprintf_chk@plt+0x3444>
    4758:	66 41 c7 44 24 03 4b 	mov    WORD PTR [r12+0x3],0x4b
    475f:	00 
    4760:	49 8d 5c 24 04       	lea    rbx,[r12+0x4]
    4765:	b8 01 00 00 00       	mov    eax,0x1
    476a:	eb bd                	jmp    4729 <__sprintf_chk@plt+0x33d9>
    476c:	66 c7 03 51 00       	mov    WORD PTR [rbx],0x51
    4771:	48 ff c3             	inc    rbx
    4774:	b8 01 00 00 00       	mov    eax,0x1
    4779:	eb bb                	jmp    4736 <__sprintf_chk@plt+0x33e6>
    477b:	66 c7 03 6b 00       	mov    WORD PTR [rbx],0x6b
    4780:	48 ff c3             	inc    rbx
    4783:	f6 86 c4 01 00 00 10 	test   BYTE PTR [rsi+0x1c4],0x10
    478a:	74 08                	je     4794 <__sprintf_chk@plt+0x3444>
    478c:	66 c7 03 71 00       	mov    WORD PTR [rbx],0x71
    4791:	48 ff c3             	inc    rbx
    4794:	4c 8b 3c 24          	mov    r15,QWORD PTR [rsp]
    4798:	41 8b bf c8 01 00 00 	mov    edi,DWORD PTR [r15+0x1c8]
    479f:	85 ff                	test   edi,edi
    47a1:	74 4a                	je     47ed <__sprintf_chk@plt+0x349d>
    47a3:	e8 39 e3 ff ff       	call   2ae1 <__sprintf_chk@plt+0x1791>
    47a8:	89 c5                	mov    ebp,eax
    47aa:	41 8b bf c8 01 00 00 	mov    edi,DWORD PTR [r15+0x1c8]
    47b1:	e8 3a e3 ff ff       	call   2af0 <__sprintf_chk@plt+0x17a0>
    47b6:	44 8d 4d 30          	lea    r9d,[rbp+0x30]
    47ba:	44 8d 40 60          	lea    r8d,[rax+0x60]
    47be:	48 8d 0d 73 dd 00 00 	lea    rcx,[rip+0xdd73]        # 12538 <__sprintf_chk@plt+0x111e8>
    47c5:	48 c7 c2 ff ff ff ff 	mov    rdx,0xffffffffffffffff
    47cc:	be 01 00 00 00       	mov    esi,0x1
    47d1:	48 89 df             	mov    rdi,rbx
    47d4:	b8 00 00 00 00       	mov    eax,0x0
    47d9:	e8 72 cb ff ff       	call   1350 <__sprintf_chk@plt>
    47de:	48 83 c4 18          	add    rsp,0x18
    47e2:	5b                   	pop    rbx
    47e3:	5d                   	pop    rbp
    47e4:	41 5c                	pop    r12
    47e6:	41 5d                	pop    r13
    47e8:	41 5e                	pop    r14
    47ea:	41 5f                	pop    r15
    47ec:	c3                   	ret    
    47ed:	66 c7 03 20 2d       	mov    WORD PTR [rbx],0x2d20
    47f2:	c6 43 02 00          	mov    BYTE PTR [rbx+0x2],0x0
    47f6:	eb e6                	jmp    47de <__sprintf_chk@plt+0x348e>
    47f8:	f3 0f 1e fa          	endbr64 
    47fc:	41 57                	push   r15
    47fe:	41 56                	push   r14
    4800:	41 55                	push   r13
    4802:	41 54                	push   r12
    4804:	55                   	push   rbp
    4805:	53                   	push   rbx
    4806:	48 83 ec 38          	sub    rsp,0x38
    480a:	49 89 fe             	mov    r14,rdi
    480d:	48 89 74 24 08       	mov    QWORD PTR [rsp+0x8],rsi
    4812:	64 48 8b 04 25 28 00 	mov    rax,QWORD PTR fs:0x28
    4819:	00 00 
    481b:	48 89 44 24 28       	mov    QWORD PTR [rsp+0x28],rax
    4820:	31 c0                	xor    eax,eax
    4822:	48 8d 6f 04          	lea    rbp,[rdi+0x4]
    4826:	83 bf cc 01 00 00 00 	cmp    DWORD PTR [rdi+0x1cc],0x0
    482d:	74 5a                	je     4889 <__sprintf_chk@plt+0x3539>
    482f:	48 8b 87 08 01 00 00 	mov    rax,QWORD PTR [rdi+0x108]
    4836:	49 89 c7             	mov    r15,rax
    4839:	49 f7 d7             	not    r15
    483c:	48 8b 97 28 01 00 00 	mov    rdx,QWORD PTR [rdi+0x128]
    4843:	48 89 d1             	mov    rcx,rdx
    4846:	48 23 0d 03 3c 01 00 	and    rcx,QWORD PTR [rip+0x13c03]        # 18450 <stdin@@GLIBC_2.2.5+0x1420>
    484d:	48 c1 e9 10          	shr    rcx,0x10
    4851:	48 c1 e8 08          	shr    rax,0x8
    4855:	c4 e2 f8 f2 c9       	andn   rcx,rax,rcx
    485a:	4c 89 f8             	mov    rax,r15
    485d:	48 21 c8             	and    rax,rcx
    4860:	48 89 44 24 20       	mov    QWORD PTR [rsp+0x20],rax
    4865:	48 89 d0             	mov    rax,rdx
    4868:	48 c1 e8 08          	shr    rax,0x8
    486c:	48 09 c8             	or     rax,rcx
    486f:	4c 21 f8             	and    rax,r15
    4872:	48 89 44 24 18       	mov    QWORD PTR [rsp+0x18],rax
    4877:	0f 84 12 02 00 00    	je     4a8f <__sprintf_chk@plt+0x373f>
    487d:	48 89 f3             	mov    rbx,rsi
    4880:	4c 8d 25 19 42 01 00 	lea    r12,[rip+0x14219]        # 18aa0 <stdin@@GLIBC_2.2.5+0x1a70>
    4887:	eb 7c                	jmp    4905 <__sprintf_chk@plt+0x35b5>
    4889:	48 8b 87 08 01 00 00 	mov    rax,QWORD PTR [rdi+0x108]
    4890:	49 89 c7             	mov    r15,rax
    4893:	49 f7 d7             	not    r15
    4896:	48 8b 97 30 01 00 00 	mov    rdx,QWORD PTR [rdi+0x130]
    489d:	48 89 d1             	mov    rcx,rdx
    48a0:	48 23 0d 81 3b 01 00 	and    rcx,QWORD PTR [rip+0x13b81]        # 18428 <stdin@@GLIBC_2.2.5+0x13f8>
    48a7:	48 c1 e1 10          	shl    rcx,0x10
    48ab:	48 c1 e0 08          	shl    rax,0x8
    48af:	c4 e2 f8 f2 c9       	andn   rcx,rax,rcx
    48b4:	4c 89 f8             	mov    rax,r15
    48b7:	48 21 c8             	and    rax,rcx
    48ba:	48 89 44 24 20       	mov    QWORD PTR [rsp+0x20],rax
    48bf:	48 89 d0             	mov    rax,rdx
    48c2:	48 c1 e0 08          	shl    rax,0x8
    48c6:	48 09 c8             	or     rax,rcx
    48c9:	4c 21 f8             	and    rax,r15
    48cc:	48 89 44 24 18       	mov    QWORD PTR [rsp+0x18],rax
    48d1:	0f 84 59 02 00 00    	je     4b30 <__sprintf_chk@plt+0x37e0>
    48d7:	48 8b 5c 24 08       	mov    rbx,QWORD PTR [rsp+0x8]
    48dc:	4c 8d 25 bd 41 01 00 	lea    r12,[rip+0x141bd]        # 18aa0 <stdin@@GLIBC_2.2.5+0x1a70>
    48e3:	e9 eb 00 00 00       	jmp    49d3 <__sprintf_chk@plt+0x3683>
    48e8:	c1 e2 06             	shl    edx,0x6
    48eb:	09 c2                	or     edx,eax
    48ed:	81 ca 00 00 68 00    	or     edx,0x680000
    48f3:	89 13                	mov    DWORD PTR [rbx],edx
    48f5:	48 83 c3 04          	add    rbx,0x4
    48f9:	48 83 7c 24 18 00    	cmp    QWORD PTR [rsp+0x18],0x0
    48ff:	0f 84 15 01 00 00    	je     4a1a <__sprintf_chk@plt+0x36ca>
    4905:	48 8d 7c 24 18       	lea    rdi,[rsp+0x18]
    490a:	e8 0b e1 ff ff       	call   2a1a <__sprintf_chk@plt+0x16ca>
    490f:	8d 50 08             	lea    edx,[rax+0x8]
    4912:	48 63 ca             	movsxd rcx,edx
    4915:	49 8b be 28 01 00 00 	mov    rdi,QWORD PTR [r14+0x128]
    491c:	8d 50 10             	lea    edx,[rax+0x10]
    491f:	8d 70 08             	lea    esi,[rax+0x8]
    4922:	49 85 3c cc          	test   QWORD PTR [r12+rcx*8],rdi
    4926:	0f 45 d6             	cmovne edx,esi
    4929:	89 c6                	mov    esi,eax
    492b:	c1 ee 03             	shr    esi,0x3
    492e:	75 b8                	jne    48e8 <__sprintf_chk@plt+0x3598>
    4930:	48 63 c8             	movsxd rcx,eax
    4933:	48 8d 4c 8d 00       	lea    rcx,[rbp+rcx*4+0x0]
    4938:	c1 e2 06             	shl    edx,0x6
    493b:	09 c2                	or     edx,eax
    493d:	be 13 00 00 00       	mov    esi,0x13
    4942:	c4 e2 49 f7 01       	shlx   eax,DWORD PTR [rcx],esi
    4947:	09 d0                	or     eax,edx
    4949:	80 cc 90             	or     ah,0x90
    494c:	89 03                	mov    DWORD PTR [rbx],eax
    494e:	c4 e2 49 f7 01       	shlx   eax,DWORD PTR [rcx],esi
    4953:	09 d0                	or     eax,edx
    4955:	80 cc 70             	or     ah,0x70
    4958:	89 43 04             	mov    DWORD PTR [rbx+0x4],eax
    495b:	c4 e2 49 f7 01       	shlx   eax,DWORD PTR [rcx],esi
    4960:	09 d0                	or     eax,edx
    4962:	80 cc b0             	or     ah,0xb0
    4965:	89 43 08             	mov    DWORD PTR [rbx+0x8],eax
    4968:	8b 01                	mov    eax,DWORD PTR [rcx]
    496a:	c1 e0 13             	shl    eax,0x13
    496d:	09 c2                	or     edx,eax
    496f:	80 ce 30             	or     dh,0x30
    4972:	89 53 0c             	mov    DWORD PTR [rbx+0xc],edx
    4975:	48 83 c3 10          	add    rbx,0x10
    4979:	e9 7b ff ff ff       	jmp    48f9 <__sprintf_chk@plt+0x35a9>
    497e:	48 63 c8             	movsxd rcx,eax
    4981:	48 8d 74 8d 00       	lea    rsi,[rbp+rcx*4+0x0]
    4986:	89 d1                	mov    ecx,edx
    4988:	c1 e1 06             	shl    ecx,0x6
    498b:	09 c1                	or     ecx,eax
    498d:	89 ca                	mov    edx,ecx
    498f:	b9 13 00 00 00       	mov    ecx,0x13
    4994:	c4 e2 71 f7 06       	shlx   eax,DWORD PTR [rsi],ecx
    4999:	09 d0                	or     eax,edx
    499b:	80 cc a0             	or     ah,0xa0
    499e:	89 03                	mov    DWORD PTR [rbx],eax
    49a0:	c4 e2 71 f7 06       	shlx   eax,DWORD PTR [rsi],ecx
    49a5:	09 d0                	or     eax,edx
    49a7:	80 cc 80             	or     ah,0x80
    49aa:	89 43 04             	mov    DWORD PTR [rbx+0x4],eax
    49ad:	c4 e2 71 f7 06       	shlx   eax,DWORD PTR [rsi],ecx
    49b2:	09 d0                	or     eax,edx
    49b4:	80 cc c0             	or     ah,0xc0
    49b7:	89 43 08             	mov    DWORD PTR [rbx+0x8],eax
    49ba:	8b 06                	mov    eax,DWORD PTR [rsi]
    49bc:	c1 e0 13             	shl    eax,0x13
    49bf:	09 c2                	or     edx,eax
    49c1:	80 ce 40             	or     dh,0x40
    49c4:	89 53 0c             	mov    DWORD PTR [rbx+0xc],edx
    49c7:	48 83 c3 10          	add    rbx,0x10
    49cb:	48 83 7c 24 18 00    	cmp    QWORD PTR [rsp+0x18],0x0
    49d1:	74 47                	je     4a1a <__sprintf_chk@plt+0x36ca>
    49d3:	48 8d 7c 24 18       	lea    rdi,[rsp+0x18]
    49d8:	e8 3d e0 ff ff       	call   2a1a <__sprintf_chk@plt+0x16ca>
    49dd:	8d 50 f8             	lea    edx,[rax-0x8]
    49e0:	48 63 d2             	movsxd rdx,edx
    49e3:	49 8b be 30 01 00 00 	mov    rdi,QWORD PTR [r14+0x130]
    49ea:	8d 48 f0             	lea    ecx,[rax-0x10]
    49ed:	8d 70 f8             	lea    esi,[rax-0x8]
    49f0:	49 85 3c d4          	test   QWORD PTR [r12+rdx*8],rdi
    49f4:	0f 45 ce             	cmovne ecx,esi
    49f7:	89 ca                	mov    edx,ecx
    49f9:	89 c1                	mov    ecx,eax
    49fb:	c1 f9 03             	sar    ecx,0x3
    49fe:	83 f9 07             	cmp    ecx,0x7
    4a01:	0f 84 77 ff ff ff    	je     497e <__sprintf_chk@plt+0x362e>
    4a07:	c1 e2 06             	shl    edx,0x6
    4a0a:	09 c2                	or     edx,eax
    4a0c:	81 ca 00 00 68 00    	or     edx,0x680000
    4a12:	89 13                	mov    DWORD PTR [rbx],edx
    4a14:	48 83 c3 04          	add    rbx,0x4
    4a18:	eb b1                	jmp    49cb <__sprintf_chk@plt+0x367b>
    4a1a:	41 83 be cc 01 00 00 	cmp    DWORD PTR [r14+0x1cc],0x0
    4a21:	00 
    4a22:	75 70                	jne    4a94 <__sprintf_chk@plt+0x3744>
    4a24:	49 8b 86 40 01 00 00 	mov    rax,QWORD PTR [r14+0x140]
    4a2b:	48 89 44 24 18       	mov    QWORD PTR [rsp+0x18],rax
    4a30:	48 85 c0             	test   rax,rax
    4a33:	75 70                	jne    4aa5 <__sprintf_chk@plt+0x3755>
    4a35:	49 8b 86 80 01 00 00 	mov    rax,QWORD PTR [r14+0x180]
    4a3c:	49 0b 86 70 01 00 00 	or     rax,QWORD PTR [r14+0x170]
    4a43:	48 89 44 24 18       	mov    QWORD PTR [rsp+0x18],rax
    4a48:	0f 85 d7 00 00 00    	jne    4b25 <__sprintf_chk@plt+0x37d5>
    4a4e:	49 8b 86 60 01 00 00 	mov    rax,QWORD PTR [r14+0x160]
    4a55:	49 0b 86 70 01 00 00 	or     rax,QWORD PTR [r14+0x170]
    4a5c:	48 89 44 24 18       	mov    QWORD PTR [rsp+0x18],rax
    4a61:	0f 85 51 01 00 00    	jne    4bb8 <__sprintf_chk@plt+0x3868>
    4a67:	41 f6 86 c4 01 00 00 	test   BYTE PTR [r14+0x1c4],0x8
    4a6e:	08 
    4a6f:	0f 85 b2 02 00 00    	jne    4d27 <__sprintf_chk@plt+0x39d7>
    4a75:	41 f6 86 c4 01 00 00 	test   BYTE PTR [r14+0x1c4],0x10
    4a7c:	10 
    4a7d:	0f 85 d7 02 00 00    	jne    4d5a <__sprintf_chk@plt+0x3a0a>
    4a83:	45 8b a6 d4 01 00 00 	mov    r12d,DWORD PTR [r14+0x1d4]
    4a8a:	e9 c0 01 00 00       	jmp    4c4f <__sprintf_chk@plt+0x38ff>
    4a8f:	48 8b 5c 24 08       	mov    rbx,QWORD PTR [rsp+0x8]
    4a94:	49 8b 86 38 01 00 00 	mov    rax,QWORD PTR [r14+0x138]
    4a9b:	48 89 44 24 18       	mov    QWORD PTR [rsp+0x18],rax
    4aa0:	48 85 c0             	test   rax,rax
    4aa3:	74 6b                	je     4b10 <__sprintf_chk@plt+0x37c0>
    4aa5:	48 8d 7c 24 18       	lea    rdi,[rsp+0x18]
    4aaa:	e8 6b df ff ff       	call   2a1a <__sprintf_chk@plt+0x16ca>
    4aaf:	48 63 d0             	movsxd rdx,eax
    4ab2:	48 8d 0d e7 6d 01 00 	lea    rcx,[rip+0x16de7]        # 1b8a0 <stdin@@GLIBC_2.2.5+0x4870>
    4ab9:	4c 89 fe             	mov    rsi,r15
    4abc:	48 23 34 d1          	and    rsi,QWORD PTR [rcx+rdx*8]
    4ac0:	48 89 74 24 20       	mov    QWORD PTR [rsp+0x20],rsi
    4ac5:	c1 e0 06             	shl    eax,0x6
    4ac8:	41 89 c4             	mov    r12d,eax
    4acb:	4c 8d 6c 24 20       	lea    r13,[rsp+0x20]
    4ad0:	48 85 f6             	test   rsi,rsi
    4ad3:	74 25                	je     4afa <__sprintf_chk@plt+0x37aa>
    4ad5:	4c 89 ef             	mov    rdi,r13
    4ad8:	e8 3d df ff ff       	call   2a1a <__sprintf_chk@plt+0x16ca>
    4add:	48 63 d0             	movsxd rdx,eax
    4ae0:	8b 54 95 00          	mov    edx,DWORD PTR [rbp+rdx*4+0x0]
    4ae4:	c1 e2 13             	shl    edx,0x13
    4ae7:	44 09 e0             	or     eax,r12d
    4aea:	09 d0                	or     eax,edx
    4aec:	89 03                	mov    DWORD PTR [rbx],eax
    4aee:	48 83 c3 04          	add    rbx,0x4
    4af2:	48 83 7c 24 20 00    	cmp    QWORD PTR [rsp+0x20],0x0
    4af8:	75 db                	jne    4ad5 <__sprintf_chk@plt+0x3785>
    4afa:	48 83 7c 24 18 00    	cmp    QWORD PTR [rsp+0x18],0x0
    4b00:	75 a3                	jne    4aa5 <__sprintf_chk@plt+0x3755>
    4b02:	41 83 be cc 01 00 00 	cmp    DWORD PTR [r14+0x1cc],0x0
    4b09:	00 
    4b0a:	0f 84 25 ff ff ff    	je     4a35 <__sprintf_chk@plt+0x36e5>
    4b10:	49 8b 86 78 01 00 00 	mov    rax,QWORD PTR [r14+0x178]
    4b17:	49 0b 86 68 01 00 00 	or     rax,QWORD PTR [r14+0x168]
    4b1e:	48 89 44 24 18       	mov    QWORD PTR [rsp+0x18],rax
    4b23:	74 7e                	je     4ba3 <__sprintf_chk@plt+0x3853>
    4b25:	48 8d 44 24 18       	lea    rax,[rsp+0x18]
    4b2a:	48 89 04 24          	mov    QWORD PTR [rsp],rax
    4b2e:	eb 12                	jmp    4b42 <__sprintf_chk@plt+0x37f2>
    4b30:	48 8b 5c 24 08       	mov    rbx,QWORD PTR [rsp+0x8]
    4b35:	e9 ea fe ff ff       	jmp    4a24 <__sprintf_chk@plt+0x36d4>
    4b3a:	48 83 7c 24 18 00    	cmp    QWORD PTR [rsp+0x18],0x0
    4b40:	74 53                	je     4b95 <__sprintf_chk@plt+0x3845>
    4b42:	48 8b 3c 24          	mov    rdi,QWORD PTR [rsp]
    4b46:	e8 cf de ff ff       	call   2a1a <__sprintf_chk@plt+0x16ca>
    4b4b:	41 89 c4             	mov    r12d,eax
    4b4e:	89 c6                	mov    esi,eax
    4b50:	4c 89 f7             	mov    rdi,r14
    4b53:	e8 1f de ff ff       	call   2977 <__sprintf_chk@plt+0x1627>
    4b58:	4c 21 f8             	and    rax,r15
    4b5b:	48 89 44 24 20       	mov    QWORD PTR [rsp+0x20],rax
    4b60:	41 c1 e4 06          	shl    r12d,0x6
    4b64:	4c 8d 6c 24 20       	lea    r13,[rsp+0x20]
    4b69:	48 85 c0             	test   rax,rax
    4b6c:	74 cc                	je     4b3a <__sprintf_chk@plt+0x37ea>
    4b6e:	4c 89 ef             	mov    rdi,r13
    4b71:	e8 a4 de ff ff       	call   2a1a <__sprintf_chk@plt+0x16ca>
    4b76:	48 63 d0             	movsxd rdx,eax
    4b79:	8b 54 95 00          	mov    edx,DWORD PTR [rbp+rdx*4+0x0]
    4b7d:	c1 e2 13             	shl    edx,0x13
    4b80:	44 09 e0             	or     eax,r12d
    4b83:	09 d0                	or     eax,edx
    4b85:	89 03                	mov    DWORD PTR [rbx],eax
    4b87:	48 83 c3 04          	add    rbx,0x4
    4b8b:	48 83 7c 24 20 00    	cmp    QWORD PTR [rsp+0x20],0x0
    4b91:	75 db                	jne    4b6e <__sprintf_chk@plt+0x381e>
    4b93:	eb a5                	jmp    4b3a <__sprintf_chk@plt+0x37ea>
    4b95:	41 83 be cc 01 00 00 	cmp    DWORD PTR [r14+0x1cc],0x0
    4b9c:	00 
    4b9d:	0f 84 ab fe ff ff    	je     4a4e <__sprintf_chk@plt+0x36fe>
    4ba3:	49 8b 86 58 01 00 00 	mov    rax,QWORD PTR [r14+0x158]
    4baa:	49 0b 86 68 01 00 00 	or     rax,QWORD PTR [r14+0x168]
    4bb1:	48 89 44 24 18       	mov    QWORD PTR [rsp+0x18],rax
    4bb6:	74 74                	je     4c2c <__sprintf_chk@plt+0x38dc>
    4bb8:	48 8d 44 24 18       	lea    rax,[rsp+0x18]
    4bbd:	48 89 04 24          	mov    QWORD PTR [rsp],rax
    4bc1:	eb 08                	jmp    4bcb <__sprintf_chk@plt+0x387b>
    4bc3:	48 83 7c 24 18 00    	cmp    QWORD PTR [rsp+0x18],0x0
    4bc9:	74 53                	je     4c1e <__sprintf_chk@plt+0x38ce>
    4bcb:	48 8b 3c 24          	mov    rdi,QWORD PTR [rsp]
    4bcf:	e8 46 de ff ff       	call   2a1a <__sprintf_chk@plt+0x16ca>
    4bd4:	41 89 c4             	mov    r12d,eax
    4bd7:	89 c6                	mov    esi,eax
    4bd9:	4c 89 f7             	mov    rdi,r14
    4bdc:	e8 c4 dd ff ff       	call   29a5 <__sprintf_chk@plt+0x1655>
    4be1:	4c 21 f8             	and    rax,r15
    4be4:	48 89 44 24 20       	mov    QWORD PTR [rsp+0x20],rax
    4be9:	41 c1 e4 06          	shl    r12d,0x6
    4bed:	4c 8d 6c 24 20       	lea    r13,[rsp+0x20]
    4bf2:	48 85 c0             	test   rax,rax
    4bf5:	74 cc                	je     4bc3 <__sprintf_chk@plt+0x3873>
    4bf7:	4c 89 ef             	mov    rdi,r13
    4bfa:	e8 1b de ff ff       	call   2a1a <__sprintf_chk@plt+0x16ca>
    4bff:	48 63 d0             	movsxd rdx,eax
    4c02:	8b 54 95 00          	mov    edx,DWORD PTR [rbp+rdx*4+0x0]
    4c06:	c1 e2 13             	shl    edx,0x13
    4c09:	44 09 e0             	or     eax,r12d
    4c0c:	09 d0                	or     eax,edx
    4c0e:	89 03                	mov    DWORD PTR [rbx],eax
    4c10:	48 83 c3 04          	add    rbx,0x4
    4c14:	48 83 7c 24 20 00    	cmp    QWORD PTR [rsp+0x20],0x0
    4c1a:	75 db                	jne    4bf7 <__sprintf_chk@plt+0x38a7>
    4c1c:	eb a5                	jmp    4bc3 <__sprintf_chk@plt+0x3873>
    4c1e:	41 83 be cc 01 00 00 	cmp    DWORD PTR [r14+0x1cc],0x0
    4c25:	00 
    4c26:	0f 84 3b fe ff ff    	je     4a67 <__sprintf_chk@plt+0x3717>
    4c2c:	41 f6 86 c4 01 00 00 	test   BYTE PTR [r14+0x1c4],0x2
    4c33:	02 
    4c34:	0f 85 87 00 00 00    	jne    4cc1 <__sprintf_chk@plt+0x3971>
    4c3a:	41 f6 86 c4 01 00 00 	test   BYTE PTR [r14+0x1c4],0x4
    4c41:	04 
    4c42:	0f 85 ac 00 00 00    	jne    4cf4 <__sprintf_chk@plt+0x39a4>
    4c48:	45 8b a6 d0 01 00 00 	mov    r12d,DWORD PTR [r14+0x1d0]
    4c4f:	49 63 c4             	movsxd rax,r12d
    4c52:	48 8d 15 47 6a 01 00 	lea    rdx,[rip+0x16a47]        # 1b6a0 <stdin@@GLIBC_2.2.5+0x4670>
    4c59:	4c 23 3c c2          	and    r15,QWORD PTR [rdx+rax*8]
    4c5d:	4c 89 7c 24 18       	mov    QWORD PTR [rsp+0x18],r15
    4c62:	74 2e                	je     4c92 <__sprintf_chk@plt+0x3942>
    4c64:	41 c1 e4 06          	shl    r12d,0x6
    4c68:	4c 8d 6c 24 18       	lea    r13,[rsp+0x18]
    4c6d:	4c 89 ef             	mov    rdi,r13
    4c70:	e8 a5 dd ff ff       	call   2a1a <__sprintf_chk@plt+0x16ca>
    4c75:	48 63 d0             	movsxd rdx,eax
    4c78:	8b 54 95 00          	mov    edx,DWORD PTR [rbp+rdx*4+0x0]
    4c7c:	c1 e2 13             	shl    edx,0x13
    4c7f:	44 09 e0             	or     eax,r12d
    4c82:	09 d0                	or     eax,edx
    4c84:	89 03                	mov    DWORD PTR [rbx],eax
    4c86:	48 83 c3 04          	add    rbx,0x4
    4c8a:	48 83 7c 24 18 00    	cmp    QWORD PTR [rsp+0x18],0x0
    4c90:	75 db                	jne    4c6d <__sprintf_chk@plt+0x391d>
    4c92:	48 2b 5c 24 08       	sub    rbx,QWORD PTR [rsp+0x8]
    4c97:	48 89 d8             	mov    rax,rbx
    4c9a:	48 c1 f8 02          	sar    rax,0x2
    4c9e:	48 8b 74 24 28       	mov    rsi,QWORD PTR [rsp+0x28]
    4ca3:	64 48 33 34 25 28 00 	xor    rsi,QWORD PTR fs:0x28
    4caa:	00 00 
    4cac:	0f 85 db 00 00 00    	jne    4d8d <__sprintf_chk@plt+0x3a3d>
    4cb2:	48 83 c4 38          	add    rsp,0x38
    4cb6:	5b                   	pop    rbx
    4cb7:	5d                   	pop    rbp
    4cb8:	41 5c                	pop    r12
    4cba:	41 5d                	pop    r13
    4cbc:	41 5e                	pop    r14
    4cbe:	41 5f                	pop    r15
    4cc0:	c3                   	ret    
    4cc1:	be 01 00 00 00       	mov    esi,0x1
    4cc6:	4c 89 f7             	mov    rdi,r14
    4cc9:	e8 32 29 00 00       	call   7600 <__sprintf_chk@plt+0x62b0>
    4cce:	85 c0                	test   eax,eax
    4cd0:	0f 85 64 ff ff ff    	jne    4c3a <__sprintf_chk@plt+0x38ea>
    4cd6:	b8 06 00 00 00       	mov    eax,0x6
    4cdb:	c4 c2 79 f7 86 d0 01 	shlx   eax,DWORD PTR [r14+0x1d0],eax
    4ce2:	00 00 
    4ce4:	0d 3e 00 69 00       	or     eax,0x69003e
    4ce9:	89 03                	mov    DWORD PTR [rbx],eax
    4ceb:	48 83 c3 04          	add    rbx,0x4
    4cef:	e9 46 ff ff ff       	jmp    4c3a <__sprintf_chk@plt+0x38ea>
    4cf4:	be 02 00 00 00       	mov    esi,0x2
    4cf9:	4c 89 f7             	mov    rdi,r14
    4cfc:	e8 ff 28 00 00       	call   7600 <__sprintf_chk@plt+0x62b0>
    4d01:	85 c0                	test   eax,eax
    4d03:	0f 85 3f ff ff ff    	jne    4c48 <__sprintf_chk@plt+0x38f8>
    4d09:	b8 06 00 00 00       	mov    eax,0x6
    4d0e:	c4 c2 79 f7 86 d0 01 	shlx   eax,DWORD PTR [r14+0x1d0],eax
    4d15:	00 00 
    4d17:	0d 3a 00 6a 00       	or     eax,0x6a003a
    4d1c:	89 03                	mov    DWORD PTR [rbx],eax
    4d1e:	48 83 c3 04          	add    rbx,0x4
    4d22:	e9 21 ff ff ff       	jmp    4c48 <__sprintf_chk@plt+0x38f8>
    4d27:	be 03 00 00 00       	mov    esi,0x3
    4d2c:	4c 89 f7             	mov    rdi,r14
    4d2f:	e8 cc 28 00 00       	call   7600 <__sprintf_chk@plt+0x62b0>
    4d34:	85 c0                	test   eax,eax
    4d36:	0f 85 39 fd ff ff    	jne    4a75 <__sprintf_chk@plt+0x3725>
    4d3c:	b8 06 00 00 00       	mov    eax,0x6
    4d41:	c4 c2 79 f7 86 d4 01 	shlx   eax,DWORD PTR [r14+0x1d4],eax
    4d48:	00 00 
    4d4a:	0d 06 00 6b 00       	or     eax,0x6b0006
    4d4f:	89 03                	mov    DWORD PTR [rbx],eax
    4d51:	48 83 c3 04          	add    rbx,0x4
    4d55:	e9 1b fd ff ff       	jmp    4a75 <__sprintf_chk@plt+0x3725>
    4d5a:	be 04 00 00 00       	mov    esi,0x4
    4d5f:	4c 89 f7             	mov    rdi,r14
    4d62:	e8 99 28 00 00       	call   7600 <__sprintf_chk@plt+0x62b0>
    4d67:	85 c0                	test   eax,eax
    4d69:	0f 85 14 fd ff ff    	jne    4a83 <__sprintf_chk@plt+0x3733>
    4d6f:	b8 06 00 00 00       	mov    eax,0x6
    4d74:	c4 c2 79 f7 86 d4 01 	shlx   eax,DWORD PTR [r14+0x1d4],eax
    4d7b:	00 00 
    4d7d:	0d 02 00 6c 00       	or     eax,0x6c0002
    4d82:	89 03                	mov    DWORD PTR [rbx],eax
    4d84:	48 83 c3 04          	add    rbx,0x4
    4d88:	e9 f6 fc ff ff       	jmp    4a83 <__sprintf_chk@plt+0x3733>
    4d8d:	e8 ae c4 ff ff       	call   1240 <__stack_chk_fail@plt>
    4d92:	f3 0f 1e fa          	endbr64 
    4d96:	41 57                	push   r15
    4d98:	41 56                	push   r14
    4d9a:	41 55                	push   r13
    4d9c:	41 54                	push   r12
    4d9e:	55                   	push   rbp
    4d9f:	53                   	push   rbx
    4da0:	48 83 ec 38          	sub    rsp,0x38
    4da4:	49 89 fe             	mov    r14,rdi
    4da7:	48 89 74 24 08       	mov    QWORD PTR [rsp+0x8],rsi
    4dac:	64 48 8b 04 25 28 00 	mov    rax,QWORD PTR fs:0x28
    4db3:	00 00 
    4db5:	48 89 44 24 28       	mov    QWORD PTR [rsp+0x28],rax
    4dba:	31 c0                	xor    eax,eax
    4dbc:	48 8d 6f 04          	lea    rbp,[rdi+0x4]
    4dc0:	83 bf cc 01 00 00 00 	cmp    DWORD PTR [rdi+0x1cc],0x0
    4dc7:	0f 84 e8 00 00 00    	je     4eb5 <__sprintf_chk@plt+0x3b65>
    4dcd:	48 89 f3             	mov    rbx,rsi
    4dd0:	4c 8b bf 18 01 00 00 	mov    r15,QWORD PTR [rdi+0x118]
    4dd7:	49 f7 d7             	not    r15
    4dda:	48 8b 97 28 01 00 00 	mov    rdx,QWORD PTR [rdi+0x128]
    4de1:	48 8b 8f 08 01 00 00 	mov    rcx,QWORD PTR [rdi+0x108]
    4de8:	48 89 cf             	mov    rdi,rcx
    4deb:	48 f7 d7             	not    rdi
    4dee:	48 89 d6             	mov    rsi,rdx
    4df1:	48 23 35 58 36 01 00 	and    rsi,QWORD PTR [rip+0x13658]        # 18450 <stdin@@GLIBC_2.2.5+0x1420>
    4df8:	48 c1 ee 10          	shr    rsi,0x10
    4dfc:	48 c1 e9 08          	shr    rcx,0x8
    4e00:	c4 e2 f0 f2 ce       	andn   rcx,rcx,rsi
    4e05:	48 89 f8             	mov    rax,rdi
    4e08:	48 21 c8             	and    rax,rcx
    4e0b:	48 89 44 24 20       	mov    QWORD PTR [rsp+0x20],rax
    4e10:	48 89 d0             	mov    rax,rdx
    4e13:	48 c1 e8 08          	shr    rax,0x8
    4e17:	48 09 c8             	or     rax,rcx
    4e1a:	48 21 f8             	and    rax,rdi
    4e1d:	48 89 44 24 18       	mov    QWORD PTR [rsp+0x18],rax
    4e22:	4c 8d 25 77 3c 01 00 	lea    r12,[rip+0x13c77]        # 18aa0 <stdin@@GLIBC_2.2.5+0x1a70>
    4e29:	0f 85 0c 01 00 00    	jne    4f3b <__sprintf_chk@plt+0x3beb>
    4e2f:	48 8b 5c 24 08       	mov    rbx,QWORD PTR [rsp+0x8]
    4e34:	48 8b 05 5d 36 01 00 	mov    rax,QWORD PTR [rip+0x1365d]        # 18498 <stdin@@GLIBC_2.2.5+0x1468>
    4e3b:	c4 c2 f8 f2 86 28 01 	andn   rax,rax,QWORD PTR [r14+0x128]
    4e42:	00 00 
    4e44:	48 c1 e8 07          	shr    rax,0x7
    4e48:	48 8b 15 11 36 01 00 	mov    rdx,QWORD PTR [rip+0x13611]        # 18460 <stdin@@GLIBC_2.2.5+0x1430>
    4e4f:	c4 c2 e8 f2 96 28 01 	andn   rdx,rdx,QWORD PTR [r14+0x128]
    4e56:	00 00 
    4e58:	48 c1 ea 09          	shr    rdx,0x9
    4e5c:	48 09 d0             	or     rax,rdx
    4e5f:	41 8b 96 c8 01 00 00 	mov    edx,DWORD PTR [r14+0x1c8]
    4e66:	85 d2                	test   edx,edx
    4e68:	0f 8e 5c 02 00 00    	jle    50ca <__sprintf_chk@plt+0x3d7a>
    4e6e:	48 63 d2             	movsxd rdx,edx
    4e71:	49 8b 8e 10 01 00 00 	mov    rcx,QWORD PTR [r14+0x110]
    4e78:	48 8d 35 21 3c 01 00 	lea    rsi,[rip+0x13c21]        # 18aa0 <stdin@@GLIBC_2.2.5+0x1a70>
    4e7f:	48 0b 0c d6          	or     rcx,QWORD PTR [rsi+rdx*8]
    4e83:	48 21 c8             	and    rax,rcx
    4e86:	48 89 44 24 18       	mov    QWORD PTR [rsp+0x18],rax
    4e8b:	4c 8d 25 0e 3c 01 00 	lea    r12,[rip+0x13c0e]        # 18aa0 <stdin@@GLIBC_2.2.5+0x1a70>
    4e92:	48 85 c0             	test   rax,rax
    4e95:	0f 85 0e 03 00 00    	jne    51a9 <__sprintf_chk@plt+0x3e59>
    4e9b:	49 8b 86 38 01 00 00 	mov    rax,QWORD PTR [r14+0x138]
    4ea2:	48 89 44 24 18       	mov    QWORD PTR [rsp+0x18],rax
    4ea7:	48 85 c0             	test   rax,rax
    4eaa:	0f 85 ae 05 00 00    	jne    545e <__sprintf_chk@plt+0x410e>
    4eb0:	e9 0e 06 00 00       	jmp    54c3 <__sprintf_chk@plt+0x4173>
    4eb5:	4c 8b bf 10 01 00 00 	mov    r15,QWORD PTR [rdi+0x110]
    4ebc:	49 f7 d7             	not    r15
    4ebf:	48 8b 97 30 01 00 00 	mov    rdx,QWORD PTR [rdi+0x130]
    4ec6:	48 8b 8f 08 01 00 00 	mov    rcx,QWORD PTR [rdi+0x108]
    4ecd:	48 89 cf             	mov    rdi,rcx
    4ed0:	48 f7 d7             	not    rdi
    4ed3:	48 89 d6             	mov    rsi,rdx
    4ed6:	48 23 35 4b 35 01 00 	and    rsi,QWORD PTR [rip+0x1354b]        # 18428 <stdin@@GLIBC_2.2.5+0x13f8>
    4edd:	48 c1 e6 10          	shl    rsi,0x10
    4ee1:	48 c1 e1 08          	shl    rcx,0x8
    4ee5:	c4 e2 f0 f2 ce       	andn   rcx,rcx,rsi
    4eea:	48 89 f8             	mov    rax,rdi
    4eed:	48 21 c8             	and    rax,rcx
    4ef0:	48 89 44 24 20       	mov    QWORD PTR [rsp+0x20],rax
    4ef5:	48 89 d0             	mov    rax,rdx
    4ef8:	48 c1 e0 08          	shl    rax,0x8
    4efc:	48 09 c8             	or     rax,rcx
    4eff:	48 21 f8             	and    rax,rdi
    4f02:	48 89 44 24 18       	mov    QWORD PTR [rsp+0x18],rax
    4f07:	0f 84 4e 03 00 00    	je     525b <__sprintf_chk@plt+0x3f0b>
    4f0d:	48 8b 5c 24 08       	mov    rbx,QWORD PTR [rsp+0x8]
    4f12:	4c 8d 25 87 3b 01 00 	lea    r12,[rip+0x13b87]        # 18aa0 <stdin@@GLIBC_2.2.5+0x1a70>
    4f19:	e9 eb 00 00 00       	jmp    5009 <__sprintf_chk@plt+0x3cb9>
    4f1e:	c1 e2 06             	shl    edx,0x6
    4f21:	09 c2                	or     edx,eax
    4f23:	81 ca 00 00 68 00    	or     edx,0x680000
    4f29:	89 13                	mov    DWORD PTR [rbx],edx
    4f2b:	48 83 c3 04          	add    rbx,0x4
    4f2f:	48 83 7c 24 18 00    	cmp    QWORD PTR [rsp+0x18],0x0
    4f35:	0f 84 15 01 00 00    	je     5050 <__sprintf_chk@plt+0x3d00>
    4f3b:	48 8d 7c 24 18       	lea    rdi,[rsp+0x18]
    4f40:	e8 d5 da ff ff       	call   2a1a <__sprintf_chk@plt+0x16ca>
    4f45:	8d 50 08             	lea    edx,[rax+0x8]
    4f48:	48 63 ca             	movsxd rcx,edx
    4f4b:	49 8b be 28 01 00 00 	mov    rdi,QWORD PTR [r14+0x128]
    4f52:	8d 50 10             	lea    edx,[rax+0x10]
    4f55:	8d 70 08             	lea    esi,[rax+0x8]
    4f58:	49 85 3c cc          	test   QWORD PTR [r12+rcx*8],rdi
    4f5c:	0f 45 d6             	cmovne edx,esi
    4f5f:	89 c6                	mov    esi,eax
    4f61:	c1 ee 03             	shr    esi,0x3
    4f64:	75 b8                	jne    4f1e <__sprintf_chk@plt+0x3bce>
    4f66:	48 63 c8             	movsxd rcx,eax
    4f69:	48 8d 4c 8d 00       	lea    rcx,[rbp+rcx*4+0x0]
    4f6e:	c1 e2 06             	shl    edx,0x6
    4f71:	09 c2                	or     edx,eax
    4f73:	be 13 00 00 00       	mov    esi,0x13
    4f78:	c4 e2 49 f7 01       	shlx   eax,DWORD PTR [rcx],esi
    4f7d:	09 d0                	or     eax,edx
    4f7f:	80 cc 90             	or     ah,0x90
    4f82:	89 03                	mov    DWORD PTR [rbx],eax
    4f84:	c4 e2 49 f7 01       	shlx   eax,DWORD PTR [rcx],esi
    4f89:	09 d0                	or     eax,edx
    4f8b:	80 cc 70             	or     ah,0x70
    4f8e:	89 43 04             	mov    DWORD PTR [rbx+0x4],eax
    4f91:	c4 e2 49 f7 01       	shlx   eax,DWORD PTR [rcx],esi
    4f96:	09 d0                	or     eax,edx
    4f98:	80 cc b0             	or     ah,0xb0
    4f9b:	89 43 08             	mov    DWORD PTR [rbx+0x8],eax
    4f9e:	8b 01                	mov    eax,DWORD PTR [rcx]
    4fa0:	c1 e0 13             	shl    eax,0x13
    4fa3:	09 c2                	or     edx,eax
    4fa5:	80 ce 30             	or     dh,0x30
    4fa8:	89 53 0c             	mov    DWORD PTR [rbx+0xc],edx
    4fab:	48 83 c3 10          	add    rbx,0x10
    4faf:	e9 7b ff ff ff       	jmp    4f2f <__sprintf_chk@plt+0x3bdf>
    4fb4:	48 63 c8             	movsxd rcx,eax
    4fb7:	48 8d 74 8d 00       	lea    rsi,[rbp+rcx*4+0x0]
    4fbc:	89 d1                	mov    ecx,edx
    4fbe:	c1 e1 06             	shl    ecx,0x6
    4fc1:	09 c1                	or     ecx,eax
    4fc3:	89 ca                	mov    edx,ecx
    4fc5:	b9 13 00 00 00       	mov    ecx,0x13
    4fca:	c4 e2 71 f7 06       	shlx   eax,DWORD PTR [rsi],ecx
    4fcf:	09 d0                	or     eax,edx
    4fd1:	80 cc a0             	or     ah,0xa0
    4fd4:	89 03                	mov    DWORD PTR [rbx],eax
    4fd6:	c4 e2 71 f7 06       	shlx   eax,DWORD PTR [rsi],ecx
    4fdb:	09 d0                	or     eax,edx
    4fdd:	80 cc 80             	or     ah,0x80
    4fe0:	89 43 04             	mov    DWORD PTR [rbx+0x4],eax
    4fe3:	c4 e2 71 f7 06       	shlx   eax,DWORD PTR [rsi],ecx
    4fe8:	09 d0                	or     eax,edx
    4fea:	80 cc c0             	or     ah,0xc0
    4fed:	89 43 08             	mov    DWORD PTR [rbx+0x8],eax
    4ff0:	8b 06                	mov    eax,DWORD PTR [rsi]
    4ff2:	c1 e0 13             	shl    eax,0x13
    4ff5:	09 c2                	or     edx,eax
    4ff7:	80 ce 40             	or     dh,0x40
    4ffa:	89 53 0c             	mov    DWORD PTR [rbx+0xc],edx
    4ffd:	48 83 c3 10          	add    rbx,0x10
    5001:	48 83 7c 24 18 00    	cmp    QWORD PTR [rsp+0x18],0x0
    5007:	74 47                	je     5050 <__sprintf_chk@plt+0x3d00>
    5009:	48 8d 7c 24 18       	lea    rdi,[rsp+0x18]
    500e:	e8 07 da ff ff       	call   2a1a <__sprintf_chk@plt+0x16ca>
    5013:	8d 50 f8             	lea    edx,[rax-0x8]
    5016:	48 63 d2             	movsxd rdx,edx
    5019:	49 8b be 30 01 00 00 	mov    rdi,QWORD PTR [r14+0x130]
    5020:	8d 48 f0             	lea    ecx,[rax-0x10]
    5023:	8d 70 f8             	lea    esi,[rax-0x8]
    5026:	49 85 3c d4          	test   QWORD PTR [r12+rdx*8],rdi
    502a:	0f 45 ce             	cmovne ecx,esi
    502d:	89 ca                	mov    edx,ecx
    502f:	89 c1                	mov    ecx,eax
    5031:	c1 f9 03             	sar    ecx,0x3
    5034:	83 f9 07             	cmp    ecx,0x7
    5037:	0f 84 77 ff ff ff    	je     4fb4 <__sprintf_chk@plt+0x3c64>
    503d:	c1 e2 06             	shl    edx,0x6
    5040:	09 c2                	or     edx,eax
    5042:	81 ca 00 00 68 00    	or     edx,0x680000
    5048:	89 13                	mov    DWORD PTR [rbx],edx
    504a:	48 83 c3 04          	add    rbx,0x4
    504e:	eb b1                	jmp    5001 <__sprintf_chk@plt+0x3cb1>
    5050:	41 83 be cc 01 00 00 	cmp    DWORD PTR [r14+0x1cc],0x0
    5057:	00 
    5058:	0f 85 d6 fd ff ff    	jne    4e34 <__sprintf_chk@plt+0x3ae4>
    505e:	48 8b 05 33 34 01 00 	mov    rax,QWORD PTR [rip+0x13433]        # 18498 <stdin@@GLIBC_2.2.5+0x1468>
    5065:	c4 c2 f8 f2 86 30 01 	andn   rax,rax,QWORD PTR [r14+0x130]
    506c:	00 00 
    506e:	48 c1 e0 09          	shl    rax,0x9
    5072:	48 8b 15 e7 33 01 00 	mov    rdx,QWORD PTR [rip+0x133e7]        # 18460 <stdin@@GLIBC_2.2.5+0x1430>
    5079:	c4 c2 e8 f2 96 30 01 	andn   rdx,rdx,QWORD PTR [r14+0x130]
    5080:	00 00 
    5082:	48 c1 e2 07          	shl    rdx,0x7
    5086:	48 09 d0             	or     rax,rdx
    5089:	41 8b 96 c8 01 00 00 	mov    edx,DWORD PTR [r14+0x1c8]
    5090:	85 d2                	test   edx,edx
    5092:	0f 8e cd 01 00 00    	jle    5265 <__sprintf_chk@plt+0x3f15>
    5098:	48 63 d2             	movsxd rdx,edx
    509b:	49 8b 8e 18 01 00 00 	mov    rcx,QWORD PTR [r14+0x118]
    50a2:	48 8d 35 f7 39 01 00 	lea    rsi,[rip+0x139f7]        # 18aa0 <stdin@@GLIBC_2.2.5+0x1a70>
    50a9:	48 0b 0c d6          	or     rcx,QWORD PTR [rsi+rdx*8]
    50ad:	48 21 c8             	and    rax,rcx
    50b0:	48 89 44 24 18       	mov    QWORD PTR [rsp+0x18],rax
    50b5:	4c 8d 25 e4 39 01 00 	lea    r12,[rip+0x139e4]        # 18aa0 <stdin@@GLIBC_2.2.5+0x1a70>
    50bc:	48 85 c0             	test   rax,rax
    50bf:	0f 85 94 02 00 00    	jne    5359 <__sprintf_chk@plt+0x4009>
    50c5:	e9 3b 03 00 00       	jmp    5405 <__sprintf_chk@plt+0x40b5>
    50ca:	49 23 86 10 01 00 00 	and    rax,QWORD PTR [r14+0x110]
    50d1:	e9 b0 fd ff ff       	jmp    4e86 <__sprintf_chk@plt+0x3b36>
    50d6:	48 63 f0             	movsxd rsi,eax
    50d9:	48 8d 7c b5 00       	lea    rdi,[rbp+rsi*4+0x0]
    50de:	c1 e1 06             	shl    ecx,0x6
    50e1:	41 b8 13 00 00 00    	mov    r8d,0x13
    50e7:	c4 e2 39 f7 37       	shlx   esi,DWORD PTR [rdi],r8d
    50ec:	09 c6                	or     esi,eax
    50ee:	09 ce                	or     esi,ecx
    50f0:	81 ce 00 90 00 00    	or     esi,0x9000
    50f6:	89 33                	mov    DWORD PTR [rbx],esi
    50f8:	c4 e2 39 f7 37       	shlx   esi,DWORD PTR [rdi],r8d
    50fd:	09 c6                	or     esi,eax
    50ff:	09 ce                	or     esi,ecx
    5101:	81 ce 00 70 00 00    	or     esi,0x7000
    5107:	89 73 04             	mov    DWORD PTR [rbx+0x4],esi
    510a:	c4 e2 39 f7 37       	shlx   esi,DWORD PTR [rdi],r8d
    510f:	09 c6                	or     esi,eax
    5111:	09 ce                	or     esi,ecx
    5113:	81 ce 00 b0 00 00    	or     esi,0xb000
    5119:	89 73 08             	mov    DWORD PTR [rbx+0x8],esi
    511c:	8b 37                	mov    esi,DWORD PTR [rdi]
    511e:	c1 e6 13             	shl    esi,0x13
    5121:	09 c6                	or     esi,eax
    5123:	09 f1                	or     ecx,esi
    5125:	80 cd 30             	or     ch,0x30
    5128:	89 4b 0c             	mov    DWORD PTR [rbx+0xc],ecx
    512b:	48 83 c3 10          	add    rbx,0x10
    512f:	e9 c8 00 00 00       	jmp    51fc <__sprintf_chk@plt+0x3eac>
    5134:	c1 e1 06             	shl    ecx,0x6
    5137:	09 c1                	or     ecx,eax
    5139:	81 c9 00 00 90 00    	or     ecx,0x900000
    513f:	89 0b                	mov    DWORD PTR [rbx],ecx
    5141:	48 83 c3 04          	add    rbx,0x4
    5145:	e9 b2 00 00 00       	jmp    51fc <__sprintf_chk@plt+0x3eac>
    514a:	48 63 c8             	movsxd rcx,eax
    514d:	48 8d 74 8d 00       	lea    rsi,[rbp+rcx*4+0x0]
    5152:	89 d1                	mov    ecx,edx
    5154:	c1 e1 06             	shl    ecx,0x6
    5157:	bf 13 00 00 00       	mov    edi,0x13
    515c:	c4 e2 41 f7 16       	shlx   edx,DWORD PTR [rsi],edi
    5161:	09 c2                	or     edx,eax
    5163:	09 ca                	or     edx,ecx
    5165:	80 ce 90             	or     dh,0x90
    5168:	89 13                	mov    DWORD PTR [rbx],edx
    516a:	c4 e2 41 f7 16       	shlx   edx,DWORD PTR [rsi],edi
    516f:	09 c2                	or     edx,eax
    5171:	09 ca                	or     edx,ecx
    5173:	80 ce 70             	or     dh,0x70
    5176:	89 53 04             	mov    DWORD PTR [rbx+0x4],edx
    5179:	c4 e2 41 f7 16       	shlx   edx,DWORD PTR [rsi],edi
    517e:	09 c2                	or     edx,eax
    5180:	09 ca                	or     edx,ecx
    5182:	80 ce b0             	or     dh,0xb0
    5185:	89 53 08             	mov    DWORD PTR [rbx+0x8],edx
    5188:	8b 16                	mov    edx,DWORD PTR [rsi]
    518a:	c1 e2 13             	shl    edx,0x13
    518d:	09 d0                	or     eax,edx
    518f:	09 c8                	or     eax,ecx
    5191:	89 c2                	mov    edx,eax
    5193:	80 ce 30             	or     dh,0x30
    5196:	89 53 0c             	mov    DWORD PTR [rbx+0xc],edx
    5199:	48 83 c3 10          	add    rbx,0x10
    519d:	48 83 7c 24 18 00    	cmp    QWORD PTR [rsp+0x18],0x0
    51a3:	0f 84 4e 02 00 00    	je     53f7 <__sprintf_chk@plt+0x40a7>
    51a9:	48 8d 7c 24 18       	lea    rdi,[rsp+0x18]
    51ae:	e8 67 d8 ff ff       	call   2a1a <__sprintf_chk@plt+0x16ca>
    51b3:	89 c2                	mov    edx,eax
    51b5:	83 e2 07             	and    edx,0x7
    51b8:	74 42                	je     51fc <__sprintf_chk@plt+0x3eac>
    51ba:	8d 48 07             	lea    ecx,[rax+0x7]
    51bd:	48 63 f1             	movsxd rsi,ecx
    51c0:	49 8b be 28 01 00 00 	mov    rdi,QWORD PTR [r14+0x128]
    51c7:	49 85 3c f4          	test   QWORD PTR [r12+rsi*8],rdi
    51cb:	74 2f                	je     51fc <__sprintf_chk@plt+0x3eac>
    51cd:	89 c6                	mov    esi,eax
    51cf:	c1 ee 03             	shr    esi,0x3
    51d2:	0f 84 fe fe ff ff    	je     50d6 <__sprintf_chk@plt+0x3d86>
    51d8:	41 39 86 c8 01 00 00 	cmp    DWORD PTR [r14+0x1c8],eax
    51df:	0f 84 4f ff ff ff    	je     5134 <__sprintf_chk@plt+0x3de4>
    51e5:	48 63 f0             	movsxd rsi,eax
    51e8:	8b 74 b5 00          	mov    esi,DWORD PTR [rbp+rsi*4+0x0]
    51ec:	c1 e6 13             	shl    esi,0x13
    51ef:	c1 e1 06             	shl    ecx,0x6
    51f2:	09 c1                	or     ecx,eax
    51f4:	09 f1                	or     ecx,esi
    51f6:	89 0b                	mov    DWORD PTR [rbx],ecx
    51f8:	48 83 c3 04          	add    rbx,0x4
    51fc:	83 fa 06             	cmp    edx,0x6
    51ff:	7f 9c                	jg     519d <__sprintf_chk@plt+0x3e4d>
    5201:	8d 50 09             	lea    edx,[rax+0x9]
    5204:	48 63 ca             	movsxd rcx,edx
    5207:	49 8b b6 28 01 00 00 	mov    rsi,QWORD PTR [r14+0x128]
    520e:	49 85 34 cc          	test   QWORD PTR [r12+rcx*8],rsi
    5212:	74 89                	je     519d <__sprintf_chk@plt+0x3e4d>
    5214:	89 c6                	mov    esi,eax
    5216:	c1 ee 03             	shr    esi,0x3
    5219:	0f 84 2b ff ff ff    	je     514a <__sprintf_chk@plt+0x3dfa>
    521f:	41 39 86 c8 01 00 00 	cmp    DWORD PTR [r14+0x1c8],eax
    5226:	74 1c                	je     5244 <__sprintf_chk@plt+0x3ef4>
    5228:	48 63 c8             	movsxd rcx,eax
    522b:	8b 4c 8d 00          	mov    ecx,DWORD PTR [rbp+rcx*4+0x0]
    522f:	c1 e1 13             	shl    ecx,0x13
    5232:	c1 e2 06             	shl    edx,0x6
    5235:	09 c2                	or     edx,eax
    5237:	09 ca                	or     edx,ecx
    5239:	89 13                	mov    DWORD PTR [rbx],edx
    523b:	48 83 c3 04          	add    rbx,0x4
    523f:	e9 59 ff ff ff       	jmp    519d <__sprintf_chk@plt+0x3e4d>
    5244:	89 d1                	mov    ecx,edx
    5246:	c1 e1 06             	shl    ecx,0x6
    5249:	09 c8                	or     eax,ecx
    524b:	0d 00 00 90 00       	or     eax,0x900000
    5250:	89 03                	mov    DWORD PTR [rbx],eax
    5252:	48 83 c3 04          	add    rbx,0x4
    5256:	e9 42 ff ff ff       	jmp    519d <__sprintf_chk@plt+0x3e4d>
    525b:	48 8b 5c 24 08       	mov    rbx,QWORD PTR [rsp+0x8]
    5260:	e9 f9 fd ff ff       	jmp    505e <__sprintf_chk@plt+0x3d0e>
    5265:	49 23 86 18 01 00 00 	and    rax,QWORD PTR [r14+0x118]
    526c:	e9 3f fe ff ff       	jmp    50b0 <__sprintf_chk@plt+0x3d60>
    5271:	48 63 f0             	movsxd rsi,eax
    5274:	48 8d 7c b5 00       	lea    rdi,[rbp+rsi*4+0x0]
    5279:	c1 e2 06             	shl    edx,0x6
    527c:	41 b9 13 00 00 00    	mov    r9d,0x13
    5282:	c4 e2 31 f7 37       	shlx   esi,DWORD PTR [rdi],r9d
    5287:	09 c6                	or     esi,eax
    5289:	09 d6                	or     esi,edx
    528b:	81 ce 00 a0 00 00    	or     esi,0xa000
    5291:	89 33                	mov    DWORD PTR [rbx],esi
    5293:	c4 e2 31 f7 37       	shlx   esi,DWORD PTR [rdi],r9d
    5298:	09 c6                	or     esi,eax
    529a:	09 d6                	or     esi,edx
    529c:	81 ce 00 80 00 00    	or     esi,0x8000
    52a2:	89 73 04             	mov    DWORD PTR [rbx+0x4],esi
    52a5:	c4 e2 31 f7 37       	shlx   esi,DWORD PTR [rdi],r9d
    52aa:	09 c6                	or     esi,eax
    52ac:	09 d6                	or     esi,edx
    52ae:	81 ce 00 c0 00 00    	or     esi,0xc000
    52b4:	89 73 08             	mov    DWORD PTR [rbx+0x8],esi
    52b7:	8b 37                	mov    esi,DWORD PTR [rdi]
    52b9:	c1 e6 13             	shl    esi,0x13
    52bc:	09 c6                	or     esi,eax
    52be:	09 f2                	or     edx,esi
    52c0:	80 ce 40             	or     dh,0x40
    52c3:	89 53 0c             	mov    DWORD PTR [rbx+0xc],edx
    52c6:	48 83 c3 10          	add    rbx,0x10
    52ca:	e9 e0 00 00 00       	jmp    53af <__sprintf_chk@plt+0x405f>
    52cf:	c1 e2 06             	shl    edx,0x6
    52d2:	09 c2                	or     edx,eax
    52d4:	81 ca 00 00 88 00    	or     edx,0x880000
    52da:	89 13                	mov    DWORD PTR [rbx],edx
    52dc:	48 83 c3 04          	add    rbx,0x4
    52e0:	e9 ca 00 00 00       	jmp    53af <__sprintf_chk@plt+0x405f>
    52e5:	48 63 c8             	movsxd rcx,eax
    52e8:	48 8d 74 8d 00       	lea    rsi,[rbp+rcx*4+0x0]
    52ed:	c1 e2 06             	shl    edx,0x6
    52f0:	bf 13 00 00 00       	mov    edi,0x13
    52f5:	c4 e2 41 f7 0e       	shlx   ecx,DWORD PTR [rsi],edi
    52fa:	09 c1                	or     ecx,eax
    52fc:	09 d1                	or     ecx,edx
    52fe:	80 cd a0             	or     ch,0xa0
    5301:	89 0b                	mov    DWORD PTR [rbx],ecx
    5303:	c4 e2 41 f7 0e       	shlx   ecx,DWORD PTR [rsi],edi
    5308:	09 c1                	or     ecx,eax
    530a:	09 d1                	or     ecx,edx
    530c:	80 cd 80             	or     ch,0x80
    530f:	89 4b 04             	mov    DWORD PTR [rbx+0x4],ecx
    5312:	c4 e2 41 f7 0e       	shlx   ecx,DWORD PTR [rsi],edi
    5317:	09 c1                	or     ecx,eax
    5319:	09 d1                	or     ecx,edx
    531b:	80 cd c0             	or     ch,0xc0
    531e:	89 4b 08             	mov    DWORD PTR [rbx+0x8],ecx
    5321:	8b 0e                	mov    ecx,DWORD PTR [rsi]
    5323:	c1 e1 13             	shl    ecx,0x13
    5326:	09 c8                	or     eax,ecx
    5328:	09 c2                	or     edx,eax
    532a:	80 ce 40             	or     dh,0x40
    532d:	89 53 0c             	mov    DWORD PTR [rbx+0xc],edx
    5330:	48 83 c3 10          	add    rbx,0x10
    5334:	eb 17                	jmp    534d <__sprintf_chk@plt+0x3ffd>
    5336:	48 63 c8             	movsxd rcx,eax
    5339:	8b 4c 8d 00          	mov    ecx,DWORD PTR [rbp+rcx*4+0x0]
    533d:	c1 e1 13             	shl    ecx,0x13
    5340:	c1 e2 06             	shl    edx,0x6
    5343:	09 d0                	or     eax,edx
    5345:	09 c8                	or     eax,ecx
    5347:	89 03                	mov    DWORD PTR [rbx],eax
    5349:	48 83 c3 04          	add    rbx,0x4
    534d:	48 83 7c 24 18 00    	cmp    QWORD PTR [rsp+0x18],0x0
    5353:	0f 84 9e 00 00 00    	je     53f7 <__sprintf_chk@plt+0x40a7>
    5359:	48 8d 7c 24 18       	lea    rdi,[rsp+0x18]
    535e:	e8 b7 d6 ff ff       	call   2a1a <__sprintf_chk@plt+0x16ca>
    5363:	89 c1                	mov    ecx,eax
    5365:	83 e1 07             	and    ecx,0x7
    5368:	74 45                	je     53af <__sprintf_chk@plt+0x405f>
    536a:	8d 50 f7             	lea    edx,[rax-0x9]
    536d:	48 63 f2             	movsxd rsi,edx
    5370:	49 8b be 30 01 00 00 	mov    rdi,QWORD PTR [r14+0x130]
    5377:	49 85 3c f4          	test   QWORD PTR [r12+rsi*8],rdi
    537b:	74 32                	je     53af <__sprintf_chk@plt+0x405f>
    537d:	89 c6                	mov    esi,eax
    537f:	c1 fe 03             	sar    esi,0x3
    5382:	83 fe 07             	cmp    esi,0x7
    5385:	0f 84 e6 fe ff ff    	je     5271 <__sprintf_chk@plt+0x3f21>
    538b:	41 39 86 c8 01 00 00 	cmp    DWORD PTR [r14+0x1c8],eax
    5392:	0f 84 37 ff ff ff    	je     52cf <__sprintf_chk@plt+0x3f7f>
    5398:	48 63 f0             	movsxd rsi,eax
    539b:	8b 74 b5 00          	mov    esi,DWORD PTR [rbp+rsi*4+0x0]
    539f:	c1 e6 13             	shl    esi,0x13
    53a2:	c1 e2 06             	shl    edx,0x6
    53a5:	09 c2                	or     edx,eax
    53a7:	09 f2                	or     edx,esi
    53a9:	89 13                	mov    DWORD PTR [rbx],edx
    53ab:	48 83 c3 04          	add    rbx,0x4
    53af:	83 f9 06             	cmp    ecx,0x6
    53b2:	7f 99                	jg     534d <__sprintf_chk@plt+0x3ffd>
    53b4:	8d 50 f9             	lea    edx,[rax-0x7]
    53b7:	48 63 ca             	movsxd rcx,edx
    53ba:	49 8b b6 30 01 00 00 	mov    rsi,QWORD PTR [r14+0x130]
    53c1:	49 85 34 cc          	test   QWORD PTR [r12+rcx*8],rsi
    53c5:	74 86                	je     534d <__sprintf_chk@plt+0x3ffd>
    53c7:	89 c1                	mov    ecx,eax
    53c9:	c1 f9 03             	sar    ecx,0x3
    53cc:	83 f9 07             	cmp    ecx,0x7
    53cf:	0f 84 10 ff ff ff    	je     52e5 <__sprintf_chk@plt+0x3f95>
    53d5:	41 39 86 c8 01 00 00 	cmp    DWORD PTR [r14+0x1c8],eax
    53dc:	0f 85 54 ff ff ff    	jne    5336 <__sprintf_chk@plt+0x3fe6>
    53e2:	c1 e2 06             	shl    edx,0x6
    53e5:	09 d0                	or     eax,edx
    53e7:	0d 00 00 88 00       	or     eax,0x880000
    53ec:	89 03                	mov    DWORD PTR [rbx],eax
    53ee:	48 83 c3 04          	add    rbx,0x4
    53f2:	e9 56 ff ff ff       	jmp    534d <__sprintf_chk@plt+0x3ffd>
    53f7:	41 83 be cc 01 00 00 	cmp    DWORD PTR [r14+0x1cc],0x0
    53fe:	00 
    53ff:	0f 85 96 fa ff ff    	jne    4e9b <__sprintf_chk@plt+0x3b4b>
    5405:	49 8b 86 40 01 00 00 	mov    rax,QWORD PTR [r14+0x140]
    540c:	48 89 44 24 18       	mov    QWORD PTR [rsp+0x18],rax
    5411:	48 85 c0             	test   rax,rax
    5414:	75 48                	jne    545e <__sprintf_chk@plt+0x410e>
    5416:	49 8b 86 80 01 00 00 	mov    rax,QWORD PTR [r14+0x180]
    541d:	49 0b 86 70 01 00 00 	or     rax,QWORD PTR [r14+0x170]
    5424:	48 89 44 24 18       	mov    QWORD PTR [rsp+0x18],rax
    5429:	0f 85 a9 00 00 00    	jne    54d8 <__sprintf_chk@plt+0x4188>
    542f:	49 8b 86 60 01 00 00 	mov    rax,QWORD PTR [r14+0x160]
    5436:	49 0b 86 70 01 00 00 	or     rax,QWORD PTR [r14+0x170]
    543d:	48 89 44 24 18       	mov    QWORD PTR [rsp+0x18],rax
    5442:	0f 84 83 02 00 00    	je     56cb <__sprintf_chk@plt+0x437b>
    5448:	48 8d 44 24 18       	lea    rax,[rsp+0x18]
    544d:	48 89 04 24          	mov    QWORD PTR [rsp],rax
    5451:	e9 19 01 00 00       	jmp    556f <__sprintf_chk@plt+0x421f>
    5456:	48 83 7c 24 18 00    	cmp    QWORD PTR [rsp+0x18],0x0
    545c:	74 57                	je     54b5 <__sprintf_chk@plt+0x4165>
    545e:	48 8d 7c 24 18       	lea    rdi,[rsp+0x18]
    5463:	e8 b2 d5 ff ff       	call   2a1a <__sprintf_chk@plt+0x16ca>
    5468:	48 63 d0             	movsxd rdx,eax
    546b:	48 8d 0d 2e 64 01 00 	lea    rcx,[rip+0x1642e]        # 1b8a0 <stdin@@GLIBC_2.2.5+0x4870>
    5472:	4c 89 fe             	mov    rsi,r15
    5475:	48 23 34 d1          	and    rsi,QWORD PTR [rcx+rdx*8]
    5479:	48 89 74 24 20       	mov    QWORD PTR [rsp+0x20],rsi
    547e:	c1 e0 06             	shl    eax,0x6
    5481:	41 89 c4             	mov    r12d,eax
    5484:	4c 8d 6c 24 20       	lea    r13,[rsp+0x20]
    5489:	48 85 f6             	test   rsi,rsi
    548c:	74 c8                	je     5456 <__sprintf_chk@plt+0x4106>
    548e:	4c 89 ef             	mov    rdi,r13
    5491:	e8 84 d5 ff ff       	call   2a1a <__sprintf_chk@plt+0x16ca>
    5496:	48 63 d0             	movsxd rdx,eax
    5499:	8b 54 95 00          	mov    edx,DWORD PTR [rbp+rdx*4+0x0]
    549d:	c1 e2 13             	shl    edx,0x13
    54a0:	44 09 e0             	or     eax,r12d
    54a3:	09 d0                	or     eax,edx
    54a5:	89 03                	mov    DWORD PTR [rbx],eax
    54a7:	48 83 c3 04          	add    rbx,0x4
    54ab:	48 83 7c 24 20 00    	cmp    QWORD PTR [rsp+0x20],0x0
    54b1:	75 db                	jne    548e <__sprintf_chk@plt+0x413e>
    54b3:	eb a1                	jmp    5456 <__sprintf_chk@plt+0x4106>
    54b5:	41 83 be cc 01 00 00 	cmp    DWORD PTR [r14+0x1cc],0x0
    54bc:	00 
    54bd:	0f 84 53 ff ff ff    	je     5416 <__sprintf_chk@plt+0x40c6>
    54c3:	49 8b 86 78 01 00 00 	mov    rax,QWORD PTR [r14+0x178]
    54ca:	49 0b 86 68 01 00 00 	or     rax,QWORD PTR [r14+0x168]
    54d1:	48 89 44 24 18       	mov    QWORD PTR [rsp+0x18],rax
    54d6:	74 74                	je     554c <__sprintf_chk@plt+0x41fc>
    54d8:	48 8d 44 24 18       	lea    rax,[rsp+0x18]
    54dd:	48 89 04 24          	mov    QWORD PTR [rsp],rax
    54e1:	eb 08                	jmp    54eb <__sprintf_chk@plt+0x419b>
    54e3:	48 83 7c 24 18 00    	cmp    QWORD PTR [rsp+0x18],0x0
    54e9:	74 53                	je     553e <__sprintf_chk@plt+0x41ee>
    54eb:	48 8b 3c 24          	mov    rdi,QWORD PTR [rsp]
    54ef:	e8 26 d5 ff ff       	call   2a1a <__sprintf_chk@plt+0x16ca>
    54f4:	41 89 c4             	mov    r12d,eax
    54f7:	89 c6                	mov    esi,eax
    54f9:	4c 89 f7             	mov    rdi,r14
    54fc:	e8 76 d4 ff ff       	call   2977 <__sprintf_chk@plt+0x1627>
    5501:	4c 21 f8             	and    rax,r15
    5504:	48 89 44 24 20       	mov    QWORD PTR [rsp+0x20],rax
    5509:	41 c1 e4 06          	shl    r12d,0x6
    550d:	4c 8d 6c 24 20       	lea    r13,[rsp+0x20]
    5512:	48 85 c0             	test   rax,rax
    5515:	74 cc                	je     54e3 <__sprintf_chk@plt+0x4193>
    5517:	4c 89 ef             	mov    rdi,r13
    551a:	e8 fb d4 ff ff       	call   2a1a <__sprintf_chk@plt+0x16ca>
    551f:	48 63 d0             	movsxd rdx,eax
    5522:	8b 54 95 00          	mov    edx,DWORD PTR [rbp+rdx*4+0x0]
    5526:	c1 e2 13             	shl    edx,0x13
    5529:	44 09 e0             	or     eax,r12d
    552c:	09 d0                	or     eax,edx
    552e:	89 03                	mov    DWORD PTR [rbx],eax
    5530:	48 83 c3 04          	add    rbx,0x4
    5534:	48 83 7c 24 20 00    	cmp    QWORD PTR [rsp+0x20],0x0
    553a:	75 db                	jne    5517 <__sprintf_chk@plt+0x41c7>
    553c:	eb a5                	jmp    54e3 <__sprintf_chk@plt+0x4193>
    553e:	41 83 be cc 01 00 00 	cmp    DWORD PTR [r14+0x1cc],0x0
    5545:	00 
    5546:	0f 84 e3 fe ff ff    	je     542f <__sprintf_chk@plt+0x40df>
    554c:	49 8b 86 58 01 00 00 	mov    rax,QWORD PTR [r14+0x158]
    5553:	49 0b 86 68 01 00 00 	or     rax,QWORD PTR [r14+0x168]
    555a:	48 89 44 24 18       	mov    QWORD PTR [rsp+0x18],rax
    555f:	0f 85 e3 fe ff ff    	jne    5448 <__sprintf_chk@plt+0x40f8>
    5565:	eb 69                	jmp    55d0 <__sprintf_chk@plt+0x4280>
    5567:	48 83 7c 24 18 00    	cmp    QWORD PTR [rsp+0x18],0x0
    556d:	74 53                	je     55c2 <__sprintf_chk@plt+0x4272>
    556f:	48 8b 3c 24          	mov    rdi,QWORD PTR [rsp]
    5573:	e8 a2 d4 ff ff       	call   2a1a <__sprintf_chk@plt+0x16ca>
    5578:	41 89 c4             	mov    r12d,eax
    557b:	89 c6                	mov    esi,eax
    557d:	4c 89 f7             	mov    rdi,r14
    5580:	e8 20 d4 ff ff       	call   29a5 <__sprintf_chk@plt+0x1655>
    5585:	4c 21 f8             	and    rax,r15
    5588:	48 89 44 24 20       	mov    QWORD PTR [rsp+0x20],rax
    558d:	41 c1 e4 06          	shl    r12d,0x6
    5591:	4c 8d 6c 24 20       	lea    r13,[rsp+0x20]
    5596:	48 85 c0             	test   rax,rax
    5599:	74 cc                	je     5567 <__sprintf_chk@plt+0x4217>
    559b:	4c 89 ef             	mov    rdi,r13
    559e:	e8 77 d4 ff ff       	call   2a1a <__sprintf_chk@plt+0x16ca>
    55a3:	48 63 d0             	movsxd rdx,eax
    55a6:	8b 54 95 00          	mov    edx,DWORD PTR [rbp+rdx*4+0x0]
    55aa:	c1 e2 13             	shl    edx,0x13
    55ad:	44 09 e0             	or     eax,r12d
    55b0:	09 d0                	or     eax,edx
    55b2:	89 03                	mov    DWORD PTR [rbx],eax
    55b4:	48 83 c3 04          	add    rbx,0x4
    55b8:	48 83 7c 24 20 00    	cmp    QWORD PTR [rsp+0x20],0x0
    55be:	75 db                	jne    559b <__sprintf_chk@plt+0x424b>
    55c0:	eb a5                	jmp    5567 <__sprintf_chk@plt+0x4217>
    55c2:	41 83 be cc 01 00 00 	cmp    DWORD PTR [r14+0x1cc],0x0
    55c9:	00 
    55ca:	0f 84 fb 00 00 00    	je     56cb <__sprintf_chk@plt+0x437b>
    55d0:	41 f6 86 c4 01 00 00 	test   BYTE PTR [r14+0x1c4],0x2
    55d7:	02 
    55d8:	0f 85 87 00 00 00    	jne    5665 <__sprintf_chk@plt+0x4315>
    55de:	41 f6 86 c4 01 00 00 	test   BYTE PTR [r14+0x1c4],0x4
    55e5:	04 
    55e6:	0f 85 ac 00 00 00    	jne    5698 <__sprintf_chk@plt+0x4348>
    55ec:	45 8b a6 d0 01 00 00 	mov    r12d,DWORD PTR [r14+0x1d0]
    55f3:	49 63 c4             	movsxd rax,r12d
    55f6:	48 8d 15 a3 60 01 00 	lea    rdx,[rip+0x160a3]        # 1b6a0 <stdin@@GLIBC_2.2.5+0x4670>
    55fd:	4c 23 3c c2          	and    r15,QWORD PTR [rdx+rax*8]
    5601:	4c 89 7c 24 18       	mov    QWORD PTR [rsp+0x18],r15
    5606:	74 2e                	je     5636 <__sprintf_chk@plt+0x42e6>
    5608:	41 c1 e4 06          	shl    r12d,0x6
    560c:	4c 8d 6c 24 18       	lea    r13,[rsp+0x18]
    5611:	4c 89 ef             	mov    rdi,r13
    5614:	e8 01 d4 ff ff       	call   2a1a <__sprintf_chk@plt+0x16ca>
    5619:	48 63 d0             	movsxd rdx,eax
    561c:	8b 54 95 00          	mov    edx,DWORD PTR [rbp+rdx*4+0x0]
    5620:	c1 e2 13             	shl    edx,0x13
    5623:	44 09 e0             	or     eax,r12d
    5626:	09 d0                	or     eax,edx
    5628:	89 03                	mov    DWORD PTR [rbx],eax
    562a:	48 83 c3 04          	add    rbx,0x4
    562e:	48 83 7c 24 18 00    	cmp    QWORD PTR [rsp+0x18],0x0
    5634:	75 db                	jne    5611 <__sprintf_chk@plt+0x42c1>
    5636:	48 2b 5c 24 08       	sub    rbx,QWORD PTR [rsp+0x8]
    563b:	48 89 d8             	mov    rax,rbx
    563e:	48 c1 f8 02          	sar    rax,0x2
    5642:	48 8b 74 24 28       	mov    rsi,QWORD PTR [rsp+0x28]
    5647:	64 48 33 34 25 28 00 	xor    rsi,QWORD PTR fs:0x28
    564e:	00 00 
    5650:	0f 85 ed 00 00 00    	jne    5743 <__sprintf_chk@plt+0x43f3>
    5656:	48 83 c4 38          	add    rsp,0x38
    565a:	5b                   	pop    rbx
    565b:	5d                   	pop    rbp
    565c:	41 5c                	pop    r12
    565e:	41 5d                	pop    r13
    5660:	41 5e                	pop    r14
    5662:	41 5f                	pop    r15
    5664:	c3                   	ret    
    5665:	be 01 00 00 00       	mov    esi,0x1
    566a:	4c 89 f7             	mov    rdi,r14
    566d:	e8 8e 1f 00 00       	call   7600 <__sprintf_chk@plt+0x62b0>
    5672:	85 c0                	test   eax,eax
    5674:	0f 85 64 ff ff ff    	jne    55de <__sprintf_chk@plt+0x428e>
    567a:	b8 06 00 00 00       	mov    eax,0x6
    567f:	c4 c2 79 f7 86 d0 01 	shlx   eax,DWORD PTR [r14+0x1d0],eax
    5686:	00 00 
    5688:	0d 3e 00 69 00       	or     eax,0x69003e
    568d:	89 03                	mov    DWORD PTR [rbx],eax
    568f:	48 83 c3 04          	add    rbx,0x4
    5693:	e9 46 ff ff ff       	jmp    55de <__sprintf_chk@plt+0x428e>
    5698:	be 02 00 00 00       	mov    esi,0x2
    569d:	4c 89 f7             	mov    rdi,r14
    56a0:	e8 5b 1f 00 00       	call   7600 <__sprintf_chk@plt+0x62b0>
    56a5:	85 c0                	test   eax,eax
    56a7:	0f 85 3f ff ff ff    	jne    55ec <__sprintf_chk@plt+0x429c>
    56ad:	b8 06 00 00 00       	mov    eax,0x6
    56b2:	c4 c2 79 f7 86 d0 01 	shlx   eax,DWORD PTR [r14+0x1d0],eax
    56b9:	00 00 
    56bb:	0d 3a 00 6a 00       	or     eax,0x6a003a
    56c0:	89 03                	mov    DWORD PTR [rbx],eax
    56c2:	48 83 c3 04          	add    rbx,0x4
    56c6:	e9 21 ff ff ff       	jmp    55ec <__sprintf_chk@plt+0x429c>
    56cb:	41 f6 86 c4 01 00 00 	test   BYTE PTR [r14+0x1c4],0x8
    56d2:	08 
    56d3:	75 16                	jne    56eb <__sprintf_chk@plt+0x439b>
    56d5:	41 f6 86 c4 01 00 00 	test   BYTE PTR [r14+0x1c4],0x10
    56dc:	10 
    56dd:	75 38                	jne    5717 <__sprintf_chk@plt+0x43c7>
    56df:	45 8b a6 d4 01 00 00 	mov    r12d,DWORD PTR [r14+0x1d4]
    56e6:	e9 08 ff ff ff       	jmp    55f3 <__sprintf_chk@plt+0x42a3>
    56eb:	be 03 00 00 00       	mov    esi,0x3
    56f0:	4c 89 f7             	mov    rdi,r14
    56f3:	e8 08 1f 00 00       	call   7600 <__sprintf_chk@plt+0x62b0>
    56f8:	85 c0                	test   eax,eax
    56fa:	75 d9                	jne    56d5 <__sprintf_chk@plt+0x4385>
    56fc:	b8 06 00 00 00       	mov    eax,0x6
    5701:	c4 c2 79 f7 86 d4 01 	shlx   eax,DWORD PTR [r14+0x1d4],eax
    5708:	00 00 
    570a:	0d 06 00 6b 00       	or     eax,0x6b0006
    570f:	89 03                	mov    DWORD PTR [rbx],eax
    5711:	48 83 c3 04          	add    rbx,0x4
    5715:	eb be                	jmp    56d5 <__sprintf_chk@plt+0x4385>
    5717:	be 04 00 00 00       	mov    esi,0x4
    571c:	4c 89 f7             	mov    rdi,r14
    571f:	e8 dc 1e 00 00       	call   7600 <__sprintf_chk@plt+0x62b0>
    5724:	85 c0                	test   eax,eax
    5726:	75 b7                	jne    56df <__sprintf_chk@plt+0x438f>
    5728:	b8 06 00 00 00       	mov    eax,0x6
    572d:	c4 c2 79 f7 86 d4 01 	shlx   eax,DWORD PTR [r14+0x1d4],eax
    5734:	00 00 
    5736:	0d 02 00 6c 00       	or     eax,0x6c0002
    573b:	89 03                	mov    DWORD PTR [rbx],eax
    573d:	48 83 c3 04          	add    rbx,0x4
    5741:	eb 9c                	jmp    56df <__sprintf_chk@plt+0x438f>
    5743:	e8 f8 ba ff ff       	call   1240 <__stack_chk_fail@plt>
    5748:	f3 0f 1e fa          	endbr64 
    574c:	41 57                	push   r15
    574e:	41 56                	push   r14
    5750:	41 55                	push   r13
    5752:	41 54                	push   r12
    5754:	55                   	push   rbp
    5755:	53                   	push   rbx
    5756:	48 83 ec 38          	sub    rsp,0x38
    575a:	49 89 fe             	mov    r14,rdi
    575d:	48 89 74 24 08       	mov    QWORD PTR [rsp+0x8],rsi
    5762:	64 48 8b 04 25 28 00 	mov    rax,QWORD PTR fs:0x28
    5769:	00 00 
    576b:	48 89 44 24 28       	mov    QWORD PTR [rsp+0x28],rax
    5770:	31 c0                	xor    eax,eax
    5772:	48 8d 6f 04          	lea    rbp,[rdi+0x4]
    5776:	83 bf cc 01 00 00 00 	cmp    DWORD PTR [rdi+0x1cc],0x0
    577d:	0f 84 5b 02 00 00    	je     59de <__sprintf_chk@plt+0x468e>
    5783:	4c 8b bf 10 01 00 00 	mov    r15,QWORD PTR [rdi+0x110]
    578a:	48 8b 87 28 01 00 00 	mov    rax,QWORD PTR [rdi+0x128]
    5791:	48 23 05 90 2c 01 00 	and    rax,QWORD PTR [rip+0x12c90]        # 18428 <stdin@@GLIBC_2.2.5+0x13f8>
    5798:	48 c1 e8 08          	shr    rax,0x8
    579c:	48 8b 97 08 01 00 00 	mov    rdx,QWORD PTR [rdi+0x108]
    57a3:	c4 e2 e8 f2 c0       	andn   rax,rdx,rax
    57a8:	48 89 44 24 18       	mov    QWORD PTR [rsp+0x18],rax
    57ad:	48 85 c0             	test   rax,rax
    57b0:	0f 84 1a 01 00 00    	je     58d0 <__sprintf_chk@plt+0x4580>
    57b6:	48 89 f3             	mov    rbx,rsi
    57b9:	4c 8d 64 24 18       	lea    r12,[rsp+0x18]
    57be:	4c 89 e7             	mov    rdi,r12
    57c1:	e8 54 d2 ff ff       	call   2a1a <__sprintf_chk@plt+0x16ca>
    57c6:	89 c1                	mov    ecx,eax
    57c8:	8d 50 08             	lea    edx,[rax+0x8]
    57cb:	89 d0                	mov    eax,edx
    57cd:	c1 e0 06             	shl    eax,0x6
    57d0:	09 c8                	or     eax,ecx
    57d2:	0d 00 90 68 00       	or     eax,0x689000
    57d7:	89 03                	mov    DWORD PTR [rbx],eax
    57d9:	48 83 c3 04          	add    rbx,0x4
    57dd:	48 83 7c 24 18 00    	cmp    QWORD PTR [rsp+0x18],0x0
    57e3:	75 d9                	jne    57be <__sprintf_chk@plt+0x446e>
    57e5:	48 8b 05 ac 2c 01 00 	mov    rax,QWORD PTR [rip+0x12cac]        # 18498 <stdin@@GLIBC_2.2.5+0x1468>
    57ec:	c4 c2 f8 f2 86 28 01 	andn   rax,rax,QWORD PTR [r14+0x128]
    57f3:	00 00 
    57f5:	48 c1 e8 07          	shr    rax,0x7
    57f9:	48 8b 15 60 2c 01 00 	mov    rdx,QWORD PTR [rip+0x12c60]        # 18460 <stdin@@GLIBC_2.2.5+0x1430>
    5800:	c4 c2 e8 f2 96 28 01 	andn   rdx,rdx,QWORD PTR [r14+0x128]
    5807:	00 00 
    5809:	48 c1 ea 09          	shr    rdx,0x9
    580d:	48 09 d0             	or     rax,rdx
    5810:	41 8b 8e c8 01 00 00 	mov    ecx,DWORD PTR [r14+0x1c8]
    5817:	48 89 c2             	mov    rdx,rax
    581a:	4c 21 fa             	and    rdx,r15
    581d:	85 c9                	test   ecx,ecx
    581f:	7e 17                	jle    5838 <__sprintf_chk@plt+0x44e8>
    5821:	48 63 c9             	movsxd rcx,ecx
    5824:	48 8d 15 75 32 01 00 	lea    rdx,[rip+0x13275]        # 18aa0 <stdin@@GLIBC_2.2.5+0x1a70>
    582b:	4c 89 fe             	mov    rsi,r15
    582e:	48 0b 34 ca          	or     rsi,QWORD PTR [rdx+rcx*8]
    5832:	48 89 f2             	mov    rdx,rsi
    5835:	48 21 c2             	and    rdx,rax
    5838:	48 89 54 24 18       	mov    QWORD PTR [rsp+0x18],rdx
    583d:	4c 8d 25 5c 32 01 00 	lea    r12,[rip+0x1325c]        # 18aa0 <stdin@@GLIBC_2.2.5+0x1a70>
    5844:	48 85 d2             	test   rdx,rdx
    5847:	0f 85 e5 00 00 00    	jne    5932 <__sprintf_chk@plt+0x45e2>
    584d:	41 83 be cc 01 00 00 	cmp    DWORD PTR [r14+0x1cc],0x0
    5854:	00 
    5855:	0f 84 6d 03 00 00    	je     5bc8 <__sprintf_chk@plt+0x4878>
    585b:	45 8b a6 d0 01 00 00 	mov    r12d,DWORD PTR [r14+0x1d0]
    5862:	49 63 d4             	movsxd rdx,r12d
    5865:	48 8d 05 34 5e 01 00 	lea    rax,[rip+0x15e34]        # 1b6a0 <stdin@@GLIBC_2.2.5+0x4670>
    586c:	4c 89 fe             	mov    rsi,r15
    586f:	48 23 34 d0          	and    rsi,QWORD PTR [rax+rdx*8]
    5873:	48 89 74 24 18       	mov    QWORD PTR [rsp+0x18],rsi
    5878:	74 3c                	je     58b6 <__sprintf_chk@plt+0x4566>
    587a:	41 c1 e4 06          	shl    r12d,0x6
    587e:	4c 8d 6c 24 18       	lea    r13,[rsp+0x18]
    5883:	4c 89 ef             	mov    rdi,r13
    5886:	e8 8f d1 ff ff       	call   2a1a <__sprintf_chk@plt+0x16ca>
    588b:	48 63 d0             	movsxd rdx,eax
    588e:	8b 54 95 00          	mov    edx,DWORD PTR [rbp+rdx*4+0x0]
    5892:	c1 e2 13             	shl    edx,0x13
    5895:	44 09 e0             	or     eax,r12d
    5898:	09 d0                	or     eax,edx
    589a:	89 03                	mov    DWORD PTR [rbx],eax
    589c:	48 83 c3 04          	add    rbx,0x4
    58a0:	48 83 7c 24 18 00    	cmp    QWORD PTR [rsp+0x18],0x0
    58a6:	75 db                	jne    5883 <__sprintf_chk@plt+0x4533>
    58a8:	41 83 be cc 01 00 00 	cmp    DWORD PTR [r14+0x1cc],0x0
    58af:	00 
    58b0:	0f 84 35 03 00 00    	je     5beb <__sprintf_chk@plt+0x489b>
    58b6:	49 8b 86 38 01 00 00 	mov    rax,QWORD PTR [r14+0x138]
    58bd:	48 89 44 24 18       	mov    QWORD PTR [rsp+0x18],rax
    58c2:	48 85 c0             	test   rax,rax
    58c5:	0f 85 65 03 00 00    	jne    5c30 <__sprintf_chk@plt+0x48e0>
    58cb:	e9 c5 03 00 00       	jmp    5c95 <__sprintf_chk@plt+0x4945>
    58d0:	48 8b 5c 24 08       	mov    rbx,QWORD PTR [rsp+0x8]
    58d5:	e9 0b ff ff ff       	jmp    57e5 <__sprintf_chk@plt+0x4495>
    58da:	48 63 f0             	movsxd rsi,eax
    58dd:	8b 74 b5 00          	mov    esi,DWORD PTR [rbp+rsi*4+0x0]
    58e1:	c1 e6 13             	shl    esi,0x13
    58e4:	09 c6                	or     esi,eax
    58e6:	c1 e2 06             	shl    edx,0x6
    58e9:	09 f2                	or     edx,esi
    58eb:	80 ce 90             	or     dh,0x90
    58ee:	89 13                	mov    DWORD PTR [rbx],edx
    58f0:	48 83 c3 04          	add    rbx,0x4
    58f4:	e9 88 00 00 00       	jmp    5981 <__sprintf_chk@plt+0x4631>
    58f9:	c1 e2 06             	shl    edx,0x6
    58fc:	09 c2                	or     edx,eax
    58fe:	81 ca 00 00 90 00    	or     edx,0x900000
    5904:	89 13                	mov    DWORD PTR [rbx],edx
    5906:	48 83 c3 04          	add    rbx,0x4
    590a:	eb 75                	jmp    5981 <__sprintf_chk@plt+0x4631>
    590c:	48 63 c8             	movsxd rcx,eax
    590f:	8b 4c 8d 00          	mov    ecx,DWORD PTR [rbp+rcx*4+0x0]
    5913:	c1 e1 13             	shl    ecx,0x13
    5916:	09 c8                	or     eax,ecx
    5918:	c1 e2 06             	shl    edx,0x6
    591b:	09 d0                	or     eax,edx
    591d:	80 cc 90             	or     ah,0x90
    5920:	89 03                	mov    DWORD PTR [rbx],eax
    5922:	48 83 c3 04          	add    rbx,0x4
    5926:	48 83 7c 24 18 00    	cmp    QWORD PTR [rsp+0x18],0x0
    592c:	0f 84 1b ff ff ff    	je     584d <__sprintf_chk@plt+0x44fd>
    5932:	48 8d 7c 24 18       	lea    rdi,[rsp+0x18]
    5937:	e8 de d0 ff ff       	call   2a1a <__sprintf_chk@plt+0x16ca>
    593c:	89 c1                	mov    ecx,eax
    593e:	83 e1 07             	and    ecx,0x7
    5941:	74 3e                	je     5981 <__sprintf_chk@plt+0x4631>
    5943:	8d 50 07             	lea    edx,[rax+0x7]
    5946:	48 63 f2             	movsxd rsi,edx
    5949:	49 8b be 28 01 00 00 	mov    rdi,QWORD PTR [r14+0x128]
    5950:	49 85 3c f4          	test   QWORD PTR [r12+rsi*8],rdi
    5954:	74 2b                	je     5981 <__sprintf_chk@plt+0x4631>
    5956:	89 c6                	mov    esi,eax
    5958:	c1 ee 03             	shr    esi,0x3
    595b:	0f 84 79 ff ff ff    	je     58da <__sprintf_chk@plt+0x458a>
    5961:	41 39 86 c8 01 00 00 	cmp    DWORD PTR [r14+0x1c8],eax
    5968:	74 8f                	je     58f9 <__sprintf_chk@plt+0x45a9>
    596a:	48 63 f0             	movsxd rsi,eax
    596d:	8b 74 b5 00          	mov    esi,DWORD PTR [rbp+rsi*4+0x0]
    5971:	c1 e6 13             	shl    esi,0x13
    5974:	c1 e2 06             	shl    edx,0x6
    5977:	09 c2                	or     edx,eax
    5979:	09 f2                	or     edx,esi
    597b:	89 13                	mov    DWORD PTR [rbx],edx
    597d:	48 83 c3 04          	add    rbx,0x4
    5981:	83 f9 06             	cmp    ecx,0x6
    5984:	7f a0                	jg     5926 <__sprintf_chk@plt+0x45d6>
    5986:	8d 50 09             	lea    edx,[rax+0x9]
    5989:	48 63 ca             	movsxd rcx,edx
    598c:	49 8b b6 28 01 00 00 	mov    rsi,QWORD PTR [r14+0x128]
    5993:	49 85 34 cc          	test   QWORD PTR [r12+rcx*8],rsi
    5997:	74 8d                	je     5926 <__sprintf_chk@plt+0x45d6>
    5999:	89 c6                	mov    esi,eax
    599b:	c1 ee 03             	shr    esi,0x3
    599e:	0f 84 68 ff ff ff    	je     590c <__sprintf_chk@plt+0x45bc>
    59a4:	41 39 86 c8 01 00 00 	cmp    DWORD PTR [r14+0x1c8],eax
    59ab:	74 1c                	je     59c9 <__sprintf_chk@plt+0x4679>
    59ad:	48 63 c8             	movsxd rcx,eax
    59b0:	8b 4c 8d 00          	mov    ecx,DWORD PTR [rbp+rcx*4+0x0]
    59b4:	c1 e1 13             	shl    ecx,0x13
    59b7:	c1 e2 06             	shl    edx,0x6
    59ba:	09 d0                	or     eax,edx
    59bc:	09 c8                	or     eax,ecx
    59be:	89 03                	mov    DWORD PTR [rbx],eax
    59c0:	48 83 c3 04          	add    rbx,0x4
    59c4:	e9 5d ff ff ff       	jmp    5926 <__sprintf_chk@plt+0x45d6>
    59c9:	c1 e2 06             	shl    edx,0x6
    59cc:	09 d0                	or     eax,edx
    59ce:	0d 00 00 90 00       	or     eax,0x900000
    59d3:	89 03                	mov    DWORD PTR [rbx],eax
    59d5:	48 83 c3 04          	add    rbx,0x4
    59d9:	e9 48 ff ff ff       	jmp    5926 <__sprintf_chk@plt+0x45d6>
    59de:	4c 8b bf 18 01 00 00 	mov    r15,QWORD PTR [rdi+0x118]
    59e5:	48 8b 87 30 01 00 00 	mov    rax,QWORD PTR [rdi+0x130]
    59ec:	48 23 05 5d 2a 01 00 	and    rax,QWORD PTR [rip+0x12a5d]        # 18450 <stdin@@GLIBC_2.2.5+0x1420>
    59f3:	48 c1 e0 08          	shl    rax,0x8
    59f7:	48 8b 97 08 01 00 00 	mov    rdx,QWORD PTR [rdi+0x108]
    59fe:	c4 e2 e8 f2 c0       	andn   rax,rdx,rax
    5a03:	48 89 44 24 18       	mov    QWORD PTR [rsp+0x18],rax
    5a08:	48 85 c0             	test   rax,rax
    5a0b:	0f 84 9e 00 00 00    	je     5aaf <__sprintf_chk@plt+0x475f>
    5a11:	48 8b 5c 24 08       	mov    rbx,QWORD PTR [rsp+0x8]
    5a16:	4c 8d 64 24 18       	lea    r12,[rsp+0x18]
    5a1b:	4c 89 e7             	mov    rdi,r12
    5a1e:	e8 f7 cf ff ff       	call   2a1a <__sprintf_chk@plt+0x16ca>
    5a23:	89 c1                	mov    ecx,eax
    5a25:	8d 50 f8             	lea    edx,[rax-0x8]
    5a28:	89 d0                	mov    eax,edx
    5a2a:	c1 e0 06             	shl    eax,0x6
    5a2d:	09 c8                	or     eax,ecx
    5a2f:	0d 00 a0 68 00       	or     eax,0x68a000
    5a34:	89 03                	mov    DWORD PTR [rbx],eax
    5a36:	48 83 c3 04          	add    rbx,0x4
    5a3a:	48 83 7c 24 18 00    	cmp    QWORD PTR [rsp+0x18],0x0
    5a40:	75 d9                	jne    5a1b <__sprintf_chk@plt+0x46cb>
    5a42:	48 8b 05 4f 2a 01 00 	mov    rax,QWORD PTR [rip+0x12a4f]        # 18498 <stdin@@GLIBC_2.2.5+0x1468>
    5a49:	c4 c2 f8 f2 86 30 01 	andn   rax,rax,QWORD PTR [r14+0x130]
    5a50:	00 00 
    5a52:	48 c1 e0 09          	shl    rax,0x9
    5a56:	48 8b 15 03 2a 01 00 	mov    rdx,QWORD PTR [rip+0x12a03]        # 18460 <stdin@@GLIBC_2.2.5+0x1430>
    5a5d:	c4 c2 e8 f2 96 30 01 	andn   rdx,rdx,QWORD PTR [r14+0x130]
    5a64:	00 00 
    5a66:	48 c1 e2 07          	shl    rdx,0x7
    5a6a:	48 09 d0             	or     rax,rdx
    5a6d:	41 8b 8e c8 01 00 00 	mov    ecx,DWORD PTR [r14+0x1c8]
    5a74:	48 89 c2             	mov    rdx,rax
    5a77:	4c 21 fa             	and    rdx,r15
    5a7a:	85 c9                	test   ecx,ecx
    5a7c:	7e 17                	jle    5a95 <__sprintf_chk@plt+0x4745>
    5a7e:	48 63 c9             	movsxd rcx,ecx
    5a81:	48 8d 15 18 30 01 00 	lea    rdx,[rip+0x13018]        # 18aa0 <stdin@@GLIBC_2.2.5+0x1a70>
    5a88:	4c 89 fe             	mov    rsi,r15
    5a8b:	48 0b 34 ca          	or     rsi,QWORD PTR [rdx+rcx*8]
    5a8f:	48 89 f2             	mov    rdx,rsi
    5a92:	48 21 c2             	and    rdx,rax
    5a95:	48 89 54 24 18       	mov    QWORD PTR [rsp+0x18],rdx
    5a9a:	4c 8d 25 ff 2f 01 00 	lea    r12,[rip+0x12fff]        # 18aa0 <stdin@@GLIBC_2.2.5+0x1a70>
    5aa1:	48 85 d2             	test   rdx,rdx
    5aa4:	0f 85 80 00 00 00    	jne    5b2a <__sprintf_chk@plt+0x47da>
    5aaa:	e9 9e fd ff ff       	jmp    584d <__sprintf_chk@plt+0x44fd>
    5aaf:	48 8b 5c 24 08       	mov    rbx,QWORD PTR [rsp+0x8]
    5ab4:	eb 8c                	jmp    5a42 <__sprintf_chk@plt+0x46f2>
    5ab6:	48 63 f0             	movsxd rsi,eax
    5ab9:	8b 74 b5 00          	mov    esi,DWORD PTR [rbp+rsi*4+0x0]
    5abd:	c1 e6 13             	shl    esi,0x13
    5ac0:	09 c6                	or     esi,eax
    5ac2:	c1 e2 06             	shl    edx,0x6
    5ac5:	09 f2                	or     edx,esi
    5ac7:	80 ce a0             	or     dh,0xa0
    5aca:	89 13                	mov    DWORD PTR [rbx],edx
    5acc:	48 83 c3 04          	add    rbx,0x4
    5ad0:	e9 ab 00 00 00       	jmp    5b80 <__sprintf_chk@plt+0x4830>
    5ad5:	c1 e2 06             	shl    edx,0x6
    5ad8:	09 c2                	or     edx,eax
    5ada:	81 ca 00 00 88 00    	or     edx,0x880000
    5ae0:	89 13                	mov    DWORD PTR [rbx],edx
    5ae2:	48 83 c3 04          	add    rbx,0x4
    5ae6:	e9 95 00 00 00       	jmp    5b80 <__sprintf_chk@plt+0x4830>
    5aeb:	48 63 c8             	movsxd rcx,eax
    5aee:	8b 4c 8d 00          	mov    ecx,DWORD PTR [rbp+rcx*4+0x0]
    5af2:	c1 e1 13             	shl    ecx,0x13
    5af5:	09 c8                	or     eax,ecx
    5af7:	c1 e2 06             	shl    edx,0x6
    5afa:	09 d0                	or     eax,edx
    5afc:	80 cc a0             	or     ah,0xa0
    5aff:	89 03                	mov    DWORD PTR [rbx],eax
    5b01:	48 83 c3 04          	add    rbx,0x4
    5b05:	eb 17                	jmp    5b1e <__sprintf_chk@plt+0x47ce>
    5b07:	48 63 c8             	movsxd rcx,eax
    5b0a:	8b 4c 8d 00          	mov    ecx,DWORD PTR [rbp+rcx*4+0x0]
    5b0e:	c1 e1 13             	shl    ecx,0x13
    5b11:	c1 e2 06             	shl    edx,0x6
    5b14:	09 d0                	or     eax,edx
    5b16:	09 c8                	or     eax,ecx
    5b18:	89 03                	mov    DWORD PTR [rbx],eax
    5b1a:	48 83 c3 04          	add    rbx,0x4
    5b1e:	48 83 7c 24 18 00    	cmp    QWORD PTR [rsp+0x18],0x0
    5b24:	0f 84 23 fd ff ff    	je     584d <__sprintf_chk@plt+0x44fd>
    5b2a:	48 8d 7c 24 18       	lea    rdi,[rsp+0x18]
    5b2f:	e8 e6 ce ff ff       	call   2a1a <__sprintf_chk@plt+0x16ca>
    5b34:	89 c1                	mov    ecx,eax
    5b36:	83 e1 07             	and    ecx,0x7
    5b39:	74 45                	je     5b80 <__sprintf_chk@plt+0x4830>
    5b3b:	8d 50 f7             	lea    edx,[rax-0x9]
    5b3e:	48 63 f2             	movsxd rsi,edx
    5b41:	49 8b be 30 01 00 00 	mov    rdi,QWORD PTR [r14+0x130]
    5b48:	49 85 3c f4          	test   QWORD PTR [r12+rsi*8],rdi
    5b4c:	74 32                	je     5b80 <__sprintf_chk@plt+0x4830>
    5b4e:	89 c6                	mov    esi,eax
    5b50:	c1 fe 03             	sar    esi,0x3
    5b53:	83 fe 07             	cmp    esi,0x7
    5b56:	0f 84 5a ff ff ff    	je     5ab6 <__sprintf_chk@plt+0x4766>
    5b5c:	41 39 86 c8 01 00 00 	cmp    DWORD PTR [r14+0x1c8],eax
    5b63:	0f 84 6c ff ff ff    	je     5ad5 <__sprintf_chk@plt+0x4785>
    5b69:	48 63 f0             	movsxd rsi,eax
    5b6c:	8b 74 b5 00          	mov    esi,DWORD PTR [rbp+rsi*4+0x0]
    5b70:	c1 e6 13             	shl    esi,0x13
    5b73:	c1 e2 06             	shl    edx,0x6
    5b76:	09 c2                	or     edx,eax
    5b78:	09 f2                	or     edx,esi
    5b7a:	89 13                	mov    DWORD PTR [rbx],edx
    5b7c:	48 83 c3 04          	add    rbx,0x4
    5b80:	83 f9 06             	cmp    ecx,0x6
    5b83:	7f 99                	jg     5b1e <__sprintf_chk@plt+0x47ce>
    5b85:	8d 50 f9             	lea    edx,[rax-0x7]
    5b88:	48 63 ca             	movsxd rcx,edx
    5b8b:	49 8b b6 30 01 00 00 	mov    rsi,QWORD PTR [r14+0x130]
    5b92:	49 85 34 cc          	test   QWORD PTR [r12+rcx*8],rsi
    5b96:	74 86                	je     5b1e <__sprintf_chk@plt+0x47ce>
    5b98:	89 c1                	mov    ecx,eax
    5b9a:	c1 f9 03             	sar    ecx,0x3
    5b9d:	83 f9 07             	cmp    ecx,0x7
    5ba0:	0f 84 45 ff ff ff    	je     5aeb <__sprintf_chk@plt+0x479b>
    5ba6:	41 39 86 c8 01 00 00 	cmp    DWORD PTR [r14+0x1c8],eax
    5bad:	0f 85 54 ff ff ff    	jne    5b07 <__sprintf_chk@plt+0x47b7>
    5bb3:	c1 e2 06             	shl    edx,0x6
    5bb6:	09 d0                	or     eax,edx
    5bb8:	0d 00 00 88 00       	or     eax,0x880000
    5bbd:	89 03                	mov    DWORD PTR [rbx],eax
    5bbf:	48 83 c3 04          	add    rbx,0x4
    5bc3:	e9 56 ff ff ff       	jmp    5b1e <__sprintf_chk@plt+0x47ce>
    5bc8:	45 8b a6 d4 01 00 00 	mov    r12d,DWORD PTR [r14+0x1d4]
    5bcf:	49 63 d4             	movsxd rdx,r12d
    5bd2:	48 8d 05 c7 5a 01 00 	lea    rax,[rip+0x15ac7]        # 1b6a0 <stdin@@GLIBC_2.2.5+0x4670>
    5bd9:	4c 89 fe             	mov    rsi,r15
    5bdc:	48 23 34 d0          	and    rsi,QWORD PTR [rax+rdx*8]
    5be0:	48 89 74 24 18       	mov    QWORD PTR [rsp+0x18],rsi
    5be5:	0f 85 8f fc ff ff    	jne    587a <__sprintf_chk@plt+0x452a>
    5beb:	49 8b 86 40 01 00 00 	mov    rax,QWORD PTR [r14+0x140]
    5bf2:	48 89 44 24 18       	mov    QWORD PTR [rsp+0x18],rax
    5bf7:	48 85 c0             	test   rax,rax
    5bfa:	75 34                	jne    5c30 <__sprintf_chk@plt+0x48e0>
    5bfc:	49 8b 86 60 01 00 00 	mov    rax,QWORD PTR [r14+0x160]
    5c03:	49 0b 86 70 01 00 00 	or     rax,QWORD PTR [r14+0x170]
    5c0a:	48 89 44 24 18       	mov    QWORD PTR [rsp+0x18],rax
    5c0f:	0f 85 95 00 00 00    	jne    5caa <__sprintf_chk@plt+0x495a>
    5c15:	49 8b 86 80 01 00 00 	mov    rax,QWORD PTR [r14+0x180]
    5c1c:	49 0b 86 70 01 00 00 	or     rax,QWORD PTR [r14+0x170]
    5c23:	e9 04 01 00 00       	jmp    5d2c <__sprintf_chk@plt+0x49dc>
    5c28:	48 83 7c 24 18 00    	cmp    QWORD PTR [rsp+0x18],0x0
    5c2e:	74 57                	je     5c87 <__sprintf_chk@plt+0x4937>
    5c30:	48 8d 7c 24 18       	lea    rdi,[rsp+0x18]
    5c35:	e8 e0 cd ff ff       	call   2a1a <__sprintf_chk@plt+0x16ca>
    5c3a:	48 63 d0             	movsxd rdx,eax
    5c3d:	48 8d 0d 5c 5c 01 00 	lea    rcx,[rip+0x15c5c]        # 1b8a0 <stdin@@GLIBC_2.2.5+0x4870>
    5c44:	4c 89 fe             	mov    rsi,r15
    5c47:	48 23 34 d1          	and    rsi,QWORD PTR [rcx+rdx*8]
    5c4b:	48 89 74 24 20       	mov    QWORD PTR [rsp+0x20],rsi
    5c50:	c1 e0 06             	shl    eax,0x6
    5c53:	41 89 c4             	mov    r12d,eax
    5c56:	4c 8d 6c 24 20       	lea    r13,[rsp+0x20]
    5c5b:	48 85 f6             	test   rsi,rsi
    5c5e:	74 c8                	je     5c28 <__sprintf_chk@plt+0x48d8>
    5c60:	4c 89 ef             	mov    rdi,r13
    5c63:	e8 b2 cd ff ff       	call   2a1a <__sprintf_chk@plt+0x16ca>
    5c68:	48 63 d0             	movsxd rdx,eax
    5c6b:	8b 54 95 00          	mov    edx,DWORD PTR [rbp+rdx*4+0x0]
    5c6f:	c1 e2 13             	shl    edx,0x13
    5c72:	44 09 e0             	or     eax,r12d
    5c75:	09 d0                	or     eax,edx
    5c77:	89 03                	mov    DWORD PTR [rbx],eax
    5c79:	48 83 c3 04          	add    rbx,0x4
    5c7d:	48 83 7c 24 20 00    	cmp    QWORD PTR [rsp+0x20],0x0
    5c83:	75 db                	jne    5c60 <__sprintf_chk@plt+0x4910>
    5c85:	eb a1                	jmp    5c28 <__sprintf_chk@plt+0x48d8>
    5c87:	41 83 be cc 01 00 00 	cmp    DWORD PTR [r14+0x1cc],0x0
    5c8e:	00 
    5c8f:	0f 84 67 ff ff ff    	je     5bfc <__sprintf_chk@plt+0x48ac>
    5c95:	49 8b 86 58 01 00 00 	mov    rax,QWORD PTR [r14+0x158]
    5c9c:	49 0b 86 68 01 00 00 	or     rax,QWORD PTR [r14+0x168]
    5ca3:	48 89 44 24 18       	mov    QWORD PTR [rsp+0x18],rax
    5ca8:	74 74                	je     5d1e <__sprintf_chk@plt+0x49ce>
    5caa:	48 8d 44 24 18       	lea    rax,[rsp+0x18]
    5caf:	48 89 04 24          	mov    QWORD PTR [rsp],rax
    5cb3:	eb 08                	jmp    5cbd <__sprintf_chk@plt+0x496d>
    5cb5:	48 83 7c 24 18 00    	cmp    QWORD PTR [rsp+0x18],0x0
    5cbb:	74 53                	je     5d10 <__sprintf_chk@plt+0x49c0>
    5cbd:	48 8b 3c 24          	mov    rdi,QWORD PTR [rsp]
    5cc1:	e8 54 cd ff ff       	call   2a1a <__sprintf_chk@plt+0x16ca>
    5cc6:	41 89 c4             	mov    r12d,eax
    5cc9:	89 c6                	mov    esi,eax
    5ccb:	4c 89 f7             	mov    rdi,r14
    5cce:	e8 d2 cc ff ff       	call   29a5 <__sprintf_chk@plt+0x1655>
    5cd3:	4c 21 f8             	and    rax,r15
    5cd6:	48 89 44 24 20       	mov    QWORD PTR [rsp+0x20],rax
    5cdb:	41 c1 e4 06          	shl    r12d,0x6
    5cdf:	4c 8d 6c 24 20       	lea    r13,[rsp+0x20]
    5ce4:	48 85 c0             	test   rax,rax
    5ce7:	74 cc                	je     5cb5 <__sprintf_chk@plt+0x4965>
    5ce9:	4c 89 ef             	mov    rdi,r13
    5cec:	e8 29 cd ff ff       	call   2a1a <__sprintf_chk@plt+0x16ca>
    5cf1:	48 63 d0             	movsxd rdx,eax
    5cf4:	8b 54 95 00          	mov    edx,DWORD PTR [rbp+rdx*4+0x0]
    5cf8:	c1 e2 13             	shl    edx,0x13
    5cfb:	44 09 e0             	or     eax,r12d
    5cfe:	09 d0                	or     eax,edx
    5d00:	89 03                	mov    DWORD PTR [rbx],eax
    5d02:	48 83 c3 04          	add    rbx,0x4
    5d06:	48 83 7c 24 20 00    	cmp    QWORD PTR [rsp+0x20],0x0
    5d0c:	75 db                	jne    5ce9 <__sprintf_chk@plt+0x4999>
    5d0e:	eb a5                	jmp    5cb5 <__sprintf_chk@plt+0x4965>
    5d10:	41 83 be cc 01 00 00 	cmp    DWORD PTR [r14+0x1cc],0x0
    5d17:	00 
    5d18:	0f 84 f7 fe ff ff    	je     5c15 <__sprintf_chk@plt+0x48c5>
    5d1e:	49 8b 86 78 01 00 00 	mov    rax,QWORD PTR [r14+0x178]
    5d25:	49 0b 86 68 01 00 00 	or     rax,QWORD PTR [r14+0x168]
    5d2c:	48 89 44 24 18       	mov    QWORD PTR [rsp+0x18],rax
    5d31:	48 85 c0             	test   rax,rax
    5d34:	74 66                	je     5d9c <__sprintf_chk@plt+0x4a4c>
    5d36:	48 8d 44 24 18       	lea    rax,[rsp+0x18]
    5d3b:	48 89 04 24          	mov    QWORD PTR [rsp],rax
    5d3f:	eb 08                	jmp    5d49 <__sprintf_chk@plt+0x49f9>
    5d41:	48 83 7c 24 18 00    	cmp    QWORD PTR [rsp+0x18],0x0
    5d47:	74 53                	je     5d9c <__sprintf_chk@plt+0x4a4c>
    5d49:	48 8b 3c 24          	mov    rdi,QWORD PTR [rsp]
    5d4d:	e8 c8 cc ff ff       	call   2a1a <__sprintf_chk@plt+0x16ca>
    5d52:	41 89 c4             	mov    r12d,eax
    5d55:	89 c6                	mov    esi,eax
    5d57:	4c 89 f7             	mov    rdi,r14
    5d5a:	e8 18 cc ff ff       	call   2977 <__sprintf_chk@plt+0x1627>
    5d5f:	4c 21 f8             	and    rax,r15
    5d62:	48 89 44 24 20       	mov    QWORD PTR [rsp+0x20],rax
    5d67:	41 c1 e4 06          	shl    r12d,0x6
    5d6b:	4c 8d 6c 24 20       	lea    r13,[rsp+0x20]
    5d70:	48 85 c0             	test   rax,rax
    5d73:	74 cc                	je     5d41 <__sprintf_chk@plt+0x49f1>
    5d75:	4c 89 ef             	mov    rdi,r13
    5d78:	e8 9d cc ff ff       	call   2a1a <__sprintf_chk@plt+0x16ca>
    5d7d:	48 63 d0             	movsxd rdx,eax
    5d80:	8b 54 95 00          	mov    edx,DWORD PTR [rbp+rdx*4+0x0]
    5d84:	c1 e2 13             	shl    edx,0x13
    5d87:	44 09 e0             	or     eax,r12d
    5d8a:	09 d0                	or     eax,edx
    5d8c:	89 03                	mov    DWORD PTR [rbx],eax
    5d8e:	48 83 c3 04          	add    rbx,0x4
    5d92:	48 83 7c 24 20 00    	cmp    QWORD PTR [rsp+0x20],0x0
    5d98:	75 db                	jne    5d75 <__sprintf_chk@plt+0x4a25>
    5d9a:	eb a5                	jmp    5d41 <__sprintf_chk@plt+0x49f1>
    5d9c:	48 2b 5c 24 08       	sub    rbx,QWORD PTR [rsp+0x8]
    5da1:	48 89 d8             	mov    rax,rbx
    5da4:	48 c1 f8 02          	sar    rax,0x2
    5da8:	48 8b 74 24 28       	mov    rsi,QWORD PTR [rsp+0x28]
    5dad:	64 48 33 34 25 28 00 	xor    rsi,QWORD PTR fs:0x28
    5db4:	00 00 
    5db6:	75 0f                	jne    5dc7 <__sprintf_chk@plt+0x4a77>
    5db8:	48 83 c4 38          	add    rsp,0x38
    5dbc:	5b                   	pop    rbx
    5dbd:	5d                   	pop    rbp
    5dbe:	41 5c                	pop    r12
    5dc0:	41 5d                	pop    r13
    5dc2:	41 5e                	pop    r14
    5dc4:	41 5f                	pop    r15
    5dc6:	c3                   	ret    
    5dc7:	e8 74 b4 ff ff       	call   1240 <__stack_chk_fail@plt>
    5dcc:	f3 0f 1e fa          	endbr64 
    5dd0:	41 57                	push   r15
    5dd2:	41 56                	push   r14
    5dd4:	41 55                	push   r13
    5dd6:	41 54                	push   r12
    5dd8:	55                   	push   rbp
    5dd9:	53                   	push   rbx
    5dda:	48 83 ec 58          	sub    rsp,0x58
    5dde:	48 89 fb             	mov    rbx,rdi
    5de1:	48 89 74 24 28       	mov    QWORD PTR [rsp+0x28],rsi
    5de6:	64 48 8b 04 25 28 00 	mov    rax,QWORD PTR fs:0x28
    5ded:	00 00 
    5def:	48 89 44 24 48       	mov    QWORD PTR [rsp+0x48],rax
    5df4:	31 c0                	xor    eax,eax
    5df6:	4c 8d 77 04          	lea    r14,[rdi+0x4]
    5dfa:	83 bf cc 01 00 00 00 	cmp    DWORD PTR [rdi+0x1cc],0x0
    5e01:	74 68                	je     5e6b <__sprintf_chk@plt+0x4b1b>
    5e03:	8b 87 d4 01 00 00    	mov    eax,DWORD PTR [rdi+0x1d4]
    5e09:	89 44 24 0c          	mov    DWORD PTR [rsp+0xc],eax
    5e0d:	48 8b 8f 18 01 00 00 	mov    rcx,QWORD PTR [rdi+0x118]
    5e14:	48 f7 d1             	not    rcx
    5e17:	48 89 4c 24 10       	mov    QWORD PTR [rsp+0x10],rcx
    5e1c:	48 98                	cdqe   
    5e1e:	48 8d 15 fb 20 01 00 	lea    rdx,[rip+0x120fb]        # 17f20 <stdin@@GLIBC_2.2.5+0xef0>
    5e25:	48 89 ce             	mov    rsi,rcx
    5e28:	48 23 34 c2          	and    rsi,QWORD PTR [rdx+rax*8]
    5e2c:	48 89 74 24 18       	mov    QWORD PTR [rsp+0x18],rsi
    5e31:	48 8d 15 e8 22 01 00 	lea    rdx,[rip+0x122e8]        # 18120 <stdin@@GLIBC_2.2.5+0x10f0>
    5e38:	48 23 0c c2          	and    rcx,QWORD PTR [rdx+rax*8]
    5e3c:	48 89 4c 24 20       	mov    QWORD PTR [rsp+0x20],rcx
    5e41:	48 8d 15 58 2c 01 00 	lea    rdx,[rip+0x12c58]        # 18aa0 <stdin@@GLIBC_2.2.5+0x1a70>
    5e48:	48 8b 2c c2          	mov    rbp,QWORD PTR [rdx+rax*8]
    5e4c:	48 8b 87 38 01 00 00 	mov    rax,QWORD PTR [rdi+0x138]
    5e53:	48 89 44 24 38       	mov    QWORD PTR [rsp+0x38],rax
    5e58:	48 85 c0             	test   rax,rax
    5e5b:	0f 84 7e 01 00 00    	je     5fdf <__sprintf_chk@plt+0x4c8f>
    5e61:	4c 8b 64 24 28       	mov    r12,QWORD PTR [rsp+0x28]
    5e66:	e9 c8 00 00 00       	jmp    5f33 <__sprintf_chk@plt+0x4be3>
    5e6b:	8b 87 d0 01 00 00    	mov    eax,DWORD PTR [rdi+0x1d0]
    5e71:	89 44 24 0c          	mov    DWORD PTR [rsp+0xc],eax
    5e75:	48 8b 8f 10 01 00 00 	mov    rcx,QWORD PTR [rdi+0x110]
    5e7c:	48 f7 d1             	not    rcx
    5e7f:	48 89 4c 24 10       	mov    QWORD PTR [rsp+0x10],rcx
    5e84:	48 98                	cdqe   
    5e86:	48 8d 15 93 20 01 00 	lea    rdx,[rip+0x12093]        # 17f20 <stdin@@GLIBC_2.2.5+0xef0>
    5e8d:	48 89 ce             	mov    rsi,rcx
    5e90:	48 23 34 c2          	and    rsi,QWORD PTR [rdx+rax*8]
    5e94:	48 89 74 24 18       	mov    QWORD PTR [rsp+0x18],rsi
    5e99:	48 8d 15 80 22 01 00 	lea    rdx,[rip+0x12280]        # 18120 <stdin@@GLIBC_2.2.5+0x10f0>
    5ea0:	48 23 0c c2          	and    rcx,QWORD PTR [rdx+rax*8]
    5ea4:	48 89 4c 24 20       	mov    QWORD PTR [rsp+0x20],rcx
    5ea9:	48 8d 15 f0 2b 01 00 	lea    rdx,[rip+0x12bf0]        # 18aa0 <stdin@@GLIBC_2.2.5+0x1a70>
    5eb0:	48 8b 2c c2          	mov    rbp,QWORD PTR [rdx+rax*8]
    5eb4:	48 8b 87 40 01 00 00 	mov    rax,QWORD PTR [rdi+0x140]
    5ebb:	48 89 44 24 38       	mov    QWORD PTR [rsp+0x38],rax
    5ec0:	48 85 c0             	test   rax,rax
    5ec3:	75 9c                	jne    5e61 <__sprintf_chk@plt+0x4b11>
    5ec5:	4c 8b 64 24 28       	mov    r12,QWORD PTR [rsp+0x28]
    5eca:	b8 08 00 00 00       	mov    eax,0x8
    5ecf:	c4 e2 f9 f7 93 30 01 	shlx   rdx,QWORD PTR [rbx+0x130],rax
    5ed6:	00 00 
    5ed8:	48 8b 83 08 01 00 00 	mov    rax,QWORD PTR [rbx+0x108]
    5edf:	c4 e2 f8 f2 d2       	andn   rdx,rax,rdx
    5ee4:	48 63 44 24 0c       	movsxd rax,DWORD PTR [rsp+0xc]
    5ee9:	48 8d 0d b0 53 01 00 	lea    rcx,[rip+0x153b0]        # 1b2a0 <stdin@@GLIBC_2.2.5+0x4270>
    5ef0:	48 23 14 c1          	and    rdx,QWORD PTR [rcx+rax*8]
    5ef4:	48 89 54 24 38       	mov    QWORD PTR [rsp+0x38],rdx
    5ef9:	0f 85 d9 00 00 00    	jne    5fd8 <__sprintf_chk@plt+0x4c88>
    5eff:	48 8b 83 60 01 00 00 	mov    rax,QWORD PTR [rbx+0x160]
    5f06:	48 0b 83 70 01 00 00 	or     rax,QWORD PTR [rbx+0x170]
    5f0d:	48 89 44 24 38       	mov    QWORD PTR [rsp+0x38],rax
    5f12:	0f 85 28 01 00 00    	jne    6040 <__sprintf_chk@plt+0x4cf0>
    5f18:	48 8b 83 80 01 00 00 	mov    rax,QWORD PTR [rbx+0x180]
    5f1f:	48 0b 83 70 01 00 00 	or     rax,QWORD PTR [rbx+0x170]
    5f26:	e9 b1 01 00 00       	jmp    60dc <__sprintf_chk@plt+0x4d8c>
    5f2b:	48 83 7c 24 38 00    	cmp    QWORD PTR [rsp+0x38],0x0
    5f31:	74 67                	je     5f9a <__sprintf_chk@plt+0x4c4a>
    5f33:	48 8d 7c 24 38       	lea    rdi,[rsp+0x38]
    5f38:	e8 dd ca ff ff       	call   2a1a <__sprintf_chk@plt+0x16ca>
    5f3d:	48 63 54 24 0c       	movsxd rdx,DWORD PTR [rsp+0xc]
    5f42:	48 8d 35 57 59 01 00 	lea    rsi,[rip+0x15957]        # 1b8a0 <stdin@@GLIBC_2.2.5+0x4870>
    5f49:	48 8b 4c 24 10       	mov    rcx,QWORD PTR [rsp+0x10]
    5f4e:	48 23 0c d6          	and    rcx,QWORD PTR [rsi+rdx*8]
    5f52:	48 89 ca             	mov    rdx,rcx
    5f55:	48 63 c8             	movsxd rcx,eax
    5f58:	48 23 14 ce          	and    rdx,QWORD PTR [rsi+rcx*8]
    5f5c:	48 89 54 24 40       	mov    QWORD PTR [rsp+0x40],rdx
    5f61:	c1 e0 06             	shl    eax,0x6
    5f64:	41 89 c5             	mov    r13d,eax
    5f67:	4c 8d 7c 24 40       	lea    r15,[rsp+0x40]
    5f6c:	48 85 d2             	test   rdx,rdx
    5f6f:	74 ba                	je     5f2b <__sprintf_chk@plt+0x4bdb>
    5f71:	4c 89 ff             	mov    rdi,r15
    5f74:	e8 a1 ca ff ff       	call   2a1a <__sprintf_chk@plt+0x16ca>
    5f79:	48 63 d0             	movsxd rdx,eax
    5f7c:	41 8b 14 96          	mov    edx,DWORD PTR [r14+rdx*4]
    5f80:	c1 e2 13             	shl    edx,0x13
    5f83:	44 09 e8             	or     eax,r13d
    5f86:	09 d0                	or     eax,edx
    5f88:	41 89 04 24          	mov    DWORD PTR [r12],eax
    5f8c:	49 83 c4 04          	add    r12,0x4
    5f90:	48 83 7c 24 40 00    	cmp    QWORD PTR [rsp+0x40],0x0
    5f96:	75 d9                	jne    5f71 <__sprintf_chk@plt+0x4c21>
    5f98:	eb 91                	jmp    5f2b <__sprintf_chk@plt+0x4bdb>
    5f9a:	83 bb cc 01 00 00 00 	cmp    DWORD PTR [rbx+0x1cc],0x0
    5fa1:	0f 84 23 ff ff ff    	je     5eca <__sprintf_chk@plt+0x4b7a>
    5fa7:	b8 08 00 00 00       	mov    eax,0x8
    5fac:	c4 e2 fb f7 93 28 01 	shrx   rdx,QWORD PTR [rbx+0x128],rax
    5fb3:	00 00 
    5fb5:	48 8b 83 08 01 00 00 	mov    rax,QWORD PTR [rbx+0x108]
    5fbc:	c4 e2 f8 f2 c2       	andn   rax,rax,rdx
    5fc1:	48 63 4c 24 0c       	movsxd rcx,DWORD PTR [rsp+0xc]
    5fc6:	48 8d 15 d3 54 01 00 	lea    rdx,[rip+0x154d3]        # 1b4a0 <stdin@@GLIBC_2.2.5+0x4470>
    5fcd:	48 23 04 ca          	and    rax,QWORD PTR [rdx+rcx*8]
    5fd1:	48 89 44 24 38       	mov    QWORD PTR [rsp+0x38],rax
    5fd6:	74 4f                	je     6027 <__sprintf_chk@plt+0x4cd7>
    5fd8:	4c 8d 6c 24 38       	lea    r13,[rsp+0x38]
    5fdd:	eb 22                	jmp    6001 <__sprintf_chk@plt+0x4cb1>
    5fdf:	4c 8b 64 24 28       	mov    r12,QWORD PTR [rsp+0x28]
    5fe4:	eb c1                	jmp    5fa7 <__sprintf_chk@plt+0x4c57>
    5fe6:	c1 e2 06             	shl    edx,0x6
    5fe9:	09 c2                	or     edx,eax
    5feb:	81 ca 00 00 68 00    	or     edx,0x680000
    5ff1:	41 89 14 24          	mov    DWORD PTR [r12],edx
    5ff5:	49 83 c4 04          	add    r12,0x4
    5ff9:	48 83 7c 24 38 00    	cmp    QWORD PTR [rsp+0x38],0x0
    5fff:	74 19                	je     601a <__sprintf_chk@plt+0x4cca>
    6001:	4c 89 ef             	mov    rdi,r13
    6004:	e8 11 ca ff ff       	call   2a1a <__sprintf_chk@plt+0x16ca>
    6009:	8d 50 f8             	lea    edx,[rax-0x8]
    600c:	83 bb cc 01 00 00 00 	cmp    DWORD PTR [rbx+0x1cc],0x0
    6013:	74 d1                	je     5fe6 <__sprintf_chk@plt+0x4c96>
    6015:	8d 50 08             	lea    edx,[rax+0x8]
    6018:	eb cc                	jmp    5fe6 <__sprintf_chk@plt+0x4c96>
    601a:	83 bb cc 01 00 00 00 	cmp    DWORD PTR [rbx+0x1cc],0x0
    6021:	0f 84 d8 fe ff ff    	je     5eff <__sprintf_chk@plt+0x4baf>
    6027:	48 8b 83 58 01 00 00 	mov    rax,QWORD PTR [rbx+0x158]
    602e:	48 0b 83 68 01 00 00 	or     rax,QWORD PTR [rbx+0x168]
    6035:	48 89 44 24 38       	mov    QWORD PTR [rsp+0x38],rax
    603a:	0f 84 8e 00 00 00    	je     60ce <__sprintf_chk@plt+0x4d7e>
    6040:	48 8d 44 24 38       	lea    rax,[rsp+0x38]
    6045:	48 89 44 24 10       	mov    QWORD PTR [rsp+0x10],rax
    604a:	4c 8d 7c 24 40       	lea    r15,[rsp+0x40]
    604f:	eb 08                	jmp    6059 <__sprintf_chk@plt+0x4d09>
    6051:	48 83 7c 24 38 00    	cmp    QWORD PTR [rsp+0x38],0x0
    6057:	74 68                	je     60c1 <__sprintf_chk@plt+0x4d71>
    6059:	48 8b 7c 24 10       	mov    rdi,QWORD PTR [rsp+0x10]
    605e:	e8 b7 c9 ff ff       	call   2a1a <__sprintf_chk@plt+0x16ca>
    6063:	41 89 c5             	mov    r13d,eax
    6066:	89 c6                	mov    esi,eax
    6068:	48 89 df             	mov    rdi,rbx
    606b:	e8 35 c9 ff ff       	call   29a5 <__sprintf_chk@plt+0x1655>
    6070:	48 23 44 24 20       	and    rax,QWORD PTR [rsp+0x20]
    6075:	48 89 44 24 40       	mov    QWORD PTR [rsp+0x40],rax
    607a:	41 c1 e5 06          	shl    r13d,0x6
    607e:	44 89 6c 24 0c       	mov    DWORD PTR [rsp+0xc],r13d
    6083:	48 83 7c 24 40 00    	cmp    QWORD PTR [rsp+0x40],0x0
    6089:	74 c6                	je     6051 <__sprintf_chk@plt+0x4d01>
    608b:	4c 89 ff             	mov    rdi,r15
    608e:	e8 87 c9 ff ff       	call   2a1a <__sprintf_chk@plt+0x16ca>
    6093:	41 89 c5             	mov    r13d,eax
    6096:	89 c6                	mov    esi,eax
    6098:	48 89 df             	mov    rdi,rbx
    609b:	e8 05 c9 ff ff       	call   29a5 <__sprintf_chk@plt+0x1655>
    60a0:	48 85 e8             	test   rax,rbp
    60a3:	74 de                	je     6083 <__sprintf_chk@plt+0x4d33>
    60a5:	49 63 c5             	movsxd rax,r13d
    60a8:	41 8b 04 86          	mov    eax,DWORD PTR [r14+rax*4]
    60ac:	c1 e0 13             	shl    eax,0x13
    60af:	44 0b 6c 24 0c       	or     r13d,DWORD PTR [rsp+0xc]
    60b4:	41 09 c5             	or     r13d,eax
    60b7:	45 89 2c 24          	mov    DWORD PTR [r12],r13d
    60bb:	49 83 c4 04          	add    r12,0x4
    60bf:	eb c2                	jmp    6083 <__sprintf_chk@plt+0x4d33>
    60c1:	83 bb cc 01 00 00 00 	cmp    DWORD PTR [rbx+0x1cc],0x0
    60c8:	0f 84 4a fe ff ff    	je     5f18 <__sprintf_chk@plt+0x4bc8>
    60ce:	48 8b 83 78 01 00 00 	mov    rax,QWORD PTR [rbx+0x178]
    60d5:	48 0b 83 68 01 00 00 	or     rax,QWORD PTR [rbx+0x168]
    60dc:	48 89 44 24 38       	mov    QWORD PTR [rsp+0x38],rax
    60e1:	48 85 c0             	test   rax,rax
    60e4:	0f 84 81 00 00 00    	je     616b <__sprintf_chk@plt+0x4e1b>
    60ea:	48 8d 44 24 38       	lea    rax,[rsp+0x38]
    60ef:	48 89 44 24 10       	mov    QWORD PTR [rsp+0x10],rax
    60f4:	4c 8d 7c 24 40       	lea    r15,[rsp+0x40]
    60f9:	eb 08                	jmp    6103 <__sprintf_chk@plt+0x4db3>
    60fb:	48 83 7c 24 38 00    	cmp    QWORD PTR [rsp+0x38],0x0
    6101:	74 68                	je     616b <__sprintf_chk@plt+0x4e1b>
    6103:	48 8b 7c 24 10       	mov    rdi,QWORD PTR [rsp+0x10]
    6108:	e8 0d c9 ff ff       	call   2a1a <__sprintf_chk@plt+0x16ca>
    610d:	41 89 c5             	mov    r13d,eax
    6110:	89 c6                	mov    esi,eax
    6112:	48 89 df             	mov    rdi,rbx
    6115:	e8 5d c8 ff ff       	call   2977 <__sprintf_chk@plt+0x1627>
    611a:	48 23 44 24 18       	and    rax,QWORD PTR [rsp+0x18]
    611f:	48 89 44 24 40       	mov    QWORD PTR [rsp+0x40],rax
    6124:	41 c1 e5 06          	shl    r13d,0x6
    6128:	44 89 6c 24 0c       	mov    DWORD PTR [rsp+0xc],r13d
    612d:	48 83 7c 24 40 00    	cmp    QWORD PTR [rsp+0x40],0x0
    6133:	74 c6                	je     60fb <__sprintf_chk@plt+0x4dab>
    6135:	4c 89 ff             	mov    rdi,r15
    6138:	e8 dd c8 ff ff       	call   2a1a <__sprintf_chk@plt+0x16ca>
    613d:	41 89 c5             	mov    r13d,eax
    6140:	89 c6                	mov    esi,eax
    6142:	48 89 df             	mov    rdi,rbx
    6145:	e8 2d c8 ff ff       	call   2977 <__sprintf_chk@plt+0x1627>
    614a:	48 85 e8             	test   rax,rbp
    614d:	74 de                	je     612d <__sprintf_chk@plt+0x4ddd>
    614f:	49 63 c5             	movsxd rax,r13d
    6152:	41 8b 04 86          	mov    eax,DWORD PTR [r14+rax*4]
    6156:	c1 e0 13             	shl    eax,0x13
    6159:	44 0b 6c 24 0c       	or     r13d,DWORD PTR [rsp+0xc]
    615e:	41 09 c5             	or     r13d,eax
    6161:	45 89 2c 24          	mov    DWORD PTR [r12],r13d
    6165:	49 83 c4 04          	add    r12,0x4
    6169:	eb c2                	jmp    612d <__sprintf_chk@plt+0x4ddd>
    616b:	4c 2b 64 24 28       	sub    r12,QWORD PTR [rsp+0x28]
    6170:	4c 89 e0             	mov    rax,r12
    6173:	48 c1 f8 02          	sar    rax,0x2
    6177:	48 8b 4c 24 48       	mov    rcx,QWORD PTR [rsp+0x48]
    617c:	64 48 33 0c 25 28 00 	xor    rcx,QWORD PTR fs:0x28
    6183:	00 00 
    6185:	75 0f                	jne    6196 <__sprintf_chk@plt+0x4e46>
    6187:	48 83 c4 58          	add    rsp,0x58
    618b:	5b                   	pop    rbx
    618c:	5d                   	pop    rbp
    618d:	41 5c                	pop    r12
    618f:	41 5d                	pop    r13
    6191:	41 5e                	pop    r14
    6193:	41 5f                	pop    r15
    6195:	c3                   	ret    
    6196:	e8 a5 b0 ff ff       	call   1240 <__stack_chk_fail@plt>
    619b:	f3 0f 1e fa          	endbr64 
    619f:	41 57                	push   r15
    61a1:	41 56                	push   r14
    61a3:	41 55                	push   r13
    61a5:	41 54                	push   r12
    61a7:	55                   	push   rbp
    61a8:	53                   	push   rbx
    61a9:	48 83 ec 38          	sub    rsp,0x38
    61ad:	49 89 fc             	mov    r12,rdi
    61b0:	48 89 74 24 08       	mov    QWORD PTR [rsp+0x8],rsi
    61b5:	89 d3                	mov    ebx,edx
    61b7:	64 48 8b 04 25 28 00 	mov    rax,QWORD PTR fs:0x28
    61be:	00 00 
    61c0:	48 89 44 24 28       	mov    QWORD PTR [rsp+0x28],rax
    61c5:	31 c0                	xor    eax,eax
    61c7:	83 bf cc 01 00 00 00 	cmp    DWORD PTR [rdi+0x1cc],0x0
    61ce:	74 34                	je     6204 <__sprintf_chk@plt+0x4eb4>
    61d0:	8b af d0 01 00 00    	mov    ebp,DWORD PTR [rdi+0x1d0]
    61d6:	89 ef                	mov    edi,ebp
    61d8:	e8 04 c9 ff ff       	call   2ae1 <__sprintf_chk@plt+0x1791>
    61dd:	8d 43 f5             	lea    eax,[rbx-0xb]
    61e0:	83 f8 01             	cmp    eax,0x1
    61e3:	76 27                	jbe    620c <__sprintf_chk@plt+0x4ebc>
    61e5:	83 eb 07             	sub    ebx,0x7
    61e8:	48 c7 c1 ff ff ff ff 	mov    rcx,0xffffffffffffffff
    61ef:	83 fb 01             	cmp    ebx,0x1
    61f2:	77 26                	ja     621a <__sprintf_chk@plt+0x4eca>
    61f4:	48 63 ed             	movsxd rbp,ebp
    61f7:	48 8d 05 22 1f 01 00 	lea    rax,[rip+0x11f22]        # 18120 <stdin@@GLIBC_2.2.5+0x10f0>
    61fe:	48 8b 0c e8          	mov    rcx,QWORD PTR [rax+rbp*8]
    6202:	eb 16                	jmp    621a <__sprintf_chk@plt+0x4eca>
    6204:	8b af d4 01 00 00    	mov    ebp,DWORD PTR [rdi+0x1d4]
    620a:	eb ca                	jmp    61d6 <__sprintf_chk@plt+0x4e86>
    620c:	48 63 ed             	movsxd rbp,ebp
    620f:	48 8d 05 0a 1d 01 00 	lea    rax,[rip+0x11d0a]        # 17f20 <stdin@@GLIBC_2.2.5+0xef0>
    6216:	48 8b 0c e8          	mov    rcx,QWORD PTR [rax+rbp*8]
    621a:	49 8b 84 24 08 01 00 	mov    rax,QWORD PTR [r12+0x108]
    6221:	00 
    6222:	48 89 c7             	mov    rdi,rax
    6225:	48 f7 d7             	not    rdi
    6228:	49 89 fd             	mov    r13,rdi
    622b:	49 21 cd             	and    r13,rcx
    622e:	41 83 bc 24 cc 01 00 	cmp    DWORD PTR [r12+0x1cc],0x0
    6235:	00 00 
    6237:	0f 84 ee 00 00 00    	je     632b <__sprintf_chk@plt+0x4fdb>
    623d:	49 8b b4 24 28 01 00 	mov    rsi,QWORD PTR [r12+0x128]
    6244:	00 
    6245:	48 89 f2             	mov    rdx,rsi
    6248:	48 c1 ea 08          	shr    rdx,0x8
    624c:	48 21 fa             	and    rdx,rdi
    624f:	49 89 d0             	mov    r8,rdx
    6252:	48 8b 15 c7 21 01 00 	mov    rdx,QWORD PTR [rip+0x121c7]        # 18420 <stdin@@GLIBC_2.2.5+0x13f0>
    6259:	c4 c2 e8 f2 d0       	andn   rdx,rdx,r8
    625e:	48 23 35 eb 21 01 00 	and    rsi,QWORD PTR [rip+0x121eb]        # 18450 <stdin@@GLIBC_2.2.5+0x1420>
    6265:	48 c1 ee 10          	shr    rsi,0x10
    6269:	48 c1 e8 08          	shr    rax,0x8
    626d:	c4 e2 f8 f2 c6       	andn   rax,rax,rsi
    6272:	48 21 f8             	and    rax,rdi
    6275:	48 89 44 24 20       	mov    QWORD PTR [rsp+0x20],rax
    627a:	48 09 d0             	or     rax,rdx
    627d:	48 21 c8             	and    rax,rcx
    6280:	48 89 44 24 18       	mov    QWORD PTR [rsp+0x18],rax
    6285:	0f 84 3a 01 00 00    	je     63c5 <__sprintf_chk@plt+0x5075>
    628b:	48 8b 5c 24 08       	mov    rbx,QWORD PTR [rsp+0x8]
    6290:	48 8d 2d 09 28 01 00 	lea    rbp,[rip+0x12809]        # 18aa0 <stdin@@GLIBC_2.2.5+0x1a70>
    6297:	48 8d 7c 24 18       	lea    rdi,[rsp+0x18]
    629c:	e8 79 c7 ff ff       	call   2a1a <__sprintf_chk@plt+0x16ca>
    62a1:	8d 50 08             	lea    edx,[rax+0x8]
    62a4:	48 63 ca             	movsxd rcx,edx
    62a7:	49 8b bc 24 28 01 00 	mov    rdi,QWORD PTR [r12+0x128]
    62ae:	00 
    62af:	8d 50 10             	lea    edx,[rax+0x10]
    62b2:	8d 70 08             	lea    esi,[rax+0x8]
    62b5:	48 85 7c cd 00       	test   QWORD PTR [rbp+rcx*8+0x0],rdi
    62ba:	0f 45 d6             	cmovne edx,esi
    62bd:	c1 e2 06             	shl    edx,0x6
    62c0:	09 c2                	or     edx,eax
    62c2:	81 ca 00 00 68 00    	or     edx,0x680000
    62c8:	89 13                	mov    DWORD PTR [rbx],edx
    62ca:	48 83 c3 04          	add    rbx,0x4
    62ce:	48 83 7c 24 18 00    	cmp    QWORD PTR [rsp+0x18],0x0
    62d4:	75 c1                	jne    6297 <__sprintf_chk@plt+0x4f47>
    62d6:	41 83 bc 24 cc 01 00 	cmp    DWORD PTR [r12+0x1cc],0x0
    62dd:	00 00 
    62df:	0f 85 e5 00 00 00    	jne    63ca <__sprintf_chk@plt+0x507a>
    62e5:	49 8b 84 24 40 01 00 	mov    rax,QWORD PTR [r12+0x140]
    62ec:	00 
    62ed:	48 89 44 24 18       	mov    QWORD PTR [rsp+0x18],rax
    62f2:	48 85 c0             	test   rax,rax
    62f5:	0f 85 e5 00 00 00    	jne    63e0 <__sprintf_chk@plt+0x5090>
    62fb:	49 8b 84 24 60 01 00 	mov    rax,QWORD PTR [r12+0x160]
    6302:	00 
    6303:	49 0b 84 24 70 01 00 	or     rax,QWORD PTR [r12+0x170]
    630a:	00 
    630b:	48 89 44 24 18       	mov    QWORD PTR [rsp+0x18],rax
    6310:	0f 85 6d 01 00 00    	jne    6483 <__sprintf_chk@plt+0x5133>
    6316:	49 8b 84 24 80 01 00 	mov    rax,QWORD PTR [r12+0x180]
    631d:	00 
    631e:	49 0b 84 24 70 01 00 	or     rax,QWORD PTR [r12+0x170]
    6325:	00 
    6326:	e9 ce 01 00 00       	jmp    64f9 <__sprintf_chk@plt+0x51a9>
    632b:	49 8b b4 24 30 01 00 	mov    rsi,QWORD PTR [r12+0x130]
    6332:	00 
    6333:	48 89 f2             	mov    rdx,rsi
    6336:	48 c1 e2 08          	shl    rdx,0x8
    633a:	48 21 fa             	and    rdx,rdi
    633d:	49 89 d0             	mov    r8,rdx
    6340:	48 8b 15 11 21 01 00 	mov    rdx,QWORD PTR [rip+0x12111]        # 18458 <stdin@@GLIBC_2.2.5+0x1428>
    6347:	c4 c2 e8 f2 d0       	andn   rdx,rdx,r8
    634c:	48 23 35 d5 20 01 00 	and    rsi,QWORD PTR [rip+0x120d5]        # 18428 <stdin@@GLIBC_2.2.5+0x13f8>
    6353:	48 c1 e6 10          	shl    rsi,0x10
    6357:	48 c1 e0 08          	shl    rax,0x8
    635b:	c4 e2 f8 f2 c6       	andn   rax,rax,rsi
    6360:	48 21 f8             	and    rax,rdi
    6363:	48 89 44 24 20       	mov    QWORD PTR [rsp+0x20],rax
    6368:	48 09 d0             	or     rax,rdx
    636b:	48 21 c8             	and    rax,rcx
    636e:	48 89 44 24 18       	mov    QWORD PTR [rsp+0x18],rax
    6373:	74 74                	je     63e9 <__sprintf_chk@plt+0x5099>
    6375:	48 8b 5c 24 08       	mov    rbx,QWORD PTR [rsp+0x8]
    637a:	48 8d 2d 1f 27 01 00 	lea    rbp,[rip+0x1271f]        # 18aa0 <stdin@@GLIBC_2.2.5+0x1a70>
    6381:	48 8d 7c 24 18       	lea    rdi,[rsp+0x18]
    6386:	e8 8f c6 ff ff       	call   2a1a <__sprintf_chk@plt+0x16ca>
    638b:	8d 50 f8             	lea    edx,[rax-0x8]
    638e:	48 63 ca             	movsxd rcx,edx
    6391:	49 8b bc 24 30 01 00 	mov    rdi,QWORD PTR [r12+0x130]
    6398:	00 
    6399:	8d 50 f0             	lea    edx,[rax-0x10]
    639c:	8d 70 f8             	lea    esi,[rax-0x8]
    639f:	48 85 7c cd 00       	test   QWORD PTR [rbp+rcx*8+0x0],rdi
    63a4:	0f 45 d6             	cmovne edx,esi
    63a7:	c1 e2 06             	shl    edx,0x6
    63aa:	09 c2                	or     edx,eax
    63ac:	81 ca 00 00 68 00    	or     edx,0x680000
    63b2:	89 13                	mov    DWORD PTR [rbx],edx
    63b4:	48 83 c3 04          	add    rbx,0x4
    63b8:	48 83 7c 24 18 00    	cmp    QWORD PTR [rsp+0x18],0x0
    63be:	75 c1                	jne    6381 <__sprintf_chk@plt+0x5031>
    63c0:	e9 11 ff ff ff       	jmp    62d6 <__sprintf_chk@plt+0x4f86>
    63c5:	48 8b 5c 24 08       	mov    rbx,QWORD PTR [rsp+0x8]
    63ca:	49 8b 84 24 38 01 00 	mov    rax,QWORD PTR [r12+0x138]
    63d1:	00 
    63d2:	48 89 44 24 18       	mov    QWORD PTR [rsp+0x18],rax
    63d7:	48 85 c0             	test   rax,rax
    63da:	0f 84 8c 00 00 00    	je     646c <__sprintf_chk@plt+0x511c>
    63e0:	4c 8d 3d b9 54 01 00 	lea    r15,[rip+0x154b9]        # 1b8a0 <stdin@@GLIBC_2.2.5+0x4870>
    63e7:	eb 50                	jmp    6439 <__sprintf_chk@plt+0x50e9>
    63e9:	48 8b 5c 24 08       	mov    rbx,QWORD PTR [rsp+0x8]
    63ee:	e9 f2 fe ff ff       	jmp    62e5 <__sprintf_chk@plt+0x4f95>
    63f3:	48 63 d0             	movsxd rdx,eax
    63f6:	4c 89 e9             	mov    rcx,r13
    63f9:	49 23 0c d7          	and    rcx,QWORD PTR [r15+rdx*8]
    63fd:	48 89 ca             	mov    rdx,rcx
    6400:	48 89 54 24 20       	mov    QWORD PTR [rsp+0x20],rdx
    6405:	c1 e0 06             	shl    eax,0x6
    6408:	89 c5                	mov    ebp,eax
    640a:	4c 8d 74 24 20       	lea    r14,[rsp+0x20]
    640f:	48 85 d2             	test   rdx,rdx
    6412:	74 1d                	je     6431 <__sprintf_chk@plt+0x50e1>
    6414:	4c 89 f7             	mov    rdi,r14
    6417:	e8 fe c5 ff ff       	call   2a1a <__sprintf_chk@plt+0x16ca>
    641c:	09 e8                	or     eax,ebp
    641e:	0d 00 00 68 00       	or     eax,0x680000
    6423:	89 03                	mov    DWORD PTR [rbx],eax
    6425:	48 83 c3 04          	add    rbx,0x4
    6429:	48 83 7c 24 20 00    	cmp    QWORD PTR [rsp+0x20],0x0
    642f:	75 e3                	jne    6414 <__sprintf_chk@plt+0x50c4>
    6431:	48 83 7c 24 18 00    	cmp    QWORD PTR [rsp+0x18],0x0
    6437:	74 24                	je     645d <__sprintf_chk@plt+0x510d>
    6439:	48 8d 7c 24 18       	lea    rdi,[rsp+0x18]
    643e:	e8 d7 c5 ff ff       	call   2a1a <__sprintf_chk@plt+0x16ca>
    6443:	41 83 bc 24 cc 01 00 	cmp    DWORD PTR [r12+0x1cc],0x0
    644a:	00 00 
    644c:	74 a5                	je     63f3 <__sprintf_chk@plt+0x50a3>
    644e:	48 63 d0             	movsxd rdx,eax
    6451:	4c 89 e9             	mov    rcx,r13
    6454:	49 23 0c d7          	and    rcx,QWORD PTR [r15+rdx*8]
    6458:	48 89 ca             	mov    rdx,rcx
    645b:	eb a3                	jmp    6400 <__sprintf_chk@plt+0x50b0>
    645d:	41 83 bc 24 cc 01 00 	cmp    DWORD PTR [r12+0x1cc],0x0
    6464:	00 00 
    6466:	0f 84 8f fe ff ff    	je     62fb <__sprintf_chk@plt+0x4fab>
    646c:	49 8b 84 24 58 01 00 	mov    rax,QWORD PTR [r12+0x158]
    6473:	00 
    6474:	49 0b 84 24 68 01 00 	or     rax,QWORD PTR [r12+0x168]
    647b:	00 
    647c:	48 89 44 24 18       	mov    QWORD PTR [rsp+0x18],rax
    6481:	74 66                	je     64e9 <__sprintf_chk@plt+0x5199>
    6483:	4c 8d 7c 24 18       	lea    r15,[rsp+0x18]
    6488:	eb 08                	jmp    6492 <__sprintf_chk@plt+0x5142>
    648a:	48 83 7c 24 18 00    	cmp    QWORD PTR [rsp+0x18],0x0
    6490:	74 48                	je     64da <__sprintf_chk@plt+0x518a>
    6492:	4c 89 ff             	mov    rdi,r15
    6495:	e8 80 c5 ff ff       	call   2a1a <__sprintf_chk@plt+0x16ca>
    649a:	89 c5                	mov    ebp,eax
    649c:	89 c6                	mov    esi,eax
    649e:	4c 89 e7             	mov    rdi,r12
    64a1:	e8 ff c4 ff ff       	call   29a5 <__sprintf_chk@plt+0x1655>
    64a6:	4c 21 e8             	and    rax,r13
    64a9:	48 89 44 24 20       	mov    QWORD PTR [rsp+0x20],rax
    64ae:	c1 e5 06             	shl    ebp,0x6
    64b1:	4c 8d 74 24 20       	lea    r14,[rsp+0x20]
    64b6:	48 85 c0             	test   rax,rax
    64b9:	74 cf                	je     648a <__sprintf_chk@plt+0x513a>
    64bb:	4c 89 f7             	mov    rdi,r14
    64be:	e8 57 c5 ff ff       	call   2a1a <__sprintf_chk@plt+0x16ca>
    64c3:	09 e8                	or     eax,ebp
    64c5:	0d 00 00 68 00       	or     eax,0x680000
    64ca:	89 03                	mov    DWORD PTR [rbx],eax
    64cc:	48 83 c3 04          	add    rbx,0x4
    64d0:	48 83 7c 24 20 00    	cmp    QWORD PTR [rsp+0x20],0x0
    64d6:	75 e3                	jne    64bb <__sprintf_chk@plt+0x516b>
    64d8:	eb b0                	jmp    648a <__sprintf_chk@plt+0x513a>
    64da:	41 83 bc 24 cc 01 00 	cmp    DWORD PTR [r12+0x1cc],0x0
    64e1:	00 00 
    64e3:	0f 84 2d fe ff ff    	je     6316 <__sprintf_chk@plt+0x4fc6>
    64e9:	49 8b 84 24 78 01 00 	mov    rax,QWORD PTR [r12+0x178]
    64f0:	00 
    64f1:	49 0b 84 24 68 01 00 	or     rax,QWORD PTR [r12+0x168]
    64f8:	00 
    64f9:	48 89 44 24 18       	mov    QWORD PTR [rsp+0x18],rax
    64fe:	48 85 c0             	test   rax,rax
    6501:	74 57                	je     655a <__sprintf_chk@plt+0x520a>
    6503:	4c 8d 7c 24 18       	lea    r15,[rsp+0x18]
    6508:	eb 08                	jmp    6512 <__sprintf_chk@plt+0x51c2>
    650a:	48 83 7c 24 18 00    	cmp    QWORD PTR [rsp+0x18],0x0
    6510:	74 48                	je     655a <__sprintf_chk@plt+0x520a>
    6512:	4c 89 ff             	mov    rdi,r15
    6515:	e8 00 c5 ff ff       	call   2a1a <__sprintf_chk@plt+0x16ca>
    651a:	89 c5                	mov    ebp,eax
    651c:	89 c6                	mov    esi,eax
    651e:	4c 89 e7             	mov    rdi,r12
    6521:	e8 51 c4 ff ff       	call   2977 <__sprintf_chk@plt+0x1627>
    6526:	4c 21 e8             	and    rax,r13
    6529:	48 89 44 24 20       	mov    QWORD PTR [rsp+0x20],rax
    652e:	c1 e5 06             	shl    ebp,0x6
    6531:	4c 8d 74 24 20       	lea    r14,[rsp+0x20]
    6536:	48 85 c0             	test   rax,rax
    6539:	74 cf                	je     650a <__sprintf_chk@plt+0x51ba>
    653b:	4c 89 f7             	mov    rdi,r14
    653e:	e8 d7 c4 ff ff       	call   2a1a <__sprintf_chk@plt+0x16ca>
    6543:	09 e8                	or     eax,ebp
    6545:	0d 00 00 68 00       	or     eax,0x680000
    654a:	89 03                	mov    DWORD PTR [rbx],eax
    654c:	48 83 c3 04          	add    rbx,0x4
    6550:	48 83 7c 24 20 00    	cmp    QWORD PTR [rsp+0x20],0x0
    6556:	75 e3                	jne    653b <__sprintf_chk@plt+0x51eb>
    6558:	eb b0                	jmp    650a <__sprintf_chk@plt+0x51ba>
    655a:	48 2b 5c 24 08       	sub    rbx,QWORD PTR [rsp+0x8]
    655f:	48 89 d8             	mov    rax,rbx
    6562:	48 c1 f8 02          	sar    rax,0x2
    6566:	48 8b 74 24 28       	mov    rsi,QWORD PTR [rsp+0x28]
    656b:	64 48 33 34 25 28 00 	xor    rsi,QWORD PTR fs:0x28
    6572:	00 00 
    6574:	75 0f                	jne    6585 <__sprintf_chk@plt+0x5235>
    6576:	48 83 c4 38          	add    rsp,0x38
    657a:	5b                   	pop    rbx
    657b:	5d                   	pop    rbp
    657c:	41 5c                	pop    r12
    657e:	41 5d                	pop    r13
    6580:	41 5e                	pop    r14
    6582:	41 5f                	pop    r15
    6584:	c3                   	ret    
    6585:	e8 b6 ac ff ff       	call   1240 <__stack_chk_fail@plt>
    658a:	f3 0f 1e fa          	endbr64 
    658e:	41 57                	push   r15
    6590:	41 56                	push   r14
    6592:	41 55                	push   r13
    6594:	41 54                	push   r12
    6596:	55                   	push   rbp
    6597:	53                   	push   rbx
    6598:	48 83 ec 18          	sub    rsp,0x18
    659c:	49 89 fd             	mov    r13,rdi
    659f:	49 89 f6             	mov    r14,rsi
    65a2:	41 89 d7             	mov    r15d,edx
    65a5:	64 48 8b 04 25 28 00 	mov    rax,QWORD PTR fs:0x28
    65ac:	00 00 
    65ae:	48 89 44 24 08       	mov    QWORD PTR [rsp+0x8],rax
    65b3:	31 c0                	xor    eax,eax
    65b5:	83 bf cc 01 00 00 00 	cmp    DWORD PTR [rdi+0x1cc],0x0
    65bc:	0f 84 82 00 00 00    	je     6644 <__sprintf_chk@plt+0x52f4>
    65c2:	8b af d0 01 00 00    	mov    ebp,DWORD PTR [rdi+0x1d0]
    65c8:	48 8b 87 08 01 00 00 	mov    rax,QWORD PTR [rdi+0x108]
    65cf:	48 63 cd             	movsxd rcx,ebp
    65d2:	48 8d 15 c7 50 01 00 	lea    rdx,[rip+0x150c7]        # 1b6a0 <stdin@@GLIBC_2.2.5+0x4670>
    65d9:	c4 e2 f8 f2 04 ca    	andn   rax,rax,QWORD PTR [rdx+rcx*8]
    65df:	48 89 04 24          	mov    QWORD PTR [rsp],rax
    65e3:	48 85 c0             	test   rax,rax
    65e6:	74 7e                	je     6666 <__sprintf_chk@plt+0x5316>
    65e8:	c1 e5 06             	shl    ebp,0x6
    65eb:	4c 89 f3             	mov    rbx,r14
    65ee:	49 89 e4             	mov    r12,rsp
    65f1:	4c 89 e7             	mov    rdi,r12
    65f4:	e8 21 c4 ff ff       	call   2a1a <__sprintf_chk@plt+0x16ca>
    65f9:	09 e8                	or     eax,ebp
    65fb:	0d 00 00 68 00       	or     eax,0x680000
    6600:	89 03                	mov    DWORD PTR [rbx],eax
    6602:	48 83 c3 04          	add    rbx,0x4
    6606:	48 83 3c 24 00       	cmp    QWORD PTR [rsp],0x0
    660b:	75 e4                	jne    65f1 <__sprintf_chk@plt+0x52a1>
    660d:	48 89 de             	mov    rsi,rbx
    6610:	4c 89 ef             	mov    rdi,r13
    6613:	e8 30 f1 ff ff       	call   5748 <__sprintf_chk@plt+0x43f8>
    6618:	48 98                	cdqe   
    661a:	48 8d 1c 83          	lea    rbx,[rbx+rax*4]
    661e:	41 8d 47 ff          	lea    eax,[r15-0x1]
    6622:	83 f8 05             	cmp    eax,0x5
    6625:	76 44                	jbe    666b <__sprintf_chk@plt+0x531b>
    6627:	44 89 fa             	mov    edx,r15d
    662a:	48 89 de             	mov    rsi,rbx
    662d:	4c 89 ef             	mov    rdi,r13
    6630:	e8 66 fb ff ff       	call   619b <__sprintf_chk@plt+0x4e4b>
    6635:	48 98                	cdqe   
    6637:	48 8d 04 83          	lea    rax,[rbx+rax*4]
    663b:	4c 29 f0             	sub    rax,r14
    663e:	48 c1 f8 02          	sar    rax,0x2
    6642:	eb 31                	jmp    6675 <__sprintf_chk@plt+0x5325>
    6644:	8b af d4 01 00 00    	mov    ebp,DWORD PTR [rdi+0x1d4]
    664a:	48 8b 87 08 01 00 00 	mov    rax,QWORD PTR [rdi+0x108]
    6651:	48 63 cd             	movsxd rcx,ebp
    6654:	48 8d 15 45 50 01 00 	lea    rdx,[rip+0x15045]        # 1b6a0 <stdin@@GLIBC_2.2.5+0x4670>
    665b:	c4 e2 f8 f2 04 ca    	andn   rax,rax,QWORD PTR [rdx+rcx*8]
    6661:	e9 79 ff ff ff       	jmp    65df <__sprintf_chk@plt+0x528f>
    6666:	4c 89 f3             	mov    rbx,r14
    6669:	eb a2                	jmp    660d <__sprintf_chk@plt+0x52bd>
    666b:	4c 29 f3             	sub    rbx,r14
    666e:	48 89 d8             	mov    rax,rbx
    6671:	48 c1 f8 02          	sar    rax,0x2
    6675:	48 8b 4c 24 08       	mov    rcx,QWORD PTR [rsp+0x8]
    667a:	64 48 33 0c 25 28 00 	xor    rcx,QWORD PTR fs:0x28
    6681:	00 00 
    6683:	75 0f                	jne    6694 <__sprintf_chk@plt+0x5344>
    6685:	48 83 c4 18          	add    rsp,0x18
    6689:	5b                   	pop    rbx
    668a:	5d                   	pop    rbp
    668b:	41 5c                	pop    r12
    668d:	41 5d                	pop    r13
    668f:	41 5e                	pop    r14
    6691:	41 5f                	pop    r15
    6693:	c3                   	ret    
    6694:	e8 a7 ab ff ff       	call   1240 <__stack_chk_fail@plt>
    6699:	f3 0f 1e fa          	endbr64 
    669d:	89 d0                	mov    eax,edx
    669f:	c1 e1 0c             	shl    ecx,0xc
    66a2:	89 ca                	mov    edx,ecx
    66a4:	09 c2                	or     edx,eax
    66a6:	c1 e6 06             	shl    esi,0x6
    66a9:	09 f2                	or     edx,esi
    66ab:	81 ca 00 00 68 00    	or     edx,0x680000
    66b1:	89 17                	mov    DWORD PTR [rdi],edx
    66b3:	48 8d 47 04          	lea    rax,[rdi+0x4]
    66b7:	c3                   	ret    
    66b8:	f3 0f 1e fa          	endbr64 
    66bc:	c1 e6 06             	shl    esi,0x6
    66bf:	09 d6                	or     esi,edx
    66c1:	41 c1 e0 0c          	shl    r8d,0xc
    66c5:	44 09 c6             	or     esi,r8d
    66c8:	c1 e1 13             	shl    ecx,0x13
    66cb:	09 ce                	or     esi,ecx
    66cd:	41 c1 e1 17          	shl    r9d,0x17
    66d1:	44 09 ce             	or     esi,r9d
    66d4:	89 37                	mov    DWORD PTR [rdi],esi
    66d6:	48 8d 47 04          	lea    rax,[rdi+0x4]
    66da:	c3                   	ret    
    66db:	f3 0f 1e fa          	endbr64 
    66df:	89 d0                	mov    eax,edx
    66e1:	c1 e1 10             	shl    ecx,0x10
    66e4:	89 ca                	mov    edx,ecx
    66e6:	09 c2                	or     edx,eax
    66e8:	c1 e6 06             	shl    esi,0x6
    66eb:	09 f2                	or     edx,esi
    66ed:	81 ca 00 00 68 00    	or     edx,0x680000
    66f3:	89 17                	mov    DWORD PTR [rdi],edx
    66f5:	48 8d 47 04          	lea    rax,[rdi+0x4]
    66f9:	c3                   	ret    
    66fa:	f3 0f 1e fa          	endbr64 
    66fe:	48 83 ec 08          	sub    rsp,0x8
    6702:	c7 05 f4 78 b3 00 c0 	mov    DWORD PTR [rip+0xb378f4],0xe4e1c0        # b3e000 <stdin@@GLIBC_2.2.5+0xb26fd0>
    6709:	e1 e4 00 
    670c:	48 b8 73 6a 65 6e 67 	movabs rax,0x6f6c2e676e656a73
    6713:	2e 6c 6f 
    6716:	48 89 05 c3 76 b3 00 	mov    QWORD PTR [rip+0xb376c3],rax        # b3dde0 <stdin@@GLIBC_2.2.5+0xb26db0>
    671d:	66 c7 05 c2 76 b3 00 	mov    WORD PTR [rip+0xb376c2],0x67        # b3dde8 <stdin@@GLIBC_2.2.5+0xb26db8>
    6724:	67 00 
    6726:	c7 05 b0 78 b3 00 00 	mov    DWORD PTR [rip+0xb378b0],0x0        # b3dfe0 <stdin@@GLIBC_2.2.5+0xb26fb0>
    672d:	00 00 00 
    6730:	c7 05 96 76 b3 00 00 	mov    DWORD PTR [rip+0xb37696],0x0        # b3ddd0 <stdin@@GLIBC_2.2.5+0xb26da0>
    6737:	00 00 00 
    673a:	c7 47 38 3c 00 00 00 	mov    DWORD PTR [rdi+0x38],0x3c
    6741:	c7 05 b1 78 b3 00 00 	mov    DWORD PTR [rip+0xb378b1],0x0        # b3dffc <stdin@@GLIBC_2.2.5+0xb26fcc>
    6748:	00 00 00 
    674b:	c7 05 a3 78 b3 00 00 	mov    DWORD PTR [rip+0xb378a3],0x0        # b3dff8 <stdin@@GLIBC_2.2.5+0xb26fc8>
    6752:	00 00 00 
    6755:	c7 05 95 78 b3 00 00 	mov    DWORD PTR [rip+0xb37895],0x0        # b3dff4 <stdin@@GLIBC_2.2.5+0xb26fc4>
    675c:	00 00 00 
    675f:	c7 05 87 78 b3 00 00 	mov    DWORD PTR [rip+0xb37887],0x0        # b3dff0 <stdin@@GLIBC_2.2.5+0xb26fc0>
    6766:	00 00 00 
    6769:	c7 05 79 78 b3 00 00 	mov    DWORD PTR [rip+0xb37879],0x0        # b3dfec <stdin@@GLIBC_2.2.5+0xb26fbc>
    6770:	00 00 00 
    6773:	c7 05 6b 78 b3 00 b8 	mov    DWORD PTR [rip+0xb3786b],0xbb8        # b3dfe8 <stdin@@GLIBC_2.2.5+0xb26fb8>
    677a:	0b 00 00 
    677d:	c7 05 5d 78 b3 00 01 	mov    DWORD PTR [rip+0xb3785d],0x1        # b3dfe4 <stdin@@GLIBC_2.2.5+0xb26fb4>
    6784:	00 00 00 
    6787:	e8 06 8c 00 00       	call   f392 <__sprintf_chk@plt+0xe042>
    678c:	48 83 c4 08          	add    rsp,0x8
    6790:	c3                   	ret    
    6791:	f3 0f 1e fa          	endbr64 
    6795:	41 57                	push   r15
    6797:	41 56                	push   r14
    6799:	41 55                	push   r13
    679b:	41 54                	push   r12
    679d:	55                   	push   rbp
    679e:	53                   	push   rbx
    679f:	89 f0                	mov    eax,esi
    67a1:	c1 f8 06             	sar    eax,0x6
    67a4:	83 e0 3f             	and    eax,0x3f
    67a7:	89 f2                	mov    edx,esi
    67a9:	83 e2 3f             	and    edx,0x3f
    67ac:	89 f1                	mov    ecx,esi
    67ae:	c1 f9 0c             	sar    ecx,0xc
    67b1:	83 e1 0f             	and    ecx,0xf
    67b4:	89 4c 24 f4          	mov    DWORD PTR [rsp-0xc],ecx
    67b8:	89 f1                	mov    ecx,esi
    67ba:	c1 f9 13             	sar    ecx,0x13
    67bd:	83 e1 0f             	and    ecx,0xf
    67c0:	89 f5                	mov    ebp,esi
    67c2:	c1 fd 17             	sar    ebp,0x17
    67c5:	83 e5 01             	and    ebp,0x1
    67c8:	c1 fe 10             	sar    esi,0x10
    67cb:	83 e6 07             	and    esi,0x7
    67ce:	89 74 24 f0          	mov    DWORD PTR [rsp-0x10],esi
    67d2:	8b b7 d8 01 00 00    	mov    esi,DWORD PTR [rdi+0x1d8]
    67d8:	44 8b 87 c8 01 00 00 	mov    r8d,DWORD PTR [rdi+0x1c8]
    67df:	48 63 de             	movsxd rbx,esi
    67e2:	48 c1 e3 05          	shl    rbx,0x5
    67e6:	48 01 fb             	add    rbx,rdi
    67e9:	44 89 83 f0 01 00 00 	mov    DWORD PTR [rbx+0x1f0],r8d
    67f0:	45 85 c0             	test   r8d,r8d
    67f3:	74 0a                	je     67ff <__sprintf_chk@plt+0x54af>
    67f5:	c7 87 c8 01 00 00 00 	mov    DWORD PTR [rdi+0x1c8],0x0
    67fc:	00 00 00 
    67ff:	44 8b 9f dc 01 00 00 	mov    r11d,DWORD PTR [rdi+0x1dc]
    6806:	44 89 9b f4 01 00 00 	mov    DWORD PTR [rbx+0x1f4],r11d
    680d:	44 8b bf c4 01 00 00 	mov    r15d,DWORD PTR [rdi+0x1c4]
    6814:	44 89 7c 24 f8       	mov    DWORD PTR [rsp-0x8],r15d
    6819:	44 89 bb f8 01 00 00 	mov    DWORD PTR [rbx+0x1f8],r15d
    6820:	44 8b 87 8c 01 00 00 	mov    r8d,DWORD PTR [rdi+0x18c]
    6827:	44 89 83 fc 01 00 00 	mov    DWORD PTR [rbx+0x1fc],r8d
    682e:	4c 63 c8             	movsxd r9,eax
    6831:	4e 8d 14 8f          	lea    r10,[rdi+r9*4]
    6835:	45 8b 62 04          	mov    r12d,DWORD PTR [r10+0x4]
    6839:	45 8d 4c 24 01       	lea    r9d,[r12+0x1]
    683e:	41 d1 f9             	sar    r9d,1
    6841:	41 83 f9 01          	cmp    r9d,0x1
    6845:	74 09                	je     6850 <__sprintf_chk@plt+0x5500>
    6847:	83 f9 0d             	cmp    ecx,0xd
    684a:	0f 84 01 01 00 00    	je     6951 <__sprintf_chk@plt+0x5601>
    6850:	c7 87 dc 01 00 00 00 	mov    DWORD PTR [rdi+0x1dc],0x0
    6857:	00 00 00 
    685a:	4c 8b 8f e0 01 00 00 	mov    r9,QWORD PTR [rdi+0x1e0]
    6861:	4c 89 8b 00 02 00 00 	mov    QWORD PTR [rbx+0x200],r9
    6868:	4c 8b 9f e8 01 00 00 	mov    r11,QWORD PTR [rdi+0x1e8]
    686f:	4c 89 9b 08 02 00 00 	mov    QWORD PTR [rbx+0x208],r11
    6876:	4c 8d 2d 23 22 01 00 	lea    r13,[rip+0x12223]        # 18aa0 <stdin@@GLIBC_2.2.5+0x1a70>
    687d:	48 63 da             	movsxd rbx,edx
    6880:	49 8b 5c dd 00       	mov    rbx,QWORD PTR [r13+rbx*8+0x0]
    6885:	4c 63 f0             	movsxd r14,eax
    6888:	49 89 df             	mov    r15,rbx
    688b:	4f 0b 7c f5 00       	or     r15,QWORD PTR [r13+r14*8+0x0]
    6890:	4d 89 fd             	mov    r13,r15
    6893:	85 ed                	test   ebp,ebp
    6895:	0f 85 ff 00 00 00    	jne    699a <__sprintf_chk@plt+0x564a>
    689b:	83 f9 0d             	cmp    ecx,0xd
    689e:	0f 84 93 01 00 00    	je     6a37 <__sprintf_chk@plt+0x56e7>
    68a4:	4c 63 e1             	movsxd r12,ecx
    68a7:	4a 31 9c e7 20 01 00 	xor    QWORD PTR [rdi+r12*8+0x120],rbx
    68ae:	00 
    68af:	44 8d 79 01          	lea    r15d,[rcx+0x1]
    68b3:	44 89 7c 24 fc       	mov    DWORD PTR [rsp-0x4],r15d
    68b8:	f6 c1 01             	test   cl,0x1
    68bb:	0f 84 ee 02 00 00    	je     6baf <__sprintf_chk@plt+0x585f>
    68c1:	48 31 9f 18 01 00 00 	xor    QWORD PTR [rdi+0x118],rbx
    68c8:	48 63 e9             	movsxd rbp,ecx
    68cb:	4c 8d 35 8e bd 00 00 	lea    r14,[rip+0xbd8e]        # 12660 <__sprintf_chk@plt+0x11310>
    68d2:	45 8b 34 ae          	mov    r14d,DWORD PTR [r14+rbp*4]
    68d6:	44 29 b7 88 01 00 00 	sub    DWORD PTR [rdi+0x188],r14d
    68dd:	42 ff 8c a7 90 01 00 	dec    DWORD PTR [rdi+r12*4+0x190]
    68e4:	00 
    68e5:	4c 63 f2             	movsxd r14,edx
    68e8:	44 8d 61 ff          	lea    r12d,[rcx-0x1]
    68ec:	4d 63 e4             	movsxd r12,r12d
    68ef:	49 c1 e4 06          	shl    r12,0x6
    68f3:	4d 89 e7             	mov    r15,r12
    68f6:	4c 8d 25 a3 51 b2 00 	lea    r12,[rip+0xb251a3]        # b2baa0 <stdin@@GLIBC_2.2.5+0xb14a70>
    68fd:	4d 01 fc             	add    r12,r15
    6900:	47 0f be 24 34       	movsx  r12d,BYTE PTR [r12+r14*1]
    6905:	45 29 e0             	sub    r8d,r12d
    6908:	44 89 87 8c 01 00 00 	mov    DWORD PTR [rdi+0x18c],r8d
    690f:	48 c1 e5 06          	shl    rbp,0x6
    6913:	49 01 ee             	add    r14,rbp
    6916:	4c 8d 05 e3 38 b8 00 	lea    r8,[rip+0xb838e3]        # b8a200 <stdin@@GLIBC_2.2.5+0xb731d0>
    691d:	4f 33 0c f0          	xor    r9,QWORD PTR [r8+r14*8]
    6921:	4c 89 8f e0 01 00 00 	mov    QWORD PTR [rdi+0x1e0],r9
    6928:	44 8b 44 24 fc       	mov    r8d,DWORD PTR [rsp-0x4]
    692d:	41 d1 f8             	sar    r8d,1
    6930:	41 83 f8 01          	cmp    r8d,0x1
    6934:	0f 85 fd 00 00 00    	jne    6a37 <__sprintf_chk@plt+0x56e7>
    693a:	4c 8d 05 bf 38 b8 00 	lea    r8,[rip+0xb838bf]        # b8a200 <stdin@@GLIBC_2.2.5+0xb731d0>
    6941:	4f 33 1c f0          	xor    r11,QWORD PTR [r8+r14*8]
    6945:	4c 89 9f e8 01 00 00 	mov    QWORD PTR [rdi+0x1e8],r11
    694c:	e9 e6 00 00 00       	jmp    6a37 <__sprintf_chk@plt+0x56e7>
    6951:	41 ff c3             	inc    r11d
    6954:	44 89 9f dc 01 00 00 	mov    DWORD PTR [rdi+0x1dc],r11d
    695b:	4c 8b 8f e0 01 00 00 	mov    r9,QWORD PTR [rdi+0x1e0]
    6962:	4c 89 8b 00 02 00 00 	mov    QWORD PTR [rbx+0x200],r9
    6969:	4c 8b 9f e8 01 00 00 	mov    r11,QWORD PTR [rdi+0x1e8]
    6970:	4c 89 9b 08 02 00 00 	mov    QWORD PTR [rbx+0x208],r11
    6977:	48 8d 0d 22 21 01 00 	lea    rcx,[rip+0x12122]        # 18aa0 <stdin@@GLIBC_2.2.5+0x1a70>
    697e:	48 63 da             	movsxd rbx,edx
    6981:	48 8b 1c d9          	mov    rbx,QWORD PTR [rcx+rbx*8]
    6985:	4c 63 e8             	movsxd r13,eax
    6988:	49 89 df             	mov    r15,rbx
    698b:	4e 0b 3c e9          	or     r15,QWORD PTR [rcx+r13*8]
    698f:	4d 89 fd             	mov    r13,r15
    6992:	85 ed                	test   ebp,ebp
    6994:	0f 84 9d 00 00 00    	je     6a37 <__sprintf_chk@plt+0x56e7>
    699a:	41 83 fc 02          	cmp    r12d,0x2
    699e:	0f 84 17 02 00 00    	je     6bbb <__sprintf_chk@plt+0x586b>
    69a4:	8d 4a 08             	lea    ecx,[rdx+0x8]
    69a7:	4c 8d 25 f2 1e 01 00 	lea    r12,[rip+0x11ef2]        # 188a0 <stdin@@GLIBC_2.2.5+0x1870>
    69ae:	48 63 e9             	movsxd rbp,ecx
    69b1:	4d 8b 34 ec          	mov    r14,QWORD PTR [r12+rbp*8]
    69b5:	4c 21 b7 10 01 00 00 	and    QWORD PTR [rdi+0x110],r14
    69bc:	4d 8b 24 ec          	mov    r12,QWORD PTR [r12+rbp*8]
    69c0:	4c 21 a7 30 01 00 00 	and    QWORD PTR [rdi+0x130],r12
    69c7:	4c 8d 25 32 38 b8 00 	lea    r12,[rip+0xb83832]        # b8a200 <stdin@@GLIBC_2.2.5+0xb731d0>
    69ce:	4d 33 8c ec 00 04 00 	xor    r9,QWORD PTR [r12+rbp*8+0x400]
    69d5:	00 
    69d6:	4c 89 8f e0 01 00 00 	mov    QWORD PTR [rdi+0x1e0],r9
    69dd:	4d 33 9c ec 00 04 00 	xor    r11,QWORD PTR [r12+rbp*8+0x400]
    69e4:	00 
    69e5:	4c 89 9f e8 01 00 00 	mov    QWORD PTR [rdi+0x1e8],r11
    69ec:	44 8b 0d 75 bc 00 00 	mov    r9d,DWORD PTR [rip+0xbc75]        # 12668 <__sprintf_chk@plt+0x11318>
    69f3:	44 29 8f 88 01 00 00 	sub    DWORD PTR [rdi+0x188],r9d
    69fa:	ff 8f 98 01 00 00    	dec    DWORD PTR [rdi+0x198]
    6a00:	48 63 c9             	movsxd rcx,ecx
    6a03:	4c 8d 1c 8f          	lea    r11,[rdi+rcx*4]
    6a07:	45 8b 7b 04          	mov    r15d,DWORD PTR [r11+0x4]
    6a0b:	45 8d 4f ff          	lea    r9d,[r15-0x1]
    6a0f:	4d 63 c9             	movsxd r9,r9d
    6a12:	49 c1 e1 06          	shl    r9,0x6
    6a16:	48 8d 2d 83 50 b2 00 	lea    rbp,[rip+0xb25083]        # b2baa0 <stdin@@GLIBC_2.2.5+0xb14a70>
    6a1d:	49 01 e9             	add    r9,rbp
    6a20:	41 0f be 0c 09       	movsx  ecx,BYTE PTR [r9+rcx*1]
    6a25:	41 29 c8             	sub    r8d,ecx
    6a28:	44 89 87 8c 01 00 00 	mov    DWORD PTR [rdi+0x18c],r8d
    6a2f:	41 c7 43 04 0d 00 00 	mov    DWORD PTR [r11+0x4],0xd
    6a36:	00 
    6a37:	41 8b 4a 04          	mov    ecx,DWORD PTR [r10+0x4]
    6a3b:	41 c7 42 04 0d 00 00 	mov    DWORD PTR [r10+0x4],0xd
    6a42:	00 
    6a43:	4c 63 d2             	movsxd r10,edx
    6a46:	4e 8d 1c 97          	lea    r11,[rdi+r10*4]
    6a4a:	41 89 4b 04          	mov    DWORD PTR [r11+0x4],ecx
    6a4e:	44 8d 41 ff          	lea    r8d,[rcx-0x1]
    6a52:	4c 63 c8             	movsxd r9,eax
    6a55:	4d 63 c0             	movsxd r8,r8d
    6a58:	49 c1 e0 06          	shl    r8,0x6
    6a5c:	48 8d 2d 3d 50 b2 00 	lea    rbp,[rip+0xb2503d]        # b2baa0 <stdin@@GLIBC_2.2.5+0xb14a70>
    6a63:	49 01 e8             	add    r8,rbp
    6a66:	47 0f be 0c 08       	movsx  r9d,BYTE PTR [r8+r9*1]
    6a6b:	44 8b b7 8c 01 00 00 	mov    r14d,DWORD PTR [rdi+0x18c]
    6a72:	45 29 ce             	sub    r14d,r9d
    6a75:	45 89 f1             	mov    r9d,r14d
    6a78:	44 89 b7 8c 01 00 00 	mov    DWORD PTR [rdi+0x18c],r14d
    6a7f:	47 0f be 04 10       	movsx  r8d,BYTE PTR [r8+r10*1]
    6a84:	45 01 c1             	add    r9d,r8d
    6a87:	44 89 8f 8c 01 00 00 	mov    DWORD PTR [rdi+0x18c],r9d
    6a8e:	44 8d 51 01          	lea    r10d,[rcx+0x1]
    6a92:	45 89 d0             	mov    r8d,r10d
    6a95:	41 d1 f8             	sar    r8d,1
    6a98:	41 83 f8 01          	cmp    r8d,0x1
    6a9c:	0f 84 7a 01 00 00    	je     6c1c <__sprintf_chk@plt+0x58cc>
    6aa2:	4c 63 c0             	movsxd r8,eax
    6aa5:	48 63 e9             	movsxd rbp,ecx
    6aa8:	48 c1 e5 06          	shl    rbp,0x6
    6aac:	49 01 e8             	add    r8,rbp
    6aaf:	4c 8b a7 e0 01 00 00 	mov    r12,QWORD PTR [rdi+0x1e0]
    6ab6:	48 8d 2d 43 37 b8 00 	lea    rbp,[rip+0xb83743]        # b8a200 <stdin@@GLIBC_2.2.5+0xb731d0>
    6abd:	4e 33 64 c5 00       	xor    r12,QWORD PTR [rbp+r8*8+0x0]
    6ac2:	4c 89 a7 e0 01 00 00 	mov    QWORD PTR [rdi+0x1e0],r12
    6ac9:	83 7c 24 f0 00       	cmp    DWORD PTR [rsp-0x10],0x0
    6ace:	75 1c                	jne    6aec <__sprintf_chk@plt+0x579c>
    6ad0:	4c 63 c1             	movsxd r8,ecx
    6ad3:	4e 31 ac c7 20 01 00 	xor    QWORD PTR [rdi+r8*8+0x120],r13
    6ada:	00 
    6adb:	41 f6 c2 01          	test   r10b,0x1
    6adf:	0f 85 5c 01 00 00    	jne    6c41 <__sprintf_chk@plt+0x58f1>
    6ae5:	4c 31 af 18 01 00 00 	xor    QWORD PTR [rdi+0x118],r13
    6aec:	83 b7 cc 01 00 00 01 	xor    DWORD PTR [rdi+0x1cc],0x1
    6af3:	ff c6                	inc    esi
    6af5:	89 b7 d8 01 00 00    	mov    DWORD PTR [rdi+0x1d8],esi
    6afb:	83 f9 01             	cmp    ecx,0x1
    6afe:	0f 84 49 01 00 00    	je     6c4d <__sprintf_chk@plt+0x58fd>
    6b04:	83 f9 02             	cmp    ecx,0x2
    6b07:	0f 84 24 02 00 00    	je     6d31 <__sprintf_chk@plt+0x59e1>
    6b0d:	8d 71 fb             	lea    esi,[rcx-0x5]
    6b10:	83 fe 01             	cmp    esi,0x1
    6b13:	0f 86 fd 02 00 00    	jbe    6e16 <__sprintf_chk@plt+0x5ac6>
    6b19:	4c 63 c2             	movsxd r8,edx
    6b1c:	48 63 f1             	movsxd rsi,ecx
    6b1f:	48 c1 e6 06          	shl    rsi,0x6
    6b23:	4c 89 c1             	mov    rcx,r8
    6b26:	48 01 f1             	add    rcx,rsi
    6b29:	48 8d 35 d0 36 b8 00 	lea    rsi,[rip+0xb836d0]        # b8a200 <stdin@@GLIBC_2.2.5+0xb731d0>
    6b30:	4c 33 24 ce          	xor    r12,QWORD PTR [rsi+rcx*8]
    6b34:	4c 89 a7 e0 01 00 00 	mov    QWORD PTR [rdi+0x1e0],r12
    6b3b:	8b 8f 28 11 00 00    	mov    ecx,DWORD PTR [rdi+0x1128]
    6b41:	39 d1                	cmp    ecx,edx
    6b43:	74 04                	je     6b49 <__sprintf_chk@plt+0x57f9>
    6b45:	39 c1                	cmp    ecx,eax
    6b47:	75 07                	jne    6b50 <__sprintf_chk@plt+0x5800>
    6b49:	83 a7 c4 01 00 00 f7 	and    DWORD PTR [rdi+0x1c4],0xfffffff7
    6b50:	8b 8f 24 11 00 00    	mov    ecx,DWORD PTR [rdi+0x1124]
    6b56:	39 d1                	cmp    ecx,edx
    6b58:	74 04                	je     6b5e <__sprintf_chk@plt+0x580e>
    6b5a:	39 c1                	cmp    ecx,eax
    6b5c:	75 07                	jne    6b65 <__sprintf_chk@plt+0x5815>
    6b5e:	83 a7 c4 01 00 00 ef 	and    DWORD PTR [rdi+0x1c4],0xffffffef
    6b65:	8b 8f 20 11 00 00    	mov    ecx,DWORD PTR [rdi+0x1120]
    6b6b:	39 d1                	cmp    ecx,edx
    6b6d:	74 04                	je     6b73 <__sprintf_chk@plt+0x5823>
    6b6f:	39 c1                	cmp    ecx,eax
    6b71:	75 07                	jne    6b7a <__sprintf_chk@plt+0x582a>
    6b73:	83 a7 c4 01 00 00 fd 	and    DWORD PTR [rdi+0x1c4],0xfffffffd
    6b7a:	8b 8f 1c 11 00 00    	mov    ecx,DWORD PTR [rdi+0x111c]
    6b80:	39 d1                	cmp    ecx,edx
    6b82:	74 04                	je     6b88 <__sprintf_chk@plt+0x5838>
    6b84:	39 c1                	cmp    ecx,eax
    6b86:	75 07                	jne    6b8f <__sprintf_chk@plt+0x583f>
    6b88:	83 a7 c4 01 00 00 fb 	and    DWORD PTR [rdi+0x1c4],0xfffffffb
    6b8f:	48 8b 87 18 01 00 00 	mov    rax,QWORD PTR [rdi+0x118]
    6b96:	48 0b 87 10 01 00 00 	or     rax,QWORD PTR [rdi+0x110]
    6b9d:	48 89 87 08 01 00 00 	mov    QWORD PTR [rdi+0x108],rax
    6ba4:	5b                   	pop    rbx
    6ba5:	5d                   	pop    rbp
    6ba6:	41 5c                	pop    r12
    6ba8:	41 5d                	pop    r13
    6baa:	41 5e                	pop    r14
    6bac:	41 5f                	pop    r15
    6bae:	c3                   	ret    
    6baf:	48 31 9f 10 01 00 00 	xor    QWORD PTR [rdi+0x110],rbx
    6bb6:	e9 0d fd ff ff       	jmp    68c8 <__sprintf_chk@plt+0x5578>
    6bbb:	8d 4a f8             	lea    ecx,[rdx-0x8]
    6bbe:	4c 8d 25 db 1c 01 00 	lea    r12,[rip+0x11cdb]        # 188a0 <stdin@@GLIBC_2.2.5+0x1870>
    6bc5:	48 63 e9             	movsxd rbp,ecx
    6bc8:	4d 8b 34 ec          	mov    r14,QWORD PTR [r12+rbp*8]
    6bcc:	4c 21 b7 18 01 00 00 	and    QWORD PTR [rdi+0x118],r14
    6bd3:	4d 8b 24 ec          	mov    r12,QWORD PTR [r12+rbp*8]
    6bd7:	4c 21 a7 28 01 00 00 	and    QWORD PTR [rdi+0x128],r12
    6bde:	4c 8d 25 1b 36 b8 00 	lea    r12,[rip+0xb8361b]        # b8a200 <stdin@@GLIBC_2.2.5+0xb731d0>
    6be5:	4d 33 8c ec 00 02 00 	xor    r9,QWORD PTR [r12+rbp*8+0x200]
    6bec:	00 
    6bed:	4c 89 8f e0 01 00 00 	mov    QWORD PTR [rdi+0x1e0],r9
    6bf4:	4d 33 9c ec 00 02 00 	xor    r11,QWORD PTR [r12+rbp*8+0x200]
    6bfb:	00 
    6bfc:	4c 89 9f e8 01 00 00 	mov    QWORD PTR [rdi+0x1e8],r11
    6c03:	44 8b 0d 5a ba 00 00 	mov    r9d,DWORD PTR [rip+0xba5a]        # 12664 <__sprintf_chk@plt+0x11314>
    6c0a:	44 29 8f 88 01 00 00 	sub    DWORD PTR [rdi+0x188],r9d
    6c11:	ff 8f 94 01 00 00    	dec    DWORD PTR [rdi+0x194]
    6c17:	e9 e4 fd ff ff       	jmp    6a00 <__sprintf_chk@plt+0x56b0>
    6c1c:	4c 63 c0             	movsxd r8,eax
    6c1f:	48 63 e9             	movsxd rbp,ecx
    6c22:	48 c1 e5 06          	shl    rbp,0x6
    6c26:	49 01 e8             	add    r8,rbp
    6c29:	48 8d 2d d0 35 b8 00 	lea    rbp,[rip+0xb835d0]        # b8a200 <stdin@@GLIBC_2.2.5+0xb731d0>
    6c30:	4e 8b 44 c5 00       	mov    r8,QWORD PTR [rbp+r8*8+0x0]
    6c35:	4c 31 87 e8 01 00 00 	xor    QWORD PTR [rdi+0x1e8],r8
    6c3c:	e9 61 fe ff ff       	jmp    6aa2 <__sprintf_chk@plt+0x5752>
    6c41:	4c 31 af 10 01 00 00 	xor    QWORD PTR [rdi+0x110],r13
    6c48:	e9 9f fe ff ff       	jmp    6aec <__sprintf_chk@plt+0x579c>
    6c4d:	44 8b 7c 24 f4       	mov    r15d,DWORD PTR [rsp-0xc]
    6c52:	45 85 ff             	test   r15d,r15d
    6c55:	0f 84 97 00 00 00    	je     6cf2 <__sprintf_chk@plt+0x59a2>
    6c5b:	45 89 7b 04          	mov    DWORD PTR [r11+0x4],r15d
    6c5f:	48 8d 35 3a 4e b2 00 	lea    rsi,[rip+0xb24e3a]        # b2baa0 <stdin@@GLIBC_2.2.5+0xb14a70>
    6c66:	4c 63 c2             	movsxd r8,edx
    6c69:	42 0f be 0c 06       	movsx  ecx,BYTE PTR [rsi+r8*1]
    6c6e:	41 29 c9             	sub    r9d,ecx
    6c71:	44 89 8f 8c 01 00 00 	mov    DWORD PTR [rdi+0x18c],r9d
    6c78:	41 8d 4f ff          	lea    ecx,[r15-0x1]
    6c7c:	48 63 c9             	movsxd rcx,ecx
    6c7f:	48 c1 e1 06          	shl    rcx,0x6
    6c83:	48 01 f1             	add    rcx,rsi
    6c86:	42 0f be 0c 01       	movsx  ecx,BYTE PTR [rcx+r8*1]
    6c8b:	41 01 c9             	add    r9d,ecx
    6c8e:	44 89 8f 8c 01 00 00 	mov    DWORD PTR [rdi+0x18c],r9d
    6c95:	49 63 cf             	movsxd rcx,r15d
    6c98:	48 89 ce             	mov    rsi,rcx
    6c9b:	48 c1 e6 06          	shl    rsi,0x6
    6c9f:	4c 01 c6             	add    rsi,r8
    6ca2:	4c 8d 05 57 35 b8 00 	lea    r8,[rip+0xb83557]        # b8a200 <stdin@@GLIBC_2.2.5+0xb731d0>
    6ca9:	4d 33 24 f0          	xor    r12,QWORD PTR [r8+rsi*8]
    6cad:	4c 89 a7 e0 01 00 00 	mov    QWORD PTR [rdi+0x1e0],r12
    6cb4:	ff 8f 94 01 00 00    	dec    DWORD PTR [rdi+0x194]
    6cba:	ff 84 8f 90 01 00 00 	inc    DWORD PTR [rdi+rcx*4+0x190]
    6cc1:	8b b7 88 01 00 00    	mov    esi,DWORD PTR [rdi+0x188]
    6cc7:	2b 35 97 b9 00 00    	sub    esi,DWORD PTR [rip+0xb997]        # 12664 <__sprintf_chk@plt+0x11314>
    6ccd:	4c 8d 05 8c b9 00 00 	lea    r8,[rip+0xb98c]        # 12660 <__sprintf_chk@plt+0x11310>
    6cd4:	41 03 34 88          	add    esi,DWORD PTR [r8+rcx*4]
    6cd8:	89 b7 88 01 00 00    	mov    DWORD PTR [rdi+0x188],esi
    6cde:	48 09 9c cf 20 01 00 	or     QWORD PTR [rdi+rcx*8+0x120],rbx
    6ce5:	00 
    6ce6:	48 31 9f 28 01 00 00 	xor    QWORD PTR [rdi+0x128],rbx
    6ced:	e9 49 fe ff ff       	jmp    6b3b <__sprintf_chk@plt+0x57eb>
    6cf2:	8d 48 f0             	lea    ecx,[rax-0x10]
    6cf5:	39 d1                	cmp    ecx,edx
    6cf7:	74 2d                	je     6d26 <__sprintf_chk@plt+0x59d6>
    6cf9:	48 8d 0d 00 35 b8 00 	lea    rcx,[rip+0xb83500]        # b8a200 <stdin@@GLIBC_2.2.5+0xb731d0>
    6d00:	48 63 f2             	movsxd rsi,edx
    6d03:	4c 33 a4 f1 00 02 00 	xor    r12,QWORD PTR [rcx+rsi*8+0x200]
    6d0a:	00 
    6d0b:	4c 89 a7 e0 01 00 00 	mov    QWORD PTR [rdi+0x1e0],r12
    6d12:	48 8b 8c f1 00 02 00 	mov    rcx,QWORD PTR [rcx+rsi*8+0x200]
    6d19:	00 
    6d1a:	48 31 8f e8 01 00 00 	xor    QWORD PTR [rdi+0x1e8],rcx
    6d21:	e9 15 fe ff ff       	jmp    6b3b <__sprintf_chk@plt+0x57eb>
    6d26:	8d 48 f8             	lea    ecx,[rax-0x8]
    6d29:	89 8f c8 01 00 00    	mov    DWORD PTR [rdi+0x1c8],ecx
    6d2f:	eb c8                	jmp    6cf9 <__sprintf_chk@plt+0x59a9>
    6d31:	44 8b 74 24 f4       	mov    r14d,DWORD PTR [rsp-0xc]
    6d36:	45 85 f6             	test   r14d,r14d
    6d39:	0f 84 98 00 00 00    	je     6dd7 <__sprintf_chk@plt+0x5a87>
    6d3f:	45 89 73 04          	mov    DWORD PTR [r11+0x4],r14d
    6d43:	48 8d 35 56 4d b2 00 	lea    rsi,[rip+0xb24d56]        # b2baa0 <stdin@@GLIBC_2.2.5+0xb14a70>
    6d4a:	4c 63 c2             	movsxd r8,edx
    6d4d:	42 0f be 4c 06 40    	movsx  ecx,BYTE PTR [rsi+r8*1+0x40]
    6d53:	41 29 c9             	sub    r9d,ecx
    6d56:	44 89 8f 8c 01 00 00 	mov    DWORD PTR [rdi+0x18c],r9d
    6d5d:	41 8d 4e ff          	lea    ecx,[r14-0x1]
    6d61:	48 63 c9             	movsxd rcx,ecx
    6d64:	48 c1 e1 06          	shl    rcx,0x6
    6d68:	48 01 f1             	add    rcx,rsi
    6d6b:	42 0f be 0c 01       	movsx  ecx,BYTE PTR [rcx+r8*1]
    6d70:	41 01 c9             	add    r9d,ecx
    6d73:	44 89 8f 8c 01 00 00 	mov    DWORD PTR [rdi+0x18c],r9d
    6d7a:	49 63 ce             	movsxd rcx,r14d
    6d7d:	48 89 ce             	mov    rsi,rcx
    6d80:	48 c1 e6 06          	shl    rsi,0x6
    6d84:	4c 01 c6             	add    rsi,r8
    6d87:	4c 8d 05 72 34 b8 00 	lea    r8,[rip+0xb83472]        # b8a200 <stdin@@GLIBC_2.2.5+0xb731d0>
    6d8e:	4d 33 24 f0          	xor    r12,QWORD PTR [r8+rsi*8]
    6d92:	4c 89 a7 e0 01 00 00 	mov    QWORD PTR [rdi+0x1e0],r12
    6d99:	ff 84 8f 90 01 00 00 	inc    DWORD PTR [rdi+rcx*4+0x190]
    6da0:	ff 8f 98 01 00 00    	dec    DWORD PTR [rdi+0x198]
    6da6:	8b b7 88 01 00 00    	mov    esi,DWORD PTR [rdi+0x188]
    6dac:	2b 35 b6 b8 00 00    	sub    esi,DWORD PTR [rip+0xb8b6]        # 12668 <__sprintf_chk@plt+0x11318>
    6db2:	4c 8d 05 a7 b8 00 00 	lea    r8,[rip+0xb8a7]        # 12660 <__sprintf_chk@plt+0x11310>
    6db9:	41 03 34 88          	add    esi,DWORD PTR [r8+rcx*4]
    6dbd:	89 b7 88 01 00 00    	mov    DWORD PTR [rdi+0x188],esi
    6dc3:	48 09 9c cf 20 01 00 	or     QWORD PTR [rdi+rcx*8+0x120],rbx
    6dca:	00 
    6dcb:	48 31 9f 30 01 00 00 	xor    QWORD PTR [rdi+0x130],rbx
    6dd2:	e9 64 fd ff ff       	jmp    6b3b <__sprintf_chk@plt+0x57eb>
    6dd7:	8d 48 10             	lea    ecx,[rax+0x10]
    6dda:	39 d1                	cmp    ecx,edx
    6ddc:	74 2d                	je     6e0b <__sprintf_chk@plt+0x5abb>
    6dde:	48 8d 0d 1b 34 b8 00 	lea    rcx,[rip+0xb8341b]        # b8a200 <stdin@@GLIBC_2.2.5+0xb731d0>
    6de5:	48 63 f2             	movsxd rsi,edx
    6de8:	4c 33 a4 f1 00 04 00 	xor    r12,QWORD PTR [rcx+rsi*8+0x400]
    6def:	00 
    6df0:	4c 89 a7 e0 01 00 00 	mov    QWORD PTR [rdi+0x1e0],r12
    6df7:	48 8b 8c f1 00 04 00 	mov    rcx,QWORD PTR [rcx+rsi*8+0x400]
    6dfe:	00 
    6dff:	48 31 8f e8 01 00 00 	xor    QWORD PTR [rdi+0x1e8],rcx
    6e06:	e9 30 fd ff ff       	jmp    6b3b <__sprintf_chk@plt+0x57eb>
    6e0b:	8d 48 08             	lea    ecx,[rax+0x8]
    6e0e:	89 8f c8 01 00 00    	mov    DWORD PTR [rdi+0x1c8],ecx
    6e14:	eb c8                	jmp    6dde <__sprintf_chk@plt+0x5a8e>
    6e16:	83 f9 05             	cmp    ecx,0x5
    6e19:	0f 84 08 01 00 00    	je     6f27 <__sprintf_chk@plt+0x5bd7>
    6e1f:	48 63 ca             	movsxd rcx,edx
    6e22:	48 8d 35 d7 33 b8 00 	lea    rsi,[rip+0xb833d7]        # b8a200 <stdin@@GLIBC_2.2.5+0xb731d0>
    6e29:	4c 33 a4 ce 00 0c 00 	xor    r12,QWORD PTR [rsi+rcx*8+0xc00]
    6e30:	00 
    6e31:	4c 89 a7 e0 01 00 00 	mov    QWORD PTR [rdi+0x1e0],r12
    6e38:	89 97 d4 01 00 00    	mov    DWORD PTR [rdi+0x1d4],edx
    6e3e:	8b 4c 24 f8          	mov    ecx,DWORD PTR [rsp-0x8]
    6e42:	83 e1 e7             	and    ecx,0xffffffe7
    6e45:	89 8f c4 01 00 00    	mov    DWORD PTR [rdi+0x1c4],ecx
    6e4b:	8b 5c 24 f0          	mov    ebx,DWORD PTR [rsp-0x10]
    6e4f:	85 db                	test   ebx,ebx
    6e51:	0f 84 e4 fc ff ff    	je     6b3b <__sprintf_chk@plt+0x57eb>
    6e57:	83 fb 03             	cmp    ebx,0x3
    6e5a:	0f 84 ed 01 00 00    	je     704d <__sprintf_chk@plt+0x5cfd>
    6e60:	8b b7 24 11 00 00    	mov    esi,DWORD PTR [rdi+0x1124]
    6e66:	b9 03 00 00 00       	mov    ecx,0x3
    6e6b:	4c 63 c1             	movsxd r8,ecx
    6e6e:	42 c7 44 87 04 08 00 	mov    DWORD PTR [rdi+r8*4+0x4],0x8
    6e75:	00 00 
    6e77:	39 d6                	cmp    esi,edx
    6e79:	74 10                	je     6e8b <__sprintf_chk@plt+0x5b3b>
    6e7b:	39 ce                	cmp    esi,ecx
    6e7d:	74 0c                	je     6e8b <__sprintf_chk@plt+0x5b3b>
    6e7f:	4c 63 c6             	movsxd r8,esi
    6e82:	42 c7 44 87 04 0d 00 	mov    DWORD PTR [rdi+r8*4+0x4],0xd
    6e89:	00 00 
    6e8b:	4c 8d 05 0e 4c b2 00 	lea    r8,[rip+0xb24c0e]        # b2baa0 <stdin@@GLIBC_2.2.5+0xb14a70>
    6e92:	48 63 f6             	movsxd rsi,esi
    6e95:	45 0f be 94 30 c0 01 	movsx  r10d,BYTE PTR [r8+rsi*1+0x1c0]
    6e9c:	00 00 
    6e9e:	45 29 d1             	sub    r9d,r10d
    6ea1:	44 89 8f 8c 01 00 00 	mov    DWORD PTR [rdi+0x18c],r9d
    6ea8:	48 63 c9             	movsxd rcx,ecx
    6eab:	45 0f be 84 08 c0 01 	movsx  r8d,BYTE PTR [r8+rcx*1+0x1c0]
    6eb2:	00 00 
    6eb4:	45 01 c1             	add    r9d,r8d
    6eb7:	44 89 8f 8c 01 00 00 	mov    DWORD PTR [rdi+0x18c],r9d
    6ebe:	4c 8d 05 3b 33 b8 00 	lea    r8,[rip+0xb8333b]        # b8a200 <stdin@@GLIBC_2.2.5+0xb731d0>
    6ec5:	4d 33 a4 f0 00 10 00 	xor    r12,QWORD PTR [r8+rsi*8+0x1000]
    6ecc:	00 
    6ecd:	4c 89 a7 e0 01 00 00 	mov    QWORD PTR [rdi+0x1e0],r12
    6ed4:	4d 33 a4 c8 00 10 00 	xor    r12,QWORD PTR [r8+rcx*8+0x1000]
    6edb:	00 
    6edc:	4c 89 a7 e0 01 00 00 	mov    QWORD PTR [rdi+0x1e0],r12
    6ee3:	4c 8d 05 b6 1b 01 00 	lea    r8,[rip+0x11bb6]        # 18aa0 <stdin@@GLIBC_2.2.5+0x1a70>
    6eea:	49 8b 34 f0          	mov    rsi,QWORD PTR [r8+rsi*8]
    6eee:	49 33 34 c8          	xor    rsi,QWORD PTR [r8+rcx*8]
    6ef2:	48 31 b7 60 01 00 00 	xor    QWORD PTR [rdi+0x160],rsi
    6ef9:	48 63 ca             	movsxd rcx,edx
    6efc:	49 8b 0c c8          	mov    rcx,QWORD PTR [r8+rcx*8]
    6f00:	48 89 8f 50 01 00 00 	mov    QWORD PTR [rdi+0x150],rcx
    6f07:	8b 4c 24 f0          	mov    ecx,DWORD PTR [rsp-0x10]
    6f0b:	ff c9                	dec    ecx
    6f0d:	48 63 c9             	movsxd rcx,ecx
    6f10:	48 8d 35 e9 0d 01 00 	lea    rsi,[rip+0x10de9]        # 17d00 <stdin@@GLIBC_2.2.5+0xcd0>
    6f17:	48 8b 0c ce          	mov    rcx,QWORD PTR [rsi+rcx*8]
    6f1b:	48 31 8f 10 01 00 00 	xor    QWORD PTR [rdi+0x110],rcx
    6f22:	e9 14 fc ff ff       	jmp    6b3b <__sprintf_chk@plt+0x57eb>
    6f27:	48 63 ca             	movsxd rcx,edx
    6f2a:	48 8d 35 cf 32 b8 00 	lea    rsi,[rip+0xb832cf]        # b8a200 <stdin@@GLIBC_2.2.5+0xb731d0>
    6f31:	4c 33 a4 ce 00 0a 00 	xor    r12,QWORD PTR [rsi+rcx*8+0xa00]
    6f38:	00 
    6f39:	4c 89 a7 e0 01 00 00 	mov    QWORD PTR [rdi+0x1e0],r12
    6f40:	89 97 d0 01 00 00    	mov    DWORD PTR [rdi+0x1d0],edx
    6f46:	8b 4c 24 f8          	mov    ecx,DWORD PTR [rsp-0x8]
    6f4a:	83 e1 f9             	and    ecx,0xfffffff9
    6f4d:	89 8f c4 01 00 00    	mov    DWORD PTR [rdi+0x1c4],ecx
    6f53:	8b 5c 24 f0          	mov    ebx,DWORD PTR [rsp-0x10]
    6f57:	85 db                	test   ebx,ebx
    6f59:	0f 84 dc fb ff ff    	je     6b3b <__sprintf_chk@plt+0x57eb>
    6f5f:	83 fb 01             	cmp    ebx,0x1
    6f62:	0f 84 d5 00 00 00    	je     703d <__sprintf_chk@plt+0x5ced>
    6f68:	8b b7 1c 11 00 00    	mov    esi,DWORD PTR [rdi+0x111c]
    6f6e:	b9 3b 00 00 00       	mov    ecx,0x3b
    6f73:	4c 63 c1             	movsxd r8,ecx
    6f76:	42 c7 44 87 04 07 00 	mov    DWORD PTR [rdi+r8*4+0x4],0x7
    6f7d:	00 00 
    6f7f:	39 d6                	cmp    esi,edx
    6f81:	74 10                	je     6f93 <__sprintf_chk@plt+0x5c43>
    6f83:	39 ce                	cmp    esi,ecx
    6f85:	74 0c                	je     6f93 <__sprintf_chk@plt+0x5c43>
    6f87:	4c 63 c6             	movsxd r8,esi
    6f8a:	42 c7 44 87 04 0d 00 	mov    DWORD PTR [rdi+r8*4+0x4],0xd
    6f91:	00 00 
    6f93:	4c 8d 15 06 4b b2 00 	lea    r10,[rip+0xb24b06]        # b2baa0 <stdin@@GLIBC_2.2.5+0xb14a70>
    6f9a:	4c 63 c6             	movsxd r8,esi
    6f9d:	43 0f be b4 02 80 01 	movsx  esi,BYTE PTR [r10+r8*1+0x180]
    6fa4:	00 00 
    6fa6:	41 29 f1             	sub    r9d,esi
    6fa9:	44 89 8f 8c 01 00 00 	mov    DWORD PTR [rdi+0x18c],r9d
    6fb0:	48 63 c9             	movsxd rcx,ecx
    6fb3:	41 0f be b4 0a 80 01 	movsx  esi,BYTE PTR [r10+rcx*1+0x180]
    6fba:	00 00 
    6fbc:	41 01 f1             	add    r9d,esi
    6fbf:	44 89 8f 8c 01 00 00 	mov    DWORD PTR [rdi+0x18c],r9d
    6fc6:	48 8d 35 33 32 b8 00 	lea    rsi,[rip+0xb83233]        # b8a200 <stdin@@GLIBC_2.2.5+0xb731d0>
    6fcd:	4e 33 a4 c6 00 0e 00 	xor    r12,QWORD PTR [rsi+r8*8+0xe00]
    6fd4:	00 
    6fd5:	4c 89 a7 e0 01 00 00 	mov    QWORD PTR [rdi+0x1e0],r12
    6fdc:	4c 33 a4 ce 00 0e 00 	xor    r12,QWORD PTR [rsi+rcx*8+0xe00]
    6fe3:	00 
    6fe4:	4c 89 a7 e0 01 00 00 	mov    QWORD PTR [rdi+0x1e0],r12
    6feb:	4c 8d 0d ae 1a 01 00 	lea    r9,[rip+0x11aae]        # 18aa0 <stdin@@GLIBC_2.2.5+0x1a70>
    6ff2:	48 8b b7 58 01 00 00 	mov    rsi,QWORD PTR [rdi+0x158]
    6ff9:	4b 33 34 c1          	xor    rsi,QWORD PTR [r9+r8*8]
    6ffd:	48 89 b7 58 01 00 00 	mov    QWORD PTR [rdi+0x158],rsi
    7004:	49 33 34 c9          	xor    rsi,QWORD PTR [r9+rcx*8]
    7008:	48 89 b7 58 01 00 00 	mov    QWORD PTR [rdi+0x158],rsi
    700f:	48 63 ca             	movsxd rcx,edx
    7012:	49 8b 0c c9          	mov    rcx,QWORD PTR [r9+rcx*8]
    7016:	48 89 8f 48 01 00 00 	mov    QWORD PTR [rdi+0x148],rcx
    701d:	8b 4c 24 f0          	mov    ecx,DWORD PTR [rsp-0x10]
    7021:	ff c9                	dec    ecx
    7023:	48 63 c9             	movsxd rcx,ecx
    7026:	48 8d 35 d3 0c 01 00 	lea    rsi,[rip+0x10cd3]        # 17d00 <stdin@@GLIBC_2.2.5+0xcd0>
    702d:	48 8b 0c ce          	mov    rcx,QWORD PTR [rsi+rcx*8]
    7031:	48 31 8f 18 01 00 00 	xor    QWORD PTR [rdi+0x118],rcx
    7038:	e9 fe fa ff ff       	jmp    6b3b <__sprintf_chk@plt+0x57eb>
    703d:	8b b7 20 11 00 00    	mov    esi,DWORD PTR [rdi+0x1120]
    7043:	b9 3d 00 00 00       	mov    ecx,0x3d
    7048:	e9 26 ff ff ff       	jmp    6f73 <__sprintf_chk@plt+0x5c23>
    704d:	8b b7 28 11 00 00    	mov    esi,DWORD PTR [rdi+0x1128]
    7053:	b9 05 00 00 00       	mov    ecx,0x5
    7058:	e9 0e fe ff ff       	jmp    6e6b <__sprintf_chk@plt+0x5b1b>
    705d:	f3 0f 1e fa          	endbr64 
    7061:	41 54                	push   r12
    7063:	55                   	push   rbp
    7064:	53                   	push   rbx
    7065:	89 f1                	mov    ecx,esi
    7067:	c1 f9 06             	sar    ecx,0x6
    706a:	41 89 c9             	mov    r9d,ecx
    706d:	41 83 e1 3f          	and    r9d,0x3f
    7071:	89 f3                	mov    ebx,esi
    7073:	83 e3 3f             	and    ebx,0x3f
    7076:	89 f2                	mov    edx,esi
    7078:	c1 fa 0c             	sar    edx,0xc
    707b:	83 e2 0f             	and    edx,0xf
    707e:	41 89 f0             	mov    r8d,esi
    7081:	41 c1 f8 10          	sar    r8d,0x10
    7085:	41 83 e0 07          	and    r8d,0x7
    7089:	48 8d 05 10 1a 01 00 	lea    rax,[rip+0x11a10]        # 18aa0 <stdin@@GLIBC_2.2.5+0x1a70>
    7090:	89 f5                	mov    ebp,esi
    7092:	83 e5 3f             	and    ebp,0x3f
    7095:	4c 8b 14 e8          	mov    r10,QWORD PTR [rax+rbp*8]
    7099:	83 e1 3f             	and    ecx,0x3f
    709c:	4d 89 d3             	mov    r11,r10
    709f:	4c 0b 1c c8          	or     r11,QWORD PTR [rax+rcx*8]
    70a3:	83 b7 cc 01 00 00 01 	xor    DWORD PTR [rdi+0x1cc],0x1
    70aa:	8b 87 d8 01 00 00    	mov    eax,DWORD PTR [rdi+0x1d8]
    70b0:	44 8d 60 ff          	lea    r12d,[rax-0x1]
    70b4:	44 89 a7 d8 01 00 00 	mov    DWORD PTR [rdi+0x1d8],r12d
    70bb:	48 98                	cdqe   
    70bd:	48 c1 e0 05          	shl    rax,0x5
    70c1:	48 01 f8             	add    rax,rdi
    70c4:	44 8b a0 d0 01 00 00 	mov    r12d,DWORD PTR [rax+0x1d0]
    70cb:	44 89 a7 c8 01 00 00 	mov    DWORD PTR [rdi+0x1c8],r12d
    70d2:	44 8b a0 d4 01 00 00 	mov    r12d,DWORD PTR [rax+0x1d4]
    70d9:	44 89 a7 dc 01 00 00 	mov    DWORD PTR [rdi+0x1dc],r12d
    70e0:	44 8b a0 d8 01 00 00 	mov    r12d,DWORD PTR [rax+0x1d8]
    70e7:	44 89 a7 c4 01 00 00 	mov    DWORD PTR [rdi+0x1c4],r12d
    70ee:	44 8b a0 dc 01 00 00 	mov    r12d,DWORD PTR [rax+0x1dc]
    70f5:	44 89 a7 8c 01 00 00 	mov    DWORD PTR [rdi+0x18c],r12d
    70fc:	4c 8b a0 e0 01 00 00 	mov    r12,QWORD PTR [rax+0x1e0]
    7103:	4c 89 a7 e0 01 00 00 	mov    QWORD PTR [rdi+0x1e0],r12
    710a:	48 8b 80 e8 01 00 00 	mov    rax,QWORD PTR [rax+0x1e8]
    7111:	48 89 87 e8 01 00 00 	mov    QWORD PTR [rdi+0x1e8],rax
    7118:	48 8d 2c af          	lea    rbp,[rdi+rbp*4]
    711c:	8b 45 04             	mov    eax,DWORD PTR [rbp+0x4]
    711f:	48 8d 0c 8f          	lea    rcx,[rdi+rcx*4]
    7123:	89 41 04             	mov    DWORD PTR [rcx+0x4],eax
    7126:	f7 c6 00 00 80 00    	test   esi,0x800000
    712c:	0f 85 9e 00 00 00    	jne    71d0 <__sprintf_chk@plt+0x5e80>
    7132:	c1 fe 13             	sar    esi,0x13
    7135:	83 e6 0f             	and    esi,0xf
    7138:	41 39 d9             	cmp    r9d,ebx
    713b:	74 03                	je     7140 <__sprintf_chk@plt+0x5df0>
    713d:	89 75 04             	mov    DWORD PTR [rbp+0x4],esi
    7140:	83 fe 0d             	cmp    esi,0xd
    7143:	74 2d                	je     7172 <__sprintf_chk@plt+0x5e22>
    7145:	48 63 f6             	movsxd rsi,esi
    7148:	48 8d 1d 11 b5 00 00 	lea    rbx,[rip+0xb511]        # 12660 <__sprintf_chk@plt+0x11310>
    714f:	8b 1c b3             	mov    ebx,DWORD PTR [rbx+rsi*4]
    7152:	01 9f 88 01 00 00    	add    DWORD PTR [rdi+0x188],ebx
    7158:	4c 31 94 f7 20 01 00 	xor    QWORD PTR [rdi+rsi*8+0x120],r10
    715f:	00 
    7160:	a8 01                	test   al,0x1
    7162:	74 63                	je     71c7 <__sprintf_chk@plt+0x5e77>
    7164:	4c 31 97 10 01 00 00 	xor    QWORD PTR [rdi+0x110],r10
    716b:	ff 84 b7 90 01 00 00 	inc    DWORD PTR [rdi+rsi*4+0x190]
    7172:	45 85 c0             	test   r8d,r8d
    7175:	0f 85 6b 01 00 00    	jne    72e6 <__sprintf_chk@plt+0x5f96>
    717b:	48 63 f0             	movsxd rsi,eax
    717e:	4c 31 9c f7 20 01 00 	xor    QWORD PTR [rdi+rsi*8+0x120],r11
    7185:	00 
    7186:	a8 01                	test   al,0x1
    7188:	0f 85 db 00 00 00    	jne    7269 <__sprintf_chk@plt+0x5f19>
    718e:	4c 31 9f 10 01 00 00 	xor    QWORD PTR [rdi+0x110],r11
    7195:	85 d2                	test   edx,edx
    7197:	0f 85 55 01 00 00    	jne    72f2 <__sprintf_chk@plt+0x5fa2>
    719d:	83 f8 05             	cmp    eax,0x5
    71a0:	0f 85 7a 02 00 00    	jne    7420 <__sprintf_chk@plt+0x60d0>
    71a6:	44 89 8f d0 01 00 00 	mov    DWORD PTR [rdi+0x1d0],r9d
    71ad:	4d 63 c9             	movsxd r9,r9d
    71b0:	48 8d 05 e9 18 01 00 	lea    rax,[rip+0x118e9]        # 18aa0 <stdin@@GLIBC_2.2.5+0x1a70>
    71b7:	4a 8b 04 c8          	mov    rax,QWORD PTR [rax+r9*8]
    71bb:	48 89 87 48 01 00 00 	mov    QWORD PTR [rdi+0x148],rax
    71c2:	e9 05 01 00 00       	jmp    72cc <__sprintf_chk@plt+0x5f7c>
    71c7:	4c 31 97 18 01 00 00 	xor    QWORD PTR [rdi+0x118],r10
    71ce:	eb 9b                	jmp    716b <__sprintf_chk@plt+0x5e1b>
    71d0:	c7 45 04 0d 00 00 00 	mov    DWORD PTR [rbp+0x4],0xd
    71d7:	83 f8 01             	cmp    eax,0x1
    71da:	74 41                	je     721d <__sprintf_chk@plt+0x5ecd>
    71dc:	83 eb 08             	sub    ebx,0x8
    71df:	48 8d 35 ba 18 01 00 	lea    rsi,[rip+0x118ba]        # 18aa0 <stdin@@GLIBC_2.2.5+0x1a70>
    71e6:	48 63 db             	movsxd rbx,ebx
    71e9:	4c 8b 14 de          	mov    r10,QWORD PTR [rsi+rbx*8]
    71ed:	4c 09 97 18 01 00 00 	or     QWORD PTR [rdi+0x118],r10
    71f4:	48 8b 34 de          	mov    rsi,QWORD PTR [rsi+rbx*8]
    71f8:	48 09 b7 28 01 00 00 	or     QWORD PTR [rdi+0x128],rsi
    71ff:	8b 35 5f b4 00 00    	mov    esi,DWORD PTR [rip+0xb45f]        # 12664 <__sprintf_chk@plt+0x11314>
    7205:	01 b7 88 01 00 00    	add    DWORD PTR [rdi+0x188],esi
    720b:	ff 87 94 01 00 00    	inc    DWORD PTR [rdi+0x194]
    7211:	c7 45 e4 01 00 00 00 	mov    DWORD PTR [rbp-0x1c],0x1
    7218:	e9 55 ff ff ff       	jmp    7172 <__sprintf_chk@plt+0x5e22>
    721d:	83 c3 08             	add    ebx,0x8
    7220:	48 8d 35 79 18 01 00 	lea    rsi,[rip+0x11879]        # 18aa0 <stdin@@GLIBC_2.2.5+0x1a70>
    7227:	48 63 db             	movsxd rbx,ebx
    722a:	4c 8b 14 de          	mov    r10,QWORD PTR [rsi+rbx*8]
    722e:	4c 09 97 10 01 00 00 	or     QWORD PTR [rdi+0x110],r10
    7235:	48 8b 34 de          	mov    rsi,QWORD PTR [rsi+rbx*8]
    7239:	48 09 b7 30 01 00 00 	or     QWORD PTR [rdi+0x130],rsi
    7240:	8b 35 22 b4 00 00    	mov    esi,DWORD PTR [rip+0xb422]        # 12668 <__sprintf_chk@plt+0x11318>
    7246:	01 b7 88 01 00 00    	add    DWORD PTR [rdi+0x188],esi
    724c:	ff 87 98 01 00 00    	inc    DWORD PTR [rdi+0x198]
    7252:	c7 45 24 02 00 00 00 	mov    DWORD PTR [rbp+0x24],0x2
    7259:	45 85 c0             	test   r8d,r8d
    725c:	0f 85 ad 01 00 00    	jne    740f <__sprintf_chk@plt+0x60bf>
    7262:	4c 31 9f 28 01 00 00 	xor    QWORD PTR [rdi+0x128],r11
    7269:	4c 31 9f 18 01 00 00 	xor    QWORD PTR [rdi+0x118],r11
    7270:	85 d2                	test   edx,edx
    7272:	0f 84 9f 01 00 00    	je     7417 <__sprintf_chk@plt+0x60c7>
    7278:	c7 41 04 01 00 00 00 	mov    DWORD PTR [rcx+0x4],0x1
    727f:	48 63 d2             	movsxd rdx,edx
    7282:	ff 8c 97 90 01 00 00 	dec    DWORD PTR [rdi+rdx*4+0x190]
    7289:	ff 87 94 01 00 00    	inc    DWORD PTR [rdi+0x194]
    728f:	8b 87 88 01 00 00    	mov    eax,DWORD PTR [rdi+0x188]
    7295:	48 8d 0d c4 b3 00 00 	lea    rcx,[rip+0xb3c4]        # 12660 <__sprintf_chk@plt+0x11310>
    729c:	2b 04 91             	sub    eax,DWORD PTR [rcx+rdx*4]
    729f:	03 05 bf b3 00 00    	add    eax,DWORD PTR [rip+0xb3bf]        # 12664 <__sprintf_chk@plt+0x11314>
    72a5:	89 87 88 01 00 00    	mov    DWORD PTR [rdi+0x188],eax
    72ab:	48 8d 05 ee 17 01 00 	lea    rax,[rip+0x117ee]        # 18aa0 <stdin@@GLIBC_2.2.5+0x1a70>
    72b2:	4d 63 c9             	movsxd r9,r9d
    72b5:	4a 8b 0c c8          	mov    rcx,QWORD PTR [rax+r9*8]
    72b9:	48 09 8f 28 01 00 00 	or     QWORD PTR [rdi+0x128],rcx
    72c0:	4a 8b 04 c8          	mov    rax,QWORD PTR [rax+r9*8]
    72c4:	48 31 84 d7 20 01 00 	xor    QWORD PTR [rdi+rdx*8+0x120],rax
    72cb:	00 
    72cc:	48 8b 87 18 01 00 00 	mov    rax,QWORD PTR [rdi+0x118]
    72d3:	48 0b 87 10 01 00 00 	or     rax,QWORD PTR [rdi+0x110]
    72da:	48 89 87 08 01 00 00 	mov    QWORD PTR [rdi+0x108],rax
    72e1:	5b                   	pop    rbx
    72e2:	5d                   	pop    rbp
    72e3:	41 5c                	pop    r12
    72e5:	c3                   	ret    
    72e6:	85 d2                	test   edx,edx
    72e8:	0f 84 29 01 00 00    	je     7417 <__sprintf_chk@plt+0x60c7>
    72ee:	a8 01                	test   al,0x1
    72f0:	75 86                	jne    7278 <__sprintf_chk@plt+0x5f28>
    72f2:	c7 41 04 02 00 00 00 	mov    DWORD PTR [rcx+0x4],0x2
    72f9:	48 63 d2             	movsxd rdx,edx
    72fc:	ff 8c 97 90 01 00 00 	dec    DWORD PTR [rdi+rdx*4+0x190]
    7303:	ff 87 98 01 00 00    	inc    DWORD PTR [rdi+0x198]
    7309:	8b 87 88 01 00 00    	mov    eax,DWORD PTR [rdi+0x188]
    730f:	48 8d 0d 4a b3 00 00 	lea    rcx,[rip+0xb34a]        # 12660 <__sprintf_chk@plt+0x11310>
    7316:	2b 04 91             	sub    eax,DWORD PTR [rcx+rdx*4]
    7319:	03 05 49 b3 00 00    	add    eax,DWORD PTR [rip+0xb349]        # 12668 <__sprintf_chk@plt+0x11318>
    731f:	89 87 88 01 00 00    	mov    DWORD PTR [rdi+0x188],eax
    7325:	48 8d 05 74 17 01 00 	lea    rax,[rip+0x11774]        # 18aa0 <stdin@@GLIBC_2.2.5+0x1a70>
    732c:	4d 63 c9             	movsxd r9,r9d
    732f:	4a 8b 0c c8          	mov    rcx,QWORD PTR [rax+r9*8]
    7333:	48 09 8f 30 01 00 00 	or     QWORD PTR [rdi+0x130],rcx
    733a:	4a 8b 04 c8          	mov    rax,QWORD PTR [rax+r9*8]
    733e:	48 31 84 d7 20 01 00 	xor    QWORD PTR [rdi+rdx*8+0x120],rax
    7345:	00 
    7346:	eb 84                	jmp    72cc <__sprintf_chk@plt+0x5f7c>
    7348:	44 89 8f d0 01 00 00 	mov    DWORD PTR [rdi+0x1d0],r9d
    734f:	49 63 c1             	movsxd rax,r9d
    7352:	48 8d 15 47 17 01 00 	lea    rdx,[rip+0x11747]        # 18aa0 <stdin@@GLIBC_2.2.5+0x1a70>
    7359:	48 8b 04 c2          	mov    rax,QWORD PTR [rdx+rax*8]
    735d:	48 89 87 48 01 00 00 	mov    QWORD PTR [rdi+0x148],rax
    7364:	45 85 c0             	test   r8d,r8d
    7367:	0f 84 5f ff ff ff    	je     72cc <__sprintf_chk@plt+0x5f7c>
    736d:	41 83 f8 01          	cmp    r8d,0x1
    7371:	74 7f                	je     73f2 <__sprintf_chk@plt+0x60a2>
    7373:	8b 8f 1c 11 00 00    	mov    ecx,DWORD PTR [rdi+0x111c]
    7379:	b8 3b 00 00 00       	mov    eax,0x3b
    737e:	48 63 d1             	movsxd rdx,ecx
    7381:	c7 44 97 04 07 00 00 	mov    DWORD PTR [rdi+rdx*4+0x4],0x7
    7388:	00 
    7389:	44 39 c8             	cmp    eax,r9d
    738c:	74 0f                	je     739d <__sprintf_chk@plt+0x604d>
    738e:	39 c8                	cmp    eax,ecx
    7390:	74 0b                	je     739d <__sprintf_chk@plt+0x604d>
    7392:	48 63 d0             	movsxd rdx,eax
    7395:	c7 44 97 04 0d 00 00 	mov    DWORD PTR [rdi+rdx*4+0x4],0xd
    739c:	00 
    739d:	48 8d 35 fc 16 01 00 	lea    rsi,[rip+0x116fc]        # 18aa0 <stdin@@GLIBC_2.2.5+0x1a70>
    73a4:	48 63 d0             	movsxd rdx,eax
    73a7:	48 8b 87 58 01 00 00 	mov    rax,QWORD PTR [rdi+0x158]
    73ae:	48 33 04 d6          	xor    rax,QWORD PTR [rsi+rdx*8]
    73b2:	48 89 87 58 01 00 00 	mov    QWORD PTR [rdi+0x158],rax
    73b9:	48 63 c9             	movsxd rcx,ecx
    73bc:	48 33 04 ce          	xor    rax,QWORD PTR [rsi+rcx*8]
    73c0:	48 89 87 58 01 00 00 	mov    QWORD PTR [rdi+0x158],rax
    73c7:	4d 63 c9             	movsxd r9,r9d
    73ca:	4a 8b 04 ce          	mov    rax,QWORD PTR [rsi+r9*8]
    73ce:	48 89 87 48 01 00 00 	mov    QWORD PTR [rdi+0x148],rax
    73d5:	41 ff c8             	dec    r8d
    73d8:	4d 63 c0             	movsxd r8,r8d
    73db:	48 8d 05 1e 09 01 00 	lea    rax,[rip+0x1091e]        # 17d00 <stdin@@GLIBC_2.2.5+0xcd0>
    73e2:	4a 8b 04 c0          	mov    rax,QWORD PTR [rax+r8*8]
    73e6:	48 31 87 18 01 00 00 	xor    QWORD PTR [rdi+0x118],rax
    73ed:	e9 da fe ff ff       	jmp    72cc <__sprintf_chk@plt+0x5f7c>
    73f2:	8b 8f 20 11 00 00    	mov    ecx,DWORD PTR [rdi+0x1120]
    73f8:	b8 3d 00 00 00       	mov    eax,0x3d
    73fd:	e9 7c ff ff ff       	jmp    737e <__sprintf_chk@plt+0x602e>
    7402:	8b 8f 28 11 00 00    	mov    ecx,DWORD PTR [rdi+0x1128]
    7408:	b8 05 00 00 00       	mov    eax,0x5
    740d:	eb 50                	jmp    745f <__sprintf_chk@plt+0x610f>
    740f:	85 d2                	test   edx,edx
    7411:	0f 85 61 fe ff ff    	jne    7278 <__sprintf_chk@plt+0x5f28>
    7417:	83 f8 05             	cmp    eax,0x5
    741a:	0f 84 28 ff ff ff    	je     7348 <__sprintf_chk@plt+0x5ff8>
    7420:	83 f8 06             	cmp    eax,0x6
    7423:	0f 85 a3 fe ff ff    	jne    72cc <__sprintf_chk@plt+0x5f7c>
    7429:	44 89 8f d4 01 00 00 	mov    DWORD PTR [rdi+0x1d4],r9d
    7430:	49 63 c1             	movsxd rax,r9d
    7433:	48 8d 15 66 16 01 00 	lea    rdx,[rip+0x11666]        # 18aa0 <stdin@@GLIBC_2.2.5+0x1a70>
    743a:	48 8b 04 c2          	mov    rax,QWORD PTR [rdx+rax*8]
    743e:	48 89 87 50 01 00 00 	mov    QWORD PTR [rdi+0x150],rax
    7445:	45 85 c0             	test   r8d,r8d
    7448:	0f 84 7e fe ff ff    	je     72cc <__sprintf_chk@plt+0x5f7c>
    744e:	41 83 f8 03          	cmp    r8d,0x3
    7452:	74 ae                	je     7402 <__sprintf_chk@plt+0x60b2>
    7454:	8b 8f 24 11 00 00    	mov    ecx,DWORD PTR [rdi+0x1124]
    745a:	b8 03 00 00 00       	mov    eax,0x3
    745f:	48 63 d1             	movsxd rdx,ecx
    7462:	c7 44 97 04 08 00 00 	mov    DWORD PTR [rdi+rdx*4+0x4],0x8
    7469:	00 
    746a:	44 39 c8             	cmp    eax,r9d
    746d:	74 0f                	je     747e <__sprintf_chk@plt+0x612e>
    746f:	39 c8                	cmp    eax,ecx
    7471:	74 0b                	je     747e <__sprintf_chk@plt+0x612e>
    7473:	48 63 d0             	movsxd rdx,eax
    7476:	c7 44 97 04 0d 00 00 	mov    DWORD PTR [rdi+rdx*4+0x4],0xd
    747d:	00 
    747e:	48 8d 35 1b 16 01 00 	lea    rsi,[rip+0x1161b]        # 18aa0 <stdin@@GLIBC_2.2.5+0x1a70>
    7485:	48 63 d0             	movsxd rdx,eax
    7488:	48 8b 87 60 01 00 00 	mov    rax,QWORD PTR [rdi+0x160]
    748f:	48 33 04 d6          	xor    rax,QWORD PTR [rsi+rdx*8]
    7493:	48 89 87 60 01 00 00 	mov    QWORD PTR [rdi+0x160],rax
    749a:	48 63 c9             	movsxd rcx,ecx
    749d:	48 33 04 ce          	xor    rax,QWORD PTR [rsi+rcx*8]
    74a1:	48 89 87 60 01 00 00 	mov    QWORD PTR [rdi+0x160],rax
    74a8:	4d 63 c9             	movsxd r9,r9d
    74ab:	4a 8b 04 ce          	mov    rax,QWORD PTR [rsi+r9*8]
    74af:	48 89 87 50 01 00 00 	mov    QWORD PTR [rdi+0x150],rax
    74b6:	41 ff c8             	dec    r8d
    74b9:	4d 63 c0             	movsxd r8,r8d
    74bc:	48 8d 05 3d 08 01 00 	lea    rax,[rip+0x1083d]        # 17d00 <stdin@@GLIBC_2.2.5+0xcd0>
    74c3:	4a 8b 04 c0          	mov    rax,QWORD PTR [rax+r8*8]
    74c7:	48 31 87 10 01 00 00 	xor    QWORD PTR [rdi+0x110],rax
    74ce:	e9 f9 fd ff ff       	jmp    72cc <__sprintf_chk@plt+0x5f7c>
    74d3:	f3 0f 1e fa          	endbr64 
    74d7:	41 55                	push   r13
    74d9:	41 54                	push   r12
    74db:	55                   	push   rbp
    74dc:	53                   	push   rbx
    74dd:	48 83 ec 08          	sub    rsp,0x8
    74e1:	48 89 fd             	mov    rbp,rdi
    74e4:	c1 fe 10             	sar    esi,0x10
    74e7:	83 e6 07             	and    esi,0x7
    74ea:	0f 84 b5 00 00 00    	je     75a5 <__sprintf_chk@plt+0x6255>
    74f0:	83 fe 01             	cmp    esi,0x1
    74f3:	74 23                	je     7518 <__sprintf_chk@plt+0x61c8>
    74f5:	83 fe 02             	cmp    esi,0x2
    74f8:	74 61                	je     755b <__sprintf_chk@plt+0x620b>
    74fa:	83 fe 03             	cmp    esi,0x3
    74fd:	74 70                	je     756f <__sprintf_chk@plt+0x621f>
    74ff:	83 fe 04             	cmp    esi,0x4
    7502:	75 26                	jne    752a <__sprintf_chk@plt+0x61da>
    7504:	8b 9f 18 11 00 00    	mov    ebx,DWORD PTR [rdi+0x1118]
    750a:	41 bc 01 00 00 00    	mov    r12d,0x1
    7510:	41 bd 02 00 00 00    	mov    r13d,0x2
    7516:	eb 12                	jmp    752a <__sprintf_chk@plt+0x61da>
    7518:	8b 9f 14 11 00 00    	mov    ebx,DWORD PTR [rdi+0x1114]
    751e:	41 bc 00 00 00 00    	mov    r12d,0x0
    7524:	41 bd 3e 00 00 00    	mov    r13d,0x3e
    752a:	41 39 dd             	cmp    r13d,ebx
    752d:	7e 54                	jle    7583 <__sprintf_chk@plt+0x6233>
    752f:	0f 8c b6 00 00 00    	jl     75eb <__sprintf_chk@plt+0x629b>
    7535:	41 ff c5             	inc    r13d
    7538:	44 89 e2             	mov    edx,r12d
    753b:	89 de                	mov    esi,ebx
    753d:	48 89 ef             	mov    rdi,rbp
    7540:	e8 04 9f ff ff       	call   1449 <__sprintf_chk@plt+0xf9>
    7545:	85 c0                	test   eax,eax
    7547:	0f 85 a5 00 00 00    	jne    75f2 <__sprintf_chk@plt+0x62a2>
    754d:	ff c3                	inc    ebx
    754f:	44 39 eb             	cmp    ebx,r13d
    7552:	75 e4                	jne    7538 <__sprintf_chk@plt+0x61e8>
    7554:	b8 01 00 00 00       	mov    eax,0x1
    7559:	eb 6b                	jmp    75c6 <__sprintf_chk@plt+0x6276>
    755b:	8b 9f 14 11 00 00    	mov    ebx,DWORD PTR [rdi+0x1114]
    7561:	41 bc 00 00 00 00    	mov    r12d,0x0
    7567:	41 bd 3a 00 00 00    	mov    r13d,0x3a
    756d:	eb bb                	jmp    752a <__sprintf_chk@plt+0x61da>
    756f:	8b 9f 18 11 00 00    	mov    ebx,DWORD PTR [rdi+0x1118]
    7575:	41 bc 01 00 00 00    	mov    r12d,0x1
    757b:	41 bd 06 00 00 00    	mov    r13d,0x6
    7581:	eb a7                	jmp    752a <__sprintf_chk@plt+0x61da>
    7583:	41 ff cd             	dec    r13d
    7586:	44 89 e2             	mov    edx,r12d
    7589:	89 de                	mov    esi,ebx
    758b:	48 89 ef             	mov    rdi,rbp
    758e:	e8 b6 9e ff ff       	call   1449 <__sprintf_chk@plt+0xf9>
    7593:	85 c0                	test   eax,eax
    7595:	75 62                	jne    75f9 <__sprintf_chk@plt+0x62a9>
    7597:	ff cb                	dec    ebx
    7599:	41 39 dd             	cmp    r13d,ebx
    759c:	75 e8                	jne    7586 <__sprintf_chk@plt+0x6236>
    759e:	b8 01 00 00 00       	mov    eax,0x1
    75a3:	eb 21                	jmp    75c6 <__sprintf_chk@plt+0x6276>
    75a5:	83 bf cc 01 00 00 00 	cmp    DWORD PTR [rdi+0x1cc],0x0
    75ac:	74 23                	je     75d1 <__sprintf_chk@plt+0x6281>
    75ae:	8b b7 d4 01 00 00    	mov    esi,DWORD PTR [rdi+0x1d4]
    75b4:	ba 01 00 00 00       	mov    edx,0x1
    75b9:	e8 8b 9e ff ff       	call   1449 <__sprintf_chk@plt+0xf9>
    75be:	85 c0                	test   eax,eax
    75c0:	0f 94 c0             	sete   al
    75c3:	0f b6 c0             	movzx  eax,al
    75c6:	48 83 c4 08          	add    rsp,0x8
    75ca:	5b                   	pop    rbx
    75cb:	5d                   	pop    rbp
    75cc:	41 5c                	pop    r12
    75ce:	41 5d                	pop    r13
    75d0:	c3                   	ret    
    75d1:	8b b7 d0 01 00 00    	mov    esi,DWORD PTR [rdi+0x1d0]
    75d7:	ba 00 00 00 00       	mov    edx,0x0
    75dc:	e8 68 9e ff ff       	call   1449 <__sprintf_chk@plt+0xf9>
    75e1:	85 c0                	test   eax,eax
    75e3:	0f 94 c0             	sete   al
    75e6:	0f b6 c0             	movzx  eax,al
    75e9:	eb db                	jmp    75c6 <__sprintf_chk@plt+0x6276>
    75eb:	b8 01 00 00 00       	mov    eax,0x1
    75f0:	eb d4                	jmp    75c6 <__sprintf_chk@plt+0x6276>
    75f2:	b8 00 00 00 00       	mov    eax,0x0
    75f7:	eb cd                	jmp    75c6 <__sprintf_chk@plt+0x6276>
    75f9:	b8 00 00 00 00       	mov    eax,0x0
    75fe:	eb c6                	jmp    75c6 <__sprintf_chk@plt+0x6276>
    7600:	f3 0f 1e fa          	endbr64 
    7604:	83 fe 01             	cmp    esi,0x1
    7607:	74 23                	je     762c <__sprintf_chk@plt+0x62dc>
    7609:	83 fe 02             	cmp    esi,0x2
    760c:	0f 84 d3 00 00 00    	je     76e5 <__sprintf_chk@plt+0x6395>
    7612:	83 fe 03             	cmp    esi,0x3
    7615:	0f 84 95 01 00 00    	je     77b0 <__sprintf_chk@plt+0x6460>
    761b:	b9 00 00 00 00       	mov    ecx,0x0
    7620:	83 fe 04             	cmp    esi,0x4
    7623:	0f 84 52 02 00 00    	je     787b <__sprintf_chk@plt+0x652b>
    7629:	89 c8                	mov    eax,ecx
    762b:	c3                   	ret    
    762c:	8b 97 14 11 00 00    	mov    edx,DWORD PTR [rdi+0x1114]
    7632:	83 fa 3e             	cmp    edx,0x3e
    7635:	7e 24                	jle    765b <__sprintf_chk@plt+0x630b>
    7637:	8b 8f 20 11 00 00    	mov    ecx,DWORD PTR [rdi+0x1120]
    763d:	8d 42 ff             	lea    eax,[rdx-0x1]
    7640:	48 98                	cdqe   
    7642:	eb 08                	jmp    764c <__sprintf_chk@plt+0x62fc>
    7644:	48 ff c8             	dec    rax
    7647:	83 f8 3d             	cmp    eax,0x3d
    764a:	7e 38                	jle    7684 <__sprintf_chk@plt+0x6334>
    764c:	39 c1                	cmp    ecx,eax
    764e:	74 f4                	je     7644 <__sprintf_chk@plt+0x62f4>
    7650:	83 7c 87 04 0d       	cmp    DWORD PTR [rdi+rax*4+0x4],0xd
    7655:	74 ed                	je     7644 <__sprintf_chk@plt+0x62f4>
    7657:	89 f1                	mov    ecx,esi
    7659:	eb ce                	jmp    7629 <__sprintf_chk@plt+0x62d9>
    765b:	83 fa 3d             	cmp    edx,0x3d
    765e:	7f 24                	jg     7684 <__sprintf_chk@plt+0x6334>
    7660:	8b 8f 20 11 00 00    	mov    ecx,DWORD PTR [rdi+0x1120]
    7666:	8d 42 01             	lea    eax,[rdx+0x1]
    7669:	48 98                	cdqe   
    766b:	eb 08                	jmp    7675 <__sprintf_chk@plt+0x6325>
    766d:	48 ff c0             	inc    rax
    7670:	83 f8 3e             	cmp    eax,0x3e
    7673:	7f 0f                	jg     7684 <__sprintf_chk@plt+0x6334>
    7675:	39 c1                	cmp    ecx,eax
    7677:	74 f4                	je     766d <__sprintf_chk@plt+0x631d>
    7679:	83 7c 87 04 0d       	cmp    DWORD PTR [rdi+rax*4+0x4],0xd
    767e:	74 ed                	je     766d <__sprintf_chk@plt+0x631d>
    7680:	89 f1                	mov    ecx,esi
    7682:	eb a5                	jmp    7629 <__sprintf_chk@plt+0x62d9>
    7684:	8b 87 20 11 00 00    	mov    eax,DWORD PTR [rdi+0x1120]
    768a:	83 f8 3d             	cmp    eax,0x3d
    768d:	7e 24                	jle    76b3 <__sprintf_chk@plt+0x6363>
    768f:	ff c8                	dec    eax
    7691:	48 98                	cdqe   
    7693:	eb 0c                	jmp    76a1 <__sprintf_chk@plt+0x6351>
    7695:	48 ff c8             	dec    rax
    7698:	83 f8 3c             	cmp    eax,0x3c
    769b:	0f 8e ab 02 00 00    	jle    794c <__sprintf_chk@plt+0x65fc>
    76a1:	39 c2                	cmp    edx,eax
    76a3:	74 f0                	je     7695 <__sprintf_chk@plt+0x6345>
    76a5:	83 7c 87 04 0d       	cmp    DWORD PTR [rdi+rax*4+0x4],0xd
    76aa:	74 e9                	je     7695 <__sprintf_chk@plt+0x6345>
    76ac:	89 f1                	mov    ecx,esi
    76ae:	e9 76 ff ff ff       	jmp    7629 <__sprintf_chk@plt+0x62d9>
    76b3:	b9 00 00 00 00       	mov    ecx,0x0
    76b8:	83 f8 3c             	cmp    eax,0x3c
    76bb:	0f 8f 68 ff ff ff    	jg     7629 <__sprintf_chk@plt+0x62d9>
    76c1:	ff c0                	inc    eax
    76c3:	48 98                	cdqe   
    76c5:	eb 0c                	jmp    76d3 <__sprintf_chk@plt+0x6383>
    76c7:	48 ff c0             	inc    rax
    76ca:	83 f8 3d             	cmp    eax,0x3d
    76cd:	0f 8f 83 02 00 00    	jg     7956 <__sprintf_chk@plt+0x6606>
    76d3:	39 c2                	cmp    edx,eax
    76d5:	74 f0                	je     76c7 <__sprintf_chk@plt+0x6377>
    76d7:	83 7c 87 04 0d       	cmp    DWORD PTR [rdi+rax*4+0x4],0xd
    76dc:	74 e9                	je     76c7 <__sprintf_chk@plt+0x6377>
    76de:	89 f1                	mov    ecx,esi
    76e0:	e9 44 ff ff ff       	jmp    7629 <__sprintf_chk@plt+0x62d9>
    76e5:	8b 97 14 11 00 00    	mov    edx,DWORD PTR [rdi+0x1114]
    76eb:	83 fa 3a             	cmp    edx,0x3a
    76ee:	7e 2a                	jle    771a <__sprintf_chk@plt+0x63ca>
    76f0:	8b 8f 1c 11 00 00    	mov    ecx,DWORD PTR [rdi+0x111c]
    76f6:	8d 42 ff             	lea    eax,[rdx-0x1]
    76f9:	48 98                	cdqe   
    76fb:	eb 08                	jmp    7705 <__sprintf_chk@plt+0x63b5>
    76fd:	48 ff c8             	dec    rax
    7700:	83 f8 39             	cmp    eax,0x39
    7703:	7e 44                	jle    7749 <__sprintf_chk@plt+0x63f9>
    7705:	39 c1                	cmp    ecx,eax
    7707:	74 f4                	je     76fd <__sprintf_chk@plt+0x63ad>
    7709:	83 7c 87 04 0d       	cmp    DWORD PTR [rdi+rax*4+0x4],0xd
    770e:	74 ed                	je     76fd <__sprintf_chk@plt+0x63ad>
    7710:	b9 01 00 00 00       	mov    ecx,0x1
    7715:	e9 0f ff ff ff       	jmp    7629 <__sprintf_chk@plt+0x62d9>
    771a:	83 fa 39             	cmp    edx,0x39
    771d:	7f 2a                	jg     7749 <__sprintf_chk@plt+0x63f9>
    771f:	8b 8f 1c 11 00 00    	mov    ecx,DWORD PTR [rdi+0x111c]
    7725:	8d 42 01             	lea    eax,[rdx+0x1]
    7728:	48 98                	cdqe   
    772a:	eb 08                	jmp    7734 <__sprintf_chk@plt+0x63e4>
    772c:	48 ff c0             	inc    rax
    772f:	83 f8 3a             	cmp    eax,0x3a
    7732:	7f 15                	jg     7749 <__sprintf_chk@plt+0x63f9>
    7734:	39 c1                	cmp    ecx,eax
    7736:	74 f4                	je     772c <__sprintf_chk@plt+0x63dc>
    7738:	83 7c 87 04 0d       	cmp    DWORD PTR [rdi+rax*4+0x4],0xd
    773d:	74 ed                	je     772c <__sprintf_chk@plt+0x63dc>
    773f:	b9 01 00 00 00       	mov    ecx,0x1
    7744:	e9 e0 fe ff ff       	jmp    7629 <__sprintf_chk@plt+0x62d9>
    7749:	8b 87 1c 11 00 00    	mov    eax,DWORD PTR [rdi+0x111c]
    774f:	83 f8 3b             	cmp    eax,0x3b
    7752:	7e 27                	jle    777b <__sprintf_chk@plt+0x642b>
    7754:	ff c8                	dec    eax
    7756:	48 98                	cdqe   
    7758:	eb 0c                	jmp    7766 <__sprintf_chk@plt+0x6416>
    775a:	48 ff c8             	dec    rax
    775d:	83 f8 3a             	cmp    eax,0x3a
    7760:	0f 8e fa 01 00 00    	jle    7960 <__sprintf_chk@plt+0x6610>
    7766:	39 c2                	cmp    edx,eax
    7768:	74 f0                	je     775a <__sprintf_chk@plt+0x640a>
    776a:	83 7c 87 04 0d       	cmp    DWORD PTR [rdi+rax*4+0x4],0xd
    776f:	74 e9                	je     775a <__sprintf_chk@plt+0x640a>
    7771:	b9 01 00 00 00       	mov    ecx,0x1
    7776:	e9 ae fe ff ff       	jmp    7629 <__sprintf_chk@plt+0x62d9>
    777b:	b9 00 00 00 00       	mov    ecx,0x0
    7780:	83 f8 3a             	cmp    eax,0x3a
    7783:	0f 8f a0 fe ff ff    	jg     7629 <__sprintf_chk@plt+0x62d9>
    7789:	ff c0                	inc    eax
    778b:	48 98                	cdqe   
    778d:	eb 0c                	jmp    779b <__sprintf_chk@plt+0x644b>
    778f:	48 ff c0             	inc    rax
    7792:	83 f8 3b             	cmp    eax,0x3b
    7795:	0f 8f cf 01 00 00    	jg     796a <__sprintf_chk@plt+0x661a>
    779b:	39 c2                	cmp    edx,eax
    779d:	74 f0                	je     778f <__sprintf_chk@plt+0x643f>
    779f:	83 7c 87 04 0d       	cmp    DWORD PTR [rdi+rax*4+0x4],0xd
    77a4:	74 e9                	je     778f <__sprintf_chk@plt+0x643f>
    77a6:	b9 01 00 00 00       	mov    ecx,0x1
    77ab:	e9 79 fe ff ff       	jmp    7629 <__sprintf_chk@plt+0x62d9>
    77b0:	8b 97 18 11 00 00    	mov    edx,DWORD PTR [rdi+0x1118]
    77b6:	83 fa 06             	cmp    edx,0x6
    77b9:	7e 2a                	jle    77e5 <__sprintf_chk@plt+0x6495>
    77bb:	8b 8f 28 11 00 00    	mov    ecx,DWORD PTR [rdi+0x1128]
    77c1:	8d 42 ff             	lea    eax,[rdx-0x1]
    77c4:	48 98                	cdqe   
    77c6:	eb 08                	jmp    77d0 <__sprintf_chk@plt+0x6480>
    77c8:	48 ff c8             	dec    rax
    77cb:	83 f8 05             	cmp    eax,0x5
    77ce:	7e 44                	jle    7814 <__sprintf_chk@plt+0x64c4>
    77d0:	39 c1                	cmp    ecx,eax
    77d2:	74 f4                	je     77c8 <__sprintf_chk@plt+0x6478>
    77d4:	83 7c 87 04 0d       	cmp    DWORD PTR [rdi+rax*4+0x4],0xd
    77d9:	74 ed                	je     77c8 <__sprintf_chk@plt+0x6478>
    77db:	b9 01 00 00 00       	mov    ecx,0x1
    77e0:	e9 44 fe ff ff       	jmp    7629 <__sprintf_chk@plt+0x62d9>
    77e5:	83 fa 05             	cmp    edx,0x5
    77e8:	7f 2a                	jg     7814 <__sprintf_chk@plt+0x64c4>
    77ea:	8b 8f 28 11 00 00    	mov    ecx,DWORD PTR [rdi+0x1128]
    77f0:	8d 42 01             	lea    eax,[rdx+0x1]
    77f3:	48 98                	cdqe   
    77f5:	eb 08                	jmp    77ff <__sprintf_chk@plt+0x64af>
    77f7:	48 ff c0             	inc    rax
    77fa:	83 f8 06             	cmp    eax,0x6
    77fd:	7f 15                	jg     7814 <__sprintf_chk@plt+0x64c4>
    77ff:	39 c1                	cmp    ecx,eax
    7801:	74 f4                	je     77f7 <__sprintf_chk@plt+0x64a7>
    7803:	83 7c 87 04 0d       	cmp    DWORD PTR [rdi+rax*4+0x4],0xd
    7808:	74 ed                	je     77f7 <__sprintf_chk@plt+0x64a7>
    780a:	b9 01 00 00 00       	mov    ecx,0x1
    780f:	e9 15 fe ff ff       	jmp    7629 <__sprintf_chk@plt+0x62d9>
    7814:	8b 87 28 11 00 00    	mov    eax,DWORD PTR [rdi+0x1128]
    781a:	83 f8 05             	cmp    eax,0x5
    781d:	7e 27                	jle    7846 <__sprintf_chk@plt+0x64f6>
    781f:	ff c8                	dec    eax
    7821:	48 98                	cdqe   
    7823:	eb 0c                	jmp    7831 <__sprintf_chk@plt+0x64e1>
    7825:	48 ff c8             	dec    rax
    7828:	83 f8 04             	cmp    eax,0x4
    782b:	0f 8e 43 01 00 00    	jle    7974 <__sprintf_chk@plt+0x6624>
    7831:	39 c2                	cmp    edx,eax
    7833:	74 f0                	je     7825 <__sprintf_chk@plt+0x64d5>
    7835:	83 7c 87 04 0d       	cmp    DWORD PTR [rdi+rax*4+0x4],0xd
    783a:	74 e9                	je     7825 <__sprintf_chk@plt+0x64d5>
    783c:	b9 01 00 00 00       	mov    ecx,0x1
    7841:	e9 e3 fd ff ff       	jmp    7629 <__sprintf_chk@plt+0x62d9>
    7846:	b9 00 00 00 00       	mov    ecx,0x0
    784b:	83 f8 04             	cmp    eax,0x4
    784e:	0f 8f d5 fd ff ff    	jg     7629 <__sprintf_chk@plt+0x62d9>
    7854:	ff c0                	inc    eax
    7856:	48 98                	cdqe   
    7858:	eb 0c                	jmp    7866 <__sprintf_chk@plt+0x6516>
    785a:	48 ff c0             	inc    rax
    785d:	83 f8 05             	cmp    eax,0x5
    7860:	0f 8f 18 01 00 00    	jg     797e <__sprintf_chk@plt+0x662e>
    7866:	39 c2                	cmp    edx,eax
    7868:	74 f0                	je     785a <__sprintf_chk@plt+0x650a>
    786a:	83 7c 87 04 0d       	cmp    DWORD PTR [rdi+rax*4+0x4],0xd
    786f:	74 e9                	je     785a <__sprintf_chk@plt+0x650a>
    7871:	b9 01 00 00 00       	mov    ecx,0x1
    7876:	e9 ae fd ff ff       	jmp    7629 <__sprintf_chk@plt+0x62d9>
    787b:	8b 97 18 11 00 00    	mov    edx,DWORD PTR [rdi+0x1118]
    7881:	83 fa 02             	cmp    edx,0x2
    7884:	7e 2a                	jle    78b0 <__sprintf_chk@plt+0x6560>
    7886:	8b 8f 24 11 00 00    	mov    ecx,DWORD PTR [rdi+0x1124]
    788c:	8d 42 ff             	lea    eax,[rdx-0x1]
    788f:	48 98                	cdqe   
    7891:	eb 08                	jmp    789b <__sprintf_chk@plt+0x654b>
    7893:	48 ff c8             	dec    rax
    7896:	83 f8 01             	cmp    eax,0x1
    7899:	7e 1a                	jle    78b5 <__sprintf_chk@plt+0x6565>
    789b:	39 c1                	cmp    ecx,eax
    789d:	74 f4                	je     7893 <__sprintf_chk@plt+0x6543>
    789f:	83 7c 87 04 0d       	cmp    DWORD PTR [rdi+rax*4+0x4],0xd
    78a4:	74 ed                	je     7893 <__sprintf_chk@plt+0x6543>
    78a6:	b9 01 00 00 00       	mov    ecx,0x1
    78ab:	e9 79 fd ff ff       	jmp    7629 <__sprintf_chk@plt+0x62d9>
    78b0:	83 fa 01             	cmp    edx,0x1
    78b3:	7e 11                	jle    78c6 <__sprintf_chk@plt+0x6576>
    78b5:	8b 87 24 11 00 00    	mov    eax,DWORD PTR [rdi+0x1124]
    78bb:	83 f8 03             	cmp    eax,0x3
    78be:	7e 51                	jle    7911 <__sprintf_chk@plt+0x65c1>
    78c0:	ff c8                	dec    eax
    78c2:	48 98                	cdqe   
    78c4:	eb 36                	jmp    78fc <__sprintf_chk@plt+0x65ac>
    78c6:	8b 8f 24 11 00 00    	mov    ecx,DWORD PTR [rdi+0x1124]
    78cc:	8d 42 01             	lea    eax,[rdx+0x1]
    78cf:	48 98                	cdqe   
    78d1:	eb 08                	jmp    78db <__sprintf_chk@plt+0x658b>
    78d3:	48 ff c0             	inc    rax
    78d6:	83 f8 02             	cmp    eax,0x2
    78d9:	7f da                	jg     78b5 <__sprintf_chk@plt+0x6565>
    78db:	39 c1                	cmp    ecx,eax
    78dd:	74 f4                	je     78d3 <__sprintf_chk@plt+0x6583>
    78df:	83 7c 87 04 0d       	cmp    DWORD PTR [rdi+rax*4+0x4],0xd
    78e4:	74 ed                	je     78d3 <__sprintf_chk@plt+0x6583>
    78e6:	b9 01 00 00 00       	mov    ecx,0x1
    78eb:	e9 39 fd ff ff       	jmp    7629 <__sprintf_chk@plt+0x62d9>
    78f0:	48 ff c8             	dec    rax
    78f3:	83 f8 02             	cmp    eax,0x2
    78f6:	0f 8e 8c 00 00 00    	jle    7988 <__sprintf_chk@plt+0x6638>
    78fc:	39 c2                	cmp    edx,eax
    78fe:	74 f0                	je     78f0 <__sprintf_chk@plt+0x65a0>
    7900:	83 7c 87 04 0d       	cmp    DWORD PTR [rdi+rax*4+0x4],0xd
    7905:	74 e9                	je     78f0 <__sprintf_chk@plt+0x65a0>
    7907:	b9 01 00 00 00       	mov    ecx,0x1
    790c:	e9 18 fd ff ff       	jmp    7629 <__sprintf_chk@plt+0x62d9>
    7911:	b9 00 00 00 00       	mov    ecx,0x0
    7916:	83 f8 02             	cmp    eax,0x2
    7919:	0f 8f 0a fd ff ff    	jg     7629 <__sprintf_chk@plt+0x62d9>
    791f:	ff c0                	inc    eax
    7921:	48 98                	cdqe   
    7923:	eb 08                	jmp    792d <__sprintf_chk@plt+0x65dd>
    7925:	48 ff c0             	inc    rax
    7928:	83 f8 03             	cmp    eax,0x3
    792b:	7f 15                	jg     7942 <__sprintf_chk@plt+0x65f2>
    792d:	39 c2                	cmp    edx,eax
    792f:	74 f4                	je     7925 <__sprintf_chk@plt+0x65d5>
    7931:	83 7c 87 04 0d       	cmp    DWORD PTR [rdi+rax*4+0x4],0xd
    7936:	74 ed                	je     7925 <__sprintf_chk@plt+0x65d5>
    7938:	b9 01 00 00 00       	mov    ecx,0x1
    793d:	e9 e7 fc ff ff       	jmp    7629 <__sprintf_chk@plt+0x62d9>
    7942:	b9 00 00 00 00       	mov    ecx,0x0
    7947:	e9 dd fc ff ff       	jmp    7629 <__sprintf_chk@plt+0x62d9>
    794c:	b9 00 00 00 00       	mov    ecx,0x0
    7951:	e9 d3 fc ff ff       	jmp    7629 <__sprintf_chk@plt+0x62d9>
    7956:	b9 00 00 00 00       	mov    ecx,0x0
    795b:	e9 c9 fc ff ff       	jmp    7629 <__sprintf_chk@plt+0x62d9>
    7960:	b9 00 00 00 00       	mov    ecx,0x0
    7965:	e9 bf fc ff ff       	jmp    7629 <__sprintf_chk@plt+0x62d9>
    796a:	b9 00 00 00 00       	mov    ecx,0x0
    796f:	e9 b5 fc ff ff       	jmp    7629 <__sprintf_chk@plt+0x62d9>
    7974:	b9 00 00 00 00       	mov    ecx,0x0
    7979:	e9 ab fc ff ff       	jmp    7629 <__sprintf_chk@plt+0x62d9>
    797e:	b9 00 00 00 00       	mov    ecx,0x0
    7983:	e9 a1 fc ff ff       	jmp    7629 <__sprintf_chk@plt+0x62d9>
    7988:	b9 00 00 00 00       	mov    ecx,0x0
    798d:	e9 97 fc ff ff       	jmp    7629 <__sprintf_chk@plt+0x62d9>
    7992:	f3 0f 1e fa          	endbr64 
    7996:	41 57                	push   r15
    7998:	41 56                	push   r14
    799a:	41 55                	push   r13
    799c:	41 54                	push   r12
    799e:	55                   	push   rbp
    799f:	53                   	push   rbx
    79a0:	48 81 ec d8 00 00 00 	sub    rsp,0xd8
    79a7:	49 89 ff             	mov    r15,rdi
    79aa:	89 74 24 58          	mov    DWORD PTR [rsp+0x58],esi
    79ae:	48 89 14 24          	mov    QWORD PTR [rsp],rdx
    79b2:	64 48 8b 04 25 28 00 	mov    rax,QWORD PTR fs:0x28
    79b9:	00 00 
    79bb:	48 89 84 24 c8 00 00 	mov    QWORD PTR [rsp+0xc8],rax
    79c2:	00 
    79c3:	31 c0                	xor    eax,eax
    79c5:	48 c7 84 24 80 00 00 	mov    QWORD PTR [rsp+0x80],0x0
    79cc:	00 00 00 00 00 
    79d1:	48 c7 84 24 88 00 00 	mov    QWORD PTR [rsp+0x88],0x0
    79d8:	00 00 00 00 00 
    79dd:	48 c7 84 24 90 00 00 	mov    QWORD PTR [rsp+0x90],0x0
    79e4:	00 00 00 00 00 
    79e9:	48 c7 84 24 98 00 00 	mov    QWORD PTR [rsp+0x98],0x0
    79f0:	00 00 00 00 00 
    79f5:	48 c7 84 24 a0 00 00 	mov    QWORD PTR [rsp+0xa0],0x0
    79fc:	00 00 00 00 00 
    7a01:	48 c7 84 24 a8 00 00 	mov    QWORD PTR [rsp+0xa8],0x0
    7a08:	00 00 00 00 00 
    7a0d:	48 c7 84 24 b0 00 00 	mov    QWORD PTR [rsp+0xb0],0x0
    7a14:	00 00 00 00 00 
    7a19:	48 c7 84 24 b8 00 00 	mov    QWORD PTR [rsp+0xb8],0x0
    7a20:	00 00 00 00 00 
    7a25:	48 8b 9f 18 01 00 00 	mov    rbx,QWORD PTR [rdi+0x118]
    7a2c:	48 89 5c 24 28       	mov    QWORD PTR [rsp+0x28],rbx
    7a31:	48 8b 87 10 01 00 00 	mov    rax,QWORD PTR [rdi+0x110]
    7a38:	48 89 44 24 10       	mov    QWORD PTR [rsp+0x10],rax
    7a3d:	48 8b 8f 28 01 00 00 	mov    rcx,QWORD PTR [rdi+0x128]
    7a44:	48 8b 15 4d 0a 01 00 	mov    rdx,QWORD PTR [rip+0x10a4d]        # 18498 <stdin@@GLIBC_2.2.5+0x1468>
    7a4b:	48 f7 d2             	not    rdx
    7a4e:	48 8b 05 0b 0a 01 00 	mov    rax,QWORD PTR [rip+0x10a0b]        # 18460 <stdin@@GLIBC_2.2.5+0x1430>
    7a55:	48 f7 d0             	not    rax
    7a58:	48 89 ce             	mov    rsi,rcx
    7a5b:	48 21 d6             	and    rsi,rdx
    7a5e:	48 c1 ee 07          	shr    rsi,0x7
    7a62:	48 21 c1             	and    rcx,rax
    7a65:	48 c1 e9 09          	shr    rcx,0x9
    7a69:	48 09 ce             	or     rsi,rcx
    7a6c:	48 89 74 24 18       	mov    QWORD PTR [rsp+0x18],rsi
    7a71:	48 89 74 24 70       	mov    QWORD PTR [rsp+0x70],rsi
    7a76:	48 8b 8f 30 01 00 00 	mov    rcx,QWORD PTR [rdi+0x130]
    7a7d:	48 21 ca             	and    rdx,rcx
    7a80:	48 c1 e2 09          	shl    rdx,0x9
    7a84:	48 21 c8             	and    rax,rcx
    7a87:	48 c1 e0 07          	shl    rax,0x7
    7a8b:	48 09 c2             	or     rdx,rax
    7a8e:	48 89 54 24 20       	mov    QWORD PTR [rsp+0x20],rdx
    7a93:	48 89 54 24 78       	mov    QWORD PTR [rsp+0x78],rdx
    7a98:	48 8b 87 78 01 00 00 	mov    rax,QWORD PTR [rdi+0x178]
    7a9f:	48 89 44 24 68       	mov    QWORD PTR [rsp+0x68],rax
    7aa4:	48 85 c0             	test   rax,rax
    7aa7:	0f 84 61 01 00 00    	je     7c0e <__sprintf_chk@plt+0x68be>
    7aad:	bd 00 00 00 00       	mov    ebp,0x0
    7ab2:	48 09 d3             	or     rbx,rdx
    7ab5:	49 89 dc             	mov    r12,rbx
    7ab8:	49 f7 d4             	not    r12
    7abb:	48 8d 7c 24 68       	lea    rdi,[rsp+0x68]
    7ac0:	e8 55 af ff ff       	call   2a1a <__sprintf_chk@plt+0x16ca>
    7ac5:	89 c6                	mov    esi,eax
    7ac7:	49 8b 87 68 01 00 00 	mov    rax,QWORD PTR [r15+0x168]
    7ace:	49 0b 87 38 01 00 00 	or     rax,QWORD PTR [r15+0x138]
    7ad5:	49 31 87 08 01 00 00 	xor    QWORD PTR [r15+0x108],rax
    7adc:	4c 89 ff             	mov    rdi,r15
    7adf:	e8 93 ae ff ff       	call   2977 <__sprintf_chk@plt+0x1627>
    7ae4:	48 89 c3             	mov    rbx,rax
    7ae7:	49 23 9f 28 01 00 00 	and    rbx,QWORD PTR [r15+0x128]
    7aee:	48 89 84 24 80 00 00 	mov    QWORD PTR [rsp+0x80],rax
    7af5:	00 
    7af6:	49 8b 97 68 01 00 00 	mov    rdx,QWORD PTR [r15+0x168]
    7afd:	49 0b 97 38 01 00 00 	or     rdx,QWORD PTR [r15+0x138]
    7b04:	49 31 97 08 01 00 00 	xor    QWORD PTR [r15+0x108],rdx
    7b0b:	4c 21 e0             	and    rax,r12
    7b0e:	48 89 c7             	mov    rdi,rax
    7b11:	e8 6d af ff ff       	call   2a83 <__sprintf_chk@plt+0x1733>
    7b16:	41 89 c5             	mov    r13d,eax
    7b19:	48 89 df             	mov    rdi,rbx
    7b1c:	e8 b2 ae ff ff       	call   29d3 <__sprintf_chk@plt+0x1683>
    7b21:	41 29 c5             	sub    r13d,eax
    7b24:	44 01 ed             	add    ebp,r13d
    7b27:	48 83 7c 24 68 00    	cmp    QWORD PTR [rsp+0x68],0x0
    7b2d:	75 8c                	jne    7abb <__sprintf_chk@plt+0x676b>
    7b2f:	49 8b 87 80 01 00 00 	mov    rax,QWORD PTR [r15+0x180]
    7b36:	48 89 44 24 68       	mov    QWORD PTR [rsp+0x68],rax
    7b3b:	48 85 c0             	test   rax,rax
    7b3e:	0f 84 d4 00 00 00    	je     7c18 <__sprintf_chk@plt+0x68c8>
    7b44:	c7 44 24 08 00 00 00 	mov    DWORD PTR [rsp+0x8],0x0
    7b4b:	00 
    7b4c:	4c 8b 64 24 10       	mov    r12,QWORD PTR [rsp+0x10]
    7b51:	4c 0b 64 24 18       	or     r12,QWORD PTR [rsp+0x18]
    7b56:	49 f7 d4             	not    r12
    7b59:	48 8d 7c 24 68       	lea    rdi,[rsp+0x68]
    7b5e:	e8 b7 ae ff ff       	call   2a1a <__sprintf_chk@plt+0x16ca>
    7b63:	89 c6                	mov    esi,eax
    7b65:	49 8b 87 70 01 00 00 	mov    rax,QWORD PTR [r15+0x170]
    7b6c:	49 0b 87 40 01 00 00 	or     rax,QWORD PTR [r15+0x140]
    7b73:	49 31 87 08 01 00 00 	xor    QWORD PTR [r15+0x108],rax
    7b7a:	4c 89 ff             	mov    rdi,r15
    7b7d:	e8 f5 ad ff ff       	call   2977 <__sprintf_chk@plt+0x1627>
    7b82:	48 89 c3             	mov    rbx,rax
    7b85:	49 23 9f 30 01 00 00 	and    rbx,QWORD PTR [r15+0x130]
    7b8c:	48 89 84 24 88 00 00 	mov    QWORD PTR [rsp+0x88],rax
    7b93:	00 
    7b94:	49 8b 97 70 01 00 00 	mov    rdx,QWORD PTR [r15+0x170]
    7b9b:	49 0b 97 40 01 00 00 	or     rdx,QWORD PTR [r15+0x140]
    7ba2:	49 31 97 08 01 00 00 	xor    QWORD PTR [r15+0x108],rdx
    7ba9:	4c 21 e0             	and    rax,r12
    7bac:	48 89 c7             	mov    rdi,rax
    7baf:	e8 cf ae ff ff       	call   2a83 <__sprintf_chk@plt+0x1733>
    7bb4:	41 89 c5             	mov    r13d,eax
    7bb7:	48 89 df             	mov    rdi,rbx
    7bba:	e8 14 ae ff ff       	call   29d3 <__sprintf_chk@plt+0x1683>
    7bbf:	41 29 c5             	sub    r13d,eax
    7bc2:	44 29 6c 24 08       	sub    DWORD PTR [rsp+0x8],r13d
    7bc7:	48 83 7c 24 68 00    	cmp    QWORD PTR [rsp+0x68],0x0
    7bcd:	75 8a                	jne    7b59 <__sprintf_chk@plt+0x6809>
    7bcf:	49 8b 87 58 01 00 00 	mov    rax,QWORD PTR [r15+0x158]
    7bd6:	48 89 44 24 68       	mov    QWORD PTR [rsp+0x68],rax
    7bdb:	48 85 c0             	test   rax,rax
    7bde:	0f 84 57 01 00 00    	je     7d3b <__sprintf_chk@plt+0x69eb>
    7be4:	bb 00 00 00 00       	mov    ebx,0x0
    7be9:	48 8d 44 24 68       	lea    rax,[rsp+0x68]
    7bee:	48 89 44 24 40       	mov    QWORD PTR [rsp+0x40],rax
    7bf3:	48 8b 44 24 28       	mov    rax,QWORD PTR [rsp+0x28]
    7bf8:	48 0b 44 24 20       	or     rax,QWORD PTR [rsp+0x20]
    7bfd:	48 f7 d0             	not    rax
    7c00:	48 89 44 24 38       	mov    QWORD PTR [rsp+0x38],rax
    7c05:	4c 8d 35 54 08 01 00 	lea    r14,[rip+0x10854]        # 18460 <stdin@@GLIBC_2.2.5+0x1430>
    7c0c:	eb 48                	jmp    7c56 <__sprintf_chk@plt+0x6906>
    7c0e:	bd 00 00 00 00       	mov    ebp,0x0
    7c13:	e9 17 ff ff ff       	jmp    7b2f <__sprintf_chk@plt+0x67df>
    7c18:	c7 44 24 08 00 00 00 	mov    DWORD PTR [rsp+0x8],0x0
    7c1f:	00 
    7c20:	eb ad                	jmp    7bcf <__sprintf_chk@plt+0x687f>
    7c22:	41 8b 87 94 01 00 00 	mov    eax,DWORD PTR [r15+0x194]
    7c29:	8d 5c 03 08          	lea    ebx,[rbx+rax*1+0x8]
    7c2d:	eb 1b                	jmp    7c4a <__sprintf_chk@plt+0x68fa>
    7c2f:	83 f8 01             	cmp    eax,0x1
    7c32:	0f 8e ec 00 00 00    	jle    7d24 <__sprintf_chk@plt+0x69d4>
    7c38:	b8 01 00 00 00       	mov    eax,0x1
    7c3d:	c4 c2 7a f7 87 94 01 	sarx   eax,DWORD PTR [r15+0x194],eax
    7c44:	00 00 
    7c46:	8d 5c 03 08          	lea    ebx,[rbx+rax*1+0x8]
    7c4a:	48 83 7c 24 68 00    	cmp    QWORD PTR [rsp+0x68],0x0
    7c50:	0f 84 ea 00 00 00    	je     7d40 <__sprintf_chk@plt+0x69f0>
    7c56:	48 8b 7c 24 40       	mov    rdi,QWORD PTR [rsp+0x40]
    7c5b:	e8 ba ad ff ff       	call   2a1a <__sprintf_chk@plt+0x16ca>
    7c60:	41 89 c4             	mov    r12d,eax
    7c63:	49 8b 87 68 01 00 00 	mov    rax,QWORD PTR [r15+0x168]
    7c6a:	49 0b 87 38 01 00 00 	or     rax,QWORD PTR [r15+0x138]
    7c71:	49 31 87 08 01 00 00 	xor    QWORD PTR [r15+0x108],rax
    7c78:	44 89 e6             	mov    esi,r12d
    7c7b:	4c 89 ff             	mov    rdi,r15
    7c7e:	e8 22 ad ff ff       	call   29a5 <__sprintf_chk@plt+0x1655>
    7c83:	48 89 c6             	mov    rsi,rax
    7c86:	49 23 b7 28 01 00 00 	and    rsi,QWORD PTR [r15+0x128]
    7c8d:	48 89 74 24 30       	mov    QWORD PTR [rsp+0x30],rsi
    7c92:	48 89 84 24 a0 00 00 	mov    QWORD PTR [rsp+0xa0],rax
    7c99:	00 
    7c9a:	49 8b 97 68 01 00 00 	mov    rdx,QWORD PTR [r15+0x168]
    7ca1:	49 0b 97 38 01 00 00 	or     rdx,QWORD PTR [r15+0x138]
    7ca8:	49 31 97 08 01 00 00 	xor    QWORD PTR [r15+0x108],rdx
    7caf:	48 23 44 24 38       	and    rax,QWORD PTR [rsp+0x38]
    7cb4:	48 89 c7             	mov    rdi,rax
    7cb7:	e8 c7 ad ff ff       	call   2a83 <__sprintf_chk@plt+0x1733>
    7cbc:	41 89 c5             	mov    r13d,eax
    7cbf:	48 8b 7c 24 30       	mov    rdi,QWORD PTR [rsp+0x30]
    7cc4:	e8 0a ad ff ff       	call   29d3 <__sprintf_chk@plt+0x1683>
    7cc9:	41 29 c5             	sub    r13d,eax
    7ccc:	44 01 ed             	add    ebp,r13d
    7ccf:	45 89 e5             	mov    r13d,r12d
    7cd2:	41 83 e5 07          	and    r13d,0x7
    7cd6:	41 83 e4 07          	and    r12d,0x7
    7cda:	4b 8b 3c e6          	mov    rdi,QWORD PTR [r14+r12*8]
    7cde:	49 85 bf 28 01 00 00 	test   QWORD PTR [r15+0x128],rdi
    7ce5:	0f 85 5f ff ff ff    	jne    7c4a <__sprintf_chk@plt+0x68fa>
    7ceb:	49 23 bf 58 01 00 00 	and    rdi,QWORD PTR [r15+0x158]
    7cf2:	e8 dc ac ff ff       	call   29d3 <__sprintf_chk@plt+0x1683>
    7cf7:	4d 63 ed             	movsxd r13,r13d
    7cfa:	4b 8b 14 ee          	mov    rdx,QWORD PTR [r14+r13*8]
    7cfe:	49 85 97 30 01 00 00 	test   QWORD PTR [r15+0x130],rdx
    7d05:	0f 85 24 ff ff ff    	jne    7c2f <__sprintf_chk@plt+0x68df>
    7d0b:	83 f8 01             	cmp    eax,0x1
    7d0e:	0f 8e 0e ff ff ff    	jle    7c22 <__sprintf_chk@plt+0x68d2>
    7d14:	41 8b 87 94 01 00 00 	mov    eax,DWORD PTR [r15+0x194]
    7d1b:	8d 5c 03 0c          	lea    ebx,[rbx+rax*1+0xc]
    7d1f:	e9 26 ff ff ff       	jmp    7c4a <__sprintf_chk@plt+0x68fa>
    7d24:	b8 01 00 00 00       	mov    eax,0x1
    7d29:	c4 c2 7a f7 87 94 01 	sarx   eax,DWORD PTR [r15+0x194],eax
    7d30:	00 00 
    7d32:	8d 5c 03 04          	lea    ebx,[rbx+rax*1+0x4]
    7d36:	e9 0f ff ff ff       	jmp    7c4a <__sprintf_chk@plt+0x68fa>
    7d3b:	bb 00 00 00 00       	mov    ebx,0x0
    7d40:	49 8b 87 60 01 00 00 	mov    rax,QWORD PTR [r15+0x160]
    7d47:	48 89 44 24 68       	mov    QWORD PTR [rsp+0x68],rax
    7d4c:	48 85 c0             	test   rax,rax
    7d4f:	0f 84 40 01 00 00    	je     7e95 <__sprintf_chk@plt+0x6b45>
    7d55:	48 8d 44 24 68       	lea    rax,[rsp+0x68]
    7d5a:	48 89 44 24 40       	mov    QWORD PTR [rsp+0x40],rax
    7d5f:	48 8b 44 24 10       	mov    rax,QWORD PTR [rsp+0x10]
    7d64:	48 0b 44 24 18       	or     rax,QWORD PTR [rsp+0x18]
    7d69:	48 f7 d0             	not    rax
    7d6c:	48 89 44 24 38       	mov    QWORD PTR [rsp+0x38],rax
    7d71:	4c 8d 35 e8 06 01 00 	lea    r14,[rip+0x106e8]        # 18460 <stdin@@GLIBC_2.2.5+0x1430>
    7d78:	eb 34                	jmp    7dae <__sprintf_chk@plt+0x6a5e>
    7d7a:	41 2b 9f 98 01 00 00 	sub    ebx,DWORD PTR [r15+0x198]
    7d81:	8d 5b f8             	lea    ebx,[rbx-0x8]
    7d84:	eb 1c                	jmp    7da2 <__sprintf_chk@plt+0x6a52>
    7d86:	83 f8 01             	cmp    eax,0x1
    7d89:	0f 8e ee 00 00 00    	jle    7e7d <__sprintf_chk@plt+0x6b2d>
    7d8f:	b8 01 00 00 00       	mov    eax,0x1
    7d94:	c4 c2 7a f7 87 98 01 	sarx   eax,DWORD PTR [r15+0x198],eax
    7d9b:	00 00 
    7d9d:	83 c0 08             	add    eax,0x8
    7da0:	29 c3                	sub    ebx,eax
    7da2:	48 83 7c 24 68 00    	cmp    QWORD PTR [rsp+0x68],0x0
    7da8:	0f 84 e7 00 00 00    	je     7e95 <__sprintf_chk@plt+0x6b45>
    7dae:	48 8b 7c 24 40       	mov    rdi,QWORD PTR [rsp+0x40]
    7db3:	e8 62 ac ff ff       	call   2a1a <__sprintf_chk@plt+0x16ca>
    7db8:	41 89 c4             	mov    r12d,eax
    7dbb:	49 8b 87 70 01 00 00 	mov    rax,QWORD PTR [r15+0x170]
    7dc2:	49 0b 87 40 01 00 00 	or     rax,QWORD PTR [r15+0x140]
    7dc9:	49 31 87 08 01 00 00 	xor    QWORD PTR [r15+0x108],rax
    7dd0:	44 89 e6             	mov    esi,r12d
    7dd3:	4c 89 ff             	mov    rdi,r15
    7dd6:	e8 ca ab ff ff       	call   29a5 <__sprintf_chk@plt+0x1655>
    7ddb:	48 89 c1             	mov    rcx,rax
    7dde:	49 23 8f 30 01 00 00 	and    rcx,QWORD PTR [r15+0x130]
    7de5:	48 89 4c 24 30       	mov    QWORD PTR [rsp+0x30],rcx
    7dea:	48 89 84 24 a8 00 00 	mov    QWORD PTR [rsp+0xa8],rax
    7df1:	00 
    7df2:	49 8b 97 70 01 00 00 	mov    rdx,QWORD PTR [r15+0x170]
    7df9:	49 0b 97 40 01 00 00 	or     rdx,QWORD PTR [r15+0x140]
    7e00:	49 31 97 08 01 00 00 	xor    QWORD PTR [r15+0x108],rdx
    7e07:	48 23 44 24 38       	and    rax,QWORD PTR [rsp+0x38]
    7e0c:	48 89 c7             	mov    rdi,rax
    7e0f:	e8 6f ac ff ff       	call   2a83 <__sprintf_chk@plt+0x1733>
    7e14:	41 89 c5             	mov    r13d,eax
    7e17:	48 8b 7c 24 30       	mov    rdi,QWORD PTR [rsp+0x30]
    7e1c:	e8 b2 ab ff ff       	call   29d3 <__sprintf_chk@plt+0x1683>
    7e21:	41 29 c5             	sub    r13d,eax
    7e24:	44 29 6c 24 08       	sub    DWORD PTR [rsp+0x8],r13d
    7e29:	45 89 e5             	mov    r13d,r12d
    7e2c:	41 83 e5 07          	and    r13d,0x7
    7e30:	41 83 e4 07          	and    r12d,0x7
    7e34:	4b 8b 3c e6          	mov    rdi,QWORD PTR [r14+r12*8]
    7e38:	49 85 bf 30 01 00 00 	test   QWORD PTR [r15+0x130],rdi
    7e3f:	0f 85 5d ff ff ff    	jne    7da2 <__sprintf_chk@plt+0x6a52>
    7e45:	49 23 bf 60 01 00 00 	and    rdi,QWORD PTR [r15+0x160]
    7e4c:	e8 82 ab ff ff       	call   29d3 <__sprintf_chk@plt+0x1683>
    7e51:	4d 63 ed             	movsxd r13,r13d
    7e54:	4b 8b 14 ee          	mov    rdx,QWORD PTR [r14+r13*8]
    7e58:	49 85 97 28 01 00 00 	test   QWORD PTR [r15+0x128],rdx
    7e5f:	0f 85 21 ff ff ff    	jne    7d86 <__sprintf_chk@plt+0x6a36>
    7e65:	83 f8 01             	cmp    eax,0x1
    7e68:	0f 8e 0c ff ff ff    	jle    7d7a <__sprintf_chk@plt+0x6a2a>
    7e6e:	41 2b 9f 98 01 00 00 	sub    ebx,DWORD PTR [r15+0x198]
    7e75:	8d 5b f4             	lea    ebx,[rbx-0xc]
    7e78:	e9 25 ff ff ff       	jmp    7da2 <__sprintf_chk@plt+0x6a52>
    7e7d:	b8 01 00 00 00       	mov    eax,0x1
    7e82:	c4 c2 7a f7 87 98 01 	sarx   eax,DWORD PTR [r15+0x198],eax
    7e89:	00 00 
    7e8b:	83 c0 04             	add    eax,0x4
    7e8e:	29 c3                	sub    ebx,eax
    7e90:	e9 0d ff ff ff       	jmp    7da2 <__sprintf_chk@plt+0x6a52>
    7e95:	49 8b 87 68 01 00 00 	mov    rax,QWORD PTR [r15+0x168]
    7e9c:	48 89 44 24 68       	mov    QWORD PTR [rsp+0x68],rax
    7ea1:	48 85 c0             	test   rax,rax
    7ea4:	74 4f                	je     7ef5 <__sprintf_chk@plt+0x6ba5>
    7ea6:	4c 8d 74 24 68       	lea    r14,[rsp+0x68]
    7eab:	4c 89 f7             	mov    rdi,r14
    7eae:	e8 67 ab ff ff       	call   2a1a <__sprintf_chk@plt+0x16ca>
    7eb3:	41 89 c4             	mov    r12d,eax
    7eb6:	89 c6                	mov    esi,eax
    7eb8:	4c 89 ff             	mov    rdi,r15
    7ebb:	e8 e5 aa ff ff       	call   29a5 <__sprintf_chk@plt+0x1655>
    7ec0:	49 89 c5             	mov    r13,rax
    7ec3:	44 89 e6             	mov    esi,r12d
    7ec6:	4c 89 ff             	mov    rdi,r15
    7ec9:	e8 a9 aa ff ff       	call   2977 <__sprintf_chk@plt+0x1627>
    7ece:	49 09 c5             	or     r13,rax
    7ed1:	4c 89 ac 24 b0 00 00 	mov    QWORD PTR [rsp+0xb0],r13
    7ed8:	00 
    7ed9:	41 8b b7 d4 01 00 00 	mov    esi,DWORD PTR [r15+0x1d4]
    7ee0:	44 89 e7             	mov    edi,r12d
    7ee3:	e8 13 ac ff ff       	call   2afb <__sprintf_chk@plt+0x17ab>
    7ee8:	29 c3                	sub    ebx,eax
    7eea:	8d 5b 0e             	lea    ebx,[rbx+0xe]
    7eed:	48 83 7c 24 68 00    	cmp    QWORD PTR [rsp+0x68],0x0
    7ef3:	75 b6                	jne    7eab <__sprintf_chk@plt+0x6b5b>
    7ef5:	49 8b 87 70 01 00 00 	mov    rax,QWORD PTR [r15+0x170]
    7efc:	48 89 44 24 68       	mov    QWORD PTR [rsp+0x68],rax
    7f01:	48 85 c0             	test   rax,rax
    7f04:	74 4e                	je     7f54 <__sprintf_chk@plt+0x6c04>
    7f06:	4c 8d 74 24 68       	lea    r14,[rsp+0x68]
    7f0b:	4c 89 f7             	mov    rdi,r14
    7f0e:	e8 07 ab ff ff       	call   2a1a <__sprintf_chk@plt+0x16ca>
    7f13:	41 89 c4             	mov    r12d,eax
    7f16:	89 c6                	mov    esi,eax
    7f18:	4c 89 ff             	mov    rdi,r15
    7f1b:	e8 85 aa ff ff       	call   29a5 <__sprintf_chk@plt+0x1655>
    7f20:	49 89 c5             	mov    r13,rax
    7f23:	44 89 e6             	mov    esi,r12d
    7f26:	4c 89 ff             	mov    rdi,r15
    7f29:	e8 49 aa ff ff       	call   2977 <__sprintf_chk@plt+0x1627>
    7f2e:	49 09 c5             	or     r13,rax
    7f31:	4c 89 ac 24 b8 00 00 	mov    QWORD PTR [rsp+0xb8],r13
    7f38:	00 
    7f39:	41 8b b7 d0 01 00 00 	mov    esi,DWORD PTR [r15+0x1d0]
    7f40:	44 89 e7             	mov    edi,r12d
    7f43:	e8 b3 ab ff ff       	call   2afb <__sprintf_chk@plt+0x17ab>
    7f48:	8d 5c 03 f2          	lea    ebx,[rbx+rax*1-0xe]
    7f4c:	48 83 7c 24 68 00    	cmp    QWORD PTR [rsp+0x68],0x0
    7f52:	75 b7                	jne    7f0b <__sprintf_chk@plt+0x6bbb>
    7f54:	49 8b 87 38 01 00 00 	mov    rax,QWORD PTR [r15+0x138]
    7f5b:	48 89 44 24 68       	mov    QWORD PTR [rsp+0x68],rax
    7f60:	48 85 c0             	test   rax,rax
    7f63:	74 44                	je     7fa9 <__sprintf_chk@plt+0x6c59>
    7f65:	4c 8d 74 24 68       	lea    r14,[rsp+0x68]
    7f6a:	4c 8d 2d 2f 39 01 00 	lea    r13,[rip+0x1392f]        # 1b8a0 <stdin@@GLIBC_2.2.5+0x4870>
    7f71:	4c 8b 64 24 28       	mov    r12,QWORD PTR [rsp+0x28]
    7f76:	4c 0b 64 24 20       	or     r12,QWORD PTR [rsp+0x20]
    7f7b:	49 f7 d4             	not    r12
    7f7e:	4c 89 f7             	mov    rdi,r14
    7f81:	e8 94 aa ff ff       	call   2a1a <__sprintf_chk@plt+0x16ca>
    7f86:	48 98                	cdqe   
    7f88:	49 8b 7c c5 00       	mov    rdi,QWORD PTR [r13+rax*8+0x0]
    7f8d:	48 89 bc 24 90 00 00 	mov    QWORD PTR [rsp+0x90],rdi
    7f94:	00 
    7f95:	4c 21 e7             	and    rdi,r12
    7f98:	e8 36 aa ff ff       	call   29d3 <__sprintf_chk@plt+0x1683>
    7f9d:	8d 6c 45 00          	lea    ebp,[rbp+rax*2+0x0]
    7fa1:	48 83 7c 24 68 00    	cmp    QWORD PTR [rsp+0x68],0x0
    7fa7:	75 d5                	jne    7f7e <__sprintf_chk@plt+0x6c2e>
    7fa9:	49 8b 87 40 01 00 00 	mov    rax,QWORD PTR [r15+0x140]
    7fb0:	48 89 44 24 68       	mov    QWORD PTR [rsp+0x68],rax
    7fb5:	48 85 c0             	test   rax,rax
    7fb8:	74 46                	je     8000 <__sprintf_chk@plt+0x6cb0>
    7fba:	4c 8d 74 24 68       	lea    r14,[rsp+0x68]
    7fbf:	4c 8d 2d da 38 01 00 	lea    r13,[rip+0x138da]        # 1b8a0 <stdin@@GLIBC_2.2.5+0x4870>
    7fc6:	4c 8b 64 24 10       	mov    r12,QWORD PTR [rsp+0x10]
    7fcb:	4c 0b 64 24 18       	or     r12,QWORD PTR [rsp+0x18]
    7fd0:	49 f7 d4             	not    r12
    7fd3:	4c 89 f7             	mov    rdi,r14
    7fd6:	e8 3f aa ff ff       	call   2a1a <__sprintf_chk@plt+0x16ca>
    7fdb:	48 98                	cdqe   
    7fdd:	49 8b 7c c5 00       	mov    rdi,QWORD PTR [r13+rax*8+0x0]
    7fe2:	48 89 bc 24 98 00 00 	mov    QWORD PTR [rsp+0x98],rdi
    7fe9:	00 
    7fea:	4c 21 e7             	and    rdi,r12
    7fed:	e8 e1 a9 ff ff       	call   29d3 <__sprintf_chk@plt+0x1683>
    7ff2:	01 c0                	add    eax,eax
    7ff4:	29 44 24 08          	sub    DWORD PTR [rsp+0x8],eax
    7ff8:	48 83 7c 24 68 00    	cmp    QWORD PTR [rsp+0x68],0x0
    7ffe:	75 d3                	jne    7fd3 <__sprintf_chk@plt+0x6c83>
    8000:	03 6c 24 08          	add    ebp,DWORD PTR [rsp+0x8]
    8004:	8d 44 6d 00          	lea    eax,[rbp+rbp*2+0x0]
    8008:	01 d8                	add    eax,ebx
    800a:	89 44 24 40          	mov    DWORD PTR [rsp+0x40],eax
    800e:	4c 89 ff             	mov    rdi,r15
    8011:	e8 6c 14 00 00       	call   9482 <__sprintf_chk@plt+0x8132>
    8016:	48 89 c1             	mov    rcx,rax
    8019:	48 89 44 24 10       	mov    QWORD PTR [rsp+0x10],rax
    801e:	8b 40 50             	mov    eax,DWORD PTR [rax+0x50]
    8021:	48 8b 34 24          	mov    rsi,QWORD PTR [rsp]
    8025:	89 46 08             	mov    DWORD PTR [rsi+0x8],eax
    8028:	8b 41 54             	mov    eax,DWORD PTR [rcx+0x54]
    802b:	89 46 0c             	mov    DWORD PTR [rsi+0xc],eax
    802e:	45 8b a7 d4 01 00 00 	mov    r12d,DWORD PTR [r15+0x1d4]
    8035:	41 8b 9f b8 01 00 00 	mov    ebx,DWORD PTR [r15+0x1b8]
    803c:	85 db                	test   ebx,ebx
    803e:	74 7b                	je     80bb <__sprintf_chk@plt+0x6d6b>
    8040:	41 8b 87 d0 01 00 00 	mov    eax,DWORD PTR [r15+0x1d0]
    8047:	41 89 c5             	mov    r13d,eax
    804a:	41 c1 fd 03          	sar    r13d,0x3
    804e:	89 c2                	mov    edx,eax
    8050:	83 e2 07             	and    edx,0x7
    8053:	83 e0 07             	and    eax,0x7
    8056:	48 8d 0d 03 f4 00 00 	lea    rcx,[rip+0xf403]        # 17460 <stdin@@GLIBC_2.2.5+0x430>
    805d:	4c 8b 34 c1          	mov    r14,QWORD PTR [rcx+rax*8]
    8061:	8d 42 fd             	lea    eax,[rdx-0x3]
    8064:	bd 00 00 00 00       	mov    ebp,0x0
    8069:	83 f8 02             	cmp    eax,0x2
    806c:	77 1c                	ja     808a <__sprintf_chk@plt+0x6d3a>
    806e:	41 8b 87 c4 01 00 00 	mov    eax,DWORD PTR [r15+0x1c4]
    8075:	89 c2                	mov    edx,eax
    8077:	83 e2 04             	and    edx,0x4
    807a:	83 fa 01             	cmp    edx,0x1
    807d:	19 ed                	sbb    ebp,ebp
    807f:	83 e5 f0             	and    ebp,0xfffffff0
    8082:	8d 55 f4             	lea    edx,[rbp-0xc]
    8085:	a8 02                	test   al,0x2
    8087:	0f 44 ea             	cmove  ebp,edx
    808a:	8d 5d e2             	lea    ebx,[rbp-0x1e]
    808d:	41 83 fd 02          	cmp    r13d,0x2
    8091:	0f 8f 46 02 00 00    	jg     82dd <__sprintf_chk@plt+0x6f8d>
    8097:	49 8b bf 60 01 00 00 	mov    rdi,QWORD PTR [r15+0x160]
    809e:	49 0b bf 70 01 00 00 	or     rdi,QWORD PTR [r15+0x170]
    80a5:	4c 21 f7             	and    rdi,r14
    80a8:	48 8b 44 24 10       	mov    rax,QWORD PTR [rsp+0x10]
    80ad:	48 23 78 18          	and    rdi,QWORD PTR [rax+0x18]
    80b1:	e8 1d a9 ff ff       	call   29d3 <__sprintf_chk@plt+0x1683>
    80b6:	6b c0 f3             	imul   eax,eax,0xfffffff3
    80b9:	01 c3                	add    ebx,eax
    80bb:	41 8b af b4 01 00 00 	mov    ebp,DWORD PTR [r15+0x1b4]
    80c2:	85 ed                	test   ebp,ebp
    80c4:	74 7d                	je     8143 <__sprintf_chk@plt+0x6df3>
    80c6:	45 89 e5             	mov    r13d,r12d
    80c9:	41 c1 fd 03          	sar    r13d,0x3
    80cd:	44 89 e0             	mov    eax,r12d
    80d0:	83 e0 07             	and    eax,0x7
    80d3:	41 83 e4 07          	and    r12d,0x7
    80d7:	48 8d 15 82 f3 00 00 	lea    rdx,[rip+0xf382]        # 17460 <stdin@@GLIBC_2.2.5+0x430>
    80de:	4e 8b 34 e2          	mov    r14,QWORD PTR [rdx+r12*8]
    80e2:	83 e8 03             	sub    eax,0x3
    80e5:	41 bc 00 00 00 00    	mov    r12d,0x0
    80eb:	83 f8 02             	cmp    eax,0x2
    80ee:	77 20                	ja     8110 <__sprintf_chk@plt+0x6dc0>
    80f0:	41 8b 87 c4 01 00 00 	mov    eax,DWORD PTR [r15+0x1c4]
    80f7:	a8 10                	test   al,0x10
    80f9:	41 0f 94 c4          	sete   r12b
    80fd:	45 0f b6 e4          	movzx  r12d,r12b
    8101:	41 c1 e4 04          	shl    r12d,0x4
    8105:	41 8d 54 24 0c       	lea    edx,[r12+0xc]
    810a:	a8 08                	test   al,0x8
    810c:	44 0f 44 e2          	cmove  r12d,edx
    8110:	41 8d 6c 24 1e       	lea    ebp,[r12+0x1e]
    8115:	41 83 fd 04          	cmp    r13d,0x4
    8119:	0f 8e cb 02 00 00    	jle    83ea <__sprintf_chk@plt+0x709a>
    811f:	49 8b bf 58 01 00 00 	mov    rdi,QWORD PTR [r15+0x158]
    8126:	49 0b bf 68 01 00 00 	or     rdi,QWORD PTR [r15+0x168]
    812d:	4c 21 f7             	and    rdi,r14
    8130:	48 8b 44 24 10       	mov    rax,QWORD PTR [rsp+0x10]
    8135:	48 23 78 10          	and    rdi,QWORD PTR [rax+0x10]
    8139:	e8 95 a8 ff ff       	call   29d3 <__sprintf_chk@plt+0x1683>
    813e:	6b c0 f3             	imul   eax,eax,0xfffffff3
    8141:	29 c5                	sub    ebp,eax
    8143:	48 8b 04 24          	mov    rax,QWORD PTR [rsp]
    8147:	01 58 20             	add    DWORD PTR [rax+0x20],ebx
    814a:	01 68 24             	add    DWORD PTR [rax+0x24],ebp
    814d:	41 8b 87 d4 01 00 00 	mov    eax,DWORD PTR [r15+0x1d4]
    8154:	89 44 24 30          	mov    DWORD PTR [rsp+0x30],eax
    8158:	41 83 bf b4 01 00 00 	cmp    DWORD PTR [r15+0x1b4],0x0
    815f:	00 
    8160:	0f 85 94 03 00 00    	jne    84fa <__sprintf_chk@plt+0x71aa>
    8166:	41 83 bf b8 01 00 00 	cmp    DWORD PTR [r15+0x1b8],0x0
    816d:	00 
    816e:	0f 84 d4 03 00 00    	je     8548 <__sprintf_chk@plt+0x71f8>
    8174:	4c 8b ac 24 80 00 00 	mov    r13,QWORD PTR [rsp+0x80]
    817b:	00 
    817c:	4c 8b b4 24 90 00 00 	mov    r14,QWORD PTR [rsp+0x90]
    8183:	00 
    8184:	48 8b 84 24 a0 00 00 	mov    rax,QWORD PTR [rsp+0xa0]
    818b:	00 
    818c:	48 89 44 24 08       	mov    QWORD PTR [rsp+0x8],rax
    8191:	48 8b 84 24 b0 00 00 	mov    rax,QWORD PTR [rsp+0xb0]
    8198:	00 
    8199:	48 89 44 24 28       	mov    QWORD PTR [rsp+0x28],rax
    819e:	41 8b 87 d0 01 00 00 	mov    eax,DWORD PTR [r15+0x1d0]
    81a5:	4c 8b a4 24 88 00 00 	mov    r12,QWORD PTR [rsp+0x88]
    81ac:	00 
    81ad:	48 8b b4 24 98 00 00 	mov    rsi,QWORD PTR [rsp+0x98]
    81b4:	00 
    81b5:	48 89 74 24 38       	mov    QWORD PTR [rsp+0x38],rsi
    81ba:	48 8b 8c 24 a8 00 00 	mov    rcx,QWORD PTR [rsp+0xa8]
    81c1:	00 
    81c2:	48 89 4c 24 48       	mov    QWORD PTR [rsp+0x48],rcx
    81c7:	4c 8b 8c 24 b8 00 00 	mov    r9,QWORD PTR [rsp+0xb8]
    81ce:	00 
    81cf:	4c 89 4c 24 50       	mov    QWORD PTR [rsp+0x50],r9
    81d4:	89 44 24 5c          	mov    DWORD PTR [rsp+0x5c],eax
    81d8:	48 63 d0             	movsxd rdx,eax
    81db:	48 8d 05 7e f0 00 00 	lea    rax,[rip+0xf07e]        # 17260 <stdin@@GLIBC_2.2.5+0x230>
    81e2:	48 8b 1c d0          	mov    rbx,QWORD PTR [rax+rdx*8]
    81e6:	49 8b bf 70 01 00 00 	mov    rdi,QWORD PTR [r15+0x170]
    81ed:	49 0b bf 60 01 00 00 	or     rdi,QWORD PTR [r15+0x160]
    81f4:	49 0b bf 80 01 00 00 	or     rdi,QWORD PTR [r15+0x180]
    81fb:	49 0b bf 40 01 00 00 	or     rdi,QWORD PTR [r15+0x140]
    8202:	48 21 df             	and    rdi,rbx
    8205:	e8 c9 a7 ff ff       	call   29d3 <__sprintf_chk@plt+0x1683>
    820a:	6b c0 ea             	imul   eax,eax,0xffffffea
    820d:	4c 8b 5c 24 20       	mov    r11,QWORD PTR [rsp+0x20]
    8212:	49 85 db             	test   r11,rbx
    8215:	40 0f 95 c5          	setne  bpl
    8219:	40 0f b6 ed          	movzx  ebp,bpl
    821d:	4c 89 e2             	mov    rdx,r12
    8220:	48 21 da             	and    rdx,rbx
    8223:	48 83 fa 01          	cmp    rdx,0x1
    8227:	83 dd ff             	sbb    ebp,0xffffffff
    822a:	48 8b 74 24 38       	mov    rsi,QWORD PTR [rsp+0x38]
    822f:	48 89 f2             	mov    rdx,rsi
    8232:	48 21 da             	and    rdx,rbx
    8235:	48 83 fa 01          	cmp    rdx,0x1
    8239:	83 dd ff             	sbb    ebp,0xffffffff
    823c:	48 8b 4c 24 48       	mov    rcx,QWORD PTR [rsp+0x48]
    8241:	48 89 ca             	mov    rdx,rcx
    8244:	48 21 da             	and    rdx,rbx
    8247:	48 83 fa 01          	cmp    rdx,0x1
    824b:	83 dd ff             	sbb    ebp,0xffffffff
    824e:	4c 8b 4c 24 50       	mov    r9,QWORD PTR [rsp+0x50]
    8253:	4c 89 ca             	mov    rdx,r9
    8256:	48 21 da             	and    rdx,rbx
    8259:	48 83 fa 01          	cmp    rdx,0x1
    825d:	83 dd ff             	sbb    ebp,0xffffffff
    8260:	8d 14 ad 00 00 00 00 	lea    edx,[rbp*4+0x0]
    8267:	29 d5                	sub    ebp,edx
    8269:	01 c5                	add    ebp,eax
    826b:	48 89 f7             	mov    rdi,rsi
    826e:	4c 09 e7             	or     rdi,r12
    8271:	48 09 cf             	or     rdi,rcx
    8274:	4c 09 cf             	or     rdi,r9
    8277:	4c 09 df             	or     rdi,r11
    827a:	48 21 df             	and    rdi,rbx
    827d:	e8 01 a8 ff ff       	call   2a83 <__sprintf_chk@plt+0x1733>
    8282:	8d 14 85 00 00 00 00 	lea    edx,[rax*4+0x0]
    8289:	29 d0                	sub    eax,edx
    828b:	01 c5                	add    ebp,eax
    828d:	48 63 54 24 5c       	movsxd rdx,DWORD PTR [rsp+0x5c]
    8292:	48 8d 05 c7 ed 00 00 	lea    rax,[rip+0xedc7]        # 17060 <stdin@@GLIBC_2.2.5+0x30>
    8299:	48 8b 0c d0          	mov    rcx,QWORD PTR [rax+rdx*8]
    829d:	48 85 4c 24 20       	test   QWORD PTR [rsp+0x20],rcx
    82a2:	0f 95 c2             	setne  dl
    82a5:	0f b6 d2             	movzx  edx,dl
    82a8:	8d 42 02             	lea    eax,[rdx+0x2]
    82ab:	49 85 cc             	test   r12,rcx
    82ae:	0f 45 d0             	cmovne edx,eax
    82b1:	8d 42 02             	lea    eax,[rdx+0x2]
    82b4:	48 85 4c 24 38       	test   QWORD PTR [rsp+0x38],rcx
    82b9:	0f 45 d0             	cmovne edx,eax
    82bc:	8d 42 04             	lea    eax,[rdx+0x4]
    82bf:	48 85 4c 24 48       	test   QWORD PTR [rsp+0x48],rcx
    82c4:	0f 45 d0             	cmovne edx,eax
    82c7:	8d 42 08             	lea    eax,[rdx+0x8]
    82ca:	48 85 4c 24 50       	test   QWORD PTR [rsp+0x50],rcx
    82cf:	0f 45 d0             	cmovne edx,eax
    82d2:	f7 da                	neg    edx
    82d4:	8d 5c 55 00          	lea    ebx,[rbp+rdx*2+0x0]
    82d8:	e9 56 02 00 00       	jmp    8533 <__sprintf_chk@plt+0x71e3>
    82dd:	49 8b bf 28 01 00 00 	mov    rdi,QWORD PTR [r15+0x128]
    82e4:	48 23 3d 65 01 01 00 	and    rdi,QWORD PTR [rip+0x10165]        # 18450 <stdin@@GLIBC_2.2.5+0x1420>
    82eb:	4c 21 f7             	and    rdi,r14
    82ee:	e8 e0 a6 ff ff       	call   29d3 <__sprintf_chk@plt+0x1683>
    82f3:	89 c2                	mov    edx,eax
    82f5:	8d 45 06             	lea    eax,[rbp+0x6]
    82f8:	83 fa 03             	cmp    edx,0x3
    82fb:	0f 44 e8             	cmove  ebp,eax
    82fe:	48 8b 44 24 10       	mov    rax,QWORD PTR [rsp+0x10]
    8303:	4c 89 f7             	mov    rdi,r14
    8306:	48 23 78 10          	and    rdi,QWORD PTR [rax+0x10]
    830a:	e8 74 a7 ff ff       	call   2a83 <__sprintf_chk@plt+0x1733>
    830f:	01 c0                	add    eax,eax
    8311:	29 c5                	sub    ebp,eax
    8313:	41 8b 87 d0 01 00 00 	mov    eax,DWORD PTR [r15+0x1d0]
    831a:	89 c2                	mov    edx,eax
    831c:	83 e2 07             	and    edx,0x7
    831f:	0f 85 b5 00 00 00    	jne    83da <__sprintf_chk@plt+0x708a>
    8325:	ff c0                	inc    eax
    8327:	48 98                	cdqe   
    8329:	49 8d 14 87          	lea    rdx,[r15+rax*4]
    832d:	83 7a e0 01          	cmp    DWORD PTR [rdx-0x20],0x1
    8331:	b8 0c 00 00 00       	mov    eax,0xc
    8336:	b9 00 00 00 00       	mov    ecx,0x0
    833b:	0f 45 c1             	cmovne eax,ecx
    833e:	01 e8                	add    eax,ebp
    8340:	83 7a e4 01          	cmp    DWORD PTR [rdx-0x1c],0x1
    8344:	bd 18 00 00 00       	mov    ebp,0x18
    8349:	0f 45 e9             	cmovne ebp,ecx
    834c:	01 e8                	add    eax,ebp
    834e:	83 7a e8 01          	cmp    DWORD PTR [rdx-0x18],0x1
    8352:	b9 0c 00 00 00       	mov    ecx,0xc
    8357:	be 00 00 00 00       	mov    esi,0x0
    835c:	0f 45 ce             	cmovne ecx,esi
    835f:	01 c8                	add    eax,ecx
    8361:	83 7a c0 01          	cmp    DWORD PTR [rdx-0x40],0x1
    8365:	0f 94 c1             	sete   cl
    8368:	0f b6 c9             	movzx  ecx,cl
    836b:	8d 04 88             	lea    eax,[rax+rcx*4]
    836e:	83 7a c4 01          	cmp    DWORD PTR [rdx-0x3c],0x1
    8372:	b9 0a 00 00 00       	mov    ecx,0xa
    8377:	0f 45 ce             	cmovne ecx,esi
    837a:	01 c8                	add    eax,ecx
    837c:	83 7a c8 01          	cmp    DWORD PTR [rdx-0x38],0x1
    8380:	0f 94 c1             	sete   cl
    8383:	0f b6 c9             	movzx  ecx,cl
    8386:	8d 04 88             	lea    eax,[rax+rcx*4]
    8389:	83 7a a4 01          	cmp    DWORD PTR [rdx-0x5c],0x1
    838d:	0f 94 c2             	sete   dl
    8390:	0f b6 d2             	movzx  edx,dl
    8393:	8d 1c 90             	lea    ebx,[rax+rdx*4]
    8396:	48 8d 05 83 00 01 00 	lea    rax,[rip+0x10083]        # 18420 <stdin@@GLIBC_2.2.5+0x13f0>
    839d:	41 8d 4d ff          	lea    ecx,[r13-0x1]
    83a1:	48 63 c9             	movsxd rcx,ecx
    83a4:	41 8d 55 fe          	lea    edx,[r13-0x2]
    83a8:	48 63 d2             	movsxd rdx,edx
    83ab:	48 8b 3c c8          	mov    rdi,QWORD PTR [rax+rcx*8]
    83af:	48 0b 3c d0          	or     rdi,QWORD PTR [rax+rdx*8]
    83b3:	41 83 ed 03          	sub    r13d,0x3
    83b7:	4d 63 ed             	movsxd r13,r13d
    83ba:	4a 0b 3c e8          	or     rdi,QWORD PTR [rax+r13*8]
    83be:	4c 89 f0             	mov    rax,r14
    83c1:	49 23 87 30 01 00 00 	and    rax,QWORD PTR [r15+0x130]
    83c8:	48 21 c7             	and    rdi,rax
    83cb:	e8 03 a6 ff ff       	call   29d3 <__sprintf_chk@plt+0x1683>
    83d0:	f7 d8                	neg    eax
    83d2:	8d 1c 83             	lea    ebx,[rbx+rax*4]
    83d5:	e9 bd fc ff ff       	jmp    8097 <__sprintf_chk@plt+0x6d47>
    83da:	83 fa 07             	cmp    edx,0x7
    83dd:	0f 94 c2             	sete   dl
    83e0:	0f b6 d2             	movzx  edx,dl
    83e3:	29 d0                	sub    eax,edx
    83e5:	e9 3d ff ff ff       	jmp    8327 <__sprintf_chk@plt+0x6fd7>
    83ea:	49 8b bf 30 01 00 00 	mov    rdi,QWORD PTR [r15+0x130]
    83f1:	48 23 3d 30 00 01 00 	and    rdi,QWORD PTR [rip+0x10030]        # 18428 <stdin@@GLIBC_2.2.5+0x13f8>
    83f8:	4c 21 f7             	and    rdi,r14
    83fb:	e8 d3 a5 ff ff       	call   29d3 <__sprintf_chk@plt+0x1683>
    8400:	89 c2                	mov    edx,eax
    8402:	41 8d 44 24 fa       	lea    eax,[r12-0x6]
    8407:	83 fa 03             	cmp    edx,0x3
    840a:	44 0f 44 e0          	cmove  r12d,eax
    840e:	48 8b 44 24 10       	mov    rax,QWORD PTR [rsp+0x10]
    8413:	4c 89 f7             	mov    rdi,r14
    8416:	48 23 78 18          	and    rdi,QWORD PTR [rax+0x18]
    841a:	e8 64 a6 ff ff       	call   2a83 <__sprintf_chk@plt+0x1733>
    841f:	41 8d 2c 44          	lea    ebp,[r12+rax*2]
    8423:	41 8b 87 d4 01 00 00 	mov    eax,DWORD PTR [r15+0x1d4]
    842a:	89 c2                	mov    edx,eax
    842c:	83 e2 07             	and    edx,0x7
    842f:	0f 85 b5 00 00 00    	jne    84ea <__sprintf_chk@plt+0x719a>
    8435:	ff c0                	inc    eax
    8437:	48 98                	cdqe   
    8439:	49 8d 04 87          	lea    rax,[r15+rax*4]
    843d:	83 78 28 02          	cmp    DWORD PTR [rax+0x28],0x2
    8441:	ba 0c 00 00 00       	mov    edx,0xc
    8446:	b9 00 00 00 00       	mov    ecx,0x0
    844b:	0f 45 d1             	cmovne edx,ecx
    844e:	29 d5                	sub    ebp,edx
    8450:	83 78 24 02          	cmp    DWORD PTR [rax+0x24],0x2
    8454:	ba 18 00 00 00       	mov    edx,0x18
    8459:	0f 45 d1             	cmovne edx,ecx
    845c:	29 d5                	sub    ebp,edx
    845e:	83 78 20 02          	cmp    DWORD PTR [rax+0x20],0x2
    8462:	ba 0c 00 00 00       	mov    edx,0xc
    8467:	0f 45 d1             	cmovne edx,ecx
    846a:	29 d5                	sub    ebp,edx
    846c:	83 78 40 02          	cmp    DWORD PTR [rax+0x40],0x2
    8470:	0f 94 c2             	sete   dl
    8473:	0f b6 d2             	movzx  edx,dl
    8476:	c1 e2 02             	shl    edx,0x2
    8479:	29 d5                	sub    ebp,edx
    847b:	83 78 44 02          	cmp    DWORD PTR [rax+0x44],0x2
    847f:	ba 0a 00 00 00       	mov    edx,0xa
    8484:	0f 45 d1             	cmovne edx,ecx
    8487:	29 d5                	sub    ebp,edx
    8489:	83 78 48 02          	cmp    DWORD PTR [rax+0x48],0x2
    848d:	0f 94 c2             	sete   dl
    8490:	0f b6 d2             	movzx  edx,dl
    8493:	c1 e2 02             	shl    edx,0x2
    8496:	29 d5                	sub    ebp,edx
    8498:	83 78 64 02          	cmp    DWORD PTR [rax+0x64],0x2
    849c:	0f 94 c0             	sete   al
    849f:	0f b6 c0             	movzx  eax,al
    84a2:	c1 e0 02             	shl    eax,0x2
    84a5:	29 c5                	sub    ebp,eax
    84a7:	48 8d 05 72 ff 00 00 	lea    rax,[rip+0xff72]        # 18420 <stdin@@GLIBC_2.2.5+0x13f0>
    84ae:	41 8d 4d 01          	lea    ecx,[r13+0x1]
    84b2:	48 63 c9             	movsxd rcx,ecx
    84b5:	41 8d 55 02          	lea    edx,[r13+0x2]
    84b9:	48 63 d2             	movsxd rdx,edx
    84bc:	48 8b 3c c8          	mov    rdi,QWORD PTR [rax+rcx*8]
    84c0:	48 0b 3c d0          	or     rdi,QWORD PTR [rax+rdx*8]
    84c4:	41 83 c5 03          	add    r13d,0x3
    84c8:	4d 63 ed             	movsxd r13,r13d
    84cb:	4a 0b 3c e8          	or     rdi,QWORD PTR [rax+r13*8]
    84cf:	4c 89 f0             	mov    rax,r14
    84d2:	49 23 87 28 01 00 00 	and    rax,QWORD PTR [r15+0x128]
    84d9:	48 21 c7             	and    rdi,rax
    84dc:	e8 f2 a4 ff ff       	call   29d3 <__sprintf_chk@plt+0x1683>
    84e1:	8d 6c 85 00          	lea    ebp,[rbp+rax*4+0x0]
    84e5:	e9 35 fc ff ff       	jmp    811f <__sprintf_chk@plt+0x6dcf>
    84ea:	83 fa 07             	cmp    edx,0x7
    84ed:	0f 94 c2             	sete   dl
    84f0:	0f b6 d2             	movzx  edx,dl
    84f3:	29 d0                	sub    eax,edx
    84f5:	e9 3d ff ff ff       	jmp    8437 <__sprintf_chk@plt+0x70e7>
    84fa:	4c 8b ac 24 80 00 00 	mov    r13,QWORD PTR [rsp+0x80]
    8501:	00 
    8502:	4c 8b b4 24 90 00 00 	mov    r14,QWORD PTR [rsp+0x90]
    8509:	00 
    850a:	48 8b 84 24 a0 00 00 	mov    rax,QWORD PTR [rsp+0xa0]
    8511:	00 
    8512:	48 89 44 24 08       	mov    QWORD PTR [rsp+0x8],rax
    8517:	48 8b 84 24 b0 00 00 	mov    rax,QWORD PTR [rsp+0xb0]
    851e:	00 
    851f:	48 89 44 24 28       	mov    QWORD PTR [rsp+0x28],rax
    8524:	41 8b 9f b8 01 00 00 	mov    ebx,DWORD PTR [r15+0x1b8]
    852b:	85 db                	test   ebx,ebx
    852d:	0f 85 6b fc ff ff    	jne    819e <__sprintf_chk@plt+0x6e4e>
    8533:	41 8b 87 b4 01 00 00 	mov    eax,DWORD PTR [r15+0x1b4]
    853a:	85 c0                	test   eax,eax
    853c:	75 67                	jne    85a5 <__sprintf_chk@plt+0x7255>
    853e:	48 8b 0c 24          	mov    rcx,QWORD PTR [rsp]
    8542:	01 59 20             	add    DWORD PTR [rcx+0x20],ebx
    8545:	01 41 24             	add    DWORD PTR [rcx+0x24],eax
    8548:	41 8b 8f d0 01 00 00 	mov    ecx,DWORD PTR [r15+0x1d0]
    854f:	89 4c 24 18          	mov    DWORD PTR [rsp+0x18],ecx
    8553:	41 8b 87 d4 01 00 00 	mov    eax,DWORD PTR [r15+0x1d4]
    855a:	89 44 24 08          	mov    DWORD PTR [rsp+0x8],eax
    855e:	48 8b 44 24 10       	mov    rax,QWORD PTR [rsp+0x10]
    8563:	48 8b 40 20          	mov    rax,QWORD PTR [rax+0x20]
    8567:	48 89 44 24 68       	mov    QWORD PTR [rsp+0x68],rax
    856c:	48 85 c0             	test   rax,rax
    856f:	0f 84 ba 03 00 00    	je     892f <__sprintf_chk@plt+0x75df>
    8575:	b8 00 04 00 00       	mov    eax,0x400
    857a:	2b 44 24 58          	sub    eax,DWORD PTR [rsp+0x58]
    857e:	8d 04 80             	lea    eax,[rax+rax*4]
    8581:	c1 e0 02             	shl    eax,0x2
    8584:	8d 90 ff 03 00 00    	lea    edx,[rax+0x3ff]
    858a:	0f 48 c2             	cmovs  eax,edx
    858d:	c1 f8 0a             	sar    eax,0xa
    8590:	89 44 24 30          	mov    DWORD PTR [rsp+0x30],eax
    8594:	c1 f9 03             	sar    ecx,0x3
    8597:	89 4c 24 20          	mov    DWORD PTR [rsp+0x20],ecx
    859b:	bb 00 00 00 00       	mov    ebx,0x0
    85a0:	e9 aa 01 00 00       	jmp    874f <__sprintf_chk@plt+0x73ff>
    85a5:	48 63 54 24 30       	movsxd rdx,DWORD PTR [rsp+0x30]
    85aa:	48 8d 05 af ec 00 00 	lea    rax,[rip+0xecaf]        # 17260 <stdin@@GLIBC_2.2.5+0x230>
    85b1:	48 8b 2c d0          	mov    rbp,QWORD PTR [rax+rdx*8]
    85b5:	49 8b bf 68 01 00 00 	mov    rdi,QWORD PTR [r15+0x168]
    85bc:	49 0b bf 58 01 00 00 	or     rdi,QWORD PTR [r15+0x158]
    85c3:	49 0b bf 78 01 00 00 	or     rdi,QWORD PTR [r15+0x178]
    85ca:	49 0b bf 38 01 00 00 	or     rdi,QWORD PTR [r15+0x138]
    85d1:	48 21 ef             	and    rdi,rbp
    85d4:	e8 fa a3 ff ff       	call   29d3 <__sprintf_chk@plt+0x1683>
    85d9:	6b c0 ea             	imul   eax,eax,0xffffffea
    85dc:	4c 8b 4c 24 18       	mov    r9,QWORD PTR [rsp+0x18]
    85e1:	49 85 e9             	test   r9,rbp
    85e4:	0f 95 c2             	setne  dl
    85e7:	0f b6 d2             	movzx  edx,dl
    85ea:	48 89 e9             	mov    rcx,rbp
    85ed:	4c 21 e9             	and    rcx,r13
    85f0:	48 83 f9 01          	cmp    rcx,0x1
    85f4:	83 da ff             	sbb    edx,0xffffffff
    85f7:	48 89 e9             	mov    rcx,rbp
    85fa:	4c 21 f1             	and    rcx,r14
    85fd:	48 83 f9 01          	cmp    rcx,0x1
    8601:	83 da ff             	sbb    edx,0xffffffff
    8604:	48 8b 74 24 08       	mov    rsi,QWORD PTR [rsp+0x8]
    8609:	48 89 f1             	mov    rcx,rsi
    860c:	48 21 e9             	and    rcx,rbp
    860f:	48 83 f9 01          	cmp    rcx,0x1
    8613:	83 da ff             	sbb    edx,0xffffffff
    8616:	4c 8b 54 24 28       	mov    r10,QWORD PTR [rsp+0x28]
    861b:	4c 89 d1             	mov    rcx,r10
    861e:	48 21 e9             	and    rcx,rbp
    8621:	48 83 f9 01          	cmp    rcx,0x1
    8625:	83 da ff             	sbb    edx,0xffffffff
    8628:	44 8d 24 52          	lea    r12d,[rdx+rdx*2]
    862c:	41 29 c4             	sub    r12d,eax
    862f:	4c 89 ef             	mov    rdi,r13
    8632:	4c 09 f7             	or     rdi,r14
    8635:	48 09 f7             	or     rdi,rsi
    8638:	4c 09 d7             	or     rdi,r10
    863b:	4c 09 cf             	or     rdi,r9
    863e:	48 21 ef             	and    rdi,rbp
    8641:	e8 3d a4 ff ff       	call   2a83 <__sprintf_chk@plt+0x1733>
    8646:	89 c2                	mov    edx,eax
    8648:	41 8d 04 84          	lea    eax,[r12+rax*4]
    864c:	89 c1                	mov    ecx,eax
    864e:	29 d1                	sub    ecx,edx
    8650:	48 63 54 24 30       	movsxd rdx,DWORD PTR [rsp+0x30]
    8655:	48 8d 05 04 ea 00 00 	lea    rax,[rip+0xea04]        # 17060 <stdin@@GLIBC_2.2.5+0x30>
    865c:	48 8b 14 d0          	mov    rdx,QWORD PTR [rax+rdx*8]
    8660:	48 85 54 24 18       	test   QWORD PTR [rsp+0x18],rdx
    8665:	0f 95 c0             	setne  al
    8668:	0f b6 c0             	movzx  eax,al
    866b:	8d 70 02             	lea    esi,[rax+0x2]
    866e:	4c 85 ea             	test   rdx,r13
    8671:	0f 45 c6             	cmovne eax,esi
    8674:	8d 70 02             	lea    esi,[rax+0x2]
    8677:	4c 85 f2             	test   rdx,r14
    867a:	0f 45 c6             	cmovne eax,esi
    867d:	8d 70 04             	lea    esi,[rax+0x4]
    8680:	48 85 54 24 08       	test   QWORD PTR [rsp+0x8],rdx
    8685:	0f 45 c6             	cmovne eax,esi
    8688:	8d 70 08             	lea    esi,[rax+0x8]
    868b:	48 85 54 24 28       	test   QWORD PTR [rsp+0x28],rdx
    8690:	0f 45 c6             	cmovne eax,esi
    8693:	8d 04 41             	lea    eax,[rcx+rax*2]
    8696:	e9 a3 fe ff ff       	jmp    853e <__sprintf_chk@plt+0x71ee>
    869b:	49 63 c6             	movsxd rax,r14d
    869e:	48 8d 0d fb 9e 00 00 	lea    rcx,[rip+0x9efb]        # 125a0 <__sprintf_chk@plt+0x11250>
    86a5:	03 1c 81             	add    ebx,DWORD PTR [rcx+rax*4]
    86a8:	81 7c 24 58 7f 01 00 	cmp    DWORD PTR [rsp+0x58],0x17f
    86af:	00 
    86b0:	0f 8e ee 00 00 00    	jle    87a4 <__sprintf_chk@plt+0x7454>
    86b6:	44 3b 64 24 20       	cmp    r12d,DWORD PTR [rsp+0x20]
    86bb:	0f 8d 53 01 00 00    	jge    8814 <__sprintf_chk@plt+0x74c4>
    86c1:	44 8d 6d f8          	lea    r13d,[rbp-0x8]
    86c5:	49 63 c5             	movsxd rax,r13d
    86c8:	48 8d 35 d1 03 01 00 	lea    rsi,[rip+0x103d1]        # 18aa0 <stdin@@GLIBC_2.2.5+0x1a70>
    86cf:	48 8b 04 c6          	mov    rax,QWORD PTR [rsi+rax*8]
    86d3:	49 85 87 08 01 00 00 	test   QWORD PTR [r15+0x108],rax
    86da:	0f 84 6c 01 00 00    	je     884c <__sprintf_chk@plt+0x74fc>
    86e0:	49 63 c6             	movsxd rax,r14d
    86e3:	48 8d 15 d6 9e 00 00 	lea    rdx,[rip+0x9ed6]        # 125c0 <__sprintf_chk@plt+0x11270>
    86ea:	03 1c 82             	add    ebx,DWORD PTR [rdx+rax*4]
    86ed:	b8 07 00 00 00       	mov    eax,0x7
    86f2:	44 29 e0             	sub    eax,r12d
    86f5:	41 89 c4             	mov    r12d,eax
    86f8:	44 89 ee             	mov    esi,r13d
    86fb:	8b 7c 24 08          	mov    edi,DWORD PTR [rsp+0x8]
    86ff:	e8 52 a4 ff ff       	call   2b56 <__sprintf_chk@plt+0x1806>
    8704:	41 0f af c4          	imul   eax,r12d
    8708:	01 c3                	add    ebx,eax
    870a:	44 89 ee             	mov    esi,r13d
    870d:	8b 7c 24 18          	mov    edi,DWORD PTR [rsp+0x18]
    8711:	e8 40 a4 ff ff       	call   2b56 <__sprintf_chk@plt+0x1806>
    8716:	44 0f af e0          	imul   r12d,eax
    871a:	42 8d 04 a5 00 00 00 	lea    eax,[r12*4+0x0]
    8721:	00 
    8722:	41 29 c4             	sub    r12d,eax
    8725:	44 01 e3             	add    ebx,r12d
    8728:	48 63 ed             	movsxd rbp,ebp
    872b:	48 8d 05 ce f1 00 00 	lea    rax,[rip+0xf1ce]        # 17900 <stdin@@GLIBC_2.2.5+0x8d0>
    8732:	48 8b 14 e8          	mov    rdx,QWORD PTR [rax+rbp*8]
    8736:	8d 43 f8             	lea    eax,[rbx-0x8]
    8739:	49 85 97 60 01 00 00 	test   QWORD PTR [r15+0x160],rdx
    8740:	0f 45 d8             	cmovne ebx,eax
    8743:	48 83 7c 24 68 00    	cmp    QWORD PTR [rsp+0x68],0x0
    8749:	0f 84 89 01 00 00    	je     88d8 <__sprintf_chk@plt+0x7588>
    874f:	48 8d 7c 24 68       	lea    rdi,[rsp+0x68]
    8754:	e8 c1 a2 ff ff       	call   2a1a <__sprintf_chk@plt+0x16ca>
    8759:	89 c5                	mov    ebp,eax
    875b:	41 89 c4             	mov    r12d,eax
    875e:	41 c1 fc 03          	sar    r12d,0x3
    8762:	41 89 c5             	mov    r13d,eax
    8765:	41 83 e5 07          	and    r13d,0x7
    8769:	45 8d 74 24 ff       	lea    r14d,[r12-0x1]
    876e:	49 63 c6             	movsxd rax,r14d
    8771:	48 8d 0d c8 9e 00 00 	lea    rcx,[rip+0x9ec8]        # 12640 <__sprintf_chk@plt+0x112f0>
    8778:	03 1c 81             	add    ebx,DWORD PTR [rcx+rax*4]
    877b:	48 63 c5             	movsxd rax,ebp
    877e:	49 8d 04 87          	lea    rax,[r15+rax*4]
    8782:	83 38 01             	cmp    DWORD PTR [rax],0x1
    8785:	0f 84 10 ff ff ff    	je     869b <__sprintf_chk@plt+0x734b>
    878b:	83 78 28 01          	cmp    DWORD PTR [rax+0x28],0x1
    878f:	0f 84 06 ff ff ff    	je     869b <__sprintf_chk@plt+0x734b>
    8795:	83 78 20 01          	cmp    DWORD PTR [rax+0x20],0x1
    8799:	0f 85 09 ff ff ff    	jne    86a8 <__sprintf_chk@plt+0x7358>
    879f:	e9 f7 fe ff ff       	jmp    869b <__sprintf_chk@plt+0x734b>
    87a4:	89 ee                	mov    esi,ebp
    87a6:	44 89 ef             	mov    edi,r13d
    87a9:	e8 a8 a3 ff ff       	call   2b56 <__sprintf_chk@plt+0x1806>
    87ae:	89 44 24 28          	mov    DWORD PTR [rsp+0x28],eax
    87b2:	8b 74 24 08          	mov    esi,DWORD PTR [rsp+0x8]
    87b6:	44 89 ef             	mov    edi,r13d
    87b9:	e8 98 a3 ff ff       	call   2b56 <__sprintf_chk@plt+0x1806>
    87be:	41 83 bf cc 01 00 00 	cmp    DWORD PTR [r15+0x1cc],0x1
    87c5:	01 
    87c6:	83 d8 00             	sbb    eax,0x0
    87c9:	39 44 24 28          	cmp    DWORD PTR [rsp+0x28],eax
    87cd:	7d 17                	jge    87e6 <__sprintf_chk@plt+0x7496>
    87cf:	03 5c 24 30          	add    ebx,DWORD PTR [rsp+0x30]
    87d3:	83 7c 24 58 00       	cmp    DWORD PTR [rsp+0x58],0x0
    87d8:	0f 85 d8 fe ff ff    	jne    86b6 <__sprintf_chk@plt+0x7366>
    87de:	81 c3 f4 01 00 00    	add    ebx,0x1f4
    87e4:	eb 0b                	jmp    87f1 <__sprintf_chk@plt+0x74a1>
    87e6:	83 7c 24 58 00       	cmp    DWORD PTR [rsp+0x58],0x0
    87eb:	0f 85 c5 fe ff ff    	jne    86b6 <__sprintf_chk@plt+0x7366>
    87f1:	44 3b 64 24 20       	cmp    r12d,DWORD PTR [rsp+0x20]
    87f6:	7c 06                	jl     87fe <__sprintf_chk@plt+0x74ae>
    87f8:	41 83 fc 01          	cmp    r12d,0x1
    87fc:	7e 08                	jle    8806 <__sprintf_chk@plt+0x74b6>
    87fe:	83 eb 19             	sub    ebx,0x19
    8801:	e9 b0 fe ff ff       	jmp    86b6 <__sprintf_chk@plt+0x7366>
    8806:	45 85 ed             	test   r13d,r13d
    8809:	74 33                	je     883e <__sprintf_chk@plt+0x74ee>
    880b:	41 83 fd 07          	cmp    r13d,0x7
    880f:	74 2d                	je     883e <__sprintf_chk@plt+0x74ee>
    8811:	83 c3 19             	add    ebx,0x19
    8814:	8b 44 24 18          	mov    eax,DWORD PTR [rsp+0x18]
    8818:	83 e0 07             	and    eax,0x7
    881b:	44 29 e8             	sub    eax,r13d
    881e:	99                   	cdq    
    881f:	31 d0                	xor    eax,edx
    8821:	29 d0                	sub    eax,edx
    8823:	83 f8 01             	cmp    eax,0x1
    8826:	0f 85 95 fe ff ff    	jne    86c1 <__sprintf_chk@plt+0x7371>
    882c:	49 63 c6             	movsxd rax,r14d
    882f:	48 8d 0d aa 9d 00 00 	lea    rcx,[rip+0x9daa]        # 125e0 <__sprintf_chk@plt+0x11290>
    8836:	03 1c 81             	add    ebx,DWORD PTR [rcx+rax*4]
    8839:	e9 83 fe ff ff       	jmp    86c1 <__sprintf_chk@plt+0x7371>
    883e:	8b 44 24 18          	mov    eax,DWORD PTR [rsp+0x18]
    8842:	83 e0 07             	and    eax,0x7
    8845:	41 39 c5             	cmp    r13d,eax
    8848:	75 c7                	jne    8811 <__sprintf_chk@plt+0x74c1>
    884a:	eb c8                	jmp    8814 <__sprintf_chk@plt+0x74c4>
    884c:	41 b8 00 00 00 00    	mov    r8d,0x0
    8852:	44 89 e9             	mov    ecx,r13d
    8855:	89 ea                	mov    edx,ebp
    8857:	be 00 00 00 00       	mov    esi,0x0
    885c:	4c 89 ff             	mov    rdi,r15
    885f:	e8 c3 5f 00 00       	call   e827 <__sprintf_chk@plt+0xd4d7>
    8864:	85 c0                	test   eax,eax
    8866:	0f 88 81 fe ff ff    	js     86ed <__sprintf_chk@plt+0x739d>
    886c:	49 63 c6             	movsxd rax,r14d
    886f:	48 8d 15 aa 9d 00 00 	lea    rdx,[rip+0x9daa]        # 12620 <__sprintf_chk@plt+0x112d0>
    8876:	03 1c 82             	add    ebx,DWORD PTR [rdx+rax*4]
    8879:	89 5c 24 28          	mov    DWORD PTR [rsp+0x28],ebx
    887d:	41 83 fc 01          	cmp    r12d,0x1
    8881:	0f 8e 66 fe ff ff    	jle    86ed <__sprintf_chk@plt+0x739d>
    8887:	8d 4d f0             	lea    ecx,[rbp-0x10]
    888a:	48 63 c1             	movsxd rax,ecx
    888d:	48 8d 35 0c 02 01 00 	lea    rsi,[rip+0x1020c]        # 18aa0 <stdin@@GLIBC_2.2.5+0x1a70>
    8894:	48 8b 04 c6          	mov    rax,QWORD PTR [rsi+rax*8]
    8898:	49 85 87 08 01 00 00 	test   QWORD PTR [r15+0x108],rax
    889f:	0f 85 48 fe ff ff    	jne    86ed <__sprintf_chk@plt+0x739d>
    88a5:	41 b8 00 00 00 00    	mov    r8d,0x0
    88ab:	89 ea                	mov    edx,ebp
    88ad:	be 00 00 00 00       	mov    esi,0x0
    88b2:	4c 89 ff             	mov    rdi,r15
    88b5:	e8 6d 5f 00 00       	call   e827 <__sprintf_chk@plt+0xd4d7>
    88ba:	85 c0                	test   eax,eax
    88bc:	0f 88 2b fe ff ff    	js     86ed <__sprintf_chk@plt+0x739d>
    88c2:	49 63 d6             	movsxd rdx,r14d
    88c5:	48 8d 05 34 9d 00 00 	lea    rax,[rip+0x9d34]        # 12600 <__sprintf_chk@plt+0x112b0>
    88cc:	8b 5c 24 28          	mov    ebx,DWORD PTR [rsp+0x28]
    88d0:	03 1c 90             	add    ebx,DWORD PTR [rax+rdx*4]
    88d3:	e9 15 fe ff ff       	jmp    86ed <__sprintf_chk@plt+0x739d>
    88d8:	89 5c 24 28          	mov    DWORD PTR [rsp+0x28],ebx
    88dc:	48 8b 44 24 10       	mov    rax,QWORD PTR [rsp+0x10]
    88e1:	48 8b 40 28          	mov    rax,QWORD PTR [rax+0x28]
    88e5:	48 89 44 24 68       	mov    QWORD PTR [rsp+0x68],rax
    88ea:	48 85 c0             	test   rax,rax
    88ed:	0f 84 76 02 00 00    	je     8b69 <__sprintf_chk@plt+0x7819>
    88f3:	b8 00 04 00 00       	mov    eax,0x400
    88f8:	2b 44 24 58          	sub    eax,DWORD PTR [rsp+0x58]
    88fc:	8d 04 80             	lea    eax,[rax+rax*4]
    88ff:	8d 14 85 00 00 00 00 	lea    edx,[rax*4+0x0]
    8906:	8d 82 ff 03 00 00    	lea    eax,[rdx+0x3ff]
    890c:	85 d2                	test   edx,edx
    890e:	0f 49 c2             	cmovns eax,edx
    8911:	c1 f8 0a             	sar    eax,0xa
    8914:	f7 d8                	neg    eax
    8916:	89 44 24 48          	mov    DWORD PTR [rsp+0x48],eax
    891a:	8b 44 24 08          	mov    eax,DWORD PTR [rsp+0x8]
    891e:	c1 f8 03             	sar    eax,0x3
    8921:	89 44 24 20          	mov    DWORD PTR [rsp+0x20],eax
    8925:	bb 00 00 00 00       	mov    ebx,0x0
    892a:	e9 aa 00 00 00       	jmp    89d9 <__sprintf_chk@plt+0x7689>
    892f:	c7 44 24 28 00 00 00 	mov    DWORD PTR [rsp+0x28],0x0
    8936:	00 
    8937:	eb a3                	jmp    88dc <__sprintf_chk@plt+0x758c>
    8939:	49 63 c5             	movsxd rax,r13d
    893c:	48 8d 35 5d 9c 00 00 	lea    rsi,[rip+0x9c5d]        # 125a0 <__sprintf_chk@plt+0x11250>
    8943:	2b 1c 86             	sub    ebx,DWORD PTR [rsi+rax*4]
    8946:	81 7c 24 58 7f 01 00 	cmp    DWORD PTR [rsp+0x58],0x17f
    894d:	00 
    894e:	0f 8e e0 00 00 00    	jle    8a34 <__sprintf_chk@plt+0x76e4>
    8954:	44 3b 74 24 20       	cmp    r14d,DWORD PTR [rsp+0x20]
    8959:	0f 8e 4e 01 00 00    	jle    8aad <__sprintf_chk@plt+0x775d>
    895f:	44 8d 65 08          	lea    r12d,[rbp+0x8]
    8963:	49 63 c4             	movsxd rax,r12d
    8966:	48 8d 0d 33 01 01 00 	lea    rcx,[rip+0x10133]        # 18aa0 <stdin@@GLIBC_2.2.5+0x1a70>
    896d:	48 8b 04 c1          	mov    rax,QWORD PTR [rcx+rax*8]
    8971:	49 85 87 08 01 00 00 	test   QWORD PTR [r15+0x108],rax
    8978:	0f 84 67 01 00 00    	je     8ae5 <__sprintf_chk@plt+0x7795>
    897e:	49 63 c5             	movsxd rax,r13d
    8981:	48 8d 15 38 9c 00 00 	lea    rdx,[rip+0x9c38]        # 125c0 <__sprintf_chk@plt+0x11270>
    8988:	2b 1c 82             	sub    ebx,DWORD PTR [rdx+rax*4]
    898b:	44 89 e6             	mov    esi,r12d
    898e:	8b 7c 24 18          	mov    edi,DWORD PTR [rsp+0x18]
    8992:	e8 bf a1 ff ff       	call   2b56 <__sprintf_chk@plt+0x1806>
    8997:	41 0f af c6          	imul   eax,r14d
    899b:	29 c3                	sub    ebx,eax
    899d:	44 89 e6             	mov    esi,r12d
    89a0:	8b 7c 24 08          	mov    edi,DWORD PTR [rsp+0x8]
    89a4:	e8 ad a1 ff ff       	call   2b56 <__sprintf_chk@plt+0x1806>
    89a9:	41 0f af c6          	imul   eax,r14d
    89ad:	8d 1c 83             	lea    ebx,[rbx+rax*4]
    89b0:	29 c3                	sub    ebx,eax
    89b2:	48 63 ed             	movsxd rbp,ebp
    89b5:	48 8d 05 44 f1 00 00 	lea    rax,[rip+0xf144]        # 17b00 <stdin@@GLIBC_2.2.5+0xad0>
    89bc:	48 8b 14 e8          	mov    rdx,QWORD PTR [rax+rbp*8]
    89c0:	8d 43 08             	lea    eax,[rbx+0x8]
    89c3:	49 85 97 58 01 00 00 	test   QWORD PTR [r15+0x158],rdx
    89ca:	0f 45 d8             	cmovne ebx,eax
    89cd:	48 83 7c 24 68 00    	cmp    QWORD PTR [rsp+0x68],0x0
    89d3:	0f 84 95 01 00 00    	je     8b6e <__sprintf_chk@plt+0x781e>
    89d9:	48 8d 7c 24 68       	lea    rdi,[rsp+0x68]
    89de:	e8 37 a0 ff ff       	call   2a1a <__sprintf_chk@plt+0x16ca>
    89e3:	89 c5                	mov    ebp,eax
    89e5:	41 89 c6             	mov    r14d,eax
    89e8:	41 c1 fe 03          	sar    r14d,0x3
    89ec:	41 89 c4             	mov    r12d,eax
    89ef:	41 83 e4 07          	and    r12d,0x7
    89f3:	b8 06 00 00 00       	mov    eax,0x6
    89f8:	44 29 f0             	sub    eax,r14d
    89fb:	41 89 c5             	mov    r13d,eax
    89fe:	48 98                	cdqe   
    8a00:	48 8d 0d 39 9c 00 00 	lea    rcx,[rip+0x9c39]        # 12640 <__sprintf_chk@plt+0x112f0>
    8a07:	2b 1c 81             	sub    ebx,DWORD PTR [rcx+rax*4]
    8a0a:	48 63 c5             	movsxd rax,ebp
    8a0d:	49 8d 04 87          	lea    rax,[r15+rax*4]
    8a11:	83 78 08 02          	cmp    DWORD PTR [rax+0x8],0x2
    8a15:	0f 84 1e ff ff ff    	je     8939 <__sprintf_chk@plt+0x75e9>
    8a1b:	83 78 e0 02          	cmp    DWORD PTR [rax-0x20],0x2
    8a1f:	0f 84 14 ff ff ff    	je     8939 <__sprintf_chk@plt+0x75e9>
    8a25:	83 78 e8 02          	cmp    DWORD PTR [rax-0x18],0x2
    8a29:	0f 85 17 ff ff ff    	jne    8946 <__sprintf_chk@plt+0x75f6>
    8a2f:	e9 05 ff ff ff       	jmp    8939 <__sprintf_chk@plt+0x75e9>
    8a34:	41 8d 44 24 38       	lea    eax,[r12+0x38]
    8a39:	89 ee                	mov    esi,ebp
    8a3b:	89 44 24 30          	mov    DWORD PTR [rsp+0x30],eax
    8a3f:	89 c7                	mov    edi,eax
    8a41:	e8 10 a1 ff ff       	call   2b56 <__sprintf_chk@plt+0x1806>
    8a46:	89 44 24 38          	mov    DWORD PTR [rsp+0x38],eax
    8a4a:	8b 74 24 18          	mov    esi,DWORD PTR [rsp+0x18]
    8a4e:	8b 7c 24 30          	mov    edi,DWORD PTR [rsp+0x30]
    8a52:	e8 ff a0 ff ff       	call   2b56 <__sprintf_chk@plt+0x1806>
    8a57:	41 83 bf cc 01 00 00 	cmp    DWORD PTR [r15+0x1cc],0x1
    8a5e:	01 
    8a5f:	83 d0 ff             	adc    eax,0xffffffff
    8a62:	39 44 24 38          	cmp    DWORD PTR [rsp+0x38],eax
    8a66:	7d 17                	jge    8a7f <__sprintf_chk@plt+0x772f>
    8a68:	03 5c 24 48          	add    ebx,DWORD PTR [rsp+0x48]
    8a6c:	83 7c 24 58 00       	cmp    DWORD PTR [rsp+0x58],0x0
    8a71:	0f 85 dd fe ff ff    	jne    8954 <__sprintf_chk@plt+0x7604>
    8a77:	81 eb f4 01 00 00    	sub    ebx,0x1f4
    8a7d:	eb 0b                	jmp    8a8a <__sprintf_chk@plt+0x773a>
    8a7f:	83 7c 24 58 00       	cmp    DWORD PTR [rsp+0x58],0x0
    8a84:	0f 85 ca fe ff ff    	jne    8954 <__sprintf_chk@plt+0x7604>
    8a8a:	44 3b 74 24 20       	cmp    r14d,DWORD PTR [rsp+0x20]
    8a8f:	7f 06                	jg     8a97 <__sprintf_chk@plt+0x7747>
    8a91:	41 83 fe 05          	cmp    r14d,0x5
    8a95:	7f 08                	jg     8a9f <__sprintf_chk@plt+0x774f>
    8a97:	83 c3 19             	add    ebx,0x19
    8a9a:	e9 b5 fe ff ff       	jmp    8954 <__sprintf_chk@plt+0x7604>
    8a9f:	45 85 e4             	test   r12d,r12d
    8aa2:	74 33                	je     8ad7 <__sprintf_chk@plt+0x7787>
    8aa4:	41 83 fc 07          	cmp    r12d,0x7
    8aa8:	74 2d                	je     8ad7 <__sprintf_chk@plt+0x7787>
    8aaa:	83 eb 19             	sub    ebx,0x19
    8aad:	8b 44 24 08          	mov    eax,DWORD PTR [rsp+0x8]
    8ab1:	83 e0 07             	and    eax,0x7
    8ab4:	44 29 e0             	sub    eax,r12d
    8ab7:	99                   	cdq    
    8ab8:	31 d0                	xor    eax,edx
    8aba:	29 d0                	sub    eax,edx
    8abc:	83 f8 01             	cmp    eax,0x1
    8abf:	0f 85 9a fe ff ff    	jne    895f <__sprintf_chk@plt+0x760f>
    8ac5:	49 63 c5             	movsxd rax,r13d
    8ac8:	48 8d 35 11 9b 00 00 	lea    rsi,[rip+0x9b11]        # 125e0 <__sprintf_chk@plt+0x11290>
    8acf:	2b 1c 86             	sub    ebx,DWORD PTR [rsi+rax*4]
    8ad2:	e9 88 fe ff ff       	jmp    895f <__sprintf_chk@plt+0x760f>
    8ad7:	8b 44 24 08          	mov    eax,DWORD PTR [rsp+0x8]
    8adb:	83 e0 07             	and    eax,0x7
    8ade:	41 39 c4             	cmp    r12d,eax
    8ae1:	75 c7                	jne    8aaa <__sprintf_chk@plt+0x775a>
    8ae3:	eb c8                	jmp    8aad <__sprintf_chk@plt+0x775d>
    8ae5:	41 b8 00 00 00 00    	mov    r8d,0x0
    8aeb:	44 89 e1             	mov    ecx,r12d
    8aee:	89 ea                	mov    edx,ebp
    8af0:	be 01 00 00 00       	mov    esi,0x1
    8af5:	4c 89 ff             	mov    rdi,r15
    8af8:	e8 2a 5d 00 00       	call   e827 <__sprintf_chk@plt+0xd4d7>
    8afd:	85 c0                	test   eax,eax
    8aff:	0f 88 86 fe ff ff    	js     898b <__sprintf_chk@plt+0x763b>
    8b05:	49 63 c5             	movsxd rax,r13d
    8b08:	48 8d 15 11 9b 00 00 	lea    rdx,[rip+0x9b11]        # 12620 <__sprintf_chk@plt+0x112d0>
    8b0f:	2b 1c 82             	sub    ebx,DWORD PTR [rdx+rax*4]
    8b12:	41 83 fe 05          	cmp    r14d,0x5
    8b16:	0f 8f 6f fe ff ff    	jg     898b <__sprintf_chk@plt+0x763b>
    8b1c:	8d 4d 10             	lea    ecx,[rbp+0x10]
    8b1f:	48 63 c1             	movsxd rax,ecx
    8b22:	48 8d 35 77 ff 00 00 	lea    rsi,[rip+0xff77]        # 18aa0 <stdin@@GLIBC_2.2.5+0x1a70>
    8b29:	48 8b 04 c6          	mov    rax,QWORD PTR [rsi+rax*8]
    8b2d:	49 85 87 08 01 00 00 	test   QWORD PTR [r15+0x108],rax
    8b34:	0f 85 51 fe ff ff    	jne    898b <__sprintf_chk@plt+0x763b>
    8b3a:	41 b8 00 00 00 00    	mov    r8d,0x0
    8b40:	89 ea                	mov    edx,ebp
    8b42:	be 01 00 00 00       	mov    esi,0x1
    8b47:	4c 89 ff             	mov    rdi,r15
    8b4a:	e8 d8 5c 00 00       	call   e827 <__sprintf_chk@plt+0xd4d7>
    8b4f:	85 c0                	test   eax,eax
    8b51:	0f 88 34 fe ff ff    	js     898b <__sprintf_chk@plt+0x763b>
    8b57:	49 63 d5             	movsxd rdx,r13d
    8b5a:	48 8d 05 9f 9a 00 00 	lea    rax,[rip+0x9a9f]        # 12600 <__sprintf_chk@plt+0x112b0>
    8b61:	2b 1c 90             	sub    ebx,DWORD PTR [rax+rdx*4]
    8b64:	e9 22 fe ff ff       	jmp    898b <__sprintf_chk@plt+0x763b>
    8b69:	bb 00 00 00 00       	mov    ebx,0x0
    8b6e:	48 8b 04 24          	mov    rax,QWORD PTR [rsp]
    8b72:	8b 74 24 28          	mov    esi,DWORD PTR [rsp+0x28]
    8b76:	89 70 10             	mov    DWORD PTR [rax+0x10],esi
    8b79:	89 58 14             	mov    DWORD PTR [rax+0x14],ebx
    8b7c:	48 89 c6             	mov    rsi,rax
    8b7f:	4c 89 ff             	mov    rdi,r15
    8b82:	e8 fa 16 00 00       	call   a281 <__sprintf_chk@plt+0x8f31>
    8b87:	4c 8b 74 24 10       	mov    r14,QWORD PTR [rsp+0x10]
    8b8c:	49 8b 7e 30          	mov    rdi,QWORD PTR [r14+0x30]
    8b90:	49 23 bf 38 01 00 00 	and    rdi,QWORD PTR [r15+0x138]
    8b97:	e8 37 9e ff ff       	call   29d3 <__sprintf_chk@plt+0x1683>
    8b9c:	89 c3                	mov    ebx,eax
    8b9e:	49 8b 7e 40          	mov    rdi,QWORD PTR [r14+0x40]
    8ba2:	49 23 bf 38 01 00 00 	and    rdi,QWORD PTR [r15+0x138]
    8ba9:	e8 25 9e ff ff       	call   29d3 <__sprintf_chk@plt+0x1683>
    8bae:	89 dd                	mov    ebp,ebx
    8bb0:	c1 e5 04             	shl    ebp,0x4
    8bb3:	29 dd                	sub    ebp,ebx
    8bb5:	8d 04 80             	lea    eax,[rax+rax*4]
    8bb8:	8d 04 80             	lea    eax,[rax+rax*4]
    8bbb:	01 c5                	add    ebp,eax
    8bbd:	49 8b 7e 38          	mov    rdi,QWORD PTR [r14+0x38]
    8bc1:	49 23 bf 40 01 00 00 	and    rdi,QWORD PTR [r15+0x140]
    8bc8:	e8 06 9e ff ff       	call   29d3 <__sprintf_chk@plt+0x1683>
    8bcd:	89 c3                	mov    ebx,eax
    8bcf:	c1 e0 04             	shl    eax,0x4
    8bd2:	29 c3                	sub    ebx,eax
    8bd4:	49 8b 7e 48          	mov    rdi,QWORD PTR [r14+0x48]
    8bd8:	49 23 bf 40 01 00 00 	and    rdi,QWORD PTR [r15+0x140]
    8bdf:	e8 ef 9d ff ff       	call   29d3 <__sprintf_chk@plt+0x1683>
    8be4:	8d 04 80             	lea    eax,[rax+rax*4]
    8be7:	8d 04 80             	lea    eax,[rax+rax*4]
    8bea:	29 c3                	sub    ebx,eax
    8bec:	48 8b 05 2d f8 00 00 	mov    rax,QWORD PTR [rip+0xf82d]        # 18420 <stdin@@GLIBC_2.2.5+0x13f0>
    8bf3:	49 85 87 50 01 00 00 	test   QWORD PTR [r15+0x150],rax
    8bfa:	75 10                	jne    8c0c <__sprintf_chk@plt+0x78bc>
    8bfc:	48 8b 05 25 f8 00 00 	mov    rax,QWORD PTR [rip+0xf825]        # 18428 <stdin@@GLIBC_2.2.5+0x13f8>
    8c03:	49 85 87 30 01 00 00 	test   QWORD PTR [r15+0x130],rax
    8c0a:	74 14                	je     8c20 <__sprintf_chk@plt+0x78d0>
    8c0c:	48 8b 3d 15 f8 00 00 	mov    rdi,QWORD PTR [rip+0xf815]        # 18428 <stdin@@GLIBC_2.2.5+0x13f8>
    8c13:	49 23 bf 58 01 00 00 	and    rdi,QWORD PTR [r15+0x158]
    8c1a:	0f 85 90 01 00 00    	jne    8db0 <__sprintf_chk@plt+0x7a60>
    8c20:	48 8b 05 31 f8 00 00 	mov    rax,QWORD PTR [rip+0xf831]        # 18458 <stdin@@GLIBC_2.2.5+0x1428>
    8c27:	49 85 87 48 01 00 00 	test   QWORD PTR [r15+0x148],rax
    8c2e:	75 10                	jne    8c40 <__sprintf_chk@plt+0x78f0>
    8c30:	48 8b 05 19 f8 00 00 	mov    rax,QWORD PTR [rip+0xf819]        # 18450 <stdin@@GLIBC_2.2.5+0x1420>
    8c37:	49 85 87 28 01 00 00 	test   QWORD PTR [r15+0x128],rax
    8c3e:	74 14                	je     8c54 <__sprintf_chk@plt+0x7904>
    8c40:	48 8b 3d 09 f8 00 00 	mov    rdi,QWORD PTR [rip+0xf809]        # 18450 <stdin@@GLIBC_2.2.5+0x1420>
    8c47:	49 23 bf 60 01 00 00 	and    rdi,QWORD PTR [r15+0x160]
    8c4e:	0f 85 74 01 00 00    	jne    8dc8 <__sprintf_chk@plt+0x7a78>
    8c54:	41 83 bf bc 01 00 00 	cmp    DWORD PTR [r15+0x1bc],0x1
    8c5b:	01 
    8c5c:	0f 84 7c 01 00 00    	je     8dde <__sprintf_chk@plt+0x7a8e>
    8c62:	41 83 bf c0 01 00 00 	cmp    DWORD PTR [r15+0x1c0],0x1
    8c69:	01 
    8c6a:	0f 84 cb 01 00 00    	je     8e3b <__sprintf_chk@plt+0x7aeb>
    8c70:	41 83 bf bc 01 00 00 	cmp    DWORD PTR [r15+0x1bc],0x2
    8c77:	02 
    8c78:	0f 84 f9 03 00 00    	je     9077 <__sprintf_chk@plt+0x7d27>
    8c7e:	41 83 bf c0 01 00 00 	cmp    DWORD PTR [r15+0x1c0],0x2
    8c85:	02 
    8c86:	0f 84 00 02 00 00    	je     8e8c <__sprintf_chk@plt+0x7b3c>
    8c8c:	48 8b 04 24          	mov    rax,QWORD PTR [rsp]
    8c90:	89 28                	mov    DWORD PTR [rax],ebp
    8c92:	89 58 04             	mov    DWORD PTR [rax+0x4],ebx
    8c95:	41 8b 8f c4 00 00 00 	mov    ecx,DWORD PTR [r15+0xc4]
    8c9c:	83 f9 0c             	cmp    ecx,0xc
    8c9f:	0f 84 ef 01 00 00    	je     8e94 <__sprintf_chk@plt+0x7b44>
    8ca5:	bb 00 00 00 00       	mov    ebx,0x0
    8caa:	41 83 bf e8 00 00 00 	cmp    DWORD PTR [r15+0xe8],0xc
    8cb1:	0c 
    8cb2:	0f 84 dc 01 00 00    	je     8e94 <__sprintf_chk@plt+0x7b44>
    8cb8:	41 8b 87 e0 00 00 00 	mov    eax,DWORD PTR [r15+0xe0]
    8cbf:	83 f8 0c             	cmp    eax,0xc
    8cc2:	0f 84 f4 01 00 00    	je     8ebc <__sprintf_chk@plt+0x7b6c>
    8cc8:	41 83 bf fc 00 00 00 	cmp    DWORD PTR [r15+0xfc],0xc
    8ccf:	0c 
    8cd0:	0f 84 e6 01 00 00    	je     8ebc <__sprintf_chk@plt+0x7b6c>
    8cd6:	41 8b 77 24          	mov    esi,DWORD PTR [r15+0x24]
    8cda:	83 fe 0b             	cmp    esi,0xb
    8cdd:	0f 84 ff 01 00 00    	je     8ee2 <__sprintf_chk@plt+0x7b92>
    8ce3:	41 83 7f 08 0b       	cmp    DWORD PTR [r15+0x8],0xb
    8ce8:	0f 84 f4 01 00 00    	je     8ee2 <__sprintf_chk@plt+0x7b92>
    8cee:	41 8b 57 40          	mov    edx,DWORD PTR [r15+0x40]
    8cf2:	83 fa 0b             	cmp    edx,0xb
    8cf5:	0f 84 4b 03 00 00    	je     9046 <__sprintf_chk@plt+0x7cf6>
    8cfb:	41 83 7f 1c 0b       	cmp    DWORD PTR [r15+0x1c],0xb
    8d00:	0f 84 fa 01 00 00    	je     8f00 <__sprintf_chk@plt+0x7bb0>
    8d06:	83 fa 03             	cmp    edx,0x3
    8d09:	0f 84 11 02 00 00    	je     8f20 <__sprintf_chk@plt+0x7bd0>
    8d0f:	83 f8 04             	cmp    eax,0x4
    8d12:	0f 84 26 02 00 00    	je     8f3e <__sprintf_chk@plt+0x7bee>
    8d18:	41 83 7f 0c 06       	cmp    DWORD PTR [r15+0xc],0x6
    8d1d:	0f 84 3f 02 00 00    	je     8f62 <__sprintf_chk@plt+0x7c12>
    8d23:	41 83 7f 08 06       	cmp    DWORD PTR [r15+0x8],0x6
    8d28:	0f 84 ff 02 00 00    	je     902d <__sprintf_chk@plt+0x7cdd>
    8d2e:	41 83 7f 18 06       	cmp    DWORD PTR [r15+0x18],0x6
    8d33:	0f 84 48 02 00 00    	je     8f81 <__sprintf_chk@plt+0x7c31>
    8d39:	41 83 7f 1c 06       	cmp    DWORD PTR [r15+0x1c],0x6
    8d3e:	0f 84 d0 02 00 00    	je     9014 <__sprintf_chk@plt+0x7cc4>
    8d44:	41 83 bf ec 00 00 00 	cmp    DWORD PTR [r15+0xec],0x5
    8d4b:	05 
    8d4c:	0f 84 4e 02 00 00    	je     8fa0 <__sprintf_chk@plt+0x7c50>
    8d52:	41 83 bf e8 00 00 00 	cmp    DWORD PTR [r15+0xe8],0x5
    8d59:	05 
    8d5a:	0f 84 9f 02 00 00    	je     8fff <__sprintf_chk@plt+0x7caf>
    8d60:	41 83 bf f8 00 00 00 	cmp    DWORD PTR [r15+0xf8],0x5
    8d67:	05 
    8d68:	0f 84 57 02 00 00    	je     8fc5 <__sprintf_chk@plt+0x7c75>
    8d6e:	41 83 bf fc 00 00 00 	cmp    DWORD PTR [r15+0xfc],0x5
    8d75:	05 
    8d76:	0f 84 6e 02 00 00    	je     8fea <__sprintf_chk@plt+0x7c9a>
    8d7c:	03 5c 24 40          	add    ebx,DWORD PTR [rsp+0x40]
    8d80:	48 8b 04 24          	mov    rax,QWORD PTR [rsp]
    8d84:	89 58 28             	mov    DWORD PTR [rax+0x28],ebx
    8d87:	48 8b 84 24 c8 00 00 	mov    rax,QWORD PTR [rsp+0xc8]
    8d8e:	00 
    8d8f:	64 48 33 04 25 28 00 	xor    rax,QWORD PTR fs:0x28
    8d96:	00 00 
    8d98:	0f 85 02 03 00 00    	jne    90a0 <__sprintf_chk@plt+0x7d50>
    8d9e:	48 81 c4 d8 00 00 00 	add    rsp,0xd8
    8da5:	5b                   	pop    rbx
    8da6:	5d                   	pop    rbp
    8da7:	41 5c                	pop    r12
    8da9:	41 5d                	pop    r13
    8dab:	41 5e                	pop    r14
    8dad:	41 5f                	pop    r15
    8daf:	c3                   	ret    
    8db0:	e8 1e 9c ff ff       	call   29d3 <__sprintf_chk@plt+0x1683>
    8db5:	89 c2                	mov    edx,eax
    8db7:	8d 45 28             	lea    eax,[rbp+0x28]
    8dba:	83 c5 03             	add    ebp,0x3
    8dbd:	83 fa 01             	cmp    edx,0x1
    8dc0:	0f 4f e8             	cmovg  ebp,eax
    8dc3:	e9 58 fe ff ff       	jmp    8c20 <__sprintf_chk@plt+0x78d0>
    8dc8:	e8 06 9c ff ff       	call   29d3 <__sprintf_chk@plt+0x1683>
    8dcd:	8d 53 d8             	lea    edx,[rbx-0x28]
    8dd0:	83 eb 03             	sub    ebx,0x3
    8dd3:	83 f8 01             	cmp    eax,0x1
    8dd6:	0f 4f da             	cmovg  ebx,edx
    8dd9:	e9 76 fe ff ff       	jmp    8c54 <__sprintf_chk@plt+0x7904>
    8dde:	41 83 bf 9c 01 00 00 	cmp    DWORD PTR [r15+0x19c],0x0
    8de5:	00 
    8de6:	0f 85 93 02 00 00    	jne    907f <__sprintf_chk@plt+0x7d2f>
    8dec:	48 8b 3d c5 e6 00 00 	mov    rdi,QWORD PTR [rip+0xe6c5]        # 174b8 <stdin@@GLIBC_2.2.5+0x488>
    8df3:	49 85 bf 78 01 00 00 	test   QWORD PTR [r15+0x178],rdi
    8dfa:	74 1c                	je     8e18 <__sprintf_chk@plt+0x7ac8>
    8dfc:	49 23 bf 28 01 00 00 	and    rdi,QWORD PTR [r15+0x128]
    8e03:	e8 cb 9b ff ff       	call   29d3 <__sprintf_chk@plt+0x1683>
    8e08:	8d 14 85 00 00 00 00 	lea    edx,[rax*4+0x0]
    8e0f:	29 d0                	sub    eax,edx
    8e11:	01 c5                	add    ebp,eax
    8e13:	e9 4a fe ff ff       	jmp    8c62 <__sprintf_chk@plt+0x7912>
    8e18:	49 8b bf 28 01 00 00 	mov    rdi,QWORD PTR [r15+0x128]
    8e1f:	48 23 3d 8a e6 00 00 	and    rdi,QWORD PTR [rip+0xe68a]        # 174b0 <stdin@@GLIBC_2.2.5+0x480>
    8e26:	e8 a8 9b ff ff       	call   29d3 <__sprintf_chk@plt+0x1683>
    8e2b:	8d 14 85 00 00 00 00 	lea    edx,[rax*4+0x0]
    8e32:	29 d0                	sub    eax,edx
    8e34:	01 c5                	add    ebp,eax
    8e36:	e9 27 fe ff ff       	jmp    8c62 <__sprintf_chk@plt+0x7912>
    8e3b:	41 83 bf a0 01 00 00 	cmp    DWORD PTR [r15+0x1a0],0x0
    8e42:	00 
    8e43:	0f 85 20 02 00 00    	jne    9069 <__sprintf_chk@plt+0x7d19>
    8e49:	48 8b 3d 68 e6 00 00 	mov    rdi,QWORD PTR [rip+0xe668]        # 174b8 <stdin@@GLIBC_2.2.5+0x488>
    8e50:	49 85 bf 80 01 00 00 	test   QWORD PTR [r15+0x180],rdi
    8e57:	74 16                	je     8e6f <__sprintf_chk@plt+0x7b1f>
    8e59:	49 23 bf 30 01 00 00 	and    rdi,QWORD PTR [r15+0x130]
    8e60:	e8 6e 9b ff ff       	call   29d3 <__sprintf_chk@plt+0x1683>
    8e65:	8d 1c 83             	lea    ebx,[rbx+rax*4]
    8e68:	29 c3                	sub    ebx,eax
    8e6a:	e9 01 fe ff ff       	jmp    8c70 <__sprintf_chk@plt+0x7920>
    8e6f:	49 8b bf 30 01 00 00 	mov    rdi,QWORD PTR [r15+0x130]
    8e76:	48 23 3d 33 e6 00 00 	and    rdi,QWORD PTR [rip+0xe633]        # 174b0 <stdin@@GLIBC_2.2.5+0x480>
    8e7d:	e8 51 9b ff ff       	call   29d3 <__sprintf_chk@plt+0x1683>
    8e82:	8d 1c 83             	lea    ebx,[rbx+rax*4]
    8e85:	29 c3                	sub    ebx,eax
    8e87:	e9 e4 fd ff ff       	jmp    8c70 <__sprintf_chk@plt+0x7920>
    8e8c:	83 eb 1e             	sub    ebx,0x1e
    8e8f:	e9 f8 fd ff ff       	jmp    8c8c <__sprintf_chk@plt+0x793c>
    8e94:	bb 00 00 00 00       	mov    ebx,0x0
    8e99:	41 83 bf a8 00 00 00 	cmp    DWORD PTR [r15+0xa8],0x1
    8ea0:	01 
    8ea1:	0f 85 11 fe ff ff    	jne    8cb8 <__sprintf_chk@plt+0x7968>
    8ea7:	41 83 bf cc 00 00 00 	cmp    DWORD PTR [r15+0xcc],0x1
    8eae:	01 
    8eaf:	b8 5a 00 00 00       	mov    eax,0x5a
    8eb4:	0f 44 d8             	cmove  ebx,eax
    8eb7:	e9 fc fd ff ff       	jmp    8cb8 <__sprintf_chk@plt+0x7968>
    8ebc:	41 83 bf bc 00 00 00 	cmp    DWORD PTR [r15+0xbc],0x1
    8ec3:	01 
    8ec4:	0f 85 0c fe ff ff    	jne    8cd6 <__sprintf_chk@plt+0x7986>
    8eca:	41 8b 97 d8 00 00 00 	mov    edx,DWORD PTR [r15+0xd8]
    8ed1:	83 e2 fb             	and    edx,0xfffffffb
    8ed4:	8d 73 5a             	lea    esi,[rbx+0x5a]
    8ed7:	83 fa 01             	cmp    edx,0x1
    8eda:	0f 44 de             	cmove  ebx,esi
    8edd:	e9 f4 fd ff ff       	jmp    8cd6 <__sprintf_chk@plt+0x7986>
    8ee2:	41 83 7f 48 02       	cmp    DWORD PTR [r15+0x48],0x2
    8ee7:	0f 85 01 fe ff ff    	jne    8cee <__sprintf_chk@plt+0x799e>
    8eed:	41 83 7f 2c 02       	cmp    DWORD PTR [r15+0x2c],0x2
    8ef2:	0f 85 f6 fd ff ff    	jne    8cee <__sprintf_chk@plt+0x799e>
    8ef8:	83 eb 5a             	sub    ebx,0x5a
    8efb:	e9 ee fd ff ff       	jmp    8cee <__sprintf_chk@plt+0x799e>
    8f00:	41 83 7f 5c 02       	cmp    DWORD PTR [r15+0x5c],0x2
    8f05:	0f 85 fb fd ff ff    	jne    8d06 <__sprintf_chk@plt+0x79b6>
    8f0b:	41 8b 7f 38          	mov    edi,DWORD PTR [r15+0x38]
    8f0f:	83 e7 fb             	and    edi,0xfffffffb
    8f12:	83 ff 02             	cmp    edi,0x2
    8f15:	0f 84 46 01 00 00    	je     9061 <__sprintf_chk@plt+0x7d11>
    8f1b:	e9 e6 fd ff ff       	jmp    8d06 <__sprintf_chk@plt+0x79b6>
    8f20:	41 83 7f 58 02       	cmp    DWORD PTR [r15+0x58],0x2
    8f25:	0f 85 e4 fd ff ff    	jne    8d0f <__sprintf_chk@plt+0x79bf>
    8f2b:	41 83 7f 3c 02       	cmp    DWORD PTR [r15+0x3c],0x2
    8f30:	0f 85 d9 fd ff ff    	jne    8d0f <__sprintf_chk@plt+0x79bf>
    8f36:	83 eb 23             	sub    ebx,0x23
    8f39:	e9 d1 fd ff ff       	jmp    8d0f <__sprintf_chk@plt+0x79bf>
    8f3e:	41 83 bf b8 00 00 00 	cmp    DWORD PTR [r15+0xb8],0x1
    8f45:	01 
    8f46:	0f 85 cc fd ff ff    	jne    8d18 <__sprintf_chk@plt+0x79c8>
    8f4c:	41 83 bf dc 00 00 00 	cmp    DWORD PTR [r15+0xdc],0x1
    8f53:	01 
    8f54:	0f 85 be fd ff ff    	jne    8d18 <__sprintf_chk@plt+0x79c8>
    8f5a:	83 c3 23             	add    ebx,0x23
    8f5d:	e9 b6 fd ff ff       	jmp    8d18 <__sprintf_chk@plt+0x79c8>
    8f62:	41 83 7f 04 08       	cmp    DWORD PTR [r15+0x4],0x8
    8f67:	74 10                	je     8f79 <__sprintf_chk@plt+0x7c29>
    8f69:	83 fe 08             	cmp    esi,0x8
    8f6c:	74 0b                	je     8f79 <__sprintf_chk@plt+0x7c29>
    8f6e:	41 83 7f 08 08       	cmp    DWORD PTR [r15+0x8],0x8
    8f73:	0f 85 b5 fd ff ff    	jne    8d2e <__sprintf_chk@plt+0x79de>
    8f79:	83 c3 19             	add    ebx,0x19
    8f7c:	e9 ad fd ff ff       	jmp    8d2e <__sprintf_chk@plt+0x79de>
    8f81:	41 83 7f 20 08       	cmp    DWORD PTR [r15+0x20],0x8
    8f86:	74 10                	je     8f98 <__sprintf_chk@plt+0x7c48>
    8f88:	83 fa 08             	cmp    edx,0x8
    8f8b:	74 0b                	je     8f98 <__sprintf_chk@plt+0x7c48>
    8f8d:	41 83 7f 1c 08       	cmp    DWORD PTR [r15+0x1c],0x8
    8f92:	0f 85 ac fd ff ff    	jne    8d44 <__sprintf_chk@plt+0x79f4>
    8f98:	83 c3 19             	add    ebx,0x19
    8f9b:	e9 a4 fd ff ff       	jmp    8d44 <__sprintf_chk@plt+0x79f4>
    8fa0:	41 83 bf e4 00 00 00 	cmp    DWORD PTR [r15+0xe4],0x7
    8fa7:	07 
    8fa8:	74 13                	je     8fbd <__sprintf_chk@plt+0x7c6d>
    8faa:	83 f9 07             	cmp    ecx,0x7
    8fad:	74 0e                	je     8fbd <__sprintf_chk@plt+0x7c6d>
    8faf:	41 83 bf e8 00 00 00 	cmp    DWORD PTR [r15+0xe8],0x7
    8fb6:	07 
    8fb7:	0f 85 a3 fd ff ff    	jne    8d60 <__sprintf_chk@plt+0x7a10>
    8fbd:	83 eb 19             	sub    ebx,0x19
    8fc0:	e9 9b fd ff ff       	jmp    8d60 <__sprintf_chk@plt+0x7a10>
    8fc5:	41 83 bf 00 01 00 00 	cmp    DWORD PTR [r15+0x100],0x7
    8fcc:	07 
    8fcd:	74 13                	je     8fe2 <__sprintf_chk@plt+0x7c92>
    8fcf:	83 f8 07             	cmp    eax,0x7
    8fd2:	74 0e                	je     8fe2 <__sprintf_chk@plt+0x7c92>
    8fd4:	41 83 bf fc 00 00 00 	cmp    DWORD PTR [r15+0xfc],0x7
    8fdb:	07 
    8fdc:	0f 85 9a fd ff ff    	jne    8d7c <__sprintf_chk@plt+0x7a2c>
    8fe2:	83 eb 19             	sub    ebx,0x19
    8fe5:	e9 92 fd ff ff       	jmp    8d7c <__sprintf_chk@plt+0x7a2c>
    8fea:	41 83 bf 00 01 00 00 	cmp    DWORD PTR [r15+0x100],0x7
    8ff1:	07 
    8ff2:	74 ee                	je     8fe2 <__sprintf_chk@plt+0x7c92>
    8ff4:	83 f8 07             	cmp    eax,0x7
    8ff7:	0f 85 7f fd ff ff    	jne    8d7c <__sprintf_chk@plt+0x7a2c>
    8ffd:	eb e3                	jmp    8fe2 <__sprintf_chk@plt+0x7c92>
    8fff:	41 83 bf e4 00 00 00 	cmp    DWORD PTR [r15+0xe4],0x7
    9006:	07 
    9007:	74 b4                	je     8fbd <__sprintf_chk@plt+0x7c6d>
    9009:	83 f9 07             	cmp    ecx,0x7
    900c:	0f 85 4e fd ff ff    	jne    8d60 <__sprintf_chk@plt+0x7a10>
    9012:	eb a9                	jmp    8fbd <__sprintf_chk@plt+0x7c6d>
    9014:	41 83 7f 20 08       	cmp    DWORD PTR [r15+0x20],0x8
    9019:	0f 84 79 ff ff ff    	je     8f98 <__sprintf_chk@plt+0x7c48>
    901f:	83 fa 08             	cmp    edx,0x8
    9022:	0f 85 1c fd ff ff    	jne    8d44 <__sprintf_chk@plt+0x79f4>
    9028:	e9 6b ff ff ff       	jmp    8f98 <__sprintf_chk@plt+0x7c48>
    902d:	41 83 7f 04 08       	cmp    DWORD PTR [r15+0x4],0x8
    9032:	0f 84 41 ff ff ff    	je     8f79 <__sprintf_chk@plt+0x7c29>
    9038:	83 fe 08             	cmp    esi,0x8
    903b:	0f 85 ed fc ff ff    	jne    8d2e <__sprintf_chk@plt+0x79de>
    9041:	e9 33 ff ff ff       	jmp    8f79 <__sprintf_chk@plt+0x7c29>
    9046:	41 83 7f 5c 02       	cmp    DWORD PTR [r15+0x5c],0x2
    904b:	0f 85 be fc ff ff    	jne    8d0f <__sprintf_chk@plt+0x79bf>
    9051:	41 8b 7f 38          	mov    edi,DWORD PTR [r15+0x38]
    9055:	83 e7 fb             	and    edi,0xfffffffb
    9058:	83 ff 02             	cmp    edi,0x2
    905b:	0f 85 ae fc ff ff    	jne    8d0f <__sprintf_chk@plt+0x79bf>
    9061:	83 eb 5a             	sub    ebx,0x5a
    9064:	e9 9d fc ff ff       	jmp    8d06 <__sprintf_chk@plt+0x79b6>
    9069:	41 83 bf bc 01 00 00 	cmp    DWORD PTR [r15+0x1bc],0x2
    9070:	02 
    9071:	0f 85 15 fc ff ff    	jne    8c8c <__sprintf_chk@plt+0x793c>
    9077:	83 c5 1e             	add    ebp,0x1e
    907a:	e9 ff fb ff ff       	jmp    8c7e <__sprintf_chk@plt+0x792e>
    907f:	41 83 bf c0 01 00 00 	cmp    DWORD PTR [r15+0x1c0],0x1
    9086:	01 
    9087:	0f 85 f1 fb ff ff    	jne    8c7e <__sprintf_chk@plt+0x792e>
    908d:	41 83 bf a0 01 00 00 	cmp    DWORD PTR [r15+0x1a0],0x0
    9094:	00 
    9095:	0f 85 f1 fb ff ff    	jne    8c8c <__sprintf_chk@plt+0x793c>
    909b:	e9 a9 fd ff ff       	jmp    8e49 <__sprintf_chk@plt+0x7af9>
    90a0:	e8 9b 81 ff ff       	call   1240 <__stack_chk_fail@plt>
    90a5:	f3 0f 1e fa          	endbr64 
    90a9:	41 56                	push   r14
    90ab:	41 55                	push   r13
    90ad:	41 54                	push   r12
    90af:	55                   	push   rbp
    90b0:	53                   	push   rbx
    90b1:	48 83 ec 40          	sub    rsp,0x40
    90b5:	48 89 fb             	mov    rbx,rdi
    90b8:	64 48 8b 04 25 28 00 	mov    rax,QWORD PTR fs:0x28
    90bf:	00 00 
    90c1:	48 89 44 24 38       	mov    QWORD PTR [rsp+0x38],rax
    90c6:	31 c0                	xor    eax,eax
    90c8:	44 8b b7 8c 01 00 00 	mov    r14d,DWORD PTR [rdi+0x18c]
    90cf:	44 03 b7 88 01 00 00 	add    r14d,DWORD PTR [rdi+0x188]
    90d6:	85 c9                	test   ecx,ecx
    90d8:	75 60                	jne    913a <__sprintf_chk@plt+0x7dea>
    90da:	83 bf 94 01 00 00 00 	cmp    DWORD PTR [rdi+0x194],0x0
    90e1:	74 57                	je     913a <__sprintf_chk@plt+0x7dea>
    90e3:	83 bf 98 01 00 00 00 	cmp    DWORD PTR [rdi+0x198],0x0
    90ea:	74 4e                	je     913a <__sprintf_chk@plt+0x7dea>
    90ec:	83 bf cc 01 00 00 00 	cmp    DWORD PTR [rdi+0x1cc],0x0
    90f3:	0f 84 3e 02 00 00    	je     9337 <__sprintf_chk@plt+0x7fe7>
    90f9:	8b 87 d8 01 00 00    	mov    eax,DWORD PTR [rdi+0x1d8]
    90ff:	ff c8                	dec    eax
    9101:	48 98                	cdqe   
    9103:	44 89 f1             	mov    ecx,r14d
    9106:	03 8c 87 f0 0a 00 00 	add    ecx,DWORD PTR [rdi+rax*4+0xaf0]
    910d:	48 63 83 d8 01 00 00 	movsxd rax,DWORD PTR [rbx+0x1d8]
    9114:	48 8d 04 83          	lea    rax,[rbx+rax*4]
    9118:	8b b8 ec 0a 00 00    	mov    edi,DWORD PTR [rax+0xaec]
    911e:	89 b8 f0 0a 00 00    	mov    DWORD PTR [rax+0xaf0],edi
    9124:	8d 41 32             	lea    eax,[rcx+0x32]
    9127:	39 f0                	cmp    eax,esi
    9129:	0f 8e e7 01 00 00    	jle    9316 <__sprintf_chk@plt+0x7fc6>
    912f:	8d 41 ce             	lea    eax,[rcx-0x32]
    9132:	39 d0                	cmp    eax,edx
    9134:	0f 8d dc 01 00 00    	jge    9316 <__sprintf_chk@plt+0x7fc6>
    913a:	8b 93 9c 01 00 00    	mov    edx,DWORD PTR [rbx+0x19c]
    9140:	03 93 bc 01 00 00    	add    edx,DWORD PTR [rbx+0x1bc]
    9146:	8b 83 ac 01 00 00    	mov    eax,DWORD PTR [rbx+0x1ac]
    914c:	8d 04 40             	lea    eax,[rax+rax*2]
    914f:	01 c0                	add    eax,eax
    9151:	8d 14 90             	lea    edx,[rax+rdx*4]
    9154:	8b 83 b4 01 00 00    	mov    eax,DWORD PTR [rbx+0x1b4]
    915a:	8d 04 40             	lea    eax,[rax+rax*2]
    915d:	44 8d 24 82          	lea    r12d,[rdx+rax*4]
    9161:	8b 93 a0 01 00 00    	mov    edx,DWORD PTR [rbx+0x1a0]
    9167:	03 93 c0 01 00 00    	add    edx,DWORD PTR [rbx+0x1c0]
    916d:	8b 83 b0 01 00 00    	mov    eax,DWORD PTR [rbx+0x1b0]
    9173:	8d 04 40             	lea    eax,[rax+rax*2]
    9176:	01 c0                	add    eax,eax
    9178:	8d 14 90             	lea    edx,[rax+rdx*4]
    917b:	8b 83 b8 01 00 00    	mov    eax,DWORD PTR [rbx+0x1b8]
    9181:	8d 04 40             	lea    eax,[rax+rax*2]
    9184:	44 8d 2c 82          	lea    r13d,[rdx+rax*4]
    9188:	41 83 fc 28          	cmp    r12d,0x28
    918c:	b8 28 00 00 00       	mov    eax,0x28
    9191:	44 0f 4d e0          	cmovge r12d,eax
    9195:	41 83 fd 28          	cmp    r13d,0x28
    9199:	44 0f 4d e8          	cmovge r13d,eax
    919d:	43 8d 04 2c          	lea    eax,[r12+r13*1]
    91a1:	c1 e0 0a             	shl    eax,0xa
    91a4:	48 63 e8             	movsxd rbp,eax
    91a7:	48 69 ed 67 66 66 66 	imul   rbp,rbp,0x66666667
    91ae:	48 c1 fd 25          	sar    rbp,0x25
    91b2:	c1 f8 1f             	sar    eax,0x1f
    91b5:	29 c5                	sub    ebp,eax
    91b7:	48 89 e2             	mov    rdx,rsp
    91ba:	48 c7 04 24 00 00 00 	mov    QWORD PTR [rsp],0x0
    91c1:	00 
    91c2:	48 c7 44 24 08 00 00 	mov    QWORD PTR [rsp+0x8],0x0
    91c9:	00 00 
    91cb:	48 c7 44 24 10 00 00 	mov    QWORD PTR [rsp+0x10],0x0
    91d2:	00 00 
    91d4:	48 c7 44 24 18 00 00 	mov    QWORD PTR [rsp+0x18],0x0
    91db:	00 00 
    91dd:	48 c7 44 24 20 00 00 	mov    QWORD PTR [rsp+0x20],0x0
    91e4:	00 00 
    91e6:	c7 44 24 28 00 00 00 	mov    DWORD PTR [rsp+0x28],0x0
    91ed:	00 
    91ee:	89 ee                	mov    esi,ebp
    91f0:	48 89 df             	mov    rdi,rbx
    91f3:	e8 9a e7 ff ff       	call   7992 <__sprintf_chk@plt+0x6642>
    91f8:	8b 8b cc 01 00 00    	mov    ecx,DWORD PTR [rbx+0x1cc]
    91fe:	b8 0a 00 00 00       	mov    eax,0xa
    9203:	85 c9                	test   ecx,ecx
    9205:	74 0a                	je     9211 <__sprintf_chk@plt+0x7ec1>
    9207:	b9 0a 00 00 00       	mov    ecx,0xa
    920c:	b8 00 00 00 00       	mov    eax,0x0
    9211:	29 c1                	sub    ecx,eax
    9213:	41 8d 04 0e          	lea    eax,[r14+rcx*1]
    9217:	8b 4c 24 04          	mov    ecx,DWORD PTR [rsp+0x4]
    921b:	03 0c 24             	add    ecx,DWORD PTR [rsp]
    921e:	01 c1                	add    ecx,eax
    9220:	03 4c 24 28          	add    ecx,DWORD PTR [rsp+0x28]
    9224:	8b 44 24 0c          	mov    eax,DWORD PTR [rsp+0xc]
    9228:	03 44 24 08          	add    eax,DWORD PTR [rsp+0x8]
    922c:	01 c8                	add    eax,ecx
    922e:	8b 4c 24 1c          	mov    ecx,DWORD PTR [rsp+0x1c]
    9232:	03 4c 24 18          	add    ecx,DWORD PTR [rsp+0x18]
    9236:	ba 00 04 00 00       	mov    edx,0x400
    923b:	29 ea                	sub    edx,ebp
    923d:	0f af ca             	imul   ecx,edx
    9240:	48 63 d1             	movsxd rdx,ecx
    9243:	48 69 d2 67 66 66 66 	imul   rdx,rdx,0x66666667
    924a:	48 c1 fa 29          	sar    rdx,0x29
    924e:	c1 f9 1f             	sar    ecx,0x1f
    9251:	29 ca                	sub    edx,ecx
    9253:	01 d0                	add    eax,edx
    9255:	8b 4c 24 14          	mov    ecx,DWORD PTR [rsp+0x14]
    9259:	03 4c 24 10          	add    ecx,DWORD PTR [rsp+0x10]
    925d:	ba 00 08 00 00       	mov    edx,0x800
    9262:	29 ea                	sub    edx,ebp
    9264:	0f af ca             	imul   ecx,edx
    9267:	48 63 d1             	movsxd rdx,ecx
    926a:	48 69 d2 ab aa aa 2a 	imul   rdx,rdx,0x2aaaaaab
    9271:	48 c1 fa 28          	sar    rdx,0x28
    9275:	c1 f9 1f             	sar    ecx,0x1f
    9278:	29 ca                	sub    edx,ecx
    927a:	01 c2                	add    edx,eax
    927c:	8b 44 24 20          	mov    eax,DWORD PTR [rsp+0x20]
    9280:	8b 7c 24 24          	mov    edi,DWORD PTR [rsp+0x24]
    9284:	89 c1                	mov    ecx,eax
    9286:	0f af c8             	imul   ecx,eax
    9289:	8d b1 ff 00 00 00    	lea    esi,[rcx+0xff]
    928f:	85 c9                	test   ecx,ecx
    9291:	0f 49 f1             	cmovns esi,ecx
    9294:	c1 fe 08             	sar    esi,0x8
    9297:	29 f0                	sub    eax,esi
    9299:	89 fe                	mov    esi,edi
    929b:	0f af f7             	imul   esi,edi
    929e:	8d 8e ff 00 00 00    	lea    ecx,[rsi+0xff]
    92a4:	85 f6                	test   esi,esi
    92a6:	0f 49 ce             	cmovns ecx,esi
    92a9:	c1 f9 08             	sar    ecx,0x8
    92ac:	01 f9                	add    ecx,edi
    92ae:	01 c8                	add    eax,ecx
    92b0:	81 c5 00 04 00 00    	add    ebp,0x400
    92b6:	0f af e8             	imul   ebp,eax
    92b9:	8d 85 ff 07 00 00    	lea    eax,[rbp+0x7ff]
    92bf:	85 ed                	test   ebp,ebp
    92c1:	0f 48 e8             	cmovs  ebp,eax
    92c4:	c1 fd 0b             	sar    ebp,0xb
    92c7:	01 d5                	add    ebp,edx
    92c9:	41 83 fc 0a          	cmp    r12d,0xa
    92cd:	7f 19                	jg     92e8 <__sprintf_chk@plt+0x7f98>
    92cf:	41 83 fd 0a          	cmp    r13d,0xa
    92d3:	7f 13                	jg     92e8 <__sprintf_chk@plt+0x7f98>
    92d5:	8b 83 bc 01 00 00    	mov    eax,DWORD PTR [rbx+0x1bc]
    92db:	39 83 c0 01 00 00    	cmp    DWORD PTR [rbx+0x1c0],eax
    92e1:	75 05                	jne    92e8 <__sprintf_chk@plt+0x7f98>
    92e3:	83 f8 01             	cmp    eax,0x1
    92e6:	74 6a                	je     9352 <__sprintf_chk@plt+0x8002>
    92e8:	44 89 e9             	mov    ecx,r13d
    92eb:	44 89 e2             	mov    edx,r12d
    92ee:	89 ee                	mov    esi,ebp
    92f0:	48 89 df             	mov    rdi,rbx
    92f3:	e8 3f 9b ff ff       	call   2e37 <__sprintf_chk@plt+0x1ae7>
    92f8:	48 63 93 d8 01 00 00 	movsxd rdx,DWORD PTR [rbx+0x1d8]
    92ff:	89 c1                	mov    ecx,eax
    9301:	44 29 f1             	sub    ecx,r14d
    9304:	89 8c 93 f0 0a 00 00 	mov    DWORD PTR [rbx+rdx*4+0xaf0],ecx
    930b:	83 bb cc 01 00 00 00 	cmp    DWORD PTR [rbx+0x1cc],0x0
    9312:	75 02                	jne    9316 <__sprintf_chk@plt+0x7fc6>
    9314:	f7 d8                	neg    eax
    9316:	48 8b 7c 24 38       	mov    rdi,QWORD PTR [rsp+0x38]
    931b:	64 48 33 3c 25 28 00 	xor    rdi,QWORD PTR fs:0x28
    9322:	00 00 
    9324:	0f 85 82 00 00 00    	jne    93ac <__sprintf_chk@plt+0x805c>
    932a:	48 83 c4 40          	add    rsp,0x40
    932e:	5b                   	pop    rbx
    932f:	5d                   	pop    rbp
    9330:	41 5c                	pop    r12
    9332:	41 5d                	pop    r13
    9334:	41 5e                	pop    r14
    9336:	c3                   	ret    
    9337:	8b 87 d8 01 00 00    	mov    eax,DWORD PTR [rdi+0x1d8]
    933d:	ff c8                	dec    eax
    933f:	48 98                	cdqe   
    9341:	8b 8c 87 f0 0a 00 00 	mov    ecx,DWORD PTR [rdi+rax*4+0xaf0]
    9348:	f7 d9                	neg    ecx
    934a:	44 29 f1             	sub    ecx,r14d
    934d:	e9 bb fd ff ff       	jmp    910d <__sprintf_chk@plt+0x7dbd>
    9352:	48 8b bb 78 01 00 00 	mov    rdi,QWORD PTR [rbx+0x178]
    9359:	48 0b bb 80 01 00 00 	or     rdi,QWORD PTR [rbx+0x180]
    9360:	48 23 3d 51 e1 00 00 	and    rdi,QWORD PTR [rip+0xe151]        # 174b8 <stdin@@GLIBC_2.2.5+0x488>
    9367:	e8 67 96 ff ff       	call   29d3 <__sprintf_chk@plt+0x1683>
    936c:	83 f8 01             	cmp    eax,0x1
    936f:	0f 85 73 ff ff ff    	jne    92e8 <__sprintf_chk@plt+0x7f98>
    9375:	8b 83 88 01 00 00    	mov    eax,DWORD PTR [rbx+0x188]
    937b:	05 aa 00 00 00       	add    eax,0xaa
    9380:	3d 54 01 00 00       	cmp    eax,0x154
    9385:	0f 87 5d ff ff ff    	ja     92e8 <__sprintf_chk@plt+0x7f98>
    938b:	41 83 fc 04          	cmp    r12d,0x4
    938f:	7f 0d                	jg     939e <__sprintf_chk@plt+0x804e>
    9391:	41 83 fd 04          	cmp    r13d,0x4
    9395:	7f 07                	jg     939e <__sprintf_chk@plt+0x804e>
    9397:	d1 fd                	sar    ebp,1
    9399:	e9 4a ff ff ff       	jmp    92e8 <__sprintf_chk@plt+0x7f98>
    939e:	8d 54 6d 00          	lea    edx,[rbp+rbp*2+0x0]
    93a2:	c1 fa 02             	sar    edx,0x2
    93a5:	89 d5                	mov    ebp,edx
    93a7:	e9 3c ff ff ff       	jmp    92e8 <__sprintf_chk@plt+0x7f98>
    93ac:	e8 8f 7e ff ff       	call   1240 <__stack_chk_fail@plt>
    93b1:	f3 0f 1e fa          	endbr64 
    93b5:	48 63 97 d8 01 00 00 	movsxd rdx,DWORD PTR [rdi+0x1d8]
    93bc:	8b 87 88 01 00 00    	mov    eax,DWORD PTR [rdi+0x188]
    93c2:	03 84 97 f0 0a 00 00 	add    eax,DWORD PTR [rdi+rdx*4+0xaf0]
    93c9:	03 87 8c 01 00 00    	add    eax,DWORD PTR [rdi+0x18c]
    93cf:	83 bf cc 01 00 00 00 	cmp    DWORD PTR [rdi+0x1cc],0x0
    93d6:	75 02                	jne    93da <__sprintf_chk@plt+0x808a>
    93d8:	f7 d8                	neg    eax
    93da:	c3                   	ret    
    93db:	f3 0f 1e fa          	endbr64 
    93df:	48 83 ec 08          	sub    rsp,0x8
    93e3:	ba 00 00 b0 00       	mov    edx,0xb00000
    93e8:	be 00 00 00 00       	mov    esi,0x0
    93ed:	48 8d 3d ac 26 02 00 	lea    rdi,[rip+0x226ac]        # 2baa0 <stdin@@GLIBC_2.2.5+0x14a70>
    93f4:	e8 67 7e ff ff       	call   1260 <memset@plt>
    93f9:	48 83 c4 08          	add    rsp,0x8
    93fd:	c3                   	ret    
    93fe:	f3 0f 1e fa          	endbr64 
    9402:	48 83 ec 38          	sub    rsp,0x38
    9406:	b9 28 00 00 00       	mov    ecx,0x28
    940b:	64 48 8b 01          	mov    rax,QWORD PTR fs:[rcx]
    940f:	48 89 44 24 28       	mov    QWORD PTR [rsp+0x28],rax
    9414:	31 c0                	xor    eax,eax
    9416:	c7 04 24 00 00 00 00 	mov    DWORD PTR [rsp],0x0
    941d:	c7 44 24 04 01 00 00 	mov    DWORD PTR [rsp+0x4],0x1
    9424:	00 
    9425:	c7 44 24 08 02 00 00 	mov    DWORD PTR [rsp+0x8],0x2
    942c:	00 
    942d:	c7 44 24 0c 05 00 00 	mov    DWORD PTR [rsp+0xc],0x5
    9434:	00 
    9435:	c7 44 24 10 0a 00 00 	mov    DWORD PTR [rsp+0x10],0xa
    943c:	00 
    943d:	c7 44 24 14 14 00 00 	mov    DWORD PTR [rsp+0x14],0x14
    9444:	00 
    9445:	c7 44 24 18 20 00 00 	mov    DWORD PTR [rsp+0x18],0x20
    944c:	00 
    944d:	c7 44 24 1c 00 00 00 	mov    DWORD PTR [rsp+0x1c],0x0
    9454:	00 
    9455:	29 f2                	sub    edx,esi
    9457:	48 63 ff             	movsxd rdi,edi
    945a:	0f af 14 bc          	imul   edx,DWORD PTR [rsp+rdi*4]
    945e:	8d 42 2f             	lea    eax,[rdx+0x2f]
    9461:	83 c2 10             	add    edx,0x10
    9464:	0f 48 d0             	cmovs  edx,eax
    9467:	c1 fa 05             	sar    edx,0x5
    946a:	8d 04 32             	lea    eax,[rdx+rsi*1]
    946d:	48 8b 7c 24 28       	mov    rdi,QWORD PTR [rsp+0x28]
    9472:	64 48 33 39          	xor    rdi,QWORD PTR fs:[rcx]
    9476:	75 05                	jne    947d <__sprintf_chk@plt+0x812d>
    9478:	48 83 c4 38          	add    rsp,0x38
    947c:	c3                   	ret    
    947d:	e8 be 7d ff ff       	call   1240 <__stack_chk_fail@plt>
    9482:	f3 0f 1e fa          	endbr64 
    9486:	41 57                	push   r15
    9488:	41 56                	push   r14
    948a:	41 55                	push   r13
    948c:	41 54                	push   r12
    948e:	55                   	push   rbp
    948f:	53                   	push   rbx
    9490:	48 83 ec 68          	sub    rsp,0x68
    9494:	49 89 fe             	mov    r14,rdi
    9497:	64 48 8b 04 25 28 00 	mov    rax,QWORD PTR fs:0x28
    949e:	00 00 
    94a0:	48 89 44 24 58       	mov    QWORD PTR [rsp+0x58],rax
    94a5:	31 c0                	xor    eax,eax
    94a7:	48 8b 97 e8 01 00 00 	mov    rdx,QWORD PTR [rdi+0x1e8]
    94ae:	89 d0                	mov    eax,edx
    94b0:	25 ff 3f 00 00       	and    eax,0x3fff
    94b5:	89 44 24 18          	mov    DWORD PTR [rsp+0x18],eax
    94b9:	8b 1f                	mov    ebx,DWORD PTR [rdi]
    94bb:	89 5c 24 14          	mov    DWORD PTR [rsp+0x14],ebx
    94bf:	48 89 d0             	mov    rax,rdx
    94c2:	25 ff 3f 00 00       	and    eax,0x3fff
    94c7:	48 6b c0 58          	imul   rax,rax,0x58
    94cb:	48 63 cb             	movsxd rcx,ebx
    94ce:	48 69 c9 00 00 16 00 	imul   rcx,rcx,0x160000
    94d5:	48 01 c8             	add    rax,rcx
    94d8:	48 8d 0d c1 25 02 00 	lea    rcx,[rip+0x225c1]        # 2baa0 <stdin@@GLIBC_2.2.5+0x14a70>
    94df:	48 8d 3c 08          	lea    rdi,[rax+rcx*1]
    94e3:	48 89 7c 24 28       	mov    QWORD PTR [rsp+0x28],rdi
    94e8:	48 3b 17             	cmp    rdx,QWORD PTR [rdi]
    94eb:	75 28                	jne    9515 <__sprintf_chk@plt+0x81c5>
    94ed:	48 8b 44 24 58       	mov    rax,QWORD PTR [rsp+0x58]
    94f2:	64 48 33 04 25 28 00 	xor    rax,QWORD PTR fs:0x28
    94f9:	00 00 
    94fb:	0f 85 7b 0d 00 00    	jne    a27c <__sprintf_chk@plt+0x8f2c>
    9501:	48 8b 44 24 28       	mov    rax,QWORD PTR [rsp+0x28]
    9506:	48 83 c4 68          	add    rsp,0x68
    950a:	5b                   	pop    rbx
    950b:	5d                   	pop    rbp
    950c:	41 5c                	pop    r12
    950e:	41 5d                	pop    r13
    9510:	41 5e                	pop    r14
    9512:	41 5f                	pop    r15
    9514:	c3                   	ret    
    9515:	b9 00 00 00 00       	mov    ecx,0x0
    951a:	be 40 00 00 00       	mov    esi,0x40
    951f:	b8 00 00 00 00       	mov    eax,0x0
    9524:	89 c2                	mov    edx,eax
    9526:	48 89 0c 17          	mov    QWORD PTR [rdi+rdx*1],rcx
    952a:	48 89 4c 17 08       	mov    QWORD PTR [rdi+rdx*1+0x8],rcx
    952f:	48 89 4c 17 10       	mov    QWORD PTR [rdi+rdx*1+0x10],rcx
    9534:	48 89 4c 17 18       	mov    QWORD PTR [rdi+rdx*1+0x18],rcx
    9539:	83 c0 20             	add    eax,0x20
    953c:	39 f0                	cmp    eax,esi
    953e:	72 e4                	jb     9524 <__sprintf_chk@plt+0x81d4>
    9540:	89 c0                	mov    eax,eax
    9542:	48 03 44 24 28       	add    rax,QWORD PTR [rsp+0x28]
    9547:	48 c7 00 00 00 00 00 	mov    QWORD PTR [rax],0x0
    954e:	48 c7 40 08 00 00 00 	mov    QWORD PTR [rax+0x8],0x0
    9555:	00 
    9556:	48 c7 40 10 00 00 00 	mov    QWORD PTR [rax+0x10],0x0
    955d:	00 
    955e:	48 8d 35 fb ee 00 00 	lea    rsi,[rip+0xeefb]        # 18460 <stdin@@GLIBC_2.2.5+0x1430>
    9565:	48 8d 7e 40          	lea    rdi,[rsi+0x40]
    9569:	48 63 4c 24 18       	movsxd rcx,DWORD PTR [rsp+0x18]
    956e:	48 63 44 24 14       	movsxd rax,DWORD PTR [rsp+0x14]
    9573:	48 6b c9 58          	imul   rcx,rcx,0x58
    9577:	48 69 c0 00 00 16 00 	imul   rax,rax,0x160000
    957e:	48 8d 14 01          	lea    rdx,[rcx+rax*1]
    9582:	48 8d 05 17 25 02 00 	lea    rax,[rip+0x22517]        # 2baa0 <stdin@@GLIBC_2.2.5+0x14a70>
    9589:	48 01 d0             	add    rax,rdx
    958c:	eb 09                	jmp    9597 <__sprintf_chk@plt+0x8247>
    958e:	48 83 c6 08          	add    rsi,0x8
    9592:	48 39 fe             	cmp    rsi,rdi
    9595:	74 36                	je     95cd <__sprintf_chk@plt+0x827d>
    9597:	48 8b 16             	mov    rdx,QWORD PTR [rsi]
    959a:	49 85 96 28 01 00 00 	test   QWORD PTR [r14+0x128],rdx
    95a1:	75 04                	jne    95a7 <__sprintf_chk@plt+0x8257>
    95a3:	48 09 50 10          	or     QWORD PTR [rax+0x10],rdx
    95a7:	49 85 96 30 01 00 00 	test   QWORD PTR [r14+0x130],rdx
    95ae:	75 04                	jne    95b4 <__sprintf_chk@plt+0x8264>
    95b0:	48 09 50 18          	or     QWORD PTR [rax+0x18],rdx
    95b4:	49 8b 8e 28 01 00 00 	mov    rcx,QWORD PTR [r14+0x128]
    95bb:	49 0b 8e 30 01 00 00 	or     rcx,QWORD PTR [r14+0x130]
    95c2:	48 85 d1             	test   rcx,rdx
    95c5:	75 c7                	jne    958e <__sprintf_chk@plt+0x823e>
    95c7:	48 09 50 08          	or     QWORD PTR [rax+0x8],rdx
    95cb:	eb c1                	jmp    958e <__sprintf_chk@plt+0x823e>
    95cd:	49 8b 86 28 01 00 00 	mov    rax,QWORD PTR [r14+0x128]
    95d4:	48 89 44 24 50       	mov    QWORD PTR [rsp+0x50],rax
    95d9:	48 85 c0             	test   rax,rax
    95dc:	0f 84 a5 05 00 00    	je     9b87 <__sprintf_chk@plt+0x8837>
    95e2:	4c 8d 2d 77 ee 00 00 	lea    r13,[rip+0xee77]        # 18460 <stdin@@GLIBC_2.2.5+0x1430>
    95e9:	48 63 54 24 18       	movsxd rdx,DWORD PTR [rsp+0x18]
    95ee:	48 63 44 24 14       	movsxd rax,DWORD PTR [rsp+0x14]
    95f3:	48 6b d2 58          	imul   rdx,rdx,0x58
    95f7:	48 69 c0 00 00 16 00 	imul   rax,rax,0x160000
    95fe:	48 01 d0             	add    rax,rdx
    9601:	48 8d 15 98 24 02 00 	lea    rdx,[rip+0x22498]        # 2baa0 <stdin@@GLIBC_2.2.5+0x14a70>
    9608:	4c 8d 3c 02          	lea    r15,[rdx+rax*1]
    960c:	4d 89 f4             	mov    r12,r14
    960f:	e9 90 03 00 00       	jmp    99a4 <__sprintf_chk@plt+0x8654>
    9614:	83 fd 07             	cmp    ebp,0x7
    9617:	74 1e                	je     9637 <__sprintf_chk@plt+0x82e7>
    9619:	8d 55 ff             	lea    edx,[rbp-0x1]
    961c:	48 63 d2             	movsxd rdx,edx
    961f:	8d 45 01             	lea    eax,[rbp+0x1]
    9622:	48 98                	cdqe   
    9624:	49 8b 7c d5 00       	mov    rdi,QWORD PTR [r13+rdx*8+0x0]
    9629:	49 0b 7c c5 00       	or     rdi,QWORD PTR [r13+rax*8+0x0]
    962e:	48 89 3c 24          	mov    QWORD PTR [rsp],rdi
    9632:	e9 9e 03 00 00       	jmp    99d5 <__sprintf_chk@plt+0x8685>
    9637:	49 8b 45 30          	mov    rax,QWORD PTR [r13+0x30]
    963b:	48 89 04 24          	mov    QWORD PTR [rsp],rax
    963f:	e9 91 03 00 00       	jmp    99d5 <__sprintf_chk@plt+0x8685>
    9644:	c7 44 24 1c 00 00 00 	mov    DWORD PTR [rsp+0x1c],0x0
    964b:	00 
    964c:	c7 44 24 10 00 00 00 	mov    DWORD PTR [rsp+0x10],0x0
    9653:	00 
    9654:	e9 cd 03 00 00       	jmp    9a26 <__sprintf_chk@plt+0x86d6>
    9659:	48 85 d7             	test   rdi,rdx
    965c:	0f 84 dd 00 00 00    	je     973f <__sprintf_chk@plt+0x83ef>
    9662:	48 63 f5             	movsxd rsi,ebp
    9665:	4d 8b 44 f5 00       	mov    r8,QWORD PTR [r13+rsi*8+0x0]
    966a:	49 8b b4 24 30 01 00 	mov    rsi,QWORD PTR [r12+0x130]
    9671:	00 
    9672:	c7 44 24 0c 00 00 00 	mov    DWORD PTR [rsp+0xc],0x0
    9679:	00 
    967a:	bb 00 00 00 00       	mov    ebx,0x0
    967f:	83 f8 02             	cmp    eax,0x2
    9682:	75 25                	jne    96a9 <__sprintf_chk@plt+0x8359>
    9684:	48 09 f1             	or     rcx,rsi
    9687:	49 21 c8             	and    r8,rcx
    968a:	49 85 d0             	test   r8,rdx
    968d:	0f 94 c0             	sete   al
    9690:	0f b6 c0             	movzx  eax,al
    9693:	89 44 24 0c          	mov    DWORD PTR [rsp+0xc],eax
    9697:	e9 ad 0b 00 00       	jmp    a249 <__sprintf_chk@plt+0x8ef9>
    969c:	c7 44 24 0c 00 00 00 	mov    DWORD PTR [rsp+0xc],0x0
    96a3:	00 
    96a4:	bb 01 00 00 00       	mov    ebx,0x1
    96a9:	48 83 7c 24 30 00    	cmp    QWORD PTR [rsp+0x30],0x0
    96af:	0f 85 50 0b 00 00    	jne    a205 <__sprintf_chk@plt+0x8eb5>
    96b5:	44 89 f0             	mov    eax,r14d
    96b8:	c1 f8 03             	sar    eax,0x3
    96bb:	89 44 24 38          	mov    DWORD PTR [rsp+0x38],eax
    96bf:	48 98                	cdqe   
    96c1:	48 8d 0d 18 ed 00 00 	lea    rcx,[rip+0xed18]        # 183e0 <stdin@@GLIBC_2.2.5+0x13b0>
    96c8:	48 8b 04 c1          	mov    rax,QWORD PTR [rcx+rax*8]
    96cc:	49 23 84 24 30 01 00 	and    rax,QWORD PTR [r12+0x130]
    96d3:	00 
    96d4:	48 85 04 24          	test   QWORD PTR [rsp],rax
    96d8:	0f 85 a9 00 00 00    	jne    9787 <__sprintf_chk@plt+0x8437>
    96de:	49 63 d6             	movsxd rdx,r14d
    96e1:	49 8b 47 20          	mov    rax,QWORD PTR [r15+0x20]
    96e5:	48 8d 0d b4 f3 00 00 	lea    rcx,[rip+0xf3b4]        # 18aa0 <stdin@@GLIBC_2.2.5+0x1a70>
    96ec:	48 0b 04 d1          	or     rax,QWORD PTR [rcx+rdx*8]
    96f0:	49 89 47 20          	mov    QWORD PTR [r15+0x20],rax
    96f4:	ba 00 00 00 00       	mov    edx,0x0
    96f9:	83 7c 24 10 00       	cmp    DWORD PTR [rsp+0x10],0x0
    96fe:	0f 85 62 01 00 00    	jne    9866 <__sprintf_chk@plt+0x8516>
    9704:	85 db                	test   ebx,ebx
    9706:	0f 85 8d 01 00 00    	jne    9899 <__sprintf_chk@plt+0x8549>
    970c:	83 7c 24 0c 00       	cmp    DWORD PTR [rsp+0xc],0x0
    9711:	0f 84 87 01 00 00    	je     989e <__sprintf_chk@plt+0x854e>
    9717:	48 83 7c 24 30 00    	cmp    QWORD PTR [rsp+0x30],0x0
    971d:	0f 84 53 01 00 00    	je     9876 <__sprintf_chk@plt+0x8526>
    9723:	41 83 6f 50 06       	sub    DWORD PTR [r15+0x50],0x6
    9728:	e9 71 01 00 00       	jmp    989e <__sprintf_chk@plt+0x854e>
    972d:	c7 44 24 0c 00 00 00 	mov    DWORD PTR [rsp+0xc],0x0
    9734:	00 
    9735:	bb 00 00 00 00       	mov    ebx,0x0
    973a:	e9 6a ff ff ff       	jmp    96a9 <__sprintf_chk@plt+0x8359>
    973f:	c7 44 24 0c 01 00 00 	mov    DWORD PTR [rsp+0xc],0x1
    9746:	00 
    9747:	bb 00 00 00 00       	mov    ebx,0x0
    974c:	e9 58 ff ff ff       	jmp    96a9 <__sprintf_chk@plt+0x8359>
    9751:	c7 44 24 0c 01 00 00 	mov    DWORD PTR [rsp+0xc],0x1
    9758:	00 
    9759:	bb 00 00 00 00       	mov    ebx,0x0
    975e:	e9 46 ff ff ff       	jmp    96a9 <__sprintf_chk@plt+0x8359>
    9763:	c7 44 24 0c 01 00 00 	mov    DWORD PTR [rsp+0xc],0x1
    976a:	00 
    976b:	bb 00 00 00 00       	mov    ebx,0x0
    9770:	e9 34 ff ff ff       	jmp    96a9 <__sprintf_chk@plt+0x8359>
    9775:	c7 44 24 0c 00 00 00 	mov    DWORD PTR [rsp+0xc],0x0
    977c:	00 
    977d:	bb 00 00 00 00       	mov    ebx,0x0
    9782:	e9 22 ff ff ff       	jmp    96a9 <__sprintf_chk@plt+0x8359>
    9787:	8b 44 24 38          	mov    eax,DWORD PTR [rsp+0x38]
    978b:	8d 70 ff             	lea    esi,[rax-0x1]
    978e:	89 74 24 4c          	mov    DWORD PTR [rsp+0x4c],esi
    9792:	48 63 f6             	movsxd rsi,esi
    9795:	4c 8d 0d 04 ec 00 00 	lea    r9,[rip+0xec04]        # 183a0 <stdin@@GLIBC_2.2.5+0x1370>
    979c:	48 89 74 24 40       	mov    QWORD PTR [rsp+0x40],rsi
    97a1:	49 23 3c f1          	and    rdi,QWORD PTR [r9+rsi*8]
    97a5:	e8 29 92 ff ff       	call   29d3 <__sprintf_chk@plt+0x1683>
    97aa:	89 44 24 3c          	mov    DWORD PTR [rsp+0x3c],eax
    97ae:	48 63 44 24 38       	movsxd rax,DWORD PTR [rsp+0x38]
    97b3:	49 8b bc 24 30 01 00 	mov    rdi,QWORD PTR [r12+0x130]
    97ba:	00 
    97bb:	4c 8d 1d 1e ec 00 00 	lea    r11,[rip+0xec1e]        # 183e0 <stdin@@GLIBC_2.2.5+0x13b0>
    97c2:	49 23 3c c3          	and    rdi,QWORD PTR [r11+rax*8]
    97c6:	48 23 3c 24          	and    rdi,QWORD PTR [rsp]
    97ca:	e8 04 92 ff ff       	call   29d3 <__sprintf_chk@plt+0x1683>
    97cf:	89 44 24 48          	mov    DWORD PTR [rsp+0x48],eax
    97d3:	49 8b bc 24 30 01 00 	mov    rdi,QWORD PTR [r12+0x130]
    97da:	00 
    97db:	4c 8d 0d be eb 00 00 	lea    r9,[rip+0xebbe]        # 183a0 <stdin@@GLIBC_2.2.5+0x1370>
    97e2:	48 8b 54 24 40       	mov    rdx,QWORD PTR [rsp+0x40]
    97e7:	49 23 3c d1          	and    rdi,QWORD PTR [r9+rdx*8]
    97eb:	48 23 3c 24          	and    rdi,QWORD PTR [rsp]
    97ef:	e8 df 91 ff ff       	call   29d3 <__sprintf_chk@plt+0x1683>
    97f4:	8b 7c 24 3c          	mov    edi,DWORD PTR [rsp+0x3c]
    97f8:	29 c7                	sub    edi,eax
    97fa:	ba 00 00 00 00       	mov    edx,0x0
    97ff:	3b 7c 24 48          	cmp    edi,DWORD PTR [rsp+0x48]
    9803:	0f 88 f0 fe ff ff    	js     96f9 <__sprintf_chk@plt+0x83a9>
    9809:	8b 44 24 38          	mov    eax,DWORD PTR [rsp+0x38]
    980d:	ff c0                	inc    eax
    980f:	48 98                	cdqe   
    9811:	48 8d 3d 08 ec 00 00 	lea    rdi,[rip+0xec08]        # 18420 <stdin@@GLIBC_2.2.5+0x13f0>
    9818:	48 8b 3c c7          	mov    rdi,QWORD PTR [rdi+rax*8]
    981c:	49 23 bc 24 28 01 00 	and    rdi,QWORD PTR [r12+0x128]
    9823:	00 
    9824:	48 23 3c 24          	and    rdi,QWORD PTR [rsp]
    9828:	e8 a6 91 ff ff       	call   29d3 <__sprintf_chk@plt+0x1683>
    982d:	89 44 24 38          	mov    DWORD PTR [rsp+0x38],eax
    9831:	48 63 44 24 4c       	movsxd rax,DWORD PTR [rsp+0x4c]
    9836:	49 8b bc 24 30 01 00 	mov    rdi,QWORD PTR [r12+0x130]
    983d:	00 
    983e:	48 8d 0d db eb 00 00 	lea    rcx,[rip+0xebdb]        # 18420 <stdin@@GLIBC_2.2.5+0x13f0>
    9845:	48 23 3c c1          	and    rdi,QWORD PTR [rcx+rax*8]
    9849:	48 23 3c 24          	and    rdi,QWORD PTR [rsp]
    984d:	e8 81 91 ff ff       	call   29d3 <__sprintf_chk@plt+0x1683>
    9852:	8b 4c 24 38          	mov    ecx,DWORD PTR [rsp+0x38]
    9856:	29 c1                	sub    ecx,eax
    9858:	89 c8                	mov    eax,ecx
    985a:	f7 d0                	not    eax
    985c:	c1 e8 1f             	shr    eax,0x1f
    985f:	89 c2                	mov    edx,eax
    9861:	e9 93 fe ff ff       	jmp    96f9 <__sprintf_chk@plt+0x83a9>
    9866:	41 83 6f 50 0a       	sub    DWORD PTR [r15+0x50],0xa
    986b:	85 db                	test   ebx,ebx
    986d:	75 2a                	jne    9899 <__sprintf_chk@plt+0x8549>
    986f:	83 7c 24 0c 00       	cmp    DWORD PTR [rsp+0xc],0x0
    9874:	74 28                	je     989e <__sprintf_chk@plt+0x854e>
    9876:	41 83 6f 50 10       	sub    DWORD PTR [r15+0x50],0x10
    987b:	eb 21                	jmp    989e <__sprintf_chk@plt+0x854e>
    987d:	41 83 6f 50 05       	sub    DWORD PTR [r15+0x50],0x5
    9882:	85 db                	test   ebx,ebx
    9884:	0f 85 90 09 00 00    	jne    a21a <__sprintf_chk@plt+0x8eca>
    988a:	8b 54 24 0c          	mov    edx,DWORD PTR [rsp+0xc]
    988e:	85 d2                	test   edx,edx
    9890:	74 0c                	je     989e <__sprintf_chk@plt+0x854e>
    9892:	89 da                	mov    edx,ebx
    9894:	e9 8a fe ff ff       	jmp    9723 <__sprintf_chk@plt+0x83d3>
    9899:	41 83 6f 50 14       	sub    DWORD PTR [r15+0x50],0x14
    989e:	85 d2                	test   edx,edx
    98a0:	74 25                	je     98c7 <__sprintf_chk@plt+0x8577>
    98a2:	83 7c 24 1c 00       	cmp    DWORD PTR [rsp+0x1c],0x0
    98a7:	0f 85 4c 02 00 00    	jne    9af9 <__sprintf_chk@plt+0x87a9>
    98ad:	44 89 f0             	mov    eax,r14d
    98b0:	c1 f8 03             	sar    eax,0x3
    98b3:	ff c8                	dec    eax
    98b5:	48 98                	cdqe   
    98b7:	48 8d 1d e2 8d 00 00 	lea    rbx,[rip+0x8de2]        # 126a0 <__sprintf_chk@plt+0x11350>
    98be:	8b 04 83             	mov    eax,DWORD PTR [rbx+rax*4]
    98c1:	01 c0                	add    eax,eax
    98c3:	41 01 47 50          	add    DWORD PTR [r15+0x50],eax
    98c7:	41 83 fe 0f          	cmp    r14d,0xf
    98cb:	0f 8e c7 00 00 00    	jle    9998 <__sprintf_chk@plt+0x8648>
    98d1:	85 ed                	test   ebp,ebp
    98d3:	7e 5f                	jle    9934 <__sprintf_chk@plt+0x85e4>
    98d5:	41 8d 46 f7          	lea    eax,[r14-0x9]
    98d9:	48 63 d0             	movsxd rdx,eax
    98dc:	48 8d 1d bd f1 00 00 	lea    rbx,[rip+0xf1bd]        # 18aa0 <stdin@@GLIBC_2.2.5+0x1a70>
    98e3:	48 8b 0c d3          	mov    rcx,QWORD PTR [rbx+rdx*8]
    98e7:	49 8b 94 24 30 01 00 	mov    rdx,QWORD PTR [r12+0x130]
    98ee:	00 
    98ef:	48 89 d6             	mov    rsi,rdx
    98f2:	49 0b b4 24 28 01 00 	or     rsi,QWORD PTR [r12+0x128]
    98f9:	00 
    98fa:	48 85 ce             	test   rsi,rcx
    98fd:	75 35                	jne    9934 <__sprintf_chk@plt+0x85e4>
    98ff:	89 c6                	mov    esi,eax
    9901:	83 e6 07             	and    esi,0x7
    9904:	0f 85 0c 02 00 00    	jne    9b16 <__sprintf_chk@plt+0x87c6>
    990a:	49 8b 75 08          	mov    rsi,QWORD PTR [r13+0x8]
    990e:	c1 f8 03             	sar    eax,0x3
    9911:	48 98                	cdqe   
    9913:	48 8d 1d c6 ea 00 00 	lea    rbx,[rip+0xeac6]        # 183e0 <stdin@@GLIBC_2.2.5+0x13b0>
    991a:	48 23 14 c3          	and    rdx,QWORD PTR [rbx+rax*8]
    991e:	48 85 f2             	test   rdx,rsi
    9921:	75 11                	jne    9934 <__sprintf_chk@plt+0x85e4>
    9923:	49 8b 47 30          	mov    rax,QWORD PTR [r15+0x30]
    9927:	48 85 c1             	test   rcx,rax
    992a:	0f 84 11 02 00 00    	je     9b41 <__sprintf_chk@plt+0x87f1>
    9930:	49 09 4f 40          	or     QWORD PTR [r15+0x40],rcx
    9934:	83 fd 06             	cmp    ebp,0x6
    9937:	7f 5f                	jg     9998 <__sprintf_chk@plt+0x8648>
    9939:	41 8d 46 f9          	lea    eax,[r14-0x7]
    993d:	48 63 d0             	movsxd rdx,eax
    9940:	48 8d 1d 59 f1 00 00 	lea    rbx,[rip+0xf159]        # 18aa0 <stdin@@GLIBC_2.2.5+0x1a70>
    9947:	48 8b 0c d3          	mov    rcx,QWORD PTR [rbx+rdx*8]
    994b:	49 8b 94 24 30 01 00 	mov    rdx,QWORD PTR [r12+0x130]
    9952:	00 
    9953:	48 89 d6             	mov    rsi,rdx
    9956:	49 0b b4 24 28 01 00 	or     rsi,QWORD PTR [r12+0x128]
    995d:	00 
    995e:	48 85 ce             	test   rsi,rcx
    9961:	75 35                	jne    9998 <__sprintf_chk@plt+0x8648>
    9963:	89 c6                	mov    esi,eax
    9965:	83 e6 07             	and    esi,0x7
    9968:	0f 85 df 01 00 00    	jne    9b4d <__sprintf_chk@plt+0x87fd>
    996e:	49 8b 75 08          	mov    rsi,QWORD PTR [r13+0x8]
    9972:	c1 f8 03             	sar    eax,0x3
    9975:	48 98                	cdqe   
    9977:	48 8d 1d 62 ea 00 00 	lea    rbx,[rip+0xea62]        # 183e0 <stdin@@GLIBC_2.2.5+0x13b0>
    997e:	48 23 14 c3          	and    rdx,QWORD PTR [rbx+rax*8]
    9982:	48 85 f2             	test   rdx,rsi
    9985:	75 11                	jne    9998 <__sprintf_chk@plt+0x8648>
    9987:	49 8b 47 30          	mov    rax,QWORD PTR [r15+0x30]
    998b:	48 85 c1             	test   rcx,rax
    998e:	0f 84 e4 01 00 00    	je     9b78 <__sprintf_chk@plt+0x8828>
    9994:	49 09 4f 40          	or     QWORD PTR [r15+0x40],rcx
    9998:	48 83 7c 24 50 00    	cmp    QWORD PTR [rsp+0x50],0x0
    999e:	0f 84 e0 01 00 00    	je     9b84 <__sprintf_chk@plt+0x8834>
    99a4:	48 8d 7c 24 50       	lea    rdi,[rsp+0x50]
    99a9:	e8 6c 90 ff ff       	call   2a1a <__sprintf_chk@plt+0x16ca>
    99ae:	41 89 c6             	mov    r14d,eax
    99b1:	83 e0 07             	and    eax,0x7
    99b4:	49 8b 5c c5 00       	mov    rbx,QWORD PTR [r13+rax*8+0x0]
    99b9:	49 23 9c 24 28 01 00 	and    rbx,QWORD PTR [r12+0x128]
    99c0:	00 
    99c1:	44 89 f5             	mov    ebp,r14d
    99c4:	83 e5 07             	and    ebp,0x7
    99c7:	0f 85 47 fc ff ff    	jne    9614 <__sprintf_chk@plt+0x82c4>
    99cd:	49 8b 45 08          	mov    rax,QWORD PTR [r13+0x8]
    99d1:	48 89 04 24          	mov    QWORD PTR [rsp],rax
    99d5:	49 63 c6             	movsxd rax,r14d
    99d8:	48 8d 0d 21 e1 00 00 	lea    rcx,[rip+0xe121]        # 17b00 <stdin@@GLIBC_2.2.5+0xad0>
    99df:	48 8b 04 c1          	mov    rax,QWORD PTR [rcx+rax*8]
    99e3:	49 23 84 24 30 01 00 	and    rax,QWORD PTR [r12+0x130]
    99ea:	00 
    99eb:	48 89 44 24 30       	mov    QWORD PTR [rsp+0x30],rax
    99f0:	48 89 df             	mov    rdi,rbx
    99f3:	e8 db 8f ff ff       	call   29d3 <__sprintf_chk@plt+0x1683>
    99f8:	83 f8 01             	cmp    eax,0x1
    99fb:	0f 8e 43 fc ff ff    	jle    9644 <__sprintf_chk@plt+0x82f4>
    9a01:	44 89 f0             	mov    eax,r14d
    9a04:	c1 f8 03             	sar    eax,0x3
    9a07:	48 98                	cdqe   
    9a09:	48 8d 0d d0 e9 00 00 	lea    rcx,[rip+0xe9d0]        # 183e0 <stdin@@GLIBC_2.2.5+0x13b0>
    9a10:	48 85 1c c1          	test   QWORD PTR [rcx+rax*8],rbx
    9a14:	0f 95 c0             	setne  al
    9a17:	0f b6 c0             	movzx  eax,al
    9a1a:	89 44 24 1c          	mov    DWORD PTR [rsp+0x1c],eax
    9a1e:	c7 44 24 10 01 00 00 	mov    DWORD PTR [rsp+0x10],0x1
    9a25:	00 
    9a26:	49 8b 8c 24 28 01 00 	mov    rcx,QWORD PTR [r12+0x128]
    9a2d:	00 
    9a2e:	48 8b 3c 24          	mov    rdi,QWORD PTR [rsp]
    9a32:	48 21 cf             	and    rdi,rcx
    9a35:	0f 84 61 fc ff ff    	je     969c <__sprintf_chk@plt+0x834c>
    9a3b:	44 89 f0             	mov    eax,r14d
    9a3e:	c1 f8 03             	sar    eax,0x3
    9a41:	8d 50 ff             	lea    edx,[rax-0x1]
    9a44:	48 63 f2             	movsxd rsi,edx
    9a47:	48 8d 1d 52 e9 00 00 	lea    rbx,[rip+0xe952]        # 183a0 <stdin@@GLIBC_2.2.5+0x1370>
    9a4e:	48 85 3c f3          	test   QWORD PTR [rbx+rsi*8],rdi
    9a52:	0f 85 d5 fc ff ff    	jne    972d <__sprintf_chk@plt+0x83dd>
    9a58:	48 8d 1d c1 e9 00 00 	lea    rbx,[rip+0xe9c1]        # 18420 <stdin@@GLIBC_2.2.5+0x13f0>
    9a5f:	48 8b 14 f3          	mov    rdx,QWORD PTR [rbx+rsi*8]
    9a63:	83 f8 01             	cmp    eax,0x1
    9a66:	7e 12                	jle    9a7a <__sprintf_chk@plt+0x872a>
    9a68:	8d 70 fe             	lea    esi,[rax-0x2]
    9a6b:	48 63 f6             	movsxd rsi,esi
    9a6e:	49 89 d3             	mov    r11,rdx
    9a71:	4c 0b 1c f3          	or     r11,QWORD PTR [rbx+rsi*8]
    9a75:	4c 89 5c 24 20       	mov    QWORD PTR [rsp+0x20],r11
    9a7a:	83 f8 02             	cmp    eax,0x2
    9a7d:	0f 8e d6 fb ff ff    	jle    9659 <__sprintf_chk@plt+0x8309>
    9a83:	8d 70 fd             	lea    esi,[rax-0x3]
    9a86:	48 63 f6             	movsxd rsi,esi
    9a89:	4c 8d 1d 90 e9 00 00 	lea    r11,[rip+0xe990]        # 18420 <stdin@@GLIBC_2.2.5+0x13f0>
    9a90:	48 8b 5c 24 20       	mov    rbx,QWORD PTR [rsp+0x20]
    9a95:	49 0b 1c f3          	or     rbx,QWORD PTR [r11+rsi*8]
    9a99:	48 89 de             	mov    rsi,rbx
    9a9c:	48 85 d7             	test   rdi,rdx
    9a9f:	0f 85 84 07 00 00    	jne    a229 <__sprintf_chk@plt+0x8ed9>
    9aa5:	83 f8 06             	cmp    eax,0x6
    9aa8:	0f 85 a3 fc ff ff    	jne    9751 <__sprintf_chk@plt+0x8401>
    9aae:	48 8b 5c 24 20       	mov    rbx,QWORD PTR [rsp+0x20]
    9ab3:	48 85 fb             	test   rbx,rdi
    9ab6:	0f 84 a7 fc ff ff    	je     9763 <__sprintf_chk@plt+0x8413>
    9abc:	48 63 c5             	movsxd rax,ebp
    9abf:	4d 8b 44 c5 00       	mov    r8,QWORD PTR [r13+rax*8+0x0]
    9ac4:	49 8b 84 24 30 01 00 	mov    rax,QWORD PTR [r12+0x130]
    9acb:	00 
    9acc:	48 8b 14 24          	mov    rdx,QWORD PTR [rsp]
    9ad0:	48 21 c2             	and    rdx,rax
    9ad3:	48 85 f2             	test   rdx,rsi
    9ad6:	0f 84 99 fc ff ff    	je     9775 <__sprintf_chk@plt+0x8425>
    9adc:	48 09 c8             	or     rax,rcx
    9adf:	4c 21 c0             	and    rax,r8
    9ae2:	48 85 c3             	test   rbx,rax
    9ae5:	0f 94 c0             	sete   al
    9ae8:	0f b6 c0             	movzx  eax,al
    9aeb:	89 44 24 0c          	mov    DWORD PTR [rsp+0xc],eax
    9aef:	bb 00 00 00 00       	mov    ebx,0x0
    9af4:	e9 b0 fb ff ff       	jmp    96a9 <__sprintf_chk@plt+0x8359>
    9af9:	44 89 f0             	mov    eax,r14d
    9afc:	c1 f8 03             	sar    eax,0x3
    9aff:	ff c8                	dec    eax
    9b01:	48 98                	cdqe   
    9b03:	48 8d 1d 96 8b 00 00 	lea    rbx,[rip+0x8b96]        # 126a0 <__sprintf_chk@plt+0x11350>
    9b0a:	8b 04 83             	mov    eax,DWORD PTR [rbx+rax*4]
    9b0d:	41 01 47 50          	add    DWORD PTR [r15+0x50],eax
    9b11:	e9 b1 fd ff ff       	jmp    98c7 <__sprintf_chk@plt+0x8577>
    9b16:	83 fe 07             	cmp    esi,0x7
    9b19:	74 1d                	je     9b38 <__sprintf_chk@plt+0x87e8>
    9b1b:	8d 7e ff             	lea    edi,[rsi-0x1]
    9b1e:	48 63 ff             	movsxd rdi,edi
    9b21:	ff c6                	inc    esi
    9b23:	48 63 f6             	movsxd rsi,esi
    9b26:	49 8b 7c fd 00       	mov    rdi,QWORD PTR [r13+rdi*8+0x0]
    9b2b:	49 0b 7c f5 00       	or     rdi,QWORD PTR [r13+rsi*8+0x0]
    9b30:	48 89 fe             	mov    rsi,rdi
    9b33:	e9 d6 fd ff ff       	jmp    990e <__sprintf_chk@plt+0x85be>
    9b38:	49 8b 75 30          	mov    rsi,QWORD PTR [r13+0x30]
    9b3c:	e9 cd fd ff ff       	jmp    990e <__sprintf_chk@plt+0x85be>
    9b41:	48 09 c1             	or     rcx,rax
    9b44:	49 89 4f 30          	mov    QWORD PTR [r15+0x30],rcx
    9b48:	e9 e7 fd ff ff       	jmp    9934 <__sprintf_chk@plt+0x85e4>
    9b4d:	83 fe 07             	cmp    esi,0x7
    9b50:	74 1d                	je     9b6f <__sprintf_chk@plt+0x881f>
    9b52:	8d 7e ff             	lea    edi,[rsi-0x1]
    9b55:	48 63 ff             	movsxd rdi,edi
    9b58:	ff c6                	inc    esi
    9b5a:	48 63 f6             	movsxd rsi,esi
    9b5d:	49 8b 7c fd 00       	mov    rdi,QWORD PTR [r13+rdi*8+0x0]
    9b62:	49 0b 7c f5 00       	or     rdi,QWORD PTR [r13+rsi*8+0x0]
    9b67:	48 89 fe             	mov    rsi,rdi
    9b6a:	e9 03 fe ff ff       	jmp    9972 <__sprintf_chk@plt+0x8622>
    9b6f:	49 8b 75 30          	mov    rsi,QWORD PTR [r13+0x30]
    9b73:	e9 fa fd ff ff       	jmp    9972 <__sprintf_chk@plt+0x8622>
    9b78:	48 09 c1             	or     rcx,rax
    9b7b:	49 89 4f 30          	mov    QWORD PTR [r15+0x30],rcx
    9b7f:	e9 14 fe ff ff       	jmp    9998 <__sprintf_chk@plt+0x8648>
    9b84:	4d 89 e6             	mov    r14,r12
    9b87:	49 8b 86 30 01 00 00 	mov    rax,QWORD PTR [r14+0x130]
    9b8e:	48 89 44 24 50       	mov    QWORD PTR [rsp+0x50],rax
    9b93:	48 85 c0             	test   rax,rax
    9b96:	0f 84 98 05 00 00    	je     a134 <__sprintf_chk@plt+0x8de4>
    9b9c:	4c 8d 2d bd e8 00 00 	lea    r13,[rip+0xe8bd]        # 18460 <stdin@@GLIBC_2.2.5+0x1430>
    9ba3:	48 63 54 24 18       	movsxd rdx,DWORD PTR [rsp+0x18]
    9ba8:	48 63 44 24 14       	movsxd rax,DWORD PTR [rsp+0x14]
    9bad:	48 6b d2 58          	imul   rdx,rdx,0x58
    9bb1:	48 69 c0 00 00 16 00 	imul   rax,rax,0x160000
    9bb8:	48 01 d0             	add    rax,rdx
    9bbb:	48 8d 15 de 1e 02 00 	lea    rdx,[rip+0x21ede]        # 2baa0 <stdin@@GLIBC_2.2.5+0x14a70>
    9bc2:	4c 8d 3c 02          	lea    r15,[rdx+rax*1]
    9bc6:	4d 89 f4             	mov    r12,r14
    9bc9:	e9 5a 03 00 00       	jmp    9f28 <__sprintf_chk@plt+0x8bd8>
    9bce:	83 7c 24 0c 07       	cmp    DWORD PTR [rsp+0xc],0x7
    9bd3:	74 21                	je     9bf6 <__sprintf_chk@plt+0x88a6>
    9bd5:	8b 44 24 0c          	mov    eax,DWORD PTR [rsp+0xc]
    9bd9:	8d 50 ff             	lea    edx,[rax-0x1]
    9bdc:	48 63 d2             	movsxd rdx,edx
    9bdf:	ff c0                	inc    eax
    9be1:	48 98                	cdqe   
    9be3:	49 8b 7c d5 00       	mov    rdi,QWORD PTR [r13+rdx*8+0x0]
    9be8:	49 0b 7c c5 00       	or     rdi,QWORD PTR [r13+rax*8+0x0]
    9bed:	48 89 3c 24          	mov    QWORD PTR [rsp],rdi
    9bf1:	e9 67 03 00 00       	jmp    9f5d <__sprintf_chk@plt+0x8c0d>
    9bf6:	49 8b 45 30          	mov    rax,QWORD PTR [r13+0x30]
    9bfa:	48 89 04 24          	mov    QWORD PTR [rsp],rax
    9bfe:	e9 5a 03 00 00       	jmp    9f5d <__sprintf_chk@plt+0x8c0d>
    9c03:	c7 44 24 1c 00 00 00 	mov    DWORD PTR [rsp+0x1c],0x0
    9c0a:	00 
    9c0b:	c7 44 24 10 00 00 00 	mov    DWORD PTR [rsp+0x10],0x0
    9c12:	00 
    9c13:	e9 96 03 00 00       	jmp    9fae <__sprintf_chk@plt+0x8c5e>
    9c18:	48 85 c7             	test   rdi,rax
    9c1b:	0f 84 d9 00 00 00    	je     9cfa <__sprintf_chk@plt+0x89aa>
    9c21:	48 63 4c 24 0c       	movsxd rcx,DWORD PTR [rsp+0xc]
    9c26:	49 8b 74 cd 00       	mov    rsi,QWORD PTR [r13+rcx*8+0x0]
    9c2b:	49 8b 8c 24 28 01 00 	mov    rcx,QWORD PTR [r12+0x128]
    9c32:	00 
    9c33:	83 fd 05             	cmp    ebp,0x5
    9c36:	7e 0c                	jle    9c44 <__sprintf_chk@plt+0x88f4>
    9c38:	bd 00 00 00 00       	mov    ebp,0x0
    9c3d:	bb 00 00 00 00       	mov    ebx,0x0
    9c42:	eb 20                	jmp    9c64 <__sprintf_chk@plt+0x8914>
    9c44:	48 09 ca             	or     rdx,rcx
    9c47:	48 21 d6             	and    rsi,rdx
    9c4a:	48 85 c6             	test   rsi,rax
    9c4d:	40 0f 94 c5          	sete   bpl
    9c51:	40 0f b6 ed          	movzx  ebp,bpl
    9c55:	e9 8d 05 00 00       	jmp    a1e7 <__sprintf_chk@plt+0x8e97>
    9c5a:	bd 00 00 00 00       	mov    ebp,0x0
    9c5f:	bb 01 00 00 00       	mov    ebx,0x1
    9c64:	48 83 7c 24 30 00    	cmp    QWORD PTR [rsp+0x30],0x0
    9c6a:	0f 85 35 05 00 00    	jne    a1a5 <__sprintf_chk@plt+0x8e55>
    9c70:	44 89 f0             	mov    eax,r14d
    9c73:	c1 f8 03             	sar    eax,0x3
    9c76:	89 44 24 38          	mov    DWORD PTR [rsp+0x38],eax
    9c7a:	48 98                	cdqe   
    9c7c:	48 8d 35 1d e7 00 00 	lea    rsi,[rip+0xe71d]        # 183a0 <stdin@@GLIBC_2.2.5+0x1370>
    9c83:	48 8b 04 c6          	mov    rax,QWORD PTR [rsi+rax*8]
    9c87:	49 23 84 24 28 01 00 	and    rax,QWORD PTR [r12+0x128]
    9c8e:	00 
    9c8f:	48 85 04 24          	test   QWORD PTR [rsp],rax
    9c93:	0f 85 8e 00 00 00    	jne    9d27 <__sprintf_chk@plt+0x89d7>
    9c99:	49 63 d6             	movsxd rdx,r14d
    9c9c:	49 8b 47 28          	mov    rax,QWORD PTR [r15+0x28]
    9ca0:	48 8d 35 f9 ed 00 00 	lea    rsi,[rip+0xedf9]        # 18aa0 <stdin@@GLIBC_2.2.5+0x1a70>
    9ca7:	48 0b 04 d6          	or     rax,QWORD PTR [rsi+rdx*8]
    9cab:	49 89 47 28          	mov    QWORD PTR [r15+0x28],rax
    9caf:	ba 00 00 00 00       	mov    edx,0x0
    9cb4:	83 7c 24 10 00       	cmp    DWORD PTR [rsp+0x10],0x0
    9cb9:	0f 85 47 01 00 00    	jne    9e06 <__sprintf_chk@plt+0x8ab6>
    9cbf:	85 db                	test   ebx,ebx
    9cc1:	0f 85 4c 01 00 00    	jne    9e13 <__sprintf_chk@plt+0x8ac3>
    9cc7:	89 d3                	mov    ebx,edx
    9cc9:	89 da                	mov    edx,ebx
    9ccb:	85 ed                	test   ebp,ebp
    9ccd:	0f 84 45 01 00 00    	je     9e18 <__sprintf_chk@plt+0x8ac8>
    9cd3:	48 83 7c 24 30 00    	cmp    QWORD PTR [rsp+0x30],0x0
    9cd9:	0f 85 b2 03 00 00    	jne    a091 <__sprintf_chk@plt+0x8d41>
    9cdf:	41 83 47 54 10       	add    DWORD PTR [r15+0x54],0x10
    9ce4:	89 da                	mov    edx,ebx
    9ce6:	e9 2d 01 00 00       	jmp    9e18 <__sprintf_chk@plt+0x8ac8>
    9ceb:	bd 00 00 00 00       	mov    ebp,0x0
    9cf0:	bb 00 00 00 00       	mov    ebx,0x0
    9cf5:	e9 6a ff ff ff       	jmp    9c64 <__sprintf_chk@plt+0x8914>
    9cfa:	bd 01 00 00 00       	mov    ebp,0x1
    9cff:	bb 00 00 00 00       	mov    ebx,0x0
    9d04:	e9 5b ff ff ff       	jmp    9c64 <__sprintf_chk@plt+0x8914>
    9d09:	bd 01 00 00 00       	mov    ebp,0x1
    9d0e:	bb 00 00 00 00       	mov    ebx,0x0
    9d13:	e9 4c ff ff ff       	jmp    9c64 <__sprintf_chk@plt+0x8914>
    9d18:	bd 00 00 00 00       	mov    ebp,0x0
    9d1d:	bb 00 00 00 00       	mov    ebx,0x0
    9d22:	e9 3d ff ff ff       	jmp    9c64 <__sprintf_chk@plt+0x8914>
    9d27:	8b 44 24 38          	mov    eax,DWORD PTR [rsp+0x38]
    9d2b:	8d 70 01             	lea    esi,[rax+0x1]
    9d2e:	89 74 24 4c          	mov    DWORD PTR [rsp+0x4c],esi
    9d32:	48 63 f6             	movsxd rsi,esi
    9d35:	4c 8d 15 a4 e6 00 00 	lea    r10,[rip+0xe6a4]        # 183e0 <stdin@@GLIBC_2.2.5+0x13b0>
    9d3c:	48 89 74 24 40       	mov    QWORD PTR [rsp+0x40],rsi
    9d41:	49 23 3c f2          	and    rdi,QWORD PTR [r10+rsi*8]
    9d45:	e8 89 8c ff ff       	call   29d3 <__sprintf_chk@plt+0x1683>
    9d4a:	89 44 24 3c          	mov    DWORD PTR [rsp+0x3c],eax
    9d4e:	48 63 44 24 38       	movsxd rax,DWORD PTR [rsp+0x38]
    9d53:	49 8b bc 24 28 01 00 	mov    rdi,QWORD PTR [r12+0x128]
    9d5a:	00 
    9d5b:	4c 8d 05 3e e6 00 00 	lea    r8,[rip+0xe63e]        # 183a0 <stdin@@GLIBC_2.2.5+0x1370>
    9d62:	49 23 3c c0          	and    rdi,QWORD PTR [r8+rax*8]
    9d66:	48 23 3c 24          	and    rdi,QWORD PTR [rsp]
    9d6a:	e8 64 8c ff ff       	call   29d3 <__sprintf_chk@plt+0x1683>
    9d6f:	89 44 24 48          	mov    DWORD PTR [rsp+0x48],eax
    9d73:	49 8b bc 24 28 01 00 	mov    rdi,QWORD PTR [r12+0x128]
    9d7a:	00 
    9d7b:	4c 8d 15 5e e6 00 00 	lea    r10,[rip+0xe65e]        # 183e0 <stdin@@GLIBC_2.2.5+0x13b0>
    9d82:	48 8b 54 24 40       	mov    rdx,QWORD PTR [rsp+0x40]
    9d87:	49 23 3c d2          	and    rdi,QWORD PTR [r10+rdx*8]
    9d8b:	48 23 3c 24          	and    rdi,QWORD PTR [rsp]
    9d8f:	e8 3f 8c ff ff       	call   29d3 <__sprintf_chk@plt+0x1683>
    9d94:	8b 7c 24 3c          	mov    edi,DWORD PTR [rsp+0x3c]
    9d98:	29 c7                	sub    edi,eax
    9d9a:	ba 00 00 00 00       	mov    edx,0x0
    9d9f:	3b 7c 24 48          	cmp    edi,DWORD PTR [rsp+0x48]
    9da3:	0f 88 0b ff ff ff    	js     9cb4 <__sprintf_chk@plt+0x8964>
    9da9:	8b 44 24 38          	mov    eax,DWORD PTR [rsp+0x38]
    9dad:	ff c8                	dec    eax
    9daf:	48 98                	cdqe   
    9db1:	48 8d 3d 68 e6 00 00 	lea    rdi,[rip+0xe668]        # 18420 <stdin@@GLIBC_2.2.5+0x13f0>
    9db8:	48 8b 3c c7          	mov    rdi,QWORD PTR [rdi+rax*8]
    9dbc:	49 23 bc 24 30 01 00 	and    rdi,QWORD PTR [r12+0x130]
    9dc3:	00 
    9dc4:	48 23 3c 24          	and    rdi,QWORD PTR [rsp]
    9dc8:	e8 06 8c ff ff       	call   29d3 <__sprintf_chk@plt+0x1683>
    9dcd:	89 44 24 38          	mov    DWORD PTR [rsp+0x38],eax
    9dd1:	48 63 44 24 4c       	movsxd rax,DWORD PTR [rsp+0x4c]
    9dd6:	49 8b bc 24 28 01 00 	mov    rdi,QWORD PTR [r12+0x128]
    9ddd:	00 
    9dde:	48 8d 0d 3b e6 00 00 	lea    rcx,[rip+0xe63b]        # 18420 <stdin@@GLIBC_2.2.5+0x13f0>
    9de5:	48 23 3c c1          	and    rdi,QWORD PTR [rcx+rax*8]
    9de9:	48 23 3c 24          	and    rdi,QWORD PTR [rsp]
    9ded:	e8 e1 8b ff ff       	call   29d3 <__sprintf_chk@plt+0x1683>
    9df2:	8b 4c 24 38          	mov    ecx,DWORD PTR [rsp+0x38]
    9df6:	29 c1                	sub    ecx,eax
    9df8:	89 c8                	mov    eax,ecx
    9dfa:	f7 d0                	not    eax
    9dfc:	c1 e8 1f             	shr    eax,0x1f
    9dff:	89 c2                	mov    edx,eax
    9e01:	e9 ae fe ff ff       	jmp    9cb4 <__sprintf_chk@plt+0x8964>
    9e06:	41 83 47 54 0a       	add    DWORD PTR [r15+0x54],0xa
    9e0b:	85 db                	test   ebx,ebx
    9e0d:	0f 84 5a 04 00 00    	je     a26d <__sprintf_chk@plt+0x8f1d>
    9e13:	41 83 47 54 14       	add    DWORD PTR [r15+0x54],0x14
    9e18:	85 d2                	test   edx,edx
    9e1a:	74 2a                	je     9e46 <__sprintf_chk@plt+0x8af6>
    9e1c:	83 7c 24 1c 00       	cmp    DWORD PTR [rsp+0x1c],0x0
    9e21:	0f 85 76 02 00 00    	jne    a09d <__sprintf_chk@plt+0x8d4d>
    9e27:	44 89 f2             	mov    edx,r14d
    9e2a:	c1 fa 03             	sar    edx,0x3
    9e2d:	b8 06 00 00 00       	mov    eax,0x6
    9e32:	29 d0                	sub    eax,edx
    9e34:	48 98                	cdqe   
    9e36:	48 8d 1d 63 88 00 00 	lea    rbx,[rip+0x8863]        # 126a0 <__sprintf_chk@plt+0x11350>
    9e3d:	8b 04 83             	mov    eax,DWORD PTR [rbx+rax*4]
    9e40:	01 c0                	add    eax,eax
    9e42:	41 29 47 54          	sub    DWORD PTR [r15+0x54],eax
    9e46:	41 83 fe 2f          	cmp    r14d,0x2f
    9e4a:	0f 8f cc 00 00 00    	jg     9f1c <__sprintf_chk@plt+0x8bcc>
    9e50:	83 7c 24 0c 00       	cmp    DWORD PTR [rsp+0xc],0x0
    9e55:	7e 5f                	jle    9eb6 <__sprintf_chk@plt+0x8b66>
    9e57:	41 8d 46 07          	lea    eax,[r14+0x7]
    9e5b:	48 63 d0             	movsxd rdx,eax
    9e5e:	48 8d 1d 3b ec 00 00 	lea    rbx,[rip+0xec3b]        # 18aa0 <stdin@@GLIBC_2.2.5+0x1a70>
    9e65:	48 8b 0c d3          	mov    rcx,QWORD PTR [rbx+rdx*8]
    9e69:	49 8b 94 24 28 01 00 	mov    rdx,QWORD PTR [r12+0x128]
    9e70:	00 
    9e71:	48 89 d6             	mov    rsi,rdx
    9e74:	49 0b b4 24 30 01 00 	or     rsi,QWORD PTR [r12+0x130]
    9e7b:	00 
    9e7c:	48 85 ce             	test   rsi,rcx
    9e7f:	75 35                	jne    9eb6 <__sprintf_chk@plt+0x8b66>
    9e81:	89 c6                	mov    esi,eax
    9e83:	83 e6 07             	and    esi,0x7
    9e86:	0f 85 37 02 00 00    	jne    a0c3 <__sprintf_chk@plt+0x8d73>
    9e8c:	49 8b 75 08          	mov    rsi,QWORD PTR [r13+0x8]
    9e90:	c1 f8 03             	sar    eax,0x3
    9e93:	48 98                	cdqe   
    9e95:	48 8d 1d 04 e5 00 00 	lea    rbx,[rip+0xe504]        # 183a0 <stdin@@GLIBC_2.2.5+0x1370>
    9e9c:	48 23 14 c3          	and    rdx,QWORD PTR [rbx+rax*8]
    9ea0:	48 85 f2             	test   rdx,rsi
    9ea3:	75 11                	jne    9eb6 <__sprintf_chk@plt+0x8b66>
    9ea5:	49 8b 47 38          	mov    rax,QWORD PTR [r15+0x38]
    9ea9:	48 85 c1             	test   rcx,rax
    9eac:	0f 84 3c 02 00 00    	je     a0ee <__sprintf_chk@plt+0x8d9e>
    9eb2:	49 09 4f 48          	or     QWORD PTR [r15+0x48],rcx
    9eb6:	83 7c 24 0c 06       	cmp    DWORD PTR [rsp+0xc],0x6
    9ebb:	7f 5f                	jg     9f1c <__sprintf_chk@plt+0x8bcc>
    9ebd:	41 8d 46 09          	lea    eax,[r14+0x9]
    9ec1:	48 63 d0             	movsxd rdx,eax
    9ec4:	48 8d 1d d5 eb 00 00 	lea    rbx,[rip+0xebd5]        # 18aa0 <stdin@@GLIBC_2.2.5+0x1a70>
    9ecb:	48 8b 0c d3          	mov    rcx,QWORD PTR [rbx+rdx*8]
    9ecf:	49 8b 94 24 28 01 00 	mov    rdx,QWORD PTR [r12+0x128]
    9ed6:	00 
    9ed7:	48 89 d6             	mov    rsi,rdx
    9eda:	49 0b b4 24 30 01 00 	or     rsi,QWORD PTR [r12+0x130]
    9ee1:	00 
    9ee2:	48 85 ce             	test   rsi,rcx
    9ee5:	75 35                	jne    9f1c <__sprintf_chk@plt+0x8bcc>
    9ee7:	89 c6                	mov    esi,eax
    9ee9:	83 e6 07             	and    esi,0x7
    9eec:	0f 85 08 02 00 00    	jne    a0fa <__sprintf_chk@plt+0x8daa>
    9ef2:	49 8b 75 08          	mov    rsi,QWORD PTR [r13+0x8]
    9ef6:	c1 f8 03             	sar    eax,0x3
    9ef9:	48 98                	cdqe   
    9efb:	48 8d 1d 9e e4 00 00 	lea    rbx,[rip+0xe49e]        # 183a0 <stdin@@GLIBC_2.2.5+0x1370>
    9f02:	48 23 14 c3          	and    rdx,QWORD PTR [rbx+rax*8]
    9f06:	48 85 f2             	test   rdx,rsi
    9f09:	75 11                	jne    9f1c <__sprintf_chk@plt+0x8bcc>
    9f0b:	49 8b 47 38          	mov    rax,QWORD PTR [r15+0x38]
    9f0f:	48 85 c1             	test   rcx,rax
    9f12:	0f 84 0d 02 00 00    	je     a125 <__sprintf_chk@plt+0x8dd5>
    9f18:	49 09 4f 48          	or     QWORD PTR [r15+0x48],rcx
    9f1c:	48 83 7c 24 50 00    	cmp    QWORD PTR [rsp+0x50],0x0
    9f22:	0f 84 09 02 00 00    	je     a131 <__sprintf_chk@plt+0x8de1>
    9f28:	48 8d 7c 24 50       	lea    rdi,[rsp+0x50]
    9f2d:	e8 e8 8a ff ff       	call   2a1a <__sprintf_chk@plt+0x16ca>
    9f32:	41 89 c6             	mov    r14d,eax
    9f35:	83 e0 07             	and    eax,0x7
    9f38:	49 8b 5c c5 00       	mov    rbx,QWORD PTR [r13+rax*8+0x0]
    9f3d:	49 23 9c 24 30 01 00 	and    rbx,QWORD PTR [r12+0x130]
    9f44:	00 
    9f45:	44 89 f0             	mov    eax,r14d
    9f48:	83 e0 07             	and    eax,0x7
    9f4b:	89 44 24 0c          	mov    DWORD PTR [rsp+0xc],eax
    9f4f:	0f 85 79 fc ff ff    	jne    9bce <__sprintf_chk@plt+0x887e>
    9f55:	49 8b 45 08          	mov    rax,QWORD PTR [r13+0x8]
    9f59:	48 89 04 24          	mov    QWORD PTR [rsp],rax
    9f5d:	49 63 c6             	movsxd rax,r14d
    9f60:	48 8d 0d 99 d9 00 00 	lea    rcx,[rip+0xd999]        # 17900 <stdin@@GLIBC_2.2.5+0x8d0>
    9f67:	48 8b 04 c1          	mov    rax,QWORD PTR [rcx+rax*8]
    9f6b:	49 23 84 24 28 01 00 	and    rax,QWORD PTR [r12+0x128]
    9f72:	00 
    9f73:	48 89 44 24 30       	mov    QWORD PTR [rsp+0x30],rax
    9f78:	48 89 df             	mov    rdi,rbx
    9f7b:	e8 53 8a ff ff       	call   29d3 <__sprintf_chk@plt+0x1683>
    9f80:	83 f8 01             	cmp    eax,0x1
    9f83:	0f 8e 7a fc ff ff    	jle    9c03 <__sprintf_chk@plt+0x88b3>
    9f89:	44 89 f0             	mov    eax,r14d
    9f8c:	c1 f8 03             	sar    eax,0x3
    9f8f:	48 98                	cdqe   
    9f91:	48 8d 0d 08 e4 00 00 	lea    rcx,[rip+0xe408]        # 183a0 <stdin@@GLIBC_2.2.5+0x1370>
    9f98:	48 85 1c c1          	test   QWORD PTR [rcx+rax*8],rbx
    9f9c:	0f 95 c0             	setne  al
    9f9f:	0f b6 c0             	movzx  eax,al
    9fa2:	89 44 24 1c          	mov    DWORD PTR [rsp+0x1c],eax
    9fa6:	c7 44 24 10 01 00 00 	mov    DWORD PTR [rsp+0x10],0x1
    9fad:	00 
    9fae:	49 8b 94 24 30 01 00 	mov    rdx,QWORD PTR [r12+0x130]
    9fb5:	00 
    9fb6:	48 8b 3c 24          	mov    rdi,QWORD PTR [rsp]
    9fba:	48 21 d7             	and    rdi,rdx
    9fbd:	0f 84 97 fc ff ff    	je     9c5a <__sprintf_chk@plt+0x890a>
    9fc3:	44 89 f5             	mov    ebp,r14d
    9fc6:	c1 fd 03             	sar    ebp,0x3
    9fc9:	8d 45 01             	lea    eax,[rbp+0x1]
    9fcc:	48 63 c8             	movsxd rcx,eax
    9fcf:	48 8d 1d 0a e4 00 00 	lea    rbx,[rip+0xe40a]        # 183e0 <stdin@@GLIBC_2.2.5+0x13b0>
    9fd6:	48 85 3c cb          	test   QWORD PTR [rbx+rcx*8],rdi
    9fda:	0f 85 0b fd ff ff    	jne    9ceb <__sprintf_chk@plt+0x899b>
    9fe0:	48 8d 1d 39 e4 00 00 	lea    rbx,[rip+0xe439]        # 18420 <stdin@@GLIBC_2.2.5+0x13f0>
    9fe7:	48 8b 04 cb          	mov    rax,QWORD PTR [rbx+rcx*8]
    9feb:	83 fd 05             	cmp    ebp,0x5
    9fee:	7f 12                	jg     a002 <__sprintf_chk@plt+0x8cb2>
    9ff0:	8d 4d 02             	lea    ecx,[rbp+0x2]
    9ff3:	48 63 c9             	movsxd rcx,ecx
    9ff6:	48 89 c6             	mov    rsi,rax
    9ff9:	48 0b 34 cb          	or     rsi,QWORD PTR [rbx+rcx*8]
    9ffd:	48 89 74 24 20       	mov    QWORD PTR [rsp+0x20],rsi
    a002:	83 fd 04             	cmp    ebp,0x4
    a005:	0f 8f 0d fc ff ff    	jg     9c18 <__sprintf_chk@plt+0x88c8>
    a00b:	8d 4d 03             	lea    ecx,[rbp+0x3]
    a00e:	48 63 c9             	movsxd rcx,ecx
    a011:	48 8d 35 08 e4 00 00 	lea    rsi,[rip+0xe408]        # 18420 <stdin@@GLIBC_2.2.5+0x13f0>
    a018:	48 8b 5c 24 20       	mov    rbx,QWORD PTR [rsp+0x20]
    a01d:	48 0b 1c ce          	or     rbx,QWORD PTR [rsi+rcx*8]
    a021:	48 89 d9             	mov    rcx,rbx
    a024:	48 85 c7             	test   rdi,rax
    a027:	0f 85 9a 01 00 00    	jne    a1c7 <__sprintf_chk@plt+0x8e77>
    a02d:	83 fd 01             	cmp    ebp,0x1
    a030:	0f 85 d3 fc ff ff    	jne    9d09 <__sprintf_chk@plt+0x89b9>
    a036:	bb 00 00 00 00       	mov    ebx,0x0
    a03b:	4c 8b 4c 24 20       	mov    r9,QWORD PTR [rsp+0x20]
    a040:	49 85 f9             	test   r9,rdi
    a043:	0f 84 1b fc ff ff    	je     9c64 <__sprintf_chk@plt+0x8914>
    a049:	48 63 44 24 0c       	movsxd rax,DWORD PTR [rsp+0xc]
    a04e:	49 8b 74 c5 00       	mov    rsi,QWORD PTR [r13+rax*8+0x0]
    a053:	49 8b 84 24 28 01 00 	mov    rax,QWORD PTR [r12+0x128]
    a05a:	00 
    a05b:	48 85 cf             	test   rdi,rcx
    a05e:	0f 84 b4 fc ff ff    	je     9d18 <__sprintf_chk@plt+0x89c8>
    a064:	48 09 d0             	or     rax,rdx
    a067:	48 21 f0             	and    rax,rsi
    a06a:	49 85 c1             	test   r9,rax
    a06d:	40 0f 94 c5          	sete   bpl
    a071:	40 0f b6 ed          	movzx  ebp,bpl
    a075:	e9 ea fb ff ff       	jmp    9c64 <__sprintf_chk@plt+0x8914>
    a07a:	41 83 47 54 05       	add    DWORD PTR [r15+0x54],0x5
    a07f:	85 db                	test   ebx,ebx
    a081:	0f 85 31 01 00 00    	jne    a1b8 <__sprintf_chk@plt+0x8e68>
    a087:	89 ea                	mov    edx,ebp
    a089:	85 ed                	test   ebp,ebp
    a08b:	0f 84 87 fd ff ff    	je     9e18 <__sprintf_chk@plt+0x8ac8>
    a091:	41 83 47 54 06       	add    DWORD PTR [r15+0x54],0x6
    a096:	89 da                	mov    edx,ebx
    a098:	e9 7b fd ff ff       	jmp    9e18 <__sprintf_chk@plt+0x8ac8>
    a09d:	44 89 f2             	mov    edx,r14d
    a0a0:	c1 fa 03             	sar    edx,0x3
    a0a3:	b8 06 00 00 00       	mov    eax,0x6
    a0a8:	29 d0                	sub    eax,edx
    a0aa:	48 98                	cdqe   
    a0ac:	41 8b 57 54          	mov    edx,DWORD PTR [r15+0x54]
    a0b0:	48 8d 1d e9 85 00 00 	lea    rbx,[rip+0x85e9]        # 126a0 <__sprintf_chk@plt+0x11350>
    a0b7:	2b 14 83             	sub    edx,DWORD PTR [rbx+rax*4]
    a0ba:	41 89 57 54          	mov    DWORD PTR [r15+0x54],edx
    a0be:	e9 83 fd ff ff       	jmp    9e46 <__sprintf_chk@plt+0x8af6>
    a0c3:	83 fe 07             	cmp    esi,0x7
    a0c6:	74 1d                	je     a0e5 <__sprintf_chk@plt+0x8d95>
    a0c8:	8d 7e ff             	lea    edi,[rsi-0x1]
    a0cb:	48 63 ff             	movsxd rdi,edi
    a0ce:	ff c6                	inc    esi
    a0d0:	48 63 f6             	movsxd rsi,esi
    a0d3:	49 8b 7c fd 00       	mov    rdi,QWORD PTR [r13+rdi*8+0x0]
    a0d8:	49 0b 7c f5 00       	or     rdi,QWORD PTR [r13+rsi*8+0x0]
    a0dd:	48 89 fe             	mov    rsi,rdi
    a0e0:	e9 ab fd ff ff       	jmp    9e90 <__sprintf_chk@plt+0x8b40>
    a0e5:	49 8b 75 30          	mov    rsi,QWORD PTR [r13+0x30]
    a0e9:	e9 a2 fd ff ff       	jmp    9e90 <__sprintf_chk@plt+0x8b40>
    a0ee:	48 09 c1             	or     rcx,rax
    a0f1:	49 89 4f 38          	mov    QWORD PTR [r15+0x38],rcx
    a0f5:	e9 bc fd ff ff       	jmp    9eb6 <__sprintf_chk@plt+0x8b66>
    a0fa:	83 fe 07             	cmp    esi,0x7
    a0fd:	74 1d                	je     a11c <__sprintf_chk@plt+0x8dcc>
    a0ff:	8d 7e ff             	lea    edi,[rsi-0x1]
    a102:	48 63 ff             	movsxd rdi,edi
    a105:	ff c6                	inc    esi
    a107:	48 63 f6             	movsxd rsi,esi
    a10a:	49 8b 7c fd 00       	mov    rdi,QWORD PTR [r13+rdi*8+0x0]
    a10f:	49 0b 7c f5 00       	or     rdi,QWORD PTR [r13+rsi*8+0x0]
    a114:	48 89 fe             	mov    rsi,rdi
    a117:	e9 da fd ff ff       	jmp    9ef6 <__sprintf_chk@plt+0x8ba6>
    a11c:	49 8b 75 30          	mov    rsi,QWORD PTR [r13+0x30]
    a120:	e9 d1 fd ff ff       	jmp    9ef6 <__sprintf_chk@plt+0x8ba6>
    a125:	48 09 c1             	or     rcx,rax
    a128:	49 89 4f 38          	mov    QWORD PTR [r15+0x38],rcx
    a12c:	e9 eb fd ff ff       	jmp    9f1c <__sprintf_chk@plt+0x8bcc>
    a131:	4d 89 e6             	mov    r14,r12
    a134:	48 63 54 24 18       	movsxd rdx,DWORD PTR [rsp+0x18]
    a139:	48 63 44 24 14       	movsxd rax,DWORD PTR [rsp+0x14]
    a13e:	48 6b d2 58          	imul   rdx,rdx,0x58
    a142:	48 69 c0 00 00 16 00 	imul   rax,rax,0x160000
    a149:	48 01 d0             	add    rax,rdx
    a14c:	48 8d 15 4d 19 02 00 	lea    rdx,[rip+0x2194d]        # 2baa0 <stdin@@GLIBC_2.2.5+0x14a70>
    a153:	48 01 d0             	add    rax,rdx
    a156:	48 8b 3d 6b d3 00 00 	mov    rdi,QWORD PTR [rip+0xd36b]        # 174c8 <stdin@@GLIBC_2.2.5+0x498>
    a15d:	48 8b 35 5c d3 00 00 	mov    rsi,QWORD PTR [rip+0xd35c]        # 174c0 <stdin@@GLIBC_2.2.5+0x490>
    a164:	48 8b 48 40          	mov    rcx,QWORD PTR [rax+0x40]
    a168:	48 89 fa             	mov    rdx,rdi
    a16b:	48 21 ca             	and    rdx,rcx
    a16e:	48 89 50 40          	mov    QWORD PTR [rax+0x40],rdx
    a172:	48 8b 50 48          	mov    rdx,QWORD PTR [rax+0x48]
    a176:	49 89 f0             	mov    r8,rsi
    a179:	49 21 d0             	and    r8,rdx
    a17c:	4c 89 40 48          	mov    QWORD PTR [rax+0x48],r8
    a180:	48 33 48 30          	xor    rcx,QWORD PTR [rax+0x30]
    a184:	48 21 f9             	and    rcx,rdi
    a187:	48 89 48 30          	mov    QWORD PTR [rax+0x30],rcx
    a18b:	48 33 50 38          	xor    rdx,QWORD PTR [rax+0x38]
    a18f:	48 21 f2             	and    rdx,rsi
    a192:	48 89 50 38          	mov    QWORD PTR [rax+0x38],rdx
    a196:	49 8b 96 e8 01 00 00 	mov    rdx,QWORD PTR [r14+0x1e8]
    a19d:	48 89 10             	mov    QWORD PTR [rax],rdx
    a1a0:	e9 48 f3 ff ff       	jmp    94ed <__sprintf_chk@plt+0x819d>
    a1a5:	83 7c 24 10 00       	cmp    DWORD PTR [rsp+0x10],0x0
    a1aa:	0f 85 ca fe ff ff    	jne    a07a <__sprintf_chk@plt+0x8d2a>
    a1b0:	85 db                	test   ebx,ebx
    a1b2:	0f 84 11 fb ff ff    	je     9cc9 <__sprintf_chk@plt+0x8979>
    a1b8:	41 83 47 54 08       	add    DWORD PTR [r15+0x54],0x8
    a1bd:	ba 00 00 00 00       	mov    edx,0x0
    a1c2:	e9 51 fc ff ff       	jmp    9e18 <__sprintf_chk@plt+0x8ac8>
    a1c7:	49 8b 8c 24 28 01 00 	mov    rcx,QWORD PTR [r12+0x128]
    a1ce:	00 
    a1cf:	48 63 74 24 0c       	movsxd rsi,DWORD PTR [rsp+0xc]
    a1d4:	48 09 ca             	or     rdx,rcx
    a1d7:	49 23 54 f5 00       	and    rdx,QWORD PTR [r13+rsi*8+0x0]
    a1dc:	48 85 c2             	test   rdx,rax
    a1df:	40 0f 94 c5          	sete   bpl
    a1e3:	40 0f b6 ed          	movzx  ebp,bpl
    a1e7:	48 8b 04 24          	mov    rax,QWORD PTR [rsp]
    a1eb:	48 23 44 24 20       	and    rax,QWORD PTR [rsp+0x20]
    a1f0:	48 85 c8             	test   rax,rcx
    a1f3:	b8 00 00 00 00       	mov    eax,0x0
    a1f8:	0f 44 e8             	cmove  ebp,eax
    a1fb:	bb 00 00 00 00       	mov    ebx,0x0
    a200:	e9 5f fa ff ff       	jmp    9c64 <__sprintf_chk@plt+0x8914>
    a205:	83 7c 24 10 00       	cmp    DWORD PTR [rsp+0x10],0x0
    a20a:	0f 85 6d f6 ff ff    	jne    987d <__sprintf_chk@plt+0x852d>
    a210:	89 da                	mov    edx,ebx
    a212:	85 db                	test   ebx,ebx
    a214:	0f 84 f2 f4 ff ff    	je     970c <__sprintf_chk@plt+0x83bc>
    a21a:	41 83 6f 50 08       	sub    DWORD PTR [r15+0x50],0x8
    a21f:	ba 00 00 00 00       	mov    edx,0x0
    a224:	e9 75 f6 ff ff       	jmp    989e <__sprintf_chk@plt+0x854e>
    a229:	49 8b b4 24 30 01 00 	mov    rsi,QWORD PTR [r12+0x130]
    a230:	00 
    a231:	48 63 c5             	movsxd rax,ebp
    a234:	48 09 f1             	or     rcx,rsi
    a237:	49 23 4c c5 00       	and    rcx,QWORD PTR [r13+rax*8+0x0]
    a23c:	48 85 d1             	test   rcx,rdx
    a23f:	0f 94 c0             	sete   al
    a242:	0f b6 c0             	movzx  eax,al
    a245:	89 44 24 0c          	mov    DWORD PTR [rsp+0xc],eax
    a249:	48 8b 04 24          	mov    rax,QWORD PTR [rsp]
    a24d:	48 23 44 24 20       	and    rax,QWORD PTR [rsp+0x20]
    a252:	48 85 f0             	test   rax,rsi
    a255:	b8 00 00 00 00       	mov    eax,0x0
    a25a:	0f 45 44 24 0c       	cmovne eax,DWORD PTR [rsp+0xc]
    a25f:	89 44 24 0c          	mov    DWORD PTR [rsp+0xc],eax
    a263:	bb 00 00 00 00       	mov    ebx,0x0
    a268:	e9 3c f4 ff ff       	jmp    96a9 <__sprintf_chk@plt+0x8359>
    a26d:	85 ed                	test   ebp,ebp
    a26f:	0f 84 a3 fb ff ff    	je     9e18 <__sprintf_chk@plt+0x8ac8>
    a275:	89 d3                	mov    ebx,edx
    a277:	e9 63 fa ff ff       	jmp    9cdf <__sprintf_chk@plt+0x898f>
    a27c:	e8 bf 6f ff ff       	call   1240 <__stack_chk_fail@plt>
    a281:	f3 0f 1e fa          	endbr64 
    a285:	48 8b 87 28 01 00 00 	mov    rax,QWORD PTR [rdi+0x128]
    a28c:	48 0b 87 30 01 00 00 	or     rax,QWORD PTR [rdi+0x130]
    a293:	48 85 05 0e d2 00 00 	test   QWORD PTR [rip+0xd20e],rax        # 174a8 <stdin@@GLIBC_2.2.5+0x478>
    a29a:	74 3f                	je     a2db <__sprintf_chk@plt+0x8f8b>
    a29c:	48 85 05 fd d1 00 00 	test   QWORD PTR [rip+0xd1fd],rax        # 174a0 <stdin@@GLIBC_2.2.5+0x470>
    a2a3:	48 8d 05 16 88 00 00 	lea    rax,[rip+0x8816]        # 12ac0 <__sprintf_chk@plt+0x11770>
    a2aa:	48 8d 15 0f 8b 00 00 	lea    rdx,[rip+0x8b0f]        # 12dc0 <__sprintf_chk@plt+0x11a70>
    a2b1:	48 0f 44 c2          	cmove  rax,rdx
    a2b5:	48 63 97 d0 01 00 00 	movsxd rdx,DWORD PTR [rdi+0x1d0]
    a2bc:	8b 14 90             	mov    edx,DWORD PTR [rax+rdx*4]
    a2bf:	01 56 18             	add    DWORD PTR [rsi+0x18],edx
    a2c2:	48 63 8f d4 01 00 00 	movsxd rcx,DWORD PTR [rdi+0x1d4]
    a2c9:	48 8d 15 f0 8c 00 00 	lea    rdx,[rip+0x8cf0]        # 12fc0 <__sprintf_chk@plt+0x11c70>
    a2d0:	48 63 14 8a          	movsxd rdx,DWORD PTR [rdx+rcx*4]
    a2d4:	8b 04 90             	mov    eax,DWORD PTR [rax+rdx*4]
    a2d7:	29 46 1c             	sub    DWORD PTR [rsi+0x1c],eax
    a2da:	c3                   	ret    
    a2db:	48 85 05 be d1 00 00 	test   QWORD PTR [rip+0xd1be],rax        # 174a0 <stdin@@GLIBC_2.2.5+0x470>
    a2e2:	48 8d 05 d7 89 00 00 	lea    rax,[rip+0x89d7]        # 12cc0 <__sprintf_chk@plt+0x11970>
    a2e9:	48 8d 15 d0 8b 00 00 	lea    rdx,[rip+0x8bd0]        # 12ec0 <__sprintf_chk@plt+0x11b70>
    a2f0:	48 0f 44 c2          	cmove  rax,rdx
    a2f4:	eb bf                	jmp    a2b5 <__sprintf_chk@plt+0x8f65>
    a2f6:	f3 0f 1e fa          	endbr64 
    a2fa:	41 54                	push   r12
    a2fc:	55                   	push   rbp
    a2fd:	53                   	push   rbx
    a2fe:	48 83 ec 10          	sub    rsp,0x10
    a302:	48 89 fd             	mov    rbp,rdi
    a305:	64 48 8b 04 25 28 00 	mov    rax,QWORD PTR fs:0x28
    a30c:	00 00 
    a30e:	48 89 44 24 08       	mov    QWORD PTR [rsp+0x8],rax
    a313:	31 c0                	xor    eax,eax
    a315:	48 8b 87 08 01 00 00 	mov    rax,QWORD PTR [rdi+0x108]
    a31c:	48 89 04 24          	mov    QWORD PTR [rsp],rax
    a320:	48 85 c0             	test   rax,rax
    a323:	74 53                	je     a378 <__sprintf_chk@plt+0x9028>
    a325:	bb 00 00 00 00       	mov    ebx,0x0
    a32a:	4c 8d 25 6f 17 b2 00 	lea    r12,[rip+0xb2176f]        # b2baa0 <stdin@@GLIBC_2.2.5+0xb14a70>
    a331:	48 89 e7             	mov    rdi,rsp
    a334:	e8 e1 86 ff ff       	call   2a1a <__sprintf_chk@plt+0x16ca>
    a339:	48 98                	cdqe   
    a33b:	8b 4c 85 04          	mov    ecx,DWORD PTR [rbp+rax*4+0x4]
    a33f:	8d 51 ff             	lea    edx,[rcx-0x1]
    a342:	48 63 d2             	movsxd rdx,edx
    a345:	48 c1 e2 06          	shl    rdx,0x6
    a349:	4c 01 e2             	add    rdx,r12
    a34c:	0f be 04 02          	movsx  eax,BYTE PTR [rdx+rax*1]
    a350:	01 c3                	add    ebx,eax
    a352:	48 83 3c 24 00       	cmp    QWORD PTR [rsp],0x0
    a357:	75 d8                	jne    a331 <__sprintf_chk@plt+0x8fe1>
    a359:	89 9d 8c 01 00 00    	mov    DWORD PTR [rbp+0x18c],ebx
    a35f:	48 8b 44 24 08       	mov    rax,QWORD PTR [rsp+0x8]
    a364:	64 48 33 04 25 28 00 	xor    rax,QWORD PTR fs:0x28
    a36b:	00 00 
    a36d:	75 10                	jne    a37f <__sprintf_chk@plt+0x902f>
    a36f:	48 83 c4 10          	add    rsp,0x10
    a373:	5b                   	pop    rbx
    a374:	5d                   	pop    rbp
    a375:	41 5c                	pop    r12
    a377:	c3                   	ret    
    a378:	bb 00 00 00 00       	mov    ebx,0x0
    a37d:	eb da                	jmp    a359 <__sprintf_chk@plt+0x9009>
    a37f:	e8 bc 6e ff ff       	call   1240 <__stack_chk_fail@plt>
    a384:	f3 0f 1e fa          	endbr64 
    a388:	55                   	push   rbp
    a389:	53                   	push   rbx
    a38a:	48 83 ec 08          	sub    rsp,0x8
    a38e:	48 8d 1d 0b 17 b2 00 	lea    rbx,[rip+0xb2170b]        # b2baa0 <stdin@@GLIBC_2.2.5+0xb14a70>
    a395:	ba 00 03 00 00       	mov    edx,0x300
    a39a:	be 00 00 00 00       	mov    esi,0x0
    a39f:	48 89 df             	mov    rdi,rbx
    a3a2:	e8 b9 6e ff ff       	call   1260 <memset@plt>
    a3a7:	48 89 de             	mov    rsi,rbx
    a3aa:	ba 01 00 00 00       	mov    edx,0x1
    a3af:	48 8d 2d 0a 84 00 00 	lea    rbp,[rip+0x840a]        # 127c0 <__sprintf_chk@plt+0x11470>
    a3b6:	4c 8d 05 03 8c 00 00 	lea    r8,[rip+0x8c03]        # 12fc0 <__sprintf_chk@plt+0x11c70>
    a3bd:	48 8d 1d fc 85 00 00 	lea    rbx,[rip+0x85fc]        # 129c0 <__sprintf_chk@plt+0x11670>
    a3c4:	4c 8d 15 f5 84 00 00 	lea    r10,[rip+0x84f5]        # 128c0 <__sprintf_chk@plt+0x11570>
    a3cb:	4c 8d 0d ee 87 00 00 	lea    r9,[rip+0x87ee]        # 12bc0 <__sprintf_chk@plt+0x11870>
    a3d2:	e9 c9 00 00 00       	jmp    a4a0 <__sprintf_chk@plt+0x9150>
    a3d7:	8b 0c 87             	mov    ecx,DWORD PTR [rdi+rax*4]
    a3da:	88 0c 06             	mov    BYTE PTR [rsi+rax*1],cl
    a3dd:	8d 48 01             	lea    ecx,[rax+0x1]
    a3e0:	83 f9 3f             	cmp    ecx,0x3f
    a3e3:	0f 8f ac 00 00 00    	jg     a495 <__sprintf_chk@plt+0x9145>
    a3e9:	48 ff c0             	inc    rax
    a3ec:	83 fa 01             	cmp    edx,0x1
    a3ef:	74 e6                	je     a3d7 <__sprintf_chk@plt+0x9087>
    a3f1:	83 fa 02             	cmp    edx,0x2
    a3f4:	74 39                	je     a42f <__sprintf_chk@plt+0x90df>
    a3f6:	83 fa 03             	cmp    edx,0x3
    a3f9:	74 3f                	je     a43a <__sprintf_chk@plt+0x90ea>
    a3fb:	83 fa 04             	cmp    edx,0x4
    a3fe:	74 40                	je     a440 <__sprintf_chk@plt+0x90f0>
    a400:	83 fa 0b             	cmp    edx,0xb
    a403:	74 47                	je     a44c <__sprintf_chk@plt+0x90fc>
    a405:	83 fa 0c             	cmp    edx,0xc
    a408:	74 48                	je     a452 <__sprintf_chk@plt+0x9102>
    a40a:	83 fa 07             	cmp    edx,0x7
    a40d:	74 5f                	je     a46e <__sprintf_chk@plt+0x911e>
    a40f:	83 fa 08             	cmp    edx,0x8
    a412:	74 62                	je     a476 <__sprintf_chk@plt+0x9126>
    a414:	83 fa 09             	cmp    edx,0x9
    a417:	74 6b                	je     a484 <__sprintf_chk@plt+0x9134>
    a419:	44 89 d9             	mov    ecx,r11d
    a41c:	83 fa 0a             	cmp    edx,0xa
    a41f:	75 b9                	jne    a3da <__sprintf_chk@plt+0x908a>
    a421:	49 63 0c 80          	movsxd rcx,DWORD PTR [r8+rax*4]
    a425:	8b 4c 8d 00          	mov    ecx,DWORD PTR [rbp+rcx*4+0x0]
    a429:	d1 f9                	sar    ecx,1
    a42b:	f7 d9                	neg    ecx
    a42d:	eb ab                	jmp    a3da <__sprintf_chk@plt+0x908a>
    a42f:	49 63 0c 80          	movsxd rcx,DWORD PTR [r8+rax*4]
    a433:	8b 0c 8f             	mov    ecx,DWORD PTR [rdi+rcx*4]
    a436:	f7 d9                	neg    ecx
    a438:	eb a0                	jmp    a3da <__sprintf_chk@plt+0x908a>
    a43a:	41 8b 0c 81          	mov    ecx,DWORD PTR [r9+rax*4]
    a43e:	eb 9a                	jmp    a3da <__sprintf_chk@plt+0x908a>
    a440:	49 63 0c 80          	movsxd rcx,DWORD PTR [r8+rax*4]
    a444:	41 8b 0c 89          	mov    ecx,DWORD PTR [r9+rcx*4]
    a448:	f7 d9                	neg    ecx
    a44a:	eb 8e                	jmp    a3da <__sprintf_chk@plt+0x908a>
    a44c:	41 8b 0c 82          	mov    ecx,DWORD PTR [r10+rax*4]
    a450:	eb 88                	jmp    a3da <__sprintf_chk@plt+0x908a>
    a452:	49 63 0c 80          	movsxd rcx,DWORD PTR [r8+rax*4]
    a456:	41 8b 0c 8a          	mov    ecx,DWORD PTR [r10+rcx*4]
    a45a:	f7 d9                	neg    ecx
    a45c:	88 0c 06             	mov    BYTE PTR [rsi+rax*1],cl
    a45f:	8d 48 01             	lea    ecx,[rax+0x1]
    a462:	83 f9 3f             	cmp    ecx,0x3f
    a465:	7e 82                	jle    a3e9 <__sprintf_chk@plt+0x9099>
    a467:	48 83 c4 08          	add    rsp,0x8
    a46b:	5b                   	pop    rbx
    a46c:	5d                   	pop    rbp
    a46d:	c3                   	ret    
    a46e:	8b 0c 83             	mov    ecx,DWORD PTR [rbx+rax*4]
    a471:	e9 64 ff ff ff       	jmp    a3da <__sprintf_chk@plt+0x908a>
    a476:	49 63 0c 80          	movsxd rcx,DWORD PTR [r8+rax*4]
    a47a:	8b 0c 8b             	mov    ecx,DWORD PTR [rbx+rcx*4]
    a47d:	f7 d9                	neg    ecx
    a47f:	e9 56 ff ff ff       	jmp    a3da <__sprintf_chk@plt+0x908a>
    a484:	b9 01 00 00 00       	mov    ecx,0x1
    a489:	c4 e2 72 f7 4c 85 00 	sarx   ecx,DWORD PTR [rbp+rax*4+0x0],ecx
    a490:	e9 45 ff ff ff       	jmp    a3da <__sprintf_chk@plt+0x908a>
    a495:	ff c2                	inc    edx
    a497:	48 83 c6 40          	add    rsi,0x40
    a49b:	83 fa 0d             	cmp    edx,0xd
    a49e:	74 c7                	je     a467 <__sprintf_chk@plt+0x9117>
    a4a0:	b8 00 00 00 00       	mov    eax,0x0
    a4a5:	41 bb 00 00 00 00    	mov    r11d,0x0
    a4ab:	48 8d 3d 0e 82 00 00 	lea    rdi,[rip+0x820e]        # 126c0 <__sprintf_chk@plt+0x11370>
    a4b2:	e9 35 ff ff ff       	jmp    a3ec <__sprintf_chk@plt+0x909c>
    a4b7:	89 f0                	mov    eax,esi
    a4b9:	c1 f8 13             	sar    eax,0x13
    a4bc:	83 e0 0f             	and    eax,0xf
    a4bf:	83 f8 0d             	cmp    eax,0xd
    a4c2:	74 01                	je     a4c5 <__sprintf_chk@plt+0x9175>
    a4c4:	c3                   	ret    
    a4c5:	41 89 f0             	mov    r8d,esi
    a4c8:	41 c1 f8 0c          	sar    r8d,0xc
    a4cc:	41 83 e0 0f          	and    r8d,0xf
    a4d0:	75 f2                	jne    a4c4 <__sprintf_chk@plt+0x9174>
    a4d2:	41 57                	push   r15
    a4d4:	41 56                	push   r14
    a4d6:	41 55                	push   r13
    a4d8:	41 54                	push   r12
    a4da:	55                   	push   rbp
    a4db:	53                   	push   rbx
    a4dc:	89 f0                	mov    eax,esi
    a4de:	c1 f8 06             	sar    eax,0x6
    a4e1:	83 e0 3f             	and    eax,0x3f
    a4e4:	44 8b 64 87 04       	mov    r12d,DWORD PTR [rdi+rax*4+0x4]
    a4e9:	41 ff cc             	dec    r12d
    a4ec:	41 89 f5             	mov    r13d,esi
    a4ef:	41 83 e5 3f          	and    r13d,0x3f
    a4f3:	8d 6a 06             	lea    ebp,[rdx+0x6]
    a4f6:	83 c2 03             	add    edx,0x3
    a4f9:	0f 48 d5             	cmovs  edx,ebp
    a4fc:	c1 fa 02             	sar    edx,0x2
    a4ff:	89 d5                	mov    ebp,edx
    a501:	4c 8d 15 98 78 b2 00 	lea    r10,[rip+0xb27898]        # b31da0 <stdin@@GLIBC_2.2.5+0xb1ad70>
    a508:	89 f2                	mov    edx,esi
    a50a:	83 e2 3f             	and    edx,0x3f
    a50d:	4c 63 1f             	movsxd r11,DWORD PTR [rdi]
    a510:	49 63 c4             	movsxd rax,r12d
    a513:	4f 8d 0c 1b          	lea    r9,[r11+r11*1]
    a517:	4b 8d 0c 19          	lea    rcx,[r9+r11*1]
    a51b:	48 8d 0c 88          	lea    rcx,[rax+rcx*4]
    a51f:	48 c1 e1 06          	shl    rcx,0x6
    a523:	48 01 d1             	add    rcx,rdx
    a526:	89 eb                	mov    ebx,ebp
    a528:	41 03 1c 8a          	add    ebx,DWORD PTR [r10+rcx*4]
    a52c:	41 89 1c 8a          	mov    DWORD PTR [r10+rcx*4],ebx
    a530:	4c 8d 15 69 18 b2 00 	lea    r10,[rip+0xb21869]        # b2bda0 <stdin@@GLIBC_2.2.5+0xb14d70>
    a537:	4c 63 1f             	movsxd r11,DWORD PTR [rdi]
    a53a:	4f 8d 0c 1b          	lea    r9,[r11+r11*1]
    a53e:	4b 8d 0c 19          	lea    rcx,[r9+r11*1]
    a542:	48 8d 0c 88          	lea    rcx,[rax+rcx*4]
    a546:	48 c1 e1 06          	shl    rcx,0x6
    a54a:	48 01 d1             	add    rcx,rdx
    a54d:	89 eb                	mov    ebx,ebp
    a54f:	41 03 1c 8a          	add    ebx,DWORD PTR [r10+rcx*4]
    a553:	41 89 1c 8a          	mov    DWORD PTR [r10+rcx*4],ebx
    a557:	48 63 0f             	movsxd rcx,DWORD PTR [rdi]
    a55a:	48 8d 0c 49          	lea    rcx,[rcx+rcx*2]
    a55e:	48 8d 04 88          	lea    rax,[rax+rcx*4]
    a562:	48 c1 e0 06          	shl    rax,0x6
    a566:	48 01 d0             	add    rax,rdx
    a569:	41 81 3c 82 00 40 00 	cmp    DWORD PTR [r10+rax*4],0x4000
    a570:	00 
    a571:	7e 67                	jle    a5da <__sprintf_chk@plt+0x928a>
    a573:	44 89 c3             	mov    ebx,r8d
    a576:	4c 8d 1d 23 78 b2 00 	lea    r11,[rip+0xb27823]        # b31da0 <stdin@@GLIBC_2.2.5+0xb1ad70>
    a57d:	45 89 c1             	mov    r9d,r8d
    a580:	48 63 cb             	movsxd rcx,ebx
    a583:	4d 63 f1             	movsxd r14,r9d
    a586:	4c 63 3f             	movsxd r15,DWORD PTR [rdi]
    a589:	4b 8d 14 3f          	lea    rdx,[r15+r15*1]
    a58d:	4a 8d 04 3a          	lea    rax,[rdx+r15*1]
    a591:	48 8d 04 81          	lea    rax,[rcx+rax*4]
    a595:	48 c1 e0 06          	shl    rax,0x6
    a599:	4c 01 f0             	add    rax,r14
    a59c:	41 8b 14 83          	mov    edx,DWORD PTR [r11+rax*4]
    a5a0:	ff c2                	inc    edx
    a5a2:	d1 fa                	sar    edx,1
    a5a4:	41 89 14 83          	mov    DWORD PTR [r11+rax*4],edx
    a5a8:	4c 63 3f             	movsxd r15,DWORD PTR [rdi]
    a5ab:	4b 8d 14 3f          	lea    rdx,[r15+r15*1]
    a5af:	4a 8d 04 3a          	lea    rax,[rdx+r15*1]
    a5b3:	48 8d 04 81          	lea    rax,[rcx+rax*4]
    a5b7:	48 c1 e0 06          	shl    rax,0x6
    a5bb:	4c 01 f0             	add    rax,r14
    a5be:	41 8b 14 82          	mov    edx,DWORD PTR [r10+rax*4]
    a5c2:	ff c2                	inc    edx
    a5c4:	d1 fa                	sar    edx,1
    a5c6:	41 89 14 82          	mov    DWORD PTR [r10+rax*4],edx
    a5ca:	41 ff c1             	inc    r9d
    a5cd:	41 83 f9 40          	cmp    r9d,0x40
    a5d1:	75 b0                	jne    a583 <__sprintf_chk@plt+0x9233>
    a5d3:	ff c3                	inc    ebx
    a5d5:	83 fb 0c             	cmp    ebx,0xc
    a5d8:	75 a3                	jne    a57d <__sprintf_chk@plt+0x922d>
    a5da:	48 8d 0d bf d7 b2 00 	lea    rcx,[rip+0xb2d7bf]        # b37da0 <stdin@@GLIBC_2.2.5+0xb20d70>
    a5e1:	4d 63 ed             	movsxd r13,r13d
    a5e4:	4c 63 0f             	movsxd r9,DWORD PTR [rdi]
    a5e7:	4d 63 e4             	movsxd r12,r12d
    a5ea:	4b 8d 14 09          	lea    rdx,[r9+r9*1]
    a5ee:	4a 8d 04 0a          	lea    rax,[rdx+r9*1]
    a5f2:	49 8d 04 84          	lea    rax,[r12+rax*4]
    a5f6:	48 c1 e0 06          	shl    rax,0x6
    a5fa:	4c 01 e8             	add    rax,r13
    a5fd:	03 2c 81             	add    ebp,DWORD PTR [rcx+rax*4]
    a600:	89 2c 81             	mov    DWORD PTR [rcx+rax*4],ebp
    a603:	48 63 07             	movsxd rax,DWORD PTR [rdi]
    a606:	48 8d 04 40          	lea    rax,[rax+rax*2]
    a60a:	49 8d 04 84          	lea    rax,[r12+rax*4]
    a60e:	48 c1 e0 06          	shl    rax,0x6
    a612:	4c 01 e8             	add    rax,r13
    a615:	81 3c 81 20 a1 07 00 	cmp    DWORD PTR [rcx+rax*4],0x7a120
    a61c:	7e 42                	jle    a660 <__sprintf_chk@plt+0x9310>
    a61e:	44 89 c3             	mov    ebx,r8d
    a621:	49 89 cb             	mov    r11,rcx
    a624:	45 89 c1             	mov    r9d,r8d
    a627:	4c 63 d3             	movsxd r10,ebx
    a62a:	4d 63 e1             	movsxd r12,r9d
    a62d:	48 63 2f             	movsxd rbp,DWORD PTR [rdi]
    a630:	48 8d 4c 2d 00       	lea    rcx,[rbp+rbp*1+0x0]
    a635:	48 8d 04 29          	lea    rax,[rcx+rbp*1]
    a639:	49 8d 04 82          	lea    rax,[r10+rax*4]
    a63d:	48 c1 e0 06          	shl    rax,0x6
    a641:	4c 01 e0             	add    rax,r12
    a644:	41 8b 14 83          	mov    edx,DWORD PTR [r11+rax*4]
    a648:	ff c2                	inc    edx
    a64a:	d1 fa                	sar    edx,1
    a64c:	41 89 14 83          	mov    DWORD PTR [r11+rax*4],edx
    a650:	41 ff c1             	inc    r9d
    a653:	41 83 f9 40          	cmp    r9d,0x40
    a657:	75 d1                	jne    a62a <__sprintf_chk@plt+0x92da>
    a659:	ff c3                	inc    ebx
    a65b:	83 fb 0c             	cmp    ebx,0xc
    a65e:	75 c4                	jne    a624 <__sprintf_chk@plt+0x92d4>
    a660:	48 63 87 d8 01 00 00 	movsxd rax,DWORD PTR [rdi+0x1d8]
    a667:	48 c1 e0 04          	shl    rax,0x4
    a66b:	48 01 c7             	add    rdi,rax
    a66e:	8b 87 f0 0b 00 00    	mov    eax,DWORD PTR [rdi+0xbf0]
    a674:	39 c6                	cmp    esi,eax
    a676:	74 2c                	je     a6a4 <__sprintf_chk@plt+0x9354>
    a678:	8b 97 f4 0b 00 00    	mov    edx,DWORD PTR [rdi+0xbf4]
    a67e:	39 d6                	cmp    esi,edx
    a680:	74 16                	je     a698 <__sprintf_chk@plt+0x9348>
    a682:	8b 8f f8 0b 00 00    	mov    ecx,DWORD PTR [rdi+0xbf8]
    a688:	39 ce                	cmp    esi,ecx
    a68a:	74 06                	je     a692 <__sprintf_chk@plt+0x9342>
    a68c:	89 8f fc 0b 00 00    	mov    DWORD PTR [rdi+0xbfc],ecx
    a692:	89 97 f8 0b 00 00    	mov    DWORD PTR [rdi+0xbf8],edx
    a698:	89 87 f4 0b 00 00    	mov    DWORD PTR [rdi+0xbf4],eax
    a69e:	89 b7 f0 0b 00 00    	mov    DWORD PTR [rdi+0xbf0],esi
    a6a4:	5b                   	pop    rbx
    a6a5:	5d                   	pop    rbp
    a6a6:	41 5c                	pop    r12
    a6a8:	41 5d                	pop    r13
    a6aa:	41 5e                	pop    r14
    a6ac:	41 5f                	pop    r15
    a6ae:	c3                   	ret    
    a6af:	8b 07                	mov    eax,DWORD PTR [rdi]
    a6b1:	ff c0                	inc    eax
    a6b3:	89 07                	mov    DWORD PTR [rdi],eax
    a6b5:	83 f8 09             	cmp    eax,0x9
    a6b8:	7f 29                	jg     a6e3 <__sprintf_chk@plt+0x9393>
    a6ba:	39 c8                	cmp    eax,ecx
    a6bc:	7d 69                	jge    a727 <__sprintf_chk@plt+0x93d7>
    a6be:	4c 63 c0             	movsxd r8,eax
    a6c1:	4c 89 c0             	mov    rax,r8
    a6c4:	41 b9 c0 bd f0 ff    	mov    r9d,0xfff0bdc0
    a6ca:	eb 07                	jmp    a6d3 <__sprintf_chk@plt+0x9383>
    a6cc:	48 ff c0             	inc    rax
    a6cf:	39 c1                	cmp    ecx,eax
    a6d1:	7e 19                	jle    a6ec <__sprintf_chk@plt+0x939c>
    a6d3:	8b 3c 86             	mov    edi,DWORD PTR [rsi+rax*4]
    a6d6:	44 39 cf             	cmp    edi,r9d
    a6d9:	7e f1                	jle    a6cc <__sprintf_chk@plt+0x937c>
    a6db:	41 89 c2             	mov    r10d,eax
    a6de:	41 89 f9             	mov    r9d,edi
    a6e1:	eb e9                	jmp    a6cc <__sprintf_chk@plt+0x937c>
    a6e3:	39 c8                	cmp    eax,ecx
    a6e5:	0f 9c c0             	setl   al
    a6e8:	0f b6 c0             	movzx  eax,al
    a6eb:	c3                   	ret    
    a6ec:	b8 00 00 00 00       	mov    eax,0x0
    a6f1:	41 81 f9 c1 bd f0 ff 	cmp    r9d,0xfff0bdc1
    a6f8:	7c 32                	jl     a72c <__sprintf_chk@plt+0x93dc>
    a6fa:	4a 8d 04 85 00 00 00 	lea    rax,[r8*4+0x0]
    a701:	00 
    a702:	48 8d 0c 06          	lea    rcx,[rsi+rax*1]
    a706:	4d 63 d2             	movsxd r10,r10d
    a709:	8b 39                	mov    edi,DWORD PTR [rcx]
    a70b:	42 89 3c 96          	mov    DWORD PTR [rsi+r10*4],edi
    a70f:	44 89 09             	mov    DWORD PTR [rcx],r9d
    a712:	48 01 d0             	add    rax,rdx
    a715:	8b 08                	mov    ecx,DWORD PTR [rax]
    a717:	4a 8d 14 92          	lea    rdx,[rdx+r10*4]
    a71b:	8b 32                	mov    esi,DWORD PTR [rdx]
    a71d:	89 30                	mov    DWORD PTR [rax],esi
    a71f:	89 0a                	mov    DWORD PTR [rdx],ecx
    a721:	b8 01 00 00 00       	mov    eax,0x1
    a726:	c3                   	ret    
    a727:	b8 00 00 00 00       	mov    eax,0x0
    a72c:	c3                   	ret    
    a72d:	55                   	push   rbp
    a72e:	53                   	push   rbx
    a72f:	48 83 ec 08          	sub    rsp,0x8
    a733:	8b 15 93 36 b3 00    	mov    edx,DWORD PTR [rip+0xb33693]        # b3ddcc <stdin@@GLIBC_2.2.5+0xb26d9c>
    a739:	b8 01 00 00 00       	mov    eax,0x1
    a73e:	c4 e2 69 f7 c0       	shlx   eax,eax,edx
    a743:	ff c8                	dec    eax
    a745:	48 98                	cdqe   
    a747:	bb 00 00 00 00       	mov    ebx,0x0
    a74c:	48 85 87 f0 0f 00 00 	test   QWORD PTR [rdi+0xff0],rax
    a753:	74 09                	je     a75e <__sprintf_chk@plt+0x940e>
    a755:	89 d8                	mov    eax,ebx
    a757:	48 83 c4 08          	add    rsp,0x8
    a75b:	5b                   	pop    rbx
    a75c:	5d                   	pop    rbp
    a75d:	c3                   	ret    
    a75e:	e8 b1 72 00 00       	call   11a14 <__sprintf_chk@plt+0x106c4>
    a763:	89 c3                	mov    ebx,eax
    a765:	85 c0                	test   eax,eax
    a767:	74 11                	je     a77a <__sprintf_chk@plt+0x942a>
    a769:	c7 05 cd c9 b7 00 01 	mov    DWORD PTR [rip+0xb7c9cd],0x1        # b87140 <stdin@@GLIBC_2.2.5+0xb70110>
    a770:	00 00 00 
    a773:	bb 01 00 00 00       	mov    ebx,0x1
    a778:	eb db                	jmp    a755 <__sprintf_chk@plt+0x9405>
    a77a:	8b 2d a8 c9 b7 00    	mov    ebp,DWORD PTR [rip+0xb7c9a8]        # b87128 <stdin@@GLIBC_2.2.5+0xb700f8>
    a780:	e8 10 6f 00 00       	call   11695 <__sprintf_chk@plt+0x10345>
    a785:	89 c7                	mov    edi,eax
    a787:	89 ee                	mov    esi,ebp
    a789:	e8 ab 5b 00 00       	call   10339 <__sprintf_chk@plt+0xefe9>
    a78e:	89 c2                	mov    edx,eax
    a790:	8b 05 da 3c b7 00    	mov    eax,DWORD PTR [rip+0xb73cda]        # b7e470 <stdin@@GLIBC_2.2.5+0xb67440>
    a796:	39 d0                	cmp    eax,edx
    a798:	7f bb                	jg     a755 <__sprintf_chk@plt+0x9405>
    a79a:	83 3d b3 3c b7 00 02 	cmp    DWORD PTR [rip+0xb73cb3],0x2        # b7e454 <stdin@@GLIBC_2.2.5+0xb67424>
    a7a1:	7e b2                	jle    a755 <__sprintf_chk@plt+0x9405>
    a7a3:	83 3d 8a c9 b7 00 01 	cmp    DWORD PTR [rip+0xb7c98a],0x1        # b87134 <stdin@@GLIBC_2.2.5+0xb70104>
    a7aa:	74 45                	je     a7f1 <__sprintf_chk@plt+0x94a1>
    a7ac:	48 83 3d 84 c9 b7 00 	cmp    QWORD PTR [rip+0xb7c984],0x1        # b87138 <stdin@@GLIBC_2.2.5+0xb70108>
    a7b3:	01 
    a7b4:	75 27                	jne    a7dd <__sprintf_chk@plt+0x948d>
    a7b6:	83 3d b7 3c b7 00 00 	cmp    DWORD PTR [rip+0xb73cb7],0x0        # b7e474 <stdin@@GLIBC_2.2.5+0xb67444>
    a7bd:	75 1e                	jne    a7dd <__sprintf_chk@plt+0x948d>
    a7bf:	8d 04 40             	lea    eax,[rax+rax*2]
    a7c2:	01 c0                	add    eax,eax
    a7c4:	3d e8 03 00 00       	cmp    eax,0x3e8
    a7c9:	ba e8 03 00 00       	mov    edx,0x3e8
    a7ce:	0f 4c c2             	cmovl  eax,edx
    a7d1:	39 05 91 3c b7 00    	cmp    DWORD PTR [rip+0xb73c91],eax        # b7e468 <stdin@@GLIBC_2.2.5+0xb67438>
    a7d7:	0f 8f f4 00 00 00    	jg     a8d1 <__sprintf_chk@plt+0x9581>
    a7dd:	c7 05 59 c9 b7 00 01 	mov    DWORD PTR [rip+0xb7c959],0x1        # b87140 <stdin@@GLIBC_2.2.5+0xb70110>
    a7e4:	00 00 00 
    a7e7:	bb 01 00 00 00       	mov    ebx,0x1
    a7ec:	e9 64 ff ff ff       	jmp    a755 <__sprintf_chk@plt+0x9405>
    a7f1:	8b 15 45 c9 b7 00    	mov    edx,DWORD PTR [rip+0xb7c945]        # b8713c <stdin@@GLIBC_2.2.5+0xb7010c>
    a7f7:	83 fa 02             	cmp    edx,0x2
    a7fa:	74 b0                	je     a7ac <__sprintf_chk@plt+0x945c>
    a7fc:	8b 2d 72 3c b7 00    	mov    ebp,DWORD PTR [rip+0xb73c72]        # b7e474 <stdin@@GLIBC_2.2.5+0xb67444>
    a802:	85 ed                	test   ebp,ebp
    a804:	75 d7                	jne    a7dd <__sprintf_chk@plt+0x948d>
    a806:	8d 0c c5 00 00 00 00 	lea    ecx,[rax*8+0x0]
    a80d:	29 c1                	sub    ecx,eax
    a80f:	81 f9 e8 03 00 00    	cmp    ecx,0x3e8
    a815:	be e8 03 00 00       	mov    esi,0x3e8
    a81a:	0f 4c ce             	cmovl  ecx,esi
    a81d:	39 0d 45 3c b7 00    	cmp    DWORD PTR [rip+0xb73c45],ecx        # b7e468 <stdin@@GLIBC_2.2.5+0xb67438>
    a823:	7f 0c                	jg     a831 <__sprintf_chk@plt+0x94e1>
    a825:	48 83 3d 0b c9 b7 00 	cmp    QWORD PTR [rip+0xb7c90b],0x1        # b87138 <stdin@@GLIBC_2.2.5+0xb70108>
    a82c:	01 
    a82d:	74 90                	je     a7bf <__sprintf_chk@plt+0x946f>
    a82f:	eb ac                	jmp    a7dd <__sprintf_chk@plt+0x948d>
    a831:	85 d2                	test   edx,edx
    a833:	74 69                	je     a89e <__sprintf_chk@plt+0x954e>
    a835:	be 01 00 00 00       	mov    esi,0x1
    a83a:	48 8d 3d ff 3b b7 00 	lea    rdi,[rip+0xb73bff]        # b7e440 <stdin@@GLIBC_2.2.5+0xb67410>
    a841:	e8 00 4d 00 00       	call   f546 <__sprintf_chk@plt+0xe1f6>
    a846:	48 8d 1d f3 3b b7 00 	lea    rbx,[rip+0xb73bf3]        # b7e440 <stdin@@GLIBC_2.2.5+0xb67410>
    a84d:	01 05 1d 3c b7 00    	add    DWORD PTR [rip+0xb73c1d],eax        # b7e470 <stdin@@GLIBC_2.2.5+0xb67440>
    a853:	be 01 00 00 00       	mov    esi,0x1
    a858:	48 89 df             	mov    rdi,rbx
    a85b:	e8 e6 4c 00 00       	call   f546 <__sprintf_chk@plt+0xe1f6>
    a860:	01 05 0a 3c b7 00    	add    DWORD PTR [rip+0xb73c0a],eax        # b7e470 <stdin@@GLIBC_2.2.5+0xb67440>
    a866:	be 01 00 00 00       	mov    esi,0x1
    a86b:	48 89 df             	mov    rdi,rbx
    a86e:	e8 d3 4c 00 00       	call   f546 <__sprintf_chk@plt+0xe1f6>
    a873:	03 05 f7 3b b7 00    	add    eax,DWORD PTR [rip+0xb73bf7]        # b7e470 <stdin@@GLIBC_2.2.5+0xb67440>
    a879:	8b 0d e9 3b b7 00    	mov    ecx,DWORD PTR [rip+0xb73be9]        # b7e468 <stdin@@GLIBC_2.2.5+0xb67438>
    a87f:	8d 51 ce             	lea    edx,[rcx-0x32]
    a882:	39 d0                	cmp    eax,edx
    a884:	0f 4f c2             	cmovg  eax,edx
    a887:	89 05 e3 3b b7 00    	mov    DWORD PTR [rip+0xb73be3],eax        # b7e470 <stdin@@GLIBC_2.2.5+0xb67440>
    a88d:	c7 05 a5 c8 b7 00 02 	mov    DWORD PTR [rip+0xb7c8a5],0x2        # b8713c <stdin@@GLIBC_2.2.5+0xb7010c>
    a894:	00 00 00 
    a897:	89 eb                	mov    ebx,ebp
    a899:	e9 b7 fe ff ff       	jmp    a755 <__sprintf_chk@plt+0x9405>
    a89e:	be 01 00 00 00       	mov    esi,0x1
    a8a3:	48 8d 3d 96 3b b7 00 	lea    rdi,[rip+0xb73b96]        # b7e440 <stdin@@GLIBC_2.2.5+0xb67410>
    a8aa:	e8 97 4c 00 00       	call   f546 <__sprintf_chk@plt+0xe1f6>
    a8af:	01 05 bb 3b b7 00    	add    DWORD PTR [rip+0xb73bbb],eax        # b7e470 <stdin@@GLIBC_2.2.5+0xb67440>
    a8b5:	be 01 00 00 00       	mov    esi,0x1
    a8ba:	48 8d 3d 7f 3b b7 00 	lea    rdi,[rip+0xb73b7f]        # b7e440 <stdin@@GLIBC_2.2.5+0xb67410>
    a8c1:	e8 80 4c 00 00       	call   f546 <__sprintf_chk@plt+0xe1f6>
    a8c6:	01 05 a4 3b b7 00    	add    DWORD PTR [rip+0xb73ba4],eax        # b7e470 <stdin@@GLIBC_2.2.5+0xb67440>
    a8cc:	e9 64 ff ff ff       	jmp    a835 <__sprintf_chk@plt+0x94e5>
    a8d1:	48 8d 2d 68 3b b7 00 	lea    rbp,[rip+0xb73b68]        # b7e440 <stdin@@GLIBC_2.2.5+0xb67410>
    a8d8:	c7 05 5a c8 b7 00 01 	mov    DWORD PTR [rip+0xb7c85a],0x1        # b8713c <stdin@@GLIBC_2.2.5+0xb7010c>
    a8df:	00 00 00 
    a8e2:	be 01 00 00 00       	mov    esi,0x1
    a8e7:	48 89 ef             	mov    rdi,rbp
    a8ea:	e8 57 4c 00 00       	call   f546 <__sprintf_chk@plt+0xe1f6>
    a8ef:	01 05 7b 3b b7 00    	add    DWORD PTR [rip+0xb73b7b],eax        # b7e470 <stdin@@GLIBC_2.2.5+0xb67440>
    a8f5:	be 01 00 00 00       	mov    esi,0x1
    a8fa:	48 89 ef             	mov    rdi,rbp
    a8fd:	e8 44 4c 00 00       	call   f546 <__sprintf_chk@plt+0xe1f6>
    a902:	03 05 68 3b b7 00    	add    eax,DWORD PTR [rip+0xb73b68]        # b7e470 <stdin@@GLIBC_2.2.5+0xb67440>
    a908:	8b 0d 5a 3b b7 00    	mov    ecx,DWORD PTR [rip+0xb73b5a]        # b7e468 <stdin@@GLIBC_2.2.5+0xb67438>
    a90e:	8d 51 ce             	lea    edx,[rcx-0x32]
    a911:	39 d0                	cmp    eax,edx
    a913:	0f 4f c2             	cmovg  eax,edx
    a916:	89 05 54 3b b7 00    	mov    DWORD PTR [rip+0xb73b54],eax        # b7e470 <stdin@@GLIBC_2.2.5+0xb67440>
    a91c:	e9 34 fe ff ff       	jmp    a755 <__sprintf_chk@plt+0x9405>
    a921:	41 57                	push   r15
    a923:	41 56                	push   r14
    a925:	41 55                	push   r13
    a927:	41 54                	push   r12
    a929:	55                   	push   rbp
    a92a:	53                   	push   rbx
    a92b:	48 83 ec 38          	sub    rsp,0x38
    a92f:	48 89 54 24 08       	mov    QWORD PTR [rsp+0x8],rdx
    a934:	89 4c 24 28          	mov    DWORD PTR [rsp+0x28],ecx
    a938:	44 89 44 24 1c       	mov    DWORD PTR [rsp+0x1c],r8d
    a93d:	85 c9                	test   ecx,ecx
    a93f:	0f 8e 57 04 00 00    	jle    ad9c <__sprintf_chk@plt+0x9a4c>
    a945:	49 89 fe             	mov    r14,rdi
    a948:	49 89 f5             	mov    r13,rsi
    a94b:	8d 41 ff             	lea    eax,[rcx-0x1]
    a94e:	48 89 44 24 10       	mov    QWORD PTR [rsp+0x10],rax
    a953:	41 bf 00 00 00 00    	mov    r15d,0x0
    a959:	e9 5a 02 00 00       	jmp    abb8 <__sprintf_chk@plt+0x9868>
    a95e:	83 3d ef 3a b7 00 02 	cmp    DWORD PTR [rip+0xb73aef],0x2        # b7e454 <stdin@@GLIBC_2.2.5+0xb67424>
    a965:	0f 8e aa 02 00 00    	jle    ac15 <__sprintf_chk@plt+0x98c5>
    a96b:	48 8d 05 4e f8 b9 00 	lea    rax,[rip+0xb9f84e]        # baa1c0 <stdin@@GLIBC_2.2.5+0xb93190>
    a972:	42 8b 04 b8          	mov    eax,DWORD PTR [rax+r15*4]
    a976:	89 04 24             	mov    DWORD PTR [rsp],eax
    a979:	05 a0 86 01 00       	add    eax,0x186a0
    a97e:	48 8b 7c 24 08       	mov    rdi,QWORD PTR [rsp+0x8]
    a983:	42 89 04 bf          	mov    DWORD PTR [rdi+r15*4],eax
    a987:	e9 1a 02 00 00       	jmp    aba6 <__sprintf_chk@plt+0x9856>
    a98c:	48 98                	cdqe   
    a98e:	41 83 bc 86 04 10 00 	cmp    DWORD PTR [r14+rax*4+0x1004],0x0
    a995:	00 00 
    a997:	0f 85 78 02 00 00    	jne    ac15 <__sprintf_chk@plt+0x98c5>
    a99d:	8b 3d 45 36 b3 00    	mov    edi,DWORD PTR [rip+0xb33645]        # b3dfe8 <stdin@@GLIBC_2.2.5+0xb26fb8>
    a9a3:	e8 e2 4a 00 00       	call   f48a <__sprintf_chk@plt+0xe13a>
    a9a8:	83 f8 63             	cmp    eax,0x63
    a9ab:	0f 8f 64 02 00 00    	jg     ac15 <__sprintf_chk@plt+0x98c5>
    a9b1:	8b 3d 31 36 b3 00    	mov    edi,DWORD PTR [rip+0xb33631]        # b3dfe8 <stdin@@GLIBC_2.2.5+0xb26fb8>
    a9b7:	e8 ce 4a 00 00       	call   f48a <__sprintf_chk@plt+0xe13a>
    a9bc:	41 89 c4             	mov    r12d,eax
    a9bf:	e8 d4 72 00 00       	call   11c98 <__sprintf_chk@plt+0x10948>
    a9c4:	89 c2                	mov    edx,eax
    a9c6:	48 69 d2 1f 85 eb 51 	imul   rdx,rdx,0x51eb851f
    a9cd:	48 c1 ea 26          	shr    rdx,0x26
    a9d1:	69 d2 c8 00 00 00    	imul   edx,edx,0xc8
    a9d7:	29 d0                	sub    eax,edx
    a9d9:	89 44 24 2c          	mov    DWORD PTR [rsp+0x2c],eax
    a9dd:	83 7c 24 28 05       	cmp    DWORD PTR [rsp+0x28],0x5
    a9e2:	0f 8f 37 01 00 00    	jg     ab1f <__sprintf_chk@plt+0x97cf>
    a9e8:	b8 14 00 00 00       	mov    eax,0x14
    a9ed:	44 29 e0             	sub    eax,r12d
    a9f0:	8b 15 5e 3a b7 00    	mov    edx,DWORD PTR [rip+0xb73a5e]        # b7e454 <stdin@@GLIBC_2.2.5+0xb67424>
    a9f6:	89 c1                	mov    ecx,eax
    a9f8:	29 d0                	sub    eax,edx
    a9fa:	8d 40 05             	lea    eax,[rax+0x5]
    a9fd:	83 fa 05             	cmp    edx,0x5
    aa00:	0f 4d c1             	cmovge eax,ecx
    aa03:	41 8b 96 d8 01 00 00 	mov    edx,DWORD PTR [r14+0x1d8]
    aa0a:	8d 04 50             	lea    eax,[rax+rdx*2]
    aa0d:	45 8b a6 ac 01 00 00 	mov    r12d,DWORD PTR [r14+0x1ac]
    aa14:	45 03 a6 b4 01 00 00 	add    r12d,DWORD PTR [r14+0x1b4]
    aa1b:	45 03 a6 bc 01 00 00 	add    r12d,DWORD PTR [r14+0x1bc]
    aa22:	45 03 a6 9c 01 00 00 	add    r12d,DWORD PTR [r14+0x19c]
    aa29:	45 03 a6 b8 01 00 00 	add    r12d,DWORD PTR [r14+0x1b8]
    aa30:	45 03 a6 c0 01 00 00 	add    r12d,DWORD PTR [r14+0x1c0]
    aa37:	45 03 a6 a0 01 00 00 	add    r12d,DWORD PTR [r14+0x1a0]
    aa3e:	45 03 a6 b0 01 00 00 	add    r12d,DWORD PTR [r14+0x1b0]
    aa45:	45 03 a6 94 01 00 00 	add    r12d,DWORD PTR [r14+0x194]
    aa4c:	45 03 a6 98 01 00 00 	add    r12d,DWORD PTR [r14+0x198]
    aa53:	41 01 c4             	add    r12d,eax
    aa56:	48 63 04 24          	movsxd rax,DWORD PTR [rsp]
    aa5a:	49 8d 04 86          	lea    rax,[r14+rax*4]
    aa5e:	48 89 44 24 20       	mov    QWORD PTR [rsp+0x20],rax
    aa63:	8b 40 04             	mov    eax,DWORD PTR [rax+0x4]
    aa66:	41 8d 54 24 e2       	lea    edx,[r12-0x1e]
    aa6b:	39 c5                	cmp    ebp,eax
    aa6d:	44 0f 44 e2          	cmove  r12d,edx
    aa71:	ff c8                	dec    eax
    aa73:	41 8d 54 24 e2       	lea    edx,[r12-0x1e]
    aa78:	83 f8 02             	cmp    eax,0x2
    aa7b:	44 0f 42 e2          	cmovb  r12d,edx
    aa7f:	41 8d 44 24 f6       	lea    eax,[r12-0xa]
    aa84:	83 fd 0d             	cmp    ebp,0xd
    aa87:	44 0f 45 e0          	cmovne r12d,eax
    aa8b:	83 e3 0f             	and    ebx,0xf
    aa8e:	83 eb 09             	sub    ebx,0x9
    aa91:	41 8d 44 24 e2       	lea    eax,[r12-0x1e]
    aa96:	83 fb 02             	cmp    ebx,0x2
    aa99:	44 0f 42 e0          	cmovb  r12d,eax
    aa9d:	8b 44 24 04          	mov    eax,DWORD PTR [rsp+0x4]
    aaa1:	83 f8 0d             	cmp    eax,0xd
    aaa4:	0f 87 96 00 00 00    	ja     ab40 <__sprintf_chk@plt+0x97f0>
    aaaa:	bf 01 26 00 00       	mov    edi,0x2601
    aaaf:	48 0f a3 c7          	bt     rdi,rax
    aab3:	0f 83 87 00 00 00    	jae    ab40 <__sprintf_chk@plt+0x97f0>
    aab9:	8b 74 24 18          	mov    esi,DWORD PTR [rsp+0x18]
    aabd:	8b 1c 24             	mov    ebx,DWORD PTR [rsp]
    aac0:	89 df                	mov    edi,ebx
    aac2:	e8 5d 80 ff ff       	call   2b24 <__sprintf_chk@plt+0x17d4>
    aac7:	45 8d 24 44          	lea    r12d,[r12+rax*2]
    aacb:	48 8b 44 24 20       	mov    rax,QWORD PTR [rsp+0x20]
    aad0:	8b 40 04             	mov    eax,DWORD PTR [rax+0x4]
    aad3:	83 e8 03             	sub    eax,0x3
    aad6:	41 8d 54 24 14       	lea    edx,[r12+0x14]
    aadb:	83 f8 02             	cmp    eax,0x2
    aade:	44 0f 42 e2          	cmovb  r12d,edx
    aae2:	41 83 be cc 01 00 00 	cmp    DWORD PTR [r14+0x1cc],0x0
    aae9:	00 
    aaea:	74 78                	je     ab64 <__sprintf_chk@plt+0x9814>
    aaec:	89 df                	mov    edi,ebx
    aaee:	e8 ee 7f ff ff       	call   2ae1 <__sprintf_chk@plt+0x1791>
    aaf3:	89 c3                	mov    ebx,eax
    aaf5:	8b 7c 24 18          	mov    edi,DWORD PTR [rsp+0x18]
    aaf9:	e8 e3 7f ff ff       	call   2ae1 <__sprintf_chk@plt+0x1791>
    aafe:	39 c3                	cmp    ebx,eax
    ab00:	7f 47                	jg     ab49 <__sprintf_chk@plt+0x97f9>
    ab02:	44 39 64 24 2c       	cmp    DWORD PTR [rsp+0x2c],r12d
    ab07:	0f 8f 08 01 00 00    	jg     ac15 <__sprintf_chk@plt+0x98c5>
    ab0d:	48 8b 44 24 08       	mov    rax,QWORD PTR [rsp+0x8]
    ab12:	42 c7 04 b8 c0 bd f0 	mov    DWORD PTR [rax+r15*4],0xfff0bdc0
    ab19:	ff 
    ab1a:	e9 87 00 00 00       	jmp    aba6 <__sprintf_chk@plt+0x9856>
    ab1f:	83 7c 24 28 08       	cmp    DWORD PTR [rsp+0x28],0x8
    ab24:	7e 0d                	jle    ab33 <__sprintf_chk@plt+0x97e3>
    ab26:	b8 64 00 00 00       	mov    eax,0x64
    ab2b:	44 29 e0             	sub    eax,r12d
    ab2e:	e9 bd fe ff ff       	jmp    a9f0 <__sprintf_chk@plt+0x96a0>
    ab33:	b8 28 00 00 00       	mov    eax,0x28
    ab38:	44 29 e0             	sub    eax,r12d
    ab3b:	e9 b0 fe ff ff       	jmp    a9f0 <__sprintf_chk@plt+0x96a0>
    ab40:	41 83 c4 28          	add    r12d,0x28
    ab44:	e9 70 ff ff ff       	jmp    aab9 <__sprintf_chk@plt+0x9769>
    ab49:	8b 3c 24             	mov    edi,DWORD PTR [rsp]
    ab4c:	e8 90 7f ff ff       	call   2ae1 <__sprintf_chk@plt+0x1791>
    ab51:	89 c3                	mov    ebx,eax
    ab53:	8b 7c 24 18          	mov    edi,DWORD PTR [rsp+0x18]
    ab57:	e8 85 7f ff ff       	call   2ae1 <__sprintf_chk@plt+0x1791>
    ab5c:	29 c3                	sub    ebx,eax
    ab5e:	45 8d 24 9c          	lea    r12d,[r12+rbx*4]
    ab62:	eb 9e                	jmp    ab02 <__sprintf_chk@plt+0x97b2>
    ab64:	8b 3c 24             	mov    edi,DWORD PTR [rsp]
    ab67:	e8 75 7f ff ff       	call   2ae1 <__sprintf_chk@plt+0x1791>
    ab6c:	89 c3                	mov    ebx,eax
    ab6e:	8b 7c 24 18          	mov    edi,DWORD PTR [rsp+0x18]
    ab72:	e8 6a 7f ff ff       	call   2ae1 <__sprintf_chk@plt+0x1791>
    ab77:	39 c3                	cmp    ebx,eax
    ab79:	7d 87                	jge    ab02 <__sprintf_chk@plt+0x97b2>
    ab7b:	8b 3c 24             	mov    edi,DWORD PTR [rsp]
    ab7e:	e8 5e 7f ff ff       	call   2ae1 <__sprintf_chk@plt+0x1791>
    ab83:	89 c3                	mov    ebx,eax
    ab85:	8b 7c 24 18          	mov    edi,DWORD PTR [rsp+0x18]
    ab89:	e8 53 7f ff ff       	call   2ae1 <__sprintf_chk@plt+0x1791>
    ab8e:	29 c3                	sub    ebx,eax
    ab90:	45 8d 24 9c          	lea    r12d,[r12+rbx*4]
    ab94:	e9 69 ff ff ff       	jmp    ab02 <__sprintf_chk@plt+0x97b2>
    ab99:	48 8b 44 24 08       	mov    rax,QWORD PTR [rsp+0x8]
    ab9e:	42 c7 04 b8 00 20 a1 	mov    DWORD PTR [rax+r15*4],0x7a12000
    aba5:	07 
    aba6:	49 8d 47 01          	lea    rax,[r15+0x1]
    abaa:	4c 39 7c 24 10       	cmp    QWORD PTR [rsp+0x10],r15
    abaf:	0f 84 e7 01 00 00    	je     ad9c <__sprintf_chk@plt+0x9a4c>
    abb5:	49 89 c7             	mov    r15,rax
    abb8:	43 8b 5c bd 00       	mov    ebx,DWORD PTR [r13+r15*4+0x0]
    abbd:	89 d8                	mov    eax,ebx
    abbf:	c1 f8 06             	sar    eax,0x6
    abc2:	83 e0 3f             	and    eax,0x3f
    abc5:	89 04 24             	mov    DWORD PTR [rsp],eax
    abc8:	89 d8                	mov    eax,ebx
    abca:	83 e0 3f             	and    eax,0x3f
    abcd:	89 44 24 18          	mov    DWORD PTR [rsp+0x18],eax
    abd1:	89 d8                	mov    eax,ebx
    abd3:	c1 f8 0c             	sar    eax,0xc
    abd6:	83 e0 0f             	and    eax,0xf
    abd9:	89 44 24 04          	mov    DWORD PTR [rsp+0x4],eax
    abdd:	c1 fb 13             	sar    ebx,0x13
    abe0:	89 dd                	mov    ebp,ebx
    abe2:	83 e5 0f             	and    ebp,0xf
    abe5:	83 3d f8 33 b3 00 01 	cmp    DWORD PTR [rip+0xb333f8],0x1        # b3dfe4 <stdin@@GLIBC_2.2.5+0xb26fb4>
    abec:	7e 0e                	jle    abfc <__sprintf_chk@plt+0x98ac>
    abee:	41 83 be d8 01 00 00 	cmp    DWORD PTR [r14+0x1d8],0x1
    abf5:	01 
    abf6:	0f 84 62 fd ff ff    	je     a95e <__sprintf_chk@plt+0x960e>
    abfc:	83 3d e9 33 b3 00 00 	cmp    DWORD PTR [rip+0xb333e9],0x0        # b3dfec <stdin@@GLIBC_2.2.5+0xb26fbc>
    ac03:	74 10                	je     ac15 <__sprintf_chk@plt+0x98c5>
    ac05:	41 8b 86 d8 01 00 00 	mov    eax,DWORD PTR [r14+0x1d8]
    ac0c:	83 f8 01             	cmp    eax,0x1
    ac0f:	0f 8f 77 fd ff ff    	jg     a98c <__sprintf_chk@plt+0x963c>
    ac15:	43 8b 7c bd 00       	mov    edi,DWORD PTR [r13+r15*4+0x0]
    ac1a:	e8 da 48 00 00       	call   f4f9 <__sprintf_chk@plt+0xe1a9>
    ac1f:	0f b7 c0             	movzx  eax,ax
    ac22:	3b 44 24 1c          	cmp    eax,DWORD PTR [rsp+0x1c]
    ac26:	0f 84 6d ff ff ff    	je     ab99 <__sprintf_chk@plt+0x9849>
    ac2c:	83 fd 0d             	cmp    ebp,0xd
    ac2f:	0f 85 99 00 00 00    	jne    acce <__sprintf_chk@plt+0x997e>
    ac35:	83 7c 24 04 00       	cmp    DWORD PTR [rsp+0x4],0x0
    ac3a:	0f 85 8e 00 00 00    	jne    acce <__sprintf_chk@plt+0x997e>
    ac40:	43 8b 54 bd 00       	mov    edx,DWORD PTR [r13+r15*4+0x0]
    ac45:	49 63 86 d8 01 00 00 	movsxd rax,DWORD PTR [r14+0x1d8]
    ac4c:	48 c1 e0 04          	shl    rax,0x4
    ac50:	4c 01 f0             	add    rax,r14
    ac53:	3b 90 f0 0b 00 00    	cmp    edx,DWORD PTR [rax+0xbf0]
    ac59:	0f 84 f5 00 00 00    	je     ad54 <__sprintf_chk@plt+0x9a04>
    ac5f:	3b 90 f4 0b 00 00    	cmp    edx,DWORD PTR [rax+0xbf4]
    ac65:	0f 84 fb 00 00 00    	je     ad66 <__sprintf_chk@plt+0x9a16>
    ac6b:	3b 90 f8 0b 00 00    	cmp    edx,DWORD PTR [rax+0xbf8]
    ac71:	0f 84 01 01 00 00    	je     ad78 <__sprintf_chk@plt+0x9a28>
    ac77:	3b 90 fc 0b 00 00    	cmp    edx,DWORD PTR [rax+0xbfc]
    ac7d:	0f 84 07 01 00 00    	je     ad8a <__sprintf_chk@plt+0x9a3a>
    ac83:	48 63 3c 24          	movsxd rdi,DWORD PTR [rsp]
    ac87:	41 8b 44 be 04       	mov    eax,DWORD PTR [r14+rdi*4+0x4]
    ac8c:	8d 50 ff             	lea    edx,[rax-0x1]
    ac8f:	48 63 44 24 18       	movsxd rax,DWORD PTR [rsp+0x18]
    ac94:	4d 63 06             	movsxd r8,DWORD PTR [r14]
    ac97:	48 63 d2             	movsxd rdx,edx
    ac9a:	4b 8d 34 00          	lea    rsi,[r8+r8*1]
    ac9e:	4a 8d 0c 06          	lea    rcx,[rsi+r8*1]
    aca2:	48 8d 0c 8a          	lea    rcx,[rdx+rcx*4]
    aca6:	48 c1 e1 06          	shl    rcx,0x6
    acaa:	48 01 c8             	add    rax,rcx
    acad:	48 89 ca             	mov    rdx,rcx
    acb0:	48 01 fa             	add    rdx,rdi
    acb3:	48 8d 0d e6 d0 b2 00 	lea    rcx,[rip+0xb2d0e6]        # b37da0 <stdin@@GLIBC_2.2.5+0xb20d70>
    acba:	8b 04 81             	mov    eax,DWORD PTR [rcx+rax*4]
    acbd:	2b 04 91             	sub    eax,DWORD PTR [rcx+rdx*4]
    acc0:	48 8b 4c 24 08       	mov    rcx,QWORD PTR [rsp+0x8]
    acc5:	42 89 04 b9          	mov    DWORD PTR [rcx+r15*4],eax
    acc9:	e9 d8 fe ff ff       	jmp    aba6 <__sprintf_chk@plt+0x9856>
    acce:	48 63 ed             	movsxd rbp,ebp
    acd1:	48 8d 35 88 79 00 00 	lea    rsi,[rip+0x7988]        # 12660 <__sprintf_chk@plt+0x11310>
    acd8:	8b 04 ae             	mov    eax,DWORD PTR [rsi+rbp*4]
    acdb:	89 c2                	mov    edx,eax
    acdd:	c1 fa 1f             	sar    edx,0x1f
    ace0:	89 d0                	mov    eax,edx
    ace2:	33 04 ae             	xor    eax,DWORD PTR [rsi+rbp*4]
    ace5:	29 d0                	sub    eax,edx
    ace7:	48 63 14 24          	movsxd rdx,DWORD PTR [rsp]
    aceb:	49 63 4c 96 04       	movsxd rcx,DWORD PTR [r14+rdx*4+0x4]
    acf0:	8b 3c 8e             	mov    edi,DWORD PTR [rsi+rcx*4]
    acf3:	89 7c 24 20          	mov    DWORD PTR [rsp+0x20],edi
    acf7:	89 fa                	mov    edx,edi
    acf9:	c1 fa 1f             	sar    edx,0x1f
    acfc:	89 d7                	mov    edi,edx
    acfe:	33 3c 8e             	xor    edi,DWORD PTR [rsi+rcx*4]
    ad01:	89 f9                	mov    ecx,edi
    ad03:	29 d1                	sub    ecx,edx
    ad05:	29 c8                	sub    eax,ecx
    ad07:	85 c0                	test   eax,eax
    ad09:	7e 13                	jle    ad1e <__sprintf_chk@plt+0x99ce>
    ad0b:	05 80 96 98 00       	add    eax,0x989680
    ad10:	48 8b 7c 24 08       	mov    rdi,QWORD PTR [rsp+0x8]
    ad15:	42 89 04 bf          	mov    DWORD PTR [rdi+r15*4],eax
    ad19:	e9 88 fe ff ff       	jmp    aba6 <__sprintf_chk@plt+0x9856>
    ad1e:	41 83 be cc 01 00 00 	cmp    DWORD PTR [r14+0x1cc],0x0
    ad25:	00 
    ad26:	44 8b 44 24 04       	mov    r8d,DWORD PTR [rsp+0x4]
    ad2b:	8b 4c 24 18          	mov    ecx,DWORD PTR [rsp+0x18]
    ad2f:	8b 14 24             	mov    edx,DWORD PTR [rsp]
    ad32:	40 0f 94 c6          	sete   sil
    ad36:	40 0f b6 f6          	movzx  esi,sil
    ad3a:	4c 89 f7             	mov    rdi,r14
    ad3d:	e8 e5 3a 00 00       	call   e827 <__sprintf_chk@plt+0xd4d7>
    ad42:	85 c0                	test   eax,eax
    ad44:	79 c5                	jns    ad0b <__sprintf_chk@plt+0x99bb>
    ad46:	48 8b 7c 24 08       	mov    rdi,QWORD PTR [rsp+0x8]
    ad4b:	42 89 04 bf          	mov    DWORD PTR [rdi+r15*4],eax
    ad4f:	e9 52 fe ff ff       	jmp    aba6 <__sprintf_chk@plt+0x9856>
    ad54:	48 8b 44 24 08       	mov    rax,QWORD PTR [rsp+0x8]
    ad59:	42 c7 04 b8 00 12 7a 	mov    DWORD PTR [rax+r15*4],0x7a1200
    ad60:	00 
    ad61:	e9 40 fe ff ff       	jmp    aba6 <__sprintf_chk@plt+0x9856>
    ad66:	48 8b 44 24 08       	mov    rax,QWORD PTR [rsp+0x8]
    ad6b:	42 c7 04 b8 c0 cf 6a 	mov    DWORD PTR [rax+r15*4],0x6acfc0
    ad72:	00 
    ad73:	e9 2e fe ff ff       	jmp    aba6 <__sprintf_chk@plt+0x9856>
    ad78:	48 8b 44 24 08       	mov    rax,QWORD PTR [rsp+0x8]
    ad7d:	42 c7 04 b8 80 8d 5b 	mov    DWORD PTR [rax+r15*4],0x5b8d80
    ad84:	00 
    ad85:	e9 1c fe ff ff       	jmp    aba6 <__sprintf_chk@plt+0x9856>
    ad8a:	48 8b 44 24 08       	mov    rax,QWORD PTR [rsp+0x8]
    ad8f:	42 c7 04 b8 40 4b 4c 	mov    DWORD PTR [rax+r15*4],0x4c4b40
    ad96:	00 
    ad97:	e9 0a fe ff ff       	jmp    aba6 <__sprintf_chk@plt+0x9856>
    ad9c:	48 83 c4 38          	add    rsp,0x38
    ada0:	5b                   	pop    rbx
    ada1:	5d                   	pop    rbp
    ada2:	41 5c                	pop    r12
    ada4:	41 5d                	pop    r13
    ada6:	41 5e                	pop    r14
    ada8:	41 5f                	pop    r15
    adaa:	c3                   	ret    
    adab:	f3 0f 1e fa          	endbr64 
    adaf:	41 57                	push   r15
    adb1:	41 56                	push   r14
    adb3:	41 55                	push   r13
    adb5:	41 54                	push   r12
    adb7:	55                   	push   rbp
    adb8:	53                   	push   rbx
    adb9:	48 81 ec f8 07 00 00 	sub    rsp,0x7f8
    adc0:	49 89 ff             	mov    r15,rdi
    adc3:	89 74 24 08          	mov    DWORD PTR [rsp+0x8],esi
    adc7:	89 54 24 04          	mov    DWORD PTR [rsp+0x4],edx
    adcb:	89 4c 24 10          	mov    DWORD PTR [rsp+0x10],ecx
    adcf:	44 89 44 24 0c       	mov    DWORD PTR [rsp+0xc],r8d
    add4:	64 48 8b 04 25 28 00 	mov    rax,QWORD PTR fs:0x28
    addb:	00 00 
    addd:	48 89 84 24 e8 07 00 	mov    QWORD PTR [rsp+0x7e8],rax
    ade4:	00 
    ade5:	31 c0                	xor    eax,eax
    ade7:	48 ff 87 f0 0f 00 00 	inc    QWORD PTR [rdi+0xff0]
    adee:	48 ff 87 f8 0f 00 00 	inc    QWORD PTR [rdi+0xff8]
    adf5:	8b 87 d8 01 00 00    	mov    eax,DWORD PTR [rdi+0x1d8]
    adfb:	3b 87 00 10 00 00    	cmp    eax,DWORD PTR [rdi+0x1000]
    ae01:	7e 06                	jle    ae09 <__sprintf_chk@plt+0x9ab9>
    ae03:	89 87 00 10 00 00    	mov    DWORD PTR [rdi+0x1000],eax
    ae09:	4c 89 ff             	mov    rdi,r15
    ae0c:	e8 1c f9 ff ff       	call   a72d <__sprintf_chk@plt+0x93dd>
    ae11:	41 be 00 00 00 00    	mov    r14d,0x0
    ae17:	85 c0                	test   eax,eax
    ae19:	74 2c                	je     ae47 <__sprintf_chk@plt+0x9af7>
    ae1b:	48 8b 84 24 e8 07 00 	mov    rax,QWORD PTR [rsp+0x7e8]
    ae22:	00 
    ae23:	64 48 33 04 25 28 00 	xor    rax,QWORD PTR fs:0x28
    ae2a:	00 00 
    ae2c:	0f 85 74 0a 00 00    	jne    b8a6 <__sprintf_chk@plt+0xa556>
    ae32:	44 89 f0             	mov    eax,r14d
    ae35:	48 81 c4 f8 07 00 00 	add    rsp,0x7f8
    ae3c:	5b                   	pop    rbx
    ae3d:	5d                   	pop    rbp
    ae3e:	41 5c                	pop    r12
    ae40:	41 5d                	pop    r13
    ae42:	41 5e                	pop    r14
    ae44:	41 5f                	pop    r15
    ae46:	c3                   	ret    
    ae47:	4c 89 fe             	mov    rsi,r15
    ae4a:	48 8d 3d ef 35 b7 00 	lea    rdi,[rip+0xb735ef]        # b7e440 <stdin@@GLIBC_2.2.5+0xb67410>
    ae51:	e8 5d 7e ff ff       	call   2cb3 <__sprintf_chk@plt+0x1963>
    ae56:	41 89 c6             	mov    r14d,eax
    ae59:	85 c0                	test   eax,eax
    ae5b:	75 0a                	jne    ae67 <__sprintf_chk@plt+0x9b17>
    ae5d:	41 83 bf dc 01 00 00 	cmp    DWORD PTR [r15+0x1dc],0x63
    ae64:	63 
    ae65:	7e 1b                	jle    ae82 <__sprintf_chk@plt+0x9b32>
    ae67:	44 8b 35 62 2f b3 00 	mov    r14d,DWORD PTR [rip+0xb32f62]        # b3ddd0 <stdin@@GLIBC_2.2.5+0xb26da0>
    ae6e:	41 8b 87 cc 01 00 00 	mov    eax,DWORD PTR [r15+0x1cc]
    ae75:	39 05 d1 35 b7 00    	cmp    DWORD PTR [rip+0xb735d1],eax        # b7e44c <stdin@@GLIBC_2.2.5+0xb6741c>
    ae7b:	74 9e                	je     ae1b <__sprintf_chk@plt+0x9acb>
    ae7d:	41 f7 de             	neg    r14d
    ae80:	eb 99                	jmp    ae1b <__sprintf_chk@plt+0x9acb>
    ae82:	4c 8d 4c 24 5c       	lea    r9,[rsp+0x5c]
    ae87:	48 8d 74 24 58       	lea    rsi,[rsp+0x58]
    ae8c:	6a 00                	push   0x0
    ae8e:	41 51                	push   r9
    ae90:	41 51                	push   r9
    ae92:	41 51                	push   r9
    ae94:	4c 8d 44 24 74       	lea    r8,[rsp+0x74]
    ae99:	8b 4c 24 24          	mov    ecx,DWORD PTR [rsp+0x24]
    ae9d:	8b 54 24 28          	mov    edx,DWORD PTR [rsp+0x28]
    aea1:	4c 89 ff             	mov    rdi,r15
    aea4:	e8 90 42 00 00       	call   f139 <__sprintf_chk@plt+0xdde9>
    aea9:	48 83 c4 20          	add    rsp,0x20
    aead:	83 f8 03             	cmp    eax,0x3
    aeb0:	74 62                	je     af14 <__sprintf_chk@plt+0x9bc4>
    aeb2:	7f 1c                	jg     aed0 <__sprintf_chk@plt+0x9b80>
    aeb4:	83 f8 01             	cmp    eax,0x1
    aeb7:	74 65                	je     af1e <__sprintf_chk@plt+0x9bce>
    aeb9:	83 f8 02             	cmp    eax,0x2
    aebc:	75 1f                	jne    aedd <__sprintf_chk@plt+0x9b8d>
    aebe:	8b 44 24 58          	mov    eax,DWORD PTR [rsp+0x58]
    aec2:	3b 44 24 04          	cmp    eax,DWORD PTR [rsp+0x4]
    aec6:	7c 15                	jl     aedd <__sprintf_chk@plt+0x9b8d>
    aec8:	41 89 c6             	mov    r14d,eax
    aecb:	e9 4b ff ff ff       	jmp    ae1b <__sprintf_chk@plt+0x9acb>
    aed0:	83 f8 04             	cmp    eax,0x4
    aed3:	75 08                	jne    aedd <__sprintf_chk@plt+0x9b8d>
    aed5:	c7 44 24 54 ff ff 00 	mov    DWORD PTR [rsp+0x54],0xffff
    aedc:	00 
    aedd:	8b 05 71 35 b7 00    	mov    eax,DWORD PTR [rip+0xb73571]        # b7e454 <stdin@@GLIBC_2.2.5+0xb67424>
    aee3:	01 c0                	add    eax,eax
    aee5:	3b 44 24 0c          	cmp    eax,DWORD PTR [rsp+0xc]
    aee9:	7c 0c                	jl     aef7 <__sprintf_chk@plt+0x9ba7>
    aeeb:	41 8b 87 d8 01 00 00 	mov    eax,DWORD PTR [r15+0x1d8]
    aef2:	83 f8 3c             	cmp    eax,0x3c
    aef5:	7e 39                	jle    af30 <__sprintf_chk@plt+0x9be0>
    aef7:	b9 00 00 00 00       	mov    ecx,0x0
    aefc:	8b 54 24 04          	mov    edx,DWORD PTR [rsp+0x4]
    af00:	8b 74 24 08          	mov    esi,DWORD PTR [rsp+0x8]
    af04:	4c 89 ff             	mov    rdi,r15
    af07:	e8 99 e1 ff ff       	call   90a5 <__sprintf_chk@plt+0x7d55>
    af0c:	41 89 c6             	mov    r14d,eax
    af0f:	e9 07 ff ff ff       	jmp    ae1b <__sprintf_chk@plt+0x9acb>
    af14:	44 8b 74 24 58       	mov    r14d,DWORD PTR [rsp+0x58]
    af19:	e9 fd fe ff ff       	jmp    ae1b <__sprintf_chk@plt+0x9acb>
    af1e:	8b 44 24 58          	mov    eax,DWORD PTR [rsp+0x58]
    af22:	3b 44 24 08          	cmp    eax,DWORD PTR [rsp+0x8]
    af26:	7f b5                	jg     aedd <__sprintf_chk@plt+0x9b8d>
    af28:	41 89 c6             	mov    r14d,eax
    af2b:	e9 eb fe ff ff       	jmp    ae1b <__sprintf_chk@plt+0x9acb>
    af30:	48 98                	cdqe   
    af32:	41 8b 9c 87 04 10 00 	mov    ebx,DWORD PTR [r15+rax*4+0x1004]
    af39:	00 
    af3a:	89 5c 24 30          	mov    DWORD PTR [rsp+0x30],ebx
    af3e:	4c 89 ff             	mov    rdi,r15
    af41:	e8 6b e4 ff ff       	call   93b1 <__sprintf_chk@plt+0x8061>
    af46:	89 44 24 40          	mov    DWORD PTR [rsp+0x40],eax
    af4a:	85 db                	test   ebx,ebx
    af4c:	0f 85 29 08 00 00    	jne    b77b <__sprintf_chk@plt+0xa42b>
    af52:	39 44 24 04          	cmp    DWORD PTR [rsp+0x4],eax
    af56:	0f 8e 8d 00 00 00    	jle    afe9 <__sprintf_chk@plt+0x9c99>
    af5c:	8b 5c 24 08          	mov    ebx,DWORD PTR [rsp+0x8]
    af60:	8b 44 24 40          	mov    eax,DWORD PTR [rsp+0x40]
    af64:	39 c3                	cmp    ebx,eax
    af66:	0f 8c b8 08 00 00    	jl     b824 <__sprintf_chk@plt+0xa4d4>
    af6c:	05 d8 03 00 00       	add    eax,0x3d8
    af71:	39 d8                	cmp    eax,ebx
    af73:	0f 8c a6 00 00 00    	jl     b01f <__sprintf_chk@plt+0x9ccf>
    af79:	41 83 bf cc 01 00 00 	cmp    DWORD PTR [r15+0x1cc],0x0
    af80:	00 
    af81:	0f 84 55 01 00 00    	je     b0dc <__sprintf_chk@plt+0x9d8c>
    af87:	41 83 bf b8 01 00 00 	cmp    DWORD PTR [r15+0x1b8],0x0
    af8e:	00 
    af8f:	0f 85 d5 08 00 00    	jne    b86a <__sprintf_chk@plt+0xa51a>
    af95:	41 83 bf b0 01 00 00 	cmp    DWORD PTR [r15+0x1b0],0x0
    af9c:	00 
    af9d:	0f 85 e3 00 00 00    	jne    b086 <__sprintf_chk@plt+0x9d36>
    afa3:	41 83 bf c0 01 00 00 	cmp    DWORD PTR [r15+0x1c0],0x0
    afaa:	00 
    afab:	0f 85 ab 00 00 00    	jne    b05c <__sprintf_chk@plt+0x9d0c>
    afb1:	41 83 bf a0 01 00 00 	cmp    DWORD PTR [r15+0x1a0],0x0
    afb8:	00 
    afb9:	0f 85 9d 00 00 00    	jne    b05c <__sprintf_chk@plt+0x9d0c>
    afbf:	8b 44 24 40          	mov    eax,DWORD PTR [rsp+0x40]
    afc3:	05 86 00 00 00       	add    eax,0x86
    afc8:	8b 5c 24 08          	mov    ebx,DWORD PTR [rsp+0x8]
    afcc:	89 5c 24 14          	mov    DWORD PTR [rsp+0x14],ebx
    afd0:	39 d8                	cmp    eax,ebx
    afd2:	0f 8d 54 08 00 00    	jge    b82c <__sprintf_chk@plt+0xa4dc>
    afd8:	44 8b 74 24 40       	mov    r14d,DWORD PTR [rsp+0x40]
    afdd:	41 81 c6 87 00 00 00 	add    r14d,0x87
    afe4:	e9 32 fe ff ff       	jmp    ae1b <__sprintf_chk@plt+0x9acb>
    afe9:	48 83 ec 08          	sub    rsp,0x8
    afed:	6a 00                	push   0x0
    afef:	6a 00                	push   0x0
    aff1:	6a 00                	push   0x0
    aff3:	41 b9 00 00 00 00    	mov    r9d,0x0
    aff9:	44 8b 44 24 74       	mov    r8d,DWORD PTR [rsp+0x74]
    affe:	8b 4c 24 24          	mov    ecx,DWORD PTR [rsp+0x24]
    b002:	8b 54 24 28          	mov    edx,DWORD PTR [rsp+0x28]
    b006:	44 8b 74 24 60       	mov    r14d,DWORD PTR [rsp+0x60]
    b00b:	44 89 f6             	mov    esi,r14d
    b00e:	4c 89 ff             	mov    rdi,r15
    b011:	e8 f5 3e 00 00       	call   ef0b <__sprintf_chk@plt+0xdbbb>
    b016:	48 83 c4 20          	add    rsp,0x20
    b01a:	e9 fc fd ff ff       	jmp    ae1b <__sprintf_chk@plt+0x9acb>
    b01f:	44 8b 74 24 40       	mov    r14d,DWORD PTR [rsp+0x40]
    b024:	41 81 c6 d9 03 00 00 	add    r14d,0x3d9
    b02b:	48 83 ec 08          	sub    rsp,0x8
    b02f:	6a 00                	push   0x0
    b031:	6a 00                	push   0x0
    b033:	6a 00                	push   0x0
    b035:	41 b9 00 00 00 00    	mov    r9d,0x0
    b03b:	44 8b 44 24 74       	mov    r8d,DWORD PTR [rsp+0x74]
    b040:	8b 4c 24 24          	mov    ecx,DWORD PTR [rsp+0x24]
    b044:	8b 54 24 28          	mov    edx,DWORD PTR [rsp+0x28]
    b048:	44 89 f6             	mov    esi,r14d
    b04b:	4c 89 ff             	mov    rdi,r15
    b04e:	e8 b8 3e 00 00       	call   ef0b <__sprintf_chk@plt+0xdbbb>
    b053:	48 83 c4 20          	add    rsp,0x20
    b057:	e9 bf fd ff ff       	jmp    ae1b <__sprintf_chk@plt+0x9acb>
    b05c:	8b 44 24 40          	mov    eax,DWORD PTR [rsp+0x40]
    b060:	05 7b 01 00 00       	add    eax,0x17b
    b065:	8b 5c 24 08          	mov    ebx,DWORD PTR [rsp+0x8]
    b069:	89 5c 24 14          	mov    DWORD PTR [rsp+0x14],ebx
    b06d:	39 d8                	cmp    eax,ebx
    b06f:	0f 8d b7 07 00 00    	jge    b82c <__sprintf_chk@plt+0xa4dc>
    b075:	44 8b 74 24 40       	mov    r14d,DWORD PTR [rsp+0x40]
    b07a:	41 81 c6 7c 01 00 00 	add    r14d,0x17c
    b081:	e9 95 fd ff ff       	jmp    ae1b <__sprintf_chk@plt+0x9acb>
    b086:	8b 44 24 40          	mov    eax,DWORD PTR [rsp+0x40]
    b08a:	05 1b 02 00 00       	add    eax,0x21b
    b08f:	8b 5c 24 08          	mov    ebx,DWORD PTR [rsp+0x8]
    b093:	89 5c 24 14          	mov    DWORD PTR [rsp+0x14],ebx
    b097:	39 d8                	cmp    eax,ebx
    b099:	0f 8d 8d 07 00 00    	jge    b82c <__sprintf_chk@plt+0xa4dc>
    b09f:	44 8b 74 24 40       	mov    r14d,DWORD PTR [rsp+0x40]
    b0a4:	41 81 c6 1c 02 00 00 	add    r14d,0x21c
    b0ab:	48 83 ec 08          	sub    rsp,0x8
    b0af:	6a 00                	push   0x0
    b0b1:	6a 00                	push   0x0
    b0b3:	6a 00                	push   0x0
    b0b5:	41 b9 00 00 00 00    	mov    r9d,0x0
    b0bb:	44 8b 44 24 74       	mov    r8d,DWORD PTR [rsp+0x74]
    b0c0:	8b 4c 24 24          	mov    ecx,DWORD PTR [rsp+0x24]
    b0c4:	8b 54 24 28          	mov    edx,DWORD PTR [rsp+0x28]
    b0c8:	44 89 f6             	mov    esi,r14d
    b0cb:	4c 89 ff             	mov    rdi,r15
    b0ce:	e8 38 3e 00 00       	call   ef0b <__sprintf_chk@plt+0xdbbb>
    b0d3:	48 83 c4 20          	add    rsp,0x20
    b0d7:	e9 3f fd ff ff       	jmp    ae1b <__sprintf_chk@plt+0x9acb>
    b0dc:	41 83 bf b4 01 00 00 	cmp    DWORD PTR [r15+0x1b4],0x0
    b0e3:	00 
    b0e4:	0f 85 8a 07 00 00    	jne    b874 <__sprintf_chk@plt+0xa524>
    b0ea:	41 83 bf ac 01 00 00 	cmp    DWORD PTR [r15+0x1ac],0x0
    b0f1:	00 
    b0f2:	75 68                	jne    b15c <__sprintf_chk@plt+0x9e0c>
    b0f4:	41 83 bf bc 01 00 00 	cmp    DWORD PTR [r15+0x1bc],0x0
    b0fb:	00 
    b0fc:	75 34                	jne    b132 <__sprintf_chk@plt+0x9de2>
    b0fe:	41 83 bf 9c 01 00 00 	cmp    DWORD PTR [r15+0x19c],0x0
    b105:	00 
    b106:	75 2a                	jne    b132 <__sprintf_chk@plt+0x9de2>
    b108:	8b 44 24 40          	mov    eax,DWORD PTR [rsp+0x40]
    b10c:	05 86 00 00 00       	add    eax,0x86
    b111:	8b 5c 24 08          	mov    ebx,DWORD PTR [rsp+0x8]
    b115:	89 5c 24 14          	mov    DWORD PTR [rsp+0x14],ebx
    b119:	39 d8                	cmp    eax,ebx
    b11b:	0f 8d 0b 07 00 00    	jge    b82c <__sprintf_chk@plt+0xa4dc>
    b121:	44 8b 74 24 40       	mov    r14d,DWORD PTR [rsp+0x40]
    b126:	41 81 c6 87 00 00 00 	add    r14d,0x87
    b12d:	e9 e9 fc ff ff       	jmp    ae1b <__sprintf_chk@plt+0x9acb>
    b132:	8b 44 24 40          	mov    eax,DWORD PTR [rsp+0x40]
    b136:	05 7b 01 00 00       	add    eax,0x17b
    b13b:	8b 5c 24 08          	mov    ebx,DWORD PTR [rsp+0x8]
    b13f:	89 5c 24 14          	mov    DWORD PTR [rsp+0x14],ebx
    b143:	39 d8                	cmp    eax,ebx
    b145:	0f 8d e1 06 00 00    	jge    b82c <__sprintf_chk@plt+0xa4dc>
    b14b:	44 8b 74 24 40       	mov    r14d,DWORD PTR [rsp+0x40]
    b150:	41 81 c6 7c 01 00 00 	add    r14d,0x17c
    b157:	e9 bf fc ff ff       	jmp    ae1b <__sprintf_chk@plt+0x9acb>
    b15c:	8b 44 24 40          	mov    eax,DWORD PTR [rsp+0x40]
    b160:	05 1b 02 00 00       	add    eax,0x21b
    b165:	8b 5c 24 08          	mov    ebx,DWORD PTR [rsp+0x8]
    b169:	89 5c 24 14          	mov    DWORD PTR [rsp+0x14],ebx
    b16d:	39 d8                	cmp    eax,ebx
    b16f:	0f 8d b7 06 00 00    	jge    b82c <__sprintf_chk@plt+0xa4dc>
    b175:	44 8b 74 24 40       	mov    r14d,DWORD PTR [rsp+0x40]
    b17a:	41 81 c6 1c 02 00 00 	add    r14d,0x21c
    b181:	48 83 ec 08          	sub    rsp,0x8
    b185:	6a 00                	push   0x0
    b187:	6a 00                	push   0x0
    b189:	6a 00                	push   0x0
    b18b:	41 b9 00 00 00 00    	mov    r9d,0x0
    b191:	44 8b 44 24 74       	mov    r8d,DWORD PTR [rsp+0x74]
    b196:	8b 4c 24 24          	mov    ecx,DWORD PTR [rsp+0x24]
    b19a:	8b 54 24 28          	mov    edx,DWORD PTR [rsp+0x28]
    b19e:	44 89 f6             	mov    esi,r14d
    b1a1:	4c 89 ff             	mov    rdi,r15
    b1a4:	e8 62 3d 00 00       	call   ef0b <__sprintf_chk@plt+0xdbbb>
    b1a9:	48 83 c4 20          	add    rsp,0x20
    b1ad:	e9 69 fc ff ff       	jmp    ae1b <__sprintf_chk@plt+0x9acb>
    b1b2:	48 8d 74 24 60       	lea    rsi,[rsp+0x60]
    b1b7:	8b 54 24 30          	mov    edx,DWORD PTR [rsp+0x30]
    b1bb:	4c 89 ff             	mov    rdi,r15
    b1be:	e8 c7 b3 ff ff       	call   658a <__sprintf_chk@plt+0x523a>
    b1c3:	89 44 24 18          	mov    DWORD PTR [rsp+0x18],eax
    b1c7:	44 89 74 24 48       	mov    DWORD PTR [rsp+0x48],r14d
    b1cc:	8b 44 24 08          	mov    eax,DWORD PTR [rsp+0x8]
    b1d0:	89 44 24 14          	mov    DWORD PTR [rsp+0x14],eax
    b1d4:	44 89 74 24 4c       	mov    DWORD PTR [rsp+0x4c],r14d
    b1d9:	e9 d7 05 00 00       	jmp    b7b5 <__sprintf_chk@plt+0xa465>
    b1de:	41 be 02 00 00 00    	mov    r14d,0x2
    b1e4:	e9 fa 05 00 00       	jmp    b7e3 <__sprintf_chk@plt+0xa493>
    b1e9:	48 8b 74 24 20       	mov    rsi,QWORD PTR [rsp+0x20]
    b1ee:	4c 89 ff             	mov    rdi,r15
    b1f1:	e8 d6 ab ff ff       	call   5dcc <__sprintf_chk@plt+0x4a7c>
    b1f6:	89 44 24 18          	mov    DWORD PTR [rsp+0x18],eax
    b1fa:	e9 f8 05 00 00       	jmp    b7f7 <__sprintf_chk@plt+0xa4a7>
    b1ff:	48 8b 74 24 20       	mov    rsi,QWORD PTR [rsp+0x20]
    b204:	4c 89 ff             	mov    rdi,r15
    b207:	e8 ec 95 ff ff       	call   47f8 <__sprintf_chk@plt+0x34a8>
    b20c:	89 44 24 18          	mov    DWORD PTR [rsp+0x18],eax
    b210:	e9 e2 05 00 00       	jmp    b7f7 <__sprintf_chk@plt+0xa4a7>
    b215:	c7 84 9c 20 04 00 00 	mov    DWORD PTR [rsp+rbx*4+0x420],0x7a12000
    b21c:	00 20 a1 07 
    b220:	eb 41                	jmp    b263 <__sprintf_chk@plt+0x9f13>
    b222:	48 98                	cdqe   
    b224:	41 8b 4c 85 00       	mov    ecx,DWORD PTR [r13+rax*4+0x0]
    b229:	c1 f9 1f             	sar    ecx,0x1f
    b22c:	89 ce                	mov    esi,ecx
    b22e:	41 33 74 85 00       	xor    esi,DWORD PTR [r13+rax*4+0x0]
    b233:	89 f0                	mov    eax,esi
    b235:	29 c8                	sub    eax,ecx
    b237:	c1 e0 0c             	shl    eax,0xc
    b23a:	05 80 96 98 00       	add    eax,0x989680
    b23f:	48 63 d2             	movsxd rdx,edx
    b242:	49 63 4c 97 04       	movsxd rcx,DWORD PTR [r15+rdx*4+0x4]
    b247:	41 8b 54 8d 00       	mov    edx,DWORD PTR [r13+rcx*4+0x0]
    b24c:	c1 fa 1f             	sar    edx,0x1f
    b24f:	89 d7                	mov    edi,edx
    b251:	41 33 7c 8d 00       	xor    edi,DWORD PTR [r13+rcx*4+0x0]
    b256:	89 f9                	mov    ecx,edi
    b258:	29 d1                	sub    ecx,edx
    b25a:	29 c8                	sub    eax,ecx
    b25c:	89 84 9c 20 04 00 00 	mov    DWORD PTR [rsp+rbx*4+0x420],eax
    b263:	48 8d 43 01          	lea    rax,[rbx+0x1]
    b267:	48 3b 5c 24 28       	cmp    rbx,QWORD PTR [rsp+0x28]
    b26c:	0f 84 0e 01 00 00    	je     b380 <__sprintf_chk@plt+0xa030>
    b272:	48 89 c3             	mov    rbx,rax
    b275:	41 8b 2c 9e          	mov    ebp,DWORD PTR [r14+rbx*4]
    b279:	89 ef                	mov    edi,ebp
    b27b:	e8 79 42 00 00       	call   f4f9 <__sprintf_chk@plt+0xe1a9>
    b280:	0f b7 c0             	movzx  eax,ax
    b283:	41 39 c4             	cmp    r12d,eax
    b286:	74 8d                	je     b215 <__sprintf_chk@plt+0x9ec5>
    b288:	89 ea                	mov    edx,ebp
    b28a:	c1 fa 06             	sar    edx,0x6
    b28d:	83 e2 3f             	and    edx,0x3f
    b290:	89 e8                	mov    eax,ebp
    b292:	c1 f8 13             	sar    eax,0x13
    b295:	83 e0 0f             	and    eax,0xf
    b298:	83 f8 0d             	cmp    eax,0xd
    b29b:	75 85                	jne    b222 <__sprintf_chk@plt+0x9ed2>
    b29d:	89 e8                	mov    eax,ebp
    b29f:	c1 f8 0c             	sar    eax,0xc
    b2a2:	83 e0 0f             	and    eax,0xf
    b2a5:	74 23                	je     b2ca <__sprintf_chk@plt+0x9f7a>
    b2a7:	48 98                	cdqe   
    b2a9:	41 8b 54 85 00       	mov    edx,DWORD PTR [r13+rax*4+0x0]
    b2ae:	c1 fa 1f             	sar    edx,0x1f
    b2b1:	89 d7                	mov    edi,edx
    b2b3:	41 33 7c 85 00       	xor    edi,DWORD PTR [r13+rax*4+0x0]
    b2b8:	89 f8                	mov    eax,edi
    b2ba:	29 d0                	sub    eax,edx
    b2bc:	05 40 54 89 00       	add    eax,0x895440
    b2c1:	89 84 9c 20 04 00 00 	mov    DWORD PTR [rsp+rbx*4+0x420],eax
    b2c8:	eb 99                	jmp    b263 <__sprintf_chk@plt+0x9f13>
    b2ca:	41 8b 0c 9e          	mov    ecx,DWORD PTR [r14+rbx*4]
    b2ce:	49 63 87 d8 01 00 00 	movsxd rax,DWORD PTR [r15+0x1d8]
    b2d5:	48 c1 e0 04          	shl    rax,0x4
    b2d9:	4c 01 f8             	add    rax,r15
    b2dc:	3b 88 f0 0b 00 00    	cmp    ecx,DWORD PTR [rax+0xbf0]
    b2e2:	74 5c                	je     b340 <__sprintf_chk@plt+0x9ff0>
    b2e4:	3b 88 f4 0b 00 00    	cmp    ecx,DWORD PTR [rax+0xbf4]
    b2ea:	74 64                	je     b350 <__sprintf_chk@plt+0xa000>
    b2ec:	3b 88 f8 0b 00 00    	cmp    ecx,DWORD PTR [rax+0xbf8]
    b2f2:	74 6c                	je     b360 <__sprintf_chk@plt+0xa010>
    b2f4:	3b 88 fc 0b 00 00    	cmp    ecx,DWORD PTR [rax+0xbfc]
    b2fa:	74 74                	je     b370 <__sprintf_chk@plt+0xa020>
    b2fc:	48 63 d2             	movsxd rdx,edx
    b2ff:	41 8b 44 97 04       	mov    eax,DWORD PTR [r15+rdx*4+0x4]
    b304:	ff c8                	dec    eax
    b306:	83 e5 3f             	and    ebp,0x3f
    b309:	49 63 3f             	movsxd rdi,DWORD PTR [r15]
    b30c:	48 98                	cdqe   
    b30e:	48 8d 34 3f          	lea    rsi,[rdi+rdi*1]
    b312:	48 8d 0c 3e          	lea    rcx,[rsi+rdi*1]
    b316:	48 8d 0c 88          	lea    rcx,[rax+rcx*4]
    b31a:	48 c1 e1 06          	shl    rcx,0x6
    b31e:	48 01 cd             	add    rbp,rcx
    b321:	48 89 c8             	mov    rax,rcx
    b324:	48 01 d0             	add    rax,rdx
    b327:	48 8d 3d 72 ca b2 00 	lea    rdi,[rip+0xb2ca72]        # b37da0 <stdin@@GLIBC_2.2.5+0xb20d70>
    b32e:	8b 14 af             	mov    edx,DWORD PTR [rdi+rbp*4]
    b331:	2b 14 87             	sub    edx,DWORD PTR [rdi+rax*4]
    b334:	89 94 9c 20 04 00 00 	mov    DWORD PTR [rsp+rbx*4+0x420],edx
    b33b:	e9 23 ff ff ff       	jmp    b263 <__sprintf_chk@plt+0x9f13>
    b340:	c7 84 9c 20 04 00 00 	mov    DWORD PTR [rsp+rbx*4+0x420],0x7a1200
    b347:	00 12 7a 00 
    b34b:	e9 13 ff ff ff       	jmp    b263 <__sprintf_chk@plt+0x9f13>
    b350:	c7 84 9c 20 04 00 00 	mov    DWORD PTR [rsp+rbx*4+0x420],0x6acfc0
    b357:	c0 cf 6a 00 
    b35b:	e9 03 ff ff ff       	jmp    b263 <__sprintf_chk@plt+0x9f13>
    b360:	c7 84 9c 20 04 00 00 	mov    DWORD PTR [rsp+rbx*4+0x420],0x5b8d80
    b367:	80 8d 5b 00 
    b36b:	e9 f3 fe ff ff       	jmp    b263 <__sprintf_chk@plt+0x9f13>
    b370:	c7 84 9c 20 04 00 00 	mov    DWORD PTR [rsp+rbx*4+0x420],0x4c4b40
    b377:	40 4b 4c 00 
    b37b:	e9 e3 fe ff ff       	jmp    b263 <__sprintf_chk@plt+0x9f13>
    b380:	44 8b 74 24 44       	mov    r14d,DWORD PTR [rsp+0x44]
    b385:	c7 44 24 50 ff ff ff 	mov    DWORD PTR [rsp+0x50],0xffffffff
    b38c:	ff 
    b38d:	4c 8d 25 ac 30 b7 00 	lea    r12,[rip+0xb730ac]        # b7e440 <stdin@@GLIBC_2.2.5+0xb67410>
    b394:	e9 63 01 00 00       	jmp    b4fc <__sprintf_chk@plt+0xa1ac>
    b399:	48 63 44 24 50       	movsxd rax,DWORD PTR [rsp+0x50]
    b39e:	8b 4c 84 60          	mov    ecx,DWORD PTR [rsp+rax*4+0x60]
    b3a2:	89 ca                	mov    edx,ecx
    b3a4:	c1 fa 13             	sar    edx,0x13
    b3a7:	83 e2 0f             	and    edx,0xf
    b3aa:	41 8b 44 95 00       	mov    eax,DWORD PTR [r13+rdx*4+0x0]
    b3af:	c1 f8 1f             	sar    eax,0x1f
    b3b2:	89 c3                	mov    ebx,eax
    b3b4:	41 33 5c 95 00       	xor    ebx,DWORD PTR [r13+rdx*4+0x0]
    b3b9:	89 da                	mov    edx,ebx
    b3bb:	29 c2                	sub    edx,eax
    b3bd:	3b 54 24 48          	cmp    edx,DWORD PTR [rsp+0x48]
    b3c1:	0f 8f 7a 01 00 00    	jg     b541 <__sprintf_chk@plt+0xa1f1>
    b3c7:	f6 c5 f0             	test   ch,0xf0
    b3ca:	0f 85 71 01 00 00    	jne    b541 <__sprintf_chk@plt+0xa1f1>
    b3d0:	83 7c 24 4c 00       	cmp    DWORD PTR [rsp+0x4c],0x0
    b3d5:	0f 85 03 fe ff ff    	jne    b1de <__sprintf_chk@plt+0x9e8e>
    b3db:	44 8b 74 24 14       	mov    r14d,DWORD PTR [rsp+0x14]
    b3e0:	48 83 ec 08          	sub    rsp,0x8
    b3e4:	6a 00                	push   0x0
    b3e6:	6a 00                	push   0x0
    b3e8:	6a 00                	push   0x0
    b3ea:	41 b9 00 00 00 00    	mov    r9d,0x0
    b3f0:	44 8b 44 24 5c       	mov    r8d,DWORD PTR [rsp+0x5c]
    b3f5:	8b 4c 24 24          	mov    ecx,DWORD PTR [rsp+0x24]
    b3f9:	8b 54 24 28          	mov    edx,DWORD PTR [rsp+0x28]
    b3fd:	44 89 f6             	mov    esi,r14d
    b400:	4c 89 ff             	mov    rdi,r15
    b403:	e8 03 3b 00 00       	call   ef0b <__sprintf_chk@plt+0xdbbb>
    b408:	48 83 c4 20          	add    rsp,0x20
    b40c:	e9 0a fa ff ff       	jmp    ae1b <__sprintf_chk@plt+0x9acb>
    b411:	48 63 44 24 50       	movsxd rax,DWORD PTR [rsp+0x50]
    b416:	8b 44 84 60          	mov    eax,DWORD PTR [rsp+rax*4+0x60]
    b41a:	c1 f8 13             	sar    eax,0x13
    b41d:	83 e0 0f             	and    eax,0xf
    b420:	83 f8 0d             	cmp    eax,0xd
    b423:	74 1f                	je     b444 <__sprintf_chk@plt+0xa0f4>
    b425:	48 98                	cdqe   
    b427:	41 8b 54 85 00       	mov    edx,DWORD PTR [r13+rax*4+0x0]
    b42c:	c1 fa 1f             	sar    edx,0x1f
    b42f:	89 d3                	mov    ebx,edx
    b431:	41 33 5c 85 00       	xor    ebx,DWORD PTR [r13+rax*4+0x0]
    b436:	89 d8                	mov    eax,ebx
    b438:	29 d0                	sub    eax,edx
    b43a:	3b 44 24 48          	cmp    eax,DWORD PTR [rsp+0x48]
    b43e:	0f 8f b8 00 00 00    	jg     b4fc <__sprintf_chk@plt+0xa1ac>
    b444:	41 83 fe 03          	cmp    r14d,0x3
    b448:	0f 85 3d 01 00 00    	jne    b58b <__sprintf_chk@plt+0xa23b>
    b44e:	48 63 44 24 50       	movsxd rax,DWORD PTR [rsp+0x50]
    b453:	8b 44 84 60          	mov    eax,DWORD PTR [rsp+rax*4+0x60]
    b457:	89 c2                	mov    edx,eax
    b459:	c1 fa 06             	sar    edx,0x6
    b45c:	83 e2 3f             	and    edx,0x3f
    b45f:	41 8b 54 97 04       	mov    edx,DWORD PTR [r15+rdx*4+0x4]
    b464:	ff ca                	dec    edx
    b466:	89 c1                	mov    ecx,eax
    b468:	83 e1 3f             	and    ecx,0x3f
    b46b:	49 63 07             	movsxd rax,DWORD PTR [r15]
    b46e:	48 63 d2             	movsxd rdx,edx
    b471:	48 6b c0 0c          	imul   rax,rax,0xc
    b475:	48 01 d0             	add    rax,rdx
    b478:	48 c1 e0 06          	shl    rax,0x6
    b47c:	48 01 c8             	add    rax,rcx
    b47f:	48 8d 1d 1a 09 b2 00 	lea    rbx,[rip+0xb2091a]        # b2bda0 <stdin@@GLIBC_2.2.5+0xb14d70>
    b486:	8b 14 83             	mov    edx,DWORD PTR [rbx+rax*4]
    b489:	48 8d 1d 10 69 b2 00 	lea    rbx,[rip+0xb26910]        # b31da0 <stdin@@GLIBC_2.2.5+0xb1ad70>
    b490:	2b 14 83             	sub    edx,DWORD PTR [rbx+rax*4]
    b493:	3b 14 83             	cmp    edx,DWORD PTR [rbx+rax*4]
    b496:	0f 8e ef 00 00 00    	jle    b58b <__sprintf_chk@plt+0xa23b>
    b49c:	eb 5e                	jmp    b4fc <__sprintf_chk@plt+0xa1ac>
    b49e:	48 63 44 24 50       	movsxd rax,DWORD PTR [rsp+0x50]
    b4a3:	8b 74 84 60          	mov    esi,DWORD PTR [rsp+rax*4+0x60]
    b4a7:	4c 89 ff             	mov    rdi,r15
    b4aa:	e8 e2 b2 ff ff       	call   6791 <__sprintf_chk@plt+0x5441>
    b4af:	48 63 44 24 50       	movsxd rax,DWORD PTR [rsp+0x50]
    b4b4:	8b 74 84 60          	mov    esi,DWORD PTR [rsp+rax*4+0x60]
    b4b8:	4c 89 ff             	mov    rdi,r15
    b4bb:	e8 13 c0 ff ff       	call   74d3 <__sprintf_chk@plt+0x6183>
    b4c0:	89 c3                	mov    ebx,eax
    b4c2:	85 c0                	test   eax,eax
    b4c4:	0f 85 01 01 00 00    	jne    b5cb <__sprintf_chk@plt+0xa27b>
    b4ca:	48 63 44 24 50       	movsxd rax,DWORD PTR [rsp+0x50]
    b4cf:	8b 74 84 60          	mov    esi,DWORD PTR [rsp+rax*4+0x60]
    b4d3:	4c 89 ff             	mov    rdi,r15
    b4d6:	e8 82 bb ff ff       	call   705d <__sprintf_chk@plt+0x5d0d>
    b4db:	41 83 bc 24 00 8d 00 	cmp    DWORD PTR [r12+0x8d00],0x0
    b4e2:	00 00 
    b4e4:	0f 85 b2 03 00 00    	jne    b89c <__sprintf_chk@plt+0xa54c>
    b4ea:	8b 6c 24 1c          	mov    ebp,DWORD PTR [rsp+0x1c]
    b4ee:	39 6c 24 14          	cmp    DWORD PTR [rsp+0x14],ebp
    b4f2:	7d 08                	jge    b4fc <__sprintf_chk@plt+0xa1ac>
    b4f4:	85 db                	test   ebx,ebx
    b4f6:	0f 85 ac 01 00 00    	jne    b6a8 <__sprintf_chk@plt+0xa358>
    b4fc:	48 8d b4 24 20 04 00 	lea    rsi,[rsp+0x420]
    b503:	00 
    b504:	48 8d 7c 24 50       	lea    rdi,[rsp+0x50]
    b509:	8b 4c 24 18          	mov    ecx,DWORD PTR [rsp+0x18]
    b50d:	48 8b 54 24 20       	mov    rdx,QWORD PTR [rsp+0x20]
    b512:	e8 98 f1 ff ff       	call   a6af <__sprintf_chk@plt+0x935f>
    b517:	85 c0                	test   eax,eax
    b519:	0f 84 e9 01 00 00    	je     b708 <__sprintf_chk@plt+0xa3b8>
    b51f:	83 7c 24 30 00       	cmp    DWORD PTR [rsp+0x30],0x0
    b524:	0f 85 74 ff ff ff    	jne    b49e <__sprintf_chk@plt+0xa14e>
    b52a:	41 83 fe 01          	cmp    r14d,0x1
    b52e:	0f 84 65 fe ff ff    	je     b399 <__sprintf_chk@plt+0xa049>
    b534:	41 8d 46 fe          	lea    eax,[r14-0x2]
    b538:	83 f8 01             	cmp    eax,0x1
    b53b:	0f 86 d0 fe ff ff    	jbe    b411 <__sprintf_chk@plt+0xa0c1>
    b541:	48 63 44 24 50       	movsxd rax,DWORD PTR [rsp+0x50]
    b546:	8b 44 84 60          	mov    eax,DWORD PTR [rsp+rax*4+0x60]
    b54a:	89 c1                	mov    ecx,eax
    b54c:	c1 f9 13             	sar    ecx,0x13
    b54f:	83 e1 0f             	and    ecx,0xf
    b552:	41 8b 54 8d 00       	mov    edx,DWORD PTR [r13+rcx*4+0x0]
    b557:	c1 fa 1f             	sar    edx,0x1f
    b55a:	89 d3                	mov    ebx,edx
    b55c:	41 33 5c 8d 00       	xor    ebx,DWORD PTR [r13+rcx*4+0x0]
    b561:	89 d9                	mov    ecx,ebx
    b563:	29 d1                	sub    ecx,edx
    b565:	c1 f8 06             	sar    eax,0x6
    b568:	83 e0 3f             	and    eax,0x3f
    b56b:	49 63 54 87 04       	movsxd rdx,DWORD PTR [r15+rax*4+0x4]
    b570:	41 8b 44 95 00       	mov    eax,DWORD PTR [r13+rdx*4+0x0]
    b575:	c1 f8 1f             	sar    eax,0x1f
    b578:	89 c3                	mov    ebx,eax
    b57a:	41 33 5c 95 00       	xor    ebx,DWORD PTR [r13+rdx*4+0x0]
    b57f:	89 da                	mov    edx,ebx
    b581:	29 c2                	sub    edx,eax
    b583:	39 d1                	cmp    ecx,edx
    b585:	0f 8d 13 ff ff ff    	jge    b49e <__sprintf_chk@plt+0xa14e>
    b58b:	48 63 44 24 50       	movsxd rax,DWORD PTR [rsp+0x50]
    b590:	8b 54 84 60          	mov    edx,DWORD PTR [rsp+rax*4+0x60]
    b594:	89 d1                	mov    ecx,edx
    b596:	83 e1 3f             	and    ecx,0x3f
    b599:	c1 fa 06             	sar    edx,0x6
    b59c:	83 e2 3f             	and    edx,0x3f
    b59f:	41 83 bf cc 01 00 00 	cmp    DWORD PTR [r15+0x1cc],0x0
    b5a6:	00 
    b5a7:	41 b8 00 00 00 00    	mov    r8d,0x0
    b5ad:	40 0f 94 c6          	sete   sil
    b5b1:	40 0f b6 f6          	movzx  esi,sil
    b5b5:	4c 89 ff             	mov    rdi,r15
    b5b8:	e8 6a 32 00 00       	call   e827 <__sprintf_chk@plt+0xd4d7>
    b5bd:	83 f8 ce             	cmp    eax,0xffffffce
    b5c0:	0f 8d d8 fe ff ff    	jge    b49e <__sprintf_chk@plt+0xa14e>
    b5c6:	e9 31 ff ff ff       	jmp    b4fc <__sprintf_chk@plt+0xa1ac>
    b5cb:	41 8b 87 d8 01 00 00 	mov    eax,DWORD PTR [r15+0x1d8]
    b5d2:	89 c2                	mov    edx,eax
    b5d4:	41 03 54 24 3c       	add    edx,DWORD PTR [r12+0x3c]
    b5d9:	ff ca                	dec    edx
    b5db:	48 63 d2             	movsxd rdx,edx
    b5de:	49 8b 8f e0 01 00 00 	mov    rcx,QWORD PTR [r15+0x1e0]
    b5e5:	49 89 8c d7 30 11 00 	mov    QWORD PTR [r15+rdx*8+0x1130],rcx
    b5ec:	00 
    b5ed:	ff c8                	dec    eax
    b5ef:	48 98                	cdqe   
    b5f1:	48 63 54 24 50       	movsxd rdx,DWORD PTR [rsp+0x50]
    b5f6:	8b 54 94 60          	mov    edx,DWORD PTR [rsp+rdx*4+0x60]
    b5fa:	41 89 94 87 f0 09 00 	mov    DWORD PTR [r15+rax*4+0x9f0],edx
    b601:	00 
    b602:	4c 89 ff             	mov    rdi,r15
    b605:	e8 cd 60 ff ff       	call   16d7 <__sprintf_chk@plt+0x387>
    b60a:	89 c5                	mov    ebp,eax
    b60c:	49 63 87 d8 01 00 00 	movsxd rax,DWORD PTR [r15+0x1d8]
    b613:	41 89 ac 87 04 10 00 	mov    DWORD PTR [r15+rax*4+0x1004],ebp
    b61a:	00 
    b61b:	8b 74 24 04          	mov    esi,DWORD PTR [rsp+0x4]
    b61f:	f7 de                	neg    esi
    b621:	89 74 24 28          	mov    DWORD PTR [rsp+0x28],esi
    b625:	85 ed                	test   ebp,ebp
    b627:	0f 95 c1             	setne  cl
    b62a:	ba 3c 00 00 00       	mov    edx,0x3c
    b62f:	8b 5c 24 14          	mov    ebx,DWORD PTR [rsp+0x14]
    b633:	29 da                	sub    edx,ebx
    b635:	0f b6 c9             	movzx  ecx,cl
    b638:	4c 89 ff             	mov    rdi,r15
    b63b:	e8 65 da ff ff       	call   90a5 <__sprintf_chk@plt+0x7d55>
    b640:	f7 d8                	neg    eax
    b642:	39 c3                	cmp    ebx,eax
    b644:	7c 17                	jl     b65d <__sprintf_chk@plt+0xa30d>
    b646:	8b 44 24 34          	mov    eax,DWORD PTR [rsp+0x34]
    b64a:	89 44 24 38          	mov    DWORD PTR [rsp+0x38],eax
    b64e:	bb 01 00 00 00       	mov    ebx,0x1
    b653:	41 83 fe 03          	cmp    r14d,0x3
    b657:	0f 84 6d fe ff ff    	je     b4ca <__sprintf_chk@plt+0xa17a>
    b65d:	8b 5c 24 10          	mov    ebx,DWORD PTR [rsp+0x10]
    b661:	89 d9                	mov    ecx,ebx
    b663:	41 83 fe 03          	cmp    r14d,0x3
    b667:	74 0d                	je     b676 <__sprintf_chk@plt+0xa326>
    b669:	8d 43 ff             	lea    eax,[rbx-0x1]
    b66c:	8d 4b f8             	lea    ecx,[rbx-0x8]
    b66f:	0b 6c 24 30          	or     ebp,DWORD PTR [rsp+0x30]
    b673:	0f 45 c8             	cmovne ecx,eax
    b676:	8b 54 24 14          	mov    edx,DWORD PTR [rsp+0x14]
    b67a:	f7 da                	neg    edx
    b67c:	8b 44 24 0c          	mov    eax,DWORD PTR [rsp+0xc]
    b680:	44 8d 40 01          	lea    r8d,[rax+0x1]
    b684:	8b 74 24 28          	mov    esi,DWORD PTR [rsp+0x28]
    b688:	4c 89 ff             	mov    rdi,r15
    b68b:	e8 1b f7 ff ff       	call   adab <__sprintf_chk@plt+0x9a5b>
    b690:	f7 d8                	neg    eax
    b692:	89 44 24 1c          	mov    DWORD PTR [rsp+0x1c],eax
    b696:	8b 44 24 34          	mov    eax,DWORD PTR [rsp+0x34]
    b69a:	89 44 24 38          	mov    DWORD PTR [rsp+0x38],eax
    b69e:	bb 01 00 00 00       	mov    ebx,0x1
    b6a3:	e9 22 fe ff ff       	jmp    b4ca <__sprintf_chk@plt+0xa17a>
    b6a8:	48 63 44 24 50       	movsxd rax,DWORD PTR [rsp+0x50]
    b6ad:	8b 7c 84 60          	mov    edi,DWORD PTR [rsp+rax*4+0x60]
    b6b1:	e8 43 3e 00 00       	call   f4f9 <__sprintf_chk@plt+0xe1a9>
    b6b6:	0f b7 c0             	movzx  eax,ax
    b6b9:	89 44 24 3c          	mov    DWORD PTR [rsp+0x3c],eax
    b6bd:	8b 44 24 04          	mov    eax,DWORD PTR [rsp+0x4]
    b6c1:	39 c5                	cmp    ebp,eax
    b6c3:	7d 0d                	jge    b6d2 <__sprintf_chk@plt+0xa382>
    b6c5:	8b 44 24 1c          	mov    eax,DWORD PTR [rsp+0x1c]
    b6c9:	89 44 24 14          	mov    DWORD PTR [rsp+0x14],eax
    b6cd:	e9 2a fe ff ff       	jmp    b4fc <__sprintf_chk@plt+0xa1ac>
    b6d2:	48 83 ec 08          	sub    rsp,0x8
    b6d6:	6a 00                	push   0x0
    b6d8:	6a 00                	push   0x0
    b6da:	6a 00                	push   0x0
    b6dc:	41 b9 00 00 00 00    	mov    r9d,0x0
    b6e2:	44 8b 44 24 5c       	mov    r8d,DWORD PTR [rsp+0x5c]
    b6e7:	8b 4c 24 24          	mov    ecx,DWORD PTR [rsp+0x24]
    b6eb:	8b 54 24 28          	mov    edx,DWORD PTR [rsp+0x28]
    b6ef:	44 8b 74 24 3c       	mov    r14d,DWORD PTR [rsp+0x3c]
    b6f4:	44 89 f6             	mov    esi,r14d
    b6f7:	4c 89 ff             	mov    rdi,r15
    b6fa:	e8 0c 38 00 00       	call   ef0b <__sprintf_chk@plt+0xdbbb>
    b6ff:	48 83 c4 20          	add    rsp,0x20
    b703:	e9 13 f7 ff ff       	jmp    ae1b <__sprintf_chk@plt+0x9acb>
    b708:	83 7c 24 4c 00       	cmp    DWORD PTR [rsp+0x4c],0x0
    b70d:	0f 95 c2             	setne  dl
    b710:	41 83 fe 01          	cmp    r14d,0x1
    b714:	75 0f                	jne    b725 <__sprintf_chk@plt+0xa3d5>
    b716:	84 d2                	test   dl,dl
    b718:	74 0b                	je     b725 <__sprintf_chk@plt+0xa3d5>
    b71a:	41 be 02 00 00 00    	mov    r14d,0x2
    b720:	e9 be 00 00 00       	jmp    b7e3 <__sprintf_chk@plt+0xa493>
    b725:	8b 44 24 10          	mov    eax,DWORD PTR [rsp+0x10]
    b729:	f7 d0                	not    eax
    b72b:	c1 e8 1f             	shr    eax,0x1f
    b72e:	84 c2                	test   dl,al
    b730:	74 1e                	je     b750 <__sprintf_chk@plt+0xa400>
    b732:	41 83 fe 02          	cmp    r14d,0x2
    b736:	75 18                	jne    b750 <__sprintf_chk@plt+0xa400>
    b738:	8b 44 24 40          	mov    eax,DWORD PTR [rsp+0x40]
    b73c:	83 c0 31             	add    eax,0x31
    b73f:	3b 44 24 14          	cmp    eax,DWORD PTR [rsp+0x14]
    b743:	7c 0b                	jl     b750 <__sprintf_chk@plt+0xa400>
    b745:	41 be 03 00 00 00    	mov    r14d,0x3
    b74b:	e9 93 00 00 00       	jmp    b7e3 <__sprintf_chk@plt+0xa493>
    b750:	83 7c 24 38 00       	cmp    DWORD PTR [rsp+0x38],0x0
    b755:	74 1a                	je     b771 <__sprintf_chk@plt+0xa421>
    b757:	83 7c 24 30 00       	cmp    DWORD PTR [rsp+0x30],0x0
    b75c:	74 13                	je     b771 <__sprintf_chk@plt+0xa421>
    b75e:	41 8b 87 d8 01 00 00 	mov    eax,DWORD PTR [r15+0x1d8]
    b765:	44 8d b0 00 83 ff ff 	lea    r14d,[rax-0x7d00]
    b76c:	e9 6f fc ff ff       	jmp    b3e0 <__sprintf_chk@plt+0xa090>
    b771:	44 8b 74 24 14       	mov    r14d,DWORD PTR [rsp+0x14]
    b776:	e9 65 fc ff ff       	jmp    b3e0 <__sprintf_chk@plt+0xa090>
    b77b:	8b 44 24 54          	mov    eax,DWORD PTR [rsp+0x54]
    b77f:	89 44 24 3c          	mov    DWORD PTR [rsp+0x3c],eax
    b783:	83 7c 24 10 fb       	cmp    DWORD PTR [rsp+0x10],0xfffffffb
    b788:	0f 8d 24 fa ff ff    	jge    b1b2 <__sprintf_chk@plt+0x9e62>
    b78e:	48 8d 74 24 60       	lea    rsi,[rsp+0x60]
    b793:	8b 54 24 30          	mov    edx,DWORD PTR [rsp+0x30]
    b797:	4c 89 ff             	mov    rdi,r15
    b79a:	e8 eb ad ff ff       	call   658a <__sprintf_chk@plt+0x523a>
    b79f:	89 44 24 18          	mov    DWORD PTR [rsp+0x18],eax
    b7a3:	44 89 74 24 48       	mov    DWORD PTR [rsp+0x48],r14d
    b7a8:	8b 44 24 08          	mov    eax,DWORD PTR [rsp+0x8]
    b7ac:	89 44 24 14          	mov    DWORD PTR [rsp+0x14],eax
    b7b0:	44 89 74 24 4c       	mov    DWORD PTR [rsp+0x4c],r14d
    b7b5:	bb 01 00 00 00       	mov    ebx,0x1
    b7ba:	c7 44 24 38 01 00 00 	mov    DWORD PTR [rsp+0x38],0x1
    b7c1:	00 
    b7c2:	c7 44 24 1c 00 83 ff 	mov    DWORD PTR [rsp+0x1c],0xffff8300
    b7c9:	ff 
    b7ca:	48 8d 44 24 60       	lea    rax,[rsp+0x60]
    b7cf:	48 89 44 24 20       	mov    QWORD PTR [rsp+0x20],rax
    b7d4:	4c 8d 2d 85 6e 00 00 	lea    r13,[rip+0x6e85]        # 12660 <__sprintf_chk@plt+0x11310>
    b7db:	44 89 74 24 34       	mov    DWORD PTR [rsp+0x34],r14d
    b7e0:	41 89 de             	mov    r14d,ebx
    b7e3:	41 83 fe 02          	cmp    r14d,0x2
    b7e7:	0f 84 fc f9 ff ff    	je     b1e9 <__sprintf_chk@plt+0x9e99>
    b7ed:	41 83 fe 03          	cmp    r14d,0x3
    b7f1:	0f 84 08 fa ff ff    	je     b1ff <__sprintf_chk@plt+0x9eaf>
    b7f7:	44 8b 64 24 54       	mov    r12d,DWORD PTR [rsp+0x54]
    b7fc:	8b 44 24 18          	mov    eax,DWORD PTR [rsp+0x18]
    b800:	85 c0                	test   eax,eax
    b802:	0f 8e 7d fb ff ff    	jle    b385 <__sprintf_chk@plt+0xa035>
    b808:	8d 40 ff             	lea    eax,[rax-0x1]
    b80b:	48 89 44 24 28       	mov    QWORD PTR [rsp+0x28],rax
    b810:	bb 00 00 00 00       	mov    ebx,0x0
    b815:	44 89 74 24 44       	mov    DWORD PTR [rsp+0x44],r14d
    b81a:	4c 8b 74 24 20       	mov    r14,QWORD PTR [rsp+0x20]
    b81f:	e9 51 fa ff ff       	jmp    b275 <__sprintf_chk@plt+0x9f25>
    b824:	8b 44 24 40          	mov    eax,DWORD PTR [rsp+0x40]
    b828:	89 44 24 14          	mov    DWORD PTR [rsp+0x14],eax
    b82c:	8b 44 24 40          	mov    eax,DWORD PTR [rsp+0x40]
    b830:	83 c0 32             	add    eax,0x32
    b833:	8b 5c 24 14          	mov    ebx,DWORD PTR [rsp+0x14]
    b837:	29 c3                	sub    ebx,eax
    b839:	89 5c 24 48          	mov    DWORD PTR [rsp+0x48],ebx
    b83d:	8b 44 24 54          	mov    eax,DWORD PTR [rsp+0x54]
    b841:	89 44 24 3c          	mov    DWORD PTR [rsp+0x3c],eax
    b845:	83 7c 24 10 fb       	cmp    DWORD PTR [rsp+0x10],0xfffffffb
    b84a:	7c 32                	jl     b87e <__sprintf_chk@plt+0xa52e>
    b84c:	48 8d 74 24 60       	lea    rsi,[rsp+0x60]
    b851:	4c 89 ff             	mov    rdi,r15
    b854:	e8 ef 9e ff ff       	call   5748 <__sprintf_chk@plt+0x43f8>
    b859:	89 44 24 18          	mov    DWORD PTR [rsp+0x18],eax
    b85d:	c7 44 24 4c 01 00 00 	mov    DWORD PTR [rsp+0x4c],0x1
    b864:	00 
    b865:	e9 4b ff ff ff       	jmp    b7b5 <__sprintf_chk@plt+0xa465>
    b86a:	8b 44 24 08          	mov    eax,DWORD PTR [rsp+0x8]
    b86e:	89 44 24 14          	mov    DWORD PTR [rsp+0x14],eax
    b872:	eb b8                	jmp    b82c <__sprintf_chk@plt+0xa4dc>
    b874:	8b 44 24 08          	mov    eax,DWORD PTR [rsp+0x8]
    b878:	89 44 24 14          	mov    DWORD PTR [rsp+0x14],eax
    b87c:	eb ae                	jmp    b82c <__sprintf_chk@plt+0xa4dc>
    b87e:	48 8d 74 24 60       	lea    rsi,[rsp+0x60]
    b883:	4c 89 ff             	mov    rdi,r15
    b886:	e8 bd 9e ff ff       	call   5748 <__sprintf_chk@plt+0x43f8>
    b88b:	89 44 24 18          	mov    DWORD PTR [rsp+0x18],eax
    b88f:	8b 44 24 30          	mov    eax,DWORD PTR [rsp+0x30]
    b893:	89 44 24 4c          	mov    DWORD PTR [rsp+0x4c],eax
    b897:	e9 19 ff ff ff       	jmp    b7b5 <__sprintf_chk@plt+0xa465>
    b89c:	44 8b 74 24 34       	mov    r14d,DWORD PTR [rsp+0x34]
    b8a1:	e9 75 f5 ff ff       	jmp    ae1b <__sprintf_chk@plt+0x9acb>
    b8a6:	e8 95 59 ff ff       	call   1240 <__stack_chk_fail@plt>
    b8ab:	f3 0f 1e fa          	endbr64 
    b8af:	41 57                	push   r15
    b8b1:	41 56                	push   r14
    b8b3:	41 55                	push   r13
    b8b5:	41 54                	push   r12
    b8b7:	55                   	push   rbp
    b8b8:	53                   	push   rbx
    b8b9:	48 81 ec d8 0b 00 00 	sub    rsp,0xbd8
    b8c0:	49 89 ff             	mov    r15,rdi
    b8c3:	41 89 f5             	mov    r13d,esi
    b8c6:	89 d5                	mov    ebp,edx
    b8c8:	44 89 4c 24 04       	mov    DWORD PTR [rsp+0x4],r9d
    b8cd:	64 48 8b 04 25 28 00 	mov    rax,QWORD PTR fs:0x28
    b8d4:	00 00 
    b8d6:	48 89 84 24 c8 0b 00 	mov    QWORD PTR [rsp+0xbc8],rax
    b8dd:	00 
    b8de:	31 c0                	xor    eax,eax
    b8e0:	85 c9                	test   ecx,ecx
    b8e2:	7e 0f                	jle    b8f3 <__sprintf_chk@plt+0xa5a3>
    b8e4:	41 89 ce             	mov    r14d,ecx
    b8e7:	45 89 c4             	mov    r12d,r8d
    b8ea:	83 bf d8 01 00 00 3b 	cmp    DWORD PTR [rdi+0x1d8],0x3b
    b8f1:	7e 45                	jle    b938 <__sprintf_chk@plt+0xa5e8>
    b8f3:	41 b8 00 00 00 00    	mov    r8d,0x0
    b8f9:	b9 00 00 00 00       	mov    ecx,0x0
    b8fe:	89 ea                	mov    edx,ebp
    b900:	44 89 ee             	mov    esi,r13d
    b903:	4c 89 ff             	mov    rdi,r15
    b906:	e8 a0 f4 ff ff       	call   adab <__sprintf_chk@plt+0x9a5b>
    b90b:	89 c3                	mov    ebx,eax
    b90d:	48 8b 84 24 c8 0b 00 	mov    rax,QWORD PTR [rsp+0xbc8]
    b914:	00 
    b915:	64 48 33 04 25 28 00 	xor    rax,QWORD PTR fs:0x28
    b91c:	00 00 
    b91e:	0f 85 59 19 00 00    	jne    d27d <__sprintf_chk@plt+0xbf2d>
    b924:	89 d8                	mov    eax,ebx
    b926:	48 81 c4 d8 0b 00 00 	add    rsp,0xbd8
    b92d:	5b                   	pop    rbx
    b92e:	5d                   	pop    rbp
    b92f:	41 5c                	pop    r12
    b931:	41 5d                	pop    r13
    b933:	41 5e                	pop    r14
    b935:	41 5f                	pop    r15
    b937:	c3                   	ret    
    b938:	48 ff 87 f0 0f 00 00 	inc    QWORD PTR [rdi+0xff0]
    b93f:	e8 e9 ed ff ff       	call   a72d <__sprintf_chk@plt+0x93dd>
    b944:	bb 00 00 00 00       	mov    ebx,0x0
    b949:	85 c0                	test   eax,eax
    b94b:	75 c0                	jne    b90d <__sprintf_chk@plt+0xa5bd>
    b94d:	4c 89 fe             	mov    rsi,r15
    b950:	48 8d 3d e9 2a b7 00 	lea    rdi,[rip+0xb72ae9]        # b7e440 <stdin@@GLIBC_2.2.5+0xb67410>
    b957:	e8 57 73 ff ff       	call   2cb3 <__sprintf_chk@plt+0x1963>
    b95c:	89 44 24 0c          	mov    DWORD PTR [rsp+0xc],eax
    b960:	85 c0                	test   eax,eax
    b962:	0f 85 a0 00 00 00    	jne    ba08 <__sprintf_chk@plt+0xa6b8>
    b968:	41 83 bf dc 01 00 00 	cmp    DWORD PTR [r15+0x1dc],0x63
    b96f:	63 
    b970:	0f 8f 92 00 00 00    	jg     ba08 <__sprintf_chk@plt+0xa6b8>
    b976:	41 8b 87 d8 01 00 00 	mov    eax,DWORD PTR [r15+0x1d8]
    b97d:	8d 98 00 83 ff ff    	lea    ebx,[rax-0x7d00]
    b983:	44 39 eb             	cmp    ebx,r13d
    b986:	0f 8f 9c 00 00 00    	jg     ba28 <__sprintf_chk@plt+0xa6d8>
    b98c:	ba ff 7c 00 00       	mov    edx,0x7cff
    b991:	29 c2                	sub    edx,eax
    b993:	89 54 24 08          	mov    DWORD PTR [rsp+0x8],edx
    b997:	39 d5                	cmp    ebp,edx
    b999:	0f 8e 99 00 00 00    	jle    ba38 <__sprintf_chk@plt+0xa6e8>
    b99f:	89 d3                	mov    ebx,edx
    b9a1:	41 39 d5             	cmp    r13d,edx
    b9a4:	0f 8d 63 ff ff ff    	jge    b90d <__sprintf_chk@plt+0xa5bd>
    b9aa:	48 8d 74 24 60       	lea    rsi,[rsp+0x60]
    b9af:	41 56                	push   r14
    b9b1:	48 8d 44 24 7c       	lea    rax,[rsp+0x7c]
    b9b6:	50                   	push   rax
    b9b7:	48 8d 84 24 80 00 00 	lea    rax,[rsp+0x80]
    b9be:	00 
    b9bf:	50                   	push   rax
    b9c0:	48 8d 84 24 80 00 00 	lea    rax,[rsp+0x80]
    b9c7:	00 
    b9c8:	50                   	push   rax
    b9c9:	4c 8d 8c 24 84 00 00 	lea    r9,[rsp+0x84]
    b9d0:	00 
    b9d1:	4c 8d 84 24 8c 00 00 	lea    r8,[rsp+0x8c]
    b9d8:	00 
    b9d9:	8b 4c 24 28          	mov    ecx,DWORD PTR [rsp+0x28]
    b9dd:	44 89 ea             	mov    edx,r13d
    b9e0:	4c 89 ff             	mov    rdi,r15
    b9e3:	e8 51 37 00 00       	call   f139 <__sprintf_chk@plt+0xdde9>
    b9e8:	48 83 c4 20          	add    rsp,0x20
    b9ec:	83 f8 04             	cmp    eax,0x4
    b9ef:	0f 87 9a 00 00 00    	ja     ba8f <__sprintf_chk@plt+0xa73f>
    b9f5:	89 c0                	mov    eax,eax
    b9f7:	48 8d 15 c2 76 00 00 	lea    rdx,[rip+0x76c2]        # 130c0 <__sprintf_chk@plt+0x11d70>
    b9fe:	48 63 04 82          	movsxd rax,DWORD PTR [rdx+rax*4]
    ba02:	48 01 d0             	add    rax,rdx
    ba05:	3e ff e0             	notrack jmp rax
    ba08:	8b 1d c2 23 b3 00    	mov    ebx,DWORD PTR [rip+0xb323c2]        # b3ddd0 <stdin@@GLIBC_2.2.5+0xb26da0>
    ba0e:	41 8b 87 cc 01 00 00 	mov    eax,DWORD PTR [r15+0x1cc]
    ba15:	39 05 31 2a b7 00    	cmp    DWORD PTR [rip+0xb72a31],eax        # b7e44c <stdin@@GLIBC_2.2.5+0xb6741c>
    ba1b:	0f 84 ec fe ff ff    	je     b90d <__sprintf_chk@plt+0xa5bd>
    ba21:	f7 db                	neg    ebx
    ba23:	e9 e5 fe ff ff       	jmp    b90d <__sprintf_chk@plt+0xa5bd>
    ba28:	39 eb                	cmp    ebx,ebp
    ba2a:	0f 8d dd fe ff ff    	jge    b90d <__sprintf_chk@plt+0xa5bd>
    ba30:	41 89 dd             	mov    r13d,ebx
    ba33:	e9 54 ff ff ff       	jmp    b98c <__sprintf_chk@plt+0xa63c>
    ba38:	89 6c 24 08          	mov    DWORD PTR [rsp+0x8],ebp
    ba3c:	e9 69 ff ff ff       	jmp    b9aa <__sprintf_chk@plt+0xa65a>
    ba41:	8b 5c 24 60          	mov    ebx,DWORD PTR [rsp+0x60]
    ba45:	e9 c3 fe ff ff       	jmp    b90d <__sprintf_chk@plt+0xa5bd>
    ba4a:	8b 5c 24 60          	mov    ebx,DWORD PTR [rsp+0x60]
    ba4e:	44 39 eb             	cmp    ebx,r13d
    ba51:	0f 8e b6 fe ff ff    	jle    b90d <__sprintf_chk@plt+0xa5bd>
    ba57:	8b 44 24 0c          	mov    eax,DWORD PTR [rsp+0xc]
    ba5b:	89 44 24 04          	mov    DWORD PTR [rsp+0x4],eax
    ba5f:	eb 2e                	jmp    ba8f <__sprintf_chk@plt+0xa73f>
    ba61:	8b 5c 24 60          	mov    ebx,DWORD PTR [rsp+0x60]
    ba65:	3b 5c 24 08          	cmp    ebx,DWORD PTR [rsp+0x8]
    ba69:	0f 8d 9e fe ff ff    	jge    b90d <__sprintf_chk@plt+0xa5bd>
    ba6f:	c7 44 24 04 01 00 00 	mov    DWORD PTR [rsp+0x4],0x1
    ba76:	00 
    ba77:	eb 16                	jmp    ba8f <__sprintf_chk@plt+0xa73f>
    ba79:	8b 44 24 08          	mov    eax,DWORD PTR [rsp+0x8]
    ba7d:	39 44 24 60          	cmp    DWORD PTR [rsp+0x60],eax
    ba81:	b8 01 00 00 00       	mov    eax,0x1
    ba86:	0f 4c 44 24 04       	cmovl  eax,DWORD PTR [rsp+0x4]
    ba8b:	89 44 24 04          	mov    DWORD PTR [rsp+0x4],eax
    ba8f:	49 63 87 d8 01 00 00 	movsxd rax,DWORD PTR [r15+0x1d8]
    ba96:	41 8b 9c 87 04 10 00 	mov    ebx,DWORD PTR [r15+rax*4+0x1004]
    ba9d:	00 
    ba9e:	89 5c 24 2c          	mov    DWORD PTR [rsp+0x2c],ebx
    baa2:	4c 89 ff             	mov    rdi,r15
    baa5:	e8 07 d9 ff ff       	call   93b1 <__sprintf_chk@plt+0x8061>
    baaa:	89 44 24 28          	mov    DWORD PTR [rsp+0x28],eax
    baae:	85 db                	test   ebx,ebx
    bab0:	75 0e                	jne    bac0 <__sprintf_chk@plt+0xa770>
    bab2:	41 8d 45 01          	lea    eax,[r13+0x1]
    bab6:	3b 44 24 08          	cmp    eax,DWORD PTR [rsp+0x8]
    baba:	0f 84 0a 01 00 00    	je     bbca <__sprintf_chk@plt+0xa87a>
    bac0:	41 8b 87 ac 01 00 00 	mov    eax,DWORD PTR [r15+0x1ac]
    bac7:	41 03 87 b4 01 00 00 	add    eax,DWORD PTR [r15+0x1b4]
    bace:	41 03 87 bc 01 00 00 	add    eax,DWORD PTR [r15+0x1bc]
    bad5:	41 03 87 9c 01 00 00 	add    eax,DWORD PTR [r15+0x19c]
    badc:	89 c3                	mov    ebx,eax
    bade:	89 44 24 40          	mov    DWORD PTR [rsp+0x40],eax
    bae2:	41 8b 87 b0 01 00 00 	mov    eax,DWORD PTR [r15+0x1b0]
    bae9:	41 03 87 b8 01 00 00 	add    eax,DWORD PTR [r15+0x1b8]
    baf0:	41 03 87 c0 01 00 00 	add    eax,DWORD PTR [r15+0x1c0]
    baf7:	41 03 87 a0 01 00 00 	add    eax,DWORD PTR [r15+0x1a0]
    bafe:	89 44 24 44          	mov    DWORD PTR [rsp+0x44],eax
    bb02:	c7 44 24 64 00 00 00 	mov    DWORD PTR [rsp+0x64],0x0
    bb09:	00 
    bb0a:	45 85 e4             	test   r12d,r12d
    bb0d:	75 1a                	jne    bb29 <__sprintf_chk@plt+0xa7d9>
    bb0f:	41 83 bf cc 01 00 00 	cmp    DWORD PTR [r15+0x1cc],0x0
    bb16:	00 
    bb17:	0f 45 c3             	cmovne eax,ebx
    bb1a:	85 c0                	test   eax,eax
    bb1c:	74 0b                	je     bb29 <__sprintf_chk@plt+0xa7d9>
    bb1e:	83 7c 24 2c 00       	cmp    DWORD PTR [rsp+0x2c],0x0
    bb23:	0f 84 8c 01 00 00    	je     bcb5 <__sprintf_chk@plt+0xa965>
    bb29:	41 8d 45 01          	lea    eax,[r13+0x1]
    bb2d:	3b 44 24 08          	cmp    eax,DWORD PTR [rsp+0x8]
    bb31:	75 0a                	jne    bb3d <__sprintf_chk@plt+0xa7ed>
    bb33:	41 83 fe 0c          	cmp    r14d,0xc
    bb37:	0f 8e 9c 04 00 00    	jle    bfd9 <__sprintf_chk@plt+0xac89>
    bb3d:	8b 54 24 2c          	mov    edx,DWORD PTR [rsp+0x2c]
    bb41:	85 d2                	test   edx,edx
    bb43:	0f 84 9b 01 00 00    	je     bce4 <__sprintf_chk@plt+0xa994>
    bb49:	48 8d b4 24 80 00 00 	lea    rsi,[rsp+0x80]
    bb50:	00 
    bb51:	4c 89 ff             	mov    rdi,r15
    bb54:	e8 31 aa ff ff       	call   658a <__sprintf_chk@plt+0x523a>
    bb59:	89 44 24 1c          	mov    DWORD PTR [rsp+0x1c],eax
    bb5d:	89 c5                	mov    ebp,eax
    bb5f:	85 c0                	test   eax,eax
    bb61:	0f 85 fd 04 00 00    	jne    c064 <__sprintf_chk@plt+0xad14>
    bb67:	48 8d 94 24 40 04 00 	lea    rdx,[rsp+0x440]
    bb6e:	00 
    bb6f:	48 8d b4 24 80 00 00 	lea    rsi,[rsp+0x80]
    bb76:	00 
    bb77:	44 8b 44 24 6c       	mov    r8d,DWORD PTR [rsp+0x6c]
    bb7c:	8b 4c 24 1c          	mov    ecx,DWORD PTR [rsp+0x1c]
    bb80:	4c 89 ff             	mov    rdi,r15
    bb83:	e8 99 ed ff ff       	call   a921 <__sprintf_chk@plt+0x95d1>
    bb88:	41 83 fe 13          	cmp    r14d,0x13
    bb8c:	0f 8e 99 05 00 00    	jle    c12b <__sprintf_chk@plt+0xaddb>
    bb92:	41 8d 45 01          	lea    eax,[r13+0x1]
    bb96:	39 44 24 08          	cmp    DWORD PTR [rsp+0x8],eax
    bb9a:	0f 85 49 05 00 00    	jne    c0e9 <__sprintf_chk@plt+0xad99>
    bba0:	e9 5d 05 00 00       	jmp    c102 <__sprintf_chk@plt+0xadb2>
    bba5:	c7 44 24 6c ff ff 00 	mov    DWORD PTR [rsp+0x6c],0xffff
    bbac:	00 
    bbad:	c7 44 24 64 00 00 00 	mov    DWORD PTR [rsp+0x64],0x0
    bbb4:	00 
    bbb5:	c7 44 24 70 00 00 00 	mov    DWORD PTR [rsp+0x70],0x0
    bbbc:	00 
    bbbd:	c7 44 24 74 00 00 00 	mov    DWORD PTR [rsp+0x74],0x0
    bbc4:	00 
    bbc5:	e9 c5 fe ff ff       	jmp    ba8f <__sprintf_chk@plt+0xa73f>
    bbca:	41 83 fe 04          	cmp    r14d,0x4
    bbce:	0f 8f 81 00 00 00    	jg     bc55 <__sprintf_chk@plt+0xa905>
    bbd4:	8b 44 24 28          	mov    eax,DWORD PTR [rsp+0x28]
    bbd8:	83 e8 4a             	sub    eax,0x4a
    bbdb:	3b 44 24 08          	cmp    eax,DWORD PTR [rsp+0x8]
    bbdf:	7f 2f                	jg     bc10 <__sprintf_chk@plt+0xa8c0>
    bbe1:	8b 5c 24 28          	mov    ebx,DWORD PTR [rsp+0x28]
    bbe5:	39 5c 24 08          	cmp    DWORD PTR [rsp+0x8],ebx
    bbe9:	0f 8e d1 fe ff ff    	jle    bac0 <__sprintf_chk@plt+0xa770>
    bbef:	41 b8 00 00 00 00    	mov    r8d,0x0
    bbf5:	b9 00 00 00 00       	mov    ecx,0x0
    bbfa:	8b 54 24 08          	mov    edx,DWORD PTR [rsp+0x8]
    bbfe:	44 89 ee             	mov    esi,r13d
    bc01:	4c 89 ff             	mov    rdi,r15
    bc04:	e8 a2 f1 ff ff       	call   adab <__sprintf_chk@plt+0x9a5b>
    bc09:	89 c3                	mov    ebx,eax
    bc0b:	e9 fd fc ff ff       	jmp    b90d <__sprintf_chk@plt+0xa5bd>
    bc10:	8b 5c 24 28          	mov    ebx,DWORD PTR [rsp+0x28]
    bc14:	8d 73 b5             	lea    esi,[rbx-0x4b]
    bc17:	48 83 ec 08          	sub    rsp,0x8
    bc1b:	41 56                	push   r14
    bc1d:	8b 84 24 84 00 00 00 	mov    eax,DWORD PTR [rsp+0x84]
    bc24:	50                   	push   rax
    bc25:	8b 84 24 88 00 00 00 	mov    eax,DWORD PTR [rsp+0x88]
    bc2c:	50                   	push   rax
    bc2d:	44 8b 8c 24 84 00 00 	mov    r9d,DWORD PTR [rsp+0x84]
    bc34:	00 
    bc35:	44 8b 84 24 8c 00 00 	mov    r8d,DWORD PTR [rsp+0x8c]
    bc3c:	00 
    bc3d:	8b 4c 24 28          	mov    ecx,DWORD PTR [rsp+0x28]
    bc41:	44 89 ea             	mov    edx,r13d
    bc44:	4c 89 ff             	mov    rdi,r15
    bc47:	e8 bf 32 00 00       	call   ef0b <__sprintf_chk@plt+0xdbbb>
    bc4c:	48 83 c4 20          	add    rsp,0x20
    bc50:	e9 b8 fc ff ff       	jmp    b90d <__sprintf_chk@plt+0xa5bd>
    bc55:	41 83 fe 08          	cmp    r14d,0x8
    bc59:	0f 8f 61 fe ff ff    	jg     bac0 <__sprintf_chk@plt+0xa770>
    bc5f:	8b 44 24 28          	mov    eax,DWORD PTR [rsp+0x28]
    bc63:	83 e8 7c             	sub    eax,0x7c
    bc66:	3b 44 24 08          	cmp    eax,DWORD PTR [rsp+0x8]
    bc6a:	0f 8e 50 fe ff ff    	jle    bac0 <__sprintf_chk@plt+0xa770>
    bc70:	8b 5c 24 28          	mov    ebx,DWORD PTR [rsp+0x28]
    bc74:	8d 73 83             	lea    esi,[rbx-0x7d]
    bc77:	48 83 ec 08          	sub    rsp,0x8
    bc7b:	41 56                	push   r14
    bc7d:	8b 84 24 84 00 00 00 	mov    eax,DWORD PTR [rsp+0x84]
    bc84:	50                   	push   rax
    bc85:	8b 84 24 88 00 00 00 	mov    eax,DWORD PTR [rsp+0x88]
    bc8c:	50                   	push   rax
    bc8d:	44 8b 8c 24 84 00 00 	mov    r9d,DWORD PTR [rsp+0x84]
    bc94:	00 
    bc95:	44 8b 84 24 8c 00 00 	mov    r8d,DWORD PTR [rsp+0x8c]
    bc9c:	00 
    bc9d:	8b 4c 24 28          	mov    ecx,DWORD PTR [rsp+0x28]
    bca1:	44 89 ea             	mov    edx,r13d
    bca4:	4c 89 ff             	mov    rdi,r15
    bca7:	e8 5f 32 00 00       	call   ef0b <__sprintf_chk@plt+0xdbbb>
    bcac:	48 83 c4 20          	add    rsp,0x20
    bcb0:	e9 58 fc ff ff       	jmp    b90d <__sprintf_chk@plt+0xa5bd>
    bcb5:	83 7c 24 68 00       	cmp    DWORD PTR [rsp+0x68],0x0
    bcba:	74 14                	je     bcd0 <__sprintf_chk@plt+0xa980>
    bcbc:	41 8d 45 01          	lea    eax,[r13+0x1]
    bcc0:	3b 44 24 08          	cmp    eax,DWORD PTR [rsp+0x8]
    bcc4:	75 0a                	jne    bcd0 <__sprintf_chk@plt+0xa980>
    bcc6:	41 83 fe 04          	cmp    r14d,0x4
    bcca:	0f 8f 14 01 00 00    	jg     bde4 <__sprintf_chk@plt+0xaa94>
    bcd0:	41 8d 45 01          	lea    eax,[r13+0x1]
    bcd4:	3b 44 24 08          	cmp    eax,DWORD PTR [rsp+0x8]
    bcd8:	75 0a                	jne    bce4 <__sprintf_chk@plt+0xa994>
    bcda:	41 83 fe 0c          	cmp    r14d,0xc
    bcde:	0f 8e 81 15 00 00    	jle    d265 <__sprintf_chk@plt+0xbf15>
    bce4:	48 8d 9c 24 80 00 00 	lea    rbx,[rsp+0x80]
    bceb:	00 
    bcec:	48 89 de             	mov    rsi,rbx
    bcef:	4c 89 ff             	mov    rdi,r15
    bcf2:	e8 9b 90 ff ff       	call   4d92 <__sprintf_chk@plt+0x3a42>
    bcf7:	89 c5                	mov    ebp,eax
    bcf9:	89 44 24 1c          	mov    DWORD PTR [rsp+0x1c],eax
    bcfd:	48 8d 94 24 40 04 00 	lea    rdx,[rsp+0x440]
    bd04:	00 
    bd05:	44 8b 44 24 6c       	mov    r8d,DWORD PTR [rsp+0x6c]
    bd0a:	89 c1                	mov    ecx,eax
    bd0c:	48 89 de             	mov    rsi,rbx
    bd0f:	4c 89 ff             	mov    rdi,r15
    bd12:	e8 0a ec ff ff       	call   a921 <__sprintf_chk@plt+0x95d1>
    bd17:	41 83 fe 13          	cmp    r14d,0x13
    bd1b:	0f 8f b8 03 00 00    	jg     c0d9 <__sprintf_chk@plt+0xad89>
    bd21:	83 7c 24 64 00       	cmp    DWORD PTR [rsp+0x64],0x0
    bd26:	0f 85 d6 03 00 00    	jne    c102 <__sprintf_chk@plt+0xadb2>
    bd2c:	41 83 fe 0f          	cmp    r14d,0xf
    bd30:	0f 8e cc 03 00 00    	jle    c102 <__sprintf_chk@plt+0xadb2>
    bd36:	83 fd 08             	cmp    ebp,0x8
    bd39:	0f 8e c3 03 00 00    	jle    c102 <__sprintf_chk@plt+0xadb2>
    bd3f:	41 8b 97 d8 01 00 00 	mov    edx,DWORD PTR [r15+0x1d8]
    bd46:	48 63 c2             	movsxd rax,edx
    bd49:	49 8d 04 87          	lea    rax,[r15+rax*4]
    bd4d:	44 8b a0 00 10 00 00 	mov    r12d,DWORD PTR [rax+0x1000]
    bd54:	45 85 e4             	test   r12d,r12d
    bd57:	0f 85 a5 03 00 00    	jne    c102 <__sprintf_chk@plt+0xadb2>
    bd5d:	83 fa 02             	cmp    edx,0x2
    bd60:	7e 0d                	jle    bd6f <__sprintf_chk@plt+0xaa1f>
    bd62:	83 b8 fc 0f 00 00 00 	cmp    DWORD PTR [rax+0xffc],0x0
    bd69:	0f 85 93 03 00 00    	jne    c102 <__sprintf_chk@plt+0xadb2>
    bd6f:	83 fa 03             	cmp    edx,0x3
    bd72:	7e 0d                	jle    bd81 <__sprintf_chk@plt+0xaa31>
    bd74:	83 b8 f8 0f 00 00 00 	cmp    DWORD PTR [rax+0xff8],0x0
    bd7b:	0f 85 81 03 00 00    	jne    c102 <__sprintf_chk@plt+0xadb2>
    bd81:	c7 44 24 5c ff ff ff 	mov    DWORD PTR [rsp+0x5c],0xffffffff
    bd88:	ff 
    bd89:	48 8d 94 24 80 00 00 	lea    rdx,[rsp+0x80]
    bd90:	00 
    bd91:	48 8d b4 24 40 04 00 	lea    rsi,[rsp+0x440]
    bd98:	00 
    bd99:	48 8d 7c 24 5c       	lea    rdi,[rsp+0x5c]
    bd9e:	8b 4c 24 1c          	mov    ecx,DWORD PTR [rsp+0x1c]
    bda2:	e8 08 e9 ff ff       	call   a6af <__sprintf_chk@plt+0x935f>
    bda7:	85 c0                	test   eax,eax
    bda9:	0f 84 53 03 00 00    	je     c102 <__sprintf_chk@plt+0xadb2>
    bdaf:	48 8d 1d 8a 26 b7 00 	lea    rbx,[rip+0xb7268a]        # b7e440 <stdin@@GLIBC_2.2.5+0xb67410>
    bdb6:	41 8d 46 f0          	lea    eax,[r14-0x10]
    bdba:	89 44 24 20          	mov    DWORD PTR [rsp+0x20],eax
    bdbe:	b8 32 00 00 00       	mov    eax,0x32
    bdc3:	44 29 e8             	sub    eax,r13d
    bdc6:	89 44 24 24          	mov    DWORD PTR [rsp+0x24],eax
    bdca:	89 6c 24 18          	mov    DWORD PTR [rsp+0x18],ebp
    bdce:	8b 6c 24 08          	mov    ebp,DWORD PTR [rsp+0x8]
    bdd2:	44 89 6c 24 10       	mov    DWORD PTR [rsp+0x10],r13d
    bdd7:	45 89 e5             	mov    r13d,r12d
    bdda:	44 89 74 24 14       	mov    DWORD PTR [rsp+0x14],r14d
    bddf:	e9 2f 06 00 00       	jmp    c413 <__sprintf_chk@plt+0xb0c3>
    bde4:	83 3d 59 26 b7 00 02 	cmp    DWORD PTR [rip+0xb72659],0x2        # b7e444 <stdin@@GLIBC_2.2.5+0xb67414>
    bdeb:	0f 84 1c 01 00 00    	je     bf0d <__sprintf_chk@plt+0xabbd>
    bdf1:	41 8b af c8 01 00 00 	mov    ebp,DWORD PTR [r15+0x1c8]
    bdf8:	41 c7 87 c8 01 00 00 	mov    DWORD PTR [r15+0x1c8],0x0
    bdff:	00 00 00 00 
    be03:	41 83 b7 cc 01 00 00 	xor    DWORD PTR [r15+0x1cc],0x1
    be0a:	01 
    be0b:	41 8b 87 d8 01 00 00 	mov    eax,DWORD PTR [r15+0x1d8]
    be12:	8d 50 01             	lea    edx,[rax+0x1]
    be15:	41 89 97 d8 01 00 00 	mov    DWORD PTR [r15+0x1d8],edx
    be1c:	41 ff 87 dc 01 00 00 	inc    DWORD PTR [r15+0x1dc]
    be23:	48 98                	cdqe   
    be25:	49 8d 04 87          	lea    rax,[r15+rax*4]
    be29:	c7 80 f0 09 00 00 00 	mov    DWORD PTR [rax+0x9f0],0x0
    be30:	00 00 00 
    be33:	c7 80 08 10 00 00 00 	mov    DWORD PTR [rax+0x1008],0x0
    be3a:	00 00 00 
    be3d:	8b 90 f0 0a 00 00    	mov    edx,DWORD PTR [rax+0xaf0]
    be43:	89 90 f4 0a 00 00    	mov    DWORD PTR [rax+0xaf4],edx
    be49:	41 8d 4e f0          	lea    ecx,[r14-0x10]
    be4d:	85 c9                	test   ecx,ecx
    be4f:	0f 8e 1f 01 00 00    	jle    bf74 <__sprintf_chk@plt+0xac24>
    be55:	83 7c 24 04 00       	cmp    DWORD PTR [rsp+0x4],0x0
    be5a:	41 0f 94 c1          	sete   r9b
    be5e:	45 0f b6 c9          	movzx  r9d,r9b
    be62:	ba 01 00 00 00       	mov    edx,0x1
    be67:	8b 44 24 08          	mov    eax,DWORD PTR [rsp+0x8]
    be6b:	29 c2                	sub    edx,eax
    be6d:	f7 d8                	neg    eax
    be6f:	89 c6                	mov    esi,eax
    be71:	41 b8 01 00 00 00    	mov    r8d,0x1
    be77:	4c 89 ff             	mov    rdi,r15
    be7a:	e8 2c fa ff ff       	call   b8ab <__sprintf_chk@plt+0xa55b>
    be7f:	f7 d8                	neg    eax
    be81:	89 c3                	mov    ebx,eax
    be83:	41 ff 8f dc 01 00 00 	dec    DWORD PTR [r15+0x1dc]
    be8a:	41 ff 8f d8 01 00 00 	dec    DWORD PTR [r15+0x1d8]
    be91:	41 83 b7 cc 01 00 00 	xor    DWORD PTR [r15+0x1cc],0x1
    be98:	01 
    be99:	41 89 af c8 01 00 00 	mov    DWORD PTR [r15+0x1c8],ebp
    bea0:	83 3d 99 b2 b7 00 00 	cmp    DWORD PTR [rip+0xb7b299],0x0        # b87140 <stdin@@GLIBC_2.2.5+0xb70110>
    bea7:	0f 85 4d 13 00 00    	jne    d1fa <__sprintf_chk@plt+0xbeaa>
    bead:	39 5c 24 08          	cmp    DWORD PTR [rsp+0x8],ebx
    beb1:	0f 8e e8 00 00 00    	jle    bf9f <__sprintf_chk@plt+0xac4f>
    beb7:	81 fb 58 85 ff ff    	cmp    ebx,0xffff8558
    bebd:	7d 08                	jge    bec7 <__sprintf_chk@plt+0xab77>
    bebf:	c7 44 24 64 01 00 00 	mov    DWORD PTR [rsp+0x64],0x1
    bec6:	00 
    bec7:	48 8d 9c 24 80 00 00 	lea    rbx,[rsp+0x80]
    bece:	00 
    becf:	48 89 de             	mov    rsi,rbx
    bed2:	4c 89 ff             	mov    rdi,r15
    bed5:	e8 b8 8e ff ff       	call   4d92 <__sprintf_chk@plt+0x3a42>
    beda:	89 c5                	mov    ebp,eax
    bedc:	89 44 24 1c          	mov    DWORD PTR [rsp+0x1c],eax
    bee0:	48 8d 94 24 40 04 00 	lea    rdx,[rsp+0x440]
    bee7:	00 
    bee8:	44 8b 44 24 6c       	mov    r8d,DWORD PTR [rsp+0x6c]
    beed:	89 c1                	mov    ecx,eax
    beef:	48 89 de             	mov    rsi,rbx
    bef2:	4c 89 ff             	mov    rdi,r15
    bef5:	e8 27 ea ff ff       	call   a921 <__sprintf_chk@plt+0x95d1>
    befa:	41 83 fe 13          	cmp    r14d,0x13
    befe:	0f 8e 1d fe ff ff    	jle    bd21 <__sprintf_chk@plt+0xa9d1>
    bf04:	8b 6c 24 1c          	mov    ebp,DWORD PTR [rsp+0x1c]
    bf08:	e9 ea 01 00 00       	jmp    c0f7 <__sprintf_chk@plt+0xada7>
    bf0d:	41 8d 4e e8          	lea    ecx,[r14-0x18]
    bf11:	85 c9                	test   ecx,ecx
    bf13:	7e 43                	jle    bf58 <__sprintf_chk@plt+0xac08>
    bf15:	8b 54 24 08          	mov    edx,DWORD PTR [rsp+0x8]
    bf19:	8d 72 ff             	lea    esi,[rdx-0x1]
    bf1c:	44 8b 4c 24 04       	mov    r9d,DWORD PTR [rsp+0x4]
    bf21:	41 b8 01 00 00 00    	mov    r8d,0x1
    bf27:	4c 89 ff             	mov    rdi,r15
    bf2a:	e8 7c f9 ff ff       	call   b8ab <__sprintf_chk@plt+0xa55b>
    bf2f:	83 3d 0a b2 b7 00 00 	cmp    DWORD PTR [rip+0xb7b20a],0x0        # b87140 <stdin@@GLIBC_2.2.5+0xb70110>
    bf36:	0f 85 b6 12 00 00    	jne    d1f2 <__sprintf_chk@plt+0xbea2>
    bf3c:	83 3d 01 25 b7 00 02 	cmp    DWORD PTR [rip+0xb72501],0x2        # b7e444 <stdin@@GLIBC_2.2.5+0xb67414>
    bf43:	0f 85 a8 fe ff ff    	jne    bdf1 <__sprintf_chk@plt+0xaaa1>
    bf49:	39 44 24 08          	cmp    DWORD PTR [rsp+0x8],eax
    bf4d:	0f 8f 74 ff ff ff    	jg     bec7 <__sprintf_chk@plt+0xab77>
    bf53:	e9 99 fe ff ff       	jmp    bdf1 <__sprintf_chk@plt+0xaaa1>
    bf58:	8b 54 24 08          	mov    edx,DWORD PTR [rsp+0x8]
    bf5c:	8d 72 ff             	lea    esi,[rdx-0x1]
    bf5f:	41 b8 00 00 00 00    	mov    r8d,0x0
    bf65:	b9 00 00 00 00       	mov    ecx,0x0
    bf6a:	4c 89 ff             	mov    rdi,r15
    bf6d:	e8 39 ee ff ff       	call   adab <__sprintf_chk@plt+0x9a5b>
    bf72:	eb bb                	jmp    bf2f <__sprintf_chk@plt+0xabdf>
    bf74:	ba 01 00 00 00       	mov    edx,0x1
    bf79:	8b 44 24 08          	mov    eax,DWORD PTR [rsp+0x8]
    bf7d:	29 c2                	sub    edx,eax
    bf7f:	f7 d8                	neg    eax
    bf81:	89 c6                	mov    esi,eax
    bf83:	41 b8 00 00 00 00    	mov    r8d,0x0
    bf89:	b9 00 00 00 00       	mov    ecx,0x0
    bf8e:	4c 89 ff             	mov    rdi,r15
    bf91:	e8 15 ee ff ff       	call   adab <__sprintf_chk@plt+0x9a5b>
    bf96:	f7 d8                	neg    eax
    bf98:	89 c3                	mov    ebx,eax
    bf9a:	e9 e4 fe ff ff       	jmp    be83 <__sprintf_chk@plt+0xab33>
    bf9f:	48 83 ec 08          	sub    rsp,0x8
    bfa3:	41 56                	push   r14
    bfa5:	8b 84 24 84 00 00 00 	mov    eax,DWORD PTR [rsp+0x84]
    bfac:	50                   	push   rax
    bfad:	6a 00                	push   0x0
    bfaf:	44 8b 8c 24 84 00 00 	mov    r9d,DWORD PTR [rsp+0x84]
    bfb6:	00 
    bfb7:	44 8b 84 24 8c 00 00 	mov    r8d,DWORD PTR [rsp+0x8c]
    bfbe:	00 
    bfbf:	8b 4c 24 28          	mov    ecx,DWORD PTR [rsp+0x28]
    bfc3:	44 89 ea             	mov    edx,r13d
    bfc6:	89 de                	mov    esi,ebx
    bfc8:	4c 89 ff             	mov    rdi,r15
    bfcb:	e8 3b 2f 00 00       	call   ef0b <__sprintf_chk@plt+0xdbbb>
    bfd0:	48 83 c4 20          	add    rsp,0x20
    bfd4:	e9 34 f9 ff ff       	jmp    b90d <__sprintf_chk@plt+0xa5bd>
    bfd9:	8b 44 24 08          	mov    eax,DWORD PTR [rsp+0x8]
    bfdd:	2d 2c 01 00 00       	sub    eax,0x12c
    bfe2:	3b 44 24 28          	cmp    eax,DWORD PTR [rsp+0x28]
    bfe6:	0f 8e 51 fb ff ff    	jle    bb3d <__sprintf_chk@plt+0xa7ed>
    bfec:	41 b8 00 00 00 00    	mov    r8d,0x0
    bff2:	b9 00 00 00 00       	mov    ecx,0x0
    bff7:	8b 54 24 08          	mov    edx,DWORD PTR [rsp+0x8]
    bffb:	44 89 ee             	mov    esi,r13d
    bffe:	4c 89 ff             	mov    rdi,r15
    c001:	e8 a5 ed ff ff       	call   adab <__sprintf_chk@plt+0x9a5b>
    c006:	8b 5c 24 0c          	mov    ebx,DWORD PTR [rsp+0xc]
    c00a:	83 3d 2f b1 b7 00 00 	cmp    DWORD PTR [rip+0xb7b12f],0x0        # b87140 <stdin@@GLIBC_2.2.5+0xb70110>
    c011:	0f 85 f6 f8 ff ff    	jne    b90d <__sprintf_chk@plt+0xa5bd>
    c017:	41 39 c5             	cmp    r13d,eax
    c01a:	0f 8c 1d fb ff ff    	jl     bb3d <__sprintf_chk@plt+0xa7ed>
    c020:	48 83 ec 08          	sub    rsp,0x8
    c024:	41 56                	push   r14
    c026:	8b 84 24 84 00 00 00 	mov    eax,DWORD PTR [rsp+0x84]
    c02d:	50                   	push   rax
    c02e:	8b 84 24 88 00 00 00 	mov    eax,DWORD PTR [rsp+0x88]
    c035:	50                   	push   rax
    c036:	44 8b 8c 24 84 00 00 	mov    r9d,DWORD PTR [rsp+0x84]
    c03d:	00 
    c03e:	44 8b 84 24 8c 00 00 	mov    r8d,DWORD PTR [rsp+0x8c]
    c045:	00 
    c046:	8b 4c 24 28          	mov    ecx,DWORD PTR [rsp+0x28]
    c04a:	44 89 ea             	mov    edx,r13d
    c04d:	44 89 ee             	mov    esi,r13d
    c050:	4c 89 ff             	mov    rdi,r15
    c053:	e8 b3 2e 00 00       	call   ef0b <__sprintf_chk@plt+0xdbbb>
    c058:	48 83 c4 20          	add    rsp,0x20
    c05c:	44 89 eb             	mov    ebx,r13d
    c05f:	e9 a9 f8 ff ff       	jmp    b90d <__sprintf_chk@plt+0xa5bd>
    c064:	c7 44 24 5c 00 00 00 	mov    DWORD PTR [rsp+0x5c],0x0
    c06b:	00 
    c06c:	8b 5c 24 1c          	mov    ebx,DWORD PTR [rsp+0x1c]
    c070:	85 db                	test   ebx,ebx
    c072:	0f 8e c9 11 00 00    	jle    d241 <__sprintf_chk@plt+0xbef1>
    c078:	8b 44 24 0c          	mov    eax,DWORD PTR [rsp+0xc]
    c07c:	89 c5                	mov    ebp,eax
    c07e:	48 98                	cdqe   
    c080:	8b b4 84 80 00 00 00 	mov    esi,DWORD PTR [rsp+rax*4+0x80]
    c087:	4c 89 ff             	mov    rdi,r15
    c08a:	e8 02 a7 ff ff       	call   6791 <__sprintf_chk@plt+0x5441>
    c08f:	48 63 44 24 5c       	movsxd rax,DWORD PTR [rsp+0x5c]
    c094:	8b b4 84 80 00 00 00 	mov    esi,DWORD PTR [rsp+rax*4+0x80]
    c09b:	4c 89 ff             	mov    rdi,r15
    c09e:	e8 30 b4 ff ff       	call   74d3 <__sprintf_chk@plt+0x6183>
    c0a3:	83 f8 01             	cmp    eax,0x1
    c0a6:	83 dd ff             	sbb    ebp,0xffffffff
    c0a9:	48 63 44 24 5c       	movsxd rax,DWORD PTR [rsp+0x5c]
    c0ae:	8b b4 84 80 00 00 00 	mov    esi,DWORD PTR [rsp+rax*4+0x80]
    c0b5:	4c 89 ff             	mov    rdi,r15
    c0b8:	e8 a0 af ff ff       	call   705d <__sprintf_chk@plt+0x5d0d>
    c0bd:	8b 44 24 5c          	mov    eax,DWORD PTR [rsp+0x5c]
    c0c1:	ff c0                	inc    eax
    c0c3:	89 44 24 5c          	mov    DWORD PTR [rsp+0x5c],eax
    c0c7:	83 fd 01             	cmp    ebp,0x1
    c0ca:	0f 8f 97 fa ff ff    	jg     bb67 <__sprintf_chk@plt+0xa817>
    c0d0:	39 d8                	cmp    eax,ebx
    c0d2:	7c aa                	jl     c07e <__sprintf_chk@plt+0xad2e>
    c0d4:	e9 8e fa ff ff       	jmp    bb67 <__sprintf_chk@plt+0xa817>
    c0d9:	41 8d 45 01          	lea    eax,[r13+0x1]
    c0dd:	8b 5c 24 1c          	mov    ebx,DWORD PTR [rsp+0x1c]
    c0e1:	89 dd                	mov    ebp,ebx
    c0e3:	3b 44 24 08          	cmp    eax,DWORD PTR [rsp+0x8]
    c0e7:	74 0e                	je     c0f7 <__sprintf_chk@plt+0xada7>
    c0e9:	81 7c 24 6c ff ff 00 	cmp    DWORD PTR [rsp+0x6c],0xffff
    c0f0:	00 
    c0f1:	0f 84 ea 00 00 00    	je     c1e1 <__sprintf_chk@plt+0xae91>
    c0f7:	83 7c 24 2c 00       	cmp    DWORD PTR [rsp+0x2c],0x0
    c0fc:	0f 84 1f fc ff ff    	je     bd21 <__sprintf_chk@plt+0xa9d1>
    c102:	44 8b 64 24 70       	mov    r12d,DWORD PTR [rsp+0x70]
    c107:	44 0b 64 24 74       	or     r12d,DWORD PTR [rsp+0x74]
    c10c:	44 0b 64 24 64       	or     r12d,DWORD PTR [rsp+0x64]
    c111:	75 18                	jne    c12b <__sprintf_chk@plt+0xaddb>
    c113:	41 83 fe 13          	cmp    r14d,0x13
    c117:	7e 12                	jle    c12b <__sprintf_chk@plt+0xaddb>
    c119:	83 fd 01             	cmp    ebp,0x1
    c11c:	7e 0d                	jle    c12b <__sprintf_chk@plt+0xaddb>
    c11e:	83 3d 1f 23 b7 00 02 	cmp    DWORD PTR [rip+0xb7231f],0x2        # b7e444 <stdin@@GLIBC_2.2.5+0xb67414>
    c125:	0f 85 f1 03 00 00    	jne    c51c <__sprintf_chk@plt+0xb1cc>
    c12b:	41 8d 45 01          	lea    eax,[r13+0x1]
    c12f:	c6 44 24 3b 00       	mov    BYTE PTR [rsp+0x3b],0x0
    c134:	3b 44 24 08          	cmp    eax,DWORD PTR [rsp+0x8]
    c138:	74 14                	je     c14e <__sprintf_chk@plt+0xadfe>
    c13a:	8b 05 14 23 b7 00    	mov    eax,DWORD PTR [rip+0xb72314]        # b7e454 <stdin@@GLIBC_2.2.5+0xb67424>
    c140:	01 c0                	add    eax,eax
    c142:	41 39 87 d8 01 00 00 	cmp    DWORD PTR [r15+0x1d8],eax
    c149:	0f 9e 44 24 3b       	setle  BYTE PTR [rsp+0x3b]
    c14e:	c7 44 24 5c ff ff ff 	mov    DWORD PTR [rsp+0x5c],0xffffffff
    c155:	ff 
    c156:	48 8d 94 24 80 00 00 	lea    rdx,[rsp+0x80]
    c15d:	00 
    c15e:	48 8d b4 24 40 04 00 	lea    rsi,[rsp+0x440]
    c165:	00 
    c166:	48 8d 7c 24 5c       	lea    rdi,[rsp+0x5c]
    c16b:	8b 4c 24 1c          	mov    ecx,DWORD PTR [rsp+0x1c]
    c16f:	e8 3b e5 ff ff       	call   a6af <__sprintf_chk@plt+0x935f>
    c174:	85 c0                	test   eax,eax
    c176:	0f 84 47 0f 00 00    	je     d0c3 <__sprintf_chk@plt+0xbd73>
    c17c:	83 7c 24 2c 00       	cmp    DWORD PTR [rsp+0x2c],0x0
    c181:	0f 95 c0             	setne  al
    c184:	83 fd 01             	cmp    ebp,0x1
    c187:	0f 94 c2             	sete   dl
    c18a:	21 d0                	and    eax,edx
    c18c:	c1 e0 1f             	shl    eax,0x1f
    c18f:	c1 f8 1f             	sar    eax,0x1f
    c192:	83 e0 04             	and    eax,0x4
    c195:	89 44 24 30          	mov    DWORD PTR [rsp+0x30],eax
    c199:	83 c0 02             	add    eax,0x2
    c19c:	89 44 24 48          	mov    DWORD PTR [rsp+0x48],eax
    c1a0:	41 8d 46 03          	lea    eax,[r14+0x3]
    c1a4:	45 85 f6             	test   r14d,r14d
    c1a7:	41 0f 49 c6          	cmovns eax,r14d
    c1ab:	c1 f8 02             	sar    eax,0x2
    c1ae:	ff c0                	inc    eax
    c1b0:	89 44 24 3c          	mov    DWORD PTR [rsp+0x3c],eax
    c1b4:	45 89 ec             	mov    r12d,r13d
    c1b7:	c7 44 24 10 01 00 00 	mov    DWORD PTR [rsp+0x10],0x1
    c1be:	00 
    c1bf:	c7 44 24 14 01 00 00 	mov    DWORD PTR [rsp+0x14],0x1
    c1c6:	00 
    c1c7:	c7 44 24 20 00 83 ff 	mov    DWORD PTR [rsp+0x20],0xffff8300
    c1ce:	ff 
    c1cf:	c7 44 24 34 01 00 00 	mov    DWORD PTR [rsp+0x34],0x1
    c1d6:	00 
    c1d7:	44 89 6c 24 4c       	mov    DWORD PTR [rsp+0x4c],r13d
    c1dc:	e9 0f 0c 00 00       	jmp    cdf0 <__sprintf_chk@plt+0xbaa0>
    c1e1:	c7 44 24 5c 00 00 00 	mov    DWORD PTR [rsp+0x5c],0x0
    c1e8:	00 
    c1e9:	8b 44 24 1c          	mov    eax,DWORD PTR [rsp+0x1c]
    c1ed:	85 c0                	test   eax,eax
    c1ef:	7e 75                	jle    c266 <__sprintf_chk@plt+0xaf16>
    c1f1:	48 8d 8c 24 80 00 00 	lea    rcx,[rsp+0x80]
    c1f8:	00 
    c1f9:	8d 40 ff             	lea    eax,[rax-0x1]
    c1fc:	4c 8d 84 84 84 00 00 	lea    r8,[rsp+rax*4+0x84]
    c203:	00 
    c204:	8b 74 24 0c          	mov    esi,DWORD PTR [rsp+0xc]
    c208:	48 8d 3d 51 64 00 00 	lea    rdi,[rip+0x6451]        # 12660 <__sprintf_chk@plt+0x11310>
    c20f:	41 b9 01 00 00 00    	mov    r9d,0x1
    c215:	eb 09                	jmp    c220 <__sprintf_chk@plt+0xaed0>
    c217:	48 83 c1 04          	add    rcx,0x4
    c21b:	4c 39 c1             	cmp    rcx,r8
    c21e:	74 36                	je     c256 <__sprintf_chk@plt+0xaf06>
    c220:	8b 01                	mov    eax,DWORD PTR [rcx]
    c222:	89 c2                	mov    edx,eax
    c224:	c1 fa 13             	sar    edx,0x13
    c227:	83 e2 0f             	and    edx,0xf
    c22a:	83 fa 0d             	cmp    edx,0xd
    c22d:	74 e8                	je     c217 <__sprintf_chk@plt+0xaec7>
    c22f:	c1 f8 06             	sar    eax,0x6
    c232:	83 e0 3f             	and    eax,0x3f
    c235:	4d 63 54 87 04       	movsxd r10,DWORD PTR [r15+rax*4+0x4]
    c23a:	42 8b 04 97          	mov    eax,DWORD PTR [rdi+r10*4]
    c23e:	c1 f8 1f             	sar    eax,0x1f
    c241:	89 c3                	mov    ebx,eax
    c243:	42 33 1c 97          	xor    ebx,DWORD PTR [rdi+r10*4]
    c247:	41 89 da             	mov    r10d,ebx
    c24a:	41 29 c2             	sub    r10d,eax
    c24d:	44 39 d2             	cmp    edx,r10d
    c250:	41 0f 4f f1          	cmovg  esi,r9d
    c254:	eb c1                	jmp    c217 <__sprintf_chk@plt+0xaec7>
    c256:	8b 44 24 1c          	mov    eax,DWORD PTR [rsp+0x1c]
    c25a:	89 44 24 5c          	mov    DWORD PTR [rsp+0x5c],eax
    c25e:	85 f6                	test   esi,esi
    c260:	0f 85 91 fe ff ff    	jne    c0f7 <__sprintf_chk@plt+0xada7>
    c266:	44 89 f1             	mov    ecx,r14d
    c269:	d1 f9                	sar    ecx,1
    c26b:	44 8b 4c 24 04       	mov    r9d,DWORD PTR [rsp+0x4]
    c270:	41 b8 00 00 00 00    	mov    r8d,0x0
    c276:	8b 54 24 08          	mov    edx,DWORD PTR [rsp+0x8]
    c27a:	44 89 ee             	mov    esi,r13d
    c27d:	4c 89 ff             	mov    rdi,r15
    c280:	e8 26 f6 ff ff       	call   b8ab <__sprintf_chk@plt+0xa55b>
    c285:	48 8d 74 24 78       	lea    rsi,[rsp+0x78]
    c28a:	6a 00                	push   0x0
    c28c:	56                   	push   rsi
    c28d:	56                   	push   rsi
    c28e:	56                   	push   rsi
    c28f:	49 89 f1             	mov    r9,rsi
    c292:	4c 8d 84 24 9c 00 00 	lea    r8,[rsp+0x9c]
    c299:	00 
    c29a:	b9 00 00 00 00       	mov    ecx,0x0
    c29f:	ba 00 00 00 00       	mov    edx,0x0
    c2a4:	4c 89 ff             	mov    rdi,r15
    c2a7:	e8 8d 2e 00 00       	call   f139 <__sprintf_chk@plt+0xdde9>
    c2ac:	48 83 c4 20          	add    rsp,0x20
    c2b0:	83 f8 04             	cmp    eax,0x4
    c2b3:	74 26                	je     c2db <__sprintf_chk@plt+0xaf8b>
    c2b5:	48 8d 94 24 40 04 00 	lea    rdx,[rsp+0x440]
    c2bc:	00 
    c2bd:	48 8d b4 24 80 00 00 	lea    rsi,[rsp+0x80]
    c2c4:	00 
    c2c5:	44 8b 44 24 7c       	mov    r8d,DWORD PTR [rsp+0x7c]
    c2ca:	8b 4c 24 1c          	mov    ecx,DWORD PTR [rsp+0x1c]
    c2ce:	4c 89 ff             	mov    rdi,r15
    c2d1:	e8 4b e6 ff ff       	call   a921 <__sprintf_chk@plt+0x95d1>
    c2d6:	e9 1c fe ff ff       	jmp    c0f7 <__sprintf_chk@plt+0xada7>
    c2db:	48 8d 94 24 40 04 00 	lea    rdx,[rsp+0x440]
    c2e2:	00 
    c2e3:	48 8d b4 24 80 00 00 	lea    rsi,[rsp+0x80]
    c2ea:	00 
    c2eb:	44 8b 44 24 6c       	mov    r8d,DWORD PTR [rsp+0x6c]
    c2f0:	8b 4c 24 1c          	mov    ecx,DWORD PTR [rsp+0x1c]
    c2f4:	4c 89 ff             	mov    rdi,r15
    c2f7:	e8 25 e6 ff ff       	call   a921 <__sprintf_chk@plt+0x95d1>
    c2fc:	e9 f6 fd ff ff       	jmp    c0f7 <__sprintf_chk@plt+0xada7>
    c301:	41 8b 87 d8 01 00 00 	mov    eax,DWORD PTR [r15+0x1d8]
    c308:	89 c2                	mov    edx,eax
    c30a:	03 53 3c             	add    edx,DWORD PTR [rbx+0x3c]
    c30d:	ff ca                	dec    edx
    c30f:	48 63 d2             	movsxd rdx,edx
    c312:	49 8b 8f e0 01 00 00 	mov    rcx,QWORD PTR [r15+0x1e0]
    c319:	49 89 8c d7 30 11 00 	mov    QWORD PTR [r15+rdx*8+0x1130],rcx
    c320:	00 
    c321:	ff c8                	dec    eax
    c323:	48 98                	cdqe   
    c325:	48 63 54 24 5c       	movsxd rdx,DWORD PTR [rsp+0x5c]
    c32a:	8b 94 94 80 00 00 00 	mov    edx,DWORD PTR [rsp+rdx*4+0x80]
    c331:	41 89 94 87 f0 09 00 	mov    DWORD PTR [r15+rax*4+0x9f0],edx
    c338:	00 
    c339:	4c 89 ff             	mov    rdi,r15
    c33c:	e8 96 53 ff ff       	call   16d7 <__sprintf_chk@plt+0x387>
    c341:	49 63 97 d8 01 00 00 	movsxd rdx,DWORD PTR [r15+0x1d8]
    c348:	41 89 84 97 04 10 00 	mov    DWORD PTR [r15+rdx*4+0x1004],eax
    c34f:	00 
    c350:	41 89 ee             	mov    r14d,ebp
    c353:	41 f7 de             	neg    r14d
    c356:	83 7c 24 20 00       	cmp    DWORD PTR [rsp+0x20],0x0
    c35b:	0f 9f c1             	setg   cl
    c35e:	85 c0                	test   eax,eax
    c360:	0f 95 c0             	setne  al
    c363:	09 c1                	or     ecx,eax
    c365:	0f b6 c9             	movzx  ecx,cl
    c368:	8b 54 24 24          	mov    edx,DWORD PTR [rsp+0x24]
    c36c:	44 89 f6             	mov    esi,r14d
    c36f:	4c 89 ff             	mov    rdi,r15
    c372:	e8 2e cd ff ff       	call   90a5 <__sprintf_chk@plt+0x7d55>
    c377:	83 7c 24 20 00       	cmp    DWORD PTR [rsp+0x20],0x0
    c37c:	0f 8e f4 00 00 00    	jle    c476 <__sprintf_chk@plt+0xb126>
    c382:	83 7c 24 04 00       	cmp    DWORD PTR [rsp+0x4],0x0
    c387:	41 0f 94 c1          	sete   r9b
    c38b:	45 0f b6 c9          	movzx  r9d,r9b
    c38f:	ba 01 00 00 00       	mov    edx,0x1
    c394:	29 ea                	sub    edx,ebp
    c396:	41 b8 00 00 00 00    	mov    r8d,0x0
    c39c:	8b 4c 24 20          	mov    ecx,DWORD PTR [rsp+0x20]
    c3a0:	44 89 f6             	mov    esi,r14d
    c3a3:	4c 89 ff             	mov    rdi,r15
    c3a6:	e8 00 f5 ff ff       	call   b8ab <__sprintf_chk@plt+0xa55b>
    c3ab:	f7 d8                	neg    eax
    c3ad:	41 89 c6             	mov    r14d,eax
    c3b0:	48 63 44 24 5c       	movsxd rax,DWORD PTR [rsp+0x5c]
    c3b5:	8b b4 84 80 00 00 00 	mov    esi,DWORD PTR [rsp+rax*4+0x80]
    c3bc:	4c 89 ff             	mov    rdi,r15
    c3bf:	e8 99 ac ff ff       	call   705d <__sprintf_chk@plt+0x5d0d>
    c3c4:	83 bb 00 8d 00 00 00 	cmp    DWORD PTR [rbx+0x8d00],0x0
    c3cb:	0f 85 25 01 00 00    	jne    c4f6 <__sprintf_chk@plt+0xb1a6>
    c3d1:	44 39 f5             	cmp    ebp,r14d
    c3d4:	7f 0d                	jg     c3e3 <__sprintf_chk@plt+0xb093>
    c3d6:	41 ff c5             	inc    r13d
    c3d9:	41 83 fd 01          	cmp    r13d,0x1
    c3dd:	0f 8f ba 00 00 00    	jg     c49d <__sprintf_chk@plt+0xb14d>
    c3e3:	48 8d 94 24 80 00 00 	lea    rdx,[rsp+0x80]
    c3ea:	00 
    c3eb:	48 8d b4 24 40 04 00 	lea    rsi,[rsp+0x440]
    c3f2:	00 
    c3f3:	48 8d 7c 24 5c       	lea    rdi,[rsp+0x5c]
    c3f8:	8b 4c 24 1c          	mov    ecx,DWORD PTR [rsp+0x1c]
    c3fc:	e8 ae e2 ff ff       	call   a6af <__sprintf_chk@plt+0x935f>
    c401:	85 c0                	test   eax,eax
    c403:	0f 84 00 01 00 00    	je     c509 <__sprintf_chk@plt+0xb1b9>
    c409:	41 83 fc 02          	cmp    r12d,0x2
    c40d:	0f 8f d0 00 00 00    	jg     c4e3 <__sprintf_chk@plt+0xb193>
    c413:	41 ff c4             	inc    r12d
    c416:	48 63 44 24 5c       	movsxd rax,DWORD PTR [rsp+0x5c]
    c41b:	8b b4 84 80 00 00 00 	mov    esi,DWORD PTR [rsp+rax*4+0x80]
    c422:	4c 89 ff             	mov    rdi,r15
    c425:	e8 67 a3 ff ff       	call   6791 <__sprintf_chk@plt+0x5441>
    c42a:	48 63 44 24 5c       	movsxd rax,DWORD PTR [rsp+0x5c]
    c42f:	8b b4 84 80 00 00 00 	mov    esi,DWORD PTR [rsp+rax*4+0x80]
    c436:	4c 89 ff             	mov    rdi,r15
    c439:	e8 95 b0 ff ff       	call   74d3 <__sprintf_chk@plt+0x6183>
    c43e:	85 c0                	test   eax,eax
    c440:	0f 85 bb fe ff ff    	jne    c301 <__sprintf_chk@plt+0xafb1>
    c446:	48 63 44 24 5c       	movsxd rax,DWORD PTR [rsp+0x5c]
    c44b:	8b b4 84 80 00 00 00 	mov    esi,DWORD PTR [rsp+rax*4+0x80]
    c452:	4c 89 ff             	mov    rdi,r15
    c455:	e8 03 ac ff ff       	call   705d <__sprintf_chk@plt+0x5d0d>
    c45a:	83 bb 00 8d 00 00 00 	cmp    DWORD PTR [rbx+0x8d00],0x0
    c461:	74 80                	je     c3e3 <__sprintf_chk@plt+0xb093>
    c463:	8b 6c 24 18          	mov    ebp,DWORD PTR [rsp+0x18]
    c467:	44 8b 6c 24 10       	mov    r13d,DWORD PTR [rsp+0x10]
    c46c:	44 8b 74 24 14       	mov    r14d,DWORD PTR [rsp+0x14]
    c471:	e9 8c fc ff ff       	jmp    c102 <__sprintf_chk@plt+0xadb2>
    c476:	ba 01 00 00 00       	mov    edx,0x1
    c47b:	29 ea                	sub    edx,ebp
    c47d:	41 b8 00 00 00 00    	mov    r8d,0x0
    c483:	b9 00 00 00 00       	mov    ecx,0x0
    c488:	44 89 f6             	mov    esi,r14d
    c48b:	4c 89 ff             	mov    rdi,r15
    c48e:	e8 18 e9 ff ff       	call   adab <__sprintf_chk@plt+0x9a5b>
    c493:	f7 d8                	neg    eax
    c495:	41 89 c6             	mov    r14d,eax
    c498:	e9 13 ff ff ff       	jmp    c3b0 <__sprintf_chk@plt+0xb060>
    c49d:	44 8b 6c 24 10       	mov    r13d,DWORD PTR [rsp+0x10]
    c4a2:	44 8b 74 24 14       	mov    r14d,DWORD PTR [rsp+0x14]
    c4a7:	48 83 ec 08          	sub    rsp,0x8
    c4ab:	41 56                	push   r14
    c4ad:	8b 84 24 84 00 00 00 	mov    eax,DWORD PTR [rsp+0x84]
    c4b4:	50                   	push   rax
    c4b5:	6a 00                	push   0x0
    c4b7:	44 8b 8c 24 84 00 00 	mov    r9d,DWORD PTR [rsp+0x84]
    c4be:	00 
    c4bf:	44 8b 84 24 8c 00 00 	mov    r8d,DWORD PTR [rsp+0x8c]
    c4c6:	00 
    c4c7:	8b 5c 24 28          	mov    ebx,DWORD PTR [rsp+0x28]
    c4cb:	89 d9                	mov    ecx,ebx
    c4cd:	44 89 ea             	mov    edx,r13d
    c4d0:	89 de                	mov    esi,ebx
    c4d2:	4c 89 ff             	mov    rdi,r15
    c4d5:	e8 31 2a 00 00       	call   ef0b <__sprintf_chk@plt+0xdbbb>
    c4da:	48 83 c4 20          	add    rsp,0x20
    c4de:	e9 2a f4 ff ff       	jmp    b90d <__sprintf_chk@plt+0xa5bd>
    c4e3:	8b 6c 24 18          	mov    ebp,DWORD PTR [rsp+0x18]
    c4e7:	44 8b 6c 24 10       	mov    r13d,DWORD PTR [rsp+0x10]
    c4ec:	44 8b 74 24 14       	mov    r14d,DWORD PTR [rsp+0x14]
    c4f1:	e9 0c fc ff ff       	jmp    c102 <__sprintf_chk@plt+0xadb2>
    c4f6:	8b 6c 24 18          	mov    ebp,DWORD PTR [rsp+0x18]
    c4fa:	44 8b 6c 24 10       	mov    r13d,DWORD PTR [rsp+0x10]
    c4ff:	44 8b 74 24 14       	mov    r14d,DWORD PTR [rsp+0x14]
    c504:	e9 f9 fb ff ff       	jmp    c102 <__sprintf_chk@plt+0xadb2>
    c509:	8b 6c 24 18          	mov    ebp,DWORD PTR [rsp+0x18]
    c50d:	44 8b 6c 24 10       	mov    r13d,DWORD PTR [rsp+0x10]
    c512:	44 8b 74 24 14       	mov    r14d,DWORD PTR [rsp+0x14]
    c517:	e9 e6 fb ff ff       	jmp    c102 <__sprintf_chk@plt+0xadb2>
    c51c:	41 8d 4e e8          	lea    ecx,[r14-0x18]
    c520:	44 8b 4c 24 04       	mov    r9d,DWORD PTR [rsp+0x4]
    c525:	41 b8 00 00 00 00    	mov    r8d,0x0
    c52b:	8b 54 24 08          	mov    edx,DWORD PTR [rsp+0x8]
    c52f:	44 89 ee             	mov    esi,r13d
    c532:	4c 89 ff             	mov    rdi,r15
    c535:	e8 71 f3 ff ff       	call   b8ab <__sprintf_chk@plt+0xa55b>
    c53a:	41 39 c5             	cmp    r13d,eax
    c53d:	0f 8d e8 fb ff ff    	jge    c12b <__sprintf_chk@plt+0xaddb>
    c543:	c7 44 24 5c ff ff ff 	mov    DWORD PTR [rsp+0x5c],0xffffffff
    c54a:	ff 
    c54b:	48 8d 94 24 80 00 00 	lea    rdx,[rsp+0x80]
    c552:	00 
    c553:	48 8d b4 24 40 04 00 	lea    rsi,[rsp+0x440]
    c55a:	00 
    c55b:	48 8d 7c 24 5c       	lea    rdi,[rsp+0x5c]
    c560:	8b 4c 24 1c          	mov    ecx,DWORD PTR [rsp+0x1c]
    c564:	e8 46 e1 ff ff       	call   a6af <__sprintf_chk@plt+0x935f>
    c569:	85 c0                	test   eax,eax
    c56b:	0f 84 ba fb ff ff    	je     c12b <__sprintf_chk@plt+0xaddb>
    c571:	83 7c 24 70 01       	cmp    DWORD PTR [rsp+0x70],0x1
    c576:	0f 8f af fb ff ff    	jg     c12b <__sprintf_chk@plt+0xaddb>
    c57c:	44 89 e3             	mov    ebx,r12d
    c57f:	c7 44 24 10 01 00 00 	mov    DWORD PTR [rsp+0x10],0x1
    c586:	00 
    c587:	41 8d 46 f0          	lea    eax,[r14-0x10]
    c58b:	89 44 24 18          	mov    DWORD PTR [rsp+0x18],eax
    c58f:	b8 32 00 00 00       	mov    eax,0x32
    c594:	44 29 e8             	sub    eax,r13d
    c597:	89 44 24 20          	mov    DWORD PTR [rsp+0x20],eax
    c59b:	8b 44 24 08          	mov    eax,DWORD PTR [rsp+0x8]
    c59f:	f7 d8                	neg    eax
    c5a1:	89 44 24 24          	mov    DWORD PTR [rsp+0x24],eax
    c5a5:	89 6c 24 14          	mov    DWORD PTR [rsp+0x14],ebp
    c5a9:	eb 5e                	jmp    c609 <__sprintf_chk@plt+0xb2b9>
    c5ab:	c7 44 24 70 00 00 00 	mov    DWORD PTR [rsp+0x70],0x0
    c5b2:	00 
    c5b3:	83 c3 0b             	add    ebx,0xb
    c5b6:	44 89 64 24 10       	mov    DWORD PTR [rsp+0x10],r12d
    c5bb:	48 63 44 24 5c       	movsxd rax,DWORD PTR [rsp+0x5c]
    c5c0:	8b b4 84 80 00 00 00 	mov    esi,DWORD PTR [rsp+rax*4+0x80]
    c5c7:	4c 89 ff             	mov    rdi,r15
    c5ca:	e8 8e aa ff ff       	call   705d <__sprintf_chk@plt+0x5d0d>
    c5cf:	48 8d 94 24 80 00 00 	lea    rdx,[rsp+0x80]
    c5d6:	00 
    c5d7:	48 8d b4 24 40 04 00 	lea    rsi,[rsp+0x440]
    c5de:	00 
    c5df:	48 8d 7c 24 5c       	lea    rdi,[rsp+0x5c]
    c5e4:	8b 4c 24 1c          	mov    ecx,DWORD PTR [rsp+0x1c]
    c5e8:	e8 c2 e0 ff ff       	call   a6af <__sprintf_chk@plt+0x935f>
    c5ed:	85 c0                	test   eax,eax
    c5ef:	0f 84 40 01 00 00    	je     c735 <__sprintf_chk@plt+0xb3e5>
    c5f5:	83 7c 24 70 01       	cmp    DWORD PTR [rsp+0x70],0x1
    c5fa:	0f 8f 3e 01 00 00    	jg     c73e <__sprintf_chk@plt+0xb3ee>
    c600:	83 fb 02             	cmp    ebx,0x2
    c603:	0f 8f 3e 01 00 00    	jg     c747 <__sprintf_chk@plt+0xb3f7>
    c609:	48 63 44 24 5c       	movsxd rax,DWORD PTR [rsp+0x5c]
    c60e:	8b b4 84 80 00 00 00 	mov    esi,DWORD PTR [rsp+rax*4+0x80]
    c615:	4c 89 ff             	mov    rdi,r15
    c618:	e8 74 a1 ff ff       	call   6791 <__sprintf_chk@plt+0x5441>
    c61d:	48 63 44 24 5c       	movsxd rax,DWORD PTR [rsp+0x5c]
    c622:	8b b4 84 80 00 00 00 	mov    esi,DWORD PTR [rsp+rax*4+0x80]
    c629:	4c 89 ff             	mov    rdi,r15
    c62c:	e8 a2 ae ff ff       	call   74d3 <__sprintf_chk@plt+0x6183>
    c631:	85 c0                	test   eax,eax
    c633:	74 86                	je     c5bb <__sprintf_chk@plt+0xb26b>
    c635:	41 8b 87 d8 01 00 00 	mov    eax,DWORD PTR [r15+0x1d8]
    c63c:	89 c2                	mov    edx,eax
    c63e:	03 15 38 1e b7 00    	add    edx,DWORD PTR [rip+0xb71e38]        # b7e47c <stdin@@GLIBC_2.2.5+0xb6744c>
    c644:	ff ca                	dec    edx
    c646:	48 63 d2             	movsxd rdx,edx
    c649:	49 8b 8f e0 01 00 00 	mov    rcx,QWORD PTR [r15+0x1e0]
    c650:	49 89 8c d7 30 11 00 	mov    QWORD PTR [r15+rdx*8+0x1130],rcx
    c657:	00 
    c658:	ff c8                	dec    eax
    c65a:	48 98                	cdqe   
    c65c:	48 63 54 24 5c       	movsxd rdx,DWORD PTR [rsp+0x5c]
    c661:	8b 94 94 80 00 00 00 	mov    edx,DWORD PTR [rsp+rdx*4+0x80]
    c668:	41 89 94 87 f0 09 00 	mov    DWORD PTR [r15+rax*4+0x9f0],edx
    c66f:	00 
    c670:	8d 6b 01             	lea    ebp,[rbx+0x1]
    c673:	4c 89 ff             	mov    rdi,r15
    c676:	e8 5c 50 ff ff       	call   16d7 <__sprintf_chk@plt+0x387>
    c67b:	89 c2                	mov    edx,eax
    c67d:	49 63 87 d8 01 00 00 	movsxd rax,DWORD PTR [r15+0x1d8]
    c684:	41 89 94 87 04 10 00 	mov    DWORD PTR [r15+rax*4+0x1004],edx
    c68b:	00 
    c68c:	b9 01 00 00 00       	mov    ecx,0x1
    c691:	8b 54 24 20          	mov    edx,DWORD PTR [rsp+0x20]
    c695:	8b 74 24 24          	mov    esi,DWORD PTR [rsp+0x24]
    c699:	4c 89 ff             	mov    rdi,r15
    c69c:	e8 04 ca ff ff       	call   90a5 <__sprintf_chk@plt+0x7d55>
    c6a1:	83 7c 24 10 00       	cmp    DWORD PTR [rsp+0x10],0x0
    c6a6:	74 48                	je     c6f0 <__sprintf_chk@plt+0xb3a0>
    c6a8:	83 7c 24 04 00       	cmp    DWORD PTR [rsp+0x4],0x0
    c6ad:	41 0f 94 c1          	sete   r9b
    c6b1:	45 0f b6 c9          	movzx  r9d,r9b
    c6b5:	44 89 ea             	mov    edx,r13d
    c6b8:	f7 da                	neg    edx
    c6ba:	41 b8 00 00 00 00    	mov    r8d,0x0
    c6c0:	8b 4c 24 18          	mov    ecx,DWORD PTR [rsp+0x18]
    c6c4:	44 89 ee             	mov    esi,r13d
    c6c7:	f7 d6                	not    esi
    c6c9:	4c 89 ff             	mov    rdi,r15
    c6cc:	e8 da f1 ff ff       	call   b8ab <__sprintf_chk@plt+0xa55b>
    c6d1:	f7 d8                	neg    eax
    c6d3:	41 39 c5             	cmp    r13d,eax
    c6d6:	0f 8d cf fe ff ff    	jge    c5ab <__sprintf_chk@plt+0xb25b>
    c6dc:	c7 44 24 70 01 00 00 	mov    DWORD PTR [rsp+0x70],0x1
    c6e3:	00 
    c6e4:	89 eb                	mov    ebx,ebp
    c6e6:	44 89 64 24 10       	mov    DWORD PTR [rsp+0x10],r12d
    c6eb:	e9 cb fe ff ff       	jmp    c5bb <__sprintf_chk@plt+0xb26b>
    c6f0:	be 31 00 00 00       	mov    esi,0x31
    c6f5:	44 29 ee             	sub    esi,r13d
    c6f8:	41 b9 00 00 00 00    	mov    r9d,0x0
    c6fe:	41 b8 00 00 00 00    	mov    r8d,0x0
    c704:	8b 4c 24 18          	mov    ecx,DWORD PTR [rsp+0x18]
    c708:	8b 54 24 20          	mov    edx,DWORD PTR [rsp+0x20]
    c70c:	4c 89 ff             	mov    rdi,r15
    c70f:	e8 97 f1 ff ff       	call   b8ab <__sprintf_chk@plt+0xa55b>
    c714:	41 8d 55 cf          	lea    edx,[r13-0x31]
    c718:	f7 d8                	neg    eax
    c71a:	39 c2                	cmp    edx,eax
    c71c:	7f 10                	jg     c72e <__sprintf_chk@plt+0xb3de>
    c71e:	c7 44 24 70 00 00 00 	mov    DWORD PTR [rsp+0x70],0x0
    c725:	00 
    c726:	83 c3 0b             	add    ebx,0xb
    c729:	e9 8d fe ff ff       	jmp    c5bb <__sprintf_chk@plt+0xb26b>
    c72e:	89 eb                	mov    ebx,ebp
    c730:	e9 86 fe ff ff       	jmp    c5bb <__sprintf_chk@plt+0xb26b>
    c735:	8b 6c 24 14          	mov    ebp,DWORD PTR [rsp+0x14]
    c739:	e9 ed f9 ff ff       	jmp    c12b <__sprintf_chk@plt+0xaddb>
    c73e:	8b 6c 24 14          	mov    ebp,DWORD PTR [rsp+0x14]
    c742:	e9 e4 f9 ff ff       	jmp    c12b <__sprintf_chk@plt+0xaddb>
    c747:	8b 6c 24 14          	mov    ebp,DWORD PTR [rsp+0x14]
    c74b:	e9 db f9 ff ff       	jmp    c12b <__sprintf_chk@plt+0xaddb>
    c750:	89 ca                	mov    edx,ecx
    c752:	c1 fa 03             	sar    edx,0x3
    c755:	83 e2 07             	and    edx,0x7
    c758:	83 fa 06             	cmp    edx,0x6
    c75b:	74 0e                	je     c76b <__sprintf_chk@plt+0xb41b>
    c75d:	83 fa 01             	cmp    edx,0x1
    c760:	74 09                	je     c76b <__sprintf_chk@plt+0xb41b>
    c762:	f6 c5 f0             	test   ch,0xf0
    c765:	0f 84 c4 06 00 00    	je     ce2f <__sprintf_chk@plt+0xbadf>
    c76b:	80 7c 24 3b 00       	cmp    BYTE PTR [rsp+0x3b],0x0
    c770:	8b 6c 24 48          	mov    ebp,DWORD PTR [rsp+0x48]
    c774:	0f 44 6c 24 30       	cmove  ebp,DWORD PTR [rsp+0x30]
    c779:	e9 b1 06 00 00       	jmp    ce2f <__sprintf_chk@plt+0xbadf>
    c77e:	31 ce                	xor    esi,ecx
    c780:	40 f6 c6 3f          	test   sil,0x3f
    c784:	0f 85 e7 06 00 00    	jne    ce71 <__sprintf_chk@plt+0xbb21>
    c78a:	41 89 c8             	mov    r8d,ecx
    c78d:	41 c1 f8 0c          	sar    r8d,0xc
    c791:	83 e1 3f             	and    ecx,0x3f
    c794:	41 83 bf cc 01 00 00 	cmp    DWORD PTR [r15+0x1cc],0x0
    c79b:	00 
    c79c:	40 0f 94 c6          	sete   sil
    c7a0:	41 83 e0 0f          	and    r8d,0xf
    c7a4:	89 fa                	mov    edx,edi
    c7a6:	40 0f b6 f6          	movzx  esi,sil
    c7aa:	4c 89 ff             	mov    rdi,r15
    c7ad:	e8 75 20 00 00       	call   e827 <__sprintf_chk@plt+0xd4d7>
    c7b2:	85 c0                	test   eax,eax
    c7b4:	0f 8e b7 06 00 00    	jle    ce71 <__sprintf_chk@plt+0xbb21>
    c7ba:	8d 45 03             	lea    eax,[rbp+0x3]
    c7bd:	ff c5                	inc    ebp
    c7bf:	80 7c 24 3b 00       	cmp    BYTE PTR [rsp+0x3b],0x0
    c7c4:	0f 45 e8             	cmovne ebp,eax
    c7c7:	e9 a5 06 00 00       	jmp    ce71 <__sprintf_chk@plt+0xbb21>
    c7cc:	83 7c 24 14 00       	cmp    DWORD PTR [rsp+0x14],0x0
    c7d1:	0f 95 c0             	setne  al
    c7d4:	85 ed                	test   ebp,ebp
    c7d6:	74 11                	je     c7e9 <__sprintf_chk@plt+0xb499>
    c7d8:	84 c0                	test   al,al
    c7da:	74 0d                	je     c7e9 <__sprintf_chk@plt+0xb499>
    c7dc:	c7 44 24 74 01 00 00 	mov    DWORD PTR [rsp+0x74],0x1
    c7e3:	00 
    c7e4:	e9 93 06 00 00       	jmp    ce7c <__sprintf_chk@plt+0xbb2c>
    c7e9:	85 ed                	test   ebp,ebp
    c7eb:	0f 85 8b 06 00 00    	jne    ce7c <__sprintf_chk@plt+0xbb2c>
    c7f1:	84 c0                	test   al,al
    c7f3:	0f 84 83 06 00 00    	je     ce7c <__sprintf_chk@plt+0xbb2c>
    c7f9:	c7 44 24 74 00 00 00 	mov    DWORD PTR [rsp+0x74],0x0
    c800:	00 
    c801:	80 7c 24 3b 01       	cmp    BYTE PTR [rsp+0x3b],0x1
    c806:	19 ed                	sbb    ebp,ebp
    c808:	83 e5 fe             	and    ebp,0xfffffffe
    c80b:	83 c5 03             	add    ebp,0x3
    c80e:	e9 69 06 00 00       	jmp    ce7c <__sprintf_chk@plt+0xbb2c>
    c813:	8b 6c 24 0c          	mov    ebp,DWORD PTR [rsp+0xc]
    c817:	48 63 44 24 5c       	movsxd rax,DWORD PTR [rsp+0x5c]
    c81c:	8b 84 84 80 00 00 00 	mov    eax,DWORD PTR [rsp+rax*4+0x80]
    c823:	89 c2                	mov    edx,eax
    c825:	c1 fa 13             	sar    edx,0x13
    c828:	83 e2 0f             	and    edx,0xf
    c82b:	83 fa 0d             	cmp    edx,0xd
    c82e:	74 40                	je     c870 <__sprintf_chk@plt+0xb520>
    c830:	41 83 fe 08          	cmp    r14d,0x8
    c834:	0f 8e ef 00 00 00    	jle    c929 <__sprintf_chk@plt+0xb5d9>
    c83a:	41 83 fe 0c          	cmp    r14d,0xc
    c83e:	0f 8f 27 02 00 00    	jg     ca6b <__sprintf_chk@plt+0xb71b>
    c844:	8b 5c 24 28          	mov    ebx,DWORD PTR [rsp+0x28]
    c848:	8d 4b 64             	lea    ecx,[rbx+0x64]
    c84b:	44 39 e1             	cmp    ecx,r12d
    c84e:	40 0f 9c c6          	setl   sil
    c852:	40 0f b6 f6          	movzx  esi,sil
    c856:	89 74 24 24          	mov    DWORD PTR [rsp+0x24],esi
    c85a:	8d 8b 2c 01 00 00    	lea    ecx,[rbx+0x12c]
    c860:	44 39 e1             	cmp    ecx,r12d
    c863:	41 0f 9c c5          	setl   r13b
    c867:	45 0f b6 ed          	movzx  r13d,r13b
    c86b:	e9 de 00 00 00       	jmp    c94e <__sprintf_chk@plt+0xb5fe>
    c870:	8b 5c 24 3c          	mov    ebx,DWORD PTR [rsp+0x3c]
    c874:	8b 74 24 10          	mov    esi,DWORD PTR [rsp+0x10]
    c878:	39 f3                	cmp    ebx,esi
    c87a:	7d b4                	jge    c830 <__sprintf_chk@plt+0xb4e0>
    c87c:	89 c1                	mov    ecx,eax
    c87e:	c1 f9 06             	sar    ecx,0x6
    c881:	83 e1 3f             	and    ecx,0x3f
    c884:	41 8b 4c 8f 04       	mov    ecx,DWORD PTR [r15+rcx*4+0x4]
    c889:	ff c9                	dec    ecx
    c88b:	89 c7                	mov    edi,eax
    c88d:	83 e7 3f             	and    edi,0x3f
    c890:	4d 63 0f             	movsxd r9,DWORD PTR [r15]
    c893:	48 63 c9             	movsxd rcx,ecx
    c896:	4f 8d 04 09          	lea    r8,[r9+r9*1]
    c89a:	4b 8d 34 08          	lea    rsi,[r8+r9*1]
    c89e:	48 8d 34 b1          	lea    rsi,[rcx+rsi*4]
    c8a2:	48 c1 e6 06          	shl    rsi,0x6
    c8a6:	48 01 fe             	add    rsi,rdi
    c8a9:	4c 8d 1d f0 54 b2 00 	lea    r11,[rip+0xb254f0]        # b31da0 <stdin@@GLIBC_2.2.5+0xb1ad70>
    c8b0:	41 8b 34 b3          	mov    esi,DWORD PTR [r11+rsi*4]
    c8b4:	4d 01 c8             	add    r8,r9
    c8b7:	4a 8d 0c 81          	lea    rcx,[rcx+r8*4]
    c8bb:	48 c1 e1 06          	shl    rcx,0x6
    c8bf:	48 01 f9             	add    rcx,rdi
    c8c2:	48 8d 3d d7 f4 b1 00 	lea    rdi,[rip+0xb1f4d7]        # b2bda0 <stdin@@GLIBC_2.2.5+0xb14d70>
    c8c9:	8b 0c 8f             	mov    ecx,DWORD PTR [rdi+rcx*4]
    c8cc:	29 f1                	sub    ecx,esi
    c8ce:	0f af f3             	imul   esi,ebx
    c8d1:	39 f1                	cmp    ecx,esi
    c8d3:	0f 8e 57 ff ff ff    	jle    c830 <__sprintf_chk@plt+0xb4e0>
    c8d9:	41 83 fe 18          	cmp    r14d,0x18
    c8dd:	0f 8f 4d ff ff ff    	jg     c830 <__sprintf_chk@plt+0xb4e0>
    c8e3:	41 8d 4c 24 01       	lea    ecx,[r12+0x1]
    c8e8:	3b 4c 24 08          	cmp    ecx,DWORD PTR [rsp+0x8]
    c8ec:	0f 85 3e ff ff ff    	jne    c830 <__sprintf_chk@plt+0xb4e0>
    c8f2:	89 c3                	mov    ebx,eax
    c8f4:	c1 fb 0c             	sar    ebx,0xc
    c8f7:	83 e3 0f             	and    ebx,0xf
    c8fa:	09 eb                	or     ebx,ebp
    c8fc:	0f 85 2e ff ff ff    	jne    c830 <__sprintf_chk@plt+0xb4e0>
    c902:	48 8d 94 24 80 00 00 	lea    rdx,[rsp+0x80]
    c909:	00 
    c90a:	48 8d b4 24 40 04 00 	lea    rsi,[rsp+0x440]
    c911:	00 
    c912:	48 8d 7c 24 5c       	lea    rdi,[rsp+0x5c]
    c917:	8b 4c 24 1c          	mov    ecx,DWORD PTR [rsp+0x1c]
    c91b:	e8 8f dd ff ff       	call   a6af <__sprintf_chk@plt+0x935f>
    c920:	89 5c 24 34          	mov    DWORD PTR [rsp+0x34],ebx
    c924:	e9 bf 04 00 00       	jmp    cde8 <__sprintf_chk@plt+0xba98>
    c929:	8b 5c 24 28          	mov    ebx,DWORD PTR [rsp+0x28]
    c92d:	8d 4b 4b             	lea    ecx,[rbx+0x4b]
    c930:	44 39 e1             	cmp    ecx,r12d
    c933:	0f 9c c1             	setl   cl
    c936:	0f b6 c9             	movzx  ecx,cl
    c939:	89 4c 24 24          	mov    DWORD PTR [rsp+0x24],ecx
    c93d:	8d 8b c8 00 00 00    	lea    ecx,[rbx+0xc8]
    c943:	44 39 e1             	cmp    ecx,r12d
    c946:	41 0f 9c c5          	setl   r13b
    c94a:	45 0f b6 ed          	movzx  r13d,r13b
    c94e:	c7 44 24 18 c0 bd f0 	mov    DWORD PTR [rsp+0x18],0xfff0bdc0
    c955:	ff 
    c956:	83 fa 0d             	cmp    edx,0xd
    c959:	0f 85 1c 01 00 00    	jne    ca7b <__sprintf_chk@plt+0xb72b>
    c95f:	48 63 44 24 5c       	movsxd rax,DWORD PTR [rsp+0x5c]
    c964:	8b b4 84 80 00 00 00 	mov    esi,DWORD PTR [rsp+rax*4+0x80]
    c96b:	4c 89 ff             	mov    rdi,r15
    c96e:	e8 1e 9e ff ff       	call   6791 <__sprintf_chk@plt+0x5441>
    c973:	48 63 44 24 5c       	movsxd rax,DWORD PTR [rsp+0x5c]
    c978:	8b b4 84 80 00 00 00 	mov    esi,DWORD PTR [rsp+rax*4+0x80]
    c97f:	4c 89 ff             	mov    rdi,r15
    c982:	e8 4c ab ff ff       	call   74d3 <__sprintf_chk@plt+0x6183>
    c987:	89 c3                	mov    ebx,eax
    c989:	85 c0                	test   eax,eax
    c98b:	0f 84 83 08 00 00    	je     d214 <__sprintf_chk@plt+0xbec4>
    c991:	4c 89 ff             	mov    rdi,r15
    c994:	e8 3e 4d ff ff       	call   16d7 <__sprintf_chk@plt+0x387>
    c999:	89 c3                	mov    ebx,eax
    c99b:	85 c0                	test   eax,eax
    c99d:	0f 84 11 01 00 00    	je     cab4 <__sprintf_chk@plt+0xb764>
    c9a3:	8d 45 04             	lea    eax,[rbp+0x4]
    c9a6:	83 c5 02             	add    ebp,0x2
    c9a9:	80 7c 24 3b 00       	cmp    BYTE PTR [rsp+0x3b],0x0
    c9ae:	0f 45 e8             	cmovne ebp,eax
    c9b1:	46 8d 6c 35 fc       	lea    r13d,[rbp+r14*1-0x4]
    c9b6:	8b 74 24 08          	mov    esi,DWORD PTR [rsp+0x8]
    c9ba:	f7 de                	neg    esi
    c9bc:	89 74 24 24          	mov    DWORD PTR [rsp+0x24],esi
    c9c0:	45 85 ed             	test   r13d,r13d
    c9c3:	0f 9f c1             	setg   cl
    c9c6:	85 db                	test   ebx,ebx
    c9c8:	0f 95 c0             	setne  al
    c9cb:	09 c1                	or     ecx,eax
    c9cd:	ba 82 00 00 00       	mov    edx,0x82
    c9d2:	44 29 e2             	sub    edx,r12d
    c9d5:	0f b6 c9             	movzx  ecx,cl
    c9d8:	4c 89 ff             	mov    rdi,r15
    c9db:	e8 c5 c6 ff ff       	call   90a5 <__sprintf_chk@plt+0x7d55>
    c9e0:	41 8b 87 d8 01 00 00 	mov    eax,DWORD PTR [r15+0x1d8]
    c9e7:	48 63 d0             	movsxd rdx,eax
    c9ea:	49 8d 14 97          	lea    rdx,[r15+rdx*4]
    c9ee:	89 9a 04 10 00 00    	mov    DWORD PTR [rdx+0x1004],ebx
    c9f4:	48 8d 0d 45 1a b7 00 	lea    rcx,[rip+0xb71a45]        # b7e440 <stdin@@GLIBC_2.2.5+0xb67410>
    c9fb:	03 41 3c             	add    eax,DWORD PTR [rcx+0x3c]
    c9fe:	ff c8                	dec    eax
    ca00:	48 98                	cdqe   
    ca02:	49 8b 8f e0 01 00 00 	mov    rcx,QWORD PTR [r15+0x1e0]
    ca09:	49 89 8c c7 30 11 00 	mov    QWORD PTR [r15+rax*8+0x1130],rcx
    ca10:	00 
    ca11:	48 63 44 24 5c       	movsxd rax,DWORD PTR [rsp+0x5c]
    ca16:	8b 8c 84 80 00 00 00 	mov    ecx,DWORD PTR [rsp+rax*4+0x80]
    ca1d:	89 8a ec 09 00 00    	mov    DWORD PTR [rdx+0x9ec],ecx
    ca23:	41 83 fe 04          	cmp    r14d,0x4
    ca27:	0f 8e d6 01 00 00    	jle    cc03 <__sprintf_chk@plt+0xb8b3>
    ca2d:	83 7c 24 10 03       	cmp    DWORD PTR [rsp+0x10],0x3
    ca32:	0f 8e cb 01 00 00    	jle    cc03 <__sprintf_chk@plt+0xb8b3>
    ca38:	41 8d 44 24 01       	lea    eax,[r12+0x1]
    ca3d:	8b 7c 24 0c          	mov    edi,DWORD PTR [rsp+0xc]
    ca41:	89 7c 24 34          	mov    DWORD PTR [rsp+0x34],edi
    ca45:	3b 44 24 08          	cmp    eax,DWORD PTR [rsp+0x8]
    ca49:	0f 85 bc 01 00 00    	jne    cc0b <__sprintf_chk@plt+0xb8bb>
    ca4f:	09 eb                	or     ebx,ebp
    ca51:	75 0b                	jne    ca5e <__sprintf_chk@plt+0xb70e>
    ca53:	83 7c 24 18 ce       	cmp    DWORD PTR [rsp+0x18],0xffffffce
    ca58:	0f 8c 2e 01 00 00    	jl     cb8c <__sprintf_chk@plt+0xb83c>
    ca5e:	8b 44 24 0c          	mov    eax,DWORD PTR [rsp+0xc]
    ca62:	89 44 24 34          	mov    DWORD PTR [rsp+0x34],eax
    ca66:	e9 a0 01 00 00       	jmp    cc0b <__sprintf_chk@plt+0xb8bb>
    ca6b:	8b 5c 24 0c          	mov    ebx,DWORD PTR [rsp+0xc]
    ca6f:	41 89 dd             	mov    r13d,ebx
    ca72:	89 5c 24 24          	mov    DWORD PTR [rsp+0x24],ebx
    ca76:	e9 d3 fe ff ff       	jmp    c94e <__sprintf_chk@plt+0xb5fe>
    ca7b:	41 89 c0             	mov    r8d,eax
    ca7e:	41 c1 f8 0c          	sar    r8d,0xc
    ca82:	89 c1                	mov    ecx,eax
    ca84:	83 e1 3f             	and    ecx,0x3f
    ca87:	c1 f8 06             	sar    eax,0x6
    ca8a:	89 c2                	mov    edx,eax
    ca8c:	83 e2 3f             	and    edx,0x3f
    ca8f:	41 83 bf cc 01 00 00 	cmp    DWORD PTR [r15+0x1cc],0x0
    ca96:	00 
    ca97:	40 0f 94 c6          	sete   sil
    ca9b:	41 83 e0 0f          	and    r8d,0xf
    ca9f:	40 0f b6 f6          	movzx  esi,sil
    caa3:	4c 89 ff             	mov    rdi,r15
    caa6:	e8 7c 1d 00 00       	call   e827 <__sprintf_chk@plt+0xd4d7>
    caab:	89 44 24 18          	mov    DWORD PTR [rsp+0x18],eax
    caaf:	e9 ab fe ff ff       	jmp    c95f <__sprintf_chk@plt+0xb60f>
    cab4:	83 7c 24 2c 00       	cmp    DWORD PTR [rsp+0x2c],0x0
    cab9:	0f 85 f2 fe ff ff    	jne    c9b1 <__sprintf_chk@plt+0xb661>
    cabf:	41 8d 44 24 01       	lea    eax,[r12+0x1]
    cac4:	3b 44 24 08          	cmp    eax,DWORD PTR [rsp+0x8]
    cac8:	0f 85 e3 fe ff ff    	jne    c9b1 <__sprintf_chk@plt+0xb661>
    cace:	83 7c 24 18 55       	cmp    DWORD PTR [rsp+0x18],0x55
    cad3:	7f 05                	jg     cada <__sprintf_chk@plt+0xb78a>
    cad5:	45 85 ed             	test   r13d,r13d
    cad8:	75 64                	jne    cb3e <__sprintf_chk@plt+0xb7ee>
    cada:	83 7c 24 18 ce       	cmp    DWORD PTR [rsp+0x18],0xffffffce
    cadf:	0f 8d cc fe ff ff    	jge    c9b1 <__sprintf_chk@plt+0xb661>
    cae5:	83 7c 24 24 00       	cmp    DWORD PTR [rsp+0x24],0x0
    caea:	0f 84 c1 fe ff ff    	je     c9b1 <__sprintf_chk@plt+0xb661>
    caf0:	48 63 44 24 5c       	movsxd rax,DWORD PTR [rsp+0x5c]
    caf5:	8b b4 84 80 00 00 00 	mov    esi,DWORD PTR [rsp+rax*4+0x80]
    cafc:	89 f0                	mov    eax,esi
    cafe:	c1 f8 0c             	sar    eax,0xc
    cb01:	83 e0 0f             	and    eax,0xf
    cb04:	89 44 24 34          	mov    DWORD PTR [rsp+0x34],eax
    cb08:	0f 85 a3 fe ff ff    	jne    c9b1 <__sprintf_chk@plt+0xb661>
    cb0e:	4c 89 ff             	mov    rdi,r15
    cb11:	e8 47 a5 ff ff       	call   705d <__sprintf_chk@plt+0x5d0d>
    cb16:	48 8d 94 24 80 00 00 	lea    rdx,[rsp+0x80]
    cb1d:	00 
    cb1e:	48 8d b4 24 40 04 00 	lea    rsi,[rsp+0x440]
    cb25:	00 
    cb26:	48 8d 7c 24 5c       	lea    rdi,[rsp+0x5c]
    cb2b:	8b 4c 24 1c          	mov    ecx,DWORD PTR [rsp+0x1c]
    cb2f:	e8 7b db ff ff       	call   a6af <__sprintf_chk@plt+0x935f>
    cb34:	44 89 64 24 20       	mov    DWORD PTR [rsp+0x20],r12d
    cb39:	e9 aa 02 00 00       	jmp    cde8 <__sprintf_chk@plt+0xba98>
    cb3e:	48 63 44 24 5c       	movsxd rax,DWORD PTR [rsp+0x5c]
    cb43:	8b b4 84 80 00 00 00 	mov    esi,DWORD PTR [rsp+rax*4+0x80]
    cb4a:	89 f0                	mov    eax,esi
    cb4c:	c1 f8 0c             	sar    eax,0xc
    cb4f:	83 e0 0f             	and    eax,0xf
    cb52:	89 44 24 34          	mov    DWORD PTR [rsp+0x34],eax
    cb56:	0f 85 55 fe ff ff    	jne    c9b1 <__sprintf_chk@plt+0xb661>
    cb5c:	4c 89 ff             	mov    rdi,r15
    cb5f:	e8 f9 a4 ff ff       	call   705d <__sprintf_chk@plt+0x5d0d>
    cb64:	48 8d 94 24 80 00 00 	lea    rdx,[rsp+0x80]
    cb6b:	00 
    cb6c:	48 8d b4 24 40 04 00 	lea    rsi,[rsp+0x440]
    cb73:	00 
    cb74:	48 8d 7c 24 5c       	lea    rdi,[rsp+0x5c]
    cb79:	8b 4c 24 1c          	mov    ecx,DWORD PTR [rsp+0x1c]
    cb7d:	e8 2d db ff ff       	call   a6af <__sprintf_chk@plt+0x935f>
    cb82:	44 89 64 24 20       	mov    DWORD PTR [rsp+0x20],r12d
    cb87:	e9 5c 02 00 00       	jmp    cde8 <__sprintf_chk@plt+0xba98>
    cb8c:	89 ce                	mov    esi,ecx
    cb8e:	83 e6 3f             	and    esi,0x3f
    cb91:	41 8b 44 b7 04       	mov    eax,DWORD PTR [r15+rsi*4+0x4]
    cb96:	8d 50 ff             	lea    edx,[rax-0x1]
    cb99:	4d 63 07             	movsxd r8,DWORD PTR [r15]
    cb9c:	48 63 d2             	movsxd rdx,edx
    cb9f:	4b 8d 3c 00          	lea    rdi,[r8+r8*1]
    cba3:	4a 8d 04 07          	lea    rax,[rdi+r8*1]
    cba7:	48 8d 04 82          	lea    rax,[rdx+rax*4]
    cbab:	48 c1 e0 06          	shl    rax,0x6
    cbaf:	48 01 f0             	add    rax,rsi
    cbb2:	48 8d 1d e7 51 b2 00 	lea    rbx,[rip+0xb251e7]        # b31da0 <stdin@@GLIBC_2.2.5+0xb1ad70>
    cbb9:	8b 04 83             	mov    eax,DWORD PTR [rbx+rax*4]
    cbbc:	ff c0                	inc    eax
    cbbe:	c1 e0 07             	shl    eax,0x7
    cbc1:	4c 01 c7             	add    rdi,r8
    cbc4:	48 8d 14 ba          	lea    rdx,[rdx+rdi*4]
    cbc8:	48 c1 e2 06          	shl    rdx,0x6
    cbcc:	48 01 f2             	add    rdx,rsi
    cbcf:	48 8d 1d ca f1 b1 00 	lea    rbx,[rip+0xb1f1ca]        # b2bda0 <stdin@@GLIBC_2.2.5+0xb14d70>
    cbd6:	8b 34 93             	mov    esi,DWORD PTR [rbx+rdx*4]
    cbd9:	ff c6                	inc    esi
    cbdb:	99                   	cdq    
    cbdc:	f7 fe                	idiv   esi
    cbde:	83 f8 4f             	cmp    eax,0x4f
    cbe1:	0f 8f 28 01 00 00    	jg     cd0f <__sprintf_chk@plt+0xb9bf>
    cbe7:	f6 c5 f0             	test   ch,0xf0
    cbea:	0f 85 2c 01 00 00    	jne    cd1c <__sprintf_chk@plt+0xb9cc>
    cbf0:	45 8d 6e f8          	lea    r13d,[r14-0x8]
    cbf4:	c7 44 24 34 04 00 00 	mov    DWORD PTR [rsp+0x34],0x4
    cbfb:	00 
    cbfc:	bd fc ff ff ff       	mov    ebp,0xfffffffc
    cc01:	eb 08                	jmp    cc0b <__sprintf_chk@plt+0xb8bb>
    cc03:	8b 44 24 0c          	mov    eax,DWORD PTR [rsp+0xc]
    cc07:	89 44 24 34          	mov    DWORD PTR [rsp+0x34],eax
    cc0b:	83 7c 24 14 01       	cmp    DWORD PTR [rsp+0x14],0x1
    cc10:	0f 84 13 01 00 00    	je     cd29 <__sprintf_chk@plt+0xb9d9>
    cc16:	45 85 ed             	test   r13d,r13d
    cc19:	0f 8e cc 02 00 00    	jle    ceeb <__sprintf_chk@plt+0xbb9b>
    cc1f:	44 89 e2             	mov    edx,r12d
    cc22:	f7 da                	neg    edx
    cc24:	41 b9 01 00 00 00    	mov    r9d,0x1
    cc2a:	41 b8 00 00 00 00    	mov    r8d,0x0
    cc30:	44 89 e9             	mov    ecx,r13d
    cc33:	44 89 e6             	mov    esi,r12d
    cc36:	f7 d6                	not    esi
    cc38:	4c 89 ff             	mov    rdi,r15
    cc3b:	e8 6b ec ff ff       	call   b8ab <__sprintf_chk@plt+0xa55b>
    cc40:	f7 d8                	neg    eax
    cc42:	89 c3                	mov    ebx,eax
    cc44:	3b 5c 24 20          	cmp    ebx,DWORD PTR [rsp+0x20]
    cc48:	0f 8e 0f 01 00 00    	jle    cd5d <__sprintf_chk@plt+0xba0d>
    cc4e:	48 8d 05 eb 17 b7 00 	lea    rax,[rip+0xb717eb]        # b7e440 <stdin@@GLIBC_2.2.5+0xb67410>
    cc55:	83 b8 00 8d 00 00 00 	cmp    DWORD PTR [rax+0x8d00],0x0
    cc5c:	0f 85 fb 00 00 00    	jne    cd5d <__sprintf_chk@plt+0xba0d>
    cc62:	44 39 e3             	cmp    ebx,r12d
    cc65:	0f 8e f2 00 00 00    	jle    cd5d <__sprintf_chk@plt+0xba0d>
    cc6b:	83 7c 24 34 00       	cmp    DWORD PTR [rsp+0x34],0x0
    cc70:	41 0f 95 c1          	setne  r9b
    cc74:	39 5c 24 08          	cmp    DWORD PTR [rsp+0x8],ebx
    cc78:	0f 8f 93 02 00 00    	jg     cf11 <__sprintf_chk@plt+0xbbc1>
    cc7e:	45 84 c9             	test   r9b,r9b
    cc81:	0f 85 8a 02 00 00    	jne    cf11 <__sprintf_chk@plt+0xbbc1>
    cc87:	44 8b 6c 24 4c       	mov    r13d,DWORD PTR [rsp+0x4c]
    cc8c:	48 63 44 24 5c       	movsxd rax,DWORD PTR [rsp+0x5c]
    cc91:	8b b4 84 80 00 00 00 	mov    esi,DWORD PTR [rsp+rax*4+0x80]
    cc98:	4c 89 ff             	mov    rdi,r15
    cc9b:	e8 bd a3 ff ff       	call   705d <__sprintf_chk@plt+0x5d0d>
    cca0:	83 3d 99 a4 b7 00 00 	cmp    DWORD PTR [rip+0xb7a499],0x0        # b87140 <stdin@@GLIBC_2.2.5+0xb70110>
    cca7:	0f 85 5e 05 00 00    	jne    d20b <__sprintf_chk@plt+0xbebb>
    ccad:	48 63 44 24 5c       	movsxd rax,DWORD PTR [rsp+0x5c]
    ccb2:	8b b4 84 80 00 00 00 	mov    esi,DWORD PTR [rsp+rax*4+0x80]
    ccb9:	44 89 f2             	mov    edx,r14d
    ccbc:	4c 89 ff             	mov    rdi,r15
    ccbf:	e8 f3 d7 ff ff       	call   a4b7 <__sprintf_chk@plt+0x9167>
    ccc4:	8b 4c 24 10          	mov    ecx,DWORD PTR [rsp+0x10]
    ccc8:	83 f9 01             	cmp    ecx,0x1
    cccb:	0f 8e a4 03 00 00    	jle    d075 <__sprintf_chk@plt+0xbd25>
    ccd1:	41 8d 56 06          	lea    edx,[r14+0x6]
    ccd5:	44 89 f0             	mov    eax,r14d
    ccd8:	83 c0 03             	add    eax,0x3
    ccdb:	0f 48 c2             	cmovs  eax,edx
    ccde:	c1 f8 02             	sar    eax,0x2
    cce1:	89 44 24 04          	mov    DWORD PTR [rsp+0x4],eax
    cce5:	4c 8d 9c 24 00 08 00 	lea    r11,[rsp+0x800]
    ccec:	00 
    cced:	8d 41 fe             	lea    eax,[rcx-0x2]
    ccf0:	4c 8d a4 84 04 08 00 	lea    r12,[rsp+rax*4+0x804]
    ccf7:	00 
    ccf8:	4c 8d 0d a1 f0 b1 00 	lea    r9,[rip+0xb1f0a1]        # b2bda0 <stdin@@GLIBC_2.2.5+0xb14d70>
    ccff:	4c 8d 15 9a 50 b2 00 	lea    r10,[rip+0xb2509a]        # b31da0 <stdin@@GLIBC_2.2.5+0xb1ad70>
    cd06:	89 5c 24 0c          	mov    DWORD PTR [rsp+0xc],ebx
    cd0a:	e9 95 02 00 00       	jmp    cfa4 <__sprintf_chk@plt+0xbc54>
    cd0f:	8b 6c 24 0c          	mov    ebp,DWORD PTR [rsp+0xc]
    cd13:	89 6c 24 34          	mov    DWORD PTR [rsp+0x34],ebp
    cd17:	e9 ef fe ff ff       	jmp    cc0b <__sprintf_chk@plt+0xb8bb>
    cd1c:	8b 6c 24 0c          	mov    ebp,DWORD PTR [rsp+0xc]
    cd20:	89 6c 24 34          	mov    DWORD PTR [rsp+0x34],ebp
    cd24:	e9 e2 fe ff ff       	jmp    cc0b <__sprintf_chk@plt+0xb8bb>
    cd29:	45 85 ed             	test   r13d,r13d
    cd2c:	0f 8e 94 01 00 00    	jle    cec6 <__sprintf_chk@plt+0xbb76>
    cd32:	83 7c 24 04 00       	cmp    DWORD PTR [rsp+0x4],0x0
    cd37:	41 0f 94 c1          	sete   r9b
    cd3b:	44 89 e2             	mov    edx,r12d
    cd3e:	f7 da                	neg    edx
    cd40:	45 0f b6 c9          	movzx  r9d,r9b
    cd44:	41 b8 00 00 00 00    	mov    r8d,0x0
    cd4a:	44 89 e9             	mov    ecx,r13d
    cd4d:	8b 74 24 24          	mov    esi,DWORD PTR [rsp+0x24]
    cd51:	4c 89 ff             	mov    rdi,r15
    cd54:	e8 52 eb ff ff       	call   b8ab <__sprintf_chk@plt+0xa55b>
    cd59:	f7 d8                	neg    eax
    cd5b:	89 c3                	mov    ebx,eax
    cd5d:	8b 44 24 20          	mov    eax,DWORD PTR [rsp+0x20]
    cd61:	39 d8                	cmp    eax,ebx
    cd63:	0f 4c c3             	cmovl  eax,ebx
    cd66:	89 44 24 20          	mov    DWORD PTR [rsp+0x20],eax
    cd6a:	48 63 44 24 5c       	movsxd rax,DWORD PTR [rsp+0x5c]
    cd6f:	8b b4 84 80 00 00 00 	mov    esi,DWORD PTR [rsp+rax*4+0x80]
    cd76:	4c 89 ff             	mov    rdi,r15
    cd79:	e8 df a2 ff ff       	call   705d <__sprintf_chk@plt+0x5d0d>
    cd7e:	48 8d 05 bb 16 b7 00 	lea    rax,[rip+0xb716bb]        # b7e440 <stdin@@GLIBC_2.2.5+0xb67410>
    cd85:	8b 80 00 8d 00 00    	mov    eax,DWORD PTR [rax+0x8d00]
    cd8b:	89 44 24 14          	mov    DWORD PTR [rsp+0x14],eax
    cd8f:	85 c0                	test   eax,eax
    cd91:	0f 85 6b 04 00 00    	jne    d202 <__sprintf_chk@plt+0xbeb2>
    cd97:	44 39 e3             	cmp    ebx,r12d
    cd9a:	0f 8f c7 01 00 00    	jg     cf67 <__sprintf_chk@plt+0xbc17>
    cda0:	8b 5c 24 10          	mov    ebx,DWORD PTR [rsp+0x10]
    cda4:	8d 43 ff             	lea    eax,[rbx-0x1]
    cda7:	48 98                	cdqe   
    cda9:	48 63 54 24 5c       	movsxd rdx,DWORD PTR [rsp+0x5c]
    cdae:	8b 94 94 80 00 00 00 	mov    edx,DWORD PTR [rsp+rdx*4+0x80]
    cdb5:	89 94 84 00 08 00 00 	mov    DWORD PTR [rsp+rax*4+0x800],edx
    cdbc:	ff c3                	inc    ebx
    cdbe:	89 5c 24 10          	mov    DWORD PTR [rsp+0x10],ebx
    cdc2:	8b 44 24 14          	mov    eax,DWORD PTR [rsp+0x14]
    cdc6:	89 44 24 34          	mov    DWORD PTR [rsp+0x34],eax
    cdca:	48 8d 94 24 80 00 00 	lea    rdx,[rsp+0x80]
    cdd1:	00 
    cdd2:	48 8d b4 24 40 04 00 	lea    rsi,[rsp+0x440]
    cdd9:	00 
    cdda:	48 8d 7c 24 5c       	lea    rdi,[rsp+0x5c]
    cddf:	8b 4c 24 1c          	mov    ecx,DWORD PTR [rsp+0x1c]
    cde3:	e8 c7 d8 ff ff       	call   a6af <__sprintf_chk@plt+0x935f>
    cde8:	85 c0                	test   eax,eax
    cdea:	0f 84 e5 02 00 00    	je     d0d5 <__sprintf_chk@plt+0xbd85>
    cdf0:	41 8b 87 d8 01 00 00 	mov    eax,DWORD PTR [r15+0x1d8]
    cdf7:	83 f8 3b             	cmp    eax,0x3b
    cdfa:	0f 8f 13 fa ff ff    	jg     c813 <__sprintf_chk@plt+0xb4c3>
    ce00:	48 63 54 24 5c       	movsxd rdx,DWORD PTR [rsp+0x5c]
    ce05:	8b 8c 94 80 00 00 00 	mov    ecx,DWORD PTR [rsp+rdx*4+0x80]
    ce0c:	89 ca                	mov    edx,ecx
    ce0e:	c1 fa 06             	sar    edx,0x6
    ce11:	89 d7                	mov    edi,edx
    ce13:	83 e7 3f             	and    edi,0x3f
    ce16:	83 e2 3f             	and    edx,0x3f
    ce19:	41 8b 54 97 04       	mov    edx,DWORD PTR [r15+rdx*4+0x4]
    ce1e:	ff c2                	inc    edx
    ce20:	d1 fa                	sar    edx,1
    ce22:	8b 6c 24 30          	mov    ebp,DWORD PTR [rsp+0x30]
    ce26:	83 fa 01             	cmp    edx,0x1
    ce29:	0f 84 21 f9 ff ff    	je     c750 <__sprintf_chk@plt+0xb400>
    ce2f:	89 ca                	mov    edx,ecx
    ce31:	c1 fa 13             	sar    edx,0x13
    ce34:	83 e2 0f             	and    edx,0xf
    ce37:	83 fa 0d             	cmp    edx,0xd
    ce3a:	0f 84 0a 04 00 00    	je     d24a <__sprintf_chk@plt+0xbefa>
    ce40:	ff c8                	dec    eax
    ce42:	48 98                	cdqe   
    ce44:	41 8b b4 87 f0 09 00 	mov    esi,DWORD PTR [r15+rax*4+0x9f0]
    ce4b:	00 
    ce4c:	89 f0                	mov    eax,esi
    ce4e:	c1 f8 13             	sar    eax,0x13
    ce51:	83 e0 0f             	and    eax,0xf
    ce54:	83 f8 0d             	cmp    eax,0xd
    ce57:	74 18                	je     ce71 <__sprintf_chk@plt+0xbb21>
    ce59:	48 63 d2             	movsxd rdx,edx
    ce5c:	48 98                	cdqe   
    ce5e:	48 8d 1d 7b 62 00 00 	lea    rbx,[rip+0x627b]        # 130e0 <__sprintf_chk@plt+0x11d90>
    ce65:	8b 04 83             	mov    eax,DWORD PTR [rbx+rax*4]
    ce68:	39 04 93             	cmp    DWORD PTR [rbx+rdx*4],eax
    ce6b:	0f 84 0d f9 ff ff    	je     c77e <__sprintf_chk@plt+0xb42e>
    ce71:	83 7c 24 70 01       	cmp    DWORD PTR [rsp+0x70],0x1
    ce76:	0f 84 50 f9 ff ff    	je     c7cc <__sprintf_chk@plt+0xb47c>
    ce7c:	83 fd 04             	cmp    ebp,0x4
    ce7f:	b8 04 00 00 00       	mov    eax,0x4
    ce84:	0f 4f e8             	cmovg  ebp,eax
    ce87:	48 63 44 24 5c       	movsxd rax,DWORD PTR [rsp+0x5c]
    ce8c:	8b 84 84 80 00 00 00 	mov    eax,DWORD PTR [rsp+rax*4+0x80]
    ce93:	89 c2                	mov    edx,eax
    ce95:	c1 fa 13             	sar    edx,0x13
    ce98:	83 e2 0f             	and    edx,0xf
    ce9b:	8d 4a ff             	lea    ecx,[rdx-0x1]
    ce9e:	83 f9 01             	cmp    ecx,0x1
    cea1:	0f 86 70 f9 ff ff    	jbe    c817 <__sprintf_chk@plt+0xb4c7>
    cea7:	83 fa 0d             	cmp    edx,0xd
    ceaa:	0f 84 67 f9 ff ff    	je     c817 <__sprintf_chk@plt+0xb4c7>
    ceb0:	8b 74 24 40          	mov    esi,DWORD PTR [rsp+0x40]
    ceb4:	03 74 24 44          	add    esi,DWORD PTR [rsp+0x44]
    ceb8:	8d 4d 04             	lea    ecx,[rbp+0x4]
    cebb:	83 fe 01             	cmp    esi,0x1
    cebe:	0f 44 e9             	cmove  ebp,ecx
    cec1:	e9 6a f9 ff ff       	jmp    c830 <__sprintf_chk@plt+0xb4e0>
    cec6:	44 89 e2             	mov    edx,r12d
    cec9:	f7 da                	neg    edx
    cecb:	41 b8 00 00 00 00    	mov    r8d,0x0
    ced1:	b9 00 00 00 00       	mov    ecx,0x0
    ced6:	8b 74 24 24          	mov    esi,DWORD PTR [rsp+0x24]
    ceda:	4c 89 ff             	mov    rdi,r15
    cedd:	e8 c9 de ff ff       	call   adab <__sprintf_chk@plt+0x9a5b>
    cee2:	f7 d8                	neg    eax
    cee4:	89 c3                	mov    ebx,eax
    cee6:	e9 72 fe ff ff       	jmp    cd5d <__sprintf_chk@plt+0xba0d>
    ceeb:	44 89 e2             	mov    edx,r12d
    ceee:	f7 da                	neg    edx
    cef0:	41 b8 00 00 00 00    	mov    r8d,0x0
    cef6:	b9 00 00 00 00       	mov    ecx,0x0
    cefb:	44 89 e6             	mov    esi,r12d
    cefe:	f7 d6                	not    esi
    cf00:	4c 89 ff             	mov    rdi,r15
    cf03:	e8 a3 de ff ff       	call   adab <__sprintf_chk@plt+0x9a5b>
    cf08:	f7 d8                	neg    eax
    cf0a:	89 c3                	mov    ebx,eax
    cf0c:	e9 33 fd ff ff       	jmp    cc44 <__sprintf_chk@plt+0xb8f4>
    cf11:	03 6c 24 34          	add    ebp,DWORD PTR [rsp+0x34]
    cf15:	41 8d 4c 2e fc       	lea    ecx,[r14+rbp*1-0x4]
    cf1a:	85 c9                	test   ecx,ecx
    cf1c:	7e 24                	jle    cf42 <__sprintf_chk@plt+0xbbf2>
    cf1e:	44 89 e2             	mov    edx,r12d
    cf21:	f7 da                	neg    edx
    cf23:	45 0f b6 c9          	movzx  r9d,r9b
    cf27:	41 b8 00 00 00 00    	mov    r8d,0x0
    cf2d:	8b 74 24 24          	mov    esi,DWORD PTR [rsp+0x24]
    cf31:	4c 89 ff             	mov    rdi,r15
    cf34:	e8 72 e9 ff ff       	call   b8ab <__sprintf_chk@plt+0xa55b>
    cf39:	f7 d8                	neg    eax
    cf3b:	89 c3                	mov    ebx,eax
    cf3d:	e9 1b fe ff ff       	jmp    cd5d <__sprintf_chk@plt+0xba0d>
    cf42:	44 89 e2             	mov    edx,r12d
    cf45:	f7 da                	neg    edx
    cf47:	41 b8 00 00 00 00    	mov    r8d,0x0
    cf4d:	b9 00 00 00 00       	mov    ecx,0x0
    cf52:	8b 74 24 24          	mov    esi,DWORD PTR [rsp+0x24]
    cf56:	4c 89 ff             	mov    rdi,r15
    cf59:	e8 4d de ff ff       	call   adab <__sprintf_chk@plt+0x9a5b>
    cf5e:	f7 d8                	neg    eax
    cf60:	89 c3                	mov    ebx,eax
    cf62:	e9 f6 fd ff ff       	jmp    cd5d <__sprintf_chk@plt+0xba0d>
    cf67:	39 5c 24 08          	cmp    DWORD PTR [rsp+0x8],ebx
    cf6b:	7e 20                	jle    cf8d <__sprintf_chk@plt+0xbc3d>
    cf6d:	48 63 44 24 5c       	movsxd rax,DWORD PTR [rsp+0x5c]
    cf72:	8b bc 84 80 00 00 00 	mov    edi,DWORD PTR [rsp+rax*4+0x80]
    cf79:	e8 7b 25 00 00       	call   f4f9 <__sprintf_chk@plt+0xe1a9>
    cf7e:	0f b7 c0             	movzx  eax,ax
    cf81:	89 44 24 6c          	mov    DWORD PTR [rsp+0x6c],eax
    cf85:	41 89 dc             	mov    r12d,ebx
    cf88:	e9 13 fe ff ff       	jmp    cda0 <__sprintf_chk@plt+0xba50>
    cf8d:	44 8b 6c 24 4c       	mov    r13d,DWORD PTR [rsp+0x4c]
    cf92:	e9 16 fd ff ff       	jmp    ccad <__sprintf_chk@plt+0xb95d>
    cf97:	49 83 c3 04          	add    r11,0x4
    cf9b:	4d 39 e3             	cmp    r11,r12
    cf9e:	0f 84 cd 00 00 00    	je     d071 <__sprintf_chk@plt+0xbd21>
    cfa4:	41 8b 13             	mov    edx,DWORD PTR [r11]
    cfa7:	89 d0                	mov    eax,edx
    cfa9:	c1 f8 13             	sar    eax,0x13
    cfac:	83 e0 0f             	and    eax,0xf
    cfaf:	83 f8 0d             	cmp    eax,0xd
    cfb2:	75 e3                	jne    cf97 <__sprintf_chk@plt+0xbc47>
    cfb4:	89 d5                	mov    ebp,edx
    cfb6:	c1 fd 0c             	sar    ebp,0xc
    cfb9:	83 e5 0f             	and    ebp,0xf
    cfbc:	75 d9                	jne    cf97 <__sprintf_chk@plt+0xbc47>
    cfbe:	89 d0                	mov    eax,edx
    cfc0:	c1 f8 06             	sar    eax,0x6
    cfc3:	83 e0 3f             	and    eax,0x3f
    cfc6:	41 8b 44 87 04       	mov    eax,DWORD PTR [r15+rax*4+0x4]
    cfcb:	ff c8                	dec    eax
    cfcd:	83 e2 3f             	and    edx,0x3f
    cfd0:	49 63 3f             	movsxd rdi,DWORD PTR [r15]
    cfd3:	48 98                	cdqe   
    cfd5:	48 8d 34 3f          	lea    rsi,[rdi+rdi*1]
    cfd9:	48 8d 0c 3e          	lea    rcx,[rsi+rdi*1]
    cfdd:	48 8d 0c 88          	lea    rcx,[rax+rcx*4]
    cfe1:	48 c1 e1 06          	shl    rcx,0x6
    cfe5:	48 01 d1             	add    rcx,rdx
    cfe8:	8b 5c 24 04          	mov    ebx,DWORD PTR [rsp+0x4]
    cfec:	41 03 1c 89          	add    ebx,DWORD PTR [r9+rcx*4]
    cff0:	41 89 1c 89          	mov    DWORD PTR [r9+rcx*4],ebx
    cff4:	49 63 0f             	movsxd rcx,DWORD PTR [r15]
    cff7:	48 8d 0c 49          	lea    rcx,[rcx+rcx*2]
    cffb:	48 8d 04 88          	lea    rax,[rax+rcx*4]
    cfff:	48 c1 e0 06          	shl    rax,0x6
    d003:	48 01 c2             	add    rdx,rax
    d006:	41 81 3c 91 00 40 00 	cmp    DWORD PTR [r9+rdx*4],0x4000
    d00d:	00 
    d00e:	7e 87                	jle    cf97 <__sprintf_chk@plt+0xbc47>
    d010:	89 eb                	mov    ebx,ebp
    d012:	89 ee                	mov    esi,ebp
    d014:	48 63 cb             	movsxd rcx,ebx
    d017:	48 63 fe             	movsxd rdi,esi
    d01a:	4d 63 07             	movsxd r8,DWORD PTR [r15]
    d01d:	4b 8d 14 00          	lea    rdx,[r8+r8*1]
    d021:	4a 8d 04 02          	lea    rax,[rdx+r8*1]
    d025:	48 8d 04 81          	lea    rax,[rcx+rax*4]
    d029:	48 c1 e0 06          	shl    rax,0x6
    d02d:	48 01 f8             	add    rax,rdi
    d030:	41 8b 14 82          	mov    edx,DWORD PTR [r10+rax*4]
    d034:	ff c2                	inc    edx
    d036:	d1 fa                	sar    edx,1
    d038:	41 89 14 82          	mov    DWORD PTR [r10+rax*4],edx
    d03c:	4d 63 07             	movsxd r8,DWORD PTR [r15]
    d03f:	4b 8d 14 00          	lea    rdx,[r8+r8*1]
    d043:	4a 8d 04 02          	lea    rax,[rdx+r8*1]
    d047:	48 8d 04 81          	lea    rax,[rcx+rax*4]
    d04b:	48 c1 e0 06          	shl    rax,0x6
    d04f:	48 01 f8             	add    rax,rdi
    d052:	41 8b 14 81          	mov    edx,DWORD PTR [r9+rax*4]
    d056:	ff c2                	inc    edx
    d058:	d1 fa                	sar    edx,1
    d05a:	41 89 14 81          	mov    DWORD PTR [r9+rax*4],edx
    d05e:	ff c6                	inc    esi
    d060:	83 fe 40             	cmp    esi,0x40
    d063:	75 b2                	jne    d017 <__sprintf_chk@plt+0xbcc7>
    d065:	ff c3                	inc    ebx
    d067:	83 fb 0c             	cmp    ebx,0xc
    d06a:	75 a6                	jne    d012 <__sprintf_chk@plt+0xbcc2>
    d06c:	e9 26 ff ff ff       	jmp    cf97 <__sprintf_chk@plt+0xbc47>
    d071:	8b 5c 24 0c          	mov    ebx,DWORD PTR [rsp+0xc]
    d075:	8b 6c 24 74          	mov    ebp,DWORD PTR [rsp+0x74]
    d079:	44 8b 64 24 70       	mov    r12d,DWORD PTR [rsp+0x70]
    d07e:	8b 44 24 64          	mov    eax,DWORD PTR [rsp+0x64]
    d082:	89 44 24 04          	mov    DWORD PTR [rsp+0x4],eax
    d086:	48 63 44 24 5c       	movsxd rax,DWORD PTR [rsp+0x5c]
    d08b:	8b bc 84 80 00 00 00 	mov    edi,DWORD PTR [rsp+rax*4+0x80]
    d092:	e8 62 24 00 00       	call   f4f9 <__sprintf_chk@plt+0xe1a9>
    d097:	48 83 ec 08          	sub    rsp,0x8
    d09b:	41 56                	push   r14
    d09d:	55                   	push   rbp
    d09e:	41 54                	push   r12
    d0a0:	44 8b 4c 24 24       	mov    r9d,DWORD PTR [rsp+0x24]
    d0a5:	44 0f b7 c0          	movzx  r8d,ax
    d0a9:	8b 4c 24 28          	mov    ecx,DWORD PTR [rsp+0x28]
    d0ad:	44 89 ea             	mov    edx,r13d
    d0b0:	89 de                	mov    esi,ebx
    d0b2:	4c 89 ff             	mov    rdi,r15
    d0b5:	e8 51 1e 00 00       	call   ef0b <__sprintf_chk@plt+0xdbbb>
    d0ba:	48 83 c4 20          	add    rsp,0x20
    d0be:	e9 4a e8 ff ff       	jmp    b90d <__sprintf_chk@plt+0xa5bd>
    d0c3:	c7 44 24 20 00 83 ff 	mov    DWORD PTR [rsp+0x20],0xffff8300
    d0ca:	ff 
    d0cb:	c7 44 24 34 01 00 00 	mov    DWORD PTR [rsp+0x34],0x1
    d0d2:	00 
    d0d3:	eb 05                	jmp    d0da <__sprintf_chk@plt+0xbd8a>
    d0d5:	44 8b 6c 24 4c       	mov    r13d,DWORD PTR [rsp+0x4c]
    d0da:	8b 05 60 a0 b7 00    	mov    eax,DWORD PTR [rip+0xb7a060]        # b87140 <stdin@@GLIBC_2.2.5+0xb70110>
    d0e0:	85 c0                	test   eax,eax
    d0e2:	75 07                	jne    d0eb <__sprintf_chk@plt+0xbd9b>
    d0e4:	83 7c 24 34 00       	cmp    DWORD PTR [rsp+0x34],0x0
    d0e9:	75 62                	jne    d14d <__sprintf_chk@plt+0xbdfd>
    d0eb:	8b 5c 24 0c          	mov    ebx,DWORD PTR [rsp+0xc]
    d0ef:	41 83 bf dc 01 00 00 	cmp    DWORD PTR [r15+0x1dc],0x62
    d0f6:	62 
    d0f7:	0f 8f 10 e8 ff ff    	jg     b90d <__sprintf_chk@plt+0xa5bd>
    d0fd:	8b 5c 24 20          	mov    ebx,DWORD PTR [rsp+0x20]
    d101:	85 c0                	test   eax,eax
    d103:	0f 85 04 e8 ff ff    	jne    b90d <__sprintf_chk@plt+0xa5bd>
    d109:	48 83 ec 08          	sub    rsp,0x8
    d10d:	41 56                	push   r14
    d10f:	8b 84 24 84 00 00 00 	mov    eax,DWORD PTR [rsp+0x84]
    d116:	50                   	push   rax
    d117:	8b 84 24 88 00 00 00 	mov    eax,DWORD PTR [rsp+0x88]
    d11e:	50                   	push   rax
    d11f:	44 8b 8c 24 84 00 00 	mov    r9d,DWORD PTR [rsp+0x84]
    d126:	00 
    d127:	44 8b 84 24 8c 00 00 	mov    r8d,DWORD PTR [rsp+0x8c]
    d12e:	00 
    d12f:	8b 4c 24 28          	mov    ecx,DWORD PTR [rsp+0x28]
    d133:	44 89 ea             	mov    edx,r13d
    d136:	8b 5c 24 40          	mov    ebx,DWORD PTR [rsp+0x40]
    d13a:	89 de                	mov    esi,ebx
    d13c:	4c 89 ff             	mov    rdi,r15
    d13f:	e8 c7 1d 00 00       	call   ef0b <__sprintf_chk@plt+0xdbbb>
    d144:	48 83 c4 20          	add    rsp,0x20
    d148:	e9 c0 e7 ff ff       	jmp    b90d <__sprintf_chk@plt+0xa5bd>
    d14d:	4c 89 ff             	mov    rdi,r15
    d150:	e8 82 45 ff ff       	call   16d7 <__sprintf_chk@plt+0x387>
    d155:	89 c3                	mov    ebx,eax
    d157:	85 c0                	test   eax,eax
    d159:	74 56                	je     d1b1 <__sprintf_chk@plt+0xbe61>
    d15b:	41 8b 87 d8 01 00 00 	mov    eax,DWORD PTR [r15+0x1d8]
    d162:	8d b0 00 83 ff ff    	lea    esi,[rax-0x7d00]
    d168:	48 83 ec 08          	sub    rsp,0x8
    d16c:	41 56                	push   r14
    d16e:	8b 84 24 84 00 00 00 	mov    eax,DWORD PTR [rsp+0x84]
    d175:	50                   	push   rax
    d176:	8b 84 24 88 00 00 00 	mov    eax,DWORD PTR [rsp+0x88]
    d17d:	50                   	push   rax
    d17e:	44 8b 8c 24 84 00 00 	mov    r9d,DWORD PTR [rsp+0x84]
    d185:	00 
    d186:	41 b8 00 00 00 00    	mov    r8d,0x0
    d18c:	8b 4c 24 28          	mov    ecx,DWORD PTR [rsp+0x28]
    d190:	44 89 ea             	mov    edx,r13d
    d193:	4c 89 ff             	mov    rdi,r15
    d196:	e8 70 1d 00 00       	call   ef0b <__sprintf_chk@plt+0xdbbb>
    d19b:	41 8b 9f d8 01 00 00 	mov    ebx,DWORD PTR [r15+0x1d8]
    d1a2:	81 eb 00 7d 00 00    	sub    ebx,0x7d00
    d1a8:	48 83 c4 20          	add    rsp,0x20
    d1ac:	e9 5c e7 ff ff       	jmp    b90d <__sprintf_chk@plt+0xa5bd>
    d1b1:	48 83 ec 08          	sub    rsp,0x8
    d1b5:	41 56                	push   r14
    d1b7:	8b 84 24 84 00 00 00 	mov    eax,DWORD PTR [rsp+0x84]
    d1be:	50                   	push   rax
    d1bf:	8b 84 24 88 00 00 00 	mov    eax,DWORD PTR [rsp+0x88]
    d1c6:	50                   	push   rax
    d1c7:	44 8b 8c 24 84 00 00 	mov    r9d,DWORD PTR [rsp+0x84]
    d1ce:	00 
    d1cf:	41 b8 00 00 00 00    	mov    r8d,0x0
    d1d5:	8b 4c 24 28          	mov    ecx,DWORD PTR [rsp+0x28]
    d1d9:	44 89 ea             	mov    edx,r13d
    d1dc:	be 00 00 00 00       	mov    esi,0x0
    d1e1:	4c 89 ff             	mov    rdi,r15
    d1e4:	e8 22 1d 00 00       	call   ef0b <__sprintf_chk@plt+0xdbbb>
    d1e9:	48 83 c4 20          	add    rsp,0x20
    d1ed:	e9 1b e7 ff ff       	jmp    b90d <__sprintf_chk@plt+0xa5bd>
    d1f2:	44 89 e3             	mov    ebx,r12d
    d1f5:	e9 13 e7 ff ff       	jmp    b90d <__sprintf_chk@plt+0xa5bd>
    d1fa:	44 89 e3             	mov    ebx,r12d
    d1fd:	e9 0b e7 ff ff       	jmp    b90d <__sprintf_chk@plt+0xa5bd>
    d202:	8b 5c 24 0c          	mov    ebx,DWORD PTR [rsp+0xc]
    d206:	e9 02 e7 ff ff       	jmp    b90d <__sprintf_chk@plt+0xa5bd>
    d20b:	8b 5c 24 14          	mov    ebx,DWORD PTR [rsp+0x14]
    d20f:	e9 f9 e6 ff ff       	jmp    b90d <__sprintf_chk@plt+0xa5bd>
    d214:	48 63 44 24 5c       	movsxd rax,DWORD PTR [rsp+0x5c]
    d219:	8b b4 84 80 00 00 00 	mov    esi,DWORD PTR [rsp+rax*4+0x80]
    d220:	4c 89 ff             	mov    rdi,r15
    d223:	e8 35 9e ff ff       	call   705d <__sprintf_chk@plt+0x5d0d>
    d228:	48 8d 05 11 12 b7 00 	lea    rax,[rip+0xb71211]        # b7e440 <stdin@@GLIBC_2.2.5+0xb67410>
    d22f:	83 b8 00 8d 00 00 00 	cmp    DWORD PTR [rax+0x8d00],0x0
    d236:	0f 84 8e fb ff ff    	je     cdca <__sprintf_chk@plt+0xba7a>
    d23c:	e9 cc e6 ff ff       	jmp    b90d <__sprintf_chk@plt+0xa5bd>
    d241:	8b 6c 24 0c          	mov    ebp,DWORD PTR [rsp+0xc]
    d245:	e9 1d e9 ff ff       	jmp    bb67 <__sprintf_chk@plt+0xa817>
    d24a:	83 7c 24 70 01       	cmp    DWORD PTR [rsp+0x70],0x1
    d24f:	0f 84 77 f5 ff ff    	je     c7cc <__sprintf_chk@plt+0xb47c>
    d255:	83 fd 04             	cmp    ebp,0x4
    d258:	b8 04 00 00 00       	mov    eax,0x4
    d25d:	0f 4f e8             	cmovg  ebp,eax
    d260:	e9 b2 f5 ff ff       	jmp    c817 <__sprintf_chk@plt+0xb4c7>
    d265:	8b 44 24 08          	mov    eax,DWORD PTR [rsp+0x8]
    d269:	2d 2c 01 00 00       	sub    eax,0x12c
    d26e:	39 44 24 28          	cmp    DWORD PTR [rsp+0x28],eax
    d272:	0f 8d 6c ea ff ff    	jge    bce4 <__sprintf_chk@plt+0xa994>
    d278:	e9 6f ed ff ff       	jmp    bfec <__sprintf_chk@plt+0xac9c>
    d27d:	e8 be 3f ff ff       	call   1240 <__stack_chk_fail@plt>
    d282:	f3 0f 1e fa          	endbr64 
    d286:	48 83 ec 08          	sub    rsp,0x8
    d28a:	e8 1c e6 ff ff       	call   b8ab <__sprintf_chk@plt+0xa55b>
    d28f:	83 3d aa 9e b7 00 00 	cmp    DWORD PTR [rip+0xb79eaa],0x0        # b87140 <stdin@@GLIBC_2.2.5+0xb70110>
    d296:	ba 00 00 00 00       	mov    edx,0x0
    d29b:	0f 45 c2             	cmovne eax,edx
    d29e:	48 83 c4 08          	add    rsp,0x8
    d2a2:	c3                   	ret    
    d2a3:	f3 0f 1e fa          	endbr64 
    d2a7:	41 57                	push   r15
    d2a9:	41 56                	push   r14
    d2ab:	41 55                	push   r13
    d2ad:	41 54                	push   r12
    d2af:	55                   	push   rbp
    d2b0:	53                   	push   rbx
    d2b1:	48 81 ec d8 09 00 00 	sub    rsp,0x9d8
    d2b8:	48 89 fb             	mov    rbx,rdi
    d2bb:	41 89 f3             	mov    r11d,esi
    d2be:	89 74 24 28          	mov    DWORD PTR [rsp+0x28],esi
    d2c2:	89 54 24 10          	mov    DWORD PTR [rsp+0x10],edx
    d2c6:	64 48 8b 04 25 28 00 	mov    rax,QWORD PTR fs:0x28
    d2cd:	00 00 
    d2cf:	48 89 84 24 c8 09 00 	mov    QWORD PTR [rsp+0x9c8],rax
    d2d6:	00 
    d2d7:	31 c0                	xor    eax,eax
    d2d9:	8b 05 c5 0a b3 00    	mov    eax,DWORD PTR [rip+0xb30ac5]        # b3dda4 <stdin@@GLIBC_2.2.5+0xb26d74>
    d2df:	89 44 24 24          	mov    DWORD PTR [rsp+0x24],eax
    d2e3:	c7 87 d8 01 00 00 01 	mov    DWORD PTR [rdi+0x1d8],0x1
    d2ea:	00 00 00 
    d2ed:	c7 05 49 11 b7 00 00 	mov    DWORD PTR [rip+0xb71149],0xffff8300        # b7e440 <stdin@@GLIBC_2.2.5+0xb67410>
    d2f4:	83 ff ff 
    d2f7:	8b bf 08 10 00 00    	mov    edi,DWORD PTR [rdi+0x1008]
    d2fd:	89 7c 24 2c          	mov    DWORD PTR [rsp+0x2c],edi
    d301:	8d 41 04             	lea    eax,[rcx+0x4]
    d304:	85 ff                	test   edi,edi
    d306:	0f 44 c1             	cmove  eax,ecx
    d309:	89 44 24 14          	mov    DWORD PTR [rsp+0x14],eax
    d30d:	48 8d 74 24 38       	lea    rsi,[rsp+0x38]
    d312:	50                   	push   rax
    d313:	56                   	push   rsi
    d314:	56                   	push   rsi
    d315:	56                   	push   rsi
    d316:	49 89 f1             	mov    r9,rsi
    d319:	4c 8d 44 24 5c       	lea    r8,[rsp+0x5c]
    d31e:	89 d1                	mov    ecx,edx
    d320:	44 89 da             	mov    edx,r11d
    d323:	48 89 df             	mov    rdi,rbx
    d326:	e8 0e 1e 00 00       	call   f139 <__sprintf_chk@plt+0xdde9>
    d32b:	48 83 c4 20          	add    rsp,0x20
    d32f:	48 89 df             	mov    rdi,rbx
    d332:	e8 a0 43 ff ff       	call   16d7 <__sprintf_chk@plt+0x387>
    d337:	85 c0                	test   eax,eax
    d339:	0f 84 a1 01 00 00    	je     d4e0 <__sprintf_chk@plt+0xc190>
    d33f:	48 89 df             	mov    rdi,rbx
    d342:	e8 90 43 ff ff       	call   16d7 <__sprintf_chk@plt+0x387>
    d347:	89 c2                	mov    edx,eax
    d349:	48 8d 74 24 40       	lea    rsi,[rsp+0x40]
    d34e:	48 89 df             	mov    rdi,rbx
    d351:	e8 34 92 ff ff       	call   658a <__sprintf_chk@plt+0x523a>
    d356:	89 44 24 08          	mov    DWORD PTR [rsp+0x8],eax
    d35a:	48 8d 94 24 00 04 00 	lea    rdx,[rsp+0x400]
    d361:	00 
    d362:	48 8d 74 24 40       	lea    rsi,[rsp+0x40]
    d367:	44 8b 05 be 9d b7 00 	mov    r8d,DWORD PTR [rip+0xb79dbe]        # b8712c <stdin@@GLIBC_2.2.5+0xb700fc>
    d36e:	8b 4c 24 08          	mov    ecx,DWORD PTR [rsp+0x8]
    d372:	48 89 df             	mov    rdi,rbx
    d375:	e8 a7 d5 ff ff       	call   a921 <__sprintf_chk@plt+0x95d1>
    d37a:	b8 00 00 00 00       	mov    eax,0x0
    d37f:	48 8d 0d 7a ea b7 00 	lea    rcx,[rip+0xb7ea7a]        # b8be00 <stdin@@GLIBC_2.2.5+0xb74dd0>
    d386:	48 8d 15 33 ce b9 00 	lea    rdx,[rip+0xb9ce33]        # baa1c0 <stdin@@GLIBC_2.2.5+0xb93190>
    d38d:	c7 04 01 00 83 ff ff 	mov    DWORD PTR [rcx+rax*1],0xffff8300
    d394:	c7 04 02 00 83 ff ff 	mov    DWORD PTR [rdx+rax*1],0xffff8300
    d39b:	48 83 c0 04          	add    rax,0x4
    d39f:	48 3d c0 03 00 00    	cmp    rax,0x3c0
    d3a5:	75 e6                	jne    d38d <__sprintf_chk@plt+0xc03d>
    d3a7:	c7 44 24 34 f0 00 00 	mov    DWORD PTR [rsp+0x34],0xf0
    d3ae:	00 
    d3af:	b9 01 00 00 00       	mov    ecx,0x1
    d3b4:	8b 54 24 10          	mov    edx,DWORD PTR [rsp+0x10]
    d3b8:	44 8b 74 24 28       	mov    r14d,DWORD PTR [rsp+0x28]
    d3bd:	44 89 f6             	mov    esi,r14d
    d3c0:	48 89 df             	mov    rdi,rbx
    d3c3:	e8 dd bc ff ff       	call   90a5 <__sprintf_chk@plt+0x7d55>
    d3c8:	c7 44 24 34 ff ff ff 	mov    DWORD PTR [rsp+0x34],0xffffffff
    d3cf:	ff 
    d3d0:	44 89 74 24 04       	mov    DWORD PTR [rsp+0x4],r14d
    d3d5:	c7 44 24 0c 00 00 00 	mov    DWORD PTR [rsp+0xc],0x0
    d3dc:	00 
    d3dd:	41 be 01 00 00 00    	mov    r14d,0x1
    d3e3:	c7 44 24 18 01 00 00 	mov    DWORD PTR [rsp+0x18],0x1
    d3ea:	00 
    d3eb:	41 bf 00 83 ff ff    	mov    r15d,0xffff8300
    d3f1:	48 8d 54 24 40       	lea    rdx,[rsp+0x40]
    d3f6:	48 8d b4 24 00 04 00 	lea    rsi,[rsp+0x400]
    d3fd:	00 
    d3fe:	48 8d 7c 24 34       	lea    rdi,[rsp+0x34]
    d403:	8b 4c 24 08          	mov    ecx,DWORD PTR [rsp+0x8]
    d407:	e8 a3 d2 ff ff       	call   a6af <__sprintf_chk@plt+0x935f>
    d40c:	85 c0                	test   eax,eax
    d40e:	0f 84 76 06 00 00    	je     da8a <__sprintf_chk@plt+0xc73a>
    d414:	48 63 44 24 34       	movsxd rax,DWORD PTR [rsp+0x34]
    d419:	8b 74 84 40          	mov    esi,DWORD PTR [rsp+rax*4+0x40]
    d41d:	48 89 df             	mov    rdi,rbx
    d420:	e8 6c 93 ff ff       	call   6791 <__sprintf_chk@plt+0x5441>
    d425:	8b 83 d8 01 00 00    	mov    eax,DWORD PTR [rbx+0x1d8]
    d42b:	89 c2                	mov    edx,eax
    d42d:	03 15 49 10 b7 00    	add    edx,DWORD PTR [rip+0xb71049]        # b7e47c <stdin@@GLIBC_2.2.5+0xb6744c>
    d433:	ff ca                	dec    edx
    d435:	48 63 d2             	movsxd rdx,edx
    d438:	48 8b 8b e0 01 00 00 	mov    rcx,QWORD PTR [rbx+0x1e0]
    d43f:	48 89 8c d3 30 11 00 	mov    QWORD PTR [rbx+rdx*8+0x1130],rcx
    d446:	00 
    d447:	48 63 54 24 34       	movsxd rdx,DWORD PTR [rsp+0x34]
    d44c:	8b 74 94 40          	mov    esi,DWORD PTR [rsp+rdx*4+0x40]
    d450:	ff c8                	dec    eax
    d452:	48 98                	cdqe   
    d454:	89 b4 83 f0 09 00 00 	mov    DWORD PTR [rbx+rax*4+0x9f0],esi
    d45b:	4c 8b ab f0 0f 00 00 	mov    r13,QWORD PTR [rbx+0xff0]
    d462:	48 89 df             	mov    rdi,rbx
    d465:	e8 69 a0 ff ff       	call   74d3 <__sprintf_chk@plt+0x6183>
    d46a:	89 c5                	mov    ebp,eax
    d46c:	85 c0                	test   eax,eax
    d46e:	0f 85 82 00 00 00    	jne    d4f6 <__sprintf_chk@plt+0xc1a6>
    d474:	83 3d 81 0b b3 00 00 	cmp    DWORD PTR [rip+0xb30b81],0x0        # b3dffc <stdin@@GLIBC_2.2.5+0xb26fcc>
    d47b:	74 0d                	je     d48a <__sprintf_chk@plt+0xc13a>
    d47d:	83 3d d0 0f b7 00 04 	cmp    DWORD PTR [rip+0xb70fd0],0x4        # b7e454 <stdin@@GLIBC_2.2.5+0xb67424>
    d484:	0f 8f 2e 05 00 00    	jg     d9b8 <__sprintf_chk@plt+0xc668>
    d48a:	48 63 44 24 34       	movsxd rax,DWORD PTR [rsp+0x34]
    d48f:	8b 74 84 40          	mov    esi,DWORD PTR [rsp+rax*4+0x40]
    d493:	48 89 df             	mov    rdi,rbx
    d496:	e8 c2 9b ff ff       	call   705d <__sprintf_chk@plt+0x5d0d>
    d49b:	44 8b 25 9e 9c b7 00 	mov    r12d,DWORD PTR [rip+0xb79c9e]        # b87140 <stdin@@GLIBC_2.2.5+0xb70110>
    d4a2:	45 85 e4             	test   r12d,r12d
    d4a5:	0f 85 47 07 00 00    	jne    dbf2 <__sprintf_chk@plt+0xc8a2>
    d4ab:	85 ed                	test   ebp,ebp
    d4ad:	0f 84 3e ff ff ff    	je     d3f1 <__sprintf_chk@plt+0xc0a1>
    d4b3:	44 3b 7c 24 04       	cmp    r15d,DWORD PTR [rsp+0x4]
    d4b8:	0f 8f 4e 05 00 00    	jg     da0c <__sprintf_chk@plt+0xc6bc>
    d4be:	45 85 f6             	test   r14d,r14d
    d4c1:	0f 84 2a ff ff ff    	je     d3f1 <__sprintf_chk@plt+0xc0a1>
    d4c7:	48 8b 83 f0 0f 00 00 	mov    rax,QWORD PTR [rbx+0xff0]
    d4ce:	4c 29 e8             	sub    rax,r13
    d4d1:	48 89 05 48 9c b7 00 	mov    QWORD PTR [rip+0xb79c48],rax        # b87120 <stdin@@GLIBC_2.2.5+0xb700f0>
    d4d8:	45 89 e6             	mov    r14d,r12d
    d4db:	e9 11 ff ff ff       	jmp    d3f1 <__sprintf_chk@plt+0xc0a1>
    d4e0:	48 8d 74 24 40       	lea    rsi,[rsp+0x40]
    d4e5:	48 89 df             	mov    rdi,rbx
    d4e8:	e8 a5 78 ff ff       	call   4d92 <__sprintf_chk@plt+0x3a42>
    d4ed:	89 44 24 08          	mov    DWORD PTR [rsp+0x8],eax
    d4f1:	e9 64 fe ff ff       	jmp    d35a <__sprintf_chk@plt+0xc00a>
    d4f6:	48 63 44 24 34       	movsxd rax,DWORD PTR [rsp+0x34]
    d4fb:	8b 74 84 40          	mov    esi,DWORD PTR [rsp+rax*4+0x40]
    d4ff:	48 89 df             	mov    rdi,rbx
    d502:	e8 56 9b ff ff       	call   705d <__sprintf_chk@plt+0x5d0d>
    d507:	ff 44 24 0c          	inc    DWORD PTR [rsp+0xc]
    d50b:	83 3d ea 0a b3 00 00 	cmp    DWORD PTR [rip+0xb30aea],0x0        # b3dffc <stdin@@GLIBC_2.2.5+0xb26fcc>
    d512:	0f 85 56 01 00 00    	jne    d66e <__sprintf_chk@plt+0xc31e>
    d518:	48 8d 94 24 c0 07 00 	lea    rdx,[rsp+0x7c0]
    d51f:	00 
    d520:	48 63 44 24 34       	movsxd rax,DWORD PTR [rsp+0x34]
    d525:	8b 74 84 40          	mov    esi,DWORD PTR [rsp+rax*4+0x40]
    d529:	48 89 df             	mov    rdi,rbx
    d52c:	e8 96 21 00 00       	call   f6c7 <__sprintf_chk@plt+0xe377>
    d531:	48 63 44 24 34       	movsxd rax,DWORD PTR [rsp+0x34]
    d536:	8b 74 84 40          	mov    esi,DWORD PTR [rsp+rax*4+0x40]
    d53a:	48 89 df             	mov    rdi,rbx
    d53d:	e8 4f 92 ff ff       	call   6791 <__sprintf_chk@plt+0x5441>
    d542:	8b ab d8 01 00 00    	mov    ebp,DWORD PTR [rbx+0x1d8]
    d548:	48 89 df             	mov    rdi,rbx
    d54b:	e8 87 41 ff ff       	call   16d7 <__sprintf_chk@plt+0x387>
    d550:	48 63 ed             	movsxd rbp,ebp
    d553:	89 84 ab 04 10 00 00 	mov    DWORD PTR [rbx+rbp*4+0x1004],eax
    d55a:	8b 54 24 04          	mov    edx,DWORD PTR [rsp+0x4]
    d55e:	f7 da                	neg    edx
    d560:	89 54 24 1c          	mov    DWORD PTR [rsp+0x1c],edx
    d564:	44 8b 64 24 10       	mov    r12d,DWORD PTR [rsp+0x10]
    d569:	41 f7 dc             	neg    r12d
    d56c:	b9 01 00 00 00       	mov    ecx,0x1
    d571:	44 89 e6             	mov    esi,r12d
    d574:	48 89 df             	mov    rdi,rbx
    d577:	e8 29 bb ff ff       	call   90a5 <__sprintf_chk@plt+0x7d55>
    d57c:	48 63 83 d8 01 00 00 	movsxd rax,DWORD PTR [rbx+0x1d8]
    d583:	83 bc 83 04 10 00 00 	cmp    DWORD PTR [rbx+rax*4+0x1004],0x0
    d58a:	00 
    d58b:	0f 85 8e 06 00 00    	jne    dc1f <__sprintf_chk@plt+0xc8cf>
    d591:	48 63 44 24 34       	movsxd rax,DWORD PTR [rsp+0x34]
    d596:	8b 44 84 40          	mov    eax,DWORD PTR [rsp+rax*4+0x40]
    d59a:	89 c7                	mov    edi,eax
    d59c:	83 e7 3f             	and    edi,0x3f
    d59f:	83 e0 3f             	and    eax,0x3f
    d5a2:	83 7c 83 04 01       	cmp    DWORD PTR [rbx+rax*4+0x4],0x1
    d5a7:	0f 84 df 00 00 00    	je     d68c <__sprintf_chk@plt+0xc33c>
    d5ad:	48 63 44 24 34       	movsxd rax,DWORD PTR [rsp+0x34]
    d5b2:	8b 44 84 40          	mov    eax,DWORD PTR [rsp+rax*4+0x40]
    d5b6:	89 c7                	mov    edi,eax
    d5b8:	83 e7 3f             	and    edi,0x3f
    d5bb:	83 e0 3f             	and    eax,0x3f
    d5be:	83 7c 83 04 02       	cmp    DWORD PTR [rbx+rax*4+0x4],0x2
    d5c3:	0f 84 db 00 00 00    	je     d6a4 <__sprintf_chk@plt+0xc354>
    d5c9:	48 63 44 24 34       	movsxd rax,DWORD PTR [rsp+0x34]
    d5ce:	8b 74 84 40          	mov    esi,DWORD PTR [rsp+rax*4+0x40]
    d5d2:	89 f5                	mov    ebp,esi
    d5d4:	c1 fd 0c             	sar    ebp,0xc
    d5d7:	83 e5 0f             	and    ebp,0xf
    d5da:	0f 85 1e 07 00 00    	jne    dcfe <__sprintf_chk@plt+0xc9ae>
    d5e0:	83 7c 24 2c 00       	cmp    DWORD PTR [rsp+0x2c],0x0
    d5e5:	0f 85 d1 00 00 00    	jne    d6bc <__sprintf_chk@plt+0xc36c>
    d5eb:	83 7c 24 0c 03       	cmp    DWORD PTR [rsp+0xc],0x3
    d5f0:	0f 8e c6 00 00 00    	jle    d6bc <__sprintf_chk@plt+0xc36c>
    d5f6:	89 f7                	mov    edi,esi
    d5f8:	83 e7 3f             	and    edi,0x3f
    d5fb:	8b 44 bb 04          	mov    eax,DWORD PTR [rbx+rdi*4+0x4]
    d5ff:	8d 48 ff             	lea    ecx,[rax-0x1]
    d602:	4c 63 0b             	movsxd r9,DWORD PTR [rbx]
    d605:	48 63 c9             	movsxd rcx,ecx
    d608:	4f 8d 04 09          	lea    r8,[r9+r9*1]
    d60c:	4b 8d 04 08          	lea    rax,[r8+r9*1]
    d610:	48 8d 04 81          	lea    rax,[rcx+rax*4]
    d614:	48 c1 e0 06          	shl    rax,0x6
    d618:	48 01 f8             	add    rax,rdi
    d61b:	48 8d 15 7e 47 b2 00 	lea    rdx,[rip+0xb2477e]        # b31da0 <stdin@@GLIBC_2.2.5+0xb1ad70>
    d622:	8b 04 82             	mov    eax,DWORD PTR [rdx+rax*4]
    d625:	ff c0                	inc    eax
    d627:	c1 e0 07             	shl    eax,0x7
    d62a:	4d 01 c8             	add    r8,r9
    d62d:	4a 8d 14 81          	lea    rdx,[rcx+r8*4]
    d631:	48 c1 e2 06          	shl    rdx,0x6
    d635:	48 01 fa             	add    rdx,rdi
    d638:	48 8d 0d 61 e7 b1 00 	lea    rcx,[rip+0xb1e761]        # b2bda0 <stdin@@GLIBC_2.2.5+0xb14d70>
    d63f:	8b 0c 91             	mov    ecx,DWORD PTR [rcx+rdx*4]
    d642:	ff c1                	inc    ecx
    d644:	99                   	cdq    
    d645:	f7 f9                	idiv   ecx
    d647:	89 6c 24 20          	mov    DWORD PTR [rsp+0x20],ebp
    d64b:	83 f8 4f             	cmp    eax,0x4f
    d64e:	0f 8f d8 05 00 00    	jg     dc2c <__sprintf_chk@plt+0xc8dc>
    d654:	c1 fe 13             	sar    esi,0x13
    d657:	83 e6 0f             	and    esi,0xf
    d65a:	83 fe 0d             	cmp    esi,0xd
    d65d:	b8 04 00 00 00       	mov    eax,0x4
    d662:	0f 45 c5             	cmovne eax,ebp
    d665:	89 44 24 20          	mov    DWORD PTR [rsp+0x20],eax
    d669:	e9 be 05 00 00       	jmp    dc2c <__sprintf_chk@plt+0xc8dc>
    d66e:	48 8d 94 24 c0 07 00 	lea    rdx,[rsp+0x7c0]
    d675:	00 
    d676:	48 63 44 24 34       	movsxd rax,DWORD PTR [rsp+0x34]
    d67b:	8b 74 84 40          	mov    esi,DWORD PTR [rsp+rax*4+0x40]
    d67f:	48 89 df             	mov    rdi,rbx
    d682:	e8 82 26 00 00       	call   fd09 <__sprintf_chk@plt+0xe9b9>
    d687:	e9 a5 fe ff ff       	jmp    d531 <__sprintf_chk@plt+0xc1e1>
    d68c:	e8 50 54 ff ff       	call   2ae1 <__sprintf_chk@plt+0x1791>
    d691:	83 f8 06             	cmp    eax,0x6
    d694:	0f 8e 13 ff ff ff    	jle    d5ad <__sprintf_chk@plt+0xc25d>
    d69a:	bd 03 00 00 00       	mov    ebp,0x3
    d69f:	e9 80 05 00 00       	jmp    dc24 <__sprintf_chk@plt+0xc8d4>
    d6a4:	e8 38 54 ff ff       	call   2ae1 <__sprintf_chk@plt+0x1791>
    d6a9:	83 f8 02             	cmp    eax,0x2
    d6ac:	0f 8f 17 ff ff ff    	jg     d5c9 <__sprintf_chk@plt+0xc279>
    d6b2:	bd 03 00 00 00       	mov    ebp,0x3
    d6b7:	e9 68 05 00 00       	jmp    dc24 <__sprintf_chk@plt+0xc8d4>
    d6bc:	89 6c 24 20          	mov    DWORD PTR [rsp+0x20],ebp
    d6c0:	e9 67 05 00 00       	jmp    dc2c <__sprintf_chk@plt+0xc8dc>
    d6c5:	83 3d 18 09 b3 00 01 	cmp    DWORD PTR [rip+0xb30918],0x1        # b3dfe4 <stdin@@GLIBC_2.2.5+0xb26fb4>
    d6cc:	0f 85 7e 05 00 00    	jne    dc50 <__sprintf_chk@plt+0xc900>
    d6d2:	8b 44 24 14          	mov    eax,DWORD PTR [rsp+0x14]
    d6d6:	8d 4c 05 fc          	lea    ecx,[rbp+rax*1-0x4]
    d6da:	41 b9 00 00 00 00    	mov    r9d,0x0
    d6e0:	41 b8 00 00 00 00    	mov    r8d,0x0
    d6e6:	8b 54 24 1c          	mov    edx,DWORD PTR [rsp+0x1c]
    d6ea:	44 89 e6             	mov    esi,r12d
    d6ed:	48 89 df             	mov    rdi,rbx
    d6f0:	e8 8d fb ff ff       	call   d282 <__sprintf_chk@plt+0xbf32>
    d6f5:	f7 d8                	neg    eax
    d6f7:	41 89 c7             	mov    r15d,eax
    d6fa:	e9 7a 05 00 00       	jmp    dc79 <__sprintf_chk@plt+0xc929>
    d6ff:	48 8d 8c 24 c0 07 00 	lea    rcx,[rsp+0x7c0]
    d706:	00 
    d707:	8b 54 94 40          	mov    edx,DWORD PTR [rsp+rdx*4+0x40]
    d70b:	44 8b 44 24 0c       	mov    r8d,DWORD PTR [rsp+0xc]
    d710:	44 89 fe             	mov    esi,r15d
    d713:	48 89 df             	mov    rdi,rbx
    d716:	e8 b1 36 00 00       	call   10dcc <__sprintf_chk@plt+0xfa7c>
    d71b:	83 3d c2 08 b3 00 01 	cmp    DWORD PTR [rip+0xb308c2],0x1        # b3dfe4 <stdin@@GLIBC_2.2.5+0xb26fb4>
    d722:	0f 8f c1 00 00 00    	jg     d7e9 <__sprintf_chk@plt+0xc499>
    d728:	44 39 3d 11 0d b7 00 	cmp    DWORD PTR [rip+0xb70d11],r15d        # b7e440 <stdin@@GLIBC_2.2.5+0xb67410>
    d72f:	0f 8d 2b 01 00 00    	jge    d860 <__sprintf_chk@plt+0xc510>
    d735:	8b 05 05 9a b7 00    	mov    eax,DWORD PTR [rip+0xb79a05]        # b87140 <stdin@@GLIBC_2.2.5+0xb70110>
    d73b:	85 c0                	test   eax,eax
    d73d:	0f 85 2b 01 00 00    	jne    d86e <__sprintf_chk@plt+0xc51e>
    d743:	44 89 3d f6 0c b7 00 	mov    DWORD PTR [rip+0xb70cf6],r15d        # b7e440 <stdin@@GLIBC_2.2.5+0xb67410>
    d74a:	89 44 24 18          	mov    DWORD PTR [rsp+0x18],eax
    d74e:	bd 01 00 00 00       	mov    ebp,0x1
    d753:	e9 1c fd ff ff       	jmp    d474 <__sprintf_chk@plt+0xc124>
    d758:	c7 05 d2 99 b7 00 01 	mov    DWORD PTR [rip+0xb799d2],0x1        # b87134 <stdin@@GLIBC_2.2.5+0xb70104>
    d75f:	00 00 00 
    d762:	48 8d 8c 24 c0 07 00 	lea    rcx,[rsp+0x7c0]
    d769:	00 
    d76a:	48 98                	cdqe   
    d76c:	8b 54 84 40          	mov    edx,DWORD PTR [rsp+rax*4+0x40]
    d770:	44 8b 44 24 0c       	mov    r8d,DWORD PTR [rsp+0xc]
    d775:	44 89 fe             	mov    esi,r15d
    d778:	48 89 df             	mov    rdi,rbx
    d77b:	e8 4e 38 00 00       	call   10fce <__sprintf_chk@plt+0xfc7e>
    d780:	8b 44 24 14          	mov    eax,DWORD PTR [rsp+0x14]
    d784:	8d 4c 05 fc          	lea    ecx,[rbp+rax*1-0x4]
    d788:	41 b9 00 00 00 00    	mov    r9d,0x0
    d78e:	41 b8 00 00 00 00    	mov    r8d,0x0
    d794:	ba 40 42 0f 00       	mov    edx,0xf4240
    d799:	44 89 e6             	mov    esi,r12d
    d79c:	48 89 df             	mov    rdi,rbx
    d79f:	e8 de fa ff ff       	call   d282 <__sprintf_chk@plt+0xbf32>
    d7a4:	f7 d8                	neg    eax
    d7a6:	41 89 c7             	mov    r15d,eax
    d7a9:	83 3d 90 99 b7 00 00 	cmp    DWORD PTR [rip+0xb79990],0x0        # b87140 <stdin@@GLIBC_2.2.5+0xb70110>
    d7b0:	0f 85 65 ff ff ff    	jne    d71b <__sprintf_chk@plt+0xc3cb>
    d7b6:	83 3d 27 08 b3 00 01 	cmp    DWORD PTR [rip+0xb30827],0x1        # b3dfe4 <stdin@@GLIBC_2.2.5+0xb26fb4>
    d7bd:	0f 85 58 ff ff ff    	jne    d71b <__sprintf_chk@plt+0xc3cb>
    d7c3:	48 8d 8c 24 c0 07 00 	lea    rcx,[rsp+0x7c0]
    d7ca:	00 
    d7cb:	48 63 44 24 34       	movsxd rax,DWORD PTR [rsp+0x34]
    d7d0:	8b 54 84 40          	mov    edx,DWORD PTR [rsp+rax*4+0x40]
    d7d4:	44 8b 44 24 0c       	mov    r8d,DWORD PTR [rsp+0xc]
    d7d9:	44 89 fe             	mov    esi,r15d
    d7dc:	48 89 df             	mov    rdi,rbx
    d7df:	e8 62 33 00 00       	call   10b46 <__sprintf_chk@plt+0xf7f6>
    d7e4:	e9 32 ff ff ff       	jmp    d71b <__sprintf_chk@plt+0xc3cb>
    d7e9:	48 63 44 24 34       	movsxd rax,DWORD PTR [rsp+0x34]
    d7ee:	8b 4c 84 40          	mov    ecx,DWORD PTR [rsp+rax*4+0x40]
    d7f2:	8b 54 24 0c          	mov    edx,DWORD PTR [rsp+0xc]
    d7f6:	44 89 fe             	mov    esi,r15d
    d7f9:	48 89 df             	mov    rdi,rbx
    d7fc:	e8 c1 39 00 00       	call   111c2 <__sprintf_chk@plt+0xfe72>
    d801:	e9 22 ff ff ff       	jmp    d728 <__sprintf_chk@plt+0xc3d8>
    d806:	8b 44 24 14          	mov    eax,DWORD PTR [rsp+0x14]
    d80a:	8d 6c 05 fc          	lea    ebp,[rbp+rax*1-0x4]
    d80e:	89 e9                	mov    ecx,ebp
    d810:	2b 4c 24 20          	sub    ecx,DWORD PTR [rsp+0x20]
    d814:	41 b9 01 00 00 00    	mov    r9d,0x1
    d81a:	41 b8 00 00 00 00    	mov    r8d,0x0
    d820:	8b 54 24 1c          	mov    edx,DWORD PTR [rsp+0x1c]
    d824:	8b 74 24 04          	mov    esi,DWORD PTR [rsp+0x4]
    d828:	f7 d6                	not    esi
    d82a:	48 89 df             	mov    rdi,rbx
    d82d:	e8 50 fa ff ff       	call   d282 <__sprintf_chk@plt+0xbf32>
    d832:	f7 d8                	neg    eax
    d834:	41 89 c7             	mov    r15d,eax
    d837:	39 44 24 04          	cmp    DWORD PTR [rsp+0x4],eax
    d83b:	7d 63                	jge    d8a0 <__sprintf_chk@plt+0xc550>
    d83d:	39 44 24 10          	cmp    DWORD PTR [rsp+0x10],eax
    d841:	7f 54                	jg     d897 <__sprintf_chk@plt+0xc547>
    d843:	83 7c 24 20 00       	cmp    DWORD PTR [rsp+0x20],0x0
    d848:	75 4d                	jne    d897 <__sprintf_chk@plt+0xc547>
    d84a:	83 3d ef 98 b7 00 00 	cmp    DWORD PTR [rip+0xb798ef],0x0        # b87140 <stdin@@GLIBC_2.2.5+0xb70110>
    d851:	0f 84 11 01 00 00    	je     d968 <__sprintf_chk@plt+0xc618>
    d857:	44 3b 3d e2 0b b7 00 	cmp    r15d,DWORD PTR [rip+0xb70be2]        # b7e440 <stdin@@GLIBC_2.2.5+0xb67410>
    d85e:	7f 0e                	jg     d86e <__sprintf_chk@plt+0xc51e>
    d860:	8b 05 da 98 b7 00    	mov    eax,DWORD PTR [rip+0xb798da]        # b87140 <stdin@@GLIBC_2.2.5+0xb70110>
    d866:	85 c0                	test   eax,eax
    d868:	0f 84 3c 01 00 00    	je     d9aa <__sprintf_chk@plt+0xc65a>
    d86e:	81 3d c8 0b b7 00 00 	cmp    DWORD PTR [rip+0xb70bc8],0xffff8300        # b7e440 <stdin@@GLIBC_2.2.5+0xb67410>
    d875:	83 ff ff 
    d878:	75 0b                	jne    d885 <__sprintf_chk@plt+0xc535>
    d87a:	83 7c 24 18 00       	cmp    DWORD PTR [rsp+0x18],0x0
    d87f:	0f 85 09 01 00 00    	jne    d98e <__sprintf_chk@plt+0xc63e>
    d885:	bd 01 00 00 00       	mov    ebp,0x1
    d88a:	c7 44 24 18 00 00 00 	mov    DWORD PTR [rsp+0x18],0x0
    d891:	00 
    d892:	e9 dd fb ff ff       	jmp    d474 <__sprintf_chk@plt+0xc124>
    d897:	83 3d a2 98 b7 00 00 	cmp    DWORD PTR [rip+0xb798a2],0x0        # b87140 <stdin@@GLIBC_2.2.5+0xb70110>
    d89e:	74 2f                	je     d8cf <__sprintf_chk@plt+0xc57f>
    d8a0:	44 3b 7c 24 10       	cmp    r15d,DWORD PTR [rsp+0x10]
    d8a5:	7d a3                	jge    d84a <__sprintf_chk@plt+0xc4fa>
    d8a7:	44 39 3d 92 0b b7 00 	cmp    DWORD PTR [rip+0xb70b92],r15d        # b7e440 <stdin@@GLIBC_2.2.5+0xb67410>
    d8ae:	7d b0                	jge    d860 <__sprintf_chk@plt+0xc510>
    d8b0:	8b 05 8a 98 b7 00    	mov    eax,DWORD PTR [rip+0xb7988a]        # b87140 <stdin@@GLIBC_2.2.5+0xb70110>
    d8b6:	85 c0                	test   eax,eax
    d8b8:	75 b4                	jne    d86e <__sprintf_chk@plt+0xc51e>
    d8ba:	44 89 3d 7f 0b b7 00 	mov    DWORD PTR [rip+0xb70b7f],r15d        # b7e440 <stdin@@GLIBC_2.2.5+0xb67410>
    d8c1:	89 44 24 18          	mov    DWORD PTR [rsp+0x18],eax
    d8c5:	bd 01 00 00 00       	mov    ebp,0x1
    d8ca:	e9 a5 fb ff ff       	jmp    d474 <__sprintf_chk@plt+0xc124>
    d8cf:	c7 05 5f 98 b7 00 01 	mov    DWORD PTR [rip+0xb7985f],0x1        # b87138 <stdin@@GLIBC_2.2.5+0xb70108>
    d8d6:	00 00 00 
    d8d9:	41 b9 00 00 00 00    	mov    r9d,0x0
    d8df:	41 b8 00 00 00 00    	mov    r8d,0x0
    d8e5:	89 e9                	mov    ecx,ebp
    d8e7:	8b 54 24 1c          	mov    edx,DWORD PTR [rsp+0x1c]
    d8eb:	44 89 e6             	mov    esi,r12d
    d8ee:	48 89 df             	mov    rdi,rbx
    d8f1:	e8 8c f9 ff ff       	call   d282 <__sprintf_chk@plt+0xbf32>
    d8f6:	f7 d8                	neg    eax
    d8f8:	41 89 c7             	mov    r15d,eax
    d8fb:	c7 05 33 98 b7 00 00 	mov    DWORD PTR [rip+0xb79833],0x0        # b87138 <stdin@@GLIBC_2.2.5+0xb70108>
    d902:	00 00 00 
    d905:	39 44 24 04          	cmp    DWORD PTR [rsp+0x4],eax
    d909:	7d 95                	jge    d8a0 <__sprintf_chk@plt+0xc550>
    d90b:	83 3d 2e 98 b7 00 00 	cmp    DWORD PTR [rip+0xb7982e],0x0        # b87140 <stdin@@GLIBC_2.2.5+0xb70110>
    d912:	75 8c                	jne    d8a0 <__sprintf_chk@plt+0xc550>
    d914:	89 05 26 0b b7 00    	mov    DWORD PTR [rip+0xb70b26],eax        # b7e440 <stdin@@GLIBC_2.2.5+0xb67410>
    d91a:	48 63 44 24 34       	movsxd rax,DWORD PTR [rsp+0x34]
    d91f:	8b 44 84 40          	mov    eax,DWORD PTR [rsp+rax*4+0x40]
    d923:	89 44 24 24          	mov    DWORD PTR [rsp+0x24],eax
    d927:	89 c7                	mov    edi,eax
    d929:	e8 cb 1b 00 00       	call   f4f9 <__sprintf_chk@plt+0xe1a9>
    d92e:	0f b7 c0             	movzx  eax,ax
    d931:	89 05 f5 97 b7 00    	mov    DWORD PTR [rip+0xb797f5],eax        # b8712c <stdin@@GLIBC_2.2.5+0xb700fc>
    d937:	44 39 7c 24 10       	cmp    DWORD PTR [rsp+0x10],r15d
    d93c:	0f 8e 08 ff ff ff    	jle    d84a <__sprintf_chk@plt+0xc4fa>
    d942:	48 8d 8c 24 c0 07 00 	lea    rcx,[rsp+0x7c0]
    d949:	00 
    d94a:	48 63 44 24 34       	movsxd rax,DWORD PTR [rsp+0x34]
    d94f:	8b 54 84 40          	mov    edx,DWORD PTR [rsp+rax*4+0x40]
    d953:	44 8b 44 24 0c       	mov    r8d,DWORD PTR [rsp+0xc]
    d958:	44 89 fe             	mov    esi,r15d
    d95b:	48 89 df             	mov    rdi,rbx
    d95e:	e8 e3 31 00 00       	call   10b46 <__sprintf_chk@plt+0xf7f6>
    d963:	e9 3f ff ff ff       	jmp    d8a7 <__sprintf_chk@plt+0xc557>
    d968:	48 8d 8c 24 c0 07 00 	lea    rcx,[rsp+0x7c0]
    d96f:	00 
    d970:	48 63 44 24 34       	movsxd rax,DWORD PTR [rsp+0x34]
    d975:	8b 54 84 40          	mov    edx,DWORD PTR [rsp+rax*4+0x40]
    d979:	44 8b 44 24 0c       	mov    r8d,DWORD PTR [rsp+0xc]
    d97e:	44 89 fe             	mov    esi,r15d
    d981:	48 89 df             	mov    rdi,rbx
    d984:	e8 43 34 00 00       	call   10dcc <__sprintf_chk@plt+0xfa7c>
    d989:	e9 19 ff ff ff       	jmp    d8a7 <__sprintf_chk@plt+0xc557>
    d98e:	c7 05 ac 97 b7 00 01 	mov    DWORD PTR [rip+0xb797ac],0x1        # b87144 <stdin@@GLIBC_2.2.5+0xb70114>
    d995:	00 00 00 
    d998:	bd 01 00 00 00       	mov    ebp,0x1
    d99d:	c7 44 24 18 00 00 00 	mov    DWORD PTR [rsp+0x18],0x0
    d9a4:	00 
    d9a5:	e9 ca fa ff ff       	jmp    d474 <__sprintf_chk@plt+0xc124>
    d9aa:	89 44 24 18          	mov    DWORD PTR [rsp+0x18],eax
    d9ae:	bd 01 00 00 00       	mov    ebp,0x1
    d9b3:	e9 bc fa ff ff       	jmp    d474 <__sprintf_chk@plt+0xc124>
    d9b8:	44 8b 25 69 97 b7 00 	mov    r12d,DWORD PTR [rip+0xb79769]        # b87128 <stdin@@GLIBC_2.2.5+0xb700f8>
    d9bf:	e8 d1 3c 00 00       	call   11695 <__sprintf_chk@plt+0x10345>
    d9c4:	89 c7                	mov    edi,eax
    d9c6:	44 89 e6             	mov    esi,r12d
    d9c9:	e8 6b 29 00 00       	call   10339 <__sprintf_chk@plt+0xefe9>
    d9ce:	3d 95 00 00 00       	cmp    eax,0x95
    d9d3:	0f 8e b1 fa ff ff    	jle    d48a <__sprintf_chk@plt+0xc13a>
    d9d9:	83 3d 10 06 b3 00 00 	cmp    DWORD PTR [rip+0xb30610],0x0        # b3dff0 <stdin@@GLIBC_2.2.5+0xb26fc0>
    d9e0:	0f 84 a4 fa ff ff    	je     d48a <__sprintf_chk@plt+0xc13a>
    d9e6:	48 8d b4 24 c0 07 00 	lea    rsi,[rsp+0x7c0]
    d9ed:	00 
    d9ee:	48 8d 3d 23 57 00 00 	lea    rdi,[rip+0x5723]        # 13118 <__sprintf_chk@plt+0x11dc8>
    d9f5:	b8 00 00 00 00       	mov    eax,0x0
    d9fa:	e8 a1 2c 00 00       	call   106a0 <__sprintf_chk@plt+0xf350>
    d9ff:	48 89 df             	mov    rdi,rbx
    da02:	e8 cb 30 00 00       	call   10ad2 <__sprintf_chk@plt+0xf782>
    da07:	e9 7e fa ff ff       	jmp    d48a <__sprintf_chk@plt+0xc13a>
    da0c:	48 63 44 24 34       	movsxd rax,DWORD PTR [rsp+0x34]
    da11:	8b 74 84 40          	mov    esi,DWORD PTR [rsp+rax*4+0x40]
    da15:	8b 54 24 14          	mov    edx,DWORD PTR [rsp+0x14]
    da19:	48 89 df             	mov    rdi,rbx
    da1c:	e8 96 ca ff ff       	call   a4b7 <__sprintf_chk@plt+0x9167>
    da21:	48 63 44 24 34       	movsxd rax,DWORD PTR [rsp+0x34]
    da26:	8b 44 84 40          	mov    eax,DWORD PTR [rsp+rax*4+0x40]
    da2a:	89 44 24 24          	mov    DWORD PTR [rsp+0x24],eax
    da2e:	44 89 3d 0b 0a b7 00 	mov    DWORD PTR [rip+0xb70a0b],r15d        # b7e440 <stdin@@GLIBC_2.2.5+0xb67410>
    da35:	89 c7                	mov    edi,eax
    da37:	e8 bd 1a 00 00       	call   f4f9 <__sprintf_chk@plt+0xe1a9>
    da3c:	0f b7 c0             	movzx  eax,ax
    da3f:	89 05 e7 96 b7 00    	mov    DWORD PTR [rip+0xb796e7],eax        # b8712c <stdin@@GLIBC_2.2.5+0xb700fc>
    da45:	8b 35 f5 09 b7 00    	mov    esi,DWORD PTR [rip+0xb709f5]        # b7e440 <stdin@@GLIBC_2.2.5+0xb67410>
    da4b:	3b 74 24 10          	cmp    esi,DWORD PTR [rsp+0x10]
    da4f:	7d 0a                	jge    da5b <__sprintf_chk@plt+0xc70b>
    da51:	44 89 7c 24 04       	mov    DWORD PTR [rsp+0x4],r15d
    da56:	e9 63 fa ff ff       	jmp    d4be <__sprintf_chk@plt+0xc16e>
    da5b:	48 83 ec 08          	sub    rsp,0x8
    da5f:	8b 4c 24 1c          	mov    ecx,DWORD PTR [rsp+0x1c]
    da63:	51                   	push   rcx
    da64:	6a 00                	push   0x0
    da66:	6a 00                	push   0x0
    da68:	41 b9 00 00 00 00    	mov    r9d,0x0
    da6e:	41 89 c0             	mov    r8d,eax
    da71:	8b 4c 24 30          	mov    ecx,DWORD PTR [rsp+0x30]
    da75:	8b 54 24 48          	mov    edx,DWORD PTR [rsp+0x48]
    da79:	48 89 df             	mov    rdi,rbx
    da7c:	e8 8a 14 00 00       	call   ef0b <__sprintf_chk@plt+0xdbbb>
    da81:	48 83 c4 20          	add    rsp,0x20
    da85:	e9 68 01 00 00       	jmp    dbf2 <__sprintf_chk@plt+0xc8a2>
    da8a:	8b 0d c4 09 b7 00    	mov    ecx,DWORD PTR [rip+0xb709c4]        # b7e454 <stdin@@GLIBC_2.2.5+0xb67424>
    da90:	83 f9 04             	cmp    ecx,0x4
    da93:	0f 84 a7 00 00 00    	je     db40 <__sprintf_chk@plt+0xc7f0>
    da99:	7e 12                	jle    daad <__sprintf_chk@plt+0xc75d>
    da9b:	8b 44 24 24          	mov    eax,DWORD PTR [rsp+0x24]
    da9f:	39 05 ff 02 b3 00    	cmp    DWORD PTR [rip+0xb302ff],eax        # b3dda4 <stdin@@GLIBC_2.2.5+0xb26d74>
    daa5:	74 06                	je     daad <__sprintf_chk@plt+0xc75d>
    daa7:	ff 05 fb 02 b3 00    	inc    DWORD PTR [rip+0xb302fb]        # b3dda8 <stdin@@GLIBC_2.2.5+0xb26d78>
    daad:	48 6b 05 6b 96 b7 00 	imul   rax,QWORD PTR [rip+0xb7966b],0x64        # b87120 <stdin@@GLIBC_2.2.5+0xb700f0>
    dab4:	64 
    dab5:	ba 00 00 00 00       	mov    edx,0x0
    daba:	48 f7 b3 f0 0f 00 00 	div    QWORD PTR [rbx+0xff0]
    dac1:	48 83 f8 4a          	cmp    rax,0x4a
    dac5:	76 2a                	jbe    daf1 <__sprintf_chk@plt+0xc7a1>
    dac7:	83 f9 06             	cmp    ecx,0x6
    daca:	7e 25                	jle    daf1 <__sprintf_chk@plt+0xc7a1>
    dacc:	8b 05 9e 09 b7 00    	mov    eax,DWORD PTR [rip+0xb7099e]        # b7e470 <stdin@@GLIBC_2.2.5+0xb67440>
    dad2:	3d ff e0 f5 05       	cmp    eax,0x5f5e0ff
    dad7:	74 18                	je     daf1 <__sprintf_chk@plt+0xc7a1>
    dad9:	83 3d 54 96 b7 00 00 	cmp    DWORD PTR [rip+0xb79654],0x0        # b87134 <stdin@@GLIBC_2.2.5+0xb70104>
    dae0:	75 0f                	jne    daf1 <__sprintf_chk@plt+0xc7a1>
    dae2:	89 c2                	mov    edx,eax
    dae4:	c1 ea 1f             	shr    edx,0x1f
    dae7:	01 d0                	add    eax,edx
    dae9:	d1 f8                	sar    eax,1
    daeb:	89 05 7f 09 b7 00    	mov    DWORD PTR [rip+0xb7097f],eax        # b7e470 <stdin@@GLIBC_2.2.5+0xb67440>
    daf1:	8b 05 b1 02 b3 00    	mov    eax,DWORD PTR [rip+0xb302b1]        # b3dda8 <stdin@@GLIBC_2.2.5+0xb26d78>
    daf7:	83 f8 03             	cmp    eax,0x3
    dafa:	7e 4e                	jle    db4a <__sprintf_chk@plt+0xc7fa>
    dafc:	c7 05 32 96 b7 00 01 	mov    DWORD PTR [rip+0xb79632],0x1        # b87138 <stdin@@GLIBC_2.2.5+0xb70108>
    db03:	00 00 00 
    db06:	ff c8                	dec    eax
    db08:	89 05 9a 02 b3 00    	mov    DWORD PTR [rip+0xb3029a],eax        # b3dda8 <stdin@@GLIBC_2.2.5+0xb26d78>
    db0e:	8b 44 24 24          	mov    eax,DWORD PTR [rsp+0x24]
    db12:	89 05 8c 02 b3 00    	mov    DWORD PTR [rip+0xb3028c],eax        # b3dda4 <stdin@@GLIBC_2.2.5+0xb26d74>
    db18:	83 7c 24 18 00       	cmp    DWORD PTR [rsp+0x18],0x0
    db1d:	74 70                	je     db8f <__sprintf_chk@plt+0xc83f>
    db1f:	83 3d e6 04 b3 00 00 	cmp    DWORD PTR [rip+0xb304e6],0x0        # b3e00c <stdin@@GLIBC_2.2.5+0xb26fdc>
    db26:	0f 85 92 00 00 00    	jne    dbbe <__sprintf_chk@plt+0xc86e>
    db2c:	83 3d 11 96 b7 00 00 	cmp    DWORD PTR [rip+0xb79611],0x0        # b87144 <stdin@@GLIBC_2.2.5+0xb70114>
    db33:	74 2a                	je     db5f <__sprintf_chk@plt+0xc80f>
    db35:	83 bb dc 01 00 00 62 	cmp    DWORD PTR [rbx+0x1dc],0x62
    db3c:	7f 63                	jg     dba1 <__sprintf_chk@plt+0xc851>
    db3e:	eb 7e                	jmp    dbbe <__sprintf_chk@plt+0xc86e>
    db40:	c7 05 5e 02 b3 00 00 	mov    DWORD PTR [rip+0xb3025e],0x0        # b3dda8 <stdin@@GLIBC_2.2.5+0xb26d78>
    db47:	00 00 00 
    db4a:	83 3d e7 95 b7 00 00 	cmp    DWORD PTR [rip+0xb795e7],0x0        # b87138 <stdin@@GLIBC_2.2.5+0xb70108>
    db51:	74 bb                	je     db0e <__sprintf_chk@plt+0xc7be>
    db53:	c7 05 db 95 b7 00 00 	mov    DWORD PTR [rip+0xb795db],0x0        # b87138 <stdin@@GLIBC_2.2.5+0xb70108>
    db5a:	00 00 00 
    db5d:	eb af                	jmp    db0e <__sprintf_chk@plt+0xc7be>
    db5f:	48 89 df             	mov    rdi,rbx
    db62:	e8 70 3b ff ff       	call   16d7 <__sprintf_chk@plt+0x387>
    db67:	85 c0                	test   eax,eax
    db69:	74 18                	je     db83 <__sprintf_chk@plt+0xc833>
    db6b:	83 bb cc 01 00 00 01 	cmp    DWORD PTR [rbx+0x1cc],0x1
    db72:	0f 95 c0             	setne  al
    db75:	0f b6 c0             	movzx  eax,al
    db78:	83 c0 02             	add    eax,0x2
    db7b:	89 05 cf 08 b7 00    	mov    DWORD PTR [rip+0xb708cf],eax        # b7e450 <stdin@@GLIBC_2.2.5+0xb67420>
    db81:	eb 3b                	jmp    dbbe <__sprintf_chk@plt+0xc86e>
    db83:	c7 05 c3 08 b7 00 01 	mov    DWORD PTR [rip+0xb708c3],0x1        # b7e450 <stdin@@GLIBC_2.2.5+0xb67420>
    db8a:	00 00 00 
    db8d:	eb 2f                	jmp    dbbe <__sprintf_chk@plt+0xc86e>
    db8f:	83 bb dc 01 00 00 62 	cmp    DWORD PTR [rbx+0x1dc],0x62
    db96:	7e 26                	jle    dbbe <__sprintf_chk@plt+0xc86e>
    db98:	83 3d 6d 04 b3 00 00 	cmp    DWORD PTR [rip+0xb3046d],0x0        # b3e00c <stdin@@GLIBC_2.2.5+0xb26fdc>
    db9f:	75 1d                	jne    dbbe <__sprintf_chk@plt+0xc86e>
    dba1:	83 3d 54 04 b3 00 00 	cmp    DWORD PTR [rip+0xb30454],0x0        # b3dffc <stdin@@GLIBC_2.2.5+0xb26fcc>
    dba8:	75 14                	jne    dbbe <__sprintf_chk@plt+0xc86e>
    dbaa:	c7 05 9c 08 b7 00 04 	mov    DWORD PTR [rip+0xb7089c],0x4        # b7e450 <stdin@@GLIBC_2.2.5+0xb67420>
    dbb1:	00 00 00 
    dbb4:	c7 05 82 08 b7 00 00 	mov    DWORD PTR [rip+0xb70882],0x0        # b7e440 <stdin@@GLIBC_2.2.5+0xb67410>
    dbbb:	00 00 00 
    dbbe:	48 83 ec 08          	sub    rsp,0x8
    dbc2:	8b 44 24 1c          	mov    eax,DWORD PTR [rsp+0x1c]
    dbc6:	50                   	push   rax
    dbc7:	6a 00                	push   0x0
    dbc9:	6a 00                	push   0x0
    dbcb:	41 b9 00 00 00 00    	mov    r9d,0x0
    dbd1:	44 8b 05 54 95 b7 00 	mov    r8d,DWORD PTR [rip+0xb79554]        # b8712c <stdin@@GLIBC_2.2.5+0xb700fc>
    dbd8:	8b 4c 24 30          	mov    ecx,DWORD PTR [rsp+0x30]
    dbdc:	8b 54 24 48          	mov    edx,DWORD PTR [rsp+0x48]
    dbe0:	8b 35 5a 08 b7 00    	mov    esi,DWORD PTR [rip+0xb7085a]        # b7e440 <stdin@@GLIBC_2.2.5+0xb67410>
    dbe6:	48 89 df             	mov    rdi,rbx
    dbe9:	e8 1d 13 00 00       	call   ef0b <__sprintf_chk@plt+0xdbbb>
    dbee:	48 83 c4 20          	add    rsp,0x20
    dbf2:	48 8b 84 24 c8 09 00 	mov    rax,QWORD PTR [rsp+0x9c8]
    dbf9:	00 
    dbfa:	64 48 33 04 25 28 00 	xor    rax,QWORD PTR fs:0x28
    dc01:	00 00 
    dc03:	0f 85 ff 00 00 00    	jne    dd08 <__sprintf_chk@plt+0xc9b8>
    dc09:	8b 44 24 24          	mov    eax,DWORD PTR [rsp+0x24]
    dc0d:	48 81 c4 d8 09 00 00 	add    rsp,0x9d8
    dc14:	5b                   	pop    rbx
    dc15:	5d                   	pop    rbp
    dc16:	41 5c                	pop    r12
    dc18:	41 5d                	pop    r13
    dc1a:	41 5e                	pop    r14
    dc1c:	41 5f                	pop    r15
    dc1e:	c3                   	ret    
    dc1f:	bd 04 00 00 00       	mov    ebp,0x4
    dc24:	c7 44 24 20 00 00 00 	mov    DWORD PTR [rsp+0x20],0x0
    dc2b:	00 
    dc2c:	41 83 fe 01          	cmp    r14d,0x1
    dc30:	0f 84 8f fa ff ff    	je     d6c5 <__sprintf_chk@plt+0xc375>
    dc36:	83 3d 17 08 b7 00 01 	cmp    DWORD PTR [rip+0xb70817],0x1        # b7e454 <stdin@@GLIBC_2.2.5+0xb67424>
    dc3d:	0f 8e 82 fa ff ff    	jle    d6c5 <__sprintf_chk@plt+0xc375>
    dc43:	83 3d 9a 03 b3 00 01 	cmp    DWORD PTR [rip+0xb3039a],0x1        # b3dfe4 <stdin@@GLIBC_2.2.5+0xb26fb4>
    dc4a:	0f 8e b6 fb ff ff    	jle    d806 <__sprintf_chk@plt+0xc4b6>
    dc50:	8b 44 24 14          	mov    eax,DWORD PTR [rsp+0x14]
    dc54:	8d 4c 05 fc          	lea    ecx,[rbp+rax*1-0x4]
    dc58:	41 b9 00 00 00 00    	mov    r9d,0x0
    dc5e:	41 b8 00 00 00 00    	mov    r8d,0x0
    dc64:	ba 40 42 0f 00       	mov    edx,0xf4240
    dc69:	44 89 e6             	mov    esi,r12d
    dc6c:	48 89 df             	mov    rdi,rbx
    dc6f:	e8 0e f6 ff ff       	call   d282 <__sprintf_chk@plt+0xbf32>
    dc74:	f7 d8                	neg    eax
    dc76:	41 89 c7             	mov    r15d,eax
    dc79:	48 63 44 24 0c       	movsxd rax,DWORD PTR [rsp+0xc]
    dc7e:	48 8d 0d 7b e1 b7 00 	lea    rcx,[rip+0xb7e17b]        # b8be00 <stdin@@GLIBC_2.2.5+0xb74dd0>
    dc85:	44 89 3c 81          	mov    DWORD PTR [rcx+rax*4],r15d
    dc89:	8b 44 24 34          	mov    eax,DWORD PTR [rsp+0x34]
    dc8d:	48 63 d0             	movsxd rdx,eax
    dc90:	48 8d 0d 29 c5 b9 00 	lea    rcx,[rip+0xb9c529]        # baa1c0 <stdin@@GLIBC_2.2.5+0xb93190>
    dc97:	44 89 3c 91          	mov    DWORD PTR [rcx+rdx*4],r15d
    dc9b:	83 3d 9e 94 b7 00 00 	cmp    DWORD PTR [rip+0xb7949e],0x0        # b87140 <stdin@@GLIBC_2.2.5+0xb70110>
    dca2:	0f 85 af fb ff ff    	jne    d857 <__sprintf_chk@plt+0xc507>
    dca8:	44 3b 7c 24 10       	cmp    r15d,DWORD PTR [rsp+0x10]
    dcad:	0f 8d 4c fa ff ff    	jge    d6ff <__sprintf_chk@plt+0xc3af>
    dcb3:	44 3b 7c 24 04       	cmp    r15d,DWORD PTR [rsp+0x4]
    dcb8:	7f 09                	jg     dcc3 <__sprintf_chk@plt+0xc973>
    dcba:	45 85 f6             	test   r14d,r14d
    dcbd:	0f 85 95 fa ff ff    	jne    d758 <__sprintf_chk@plt+0xc408>
    dcc3:	44 3b 7c 24 04       	cmp    r15d,DWORD PTR [rsp+0x4]
    dcc8:	0f 8e 4d fa ff ff    	jle    d71b <__sprintf_chk@plt+0xc3cb>
    dcce:	83 3d 0f 03 b3 00 01 	cmp    DWORD PTR [rip+0xb3030f],0x1        # b3dfe4 <stdin@@GLIBC_2.2.5+0xb26fb4>
    dcd5:	0f 85 40 fa ff ff    	jne    d71b <__sprintf_chk@plt+0xc3cb>
    dcdb:	48 8d 8c 24 c0 07 00 	lea    rcx,[rsp+0x7c0]
    dce2:	00 
    dce3:	48 98                	cdqe   
    dce5:	8b 54 84 40          	mov    edx,DWORD PTR [rsp+rax*4+0x40]
    dce9:	44 8b 44 24 0c       	mov    r8d,DWORD PTR [rsp+0xc]
    dcee:	44 89 fe             	mov    esi,r15d
    dcf1:	48 89 df             	mov    rdi,rbx
    dcf4:	e8 4d 2e 00 00       	call   10b46 <__sprintf_chk@plt+0xf7f6>
    dcf9:	e9 1d fa ff ff       	jmp    d71b <__sprintf_chk@plt+0xc3cb>
    dcfe:	bd 03 00 00 00       	mov    ebp,0x3
    dd03:	e9 1c ff ff ff       	jmp    dc24 <__sprintf_chk@plt+0xc8d4>
    dd08:	e8 33 35 ff ff       	call   1240 <__stack_chk_fail@plt>
    dd0d:	f3 0f 1e fa          	endbr64 
    dd11:	48 c7 87 f0 0f 00 00 	mov    QWORD PTR [rdi+0xff0],0x0
    dd18:	00 00 00 00 
    dd1c:	48 c7 87 f8 0f 00 00 	mov    QWORD PTR [rdi+0xff8],0x0
    dd23:	00 00 00 00 
    dd27:	c7 87 d8 01 00 00 00 	mov    DWORD PTR [rdi+0x1d8],0x0
    dd2e:	00 00 00 
    dd31:	c7 87 00 10 00 00 00 	mov    DWORD PTR [rdi+0x1000],0x0
    dd38:	00 00 00 
    dd3b:	48 8d 05 56 93 b5 00 	lea    rax,[rip+0xb59356]        # b67098 <stdin@@GLIBC_2.2.5+0xb50068>
    dd42:	48 8d 90 80 83 01 00 	lea    rdx,[rax+0x18380]
    dd49:	48 c7 00 00 00 00 00 	mov    QWORD PTR [rax],0x0
    dd50:	48 c7 40 08 00 00 00 	mov    QWORD PTR [rax+0x8],0x0
    dd57:	00 
    dd58:	48 05 70 30 00 00    	add    rax,0x3070
    dd5e:	48 39 d0             	cmp    rax,rdx
    dd61:	75 e6                	jne    dd49 <__sprintf_chk@plt+0xc9f9>
    dd63:	c7 87 04 11 00 00 00 	mov    DWORD PTR [rdi+0x1104],0x0
    dd6a:	00 00 00 
    dd6d:	c7 87 08 11 00 00 00 	mov    DWORD PTR [rdi+0x1108],0x0
    dd74:	00 00 00 
    dd77:	c7 87 0c 11 00 00 00 	mov    DWORD PTR [rdi+0x110c],0x0
    dd7e:	00 00 00 
    dd81:	c7 87 10 11 00 00 00 	mov    DWORD PTR [rdi+0x1110],0x0
    dd88:	00 00 00 
    dd8b:	c7 05 a7 93 b7 00 00 	mov    DWORD PTR [rip+0xb793a7],0x0        # b8713c <stdin@@GLIBC_2.2.5+0xb7010c>
    dd92:	00 00 00 
    dd95:	c3                   	ret    
    dd96:	f3 0f 1e fa          	endbr64 
    dd9a:	53                   	push   rbx
    dd9b:	48 89 fb             	mov    rbx,rdi
    dd9e:	ba 00 60 00 00       	mov    edx,0x6000
    dda3:	be 00 00 00 00       	mov    esi,0x0
    dda8:	48 8d 3d f1 9f b2 00 	lea    rdi,[rip+0xb29ff1]        # b37da0 <stdin@@GLIBC_2.2.5+0xb20d70>
    ddaf:	e8 ac 34 ff ff       	call   1260 <memset@plt>
    ddb4:	ba 00 60 00 00       	mov    edx,0x6000
    ddb9:	be 00 00 00 00       	mov    esi,0x0
    ddbe:	48 8d 3d db 3f b2 00 	lea    rdi,[rip+0xb23fdb]        # b31da0 <stdin@@GLIBC_2.2.5+0xb1ad70>
    ddc5:	e8 96 34 ff ff       	call   1260 <memset@plt>
    ddca:	ba 00 60 00 00       	mov    edx,0x6000
    ddcf:	be 00 00 00 00       	mov    esi,0x0
    ddd4:	48 8d 3d c5 df b1 00 	lea    rdi,[rip+0xb1dfc5]        # b2bda0 <stdin@@GLIBC_2.2.5+0xb14d70>
    dddb:	e8 80 34 ff ff       	call   1260 <memset@plt>
    dde0:	48 8d 83 f0 0b 00 00 	lea    rax,[rbx+0xbf0]
    dde7:	48 8d 93 f0 0f 00 00 	lea    rdx,[rbx+0xff0]
    ddee:	c7 00 00 00 00 00    	mov    DWORD PTR [rax],0x0
    ddf4:	c7 40 04 00 00 00 00 	mov    DWORD PTR [rax+0x4],0x0
    ddfb:	c7 40 08 00 00 00 00 	mov    DWORD PTR [rax+0x8],0x0
    de02:	c7 40 0c 00 00 00 00 	mov    DWORD PTR [rax+0xc],0x0
    de09:	48 83 c0 10          	add    rax,0x10
    de0d:	48 39 d0             	cmp    rax,rdx
    de10:	75 dc                	jne    ddee <__sprintf_chk@plt+0xca9e>
    de12:	48 c7 05 03 93 b7 00 	mov    QWORD PTR [rip+0xb79303],0x0        # b87120 <stdin@@GLIBC_2.2.5+0xb700f0>
    de19:	00 00 00 00 
    de1d:	c7 05 05 93 b7 00 00 	mov    DWORD PTR [rip+0xb79305],0x0        # b8712c <stdin@@GLIBC_2.2.5+0xb700fc>
    de24:	00 00 00 
    de27:	83 3d be 01 b3 00 00 	cmp    DWORD PTR [rip+0xb301be],0x0        # b3dfec <stdin@@GLIBC_2.2.5+0xb26fbc>
    de2e:	75 02                	jne    de32 <__sprintf_chk@plt+0xcae2>
    de30:	5b                   	pop    rbx
    de31:	c3                   	ret    
    de32:	8b 3d b0 01 b3 00    	mov    edi,DWORD PTR [rip+0xb301b0]        # b3dfe8 <stdin@@GLIBC_2.2.5+0xb26fb8>
    de38:	e8 da 15 00 00       	call   f417 <__sprintf_chk@plt+0xe0c7>
    de3d:	39 05 35 06 b7 00    	cmp    DWORD PTR [rip+0xb70635],eax        # b7e478 <stdin@@GLIBC_2.2.5+0xb67448>
    de43:	0f 4e 05 2e 06 b7 00 	cmovle eax,DWORD PTR [rip+0xb7062e]        # b7e478 <stdin@@GLIBC_2.2.5+0xb67448>
    de4a:	89 05 28 06 b7 00    	mov    DWORD PTR [rip+0xb70628],eax        # b7e478 <stdin@@GLIBC_2.2.5+0xb67448>
    de50:	eb de                	jmp    de30 <__sprintf_chk@plt+0xcae0>
    de52:	f3 0f 1e fa          	endbr64 
    de56:	41 57                	push   r15
    de58:	41 56                	push   r14
    de5a:	41 55                	push   r13
    de5c:	41 54                	push   r12
    de5e:	55                   	push   rbp
    de5f:	53                   	push   rbx
    de60:	48 81 ec e8 07 00 00 	sub    rsp,0x7e8
    de67:	48 89 f3             	mov    rbx,rsi
    de6a:	64 48 8b 04 25 28 00 	mov    rax,QWORD PTR fs:0x28
    de71:	00 00 
    de73:	48 89 84 24 d8 07 00 	mov    QWORD PTR [rsp+0x7d8],rax
    de7a:	00 
    de7b:	31 c0                	xor    eax,eax
    de7d:	e8 5b 0f 00 00       	call   eddd <__sprintf_chk@plt+0xda8d>
    de82:	48 89 df             	mov    rdi,rbx
    de85:	e8 0c ff ff ff       	call   dd96 <__sprintf_chk@plt+0xca46>
    de8a:	48 89 df             	mov    rdi,rbx
    de8d:	e8 7b fe ff ff       	call   dd0d <__sprintf_chk@plt+0xc9bd>
    de92:	e8 fe 37 00 00       	call   11695 <__sprintf_chk@plt+0x10345>
    de97:	89 05 8b 92 b7 00    	mov    DWORD PTR [rip+0xb7928b],eax        # b87128 <stdin@@GLIBC_2.2.5+0xb700f8>
    de9d:	c7 83 d8 01 00 00 01 	mov    DWORD PTR [rbx+0x1d8],0x1
    dea4:	00 00 00 
    dea7:	48 63 05 ce 05 b7 00 	movsxd rax,DWORD PTR [rip+0xb705ce]        # b7e47c <stdin@@GLIBC_2.2.5+0xb6744c>
    deae:	48 8b 93 e0 01 00 00 	mov    rdx,QWORD PTR [rbx+0x1e0]
    deb5:	48 89 94 c3 30 11 00 	mov    QWORD PTR [rbx+rax*8+0x1130],rdx
    debc:	00 
    debd:	48 89 df             	mov    rdi,rbx
    dec0:	e8 12 38 ff ff       	call   16d7 <__sprintf_chk@plt+0x387>
    dec5:	89 c2                	mov    edx,eax
    dec7:	48 63 83 d8 01 00 00 	movsxd rax,DWORD PTR [rbx+0x1d8]
    dece:	89 94 83 04 10 00 00 	mov    DWORD PTR [rbx+rax*4+0x1004],edx
    ded5:	85 d2                	test   edx,edx
    ded7:	74 30                	je     df09 <__sprintf_chk@plt+0xcbb9>
    ded9:	48 8d 74 24 10       	lea    rsi,[rsp+0x10]
    dede:	48 89 df             	mov    rdi,rbx
    dee1:	e8 a4 86 ff ff       	call   658a <__sprintf_chk@plt+0x523a>
    dee6:	41 89 c6             	mov    r14d,eax
    dee9:	45 85 f6             	test   r14d,r14d
    deec:	7e 7f                	jle    df6d <__sprintf_chk@plt+0xcc1d>
    deee:	48 8d 6c 24 10       	lea    rbp,[rsp+0x10]
    def3:	41 bf 00 00 00 00    	mov    r15d,0x0
    def9:	c7 44 24 04 00 00 00 	mov    DWORD PTR [rsp+0x4],0x0
    df00:	00 
    df01:	41 bc 00 00 00 00    	mov    r12d,0x0
    df07:	eb 2a                	jmp    df33 <__sprintf_chk@plt+0xcbe3>
    df09:	48 8d 74 24 10       	lea    rsi,[rsp+0x10]
    df0e:	48 89 df             	mov    rdi,rbx
    df11:	e8 7c 6e ff ff       	call   4d92 <__sprintf_chk@plt+0x3a42>
    df16:	41 89 c6             	mov    r14d,eax
    df19:	eb ce                	jmp    dee9 <__sprintf_chk@plt+0xcb99>
    df1b:	41 8b 75 00          	mov    esi,DWORD PTR [r13+0x0]
    df1f:	48 89 df             	mov    rdi,rbx
    df22:	e8 36 91 ff ff       	call   705d <__sprintf_chk@plt+0x5d0d>
    df27:	41 ff c4             	inc    r12d
    df2a:	48 83 c5 04          	add    rbp,0x4
    df2e:	45 39 e6             	cmp    r14d,r12d
    df31:	74 27                	je     df5a <__sprintf_chk@plt+0xcc0a>
    df33:	49 89 ed             	mov    r13,rbp
    df36:	8b 75 00             	mov    esi,DWORD PTR [rbp+0x0]
    df39:	48 89 df             	mov    rdi,rbx
    df3c:	e8 50 88 ff ff       	call   6791 <__sprintf_chk@plt+0x5441>
    df41:	8b 75 00             	mov    esi,DWORD PTR [rbp+0x0]
    df44:	48 89 df             	mov    rdi,rbx
    df47:	e8 87 95 ff ff       	call   74d3 <__sprintf_chk@plt+0x6183>
    df4c:	85 c0                	test   eax,eax
    df4e:	74 cb                	je     df1b <__sprintf_chk@plt+0xcbcb>
    df50:	41 ff c7             	inc    r15d
    df53:	44 89 64 24 04       	mov    DWORD PTR [rsp+0x4],r12d
    df58:	eb c1                	jmp    df1b <__sprintf_chk@plt+0xcbcb>
    df5a:	83 3d ab 00 b3 00 00 	cmp    DWORD PTR [rip+0xb300ab],0x0        # b3e00c <stdin@@GLIBC_2.2.5+0xb26fdc>
    df61:	75 0a                	jne    df6d <__sprintf_chk@plt+0xcc1d>
    df63:	41 83 ff 01          	cmp    r15d,0x1
    df67:	0f 84 c1 00 00 00    	je     e02e <__sprintf_chk@plt+0xccde>
    df6d:	48 89 de             	mov    rsi,rbx
    df70:	48 8d 3d c9 04 b7 00 	lea    rdi,[rip+0xb704c9]        # b7e440 <stdin@@GLIBC_2.2.5+0xb67410>
    df77:	e8 e4 4b ff ff       	call   2b60 <__sprintf_chk@plt+0x1810>
    df7c:	83 3d 79 00 b3 00 00 	cmp    DWORD PTR [rip+0xb30079],0x0        # b3dffc <stdin@@GLIBC_2.2.5+0xb26fcc>
    df83:	75 20                	jne    dfa5 <__sprintf_chk@plt+0xcc55>
    df85:	8b 05 b9 04 b7 00    	mov    eax,DWORD PTR [rip+0xb704b9]        # b7e444 <stdin@@GLIBC_2.2.5+0xb67414>
    df8b:	83 f8 01             	cmp    eax,0x1
    df8e:	0f 84 0c 01 00 00    	je     e0a0 <__sprintf_chk@plt+0xcd50>
    df94:	83 f8 02             	cmp    eax,0x2
    df97:	0f 84 19 01 00 00    	je     e0b6 <__sprintf_chk@plt+0xcd66>
    df9d:	85 c0                	test   eax,eax
    df9f:	0f 84 ea 00 00 00    	je     e08f <__sprintf_chk@plt+0xcd3f>
    dfa5:	8b 05 61 00 b3 00    	mov    eax,DWORD PTR [rip+0xb30061]        # b3e00c <stdin@@GLIBC_2.2.5+0xb26fdc>
    dfab:	0b 05 53 00 b3 00    	or     eax,DWORD PTR [rip+0xb30053]        # b3e004 <stdin@@GLIBC_2.2.5+0xb26fd4>
    dfb1:	0f 85 31 01 00 00    	jne    e0e8 <__sprintf_chk@plt+0xcd98>
    dfb7:	8b 05 b7 04 b7 00    	mov    eax,DWORD PTR [rip+0xb704b7]        # b7e474 <stdin@@GLIBC_2.2.5+0xb67444>
    dfbd:	85 c0                	test   eax,eax
    dfbf:	0f 84 07 01 00 00    	je     e0cc <__sprintf_chk@plt+0xcd7c>
    dfc5:	89 05 a5 04 b7 00    	mov    DWORD PTR [rip+0xb704a5],eax        # b7e470 <stdin@@GLIBC_2.2.5+0xb67440>
    dfcb:	83 3d 2a 00 b3 00 00 	cmp    DWORD PTR [rip+0xb3002a],0x0        # b3dffc <stdin@@GLIBC_2.2.5+0xb26fcc>
    dfd2:	0f 84 23 01 00 00    	je     e0fb <__sprintf_chk@plt+0xcdab>
    dfd8:	8b 05 92 04 b7 00    	mov    eax,DWORD PTR [rip+0xb70492]        # b7e470 <stdin@@GLIBC_2.2.5+0xb67440>
    dfde:	3d ff e0 f5 05       	cmp    eax,0x5f5e0ff
    dfe3:	0f 84 29 01 00 00    	je     e112 <__sprintf_chk@plt+0xcdc2>
    dfe9:	c5 e1 57 db          	vxorpd xmm3,xmm3,xmm3
    dfed:	c5 e3 2a c0          	vcvtsi2sd xmm0,xmm3,eax
    dff1:	c5 fb 5e 05 6f 52 00 	vdivsd xmm0,xmm0,QWORD PTR [rip+0x526f]        # 13268 <__sprintf_chk@plt+0x11f18>
    dff8:	00 
    dff9:	c5 fb 5e 05 6f 52 00 	vdivsd xmm0,xmm0,QWORD PTR [rip+0x526f]        # 13270 <__sprintf_chk@plt+0x11f20>
    e000:	00 
    e001:	c5 fb 2c d0          	vcvttsd2si edx,xmm0
    e005:	48 63 f0             	movsxd rsi,eax
    e008:	48 69 f6 1f 85 eb 51 	imul   rsi,rsi,0x51eb851f
    e00f:	48 c1 fe 25          	sar    rsi,0x25
    e013:	c1 f8 1f             	sar    eax,0x1f
    e016:	29 c6                	sub    esi,eax
    e018:	48 8d 3d b9 51 00 00 	lea    rdi,[rip+0x51b9]        # 131d8 <__sprintf_chk@plt+0x11e88>
    e01f:	b8 00 00 00 00       	mov    eax,0x0
    e024:	e8 77 26 00 00       	call   106a0 <__sprintf_chk@plt+0xf350>
    e029:	e9 e4 00 00 00       	jmp    e112 <__sprintf_chk@plt+0xcdc2>
    e02e:	83 3d c7 ff b2 00 00 	cmp    DWORD PTR [rip+0xb2ffc7],0x0        # b3dffc <stdin@@GLIBC_2.2.5+0xb26fcc>
    e035:	75 0f                	jne    e046 <__sprintf_chk@plt+0xccf6>
    e037:	48 63 44 24 04       	movsxd rax,DWORD PTR [rsp+0x4]
    e03c:	44 8b 7c 84 10       	mov    r15d,DWORD PTR [rsp+rax*4+0x10]
    e041:	e9 30 05 00 00       	jmp    e576 <__sprintf_chk@plt+0xd226>
    e046:	48 8d ac 24 d0 03 00 	lea    rbp,[rsp+0x3d0]
    e04d:	00 
    e04e:	48 63 44 24 04       	movsxd rax,DWORD PTR [rsp+0x4]
    e053:	8b 74 84 10          	mov    esi,DWORD PTR [rsp+rax*4+0x10]
    e057:	48 89 ea             	mov    rdx,rbp
    e05a:	48 89 df             	mov    rdi,rbx
    e05d:	e8 a7 1c 00 00       	call   fd09 <__sprintf_chk@plt+0xe9b9>
    e062:	8b 35 38 fd b2 00    	mov    esi,DWORD PTR [rip+0xb2fd38]        # b3dda0 <stdin@@GLIBC_2.2.5+0xb26d70>
    e068:	48 8d 3d 39 51 00 00 	lea    rdi,[rip+0x5139]        # 131a8 <__sprintf_chk@plt+0x11e58>
    e06f:	b8 00 00 00 00       	mov    eax,0x0
    e074:	e8 27 26 00 00       	call   106a0 <__sprintf_chk@plt+0xf350>
    e079:	48 89 ee             	mov    rsi,rbp
    e07c:	48 8d 3d a9 50 00 00 	lea    rdi,[rip+0x50a9]        # 1312c <__sprintf_chk@plt+0x11ddc>
    e083:	b8 00 00 00 00       	mov    eax,0x0
    e088:	e8 13 26 00 00       	call   106a0 <__sprintf_chk@plt+0xf350>
    e08d:	eb a8                	jmp    e037 <__sprintf_chk@plt+0xcce7>
    e08f:	48 8d 3d a3 50 00 00 	lea    rdi,[rip+0x50a3]        # 13139 <__sprintf_chk@plt+0x11de9>
    e096:	e8 05 26 00 00       	call   106a0 <__sprintf_chk@plt+0xf350>
    e09b:	e9 05 ff ff ff       	jmp    dfa5 <__sprintf_chk@plt+0xcc55>
    e0a0:	48 8d 3d a2 50 00 00 	lea    rdi,[rip+0x50a2]        # 13149 <__sprintf_chk@plt+0x11df9>
    e0a7:	b8 00 00 00 00       	mov    eax,0x0
    e0ac:	e8 ef 25 00 00       	call   106a0 <__sprintf_chk@plt+0xf350>
    e0b1:	e9 ef fe ff ff       	jmp    dfa5 <__sprintf_chk@plt+0xcc55>
    e0b6:	48 8d 3d 9f 50 00 00 	lea    rdi,[rip+0x509f]        # 1315c <__sprintf_chk@plt+0x11e0c>
    e0bd:	b8 00 00 00 00       	mov    eax,0x0
    e0c2:	e8 d9 25 00 00       	call   106a0 <__sprintf_chk@plt+0xf350>
    e0c7:	e9 d9 fe ff ff       	jmp    dfa5 <__sprintf_chk@plt+0xcc55>
    e0cc:	be 01 00 00 00       	mov    esi,0x1
    e0d1:	48 8d 3d 68 03 b7 00 	lea    rdi,[rip+0xb70368]        # b7e440 <stdin@@GLIBC_2.2.5+0xb67410>
    e0d8:	e8 69 14 00 00       	call   f546 <__sprintf_chk@plt+0xe1f6>
    e0dd:	89 05 8d 03 b7 00    	mov    DWORD PTR [rip+0xb7038d],eax        # b7e470 <stdin@@GLIBC_2.2.5+0xb67440>
    e0e3:	e9 e3 fe ff ff       	jmp    dfcb <__sprintf_chk@plt+0xcc7b>
    e0e8:	c7 05 7e 03 b7 00 ff 	mov    DWORD PTR [rip+0xb7037e],0x5f5e0ff        # b7e470 <stdin@@GLIBC_2.2.5+0xb67440>
    e0ef:	e0 f5 05 
    e0f2:	83 3d 03 ff b2 00 00 	cmp    DWORD PTR [rip+0xb2ff03],0x0        # b3dffc <stdin@@GLIBC_2.2.5+0xb26fcc>
    e0f9:	75 17                	jne    e112 <__sprintf_chk@plt+0xcdc2>
    e0fb:	8b 35 6f 03 b7 00    	mov    esi,DWORD PTR [rip+0xb7036f]        # b7e470 <stdin@@GLIBC_2.2.5+0xb67440>
    e101:	48 8d 3d 64 50 00 00 	lea    rdi,[rip+0x5064]        # 1316c <__sprintf_chk@plt+0x11e1c>
    e108:	b8 00 00 00 00       	mov    eax,0x0
    e10d:	e8 8e 25 00 00       	call   106a0 <__sprintf_chk@plt+0xf350>
    e112:	c7 05 24 90 b7 00 00 	mov    DWORD PTR [rip+0xb79024],0x0        # b87140 <stdin@@GLIBC_2.2.5+0xb70110>
    e119:	00 00 00 
    e11c:	c7 05 1e 90 b7 00 00 	mov    DWORD PTR [rip+0xb7901e],0x0        # b87144 <stdin@@GLIBC_2.2.5+0xb70114>
    e123:	00 00 00 
    e126:	c7 05 04 90 b7 00 00 	mov    DWORD PTR [rip+0xb79004],0x0        # b87134 <stdin@@GLIBC_2.2.5+0xb70104>
    e12d:	00 00 00 
    e130:	c7 05 fe 8f b7 00 00 	mov    DWORD PTR [rip+0xb78ffe],0x0        # b87138 <stdin@@GLIBC_2.2.5+0xb70108>
    e137:	00 00 00 
    e13a:	c7 05 fc 02 b7 00 00 	mov    DWORD PTR [rip+0xb702fc],0x0        # b7e440 <stdin@@GLIBC_2.2.5+0xb67410>
    e141:	00 00 00 
    e144:	c7 05 06 03 b7 00 01 	mov    DWORD PTR [rip+0xb70306],0x1        # b7e454 <stdin@@GLIBC_2.2.5+0xb67424>
    e14b:	00 00 00 
    e14e:	c7 44 24 0c 00 00 00 	mov    DWORD PTR [rsp+0xc],0x0
    e155:	00 
    e156:	41 bc 00 00 00 00    	mov    r12d,0x0
    e15c:	41 bf 00 00 00 00    	mov    r15d,0x0
    e162:	e9 3a 01 00 00       	jmp    e2a1 <__sprintf_chk@plt+0xcf51>
    e167:	83 3d e6 02 b7 00 02 	cmp    DWORD PTR [rip+0xb702e6],0x2        # b7e454 <stdin@@GLIBC_2.2.5+0xb67424>
    e16e:	0f 8f 41 03 00 00    	jg     e4b5 <__sprintf_chk@plt+0xd165>
    e174:	41 8d 6c 24 e2       	lea    ebp,[r12-0x1e]
    e179:	45 8d 6c 24 1e       	lea    r13d,[r12+0x1e]
    e17e:	8b 05 d0 02 b7 00    	mov    eax,DWORD PTR [rip+0xb702d0]        # b7e454 <stdin@@GLIBC_2.2.5+0xb67424>
    e184:	8d 0c 85 00 00 00 00 	lea    ecx,[rax*4+0x0]
    e18b:	44 89 ea             	mov    edx,r13d
    e18e:	89 ee                	mov    esi,ebp
    e190:	48 89 df             	mov    rdi,rbx
    e193:	e8 0b f1 ff ff       	call   d2a3 <__sprintf_chk@plt+0xbf53>
    e198:	89 44 24 04          	mov    DWORD PTR [rsp+0x4],eax
    e19c:	83 3d ad 02 b7 00 00 	cmp    DWORD PTR [rip+0xb702ad],0x0        # b7e450 <stdin@@GLIBC_2.2.5+0xb67420>
    e1a3:	0f 85 0c 03 00 00    	jne    e4b5 <__sprintf_chk@plt+0xd165>
    e1a9:	44 8b 35 90 02 b7 00 	mov    r14d,DWORD PTR [rip+0xb70290]        # b7e440 <stdin@@GLIBC_2.2.5+0xb67410>
    e1b0:	41 39 ee             	cmp    r14d,ebp
    e1b3:	0f 8f 03 06 00 00    	jg     e7bc <__sprintf_chk@plt+0xd46c>
    e1b9:	83 3d 80 8f b7 00 00 	cmp    DWORD PTR [rip+0xb78f80],0x0        # b87140 <stdin@@GLIBC_2.2.5+0xb70110>
    e1c0:	0f 84 18 05 00 00    	je     e6de <__sprintf_chk@plt+0xd38e>
    e1c6:	c7 05 64 8f b7 00 00 	mov    DWORD PTR [rip+0xb78f64],0x0        # b87134 <stdin@@GLIBC_2.2.5+0xb70104>
    e1cd:	00 00 00 
    e1d0:	83 3d 69 8f b7 00 00 	cmp    DWORD PTR [rip+0xb78f69],0x0        # b87140 <stdin@@GLIBC_2.2.5+0xb70110>
    e1d7:	0f 84 0b 05 00 00    	je     e6e8 <__sprintf_chk@plt+0xd398>
    e1dd:	83 3d 18 fe b2 00 00 	cmp    DWORD PTR [rip+0xb2fe18],0x0        # b3dffc <stdin@@GLIBC_2.2.5+0xb26fcc>
    e1e4:	0f 84 d5 01 00 00    	je     e3bf <__sprintf_chk@plt+0xd06f>
    e1ea:	83 3d 53 8f b7 00 00 	cmp    DWORD PTR [rip+0xb78f53],0x0        # b87144 <stdin@@GLIBC_2.2.5+0xb70114>
    e1f1:	0f 85 97 00 00 00    	jne    e28e <__sprintf_chk@plt+0xcf3e>
    e1f7:	44 8b 7c 24 04       	mov    r15d,DWORD PTR [rsp+0x4]
    e1fc:	44 0b 3d 31 8f b7 00 	or     r15d,DWORD PTR [rip+0xb78f31]        # b87134 <stdin@@GLIBC_2.2.5+0xb70104>
    e203:	0f 84 d5 01 00 00    	je     e3de <__sprintf_chk@plt+0xd08e>
    e209:	44 8b 3d ec fd b2 00 	mov    r15d,DWORD PTR [rip+0xb2fdec]        # b3dffc <stdin@@GLIBC_2.2.5+0xb26fcc>
    e210:	45 85 ff             	test   r15d,r15d
    e213:	0f 85 03 02 00 00    	jne    e41c <__sprintf_chk@plt+0xd0cc>
    e219:	81 3d 1d 02 b7 00 00 	cmp    DWORD PTR [rip+0xb7021d],0xffff8300        # b7e440 <stdin@@GLIBC_2.2.5+0xb67410>
    e220:	83 ff ff 
    e223:	0f 84 4d 03 00 00    	je     e576 <__sprintf_chk@plt+0xd226>
    e229:	44 8b 25 10 02 b7 00 	mov    r12d,DWORD PTR [rip+0xb70210]        # b7e440 <stdin@@GLIBC_2.2.5+0xb67410>
    e230:	83 3d 09 8f b7 00 00 	cmp    DWORD PTR [rip+0xb78f09],0x0        # b87140 <stdin@@GLIBC_2.2.5+0xb70110>
    e237:	0f 84 4e 05 00 00    	je     e78b <__sprintf_chk@plt+0xd43b>
    e23d:	8b 05 11 02 b7 00    	mov    eax,DWORD PTR [rip+0xb70211]        # b7e454 <stdin@@GLIBC_2.2.5+0xb67424>
    e243:	41 81 fc 0c 7b 00 00 	cmp    r12d,0x7b0c
    e24a:	0f 8e 60 02 00 00    	jle    e4b0 <__sprintf_chk@plt+0xd160>
    e250:	83 f8 02             	cmp    eax,0x2
    e253:	0f 8e 57 02 00 00    	jle    e4b0 <__sprintf_chk@plt+0xd160>
    e259:	ba 00 7d 00 00       	mov    edx,0x7d00
    e25e:	2b 15 dc 01 b7 00    	sub    edx,DWORD PTR [rip+0xb701dc]        # b7e440 <stdin@@GLIBC_2.2.5+0xb67410>
    e264:	39 c2                	cmp    edx,eax
    e266:	0f 8d 35 02 00 00    	jge    e4a1 <__sprintf_chk@plt+0xd151>
    e26c:	83 3d 99 fd b2 00 00 	cmp    DWORD PTR [rip+0xb2fd99],0x0        # b3e00c <stdin@@GLIBC_2.2.5+0xb26fdc>
    e273:	0f 84 d8 02 00 00    	je     e551 <__sprintf_chk@plt+0xd201>
    e279:	81 3d ed 01 b7 00 ff 	cmp    DWORD PTR [rip+0xb701ed],0x5f5e0ff        # b7e470 <stdin@@GLIBC_2.2.5+0xb67440>
    e280:	e0 f5 05 
    e283:	0f 85 d2 02 00 00    	jne    e55b <__sprintf_chk@plt+0xd20b>
    e289:	44 8b 7c 24 04       	mov    r15d,DWORD PTR [rsp+0x4]
    e28e:	83 3d ab 8e b7 00 00 	cmp    DWORD PTR [rip+0xb78eab],0x0        # b87140 <stdin@@GLIBC_2.2.5+0xb70110>
    e295:	0f 85 10 02 00 00    	jne    e4ab <__sprintf_chk@plt+0xd15b>
    e29b:	ff 05 b3 01 b7 00    	inc    DWORD PTR [rip+0xb701b3]        # b7e454 <stdin@@GLIBC_2.2.5+0xb67424>
    e2a1:	8b 15 ad 01 b7 00    	mov    edx,DWORD PTR [rip+0xb701ad]        # b7e454 <stdin@@GLIBC_2.2.5+0xb67424>
    e2a7:	8b 05 cb 01 b7 00    	mov    eax,DWORD PTR [rip+0xb701cb]        # b7e478 <stdin@@GLIBC_2.2.5+0xb67448>
    e2ad:	83 f8 28             	cmp    eax,0x28
    e2b0:	b9 28 00 00 00       	mov    ecx,0x28
    e2b5:	0f 4d c1             	cmovge eax,ecx
    e2b8:	39 c2                	cmp    edx,eax
    e2ba:	0f 8f f5 01 00 00    	jg     e4b5 <__sprintf_chk@plt+0xd165>
    e2c0:	83 3d 35 fd b2 00 00 	cmp    DWORD PTR [rip+0xb2fd35],0x0        # b3dffc <stdin@@GLIBC_2.2.5+0xb26fcc>
    e2c7:	74 0c                	je     e2d5 <__sprintf_chk@plt+0xcf85>
    e2c9:	d1 ab 0c 11 00 00    	shr    DWORD PTR [rbx+0x110c],1
    e2cf:	d1 ab 10 11 00 00    	shr    DWORD PTR [rbx+0x1110],1
    e2d5:	3b 93 00 10 00 00    	cmp    edx,DWORD PTR [rbx+0x1000]
    e2db:	7e 06                	jle    e2e3 <__sprintf_chk@plt+0xcf93>
    e2dd:	89 93 00 10 00 00    	mov    DWORD PTR [rbx+0x1000],edx
    e2e3:	8b 2d 3f 8e b7 00    	mov    ebp,DWORD PTR [rip+0xb78e3f]        # b87128 <stdin@@GLIBC_2.2.5+0xb700f8>
    e2e9:	e8 a7 33 00 00       	call   11695 <__sprintf_chk@plt+0x10345>
    e2ee:	89 c7                	mov    edi,eax
    e2f0:	89 ee                	mov    esi,ebp
    e2f2:	e8 42 20 00 00       	call   10339 <__sprintf_chk@plt+0xefe9>
    e2f7:	89 c6                	mov    esi,eax
    e2f9:	89 44 24 08          	mov    DWORD PTR [rsp+0x8],eax
    e2fd:	8b 05 31 8e b7 00    	mov    eax,DWORD PTR [rip+0xb78e31]        # b87134 <stdin@@GLIBC_2.2.5+0xb70104>
    e303:	0b 05 2f 8e b7 00    	or     eax,DWORD PTR [rip+0xb78e2f]        # b87138 <stdin@@GLIBC_2.2.5+0xb70108>
    e309:	0f 85 65 fe ff ff    	jne    e174 <__sprintf_chk@plt+0xce24>
    e30f:	83 3d 26 8e b7 00 00 	cmp    DWORD PTR [rip+0xb78e26],0x0        # b8713c <stdin@@GLIBC_2.2.5+0xb7010c>
    e316:	0f 85 4b fe ff ff    	jne    e167 <__sprintf_chk@plt+0xce17>
    e31c:	83 3d 51 01 b7 00 00 	cmp    DWORD PTR [rip+0xb70151],0x0        # b7e474 <stdin@@GLIBC_2.2.5+0xb67444>
    e323:	0f 85 4b fe ff ff    	jne    e174 <__sprintf_chk@plt+0xce24>
    e329:	c5 e9 57 d2          	vxorpd xmm2,xmm2,xmm2
    e32d:	c5 eb 2a ce          	vcvtsi2sd xmm1,xmm2,esi
    e331:	c5 eb 2a 05 37 01 b7 	vcvtsi2sd xmm0,xmm2,DWORD PTR [rip+0xb70137]        # b7e470 <stdin@@GLIBC_2.2.5+0xb67440>
    e338:	00 
    e339:	c5 fb 5e 05 27 4f 00 	vdivsd xmm0,xmm0,QWORD PTR [rip+0x4f27]        # 13268 <__sprintf_chk@plt+0x11f18>
    e340:	00 
    e341:	c5 f9 2f c8          	vcomisd xmm1,xmm0
    e345:	0f 86 29 fe ff ff    	jbe    e174 <__sprintf_chk@plt+0xce24>
    e34b:	e9 17 fe ff ff       	jmp    e167 <__sprintf_chk@plt+0xce17>
    e350:	c7 05 da 8d b7 00 01 	mov    DWORD PTR [rip+0xb78dda],0x1        # b87134 <stdin@@GLIBC_2.2.5+0xb70104>
    e357:	00 00 00 
    e35a:	8b 05 f4 00 b7 00    	mov    eax,DWORD PTR [rip+0xb700f4]        # b7e454 <stdin@@GLIBC_2.2.5+0xb67424>
    e360:	8d 0c 85 00 00 00 00 	lea    ecx,[rax*4+0x0]
    e367:	ba 40 42 0f 00       	mov    edx,0xf4240
    e36c:	be c0 bd f0 ff       	mov    esi,0xfff0bdc0
    e371:	48 89 df             	mov    rdi,rbx
    e374:	e8 2a ef ff ff       	call   d2a3 <__sprintf_chk@plt+0xbf53>
    e379:	83 3d c0 8d b7 00 00 	cmp    DWORD PTR [rip+0xb78dc0],0x0        # b87140 <stdin@@GLIBC_2.2.5+0xb70110>
    e380:	75 2c                	jne    e3ae <__sprintf_chk@plt+0xd05e>
    e382:	c7 05 a8 8d b7 00 00 	mov    DWORD PTR [rip+0xb78da8],0x0        # b87134 <stdin@@GLIBC_2.2.5+0xb70104>
    e389:	00 00 00 
    e38c:	45 89 f4             	mov    r12d,r14d
    e38f:	44 8b 7c 24 04       	mov    r15d,DWORD PTR [rsp+0x4]
    e394:	89 44 24 04          	mov    DWORD PTR [rsp+0x4],eax
    e398:	e9 40 fe ff ff       	jmp    e1dd <__sprintf_chk@plt+0xce8d>
    e39d:	45 89 f4             	mov    r12d,r14d
    e3a0:	44 8b 7c 24 04       	mov    r15d,DWORD PTR [rsp+0x4]
    e3a5:	89 44 24 04          	mov    DWORD PTR [rsp+0x4],eax
    e3a9:	e9 2f fe ff ff       	jmp    e1dd <__sprintf_chk@plt+0xce8d>
    e3ae:	45 89 f4             	mov    r12d,r14d
    e3b1:	44 8b 7c 24 04       	mov    r15d,DWORD PTR [rsp+0x4]
    e3b6:	89 44 24 04          	mov    DWORD PTR [rsp+0x4],eax
    e3ba:	e9 1e fe ff ff       	jmp    e1dd <__sprintf_chk@plt+0xce8d>
    e3bf:	e8 50 36 00 00       	call   11a14 <__sprintf_chk@plt+0x106c4>
    e3c4:	85 c0                	test   eax,eax
    e3c6:	0f 84 1e fe ff ff    	je     e1ea <__sprintf_chk@plt+0xce9a>
    e3cc:	83 3d 39 fc b2 00 00 	cmp    DWORD PTR [rip+0xb2fc39],0x0        # b3e00c <stdin@@GLIBC_2.2.5+0xb26fdc>
    e3d3:	0f 84 11 fe ff ff    	je     e1ea <__sprintf_chk@plt+0xce9a>
    e3d9:	e9 d7 00 00 00       	jmp    e4b5 <__sprintf_chk@plt+0xd165>
    e3de:	44 8b 05 6b 00 b7 00 	mov    r8d,DWORD PTR [rip+0xb7006b]        # b7e450 <stdin@@GLIBC_2.2.5+0xb67420>
    e3e5:	8b 0d 55 8d b7 00    	mov    ecx,DWORD PTR [rip+0xb78d55]        # b87140 <stdin@@GLIBC_2.2.5+0xb70110>
    e3eb:	ba 00 00 00 00       	mov    edx,0x0
    e3f0:	be 00 00 00 00       	mov    esi,0x0
    e3f5:	48 8d 3d 14 4e 00 00 	lea    rdi,[rip+0x4e14]        # 13210 <__sprintf_chk@plt+0x11ec0>
    e3fc:	b8 00 00 00 00       	mov    eax,0x0
    e401:	e8 9a 22 00 00       	call   106a0 <__sprintf_chk@plt+0xf350>
    e406:	48 8d 3d 73 4d 00 00 	lea    rdi,[rip+0x4d73]        # 13180 <__sprintf_chk@plt+0x11e30>
    e40d:	b8 00 00 00 00       	mov    eax,0x0
    e412:	e8 89 22 00 00       	call   106a0 <__sprintf_chk@plt+0xf350>
    e417:	e9 5a 01 00 00       	jmp    e576 <__sprintf_chk@plt+0xd226>
    e41c:	44 8b 25 1d 00 b7 00 	mov    r12d,DWORD PTR [rip+0xb7001d]        # b7e440 <stdin@@GLIBC_2.2.5+0xb67410>
    e423:	83 3d 16 8d b7 00 00 	cmp    DWORD PTR [rip+0xb78d16],0x0        # b87140 <stdin@@GLIBC_2.2.5+0xb70110>
    e42a:	0f 85 0d fe ff ff    	jne    e23d <__sprintf_chk@plt+0xceed>
    e430:	8b 05 1e 00 b7 00    	mov    eax,DWORD PTR [rip+0xb7001e]        # b7e454 <stdin@@GLIBC_2.2.5+0xb67424>
    e436:	89 44 24 0c          	mov    DWORD PTR [rsp+0xc],eax
    e43a:	45 85 ff             	test   r15d,r15d
    e43d:	0f 84 52 03 00 00    	je     e795 <__sprintf_chk@plt+0xd445>
    e443:	8b 05 0b 00 b7 00    	mov    eax,DWORD PTR [rip+0xb7000b]        # b7e454 <stdin@@GLIBC_2.2.5+0xb67424>
    e449:	41 81 fc 0c 7b 00 00 	cmp    r12d,0x7b0c
    e450:	7e 09                	jle    e45b <__sprintf_chk@plt+0xd10b>
    e452:	83 f8 02             	cmp    eax,0x2
    e455:	0f 8f fe fd ff ff    	jg     e259 <__sprintf_chk@plt+0xcf09>
    e45b:	44 8b 7c 24 04       	mov    r15d,DWORD PTR [rsp+0x4]
    e460:	e9 36 fe ff ff       	jmp    e29b <__sprintf_chk@plt+0xcf4b>
    e465:	41 b8 00 00 00 00    	mov    r8d,0x0
    e46b:	b9 00 00 00 00       	mov    ecx,0x0
    e470:	8b 54 24 04          	mov    edx,DWORD PTR [rsp+0x4]
    e474:	44 89 e6             	mov    esi,r12d
    e477:	48 89 df             	mov    rdi,rbx
    e47a:	e8 c7 26 00 00       	call   10b46 <__sprintf_chk@plt+0xf7f6>
    e47f:	8b 05 cf ff b6 00    	mov    eax,DWORD PTR [rip+0xb6ffcf]        # b7e454 <stdin@@GLIBC_2.2.5+0xb67424>
    e485:	41 81 fc 0c 7b 00 00 	cmp    r12d,0x7b0c
    e48c:	7e 09                	jle    e497 <__sprintf_chk@plt+0xd147>
    e48e:	83 f8 02             	cmp    eax,0x2
    e491:	0f 8f c2 fd ff ff    	jg     e259 <__sprintf_chk@plt+0xcf09>
    e497:	44 8b 7c 24 04       	mov    r15d,DWORD PTR [rsp+0x4]
    e49c:	e9 ed fd ff ff       	jmp    e28e <__sprintf_chk@plt+0xcf3e>
    e4a1:	44 8b 7c 24 04       	mov    r15d,DWORD PTR [rsp+0x4]
    e4a6:	e9 e3 fd ff ff       	jmp    e28e <__sprintf_chk@plt+0xcf3e>
    e4ab:	44 89 7c 24 04       	mov    DWORD PTR [rsp+0x4],r15d
    e4b0:	44 8b 7c 24 04       	mov    r15d,DWORD PTR [rsp+0x4]
    e4b5:	45 85 ff             	test   r15d,r15d
    e4b8:	0f 84 a7 00 00 00    	je     e565 <__sprintf_chk@plt+0xd215>
    e4be:	83 3d 8f ff b6 00 1f 	cmp    DWORD PTR [rip+0xb6ff8f],0x1f        # b7e454 <stdin@@GLIBC_2.2.5+0xb67424>
    e4c5:	7e 38                	jle    e4ff <__sprintf_chk@plt+0xd1af>
    e4c7:	83 3d 3e fb b2 00 00 	cmp    DWORD PTR [rip+0xb2fb3e],0x0        # b3e00c <stdin@@GLIBC_2.2.5+0xb26fdc>
    e4ce:	74 2f                	je     e4ff <__sprintf_chk@plt+0xd1af>
    e4d0:	83 3d 25 fb b2 00 00 	cmp    DWORD PTR [rip+0xb2fb25],0x0        # b3dffc <stdin@@GLIBC_2.2.5+0xb26fcc>
    e4d7:	74 40                	je     e519 <__sprintf_chk@plt+0xd1c9>
    e4d9:	83 3d 30 fb b2 00 00 	cmp    DWORD PTR [rip+0xb2fb30],0x0        # b3e010 <stdin@@GLIBC_2.2.5+0xb26fe0>
    e4e0:	0f 85 bc 00 00 00    	jne    e5a2 <__sprintf_chk@plt+0xd252>
    e4e6:	48 8d 2d 53 ff b6 00 	lea    rbp,[rip+0xb6ff53]        # b7e440 <stdin@@GLIBC_2.2.5+0xb67410>
    e4ed:	81 7d 30 ff e0 f5 05 	cmp    DWORD PTR [rbp+0x30],0x5f5e0ff
    e4f4:	75 09                	jne    e4ff <__sprintf_chk@plt+0xd1af>
    e4f6:	e8 19 35 00 00       	call   11a14 <__sprintf_chk@plt+0x106c4>
    e4fb:	85 c0                	test   eax,eax
    e4fd:	74 ee                	je     e4ed <__sprintf_chk@plt+0xd19d>
    e4ff:	83 3d f6 fa b2 00 00 	cmp    DWORD PTR [rip+0xb2faf6],0x0        # b3dffc <stdin@@GLIBC_2.2.5+0xb26fcc>
    e506:	0f 85 96 00 00 00    	jne    e5a2 <__sprintf_chk@plt+0xd252>
    e50c:	41 81 fc fe 7c 00 00 	cmp    r12d,0x7cfe
    e513:	0f 84 14 01 00 00    	je     e62d <__sprintf_chk@plt+0xd2dd>
    e519:	83 7c 24 08 14       	cmp    DWORD PTR [rsp+0x8],0x14
    e51e:	0f 8f 31 01 00 00    	jg     e655 <__sprintf_chk@plt+0xd305>
    e524:	48 89 df             	mov    rdi,rbx
    e527:	e8 ab 31 ff ff       	call   16d7 <__sprintf_chk@plt+0x387>
    e52c:	0b 05 da fa b2 00    	or     eax,DWORD PTR [rip+0xb2fada]        # b3e00c <stdin@@GLIBC_2.2.5+0xb26fdc>
    e532:	75 42                	jne    e576 <__sprintf_chk@plt+0xd226>
    e534:	8b 05 16 ff b6 00    	mov    eax,DWORD PTR [rip+0xb6ff16]        # b7e450 <stdin@@GLIBC_2.2.5+0xb67420>
    e53a:	ff c8                	dec    eax
    e53c:	83 f8 04             	cmp    eax,0x4
    e53f:	76 35                	jbe    e576 <__sprintf_chk@plt+0xd226>
    e541:	83 7c 24 0c 04       	cmp    DWORD PTR [rsp+0xc],0x4
    e546:	7e 2e                	jle    e576 <__sprintf_chk@plt+0xd226>
    e548:	44 89 25 51 f8 b2 00 	mov    DWORD PTR [rip+0xb2f851],r12d        # b3dda0 <stdin@@GLIBC_2.2.5+0xb26d70>
    e54f:	eb 25                	jmp    e576 <__sprintf_chk@plt+0xd226>
    e551:	44 8b 7c 24 04       	mov    r15d,DWORD PTR [rsp+0x4]
    e556:	e9 5a ff ff ff       	jmp    e4b5 <__sprintf_chk@plt+0xd165>
    e55b:	44 8b 7c 24 04       	mov    r15d,DWORD PTR [rsp+0x4]
    e560:	e9 50 ff ff ff       	jmp    e4b5 <__sprintf_chk@plt+0xd165>
    e565:	48 8d 3d 14 4c 00 00 	lea    rdi,[rip+0x4c14]        # 13180 <__sprintf_chk@plt+0x11e30>
    e56c:	b8 00 00 00 00       	mov    eax,0x0
    e571:	e8 2a 21 00 00       	call   106a0 <__sprintf_chk@plt+0xf350>
    e576:	48 8b 84 24 d8 07 00 	mov    rax,QWORD PTR [rsp+0x7d8]
    e57d:	00 
    e57e:	64 48 33 04 25 28 00 	xor    rax,QWORD PTR fs:0x28
    e585:	00 00 
    e587:	0f 85 95 02 00 00    	jne    e822 <__sprintf_chk@plt+0xd4d2>
    e58d:	44 89 f8             	mov    eax,r15d
    e590:	48 81 c4 e8 07 00 00 	add    rsp,0x7e8
    e597:	5b                   	pop    rbx
    e598:	5d                   	pop    rbp
    e599:	41 5c                	pop    r12
    e59b:	41 5d                	pop    r13
    e59d:	41 5e                	pop    r14
    e59f:	41 5f                	pop    r15
    e5a1:	c3                   	ret    
    e5a2:	44 89 fe             	mov    esi,r15d
    e5a5:	48 89 df             	mov    rdi,rbx
    e5a8:	e8 e4 81 ff ff       	call   6791 <__sprintf_chk@plt+0x5441>
    e5ad:	48 89 df             	mov    rdi,rbx
    e5b0:	e8 21 1c 00 00       	call   101d6 <__sprintf_chk@plt+0xee86>
    e5b5:	89 c5                	mov    ebp,eax
    e5b7:	44 89 fe             	mov    esi,r15d
    e5ba:	48 89 df             	mov    rdi,rbx
    e5bd:	e8 9b 8a ff ff       	call   705d <__sprintf_chk@plt+0x5d0d>
    e5c2:	48 8d 94 24 d0 03 00 	lea    rdx,[rsp+0x3d0]
    e5c9:	00 
    e5ca:	44 89 fe             	mov    esi,r15d
    e5cd:	48 89 df             	mov    rdi,rbx
    e5d0:	e8 34 17 00 00       	call   fd09 <__sprintf_chk@plt+0xe9b9>
    e5d5:	85 ed                	test   ebp,ebp
    e5d7:	74 36                	je     e60f <__sprintf_chk@plt+0xd2bf>
    e5d9:	4c 8d ac 24 d0 05 00 	lea    r13,[rsp+0x5d0]
    e5e0:	00 
    e5e1:	4c 89 ea             	mov    rdx,r13
    e5e4:	89 ee                	mov    esi,ebp
    e5e6:	48 89 df             	mov    rdi,rbx
    e5e9:	e8 1b 17 00 00       	call   fd09 <__sprintf_chk@plt+0xe9b9>
    e5ee:	48 8d b4 24 d0 03 00 	lea    rsi,[rsp+0x3d0]
    e5f5:	00 
    e5f6:	4c 89 ea             	mov    rdx,r13
    e5f9:	48 8d 3d 8f 4b 00 00 	lea    rdi,[rip+0x4b8f]        # 1318f <__sprintf_chk@plt+0x11e3f>
    e600:	b8 00 00 00 00       	mov    eax,0x0
    e605:	e8 96 20 00 00       	call   106a0 <__sprintf_chk@plt+0xf350>
    e60a:	e9 fd fe ff ff       	jmp    e50c <__sprintf_chk@plt+0xd1bc>
    e60f:	48 8d b4 24 d0 03 00 	lea    rsi,[rsp+0x3d0]
    e616:	00 
    e617:	48 8d 3d 0e 4b 00 00 	lea    rdi,[rip+0x4b0e]        # 1312c <__sprintf_chk@plt+0x11ddc>
    e61e:	b8 00 00 00 00       	mov    eax,0x0
    e623:	e8 78 20 00 00       	call   106a0 <__sprintf_chk@plt+0xf350>
    e628:	e9 df fe ff ff       	jmp    e50c <__sprintf_chk@plt+0xd1bc>
    e62d:	83 3d d8 f9 b2 00 00 	cmp    DWORD PTR [rip+0xb2f9d8],0x0        # b3e00c <stdin@@GLIBC_2.2.5+0xb26fdc>
    e634:	0f 85 df fe ff ff    	jne    e519 <__sprintf_chk@plt+0xd1c9>
    e63a:	83 bb cc 01 00 00 00 	cmp    DWORD PTR [rbx+0x1cc],0x0
    e641:	0f 95 c0             	setne  al
    e644:	0f b6 c0             	movzx  eax,al
    e647:	83 c0 02             	add    eax,0x2
    e64a:	89 05 00 fe b6 00    	mov    DWORD PTR [rip+0xb6fe00],eax        # b7e450 <stdin@@GLIBC_2.2.5+0xb67420>
    e650:	e9 c4 fe ff ff       	jmp    e519 <__sprintf_chk@plt+0xd1c9>
    e655:	48 8b 93 f0 0f 00 00 	mov    rdx,QWORD PTR [rbx+0xff0]
    e65c:	48 85 d2             	test   rdx,rdx
    e65f:	78 4a                	js     e6ab <__sprintf_chk@plt+0xd35b>
    e661:	c5 d0 57 ed          	vxorps xmm5,xmm5,xmm5
    e665:	c4 e1 d2 2a c2       	vcvtsi2ss xmm0,xmm5,rdx
    e66a:	c5 d8 57 e4          	vxorps xmm4,xmm4,xmm4
    e66e:	c5 da 2a 4c 24 08    	vcvtsi2ss xmm1,xmm4,DWORD PTR [rsp+0x8]
    e674:	c5 f2 5e 0d 0c 3f 00 	vdivss xmm1,xmm1,DWORD PTR [rip+0x3f0c]        # 12588 <__sprintf_chk@plt+0x11238>
    e67b:	00 
    e67c:	c5 fa 5e c1          	vdivss xmm0,xmm0,xmm1
    e680:	c5 fa 5e 05 f0 4b 00 	vdivss xmm0,xmm0,DWORD PTR [rip+0x4bf0]        # 13278 <__sprintf_chk@plt+0x11f28>
    e687:	00 
    e688:	c5 fa 2c f8          	vcvttss2si edi,xmm0
    e68c:	e8 99 0e 00 00       	call   f52a <__sprintf_chk@plt+0xe1da>
    e691:	89 05 35 f7 b2 00    	mov    DWORD PTR [rip+0xb2f735],eax        # b3ddcc <stdin@@GLIBC_2.2.5+0xb26d9c>
    e697:	83 f8 07             	cmp    eax,0x7
    e69a:	7f 2a                	jg     e6c6 <__sprintf_chk@plt+0xd376>
    e69c:	c7 05 26 f7 b2 00 08 	mov    DWORD PTR [rip+0xb2f726],0x8        # b3ddcc <stdin@@GLIBC_2.2.5+0xb26d9c>
    e6a3:	00 00 00 
    e6a6:	e9 79 fe ff ff       	jmp    e524 <__sprintf_chk@plt+0xd1d4>
    e6ab:	48 89 d0             	mov    rax,rdx
    e6ae:	48 d1 e8             	shr    rax,1
    e6b1:	83 e2 01             	and    edx,0x1
    e6b4:	48 09 d0             	or     rax,rdx
    e6b7:	c5 c8 57 f6          	vxorps xmm6,xmm6,xmm6
    e6bb:	c4 e1 ca 2a c0       	vcvtsi2ss xmm0,xmm6,rax
    e6c0:	c5 fa 58 c0          	vaddss xmm0,xmm0,xmm0
    e6c4:	eb a4                	jmp    e66a <__sprintf_chk@plt+0xd31a>
    e6c6:	83 f8 11             	cmp    eax,0x11
    e6c9:	0f 8e 55 fe ff ff    	jle    e524 <__sprintf_chk@plt+0xd1d4>
    e6cf:	c7 05 f3 f6 b2 00 11 	mov    DWORD PTR [rip+0xb2f6f3],0x11        # b3ddcc <stdin@@GLIBC_2.2.5+0xb26d9c>
    e6d6:	00 00 00 
    e6d9:	e9 46 fe ff ff       	jmp    e524 <__sprintf_chk@plt+0xd1d4>
    e6de:	c7 05 4c 8a b7 00 01 	mov    DWORD PTR [rip+0xb78a4c],0x1        # b87134 <stdin@@GLIBC_2.2.5+0xb70104>
    e6e5:	00 00 00 
    e6e8:	8b 05 66 fd b6 00    	mov    eax,DWORD PTR [rip+0xb6fd66]        # b7e454 <stdin@@GLIBC_2.2.5+0xb67424>
    e6ee:	8d 0c 85 00 00 00 00 	lea    ecx,[rax*4+0x0]
    e6f5:	44 89 ea             	mov    edx,r13d
    e6f8:	be c0 bd f0 ff       	mov    esi,0xfff0bdc0
    e6fd:	48 89 df             	mov    rdi,rbx
    e700:	e8 9e eb ff ff       	call   d2a3 <__sprintf_chk@plt+0xbf53>
    e705:	89 44 24 04          	mov    DWORD PTR [rsp+0x4],eax
    e709:	83 3d 30 8a b7 00 00 	cmp    DWORD PTR [rip+0xb78a30],0x0        # b87140 <stdin@@GLIBC_2.2.5+0xb70110>
    e710:	0f 85 c7 fa ff ff    	jne    e1dd <__sprintf_chk@plt+0xce8d>
    e716:	c7 05 14 8a b7 00 00 	mov    DWORD PTR [rip+0xb78a14],0x0        # b87134 <stdin@@GLIBC_2.2.5+0xb70104>
    e71d:	00 00 00 
    e720:	44 39 2d 19 fd b6 00 	cmp    DWORD PTR [rip+0xb6fd19],r13d        # b7e440 <stdin@@GLIBC_2.2.5+0xb67410>
    e727:	0f 8c b0 fa ff ff    	jl     e1dd <__sprintf_chk@plt+0xce8d>
    e72d:	8b 05 21 fd b6 00    	mov    eax,DWORD PTR [rip+0xb6fd21]        # b7e454 <stdin@@GLIBC_2.2.5+0xb67424>
    e733:	8d 0c 85 00 00 00 00 	lea    ecx,[rax*4+0x0]
    e73a:	ba 40 42 0f 00       	mov    edx,0xf4240
    e73f:	be c0 bd f0 ff       	mov    esi,0xfff0bdc0
    e744:	48 89 df             	mov    rdi,rbx
    e747:	e8 57 eb ff ff       	call   d2a3 <__sprintf_chk@plt+0xbf53>
    e74c:	89 44 24 04          	mov    DWORD PTR [rsp+0x4],eax
    e750:	83 3d e9 89 b7 00 00 	cmp    DWORD PTR [rip+0xb789e9],0x0        # b87140 <stdin@@GLIBC_2.2.5+0xb70110>
    e757:	0f 85 80 fa ff ff    	jne    e1dd <__sprintf_chk@plt+0xce8d>
    e75d:	c7 05 cd 89 b7 00 00 	mov    DWORD PTR [rip+0xb789cd],0x0        # b87134 <stdin@@GLIBC_2.2.5+0xb70104>
    e764:	00 00 00 
    e767:	e9 71 fa ff ff       	jmp    e1dd <__sprintf_chk@plt+0xce8d>
    e76c:	b8 00 7d 00 00       	mov    eax,0x7d00
    e771:	2b 05 c9 fc b6 00    	sub    eax,DWORD PTR [rip+0xb6fcc9]        # b7e440 <stdin@@GLIBC_2.2.5+0xb67410>
    e777:	3b 44 24 0c          	cmp    eax,DWORD PTR [rsp+0xc]
    e77b:	0f 8c eb fa ff ff    	jl     e26c <__sprintf_chk@plt+0xcf1c>
    e781:	44 8b 7c 24 04       	mov    r15d,DWORD PTR [rsp+0x4]
    e786:	e9 10 fb ff ff       	jmp    e29b <__sprintf_chk@plt+0xcf4b>
    e78b:	8b 05 c3 fc b6 00    	mov    eax,DWORD PTR [rip+0xb6fcc3]        # b7e454 <stdin@@GLIBC_2.2.5+0xb67424>
    e791:	89 44 24 0c          	mov    DWORD PTR [rsp+0xc],eax
    e795:	83 3d 48 f8 b2 00 01 	cmp    DWORD PTR [rip+0xb2f848],0x1        # b3dfe4 <stdin@@GLIBC_2.2.5+0xb26fb4>
    e79c:	0f 84 c3 fc ff ff    	je     e465 <__sprintf_chk@plt+0xd115>
    e7a2:	41 81 fc 0c 7b 00 00 	cmp    r12d,0x7b0c
    e7a9:	7e 07                	jle    e7b2 <__sprintf_chk@plt+0xd462>
    e7ab:	83 7c 24 0c 02       	cmp    DWORD PTR [rsp+0xc],0x2
    e7b0:	7f ba                	jg     e76c <__sprintf_chk@plt+0xd41c>
    e7b2:	44 8b 7c 24 04       	mov    r15d,DWORD PTR [rsp+0x4]
    e7b7:	e9 df fa ff ff       	jmp    e29b <__sprintf_chk@plt+0xcf4b>
    e7bc:	c7 05 6e 89 b7 00 00 	mov    DWORD PTR [rip+0xb7896e],0x0        # b87134 <stdin@@GLIBC_2.2.5+0xb70104>
    e7c3:	00 00 00 
    e7c6:	45 39 ee             	cmp    r14d,r13d
    e7c9:	0f 8c 0e fa ff ff    	jl     e1dd <__sprintf_chk@plt+0xce8d>
    e7cf:	83 3d 6a 89 b7 00 00 	cmp    DWORD PTR [rip+0xb7896a],0x0        # b87140 <stdin@@GLIBC_2.2.5+0xb70110>
    e7d6:	0f 85 01 fa ff ff    	jne    e1dd <__sprintf_chk@plt+0xce8d>
    e7dc:	8b 05 72 fc b6 00    	mov    eax,DWORD PTR [rip+0xb6fc72]        # b7e454 <stdin@@GLIBC_2.2.5+0xb67424>
    e7e2:	8d 0c 85 00 00 00 00 	lea    ecx,[rax*4+0x0]
    e7e9:	ba 40 42 0f 00       	mov    edx,0xf4240
    e7ee:	89 ee                	mov    esi,ebp
    e7f0:	48 89 df             	mov    rdi,rbx
    e7f3:	e8 ab ea ff ff       	call   d2a3 <__sprintf_chk@plt+0xbf53>
    e7f8:	39 2d 42 fc b6 00    	cmp    DWORD PTR [rip+0xb6fc42],ebp        # b7e440 <stdin@@GLIBC_2.2.5+0xb67410>
    e7fe:	0f 8f 99 fb ff ff    	jg     e39d <__sprintf_chk@plt+0xd04d>
    e804:	83 3d 35 89 b7 00 00 	cmp    DWORD PTR [rip+0xb78935],0x0        # b87140 <stdin@@GLIBC_2.2.5+0xb70110>
    e80b:	0f 84 3f fb ff ff    	je     e350 <__sprintf_chk@plt+0xd000>
    e811:	45 89 f4             	mov    r12d,r14d
    e814:	44 8b 7c 24 04       	mov    r15d,DWORD PTR [rsp+0x4]
    e819:	89 44 24 04          	mov    DWORD PTR [rsp+0x4],eax
    e81d:	e9 bb f9 ff ff       	jmp    e1dd <__sprintf_chk@plt+0xce8d>
    e822:	e8 19 2a ff ff       	call   1240 <__stack_chk_fail@plt>
    e827:	f3 0f 1e fa          	endbr64 
    e82b:	41 57                	push   r15
    e82d:	41 56                	push   r14
    e82f:	41 55                	push   r13
    e831:	41 54                	push   r12
    e833:	55                   	push   rbp
    e834:	53                   	push   rbx
    e835:	48 81 ec c8 00 00 00 	sub    rsp,0xc8
    e83c:	48 89 fb             	mov    rbx,rdi
    e83f:	41 89 f5             	mov    r13d,esi
    e842:	41 89 ce             	mov    r14d,ecx
    e845:	45 89 c7             	mov    r15d,r8d
    e848:	44 89 44 24 14       	mov    DWORD PTR [rsp+0x14],r8d
    e84d:	64 48 8b 04 25 28 00 	mov    rax,QWORD PTR fs:0x28
    e854:	00 00 
    e856:	48 89 84 24 b8 00 00 	mov    QWORD PTR [rsp+0xb8],rax
    e85d:	00 
    e85e:	31 c0                	xor    eax,eax
    e860:	48 63 d2             	movsxd rdx,edx
    e863:	44 8b 64 97 04       	mov    r12d,DWORD PTR [rdi+rdx*4+0x4]
    e868:	48 8b b7 08 01 00 00 	mov    rsi,QWORD PTR [rdi+0x108]
    e86f:	48 89 74 24 20       	mov    QWORD PTR [rsp+0x20],rsi
    e874:	49 63 c4             	movsxd rax,r12d
    e877:	48 8d bc c7 20 01 00 	lea    rdi,[rdi+rax*8+0x120]
    e87e:	00 
    e87f:	48 89 7c 24 18       	mov    QWORD PTR [rsp+0x18],rdi
    e884:	48 8b 07             	mov    rax,QWORD PTR [rdi]
    e887:	48 89 44 24 28       	mov    QWORD PTR [rsp+0x28],rax
    e88c:	48 8d 05 0d a2 00 00 	lea    rax,[rip+0xa20d]        # 18aa0 <stdin@@GLIBC_2.2.5+0x1a70>
    e893:	48 33 34 d0          	xor    rsi,QWORD PTR [rax+rdx*8]
    e897:	48 89 b3 08 01 00 00 	mov    QWORD PTR [rbx+0x108],rsi
    e89e:	48 8b 04 d0          	mov    rax,QWORD PTR [rax+rdx*8]
    e8a2:	48 31 07             	xor    QWORD PTR [rdi],rax
    e8a5:	89 ce                	mov    esi,ecx
    e8a7:	48 89 df             	mov    rdi,rbx
    e8aa:	e8 60 2e ff ff       	call   170f <__sprintf_chk@plt+0x3bf>
    e8af:	48 89 c5             	mov    rbp,rax
    e8b2:	48 8d 15 a7 3d 00 00 	lea    rdx,[rip+0x3da7]        # 12660 <__sprintf_chk@plt+0x11310>
    e8b9:	49 63 c6             	movsxd rax,r14d
    e8bc:	48 63 4c 83 04       	movsxd rcx,DWORD PTR [rbx+rax*4+0x4]
    e8c1:	8b 04 8a             	mov    eax,DWORD PTR [rdx+rcx*4]
    e8c4:	c1 f8 1f             	sar    eax,0x1f
    e8c7:	89 c6                	mov    esi,eax
    e8c9:	33 34 8a             	xor    esi,DWORD PTR [rdx+rcx*4]
    e8cc:	89 f1                	mov    ecx,esi
    e8ce:	29 c1                	sub    ecx,eax
    e8d0:	89 4c 24 30          	mov    DWORD PTR [rsp+0x30],ecx
    e8d4:	45 85 ff             	test   r15d,r15d
    e8d7:	75 64                	jne    e93d <__sprintf_chk@plt+0xd5ed>
    e8d9:	4d 63 e4             	movsxd r12,r12d
    e8dc:	42 8b 04 a2          	mov    eax,DWORD PTR [rdx+r12*4]
    e8e0:	c1 f8 1f             	sar    eax,0x1f
    e8e3:	89 c6                	mov    esi,eax
    e8e5:	42 33 34 a2          	xor    esi,DWORD PTR [rdx+r12*4]
    e8e9:	89 f2                	mov    edx,esi
    e8eb:	29 c2                	sub    edx,eax
    e8ed:	48 8b 83 68 01 00 00 	mov    rax,QWORD PTR [rbx+0x168]
    e8f4:	48 0b 83 70 01 00 00 	or     rax,QWORD PTR [rbx+0x170]
    e8fb:	48 8b b3 58 01 00 00 	mov    rsi,QWORD PTR [rbx+0x158]
    e902:	48 0b b3 60 01 00 00 	or     rsi,QWORD PTR [rbx+0x160]
    e909:	48 09 c6             	or     rsi,rax
    e90c:	49 89 f7             	mov    r15,rsi
    e90f:	48 8b b3 78 01 00 00 	mov    rsi,QWORD PTR [rbx+0x178]
    e916:	48 0b b3 80 01 00 00 	or     rsi,QWORD PTR [rbx+0x180]
    e91d:	48 09 c6             	or     rsi,rax
    e920:	48 89 74 24 08       	mov    QWORD PTR [rsp+0x8],rsi
    e925:	41 83 f5 01          	xor    r13d,0x1
    e929:	48 85 ed             	test   rbp,rbp
    e92c:	0f 84 58 02 00 00    	je     eb8a <__sprintf_chk@plt+0xd83a>
    e932:	41 bc 01 00 00 00    	mov    r12d,0x1
    e938:	e9 f4 00 00 00       	jmp    ea31 <__sprintf_chk@plt+0xd6e1>
    e93d:	48 8d 15 1c 3d 00 00 	lea    rdx,[rip+0x3d1c]        # 12660 <__sprintf_chk@plt+0x11310>
    e944:	48 63 74 24 14       	movsxd rsi,DWORD PTR [rsp+0x14]
    e949:	8b 04 b2             	mov    eax,DWORD PTR [rdx+rsi*4]
    e94c:	c1 f8 1f             	sar    eax,0x1f
    e94f:	89 c7                	mov    edi,eax
    e951:	33 3c b2             	xor    edi,DWORD PTR [rdx+rsi*4]
    e954:	89 fa                	mov    edx,edi
    e956:	29 c2                	sub    edx,eax
    e958:	83 ea 55             	sub    edx,0x55
    e95b:	eb 90                	jmp    e8ed <__sprintf_chk@plt+0xd59d>
    e95d:	48 89 e8             	mov    rax,rbp
    e960:	48 23 83 30 01 00 00 	and    rax,QWORD PTR [rbx+0x130]
    e967:	0f 85 66 01 00 00    	jne    ead3 <__sprintf_chk@plt+0xd783>
    e96d:	48 89 e8             	mov    rax,rbp
    e970:	48 23 83 40 01 00 00 	and    rax,QWORD PTR [rbx+0x140]
    e977:	0f 85 63 01 00 00    	jne    eae0 <__sprintf_chk@plt+0xd790>
    e97d:	48 89 e8             	mov    rax,rbp
    e980:	48 23 83 80 01 00 00 	and    rax,QWORD PTR [rbx+0x180]
    e987:	0f 85 60 01 00 00    	jne    eaed <__sprintf_chk@plt+0xd79d>
    e98d:	48 89 e8             	mov    rax,rbp
    e990:	48 23 83 60 01 00 00 	and    rax,QWORD PTR [rbx+0x160]
    e997:	0f 85 5d 01 00 00    	jne    eafa <__sprintf_chk@plt+0xd7aa>
    e99d:	48 89 e8             	mov    rax,rbp
    e9a0:	48 23 83 70 01 00 00 	and    rax,QWORD PTR [rbx+0x170]
    e9a7:	0f 85 5a 01 00 00    	jne    eb07 <__sprintf_chk@plt+0xd7b7>
    e9ad:	48 89 e8             	mov    rax,rbp
    e9b0:	48 23 83 50 01 00 00 	and    rax,QWORD PTR [rbx+0x150]
    e9b7:	0f 84 85 01 00 00    	je     eb42 <__sprintf_chk@plt+0xd7f2>
    e9bd:	c7 44 24 10 40 42 0f 	mov    DWORD PTR [rsp+0x10],0xf4240
    e9c4:	00 
    e9c5:	eb 08                	jmp    e9cf <__sprintf_chk@plt+0xd67f>
    e9c7:	c7 44 24 10 55 00 00 	mov    DWORD PTR [rsp+0x10],0x55
    e9ce:	00 
    e9cf:	42 2b 54 a4 2c       	sub    edx,DWORD PTR [rsp+r12*4+0x2c]
    e9d4:	42 89 54 a4 30       	mov    DWORD PTR [rsp+r12*4+0x30],edx
    e9d9:	8d 79 01             	lea    edi,[rcx+0x1]
    e9dc:	89 7c 24 04          	mov    DWORD PTR [rsp+0x4],edi
    e9e0:	c4 e2 f8 f3 d8       	blsi   rax,rax
    e9e5:	48 31 83 08 01 00 00 	xor    QWORD PTR [rbx+0x108],rax
    e9ec:	49 63 c6             	movsxd rax,r14d
    e9ef:	48 8d 35 2a 97 00 00 	lea    rsi,[rip+0x972a]        # 18120 <stdin@@GLIBC_2.2.5+0x10f0>
    e9f6:	4c 85 3c c6          	test   QWORD PTR [rsi+rax*8],r15
    e9fa:	0f 85 14 01 00 00    	jne    eb14 <__sprintf_chk@plt+0xd7c4>
    ea00:	49 63 c6             	movsxd rax,r14d
    ea03:	48 8d 3d 16 95 00 00 	lea    rdi,[rip+0x9516]        # 17f20 <stdin@@GLIBC_2.2.5+0xef0>
    ea0a:	48 8b 4c 24 08       	mov    rcx,QWORD PTR [rsp+0x8]
    ea0f:	48 85 0c c7          	test   QWORD PTR [rdi+rax*8],rcx
    ea13:	0f 85 11 01 00 00    	jne    eb2a <__sprintf_chk@plt+0xd7da>
    ea19:	41 83 f5 01          	xor    r13d,0x1
    ea1d:	49 ff c4             	inc    r12
    ea20:	48 23 ab 08 01 00 00 	and    rbp,QWORD PTR [rbx+0x108]
    ea27:	0f 84 15 01 00 00    	je     eb42 <__sprintf_chk@plt+0xd7f2>
    ea2d:	8b 54 24 10          	mov    edx,DWORD PTR [rsp+0x10]
    ea31:	44 89 e1             	mov    ecx,r12d
    ea34:	44 89 64 24 04       	mov    DWORD PTR [rsp+0x4],r12d
    ea39:	45 85 ed             	test   r13d,r13d
    ea3c:	0f 85 1b ff ff ff    	jne    e95d <__sprintf_chk@plt+0xd60d>
    ea42:	48 89 e8             	mov    rax,rbp
    ea45:	48 23 83 28 01 00 00 	and    rax,QWORD PTR [rbx+0x128]
    ea4c:	0f 85 75 ff ff ff    	jne    e9c7 <__sprintf_chk@plt+0xd677>
    ea52:	48 89 e8             	mov    rax,rbp
    ea55:	48 23 83 38 01 00 00 	and    rax,QWORD PTR [rbx+0x138]
    ea5c:	75 41                	jne    ea9f <__sprintf_chk@plt+0xd74f>
    ea5e:	48 89 e8             	mov    rax,rbp
    ea61:	48 23 83 78 01 00 00 	and    rax,QWORD PTR [rbx+0x178]
    ea68:	75 42                	jne    eaac <__sprintf_chk@plt+0xd75c>
    ea6a:	48 89 e8             	mov    rax,rbp
    ea6d:	48 23 83 58 01 00 00 	and    rax,QWORD PTR [rbx+0x158]
    ea74:	75 43                	jne    eab9 <__sprintf_chk@plt+0xd769>
    ea76:	48 89 e8             	mov    rax,rbp
    ea79:	48 23 83 68 01 00 00 	and    rax,QWORD PTR [rbx+0x168]
    ea80:	75 44                	jne    eac6 <__sprintf_chk@plt+0xd776>
    ea82:	48 89 e8             	mov    rax,rbp
    ea85:	48 23 83 48 01 00 00 	and    rax,QWORD PTR [rbx+0x148]
    ea8c:	0f 84 b0 00 00 00    	je     eb42 <__sprintf_chk@plt+0xd7f2>
    ea92:	c7 44 24 10 40 42 0f 	mov    DWORD PTR [rsp+0x10],0xf4240
    ea99:	00 
    ea9a:	e9 30 ff ff ff       	jmp    e9cf <__sprintf_chk@plt+0xd67f>
    ea9f:	c7 44 24 10 31 01 00 	mov    DWORD PTR [rsp+0x10],0x131
    eaa6:	00 
    eaa7:	e9 23 ff ff ff       	jmp    e9cf <__sprintf_chk@plt+0xd67f>
    eaac:	c7 44 24 10 4a 01 00 	mov    DWORD PTR [rsp+0x10],0x14a
    eab3:	00 
    eab4:	e9 16 ff ff ff       	jmp    e9cf <__sprintf_chk@plt+0xd67f>
    eab9:	c7 44 24 10 ea 01 00 	mov    DWORD PTR [rsp+0x10],0x1ea
    eac0:	00 
    eac1:	e9 09 ff ff ff       	jmp    e9cf <__sprintf_chk@plt+0xd67f>
    eac6:	c7 44 24 10 a7 03 00 	mov    DWORD PTR [rsp+0x10],0x3a7
    eacd:	00 
    eace:	e9 fc fe ff ff       	jmp    e9cf <__sprintf_chk@plt+0xd67f>
    ead3:	c7 44 24 10 55 00 00 	mov    DWORD PTR [rsp+0x10],0x55
    eada:	00 
    eadb:	e9 ef fe ff ff       	jmp    e9cf <__sprintf_chk@plt+0xd67f>
    eae0:	c7 44 24 10 31 01 00 	mov    DWORD PTR [rsp+0x10],0x131
    eae7:	00 
    eae8:	e9 e2 fe ff ff       	jmp    e9cf <__sprintf_chk@plt+0xd67f>
    eaed:	c7 44 24 10 4a 01 00 	mov    DWORD PTR [rsp+0x10],0x14a
    eaf4:	00 
    eaf5:	e9 d5 fe ff ff       	jmp    e9cf <__sprintf_chk@plt+0xd67f>
    eafa:	c7 44 24 10 ea 01 00 	mov    DWORD PTR [rsp+0x10],0x1ea
    eb01:	00 
    eb02:	e9 c8 fe ff ff       	jmp    e9cf <__sprintf_chk@plt+0xd67f>
    eb07:	c7 44 24 10 a7 03 00 	mov    DWORD PTR [rsp+0x10],0x3a7
    eb0e:	00 
    eb0f:	e9 bb fe ff ff       	jmp    e9cf <__sprintf_chk@plt+0xd67f>
    eb14:	44 89 f6             	mov    esi,r14d
    eb17:	48 89 df             	mov    rdi,rbx
    eb1a:	e8 86 3e ff ff       	call   29a5 <__sprintf_chk@plt+0x1655>
    eb1f:	4c 21 f8             	and    rax,r15
    eb22:	48 09 c5             	or     rbp,rax
    eb25:	e9 d6 fe ff ff       	jmp    ea00 <__sprintf_chk@plt+0xd6b0>
    eb2a:	44 89 f6             	mov    esi,r14d
    eb2d:	48 89 df             	mov    rdi,rbx
    eb30:	e8 42 3e ff ff       	call   2977 <__sprintf_chk@plt+0x1627>
    eb35:	48 23 44 24 08       	and    rax,QWORD PTR [rsp+0x8]
    eb3a:	48 09 c5             	or     rbp,rax
    eb3d:	e9 d7 fe ff ff       	jmp    ea19 <__sprintf_chk@plt+0xd6c9>
    eb42:	8b 74 24 04          	mov    esi,DWORD PTR [rsp+0x4]
    eb46:	8d 46 ff             	lea    eax,[rsi-0x1]
    eb49:	48 63 d0             	movsxd rdx,eax
    eb4c:	8b 4c 94 30          	mov    ecx,DWORD PTR [rsp+rdx*4+0x30]
    eb50:	85 c0                	test   eax,eax
    eb52:	7e 36                	jle    eb8a <__sprintf_chk@plt+0xd83a>
    eb54:	48 63 d6             	movsxd rdx,esi
    eb57:	48 c1 e2 02          	shl    rdx,0x2
    eb5b:	48 8d 44 14 30       	lea    rax,[rsp+rdx*1+0x30]
    eb60:	4c 8d 44 14 2c       	lea    r8,[rsp+rdx*1+0x2c]
    eb65:	8d 56 fe             	lea    edx,[rsi-0x2]
    eb68:	48 c1 e2 02          	shl    rdx,0x2
    eb6c:	49 29 d0             	sub    r8,rdx
    eb6f:	8b 50 f8             	mov    edx,DWORD PTR [rax-0x8]
    eb72:	89 d7                	mov    edi,edx
    eb74:	f7 df                	neg    edi
    eb76:	89 ce                	mov    esi,ecx
    eb78:	f7 de                	neg    esi
    eb7a:	39 cf                	cmp    edi,ecx
    eb7c:	89 d1                	mov    ecx,edx
    eb7e:	0f 4c ce             	cmovl  ecx,esi
    eb81:	48 83 e8 04          	sub    rax,0x4
    eb85:	4c 39 c0             	cmp    rax,r8
    eb88:	75 e5                	jne    eb6f <__sprintf_chk@plt+0xd81f>
    eb8a:	48 8b 44 24 20       	mov    rax,QWORD PTR [rsp+0x20]
    eb8f:	48 89 83 08 01 00 00 	mov    QWORD PTR [rbx+0x108],rax
    eb96:	48 8b 44 24 18       	mov    rax,QWORD PTR [rsp+0x18]
    eb9b:	48 8b 5c 24 28       	mov    rbx,QWORD PTR [rsp+0x28]
    eba0:	48 89 18             	mov    QWORD PTR [rax],rbx
    eba3:	8b 44 24 14          	mov    eax,DWORD PTR [rsp+0x14]
    eba7:	85 c0                	test   eax,eax
    eba9:	74 1f                	je     ebca <__sprintf_chk@plt+0xd87a>
    ebab:	48 8d 15 ae 3a 00 00 	lea    rdx,[rip+0x3aae]        # 12660 <__sprintf_chk@plt+0x11310>
    ebb2:	4c 63 c0             	movsxd r8,eax
    ebb5:	42 8b 04 82          	mov    eax,DWORD PTR [rdx+r8*4]
    ebb9:	c1 f8 1f             	sar    eax,0x1f
    ebbc:	89 c3                	mov    ebx,eax
    ebbe:	42 33 1c 82          	xor    ebx,DWORD PTR [rdx+r8*4]
    ebc2:	89 da                	mov    edx,ebx
    ebc4:	29 c2                	sub    edx,eax
    ebc6:	8d 4c 11 ab          	lea    ecx,[rcx+rdx*1-0x55]
    ebca:	48 8b 84 24 b8 00 00 	mov    rax,QWORD PTR [rsp+0xb8]
    ebd1:	00 
    ebd2:	64 48 33 04 25 28 00 	xor    rax,QWORD PTR fs:0x28
    ebd9:	00 00 
    ebdb:	75 14                	jne    ebf1 <__sprintf_chk@plt+0xd8a1>
    ebdd:	89 c8                	mov    eax,ecx
    ebdf:	48 81 c4 c8 00 00 00 	add    rsp,0xc8
    ebe6:	5b                   	pop    rbx
    ebe7:	5d                   	pop    rbp
    ebe8:	41 5c                	pop    r12
    ebea:	41 5d                	pop    r13
    ebec:	41 5e                	pop    r14
    ebee:	41 5f                	pop    r15
    ebf0:	c3                   	ret    
    ebf1:	e8 4a 26 ff ff       	call   1240 <__stack_chk_fail@plt>
    ebf6:	f3 0f 1e fa          	endbr64 
    ebfa:	55                   	push   rbp
    ebfb:	53                   	push   rbx
    ebfc:	48 83 ec 08          	sub    rsp,0x8
    ec00:	89 fb                	mov    ebx,edi
    ec02:	48 89 f5             	mov    rbp,rsi
    ec05:	be 00 00 00 00       	mov    esi,0x0
    ec0a:	48 8b 3d 0f 84 00 00 	mov    rdi,QWORD PTR [rip+0x840f]        # 17020 <stdout@@GLIBC_2.2.5>
    ec11:	e8 3a 26 ff ff       	call   1250 <setbuf@plt>
    ec16:	be 00 00 00 00       	mov    esi,0x0
    ec1b:	48 8b 3d 0e 84 00 00 	mov    rdi,QWORD PTR [rip+0x840e]        # 17030 <stdin@@GLIBC_2.2.5>
    ec22:	e8 29 26 ff ff       	call   1250 <setbuf@plt>
    ec27:	e8 73 2a 00 00       	call   1169f <__sprintf_chk@plt+0x1034f>
    ec2c:	48 8d 3d 0d f8 b6 00 	lea    rdi,[rip+0xb6f80d]        # b7e440 <stdin@@GLIBC_2.2.5+0xb67410>
    ec33:	e8 c2 7a ff ff       	call   66fa <__sprintf_chk@plt+0x53aa>
    ec38:	48 8d 3d 21 85 b7 00 	lea    rdi,[rip+0xb78521]        # b87160 <stdin@@GLIBC_2.2.5+0xb70130>
    ec3f:	e8 b7 01 00 00       	call   edfb <__sprintf_chk@plt+0xdaab>
    ec44:	e8 51 2e ff ff       	call   1a9a <__sprintf_chk@plt+0x74a>
    ec49:	e8 36 b7 ff ff       	call   a384 <__sprintf_chk@plt+0x9034>
    ec4e:	bf 39 30 00 00       	mov    edi,0x3039
    ec53:	e8 ac 30 00 00       	call   11d04 <__sprintf_chk@plt+0x109b4>
    ec58:	48 8d 35 01 85 b7 00 	lea    rsi,[rip+0xb78501]        # b87160 <stdin@@GLIBC_2.2.5+0xb70130>
    ec5f:	48 8d 3d da f7 b6 00 	lea    rdi,[rip+0xb6f7da]        # b7e440 <stdin@@GLIBC_2.2.5+0xb67410>
    ec66:	e8 8d 18 00 00       	call   104f8 <__sprintf_chk@plt+0xf1a8>
    ec6b:	48 8d 3d ee 84 b7 00 	lea    rdi,[rip+0xb784ee]        # b87160 <stdin@@GLIBC_2.2.5+0xb70130>
    ec72:	e8 15 02 00 00       	call   ee8c <__sprintf_chk@plt+0xdb3c>
    ec77:	e8 35 01 00 00       	call   edb1 <__sprintf_chk@plt+0xda61>
    ec7c:	e8 5a a7 ff ff       	call   93db <__sprintf_chk@plt+0x808b>
    ec81:	c7 05 ad 86 b7 00 00 	mov    DWORD PTR [rip+0xb786ad],0x0        # b87338 <stdin@@GLIBC_2.2.5+0xb70308>
    ec88:	00 00 00 
    ec8b:	c7 05 c3 f7 b6 00 28 	mov    DWORD PTR [rip+0xb6f7c3],0x28        # b7e458 <stdin@@GLIBC_2.2.5+0xb67428>
    ec92:	00 00 00 
    ec95:	c7 05 bd f7 b6 00 0f 	mov    DWORD PTR [rip+0xb6f7bd],0xf        # b7e45c <stdin@@GLIBC_2.2.5+0xb6742c>
    ec9c:	00 00 00 
    ec9f:	c7 05 b7 f7 b6 00 00 	mov    DWORD PTR [rip+0xb6f7b7],0x0        # b7e460 <stdin@@GLIBC_2.2.5+0xb67430>
    eca6:	00 00 00 
    eca9:	c7 05 b5 f7 b6 00 90 	mov    DWORD PTR [rip+0xb6f7b5],0x15f90        # b7e468 <stdin@@GLIBC_2.2.5+0xb67438>
    ecb0:	5f 01 00 
    ecb3:	c7 05 13 f1 b2 00 00 	mov    DWORD PTR [rip+0xb2f113],0x0        # b3ddd0 <stdin@@GLIBC_2.2.5+0xb26da0>
    ecba:	00 00 00 
    ecbd:	c7 05 85 f7 b6 00 00 	mov    DWORD PTR [rip+0xb6f785],0x0        # b7e44c <stdin@@GLIBC_2.2.5+0xb6741c>
    ecc4:	00 00 00 
    ecc7:	c7 05 3b f3 b2 00 00 	mov    DWORD PTR [rip+0xb2f33b],0x0        # b3e00c <stdin@@GLIBC_2.2.5+0xb26fdc>
    ecce:	00 00 00 
    ecd1:	c7 05 2d f3 b2 00 01 	mov    DWORD PTR [rip+0xb2f32d],0x1        # b3e008 <stdin@@GLIBC_2.2.5+0xb26fd8>
    ecd8:	00 00 00 
    ecdb:	c7 05 1f f3 b2 00 00 	mov    DWORD PTR [rip+0xb2f31f],0x0        # b3e004 <stdin@@GLIBC_2.2.5+0xb26fd4>
    ece2:	00 00 00 
    ece5:	c7 05 85 f7 b6 00 00 	mov    DWORD PTR [rip+0xb6f785],0x0        # b7e474 <stdin@@GLIBC_2.2.5+0xb67444>
    ecec:	00 00 00 
    ecef:	c7 05 4b f7 b6 00 00 	mov    DWORD PTR [rip+0xb6f74b],0x0        # b7e444 <stdin@@GLIBC_2.2.5+0xb67414>
    ecf6:	00 00 00 
    ecf9:	c7 05 45 f7 b6 00 00 	mov    DWORD PTR [rip+0xb6f745],0x0        # b7e448 <stdin@@GLIBC_2.2.5+0xb67418>
    ed00:	00 00 00 
    ed03:	c7 05 bf f0 b2 00 0e 	mov    DWORD PTR [rip+0xb2f0bf],0xe        # b3ddcc <stdin@@GLIBC_2.2.5+0xb26d9c>
    ed0a:	00 00 00 
    ed0d:	c7 05 65 f7 b6 00 00 	mov    DWORD PTR [rip+0xb6f765],0x0        # b7e47c <stdin@@GLIBC_2.2.5+0xb6744c>
    ed14:	00 00 00 
    ed17:	ba a0 0f 00 00       	mov    edx,0xfa0
    ed1c:	be 00 00 00 00       	mov    esi,0x0
    ed21:	48 8d 3d 58 f7 b6 00 	lea    rdi,[rip+0xb6f758]        # b7e480 <stdin@@GLIBC_2.2.5+0xb67450>
    ed28:	e8 33 25 ff ff       	call   1260 <memset@plt>
    ed2d:	ba 00 7d 00 00       	mov    edx,0x7d00
    ed32:	be 00 00 00 00       	mov    esi,0x0
    ed37:	48 8d 3d e2 06 b7 00 	lea    rdi,[rip+0xb706e2]        # b7f420 <stdin@@GLIBC_2.2.5+0xb683f0>
    ed3e:	e8 1d 25 ff ff       	call   1260 <memset@plt>
    ed43:	48 8b 05 f6 85 b7 00 	mov    rax,QWORD PTR [rip+0xb785f6]        # b87340 <stdin@@GLIBC_2.2.5+0xb70310>
    ed4a:	48 89 05 3f 95 b7 00 	mov    QWORD PTR [rip+0xb7953f],rax        # b88290 <stdin@@GLIBC_2.2.5+0xb71260>
    ed51:	ba 00 80 02 00       	mov    edx,0x28000
    ed56:	be 00 00 00 00       	mov    esi,0x0
    ed5b:	48 8d 3d be f2 b2 00 	lea    rdi,[rip+0xb2f2be]        # b3e020 <stdin@@GLIBC_2.2.5+0xb26ff0>
    ed62:	e8 f9 24 ff ff       	call   1260 <memset@plt>
    ed67:	c7 05 9f f2 b2 00 00 	mov    DWORD PTR [rip+0xb2f29f],0x0        # b3e010 <stdin@@GLIBC_2.2.5+0xb26fe0>
    ed6e:	00 00 00 
    ed71:	83 fb 02             	cmp    ebx,0x2
    ed74:	75 23                	jne    ed99 <__sprintf_chk@plt+0xda49>
    ed76:	48 8b 55 08          	mov    rdx,QWORD PTR [rbp+0x8]
    ed7a:	48 8d 35 df 83 b7 00 	lea    rsi,[rip+0xb783df]        # b87160 <stdin@@GLIBC_2.2.5+0xb70130>
    ed81:	48 8d 3d b8 f6 b6 00 	lea    rdi,[rip+0xb6f6b8]        # b7e440 <stdin@@GLIBC_2.2.5+0xb67410>
    ed88:	e8 67 56 ff ff       	call   43f4 <__sprintf_chk@plt+0x30a4>
    ed8d:	b8 00 00 00 00       	mov    eax,0x0
    ed92:	48 83 c4 08          	add    rsp,0x8
    ed96:	5b                   	pop    rbx
    ed97:	5d                   	pop    rbp
    ed98:	c3                   	ret    
    ed99:	48 8d 3d dc 44 00 00 	lea    rdi,[rip+0x44dc]        # 1327c <__sprintf_chk@plt+0x11f2c>
    eda0:	b8 00 00 00 00       	mov    eax,0x0
    eda5:	e8 f6 18 00 00       	call   106a0 <__sprintf_chk@plt+0xf350>
    edaa:	b8 01 00 00 00       	mov    eax,0x1
    edaf:	eb e1                	jmp    ed92 <__sprintf_chk@plt+0xda42>
    edb1:	f3 0f 1e fa          	endbr64 
    edb5:	48 83 ec 08          	sub    rsp,0x8
    edb9:	8b 05 41 f2 b2 00    	mov    eax,DWORD PTR [rip+0xb2f241]        # b3e000 <stdin@@GLIBC_2.2.5+0xb26fd0>
    edbf:	48 8d 14 40          	lea    rdx,[rax+rax*2]
    edc3:	48 c1 e2 04          	shl    rdx,0x4
    edc7:	be 00 00 00 00       	mov    esi,0x0
    edcc:	48 8b 3d 15 b4 b7 00 	mov    rdi,QWORD PTR [rip+0xb7b415]        # b8a1e8 <stdin@@GLIBC_2.2.5+0xb731b8>
    edd3:	e8 88 24 ff ff       	call   1260 <memset@plt>
    edd8:	48 83 c4 08          	add    rsp,0x8
    eddc:	c3                   	ret    
    eddd:	f3 0f 1e fa          	endbr64 
    ede1:	8b 05 f9 b3 b7 00    	mov    eax,DWORD PTR [rip+0xb7b3f9]        # b8a1e0 <stdin@@GLIBC_2.2.5+0xb731b0>
    ede7:	ff c0                	inc    eax
    ede9:	83 f8 03             	cmp    eax,0x3
    edec:	ba 00 00 00 00       	mov    edx,0x0
    edf1:	0f 47 c2             	cmova  eax,edx
    edf4:	89 05 e6 b3 b7 00    	mov    DWORD PTR [rip+0xb7b3e6],eax        # b8a1e0 <stdin@@GLIBC_2.2.5+0xb731b0>
    edfa:	c3                   	ret    
    edfb:	f3 0f 1e fa          	endbr64 
    edff:	41 56                	push   r14
    ee01:	41 55                	push   r13
    ee03:	41 54                	push   r12
    ee05:	55                   	push   rbp
    ee06:	53                   	push   rbx
    ee07:	49 89 fd             	mov    r13,rdi
    ee0a:	c7 05 cc b3 b7 00 00 	mov    DWORD PTR [rip+0xb7b3cc],0x0        # b8a1e0 <stdin@@GLIBC_2.2.5+0xb731b0>
    ee11:	00 00 00 
    ee14:	bf a9 7b 00 00       	mov    edi,0x7ba9
    ee19:	e8 e6 2e 00 00       	call   11d04 <__sprintf_chk@plt+0x109b4>
    ee1e:	48 8d 2d db b5 b7 00 	lea    rbp,[rip+0xb7b5db]        # b8a400 <stdin@@GLIBC_2.2.5+0xb733d0>
    ee25:	4c 8d a5 00 1c 00 00 	lea    r12,[rbp+0x1c00]
    ee2c:	48 8d 9d 00 fe ff ff 	lea    rbx,[rbp-0x200]
    ee33:	e8 60 2e 00 00       	call   11c98 <__sprintf_chk@plt+0x10948>
    ee38:	49 89 c6             	mov    r14,rax
    ee3b:	49 c1 e6 20          	shl    r14,0x20
    ee3f:	e8 54 2e 00 00       	call   11c98 <__sprintf_chk@plt+0x10948>
    ee44:	89 c0                	mov    eax,eax
    ee46:	4c 01 f0             	add    rax,r14
    ee49:	48 89 03             	mov    QWORD PTR [rbx],rax
    ee4c:	48 83 c3 08          	add    rbx,0x8
    ee50:	48 39 eb             	cmp    rbx,rbp
    ee53:	75 de                	jne    ee33 <__sprintf_chk@plt+0xdae3>
    ee55:	48 81 c5 00 02 00 00 	add    rbp,0x200
    ee5c:	4c 39 e5             	cmp    rbp,r12
    ee5f:	75 cb                	jne    ee2c <__sprintf_chk@plt+0xdadc>
    ee61:	48 b8 ef be ad de ef 	movabs rax,0xdeadbeefdeadbeef
    ee68:	be ad de 
    ee6b:	49 89 85 e0 01 00 00 	mov    QWORD PTR [r13+0x1e0],rax
    ee72:	48 b8 00 ee ff c0 00 	movabs rax,0xc0ffee00c0ffee00
    ee79:	ee ff c0 
    ee7c:	49 89 85 e8 01 00 00 	mov    QWORD PTR [r13+0x1e8],rax
    ee83:	5b                   	pop    rbx
    ee84:	5d                   	pop    rbp
    ee85:	41 5c                	pop    r12
    ee87:	41 5d                	pop    r13
    ee89:	41 5e                	pop    r14
    ee8b:	c3                   	ret    
    ee8c:	f3 0f 1e fa          	endbr64 
    ee90:	48 b8 ef be ad de ef 	movabs rax,0xdeadbeefdeadbeef
    ee97:	be ad de 
    ee9a:	48 89 87 e0 01 00 00 	mov    QWORD PTR [rdi+0x1e0],rax
    eea1:	48 b8 00 ee ff c0 00 	movabs rax,0xc0ffee00c0ffee00
    eea8:	ee ff c0 
    eeab:	48 89 87 e8 01 00 00 	mov    QWORD PTR [rdi+0x1e8],rax
    eeb2:	b8 00 00 00 00       	mov    eax,0x0
    eeb7:	4c 8d 15 42 b3 b7 00 	lea    r10,[rip+0xb7b342]        # b8a200 <stdin@@GLIBC_2.2.5+0xb731d0>
    eebe:	eb 09                	jmp    eec9 <__sprintf_chk@plt+0xdb79>
    eec0:	48 ff c0             	inc    rax
    eec3:	48 83 f8 40          	cmp    rax,0x40
    eec7:	74 41                	je     ef0a <__sprintf_chk@plt+0xdbba>
    eec9:	8b 54 87 04          	mov    edx,DWORD PTR [rdi+rax*4+0x4]
    eecd:	8d 4a 01             	lea    ecx,[rdx+0x1]
    eed0:	d1 f9                	sar    ecx,1
    eed2:	83 f9 0d             	cmp    ecx,0xd
    eed5:	74 e9                	je     eec0 <__sprintf_chk@plt+0xdb70>
    eed7:	48 63 f0             	movsxd rsi,eax
    eeda:	4c 63 c2             	movsxd r8,edx
    eedd:	49 c1 e0 06          	shl    r8,0x6
    eee1:	4c 01 c6             	add    rsi,r8
    eee4:	49 8b 34 f2          	mov    rsi,QWORD PTR [r10+rsi*8]
    eee8:	48 31 b7 e0 01 00 00 	xor    QWORD PTR [rdi+0x1e0],rsi
    eeef:	83 f9 01             	cmp    ecx,0x1
    eef2:	75 cc                	jne    eec0 <__sprintf_chk@plt+0xdb70>
    eef4:	4c 63 c8             	movsxd r9,eax
    eef7:	4c 89 c2             	mov    rdx,r8
    eefa:	4c 01 ca             	add    rdx,r9
    eefd:	49 8b 14 d2          	mov    rdx,QWORD PTR [r10+rdx*8]
    ef01:	48 31 97 e8 01 00 00 	xor    QWORD PTR [rdi+0x1e8],rdx
    ef08:	eb b6                	jmp    eec0 <__sprintf_chk@plt+0xdb70>
    ef0a:	c3                   	ret    
    ef0b:	f3 0f 1e fa          	endbr64 
    ef0f:	41 57                	push   r15
    ef11:	41 56                	push   r14
    ef13:	41 55                	push   r13
    ef15:	41 54                	push   r12
    ef17:	55                   	push   rbp
    ef18:	53                   	push   rbx
    ef19:	41 89 d4             	mov    r12d,edx
    ef1c:	89 4c 24 fc          	mov    DWORD PTR [rsp-0x4],ecx
    ef20:	83 bf cc 01 00 00 00 	cmp    DWORD PTR [rdi+0x1cc],0x0
    ef27:	75 48                	jne    ef71 <__sprintf_chk@plt+0xdc21>
    ef29:	48 8b 87 e0 01 00 00 	mov    rax,QWORD PTR [rdi+0x1e0]
    ef30:	48 8d 48 01          	lea    rcx,[rax+0x1]
    ef34:	89 c8                	mov    eax,ecx
    ef36:	ba 00 00 00 00       	mov    edx,0x0
    ef3b:	f7 35 bf f0 b2 00    	div    DWORD PTR [rip+0xb2f0bf]        # b3e000 <stdin@@GLIBC_2.2.5+0xb26fd0>
    ef41:	4c 8d 14 52          	lea    r10,[rdx+rdx*2]
    ef45:	49 c1 e2 04          	shl    r10,0x4
    ef49:	4c 03 15 98 b2 b7 00 	add    r10,QWORD PTR [rip+0xb7b298]        # b8a1e8 <stdin@@GLIBC_2.2.5+0xb731b8>
    ef50:	48 89 c8             	mov    rax,rcx
    ef53:	48 c1 e8 20          	shr    rax,0x20
    ef57:	44 8b 35 82 b2 b7 00 	mov    r14d,DWORD PTR [rip+0xb7b282]        # b8a1e0 <stdin@@GLIBC_2.2.5+0xb731b0>
    ef5e:	4c 89 d3             	mov    rbx,r10
    ef61:	41 bf ff ff 00 00    	mov    r15d,0xffff
    ef67:	b9 00 00 00 00       	mov    ecx,0x0
    ef6c:	e9 fe 00 00 00       	jmp    f06f <__sprintf_chk@plt+0xdd1f>
    ef71:	48 8b 8f e0 01 00 00 	mov    rcx,QWORD PTR [rdi+0x1e0]
    ef78:	eb ba                	jmp    ef34 <__sprintf_chk@plt+0xdbe4>
    ef7a:	ff 87 0c 11 00 00    	inc    DWORD PTR [rdi+0x110c]
    ef80:	89 cd                	mov    ebp,ecx
    ef82:	48 63 d5             	movsxd rdx,ebp
    ef85:	48 8d 14 52          	lea    rdx,[rdx+rdx*2]
    ef89:	49 8d 14 92          	lea    rdx,[r10+rdx*4]
    ef8d:	8b 0a                	mov    ecx,DWORD PTR [rdx]
    ef8f:	48 39 c1             	cmp    rcx,rax
    ef92:	0f 84 3d 01 00 00    	je     f0d5 <__sprintf_chk@plt+0xdd85>
    ef98:	44 39 e6             	cmp    esi,r12d
    ef9b:	0f 8f 47 01 00 00    	jg     f0e8 <__sprintf_chk@plt+0xdd98>
    efa1:	48 63 cd             	movsxd rcx,ebp
    efa4:	48 8d 0c 49          	lea    rcx,[rcx+rcx*2]
    efa8:	4d 8d 1c 8a          	lea    r11,[r10+rcx*4]
    efac:	41 0f b6 4b 09       	movzx  ecx,BYTE PTR [r11+0x9]
    efb1:	83 e1 f9             	and    ecx,0xfffffff9
    efb4:	83 c9 02             	or     ecx,0x2
    efb7:	41 88 4b 09          	mov    BYTE PTR [r11+0x9],cl
    efbb:	81 fe 0c 7b 00 00    	cmp    esi,0x7b0c
    efc1:	0f 8e 58 01 00 00    	jle    f11f <__sprintf_chk@plt+0xddcf>
    efc7:	8b 8f d8 01 00 00    	mov    ecx,DWORD PTR [rdi+0x1d8]
    efcd:	8d 74 0e ff          	lea    esi,[rsi+rcx*1-0x1]
    efd1:	81 fe 00 83 ff ff    	cmp    esi,0xffff8300
    efd7:	b9 00 83 ff ff       	mov    ecx,0xffff8300
    efdc:	0f 4c f1             	cmovl  esi,ecx
    efdf:	89 02                	mov    DWORD PTR [rdx],eax
    efe1:	66 44 89 42 06       	mov    WORD PTR [rdx+0x6],r8w
    efe6:	0f b6 44 24 48       	movzx  eax,BYTE PTR [rsp+0x48]
    efeb:	88 42 08             	mov    BYTE PTR [rdx+0x8],al
    efee:	81 fe 00 7d 00 00    	cmp    esi,0x7d00
    eff4:	b8 00 7d 00 00       	mov    eax,0x7d00
    eff9:	0f 4f f0             	cmovg  esi,eax
    effc:	66 89 72 04          	mov    WORD PTR [rdx+0x4],si
    f000:	48 63 ed             	movsxd rbp,ebp
    f003:	48 8d 74 2d 00       	lea    rsi,[rbp+rbp*1+0x0]
    f008:	48 8d 04 2e          	lea    rax,[rsi+rbp*1]
    f00c:	41 83 e1 01          	and    r9d,0x1
    f010:	41 0f b6 44 82 09    	movzx  eax,BYTE PTR [r10+rax*4+0x9]
    f016:	8b 15 c4 b1 b7 00    	mov    edx,DWORD PTR [rip+0xb7b1c4]        # b8a1e0 <stdin@@GLIBC_2.2.5+0xb731b0>
    f01c:	83 e2 03             	and    edx,0x3
    f01f:	c1 e2 05             	shl    edx,0x5
    f022:	83 e0 9e             	and    eax,0xffffff9e
    f025:	44 09 c8             	or     eax,r9d
    f028:	8b 4c 24 38          	mov    ecx,DWORD PTR [rsp+0x38]
    f02c:	83 e1 01             	and    ecx,0x1
    f02f:	c1 e1 03             	shl    ecx,0x3
    f032:	09 d0                	or     eax,edx
    f034:	48 01 ee             	add    rsi,rbp
    f037:	8b 54 24 40          	mov    edx,DWORD PTR [rsp+0x40]
    f03b:	83 e2 01             	and    edx,0x1
    f03e:	c1 e2 04             	shl    edx,0x4
    f041:	83 e0 e7             	and    eax,0xffffffe7
    f044:	09 c8                	or     eax,ecx
    f046:	09 d0                	or     eax,edx
    f048:	41 88 44 b2 09       	mov    BYTE PTR [r10+rsi*4+0x9],al
    f04d:	5b                   	pop    rbx
    f04e:	5d                   	pop    rbp
    f04f:	41 5c                	pop    r12
    f051:	41 5d                	pop    r13
    f053:	41 5e                	pop    r14
    f055:	41 5f                	pop    r15
    f057:	c3                   	ret    
    f058:	ff 87 10 11 00 00    	inc    DWORD PTR [rdi+0x1110]
    f05e:	eb 3b                	jmp    f09b <__sprintf_chk@plt+0xdd4b>
    f060:	ff c1                	inc    ecx
    f062:	48 83 c3 0c          	add    rbx,0xc
    f066:	83 f9 04             	cmp    ecx,0x4
    f069:	0f 84 13 ff ff ff    	je     ef82 <__sprintf_chk@plt+0xdc32>
    f06f:	49 89 db             	mov    r11,rbx
    f072:	8b 13                	mov    edx,DWORD PTR [rbx]
    f074:	48 39 c2             	cmp    rdx,rax
    f077:	0f 84 fd fe ff ff    	je     ef7a <__sprintf_chk@plt+0xdc2a>
    f07d:	ff 87 0c 11 00 00    	inc    DWORD PTR [rdi+0x110c]
    f083:	48 63 d1             	movsxd rdx,ecx
    f086:	48 8d 14 52          	lea    rdx,[rdx+rdx*2]
    f08a:	41 0f b6 54 92 09    	movzx  edx,BYTE PTR [r10+rdx*4+0x9]
    f090:	c0 ea 05             	shr    dl,0x5
    f093:	83 e2 03             	and    edx,0x3
    f096:	44 39 f2             	cmp    edx,r14d
    f099:	74 bd                	je     f058 <__sprintf_chk@plt+0xdd08>
    f09b:	45 0f b6 5b 08       	movzx  r11d,BYTE PTR [r11+0x8]
    f0a0:	48 63 d1             	movsxd rdx,ecx
    f0a3:	48 8d 14 52          	lea    rdx,[rdx+rdx*2]
    f0a7:	41 0f b6 54 92 09    	movzx  edx,BYTE PTR [r10+rdx*4+0x9]
    f0ad:	c0 ea 05             	shr    dl,0x5
    f0b0:	83 e2 03             	and    edx,0x3
    f0b3:	44 29 f2             	sub    edx,r14d
    f0b6:	41 89 d5             	mov    r13d,edx
    f0b9:	41 c1 fd 1f          	sar    r13d,0x1f
    f0bd:	44 31 ea             	xor    edx,r13d
    f0c0:	44 29 ea             	sub    edx,r13d
    f0c3:	c1 e2 0a             	shl    edx,0xa
    f0c6:	41 29 d3             	sub    r11d,edx
    f0c9:	45 39 fb             	cmp    r11d,r15d
    f0cc:	7d 92                	jge    f060 <__sprintf_chk@plt+0xdd10>
    f0ce:	89 cd                	mov    ebp,ecx
    f0d0:	45 89 df             	mov    r15d,r11d
    f0d3:	eb 8b                	jmp    f060 <__sprintf_chk@plt+0xdd10>
    f0d5:	0f b6 4a 08          	movzx  ecx,BYTE PTR [rdx+0x8]
    f0d9:	3b 4c 24 48          	cmp    ecx,DWORD PTR [rsp+0x48]
    f0dd:	0f 8e b5 fe ff ff    	jle    ef98 <__sprintf_chk@plt+0xdc48>
    f0e3:	e9 65 ff ff ff       	jmp    f04d <__sprintf_chk@plt+0xdcfd>
    f0e8:	3b 74 24 fc          	cmp    esi,DWORD PTR [rsp-0x4]
    f0ec:	7c 1f                	jl     f10d <__sprintf_chk@plt+0xddbd>
    f0ee:	48 63 cd             	movsxd rcx,ebp
    f0f1:	48 8d 0c 49          	lea    rcx,[rcx+rcx*2]
    f0f5:	4d 8d 1c 8a          	lea    r11,[r10+rcx*4]
    f0f9:	41 0f b6 4b 09       	movzx  ecx,BYTE PTR [r11+0x9]
    f0fe:	83 e1 f9             	and    ecx,0xfffffff9
    f101:	83 c9 04             	or     ecx,0x4
    f104:	41 88 4b 09          	mov    BYTE PTR [r11+0x9],cl
    f108:	e9 ae fe ff ff       	jmp    efbb <__sprintf_chk@plt+0xdc6b>
    f10d:	48 63 cd             	movsxd rcx,ebp
    f110:	48 8d 0c 49          	lea    rcx,[rcx+rcx*2]
    f114:	41 80 4c 8a 09 06    	or     BYTE PTR [r10+rcx*4+0x9],0x6
    f11a:	e9 9c fe ff ff       	jmp    efbb <__sprintf_chk@plt+0xdc6b>
    f11f:	81 fe f4 84 ff ff    	cmp    esi,0xffff84f4
    f125:	0f 8d a6 fe ff ff    	jge    efd1 <__sprintf_chk@plt+0xdc81>
    f12b:	2b b7 d8 01 00 00    	sub    esi,DWORD PTR [rdi+0x1d8]
    f131:	8d 76 01             	lea    esi,[rsi+0x1]
    f134:	e9 98 fe ff ff       	jmp    efd1 <__sprintf_chk@plt+0xdc81>
    f139:	f3 0f 1e fa          	endbr64 
    f13d:	55                   	push   rbp
    f13e:	53                   	push   rbx
    f13f:	48 8b 6c 24 18       	mov    rbp,QWORD PTR [rsp+0x18]
    f144:	c7 45 00 01 00 00 00 	mov    DWORD PTR [rbp+0x0],0x1
    f14b:	ff 87 04 11 00 00    	inc    DWORD PTR [rdi+0x1104]
    f151:	83 bf cc 01 00 00 00 	cmp    DWORD PTR [rdi+0x1cc],0x0
    f158:	75 49                	jne    f1a3 <__sprintf_chk@plt+0xde53>
    f15a:	48 8b 87 e0 01 00 00 	mov    rax,QWORD PTR [rdi+0x1e0]
    f161:	4c 8d 50 01          	lea    r10,[rax+0x1]
    f165:	44 89 d0             	mov    eax,r10d
    f168:	ba 00 00 00 00       	mov    edx,0x0
    f16d:	f7 35 8d ee b2 00    	div    DWORD PTR [rip+0xb2ee8d]        # b3e000 <stdin@@GLIBC_2.2.5+0xb26fd0>
    f173:	4c 8d 1c 52          	lea    r11,[rdx+rdx*2]
    f177:	49 c1 e3 04          	shl    r11,0x4
    f17b:	4c 03 1d 66 b0 b7 00 	add    r11,QWORD PTR [rip+0xb7b066]        # b8a1e8 <stdin@@GLIBC_2.2.5+0xb731b8>
    f182:	49 c1 ea 20          	shr    r10,0x20
    f186:	4c 89 da             	mov    rdx,r11
    f189:	b8 00 00 00 00       	mov    eax,0x0
    f18e:	8b 1a                	mov    ebx,DWORD PTR [rdx]
    f190:	4c 39 d3             	cmp    rbx,r10
    f193:	74 17                	je     f1ac <__sprintf_chk@plt+0xde5c>
    f195:	ff c0                	inc    eax
    f197:	48 83 c2 0c          	add    rdx,0xc
    f19b:	83 f8 04             	cmp    eax,0x4
    f19e:	75 ee                	jne    f18e <__sprintf_chk@plt+0xde3e>
    f1a0:	5b                   	pop    rbx
    f1a1:	5d                   	pop    rbp
    f1a2:	c3                   	ret    
    f1a3:	4c 8b 97 e0 01 00 00 	mov    r10,QWORD PTR [rdi+0x1e0]
    f1aa:	eb b9                	jmp    f165 <__sprintf_chk@plt+0xde15>
    f1ac:	ff 87 08 11 00 00    	inc    DWORD PTR [rdi+0x1108]
    f1b2:	44 8b 15 27 b0 b7 00 	mov    r10d,DWORD PTR [rip+0xb7b027]        # b8a1e0 <stdin@@GLIBC_2.2.5+0xb731b0>
    f1b9:	48 63 d0             	movsxd rdx,eax
    f1bc:	48 8d 14 52          	lea    rdx,[rdx+rdx*2]
    f1c0:	41 0f b6 54 93 09    	movzx  edx,BYTE PTR [r11+rdx*4+0x9]
    f1c6:	c0 ea 05             	shr    dl,0x5
    f1c9:	83 e2 03             	and    edx,0x3
    f1cc:	44 39 d2             	cmp    edx,r10d
    f1cf:	74 21                	je     f1f2 <__sprintf_chk@plt+0xdea2>
    f1d1:	48 63 d0             	movsxd rdx,eax
    f1d4:	48 8d 14 52          	lea    rdx,[rdx+rdx*2]
    f1d8:	49 8d 1c 93          	lea    rbx,[r11+rdx*4]
    f1dc:	41 83 e2 03          	and    r10d,0x3
    f1e0:	41 c1 e2 05          	shl    r10d,0x5
    f1e4:	0f b6 53 09          	movzx  edx,BYTE PTR [rbx+0x9]
    f1e8:	83 e2 9f             	and    edx,0xffffff9f
    f1eb:	41 09 d2             	or     r10d,edx
    f1ee:	44 88 53 09          	mov    BYTE PTR [rbx+0x9],r10b
    f1f2:	48 63 d0             	movsxd rdx,eax
    f1f5:	48 8d 14 52          	lea    rdx,[rdx+rdx*2]
    f1f9:	41 0f b6 54 93 09    	movzx  edx,BYTE PTR [r11+rdx*4+0x9]
    f1ff:	83 e2 06             	and    edx,0x6
    f202:	80 fa 02             	cmp    dl,0x2
    f205:	0f 84 94 00 00 00    	je     f29f <__sprintf_chk@plt+0xdf4f>
    f20b:	48 63 d0             	movsxd rdx,eax
    f20e:	48 8d 14 52          	lea    rdx,[rdx+rdx*2]
    f212:	49 8d 14 93          	lea    rdx,[r11+rdx*4]
    f216:	0f b6 4a 08          	movzx  ecx,BYTE PTR [rdx+0x8]
    f21a:	3b 4c 24 30          	cmp    ecx,DWORD PTR [rsp+0x30]
    f21e:	0f 8c d0 00 00 00    	jl     f2f4 <__sprintf_chk@plt+0xdfa4>
    f224:	0f bf 4a 04          	movsx  ecx,WORD PTR [rdx+0x4]
    f228:	89 0e                	mov    DWORD PTR [rsi],ecx
    f22a:	81 f9 0c 7b 00 00    	cmp    ecx,0x7b0c
    f230:	0f 8e a1 00 00 00    	jle    f2d7 <__sprintf_chk@plt+0xdf87>
    f236:	2b 8f d8 01 00 00    	sub    ecx,DWORD PTR [rdi+0x1d8]
    f23c:	8d 49 01             	lea    ecx,[rcx+0x1]
    f23f:	89 0e                	mov    DWORD PTR [rsi],ecx
    f241:	0f b7 52 06          	movzx  edx,WORD PTR [rdx+0x6]
    f245:	41 89 10             	mov    DWORD PTR [r8],edx
    f248:	48 98                	cdqe   
    f24a:	48 8d 14 00          	lea    rdx,[rax+rax*1]
    f24e:	48 8d 0c 02          	lea    rcx,[rdx+rax*1]
    f252:	41 0f b6 4c 8b 09    	movzx  ecx,BYTE PTR [r11+rcx*4+0x9]
    f258:	83 e1 01             	and    ecx,0x1
    f25b:	41 89 09             	mov    DWORD PTR [r9],ecx
    f25e:	48 8d 0c 02          	lea    rcx,[rdx+rax*1]
    f262:	41 0f b6 4c 8b 09    	movzx  ecx,BYTE PTR [r11+rcx*4+0x9]
    f268:	c0 e9 03             	shr    cl,0x3
    f26b:	83 e1 01             	and    ecx,0x1
    f26e:	48 8b 74 24 20       	mov    rsi,QWORD PTR [rsp+0x20]
    f273:	89 0e                	mov    DWORD PTR [rsi],ecx
    f275:	48 8d 0c 02          	lea    rcx,[rdx+rax*1]
    f279:	41 0f b6 4c 8b 09    	movzx  ecx,BYTE PTR [r11+rcx*4+0x9]
    f27f:	c0 e9 04             	shr    cl,0x4
    f282:	83 e1 01             	and    ecx,0x1
    f285:	48 8b 74 24 28       	mov    rsi,QWORD PTR [rsp+0x28]
    f28a:	89 0e                	mov    DWORD PTR [rsi],ecx
    f28c:	48 01 c2             	add    rdx,rax
    f28f:	41 0f b6 44 93 09    	movzx  eax,BYTE PTR [r11+rdx*4+0x9]
    f295:	d0 e8                	shr    al,1
    f297:	83 e0 03             	and    eax,0x3
    f29a:	e9 01 ff ff ff       	jmp    f1a0 <__sprintf_chk@plt+0xde50>
    f29f:	48 63 d0             	movsxd rdx,eax
    f2a2:	48 8d 14 52          	lea    rdx,[rdx+rdx*2]
    f2a6:	49 8d 14 93          	lea    rdx,[r11+rdx*4]
    f2aa:	8b 5c 24 30          	mov    ebx,DWORD PTR [rsp+0x30]
    f2ae:	83 eb 10             	sub    ebx,0x10
    f2b1:	44 0f b6 52 08       	movzx  r10d,BYTE PTR [rdx+0x8]
    f2b6:	44 39 d3             	cmp    ebx,r10d
    f2b9:	0f 8f 4c ff ff ff    	jg     f20b <__sprintf_chk@plt+0xdebb>
    f2bf:	0f bf 52 04          	movsx  edx,WORD PTR [rdx+0x4]
    f2c3:	39 ca                	cmp    edx,ecx
    f2c5:	0f 8d 40 ff ff ff    	jge    f20b <__sprintf_chk@plt+0xdebb>
    f2cb:	c7 45 00 00 00 00 00 	mov    DWORD PTR [rbp+0x0],0x0
    f2d2:	e9 34 ff ff ff       	jmp    f20b <__sprintf_chk@plt+0xdebb>
    f2d7:	81 f9 f4 84 ff ff    	cmp    ecx,0xffff84f4
    f2dd:	0f 8d 5e ff ff ff    	jge    f241 <__sprintf_chk@plt+0xdef1>
    f2e3:	8b bf d8 01 00 00    	mov    edi,DWORD PTR [rdi+0x1d8]
    f2e9:	8d 4c 39 ff          	lea    ecx,[rcx+rdi*1-0x1]
    f2ed:	89 0e                	mov    DWORD PTR [rsi],ecx
    f2ef:	e9 4d ff ff ff       	jmp    f241 <__sprintf_chk@plt+0xdef1>
    f2f4:	0f b7 4a 06          	movzx  ecx,WORD PTR [rdx+0x6]
    f2f8:	41 89 08             	mov    DWORD PTR [r8],ecx
    f2fb:	48 63 f8             	movsxd rdi,eax
    f2fe:	48 8d 0c 3f          	lea    rcx,[rdi+rdi*1]
    f302:	4c 8d 04 39          	lea    r8,[rcx+rdi*1]
    f306:	47 0f b6 44 83 09    	movzx  r8d,BYTE PTR [r11+r8*4+0x9]
    f30c:	41 83 e0 01          	and    r8d,0x1
    f310:	45 89 01             	mov    DWORD PTR [r9],r8d
    f313:	4c 8d 04 39          	lea    r8,[rcx+rdi*1]
    f317:	47 0f b6 44 83 09    	movzx  r8d,BYTE PTR [r11+r8*4+0x9]
    f31d:	41 c0 e8 03          	shr    r8b,0x3
    f321:	41 83 e0 01          	and    r8d,0x1
    f325:	48 8b 5c 24 20       	mov    rbx,QWORD PTR [rsp+0x20]
    f32a:	44 89 03             	mov    DWORD PTR [rbx],r8d
    f32d:	4c 8d 04 39          	lea    r8,[rcx+rdi*1]
    f331:	47 0f b6 44 83 09    	movzx  r8d,BYTE PTR [r11+r8*4+0x9]
    f337:	41 c0 e8 04          	shr    r8b,0x4
    f33b:	41 83 e0 01          	and    r8d,0x1
    f33f:	48 8b 5c 24 28       	mov    rbx,QWORD PTR [rsp+0x28]
    f344:	44 89 03             	mov    DWORD PTR [rbx],r8d
    f347:	48 01 f9             	add    rcx,rdi
    f34a:	41 0f b6 4c 8b 09    	movzx  ecx,BYTE PTR [r11+rcx*4+0x9]
    f350:	83 e1 06             	and    ecx,0x6
    f353:	80 f9 02             	cmp    cl,0x2
    f356:	74 2a                	je     f382 <__sprintf_chk@plt+0xe032>
    f358:	80 f9 04             	cmp    cl,0x4
    f35b:	74 2d                	je     f38a <__sprintf_chk@plt+0xe03a>
    f35d:	0f bf 4a 04          	movsx  ecx,WORD PTR [rdx+0x4]
    f361:	89 0e                	mov    DWORD PTR [rsi],ecx
    f363:	0f b6 74 24 30       	movzx  esi,BYTE PTR [rsp+0x30]
    f368:	40 88 72 08          	mov    BYTE PTR [rdx+0x8],sil
    f36c:	48 98                	cdqe   
    f36e:	48 8d 04 40          	lea    rax,[rax+rax*2]
    f372:	41 80 64 83 09 f9    	and    BYTE PTR [r11+rax*4+0x9],0xf9
    f378:	b8 00 00 00 00       	mov    eax,0x0
    f37d:	e9 1e fe ff ff       	jmp    f1a0 <__sprintf_chk@plt+0xde50>
    f382:	c7 06 c0 bd f0 ff    	mov    DWORD PTR [rsi],0xfff0bdc0
    f388:	eb d9                	jmp    f363 <__sprintf_chk@plt+0xe013>
    f38a:	c7 06 40 42 0f 00    	mov    DWORD PTR [rsi],0xf4240
    f390:	eb d1                	jmp    f363 <__sprintf_chk@plt+0xe013>
    f392:	f3 0f 1e fa          	endbr64 
    f396:	55                   	push   rbp
    f397:	53                   	push   rbx
    f398:	48 83 ec 08          	sub    rsp,0x8
    f39c:	8b 2d 5e ec b2 00    	mov    ebp,DWORD PTR [rip+0xb2ec5e]        # b3e000 <stdin@@GLIBC_2.2.5+0xb26fd0>
    f3a2:	89 e8                	mov    eax,ebp
    f3a4:	48 8d 1c 40          	lea    rbx,[rax+rax*2]
    f3a8:	48 c1 e3 04          	shl    rbx,0x4
    f3ac:	48 89 df             	mov    rdi,rbx
    f3af:	e8 ec 1e ff ff       	call   12a0 <malloc@plt>
    f3b4:	48 89 05 2d ae b7 00 	mov    QWORD PTR [rip+0xb7ae2d],rax        # b8a1e8 <stdin@@GLIBC_2.2.5+0xb731b8>
    f3bb:	48 85 c0             	test   rax,rax
    f3be:	74 1d                	je     f3dd <__sprintf_chk@plt+0xe08d>
    f3c0:	48 89 da             	mov    rdx,rbx
    f3c3:	89 ee                	mov    esi,ebp
    f3c5:	48 8d 3d fc 3e 00 00 	lea    rdi,[rip+0x3efc]        # 132c8 <__sprintf_chk@plt+0x11f78>
    f3cc:	b8 00 00 00 00       	mov    eax,0x0
    f3d1:	e8 ca 12 00 00       	call   106a0 <__sprintf_chk@plt+0xf350>
    f3d6:	48 83 c4 08          	add    rsp,0x8
    f3da:	5b                   	pop    rbx
    f3db:	5d                   	pop    rbp
    f3dc:	c3                   	ret    
    f3dd:	48 8d 3d bc 3e 00 00 	lea    rdi,[rip+0x3ebc]        # 132a0 <__sprintf_chk@plt+0x11f50>
    f3e4:	e8 b7 12 00 00       	call   106a0 <__sprintf_chk@plt+0xf350>
    f3e9:	bf 01 00 00 00       	mov    edi,0x1
    f3ee:	e8 1d 1f ff ff       	call   1310 <exit@plt>
    f3f3:	f3 0f 1e fa          	endbr64 
    f3f7:	48 83 ec 08          	sub    rsp,0x8
    f3fb:	48 8b 3d e6 ad b7 00 	mov    rdi,QWORD PTR [rip+0xb7ade6]        # b8a1e8 <stdin@@GLIBC_2.2.5+0xb731b8>
    f402:	e8 d9 1d ff ff       	call   11e0 <free@plt>
    f407:	48 c7 05 d6 ad b7 00 	mov    QWORD PTR [rip+0xb7add6],0x0        # b8a1e8 <stdin@@GLIBC_2.2.5+0xb731b8>
    f40e:	00 00 00 00 
    f412:	48 83 c4 08          	add    rsp,0x8
    f416:	c3                   	ret    
    f417:	f3 0f 1e fa          	endbr64 
    f41b:	b8 3c 00 00 00       	mov    eax,0x3c
    f420:	81 ff 5f 09 00 00    	cmp    edi,0x95f
    f426:	7f 61                	jg     f489 <__sprintf_chk@plt+0xe139>
    f428:	8d 97 68 f7 ff ff    	lea    edx,[rdi-0x898]
    f42e:	b8 0a 00 00 00       	mov    eax,0xa
    f433:	81 fa c7 00 00 00    	cmp    edx,0xc7
    f439:	76 4e                	jbe    f489 <__sprintf_chk@plt+0xe139>
    f43b:	8d 97 30 f8 ff ff    	lea    edx,[rdi-0x7d0]
    f441:	b8 08 00 00 00       	mov    eax,0x8
    f446:	81 fa c7 00 00 00    	cmp    edx,0xc7
    f44c:	76 3b                	jbe    f489 <__sprintf_chk@plt+0xe139>
    f44e:	8d 97 f8 f8 ff ff    	lea    edx,[rdi-0x708]
    f454:	b8 06 00 00 00       	mov    eax,0x6
    f459:	81 fa c7 00 00 00    	cmp    edx,0xc7
    f45f:	76 28                	jbe    f489 <__sprintf_chk@plt+0xe139>
    f461:	8d 97 88 fa ff ff    	lea    edx,[rdi-0x578]
    f467:	b8 04 00 00 00       	mov    eax,0x4
    f46c:	81 fa 8f 01 00 00    	cmp    edx,0x18f
    f472:	76 15                	jbe    f489 <__sprintf_chk@plt+0xe139>
    f474:	81 ef e8 03 00 00    	sub    edi,0x3e8
    f47a:	81 ff 90 01 00 00    	cmp    edi,0x190
    f480:	0f 92 c0             	setb   al
    f483:	0f b6 c0             	movzx  eax,al
    f486:	83 c0 02             	add    eax,0x2
    f489:	c3                   	ret    
    f48a:	f3 0f 1e fa          	endbr64 
    f48e:	b8 64 00 00 00       	mov    eax,0x64
    f493:	81 ff 5f 09 00 00    	cmp    edi,0x95f
    f499:	7f 5d                	jg     f4f8 <__sprintf_chk@plt+0xe1a8>
    f49b:	8d 97 68 f7 ff ff    	lea    edx,[rdi-0x898]
    f4a1:	b8 5a 00 00 00       	mov    eax,0x5a
    f4a6:	81 fa c7 00 00 00    	cmp    edx,0xc7
    f4ac:	76 4a                	jbe    f4f8 <__sprintf_chk@plt+0xe1a8>
    f4ae:	8d 97 30 f8 ff ff    	lea    edx,[rdi-0x7d0]
    f4b4:	b8 50 00 00 00       	mov    eax,0x50
    f4b9:	81 fa c7 00 00 00    	cmp    edx,0xc7
    f4bf:	76 37                	jbe    f4f8 <__sprintf_chk@plt+0xe1a8>
    f4c1:	8d 97 c0 f9 ff ff    	lea    edx,[rdi-0x640]
    f4c7:	b8 46 00 00 00       	mov    eax,0x46
    f4cc:	81 fa 8f 01 00 00    	cmp    edx,0x18f
    f4d2:	76 24                	jbe    f4f8 <__sprintf_chk@plt+0xe1a8>
    f4d4:	8d 97 50 fb ff ff    	lea    edx,[rdi-0x4b0]
    f4da:	b8 3c 00 00 00       	mov    eax,0x3c
    f4df:	81 fa 8f 01 00 00    	cmp    edx,0x18f
    f4e5:	76 11                	jbe    f4f8 <__sprintf_chk@plt+0xe1a8>
    f4e7:	81 ef 20 03 00 00    	sub    edi,0x320
    f4ed:	81 ff 90 01 00 00    	cmp    edi,0x190
    f4f3:	19 c0                	sbb    eax,eax
    f4f5:	83 e0 32             	and    eax,0x32
    f4f8:	c3                   	ret    
    f4f9:	f3 0f 1e fa          	endbr64 
    f4fd:	89 fa                	mov    edx,edi
    f4ff:	c1 fa 0c             	sar    edx,0xc
    f502:	89 f8                	mov    eax,edi
    f504:	c1 e8 04             	shr    eax,0x4
    f507:	25 00 70 00 00       	and    eax,0x7000
    f50c:	89 f9                	mov    ecx,edi
    f50e:	81 e1 c0 0f 00 00    	and    ecx,0xfc0
    f514:	09 c8                	or     eax,ecx
    f516:	83 e7 3f             	and    edi,0x3f
    f519:	09 f8                	or     eax,edi
    f51b:	83 e2 0f             	and    edx,0xf
    f51e:	74 09                	je     f529 <__sprintf_chk@plt+0xe1d9>
    f520:	ff c2                	inc    edx
    f522:	d1 ea                	shr    edx,1
    f524:	c1 e2 0c             	shl    edx,0xc
    f527:	09 d0                	or     eax,edx
    f529:	c3                   	ret    
    f52a:	f3 0f 1e fa          	endbr64 
    f52e:	d1 ff                	sar    edi,1
    f530:	74 0c                	je     f53e <__sprintf_chk@plt+0xe1ee>
    f532:	b8 00 00 00 00       	mov    eax,0x0
    f537:	ff c0                	inc    eax
    f539:	d1 ff                	sar    edi,1
    f53b:	75 fa                	jne    f537 <__sprintf_chk@plt+0xe1e7>
    f53d:	c3                   	ret    
    f53e:	89 f8                	mov    eax,edi
    f540:	c3                   	ret    
    f541:	f3 0f 1e fa          	endbr64 
    f545:	c3                   	ret    
    f546:	f3 0f 1e fa          	endbr64 
    f54a:	c5 e0 57 db          	vxorps xmm3,xmm3,xmm3
    f54e:	8b 0d 04 ef b6 00    	mov    ecx,DWORD PTR [rip+0xb6ef04]        # b7e458 <stdin@@GLIBC_2.2.5+0xb67428>
    f554:	85 c9                	test   ecx,ecx
    f556:	75 5f                	jne    f5b7 <__sprintf_chk@plt+0xe267>
    f558:	83 3d a9 ea b2 00 00 	cmp    DWORD PTR [rip+0xb2eaa9],0x0        # b3e008 <stdin@@GLIBC_2.2.5+0xb26fd8>
    f55f:	0f 85 20 01 00 00    	jne    f685 <__sprintf_chk@plt+0xe335>
    f565:	8b 05 f9 ee b6 00    	mov    eax,DWORD PTR [rip+0xb6eef9]        # b7e464 <stdin@@GLIBC_2.2.5+0xb67434>
    f56b:	c5 fb 10 05 9d 43 00 	vmovsd xmm0,QWORD PTR [rip+0x439d]        # 13910 <__sprintf_chk@plt+0x125c0>
    f572:	00 
    f573:	85 c0                	test   eax,eax
    f575:	0f 84 f9 00 00 00    	je     f674 <__sprintf_chk@plt+0xe324>
    f57b:	c5 e3 2a 15 e5 ee b6 	vcvtsi2sd xmm2,xmm3,DWORD PTR [rip+0xb6eee5]        # b7e468 <stdin@@GLIBC_2.2.5+0xb67438>
    f582:	00 
    f583:	c5 eb 5e 05 b5 43 00 	vdivsd xmm0,xmm2,QWORD PTR [rip+0x43b5]        # 13940 <__sprintf_chk@plt+0x125f0>
    f58a:	00 
    f58b:	e9 17 01 00 00       	jmp    f6a7 <__sprintf_chk@plt+0xe357>
    f590:	c5 f3 58 c9          	vaddsd xmm1,xmm1,xmm1
    f594:	c5 f3 5e 0d 84 43 00 	vdivsd xmm1,xmm1,QWORD PTR [rip+0x4384]        # 13920 <__sprintf_chk@plt+0x125d0>
    f59b:	00 
    f59c:	c5 eb 5c d1          	vsubsd xmm2,xmm2,xmm1
    f5a0:	c5 f9 2f 15 c8 3c 00 	vcomisd xmm2,QWORD PTR [rip+0x3cc8]        # 13270 <__sprintf_chk@plt+0x11f20>
    f5a7:	00 
    f5a8:	0f 86 d2 00 00 00    	jbe    f680 <__sprintf_chk@plt+0xe330>
    f5ae:	c5 fb 58 c1          	vaddsd xmm0,xmm0,xmm1
    f5b2:	e9 c9 00 00 00       	jmp    f680 <__sprintf_chk@plt+0xe330>
    f5b7:	c5 e3 2a c1          	vcvtsi2sd xmm0,xmm3,ecx
    f5bb:	c5 fb 58 0d 65 43 00 	vaddsd xmm1,xmm0,QWORD PTR [rip+0x4365]        # 13928 <__sprintf_chk@plt+0x125d8>
    f5c2:	00 
    f5c3:	c5 f3 c2 15 44 43 00 	vcmpgtsd xmm2,xmm1,QWORD PTR [rip+0x4344]        # 13910 <__sprintf_chk@plt+0x125c0>
    f5ca:	00 0e 
    f5cc:	c5 fb 10 05 2c 43 00 	vmovsd xmm0,QWORD PTR [rip+0x432c]        # 13900 <__sprintf_chk@plt+0x125b0>
    f5d3:	00 
    f5d4:	c4 e3 71 4b c8 20    	vblendvpd xmm1,xmm1,xmm0,xmm2
    f5da:	83 3d 1b ea b2 00 00 	cmp    DWORD PTR [rip+0xb2ea1b],0x0        # b3dffc <stdin@@GLIBC_2.2.5+0xb26fcc>
    f5e1:	75 59                	jne    f63c <__sprintf_chk@plt+0xe2ec>
    f5e3:	c5 e3 2a 05 7d ee b6 	vcvtsi2sd xmm0,xmm3,DWORD PTR [rip+0xb6ee7d]        # b7e468 <stdin@@GLIBC_2.2.5+0xb67438>
    f5ea:	00 
    f5eb:	c5 fb 5c 15 7d 3c 00 	vsubsd xmm2,xmm0,QWORD PTR [rip+0x3c7d]        # 13270 <__sprintf_chk@plt+0x11f20>
    f5f2:	00 
    f5f3:	8b 15 83 ee b6 00    	mov    edx,DWORD PTR [rip+0xb6ee83]        # b7e47c <stdin@@GLIBC_2.2.5+0xb6744c>
    f5f9:	89 d0                	mov    eax,edx
    f5fb:	c1 e8 1f             	shr    eax,0x1f
    f5fe:	01 d0                	add    eax,edx
    f600:	d1 f8                	sar    eax,1
    f602:	99                   	cdq    
    f603:	f7 f9                	idiv   ecx
    f605:	c5 e3 2a c2          	vcvtsi2sd xmm0,xmm3,edx
    f609:	c5 f3 5c c0          	vsubsd xmm0,xmm1,xmm0
    f60d:	c5 eb 5e c0          	vdivsd xmm0,xmm2,xmm0
    f611:	83 3d f0 e9 b2 00 00 	cmp    DWORD PTR [rip+0xb2e9f0],0x0        # b3e008 <stdin@@GLIBC_2.2.5+0xb26fd8>
    f618:	74 38                	je     f652 <__sprintf_chk@plt+0xe302>
    f61a:	c5 fb 59 15 46 3c 00 	vmulsd xmm2,xmm0,QWORD PTR [rip+0x3c46]        # 13268 <__sprintf_chk@plt+0x11f18>
    f621:	00 
    f622:	8b 05 40 ee b6 00    	mov    eax,DWORD PTR [rip+0xb6ee40]        # b7e468 <stdin@@GLIBC_2.2.5+0xb67438>
    f628:	83 e8 64             	sub    eax,0x64
    f62b:	c5 e3 2a c8          	vcvtsi2sd xmm1,xmm3,eax
    f62f:	c5 eb c2 c9 05       	vcmpnltsd xmm1,xmm2,xmm1
    f634:	c4 e3 69 4b c0 10    	vblendvpd xmm0,xmm2,xmm0,xmm1
    f63a:	eb 44                	jmp    f680 <__sprintf_chk@plt+0xe330>
    f63c:	c5 e3 2a 05 24 ee b6 	vcvtsi2sd xmm0,xmm3,DWORD PTR [rip+0xb6ee24]        # b7e468 <stdin@@GLIBC_2.2.5+0xb67438>
    f643:	00 
    f644:	c5 fb 5c 05 24 3c 00 	vsubsd xmm0,xmm0,QWORD PTR [rip+0x3c24]        # 13270 <__sprintf_chk@plt+0x11f20>
    f64b:	00 
    f64c:	c5 fb 5e c1          	vdivsd xmm0,xmm0,xmm1
    f650:	eb bf                	jmp    f611 <__sprintf_chk@plt+0xe2c1>
    f652:	c5 fb 59 15 d6 42 00 	vmulsd xmm2,xmm0,QWORD PTR [rip+0x42d6]        # 13930 <__sprintf_chk@plt+0x125e0>
    f659:	00 
    f65a:	8b 05 08 ee b6 00    	mov    eax,DWORD PTR [rip+0xb6ee08]        # b7e468 <stdin@@GLIBC_2.2.5+0xb67438>
    f660:	83 e8 64             	sub    eax,0x64
    f663:	c5 e3 2a c8          	vcvtsi2sd xmm1,xmm3,eax
    f667:	c5 eb c2 c9 05       	vcmpnltsd xmm1,xmm2,xmm1
    f66c:	c4 e3 69 4b c0 10    	vblendvpd xmm0,xmm2,xmm0,xmm1
    f672:	eb 0c                	jmp    f680 <__sprintf_chk@plt+0xe330>
    f674:	c5 e3 2a 0d ec ed b6 	vcvtsi2sd xmm1,xmm3,DWORD PTR [rip+0xb6edec]        # b7e468 <stdin@@GLIBC_2.2.5+0xb67438>
    f67b:	00 
    f67c:	c5 f3 5e c0          	vdivsd xmm0,xmm1,xmm0
    f680:	c5 fb 2c c0          	vcvttsd2si eax,xmm0
    f684:	c3                   	ret    
    f685:	8b 05 d9 ed b6 00    	mov    eax,DWORD PTR [rip+0xb6edd9]        # b7e464 <stdin@@GLIBC_2.2.5+0xb67434>
    f68b:	c5 fb 10 05 75 42 00 	vmovsd xmm0,QWORD PTR [rip+0x4275]        # 13908 <__sprintf_chk@plt+0x125b8>
    f692:	00 
    f693:	85 c0                	test   eax,eax
    f695:	74 dd                	je     f674 <__sprintf_chk@plt+0xe324>
    f697:	c5 e3 2a 15 c9 ed b6 	vcvtsi2sd xmm2,xmm3,DWORD PTR [rip+0xb6edc9]        # b7e468 <stdin@@GLIBC_2.2.5+0xb67438>
    f69e:	00 
    f69f:	c5 eb 5e 05 91 42 00 	vdivsd xmm0,xmm2,QWORD PTR [rip+0x4291]        # 13938 <__sprintf_chk@plt+0x125e8>
    f6a6:	00 
    f6a7:	c5 eb 5c d0          	vsubsd xmm2,xmm2,xmm0
    f6ab:	c5 e3 2a c8          	vcvtsi2sd xmm1,xmm3,eax
    f6af:	c5 eb 5c d9          	vsubsd xmm3,xmm2,xmm1
    f6b3:	c5 f9 2f 1d 5d 42 00 	vcomisd xmm3,QWORD PTR [rip+0x425d]        # 13918 <__sprintf_chk@plt+0x125c8>
    f6ba:	00 
    f6bb:	0f 86 cf fe ff ff    	jbe    f590 <__sprintf_chk@plt+0xe240>
    f6c1:	c5 fb 58 c1          	vaddsd xmm0,xmm0,xmm1
    f6c5:	eb b9                	jmp    f680 <__sprintf_chk@plt+0xe330>
    f6c7:	f3 0f 1e fa          	endbr64 
    f6cb:	41 57                	push   r15
    f6cd:	41 56                	push   r14
    f6cf:	41 55                	push   r13
    f6d1:	41 54                	push   r12
    f6d3:	55                   	push   rbp
    f6d4:	53                   	push   rbx
    f6d5:	48 81 ec d8 07 00 00 	sub    rsp,0x7d8
    f6dc:	48 89 fb             	mov    rbx,rdi
    f6df:	41 89 f4             	mov    r12d,esi
    f6e2:	48 89 54 24 08       	mov    QWORD PTR [rsp+0x8],rdx
    f6e7:	64 48 8b 04 25 28 00 	mov    rax,QWORD PTR fs:0x28
    f6ee:	00 00 
    f6f0:	48 89 84 24 c8 07 00 	mov    QWORD PTR [rsp+0x7c8],rax
    f6f7:	00 
    f6f8:	31 c0                	xor    eax,eax
    f6fa:	48 b8 46 50 50 4e 4e 	movabs rax,0x524b4b4e4e505046
    f701:	4b 4b 52 
    f704:	48 89 84 24 ba 07 00 	mov    QWORD PTR [rsp+0x7ba],rax
    f70b:	00 
    f70c:	c7 84 24 c2 07 00 00 	mov    DWORD PTR [rsp+0x7c2],0x42515152
    f713:	52 51 51 42 
    f717:	66 c7 84 24 c6 07 00 	mov    WORD PTR [rsp+0x7c6],0x4542
    f71e:	00 42 45 
    f721:	48 8d 6f 04          	lea    rbp,[rdi+0x4]
    f725:	89 f0                	mov    eax,esi
    f727:	c1 f8 06             	sar    eax,0x6
    f72a:	89 44 24 14          	mov    DWORD PTR [rsp+0x14],eax
    f72e:	41 89 c5             	mov    r13d,eax
    f731:	41 83 e5 3f          	and    r13d,0x3f
    f735:	44 89 ef             	mov    edi,r13d
    f738:	e8 a4 33 ff ff       	call   2ae1 <__sprintf_chk@plt+0x1791>
    f73d:	89 44 24 28          	mov    DWORD PTR [rsp+0x28],eax
    f741:	45 89 e6             	mov    r14d,r12d
    f744:	41 83 e6 3f          	and    r14d,0x3f
    f748:	44 89 74 24 1c       	mov    DWORD PTR [rsp+0x1c],r14d
    f74d:	44 89 f7             	mov    edi,r14d
    f750:	e8 8c 33 ff ff       	call   2ae1 <__sprintf_chk@plt+0x1791>
    f755:	89 44 24 10          	mov    DWORD PTR [rsp+0x10],eax
    f759:	44 89 ef             	mov    edi,r13d
    f75c:	e8 8f 33 ff ff       	call   2af0 <__sprintf_chk@plt+0x17a0>
    f761:	83 c0 60             	add    eax,0x60
    f764:	88 44 24 1b          	mov    BYTE PTR [rsp+0x1b],al
    f768:	44 89 f7             	mov    edi,r14d
    f76b:	e8 80 33 ff ff       	call   2af0 <__sprintf_chk@plt+0x17a0>
    f770:	83 c0 60             	add    eax,0x60
    f773:	88 44 24 1a          	mov    BYTE PTR [rsp+0x1a],al
    f777:	49 63 c5             	movsxd rax,r13d
    f77a:	4c 8d 7c 85 00       	lea    r15,[rbp+rax*4+0x0]
    f77f:	41 8b 07             	mov    eax,DWORD PTR [r15]
    f782:	ff c8                	dec    eax
    f784:	83 f8 01             	cmp    eax,0x1
    f787:	0f 86 8c 00 00 00    	jbe    f819 <__sprintf_chk@plt+0xe4c9>
    f78d:	44 89 e0             	mov    eax,r12d
    f790:	c1 f8 10             	sar    eax,0x10
    f793:	41 f7 c4 00 00 07 00 	test   r12d,0x70000
    f79a:	0f 84 ba 01 00 00    	je     f95a <__sprintf_chk@plt+0xe60a>
    f7a0:	83 e0 05             	and    eax,0x5
    f7a3:	83 f8 01             	cmp    eax,0x1
    f7a6:	0f 85 98 01 00 00    	jne    f944 <__sprintf_chk@plt+0xe5f4>
    f7ac:	48 8b 44 24 08       	mov    rax,QWORD PTR [rsp+0x8]
    f7b1:	c7 00 4f 2d 4f 00    	mov    DWORD PTR [rax],0x4f2d4f
    f7b7:	44 89 e6             	mov    esi,r12d
    f7ba:	48 89 df             	mov    rdi,rbx
    f7bd:	e8 cf 6f ff ff       	call   6791 <__sprintf_chk@plt+0x5441>
    f7c2:	44 89 e6             	mov    esi,r12d
    f7c5:	48 89 df             	mov    rdi,rbx
    f7c8:	e8 06 7d ff ff       	call   74d3 <__sprintf_chk@plt+0x6183>
    f7cd:	85 c0                	test   eax,eax
    f7cf:	0f 84 59 04 00 00    	je     fc2e <__sprintf_chk@plt+0xe8de>
    f7d5:	48 89 df             	mov    rdi,rbx
    f7d8:	e8 fa 1e ff ff       	call   16d7 <__sprintf_chk@plt+0x387>
    f7dd:	85 c0                	test   eax,eax
    f7df:	0f 85 68 04 00 00    	jne    fc4d <__sprintf_chk@plt+0xe8fd>
    f7e5:	44 89 e6             	mov    esi,r12d
    f7e8:	48 89 df             	mov    rdi,rbx
    f7eb:	e8 6d 78 ff ff       	call   705d <__sprintf_chk@plt+0x5d0d>
    f7f0:	48 8b 84 24 c8 07 00 	mov    rax,QWORD PTR [rsp+0x7c8]
    f7f7:	00 
    f7f8:	64 48 33 04 25 28 00 	xor    rax,QWORD PTR fs:0x28
    f7ff:	00 00 
    f801:	0f 85 fd 04 00 00    	jne    fd04 <__sprintf_chk@plt+0xe9b4>
    f807:	48 81 c4 d8 07 00 00 	add    rsp,0x7d8
    f80e:	5b                   	pop    rbx
    f80f:	5d                   	pop    rbp
    f810:	41 5c                	pop    r12
    f812:	41 5d                	pop    r13
    f814:	41 5e                	pop    r14
    f816:	41 5f                	pop    r15
    f818:	c3                   	ret    
    f819:	49 63 c6             	movsxd rax,r14d
    f81c:	83 7c 85 00 0d       	cmp    DWORD PTR [rbp+rax*4+0x0],0xd
    f821:	74 4f                	je     f872 <__sprintf_chk@plt+0xe522>
    f823:	44 89 e0             	mov    eax,r12d
    f826:	c1 f8 0c             	sar    eax,0xc
    f829:	83 e0 0f             	and    eax,0xf
    f82c:	0f 85 cb 00 00 00    	jne    f8fd <__sprintf_chk@plt+0xe5ad>
    f832:	48 83 ec 08          	sub    rsp,0x8
    f836:	8b 44 24 18          	mov    eax,DWORD PTR [rsp+0x18]
    f83a:	50                   	push   rax
    f83b:	44 0f be 4c 24 2a    	movsx  r9d,BYTE PTR [rsp+0x2a]
    f841:	44 0f be 44 24 2b    	movsx  r8d,BYTE PTR [rsp+0x2b]
    f847:	48 8d 0d cb 3a 00 00 	lea    rcx,[rip+0x3acb]        # 13319 <__sprintf_chk@plt+0x11fc9>
    f84e:	48 c7 c2 ff ff ff ff 	mov    rdx,0xffffffffffffffff
    f855:	be 01 00 00 00       	mov    esi,0x1
    f85a:	48 8b 7c 24 18       	mov    rdi,QWORD PTR [rsp+0x18]
    f85f:	b8 00 00 00 00       	mov    eax,0x0
    f864:	e8 e7 1a ff ff       	call   1350 <__sprintf_chk@plt>
    f869:	48 83 c4 10          	add    rsp,0x10
    f86d:	e9 45 ff ff ff       	jmp    f7b7 <__sprintf_chk@plt+0xe467>
    f872:	41 f7 c4 00 00 80 00 	test   r12d,0x800000
    f879:	75 a8                	jne    f823 <__sprintf_chk@plt+0xe4d3>
    f87b:	44 89 e0             	mov    eax,r12d
    f87e:	c1 f8 0c             	sar    eax,0xc
    f881:	83 e0 0f             	and    eax,0xf
    f884:	75 32                	jne    f8b8 <__sprintf_chk@plt+0xe568>
    f886:	44 8b 4c 24 10       	mov    r9d,DWORD PTR [rsp+0x10]
    f88b:	44 0f be 44 24 1a    	movsx  r8d,BYTE PTR [rsp+0x1a]
    f891:	48 8d 0d 71 3a 00 00 	lea    rcx,[rip+0x3a71]        # 13309 <__sprintf_chk@plt+0x11fb9>
    f898:	48 c7 c2 ff ff ff ff 	mov    rdx,0xffffffffffffffff
    f89f:	be 01 00 00 00       	mov    esi,0x1
    f8a4:	48 8b 7c 24 08       	mov    rdi,QWORD PTR [rsp+0x8]
    f8a9:	b8 00 00 00 00       	mov    eax,0x0
    f8ae:	e8 9d 1a ff ff       	call   1350 <__sprintf_chk@plt>
    f8b3:	e9 ff fe ff ff       	jmp    f7b7 <__sprintf_chk@plt+0xe467>
    f8b8:	48 83 ec 08          	sub    rsp,0x8
    f8bc:	48 98                	cdqe   
    f8be:	0f be 84 04 c2 07 00 	movsx  eax,BYTE PTR [rsp+rax*1+0x7c2]
    f8c5:	00 
    f8c6:	50                   	push   rax
    f8c7:	44 8b 4c 24 20       	mov    r9d,DWORD PTR [rsp+0x20]
    f8cc:	44 0f be 44 24 2a    	movsx  r8d,BYTE PTR [rsp+0x2a]
    f8d2:	48 8d 0d 24 3a 00 00 	lea    rcx,[rip+0x3a24]        # 132fd <__sprintf_chk@plt+0x11fad>
    f8d9:	48 c7 c2 ff ff ff ff 	mov    rdx,0xffffffffffffffff
    f8e0:	be 01 00 00 00       	mov    esi,0x1
    f8e5:	48 8b 7c 24 18       	mov    rdi,QWORD PTR [rsp+0x18]
    f8ea:	b8 00 00 00 00       	mov    eax,0x0
    f8ef:	e8 5c 1a ff ff       	call   1350 <__sprintf_chk@plt>
    f8f4:	48 83 c4 10          	add    rsp,0x10
    f8f8:	e9 ba fe ff ff       	jmp    f7b7 <__sprintf_chk@plt+0xe467>
    f8fd:	48 98                	cdqe   
    f8ff:	0f be 84 04 ba 07 00 	movsx  eax,BYTE PTR [rsp+rax*1+0x7ba]
    f906:	00 
    f907:	50                   	push   rax
    f908:	8b 44 24 18          	mov    eax,DWORD PTR [rsp+0x18]
    f90c:	50                   	push   rax
    f90d:	44 0f be 4c 24 2a    	movsx  r9d,BYTE PTR [rsp+0x2a]
    f913:	44 0f be 44 24 2b    	movsx  r8d,BYTE PTR [rsp+0x2b]
    f919:	48 8d 0d da 39 00 00 	lea    rcx,[rip+0x39da]        # 132fa <__sprintf_chk@plt+0x11faa>
    f920:	48 c7 c2 ff ff ff ff 	mov    rdx,0xffffffffffffffff
    f927:	be 01 00 00 00       	mov    esi,0x1
    f92c:	48 8b 7c 24 18       	mov    rdi,QWORD PTR [rsp+0x18]
    f931:	b8 00 00 00 00       	mov    eax,0x0
    f936:	e8 15 1a ff ff       	call   1350 <__sprintf_chk@plt>
    f93b:	48 83 c4 10          	add    rsp,0x10
    f93f:	e9 73 fe ff ff       	jmp    f7b7 <__sprintf_chk@plt+0xe467>
    f944:	48 8b 44 24 08       	mov    rax,QWORD PTR [rsp+0x8]
    f949:	c7 00 4f 2d 4f 2d    	mov    DWORD PTR [rax],0x2d4f2d4f
    f94f:	66 c7 40 04 4f 00    	mov    WORD PTR [rax+0x4],0x4f
    f955:	e9 5d fe ff ff       	jmp    f7b7 <__sprintf_chk@plt+0xe467>
    f95a:	48 8d 74 24 30       	lea    rsi,[rsp+0x30]
    f95f:	48 89 df             	mov    rdi,rbx
    f962:	e8 2b 54 ff ff       	call   4d92 <__sprintf_chk@plt+0x3a42>
    f967:	89 c5                	mov    ebp,eax
    f969:	48 89 df             	mov    rdi,rbx
    f96c:	e8 66 1d ff ff       	call   16d7 <__sprintf_chk@plt+0x387>
    f971:	85 ed                	test   ebp,ebp
    f973:	0f 8e 1d 02 00 00    	jle    fb96 <__sprintf_chk@plt+0xe846>
    f979:	44 8d 75 ff          	lea    r14d,[rbp-0x1]
    f97d:	bd 00 00 00 00       	mov    ebp,0x0
    f982:	49 63 c5             	movsxd rax,r13d
    f985:	44 89 6c 24 2c       	mov    DWORD PTR [rsp+0x2c],r13d
    f98a:	4c 89 7c 24 20       	mov    QWORD PTR [rsp+0x20],r15
    f98f:	49 89 c7             	mov    r15,rax
    f992:	e9 af 00 00 00       	jmp    fa46 <__sprintf_chk@plt+0xe6f6>
    f997:	4c 8b 7c 24 20       	mov    r15,QWORD PTR [rsp+0x20]
    f99c:	44 8b 6c 24 2c       	mov    r13d,DWORD PTR [rsp+0x2c]
    f9a1:	48 63 c5             	movsxd rax,ebp
    f9a4:	8b 74 84 30          	mov    esi,DWORD PTR [rsp+rax*4+0x30]
    f9a8:	48 89 df             	mov    rdi,rbx
    f9ab:	e8 ad 76 ff ff       	call   705d <__sprintf_chk@plt+0x5d0d>
    f9b0:	83 fd ff             	cmp    ebp,0xffffffff
    f9b3:	0f 84 dd 01 00 00    	je     fb96 <__sprintf_chk@plt+0xe846>
    f9b9:	48 63 44 24 1c       	movsxd rax,DWORD PTR [rsp+0x1c]
    f9be:	83 7c 83 04 0d       	cmp    DWORD PTR [rbx+rax*4+0x4],0xd
    f9c3:	0f 84 d1 00 00 00    	je     fa9a <__sprintf_chk@plt+0xe74a>
    f9c9:	89 e8                	mov    eax,ebp
    f9cb:	48 98                	cdqe   
    f9cd:	8b 7c 84 30          	mov    edi,DWORD PTR [rsp+rax*4+0x30]
    f9d1:	c1 ff 06             	sar    edi,0x6
    f9d4:	83 e7 3f             	and    edi,0x3f
    f9d7:	e8 14 31 ff ff       	call   2af0 <__sprintf_chk@plt+0x17a0>
    f9dc:	89 c5                	mov    ebp,eax
    f9de:	44 89 ef             	mov    edi,r13d
    f9e1:	e8 0a 31 ff ff       	call   2af0 <__sprintf_chk@plt+0x17a0>
    f9e6:	39 c5                	cmp    ebp,eax
    f9e8:	0f 84 5c 01 00 00    	je     fb4a <__sprintf_chk@plt+0xe7fa>
    f9ee:	49 63 07             	movsxd rax,DWORD PTR [r15]
    f9f1:	8b 4c 24 10          	mov    ecx,DWORD PTR [rsp+0x10]
    f9f5:	51                   	push   rcx
    f9f6:	0f be 54 24 22       	movsx  edx,BYTE PTR [rsp+0x22]
    f9fb:	52                   	push   rdx
    f9fc:	44 0f be 4c 24 2b    	movsx  r9d,BYTE PTR [rsp+0x2b]
    fa02:	44 0f be 84 04 ca 07 	movsx  r8d,BYTE PTR [rsp+rax*1+0x7ca]
    fa09:	00 00 
    fa0b:	48 8d 0d 05 39 00 00 	lea    rcx,[rip+0x3905]        # 13317 <__sprintf_chk@plt+0x11fc7>
    fa12:	48 c7 c2 ff ff ff ff 	mov    rdx,0xffffffffffffffff
    fa19:	be 01 00 00 00       	mov    esi,0x1
    fa1e:	48 8b 7c 24 18       	mov    rdi,QWORD PTR [rsp+0x18]
    fa23:	b8 00 00 00 00       	mov    eax,0x0
    fa28:	e8 23 19 ff ff       	call   1350 <__sprintf_chk@plt>
    fa2d:	48 83 c4 10          	add    rsp,0x10
    fa31:	e9 81 fd ff ff       	jmp    f7b7 <__sprintf_chk@plt+0xe467>
    fa36:	48 8d 45 01          	lea    rax,[rbp+0x1]
    fa3a:	4c 39 f5             	cmp    rbp,r14
    fa3d:	0f 84 4e 01 00 00    	je     fb91 <__sprintf_chk@plt+0xe841>
    fa43:	48 89 c5             	mov    rbp,rax
    fa46:	8b 74 ac 30          	mov    esi,DWORD PTR [rsp+rbp*4+0x30]
    fa4a:	89 f0                	mov    eax,esi
    fa4c:	44 31 e0             	xor    eax,r12d
    fa4f:	a8 3f                	test   al,0x3f
    fa51:	75 e3                	jne    fa36 <__sprintf_chk@plt+0xe6e6>
    fa53:	89 f0                	mov    eax,esi
    fa55:	c1 f8 06             	sar    eax,0x6
    fa58:	89 c2                	mov    edx,eax
    fa5a:	83 e2 3f             	and    edx,0x3f
    fa5d:	42 8b 4c bb 04       	mov    ecx,DWORD PTR [rbx+r15*4+0x4]
    fa62:	39 4c 93 04          	cmp    DWORD PTR [rbx+rdx*4+0x4],ecx
    fa66:	75 ce                	jne    fa36 <__sprintf_chk@plt+0xe6e6>
    fa68:	33 44 24 14          	xor    eax,DWORD PTR [rsp+0x14]
    fa6c:	a8 3f                	test   al,0x3f
    fa6e:	74 c6                	je     fa36 <__sprintf_chk@plt+0xe6e6>
    fa70:	48 89 df             	mov    rdi,rbx
    fa73:	e8 19 6d ff ff       	call   6791 <__sprintf_chk@plt+0x5441>
    fa78:	8b 74 ac 30          	mov    esi,DWORD PTR [rsp+rbp*4+0x30]
    fa7c:	48 89 df             	mov    rdi,rbx
    fa7f:	e8 4f 7a ff ff       	call   74d3 <__sprintf_chk@plt+0x6183>
    fa84:	85 c0                	test   eax,eax
    fa86:	0f 85 0b ff ff ff    	jne    f997 <__sprintf_chk@plt+0xe647>
    fa8c:	8b 74 ac 30          	mov    esi,DWORD PTR [rsp+rbp*4+0x30]
    fa90:	48 89 df             	mov    rdi,rbx
    fa93:	e8 c5 75 ff ff       	call   705d <__sprintf_chk@plt+0x5d0d>
    fa98:	eb 9c                	jmp    fa36 <__sprintf_chk@plt+0xe6e6>
    fa9a:	89 e8                	mov    eax,ebp
    fa9c:	48 98                	cdqe   
    fa9e:	8b 7c 84 30          	mov    edi,DWORD PTR [rsp+rax*4+0x30]
    faa2:	c1 ff 06             	sar    edi,0x6
    faa5:	83 e7 3f             	and    edi,0x3f
    faa8:	e8 43 30 ff ff       	call   2af0 <__sprintf_chk@plt+0x17a0>
    faad:	89 c5                	mov    ebp,eax
    faaf:	44 89 ef             	mov    edi,r13d
    fab2:	e8 39 30 ff ff       	call   2af0 <__sprintf_chk@plt+0x17a0>
    fab7:	39 c5                	cmp    ebp,eax
    fab9:	74 48                	je     fb03 <__sprintf_chk@plt+0xe7b3>
    fabb:	49 63 07             	movsxd rax,DWORD PTR [r15]
    fabe:	8b 4c 24 10          	mov    ecx,DWORD PTR [rsp+0x10]
    fac2:	51                   	push   rcx
    fac3:	0f be 54 24 22       	movsx  edx,BYTE PTR [rsp+0x22]
    fac8:	52                   	push   rdx
    fac9:	44 0f be 4c 24 2b    	movsx  r9d,BYTE PTR [rsp+0x2b]
    facf:	44 0f be 84 04 ca 07 	movsx  r8d,BYTE PTR [rsp+rax*1+0x7ca]
    fad6:	00 00 
    fad8:	48 8d 0d 26 38 00 00 	lea    rcx,[rip+0x3826]        # 13305 <__sprintf_chk@plt+0x11fb5>
    fadf:	48 c7 c2 ff ff ff ff 	mov    rdx,0xffffffffffffffff
    fae6:	be 01 00 00 00       	mov    esi,0x1
    faeb:	48 8b 7c 24 18       	mov    rdi,QWORD PTR [rsp+0x18]
    faf0:	b8 00 00 00 00       	mov    eax,0x0
    faf5:	e8 56 18 ff ff       	call   1350 <__sprintf_chk@plt>
    fafa:	48 83 c4 10          	add    rsp,0x10
    fafe:	e9 b4 fc ff ff       	jmp    f7b7 <__sprintf_chk@plt+0xe467>
    fb03:	49 63 07             	movsxd rax,DWORD PTR [r15]
    fb06:	8b 4c 24 10          	mov    ecx,DWORD PTR [rsp+0x10]
    fb0a:	51                   	push   rcx
    fb0b:	0f be 54 24 22       	movsx  edx,BYTE PTR [rsp+0x22]
    fb10:	52                   	push   rdx
    fb11:	44 8b 4c 24 38       	mov    r9d,DWORD PTR [rsp+0x38]
    fb16:	44 0f be 84 04 ca 07 	movsx  r8d,BYTE PTR [rsp+rax*1+0x7ca]
    fb1d:	00 00 
    fb1f:	48 8d 0d e8 37 00 00 	lea    rcx,[rip+0x37e8]        # 1330e <__sprintf_chk@plt+0x11fbe>
    fb26:	48 c7 c2 ff ff ff ff 	mov    rdx,0xffffffffffffffff
    fb2d:	be 01 00 00 00       	mov    esi,0x1
    fb32:	48 8b 7c 24 18       	mov    rdi,QWORD PTR [rsp+0x18]
    fb37:	b8 00 00 00 00       	mov    eax,0x0
    fb3c:	e8 0f 18 ff ff       	call   1350 <__sprintf_chk@plt>
    fb41:	48 83 c4 10          	add    rsp,0x10
    fb45:	e9 6d fc ff ff       	jmp    f7b7 <__sprintf_chk@plt+0xe467>
    fb4a:	49 63 07             	movsxd rax,DWORD PTR [r15]
    fb4d:	8b 4c 24 10          	mov    ecx,DWORD PTR [rsp+0x10]
    fb51:	51                   	push   rcx
    fb52:	0f be 54 24 22       	movsx  edx,BYTE PTR [rsp+0x22]
    fb57:	52                   	push   rdx
    fb58:	44 8b 4c 24 38       	mov    r9d,DWORD PTR [rsp+0x38]
    fb5d:	44 0f be 84 04 ca 07 	movsx  r8d,BYTE PTR [rsp+rax*1+0x7ca]
    fb64:	00 00 
    fb66:	48 8d 0d b4 37 00 00 	lea    rcx,[rip+0x37b4]        # 13321 <__sprintf_chk@plt+0x11fd1>
    fb6d:	48 c7 c2 ff ff ff ff 	mov    rdx,0xffffffffffffffff
    fb74:	be 01 00 00 00       	mov    esi,0x1
    fb79:	48 8b 7c 24 18       	mov    rdi,QWORD PTR [rsp+0x18]
    fb7e:	b8 00 00 00 00       	mov    eax,0x0
    fb83:	e8 c8 17 ff ff       	call   1350 <__sprintf_chk@plt>
    fb88:	48 83 c4 10          	add    rsp,0x10
    fb8c:	e9 26 fc ff ff       	jmp    f7b7 <__sprintf_chk@plt+0xe467>
    fb91:	4c 8b 7c 24 20       	mov    r15,QWORD PTR [rsp+0x20]
    fb96:	48 63 44 24 1c       	movsxd rax,DWORD PTR [rsp+0x1c]
    fb9b:	83 7c 83 04 0d       	cmp    DWORD PTR [rbx+rax*4+0x4],0xd
    fba0:	74 46                	je     fbe8 <__sprintf_chk@plt+0xe898>
    fba2:	49 63 07             	movsxd rax,DWORD PTR [r15]
    fba5:	48 83 ec 08          	sub    rsp,0x8
    fba9:	8b 4c 24 18          	mov    ecx,DWORD PTR [rsp+0x18]
    fbad:	51                   	push   rcx
    fbae:	44 0f be 4c 24 2a    	movsx  r9d,BYTE PTR [rsp+0x2a]
    fbb4:	44 0f be 84 04 ca 07 	movsx  r8d,BYTE PTR [rsp+rax*1+0x7ca]
    fbbb:	00 00 
    fbbd:	48 8d 0d 55 37 00 00 	lea    rcx,[rip+0x3755]        # 13319 <__sprintf_chk@plt+0x11fc9>
    fbc4:	48 c7 c2 ff ff ff ff 	mov    rdx,0xffffffffffffffff
    fbcb:	be 01 00 00 00       	mov    esi,0x1
    fbd0:	48 8b 7c 24 18       	mov    rdi,QWORD PTR [rsp+0x18]
    fbd5:	b8 00 00 00 00       	mov    eax,0x0
    fbda:	e8 71 17 ff ff       	call   1350 <__sprintf_chk@plt>
    fbdf:	48 83 c4 10          	add    rsp,0x10
    fbe3:	e9 cf fb ff ff       	jmp    f7b7 <__sprintf_chk@plt+0xe467>
    fbe8:	49 63 07             	movsxd rax,DWORD PTR [r15]
    fbeb:	48 83 ec 08          	sub    rsp,0x8
    fbef:	8b 4c 24 18          	mov    ecx,DWORD PTR [rsp+0x18]
    fbf3:	51                   	push   rcx
    fbf4:	44 0f be 4c 24 2a    	movsx  r9d,BYTE PTR [rsp+0x2a]
    fbfa:	44 0f be 84 04 ca 07 	movsx  r8d,BYTE PTR [rsp+rax*1+0x7ca]
    fc01:	00 00 
    fc03:	48 8d 0d fd 36 00 00 	lea    rcx,[rip+0x36fd]        # 13307 <__sprintf_chk@plt+0x11fb7>
    fc0a:	48 c7 c2 ff ff ff ff 	mov    rdx,0xffffffffffffffff
    fc11:	be 01 00 00 00       	mov    esi,0x1
    fc16:	48 8b 7c 24 18       	mov    rdi,QWORD PTR [rsp+0x18]
    fc1b:	b8 00 00 00 00       	mov    eax,0x0
    fc20:	e8 2b 17 ff ff       	call   1350 <__sprintf_chk@plt>
    fc25:	48 83 c4 10          	add    rsp,0x10
    fc29:	e9 89 fb ff ff       	jmp    f7b7 <__sprintf_chk@plt+0xe467>
    fc2e:	48 8b 44 24 08       	mov    rax,QWORD PTR [rsp+0x8]
    fc33:	c7 00 69 6c 6c 67    	mov    DWORD PTR [rax],0x676c6c69
    fc39:	c6 40 04 00          	mov    BYTE PTR [rax+0x4],0x0
    fc3d:	44 89 e6             	mov    esi,r12d
    fc40:	48 89 df             	mov    rdi,rbx
    fc43:	e8 15 74 ff ff       	call   705d <__sprintf_chk@plt+0x5d0d>
    fc48:	e9 a3 fb ff ff       	jmp    f7f0 <__sprintf_chk@plt+0xe4a0>
    fc4d:	48 8d b4 24 f0 03 00 	lea    rsi,[rsp+0x3f0]
    fc54:	00 
    fc55:	48 89 df             	mov    rdi,rbx
    fc58:	e8 35 51 ff ff       	call   4d92 <__sprintf_chk@plt+0x3a42>
    fc5d:	41 89 c6             	mov    r14d,eax
    fc60:	85 c0                	test   eax,eax
    fc62:	7e 3f                	jle    fca3 <__sprintf_chk@plt+0xe953>
    fc64:	48 8d ac 24 f0 03 00 	lea    rbp,[rsp+0x3f0]
    fc6b:	00 
    fc6c:	41 bd 00 00 00 00    	mov    r13d,0x0
    fc72:	8b 75 00             	mov    esi,DWORD PTR [rbp+0x0]
    fc75:	48 89 df             	mov    rdi,rbx
    fc78:	e8 14 6b ff ff       	call   6791 <__sprintf_chk@plt+0x5441>
    fc7d:	8b 75 00             	mov    esi,DWORD PTR [rbp+0x0]
    fc80:	48 89 df             	mov    rdi,rbx
    fc83:	e8 4b 78 ff ff       	call   74d3 <__sprintf_chk@plt+0x6183>
    fc88:	85 c0                	test   eax,eax
    fc8a:	75 3e                	jne    fcca <__sprintf_chk@plt+0xe97a>
    fc8c:	8b 75 00             	mov    esi,DWORD PTR [rbp+0x0]
    fc8f:	48 89 df             	mov    rdi,rbx
    fc92:	e8 c6 73 ff ff       	call   705d <__sprintf_chk@plt+0x5d0d>
    fc97:	41 ff c5             	inc    r13d
    fc9a:	48 83 c5 04          	add    rbp,0x4
    fc9e:	45 39 ee             	cmp    r14d,r13d
    fca1:	75 cf                	jne    fc72 <__sprintf_chk@plt+0xe922>
    fca3:	48 c7 c1 ff ff ff ff 	mov    rcx,0xffffffffffffffff
    fcaa:	b8 00 00 00 00       	mov    eax,0x0
    fcaf:	48 8b 7c 24 08       	mov    rdi,QWORD PTR [rsp+0x8]
    fcb4:	f2 ae                	repnz scas al,BYTE PTR es:[rdi]
    fcb6:	48 f7 d1             	not    rcx
    fcb9:	48 8b 7c 24 08       	mov    rdi,QWORD PTR [rsp+0x8]
    fcbe:	66 c7 44 0f ff 23 00 	mov    WORD PTR [rdi+rcx*1-0x1],0x23
    fcc5:	e9 1b fb ff ff       	jmp    f7e5 <__sprintf_chk@plt+0xe495>
    fcca:	4d 63 ed             	movsxd r13,r13d
    fccd:	42 8b b4 ac f0 03 00 	mov    esi,DWORD PTR [rsp+r13*4+0x3f0]
    fcd4:	00 
    fcd5:	48 89 df             	mov    rdi,rbx
    fcd8:	e8 80 73 ff ff       	call   705d <__sprintf_chk@plt+0x5d0d>
    fcdd:	48 c7 c1 ff ff ff ff 	mov    rcx,0xffffffffffffffff
    fce4:	b8 00 00 00 00       	mov    eax,0x0
    fce9:	48 8b 7c 24 08       	mov    rdi,QWORD PTR [rsp+0x8]
    fcee:	f2 ae                	repnz scas al,BYTE PTR es:[rdi]
    fcf0:	48 f7 d1             	not    rcx
    fcf3:	48 8b 7c 24 08       	mov    rdi,QWORD PTR [rsp+0x8]
    fcf8:	66 c7 44 0f ff 2b 00 	mov    WORD PTR [rdi+rcx*1-0x1],0x2b
    fcff:	e9 e1 fa ff ff       	jmp    f7e5 <__sprintf_chk@plt+0xe495>
    fd04:	e8 37 15 ff ff       	call   1240 <__stack_chk_fail@plt>
    fd09:	f3 0f 1e fa          	endbr64 
    fd0d:	41 57                	push   r15
    fd0f:	41 56                	push   r14
    fd11:	41 55                	push   r13
    fd13:	41 54                	push   r12
    fd15:	55                   	push   rbp
    fd16:	53                   	push   rbx
    fd17:	48 83 ec 18          	sub    rsp,0x18
    fd1b:	48 89 7c 24 08       	mov    QWORD PTR [rsp+0x8],rdi
    fd20:	49 89 d4             	mov    r12,rdx
    fd23:	89 f5                	mov    ebp,esi
    fd25:	c1 fd 06             	sar    ebp,0x6
    fd28:	89 e8                	mov    eax,ebp
    fd2a:	09 f0                	or     eax,esi
    fd2c:	a8 3f                	test   al,0x3f
    fd2e:	0f 84 83 00 00 00    	je     fdb7 <__sprintf_chk@plt+0xea67>
    fd34:	89 f3                	mov    ebx,esi
    fd36:	83 e5 3f             	and    ebp,0x3f
    fd39:	41 89 f7             	mov    r15d,esi
    fd3c:	41 83 e7 3f          	and    r15d,0x3f
    fd40:	41 89 f5             	mov    r13d,esi
    fd43:	41 c1 fd 10          	sar    r13d,0x10
    fd47:	41 83 e5 07          	and    r13d,0x7
    fd4b:	89 ef                	mov    edi,ebp
    fd4d:	e8 8f 2d ff ff       	call   2ae1 <__sprintf_chk@plt+0x1791>
    fd52:	89 44 24 04          	mov    DWORD PTR [rsp+0x4],eax
    fd56:	44 89 ff             	mov    edi,r15d
    fd59:	e8 83 2d ff ff       	call   2ae1 <__sprintf_chk@plt+0x1791>
    fd5e:	41 89 c6             	mov    r14d,eax
    fd61:	89 ef                	mov    edi,ebp
    fd63:	e8 88 2d ff ff       	call   2af0 <__sprintf_chk@plt+0x17a0>
    fd68:	8d 68 60             	lea    ebp,[rax+0x60]
    fd6b:	44 89 ff             	mov    edi,r15d
    fd6e:	e8 7d 2d ff ff       	call   2af0 <__sprintf_chk@plt+0x17a0>
    fd73:	45 85 ed             	test   r13d,r13d
    fd76:	0f 84 c5 00 00 00    	je     fe41 <__sprintf_chk@plt+0xeaf1>
    fd7c:	83 3d 75 e2 b2 00 00 	cmp    DWORD PTR [rip+0xb2e275],0x0        # b3dff8 <stdin@@GLIBC_2.2.5+0xb26fc8>
    fd83:	0f 84 b8 00 00 00    	je     fe41 <__sprintf_chk@plt+0xeaf1>
    fd89:	41 83 fd 01          	cmp    r13d,0x1
    fd8d:	74 41                	je     fdd0 <__sprintf_chk@plt+0xea80>
    fd8f:	41 83 fd 02          	cmp    r13d,0x2
    fd93:	0f 84 8c 00 00 00    	je     fe25 <__sprintf_chk@plt+0xead5>
    fd99:	41 83 fd 03          	cmp    r13d,0x3
    fd9d:	0f 84 90 00 00 00    	je     fe33 <__sprintf_chk@plt+0xeae3>
    fda3:	41 83 fd 04          	cmp    r13d,0x4
    fda7:	75 33                	jne    fddc <__sprintf_chk@plt+0xea8c>
    fda9:	48 8b 44 24 08       	mov    rax,QWORD PTR [rsp+0x8]
    fdae:	44 8b b8 24 11 00 00 	mov    r15d,DWORD PTR [rax+0x1124]
    fdb5:	eb 25                	jmp    fddc <__sprintf_chk@plt+0xea8c>
    fdb7:	c7 02 30 30 30 30    	mov    DWORD PTR [rdx],0x30303030
    fdbd:	c6 42 04 00          	mov    BYTE PTR [rdx+0x4],0x0
    fdc1:	48 83 c4 18          	add    rsp,0x18
    fdc5:	5b                   	pop    rbx
    fdc6:	5d                   	pop    rbp
    fdc7:	41 5c                	pop    r12
    fdc9:	41 5d                	pop    r13
    fdcb:	41 5e                	pop    r14
    fdcd:	41 5f                	pop    r15
    fdcf:	c3                   	ret    
    fdd0:	48 8b 44 24 08       	mov    rax,QWORD PTR [rsp+0x8]
    fdd5:	44 8b b8 20 11 00 00 	mov    r15d,DWORD PTR [rax+0x1120]
    fddc:	44 89 ff             	mov    edi,r15d
    fddf:	e8 0c 2d ff ff       	call   2af0 <__sprintf_chk@plt+0x17a0>
    fde4:	89 c3                	mov    ebx,eax
    fde6:	44 89 ff             	mov    edi,r15d
    fde9:	e8 f3 2c ff ff       	call   2ae1 <__sprintf_chk@plt+0x1791>
    fdee:	50                   	push   rax
    fdef:	83 c3 60             	add    ebx,0x60
    fdf2:	0f be db             	movsx  ebx,bl
    fdf5:	53                   	push   rbx
    fdf6:	44 8b 4c 24 14       	mov    r9d,DWORD PTR [rsp+0x14]
    fdfb:	44 0f be c5          	movsx  r8d,bpl
    fdff:	48 8d 0d 08 35 00 00 	lea    rcx,[rip+0x3508]        # 1330e <__sprintf_chk@plt+0x11fbe>
    fe06:	48 c7 c2 ff ff ff ff 	mov    rdx,0xffffffffffffffff
    fe0d:	be 01 00 00 00       	mov    esi,0x1
    fe12:	4c 89 e7             	mov    rdi,r12
    fe15:	b8 00 00 00 00       	mov    eax,0x0
    fe1a:	e8 31 15 ff ff       	call   1350 <__sprintf_chk@plt>
    fe1f:	48 83 c4 10          	add    rsp,0x10
    fe23:	eb 9c                	jmp    fdc1 <__sprintf_chk@plt+0xea71>
    fe25:	48 8b 44 24 08       	mov    rax,QWORD PTR [rsp+0x8]
    fe2a:	44 8b b8 1c 11 00 00 	mov    r15d,DWORD PTR [rax+0x111c]
    fe31:	eb a9                	jmp    fddc <__sprintf_chk@plt+0xea8c>
    fe33:	48 8b 44 24 08       	mov    rax,QWORD PTR [rsp+0x8]
    fe38:	44 8b b8 28 11 00 00 	mov    r15d,DWORD PTR [rax+0x1128]
    fe3f:	eb 9b                	jmp    fddc <__sprintf_chk@plt+0xea8c>
    fe41:	c1 fb 0c             	sar    ebx,0xc
    fe44:	83 c0 60             	add    eax,0x60
    fe47:	83 e3 0f             	and    ebx,0xf
    fe4a:	74 57                	je     fea3 <__sprintf_chk@plt+0xeb53>
    fe4c:	ff c3                	inc    ebx
    fe4e:	d1 fb                	sar    ebx,1
    fe50:	83 fb 02             	cmp    ebx,0x2
    fe53:	0f 84 82 00 00 00    	je     fedb <__sprintf_chk@plt+0xeb8b>
    fe59:	83 fb 04             	cmp    ebx,0x4
    fe5c:	0f 84 b1 00 00 00    	je     ff13 <__sprintf_chk@plt+0xebc3>
    fe62:	83 fb 06             	cmp    ebx,0x6
    fe65:	0f 84 e0 00 00 00    	je     ff4b <__sprintf_chk@plt+0xebfb>
    fe6b:	41 56                	push   r14
    fe6d:	0f be c0             	movsx  eax,al
    fe70:	50                   	push   rax
    fe71:	44 8b 4c 24 14       	mov    r9d,DWORD PTR [rsp+0x14]
    fe76:	44 0f be c5          	movsx  r8d,bpl
    fe7a:	48 8d 0d c8 34 00 00 	lea    rcx,[rip+0x34c8]        # 13349 <__sprintf_chk@plt+0x11ff9>
    fe81:	48 c7 c2 ff ff ff ff 	mov    rdx,0xffffffffffffffff
    fe88:	be 01 00 00 00       	mov    esi,0x1
    fe8d:	4c 89 e7             	mov    rdi,r12
    fe90:	b8 00 00 00 00       	mov    eax,0x0
    fe95:	e8 b6 14 ff ff       	call   1350 <__sprintf_chk@plt>
    fe9a:	48 83 c4 10          	add    rsp,0x10
    fe9e:	e9 1e ff ff ff       	jmp    fdc1 <__sprintf_chk@plt+0xea71>
    fea3:	41 56                	push   r14
    fea5:	0f be c0             	movsx  eax,al
    fea8:	50                   	push   rax
    fea9:	44 8b 4c 24 14       	mov    r9d,DWORD PTR [rsp+0x14]
    feae:	44 0f be c5          	movsx  r8d,bpl
    feb2:	48 8d 0d 55 34 00 00 	lea    rcx,[rip+0x3455]        # 1330e <__sprintf_chk@plt+0x11fbe>
    feb9:	48 c7 c2 ff ff ff ff 	mov    rdx,0xffffffffffffffff
    fec0:	be 01 00 00 00       	mov    esi,0x1
    fec5:	4c 89 e7             	mov    rdi,r12
    fec8:	b8 00 00 00 00       	mov    eax,0x0
    fecd:	e8 7e 14 ff ff       	call   1350 <__sprintf_chk@plt>
    fed2:	48 83 c4 10          	add    rsp,0x10
    fed6:	e9 e6 fe ff ff       	jmp    fdc1 <__sprintf_chk@plt+0xea71>
    fedb:	41 56                	push   r14
    fedd:	0f be c0             	movsx  eax,al
    fee0:	50                   	push   rax
    fee1:	44 8b 4c 24 14       	mov    r9d,DWORD PTR [rsp+0x14]
    fee6:	44 0f be c5          	movsx  r8d,bpl
    feea:	48 8d 0d 3a 34 00 00 	lea    rcx,[rip+0x343a]        # 1332b <__sprintf_chk@plt+0x11fdb>
    fef1:	48 c7 c2 ff ff ff ff 	mov    rdx,0xffffffffffffffff
    fef8:	be 01 00 00 00       	mov    esi,0x1
    fefd:	4c 89 e7             	mov    rdi,r12
    ff00:	b8 00 00 00 00       	mov    eax,0x0
    ff05:	e8 46 14 ff ff       	call   1350 <__sprintf_chk@plt>
    ff0a:	48 83 c4 10          	add    rsp,0x10
    ff0e:	e9 ae fe ff ff       	jmp    fdc1 <__sprintf_chk@plt+0xea71>
    ff13:	41 56                	push   r14
    ff15:	0f be c0             	movsx  eax,al
    ff18:	50                   	push   rax
    ff19:	44 8b 4c 24 14       	mov    r9d,DWORD PTR [rsp+0x14]
    ff1e:	44 0f be c5          	movsx  r8d,bpl
    ff22:	48 8d 0d 0c 34 00 00 	lea    rcx,[rip+0x340c]        # 13335 <__sprintf_chk@plt+0x11fe5>
    ff29:	48 c7 c2 ff ff ff ff 	mov    rdx,0xffffffffffffffff
    ff30:	be 01 00 00 00       	mov    esi,0x1
    ff35:	4c 89 e7             	mov    rdi,r12
    ff38:	b8 00 00 00 00       	mov    eax,0x0
    ff3d:	e8 0e 14 ff ff       	call   1350 <__sprintf_chk@plt>
    ff42:	48 83 c4 10          	add    rsp,0x10
    ff46:	e9 76 fe ff ff       	jmp    fdc1 <__sprintf_chk@plt+0xea71>
    ff4b:	41 56                	push   r14
    ff4d:	0f be c0             	movsx  eax,al
    ff50:	50                   	push   rax
    ff51:	44 8b 4c 24 14       	mov    r9d,DWORD PTR [rsp+0x14]
    ff56:	44 0f be c5          	movsx  r8d,bpl
    ff5a:	48 8d 0d de 33 00 00 	lea    rcx,[rip+0x33de]        # 1333f <__sprintf_chk@plt+0x11fef>
    ff61:	48 c7 c2 ff ff ff ff 	mov    rdx,0xffffffffffffffff
    ff68:	be 01 00 00 00       	mov    esi,0x1
    ff6d:	4c 89 e7             	mov    rdi,r12
    ff70:	b8 00 00 00 00       	mov    eax,0x0
    ff75:	e8 d6 13 ff ff       	call   1350 <__sprintf_chk@plt>
    ff7a:	48 83 c4 10          	add    rsp,0x10
    ff7e:	e9 3e fe ff ff       	jmp    fdc1 <__sprintf_chk@plt+0xea71>
    ff83:	41 57                	push   r15
    ff85:	41 56                	push   r14
    ff87:	41 55                	push   r13
    ff89:	41 54                	push   r12
    ff8b:	55                   	push   rbp
    ff8c:	53                   	push   rbx
    ff8d:	48 81 ec f8 05 00 00 	sub    rsp,0x5f8
    ff94:	48 89 fd             	mov    rbp,rdi
    ff97:	48 89 14 24          	mov    QWORD PTR [rsp],rdx
    ff9b:	64 48 8b 04 25 28 00 	mov    rax,QWORD PTR fs:0x28
    ffa2:	00 00 
    ffa4:	48 89 84 24 e8 05 00 	mov    QWORD PTR [rsp+0x5e8],rax
    ffab:	00 
    ffac:	31 c0                	xor    eax,eax
    ffae:	48 8b 97 e0 01 00 00 	mov    rdx,QWORD PTR [rdi+0x1e0]
    ffb5:	48 63 ce             	movsxd rcx,esi
    ffb8:	48 8d 05 c1 a5 b9 00 	lea    rax,[rip+0xb9a5c1]        # baa580 <stdin@@GLIBC_2.2.5+0xb93550>
    ffbf:	48 89 14 c8          	mov    QWORD PTR [rax+rcx*8],rdx
    ffc3:	83 fe 3f             	cmp    esi,0x3f
    ffc6:	7f 2b                	jg     fff3 <__sprintf_chk@plt+0xeca3>
    ffc8:	48 89 cf             	mov    rdi,rcx
    ffcb:	48 8d 04 c8          	lea    rax,[rax+rcx*8]
    ffcf:	b9 3f 00 00 00       	mov    ecx,0x3f
    ffd4:	29 f1                	sub    ecx,esi
    ffd6:	48 01 f9             	add    rcx,rdi
    ffd9:	48 8d 3d a8 a5 b9 00 	lea    rdi,[rip+0xb9a5a8]        # baa588 <stdin@@GLIBC_2.2.5+0xb93558>
    ffe0:	48 8d 0c cf          	lea    rcx,[rdi+rcx*8]
    ffe4:	48 3b 50 08          	cmp    rdx,QWORD PTR [rax+0x8]
    ffe8:	74 11                	je     fffb <__sprintf_chk@plt+0xecab>
    ffea:	48 83 c0 08          	add    rax,0x8
    ffee:	48 39 c8             	cmp    rax,rcx
    fff1:	75 f1                	jne    ffe4 <__sprintf_chk@plt+0xec94>
    fff3:	ff ce                	dec    esi
    fff5:	89 74 24 0c          	mov    DWORD PTR [rsp+0xc],esi
    fff9:	75 29                	jne    10024 <__sprintf_chk@plt+0xecd4>
    fffb:	48 8b 84 24 e8 05 00 	mov    rax,QWORD PTR [rsp+0x5e8]
   10002:	00 
   10003:	64 48 33 04 25 28 00 	xor    rax,QWORD PTR fs:0x28
   1000a:	00 00 
   1000c:	0f 85 7b 01 00 00    	jne    1018d <__sprintf_chk@plt+0xee3d>
   10012:	48 81 c4 f8 05 00 00 	add    rsp,0x5f8
   10019:	5b                   	pop    rbx
   1001a:	5d                   	pop    rbp
   1001b:	41 5c                	pop    r12
   1001d:	41 5d                	pop    r13
   1001f:	41 5e                	pop    r14
   10021:	41 5f                	pop    r15
   10023:	c3                   	ret    
   10024:	48 8d 74 24 18       	lea    rsi,[rsp+0x18]
   10029:	6a 00                	push   0x0
   1002b:	56                   	push   rsi
   1002c:	56                   	push   rsi
   1002d:	56                   	push   rsi
   1002e:	49 89 f1             	mov    r9,rsi
   10031:	4c 8d 44 24 3c       	lea    r8,[rsp+0x3c]
   10036:	b9 00 00 00 00       	mov    ecx,0x0
   1003b:	ba 00 00 00 00       	mov    edx,0x0
   10040:	48 89 ef             	mov    rdi,rbp
   10043:	e8 f1 f0 ff ff       	call   f139 <__sprintf_chk@plt+0xdde9>
   10048:	48 83 c4 20          	add    rsp,0x20
   1004c:	83 f8 04             	cmp    eax,0x4
   1004f:	74 aa                	je     fffb <__sprintf_chk@plt+0xecab>
   10051:	48 89 ef             	mov    rdi,rbp
   10054:	e8 7e 16 ff ff       	call   16d7 <__sprintf_chk@plt+0x387>
   10059:	85 c0                	test   eax,eax
   1005b:	74 39                	je     10096 <__sprintf_chk@plt+0xed46>
   1005d:	48 89 ef             	mov    rdi,rbp
   10060:	e8 72 16 ff ff       	call   16d7 <__sprintf_chk@plt+0x387>
   10065:	89 c2                	mov    edx,eax
   10067:	48 8d 74 24 20       	lea    rsi,[rsp+0x20]
   1006c:	48 89 ef             	mov    rdi,rbp
   1006f:	e8 16 65 ff ff       	call   658a <__sprintf_chk@plt+0x523a>
   10074:	41 89 c7             	mov    r15d,eax
   10077:	45 85 ff             	test   r15d,r15d
   1007a:	0f 8e 7b ff ff ff    	jle    fffb <__sprintf_chk@plt+0xecab>
   10080:	44 8b 74 24 1c       	mov    r14d,DWORD PTR [rsp+0x1c]
   10085:	45 8d 6f ff          	lea    r13d,[r15-0x1]
   10089:	bb 00 00 00 00       	mov    ebx,0x0
   1008e:	41 bc ff ff ff ff    	mov    r12d,0xffffffff
   10094:	eb 15                	jmp    100ab <__sprintf_chk@plt+0xed5b>
   10096:	48 8d 74 24 20       	lea    rsi,[rsp+0x20]
   1009b:	48 89 ef             	mov    rdi,rbp
   1009e:	e8 ef 4c ff ff       	call   4d92 <__sprintf_chk@plt+0x3a42>
   100a3:	41 89 c7             	mov    r15d,eax
   100a6:	eb cf                	jmp    10077 <__sprintf_chk@plt+0xed27>
   100a8:	48 89 c3             	mov    rbx,rax
   100ab:	8b 7c 9c 20          	mov    edi,DWORD PTR [rsp+rbx*4+0x20]
   100af:	e8 45 f4 ff ff       	call   f4f9 <__sprintf_chk@plt+0xe1a9>
   100b4:	0f b7 c0             	movzx  eax,ax
   100b7:	44 39 f0             	cmp    eax,r14d
   100ba:	44 0f 44 e3          	cmove  r12d,ebx
   100be:	48 8d 43 01          	lea    rax,[rbx+0x1]
   100c2:	4c 39 eb             	cmp    rbx,r13
   100c5:	75 e1                	jne    100a8 <__sprintf_chk@plt+0xed58>
   100c7:	45 85 e4             	test   r12d,r12d
   100ca:	0f 88 2b ff ff ff    	js     fffb <__sprintf_chk@plt+0xecab>
   100d0:	45 39 fc             	cmp    r12d,r15d
   100d3:	0f 8d 22 ff ff ff    	jge    fffb <__sprintf_chk@plt+0xecab>
   100d9:	83 3d 1c df b2 00 00 	cmp    DWORD PTR [rip+0xb2df1c],0x0        # b3dffc <stdin@@GLIBC_2.2.5+0xb26fcc>
   100e0:	75 4b                	jne    1012d <__sprintf_chk@plt+0xeddd>
   100e2:	48 8d 94 24 e0 03 00 	lea    rdx,[rsp+0x3e0]
   100e9:	00 
   100ea:	49 63 c4             	movsxd rax,r12d
   100ed:	8b 74 84 20          	mov    esi,DWORD PTR [rsp+rax*4+0x20]
   100f1:	48 89 ef             	mov    rdi,rbp
   100f4:	e8 ce f5 ff ff       	call   f6c7 <__sprintf_chk@plt+0xe377>
   100f9:	49 63 dc             	movsxd rbx,r12d
   100fc:	8b 74 9c 20          	mov    esi,DWORD PTR [rsp+rbx*4+0x20]
   10100:	48 89 ef             	mov    rdi,rbp
   10103:	e8 89 66 ff ff       	call   6791 <__sprintf_chk@plt+0x5441>
   10108:	8b 74 9c 20          	mov    esi,DWORD PTR [rsp+rbx*4+0x20]
   1010c:	48 89 ef             	mov    rdi,rbp
   1010f:	e8 bf 73 ff ff       	call   74d3 <__sprintf_chk@plt+0x6183>
   10114:	85 c0                	test   eax,eax
   10116:	75 2e                	jne    10146 <__sprintf_chk@plt+0xedf6>
   10118:	4d 63 e4             	movsxd r12,r12d
   1011b:	42 8b 74 a4 20       	mov    esi,DWORD PTR [rsp+r12*4+0x20]
   10120:	48 89 ef             	mov    rdi,rbp
   10123:	e8 35 6f ff ff       	call   705d <__sprintf_chk@plt+0x5d0d>
   10128:	e9 ce fe ff ff       	jmp    fffb <__sprintf_chk@plt+0xecab>
   1012d:	48 8d 94 24 e0 03 00 	lea    rdx,[rsp+0x3e0]
   10134:	00 
   10135:	49 63 c4             	movsxd rax,r12d
   10138:	8b 74 84 20          	mov    esi,DWORD PTR [rsp+rax*4+0x20]
   1013c:	48 89 ef             	mov    rdi,rbp
   1013f:	e8 c5 fb ff ff       	call   fd09 <__sprintf_chk@plt+0xe9b9>
   10144:	eb b3                	jmp    100f9 <__sprintf_chk@plt+0xeda9>
   10146:	48 8d b4 24 e0 03 00 	lea    rsi,[rsp+0x3e0]
   1014d:	00 
   1014e:	48 8b 1c 24          	mov    rbx,QWORD PTR [rsp]
   10152:	48 89 df             	mov    rdi,rbx
   10155:	e8 a6 11 ff ff       	call   1300 <strcat@plt>
   1015a:	48 c7 c1 ff ff ff ff 	mov    rcx,0xffffffffffffffff
   10161:	b8 00 00 00 00       	mov    eax,0x0
   10166:	48 89 1c 24          	mov    QWORD PTR [rsp],rbx
   1016a:	48 89 df             	mov    rdi,rbx
   1016d:	f2 ae                	repnz scas al,BYTE PTR es:[rdi]
   1016f:	48 89 c8             	mov    rax,rcx
   10172:	48 f7 d0             	not    rax
   10175:	66 c7 44 03 ff 20 00 	mov    WORD PTR [rbx+rax*1-0x1],0x20
   1017c:	48 89 da             	mov    rdx,rbx
   1017f:	8b 74 24 0c          	mov    esi,DWORD PTR [rsp+0xc]
   10183:	48 89 ef             	mov    rdi,rbp
   10186:	e8 f8 fd ff ff       	call   ff83 <__sprintf_chk@plt+0xec33>
   1018b:	eb 8b                	jmp    10118 <__sprintf_chk@plt+0xedc8>
   1018d:	e8 ae 10 ff ff       	call   1240 <__stack_chk_fail@plt>
   10192:	f3 0f 1e fa          	endbr64 
   10196:	53                   	push   rbx
   10197:	48 89 fb             	mov    rbx,rdi
   1019a:	0f be 3f             	movsx  edi,BYTE PTR [rdi]
   1019d:	e8 2e 11 ff ff       	call   12d0 <isalpha@plt>
   101a2:	85 c0                	test   eax,eax
   101a4:	74 2e                	je     101d4 <__sprintf_chk@plt+0xee84>
   101a6:	0f be 53 01          	movsx  edx,BYTE PTR [rbx+0x1]
   101aa:	83 ea 30             	sub    edx,0x30
   101ad:	b8 00 00 00 00       	mov    eax,0x0
   101b2:	83 fa 09             	cmp    edx,0x9
   101b5:	77 1d                	ja     101d4 <__sprintf_chk@plt+0xee84>
   101b7:	0f be 7b 02          	movsx  edi,BYTE PTR [rbx+0x2]
   101bb:	e8 10 11 ff ff       	call   12d0 <isalpha@plt>
   101c0:	85 c0                	test   eax,eax
   101c2:	74 10                	je     101d4 <__sprintf_chk@plt+0xee84>
   101c4:	0f be 43 03          	movsx  eax,BYTE PTR [rbx+0x3]
   101c8:	83 e8 30             	sub    eax,0x30
   101cb:	83 f8 09             	cmp    eax,0x9
   101ce:	0f 96 c0             	setbe  al
   101d1:	0f b6 c0             	movzx  eax,al
   101d4:	5b                   	pop    rbx
   101d5:	c3                   	ret    
   101d6:	f3 0f 1e fa          	endbr64 
   101da:	41 56                	push   r14
   101dc:	41 55                	push   r13
   101de:	41 54                	push   r12
   101e0:	55                   	push   rbp
   101e1:	53                   	push   rbx
   101e2:	48 81 ec e0 03 00 00 	sub    rsp,0x3e0
   101e9:	49 89 fc             	mov    r12,rdi
   101ec:	64 48 8b 04 25 28 00 	mov    rax,QWORD PTR fs:0x28
   101f3:	00 00 
   101f5:	48 89 84 24 d8 03 00 	mov    QWORD PTR [rsp+0x3d8],rax
   101fc:	00 
   101fd:	31 c0                	xor    eax,eax
   101ff:	48 8d 74 24 0c       	lea    rsi,[rsp+0xc]
   10204:	6a 00                	push   0x0
   10206:	56                   	push   rsi
   10207:	56                   	push   rsi
   10208:	56                   	push   rsi
   10209:	49 89 f1             	mov    r9,rsi
   1020c:	4c 8d 44 24 28       	lea    r8,[rsp+0x28]
   10211:	b9 00 00 00 00       	mov    ecx,0x0
   10216:	ba 00 00 00 00       	mov    edx,0x0
   1021b:	e8 19 ef ff ff       	call   f139 <__sprintf_chk@plt+0xdde9>
   10220:	48 83 c4 20          	add    rsp,0x20
   10224:	bb 00 00 00 00       	mov    ebx,0x0
   10229:	83 f8 04             	cmp    eax,0x4
   1022c:	75 29                	jne    10257 <__sprintf_chk@plt+0xef07>
   1022e:	48 8b 84 24 d8 03 00 	mov    rax,QWORD PTR [rsp+0x3d8]
   10235:	00 
   10236:	64 48 33 04 25 28 00 	xor    rax,QWORD PTR fs:0x28
   1023d:	00 00 
   1023f:	0f 85 d2 00 00 00    	jne    10317 <__sprintf_chk@plt+0xefc7>
   10245:	89 d8                	mov    eax,ebx
   10247:	48 81 c4 e0 03 00 00 	add    rsp,0x3e0
   1024e:	5b                   	pop    rbx
   1024f:	5d                   	pop    rbp
   10250:	41 5c                	pop    r12
   10252:	41 5d                	pop    r13
   10254:	41 5e                	pop    r14
   10256:	c3                   	ret    
   10257:	4c 89 e7             	mov    rdi,r12
   1025a:	e8 78 14 ff ff       	call   16d7 <__sprintf_chk@plt+0x387>
   1025f:	85 c0                	test   eax,eax
   10261:	74 34                	je     10297 <__sprintf_chk@plt+0xef47>
   10263:	4c 89 e7             	mov    rdi,r12
   10266:	e8 6c 14 ff ff       	call   16d7 <__sprintf_chk@plt+0x387>
   1026b:	89 c2                	mov    edx,eax
   1026d:	48 8d 74 24 10       	lea    rsi,[rsp+0x10]
   10272:	4c 89 e7             	mov    rdi,r12
   10275:	e8 10 63 ff ff       	call   658a <__sprintf_chk@plt+0x523a>
   1027a:	85 c0                	test   eax,eax
   1027c:	0f 8e 8b 00 00 00    	jle    1030d <__sprintf_chk@plt+0xefbd>
   10282:	44 8b 74 24 08       	mov    r14d,DWORD PTR [rsp+0x8]
   10287:	44 8d 68 ff          	lea    r13d,[rax-0x1]
   1028b:	bb 00 00 00 00       	mov    ebx,0x0
   10290:	bd ff ff ff ff       	mov    ebp,0xffffffff
   10295:	eb 12                	jmp    102a9 <__sprintf_chk@plt+0xef59>
   10297:	48 8d 74 24 10       	lea    rsi,[rsp+0x10]
   1029c:	4c 89 e7             	mov    rdi,r12
   1029f:	e8 ee 4a ff ff       	call   4d92 <__sprintf_chk@plt+0x3a42>
   102a4:	eb d4                	jmp    1027a <__sprintf_chk@plt+0xef2a>
   102a6:	48 89 c3             	mov    rbx,rax
   102a9:	8b 7c 9c 10          	mov    edi,DWORD PTR [rsp+rbx*4+0x10]
   102ad:	e8 47 f2 ff ff       	call   f4f9 <__sprintf_chk@plt+0xe1a9>
   102b2:	0f b7 c0             	movzx  eax,ax
   102b5:	44 39 f0             	cmp    eax,r14d
   102b8:	0f 44 eb             	cmove  ebp,ebx
   102bb:	48 8d 43 01          	lea    rax,[rbx+0x1]
   102bf:	4c 39 eb             	cmp    rbx,r13
   102c2:	75 e2                	jne    102a6 <__sprintf_chk@plt+0xef56>
   102c4:	bb 00 00 00 00       	mov    ebx,0x0
   102c9:	85 ed                	test   ebp,ebp
   102cb:	0f 88 5d ff ff ff    	js     1022e <__sprintf_chk@plt+0xeede>
   102d1:	48 63 dd             	movsxd rbx,ebp
   102d4:	8b 74 9c 10          	mov    esi,DWORD PTR [rsp+rbx*4+0x10]
   102d8:	4c 89 e7             	mov    rdi,r12
   102db:	e8 b1 64 ff ff       	call   6791 <__sprintf_chk@plt+0x5441>
   102e0:	8b 74 9c 10          	mov    esi,DWORD PTR [rsp+rbx*4+0x10]
   102e4:	4c 89 e7             	mov    rdi,r12
   102e7:	e8 e7 71 ff ff       	call   74d3 <__sprintf_chk@plt+0x6183>
   102ec:	89 c3                	mov    ebx,eax
   102ee:	85 c0                	test   eax,eax
   102f0:	74 07                	je     102f9 <__sprintf_chk@plt+0xefa9>
   102f2:	48 63 c5             	movsxd rax,ebp
   102f5:	8b 5c 84 10          	mov    ebx,DWORD PTR [rsp+rax*4+0x10]
   102f9:	48 63 ed             	movsxd rbp,ebp
   102fc:	8b 74 ac 10          	mov    esi,DWORD PTR [rsp+rbp*4+0x10]
   10300:	4c 89 e7             	mov    rdi,r12
   10303:	e8 55 6d ff ff       	call   705d <__sprintf_chk@plt+0x5d0d>
   10308:	e9 21 ff ff ff       	jmp    1022e <__sprintf_chk@plt+0xeede>
   1030d:	bb 00 00 00 00       	mov    ebx,0x0
   10312:	e9 17 ff ff ff       	jmp    1022e <__sprintf_chk@plt+0xeede>
   10317:	e8 24 0f ff ff       	call   1240 <__stack_chk_fail@plt>
   1031c:	f3 0f 1e fa          	endbr64 
   10320:	48 83 ec 08          	sub    rsp,0x8
   10324:	48 89 f2             	mov    rdx,rsi
   10327:	c6 06 00             	mov    BYTE PTR [rsi],0x0
   1032a:	be 3c 00 00 00       	mov    esi,0x3c
   1032f:	e8 4f fc ff ff       	call   ff83 <__sprintf_chk@plt+0xec33>
   10334:	48 83 c4 08          	add    rsp,0x8
   10338:	c3                   	ret    
   10339:	f3 0f 1e fa          	endbr64 
   1033d:	b8 00 00 00 00       	mov    eax,0x0
   10342:	c3                   	ret    
   10343:	f3 0f 1e fa          	endbr64 
   10347:	48 83 ec 08          	sub    rsp,0x8
   1034b:	c7 87 88 01 00 00 00 	mov    DWORD PTR [rdi+0x188],0x0
   10352:	00 00 00 
   10355:	48 c7 87 90 01 00 00 	mov    QWORD PTR [rdi+0x190],0x0
   1035c:	00 00 00 00 
   10360:	48 c7 87 98 01 00 00 	mov    QWORD PTR [rdi+0x198],0x0
   10367:	00 00 00 00 
   1036b:	48 c7 87 a0 01 00 00 	mov    QWORD PTR [rdi+0x1a0],0x0
   10372:	00 00 00 00 
   10376:	48 c7 87 a8 01 00 00 	mov    QWORD PTR [rdi+0x1a8],0x0
   1037d:	00 00 00 00 
   10381:	48 c7 87 b0 01 00 00 	mov    QWORD PTR [rdi+0x1b0],0x0
   10388:	00 00 00 00 
   1038c:	48 c7 87 b8 01 00 00 	mov    QWORD PTR [rdi+0x1b8],0x0
   10393:	00 00 00 00 
   10397:	c7 87 c0 01 00 00 00 	mov    DWORD PTR [rdi+0x1c0],0x0
   1039e:	00 00 00 
   103a1:	b8 00 00 00 00       	mov    eax,0x0
   103a6:	48 8d 35 b3 22 00 00 	lea    rsi,[rip+0x22b3]        # 12660 <__sprintf_chk@plt+0x11310>
   103ad:	eb 22                	jmp    103d1 <__sprintf_chk@plt+0xf081>
   103af:	89 87 d0 01 00 00    	mov    DWORD PTR [rdi+0x1d0],eax
   103b5:	48 63 d2             	movsxd rdx,edx
   103b8:	8b 0c 96             	mov    ecx,DWORD PTR [rsi+rdx*4]
   103bb:	01 8f 88 01 00 00    	add    DWORD PTR [rdi+0x188],ecx
   103c1:	ff 84 97 90 01 00 00 	inc    DWORD PTR [rdi+rdx*4+0x190]
   103c8:	48 ff c0             	inc    rax
   103cb:	48 83 f8 40          	cmp    rax,0x40
   103cf:	74 1f                	je     103f0 <__sprintf_chk@plt+0xf0a0>
   103d1:	8b 54 87 04          	mov    edx,DWORD PTR [rdi+rax*4+0x4]
   103d5:	83 fa 0c             	cmp    edx,0xc
   103d8:	7f ee                	jg     103c8 <__sprintf_chk@plt+0xf078>
   103da:	85 d2                	test   edx,edx
   103dc:	74 ea                	je     103c8 <__sprintf_chk@plt+0xf078>
   103de:	83 fa 05             	cmp    edx,0x5
   103e1:	74 cc                	je     103af <__sprintf_chk@plt+0xf05f>
   103e3:	83 fa 06             	cmp    edx,0x6
   103e6:	75 cd                	jne    103b5 <__sprintf_chk@plt+0xf065>
   103e8:	89 87 d4 01 00 00    	mov    DWORD PTR [rdi+0x1d4],eax
   103ee:	eb c5                	jmp    103b5 <__sprintf_chk@plt+0xf065>
   103f0:	48 c7 87 10 01 00 00 	mov    QWORD PTR [rdi+0x110],0x0
   103f7:	00 00 00 00 
   103fb:	48 c7 87 18 01 00 00 	mov    QWORD PTR [rdi+0x118],0x0
   10402:	00 00 00 00 
   10406:	48 c7 87 30 01 00 00 	mov    QWORD PTR [rdi+0x130],0x0
   1040d:	00 00 00 00 
   10411:	48 c7 87 28 01 00 00 	mov    QWORD PTR [rdi+0x128],0x0
   10418:	00 00 00 00 
   1041c:	48 c7 87 60 01 00 00 	mov    QWORD PTR [rdi+0x160],0x0
   10423:	00 00 00 00 
   10427:	48 c7 87 58 01 00 00 	mov    QWORD PTR [rdi+0x158],0x0
   1042e:	00 00 00 00 
   10432:	48 c7 87 40 01 00 00 	mov    QWORD PTR [rdi+0x140],0x0
   10439:	00 00 00 00 
   1043d:	48 c7 87 38 01 00 00 	mov    QWORD PTR [rdi+0x138],0x0
   10444:	00 00 00 00 
   10448:	48 c7 87 80 01 00 00 	mov    QWORD PTR [rdi+0x180],0x0
   1044f:	00 00 00 00 
   10453:	48 c7 87 78 01 00 00 	mov    QWORD PTR [rdi+0x178],0x0
   1045a:	00 00 00 00 
   1045e:	48 c7 87 70 01 00 00 	mov    QWORD PTR [rdi+0x170],0x0
   10465:	00 00 00 00 
   10469:	48 c7 87 68 01 00 00 	mov    QWORD PTR [rdi+0x168],0x0
   10470:	00 00 00 00 
   10474:	48 c7 87 50 01 00 00 	mov    QWORD PTR [rdi+0x150],0x0
   1047b:	00 00 00 00 
   1047f:	48 c7 87 48 01 00 00 	mov    QWORD PTR [rdi+0x148],0x0
   10486:	00 00 00 00 
   1048a:	b8 00 00 00 00       	mov    eax,0x0
   1048f:	48 8d 35 0a 86 00 00 	lea    rsi,[rip+0x860a]        # 18aa0 <stdin@@GLIBC_2.2.5+0x1a70>
   10496:	eb 17                	jmp    104af <__sprintf_chk@plt+0xf15f>
   10498:	48 8b 14 46          	mov    rdx,QWORD PTR [rsi+rax*2]
   1049c:	48 09 97 10 01 00 00 	or     QWORD PTR [rdi+0x110],rdx
   104a3:	48 83 c0 04          	add    rax,0x4
   104a7:	48 3d 00 01 00 00    	cmp    rax,0x100
   104ad:	74 2a                	je     104d9 <__sprintf_chk@plt+0xf189>
   104af:	8b 54 07 04          	mov    edx,DWORD PTR [rdi+rax*1+0x4]
   104b3:	83 fa 0d             	cmp    edx,0xd
   104b6:	74 eb                	je     104a3 <__sprintf_chk@plt+0xf153>
   104b8:	48 63 ca             	movsxd rcx,edx
   104bb:	4c 8b 04 46          	mov    r8,QWORD PTR [rsi+rax*2]
   104bf:	4c 09 84 cf 20 01 00 	or     QWORD PTR [rdi+rcx*8+0x120],r8
   104c6:	00 
   104c7:	f6 c2 01             	test   dl,0x1
   104ca:	74 cc                	je     10498 <__sprintf_chk@plt+0xf148>
   104cc:	48 8b 14 46          	mov    rdx,QWORD PTR [rsi+rax*2]
   104d0:	48 09 97 18 01 00 00 	or     QWORD PTR [rdi+0x118],rdx
   104d7:	eb ca                	jmp    104a3 <__sprintf_chk@plt+0xf153>
   104d9:	48 8b 87 18 01 00 00 	mov    rax,QWORD PTR [rdi+0x118]
   104e0:	48 0b 87 10 01 00 00 	or     rax,QWORD PTR [rdi+0x110]
   104e7:	48 89 87 08 01 00 00 	mov    QWORD PTR [rdi+0x108],rax
   104ee:	e8 03 9e ff ff       	call   a2f6 <__sprintf_chk@plt+0x8fa6>
   104f3:	48 83 c4 08          	add    rsp,0x8
   104f7:	c3                   	ret    
   104f8:	f3 0f 1e fa          	endbr64 
   104fc:	53                   	push   rbx
   104fd:	48 89 f3             	mov    rbx,rsi
   10500:	c5 f9 6f 05 f8 32 00 	vmovdqa xmm0,XMMWORD PTR [rip+0x32f8]        # 13800 <__sprintf_chk@plt+0x124b0>
   10507:	00 
   10508:	c5 f8 11 46 04       	vmovups XMMWORD PTR [rsi+0x4],xmm0
   1050d:	c5 f9 6f 0d fb 32 00 	vmovdqa xmm1,XMMWORD PTR [rip+0x32fb]        # 13810 <__sprintf_chk@plt+0x124c0>
   10514:	00 
   10515:	c5 f8 11 4e 14       	vmovups XMMWORD PTR [rsi+0x14],xmm1
   1051a:	c5 f9 6f 15 fe 32 00 	vmovdqa xmm2,XMMWORD PTR [rip+0x32fe]        # 13820 <__sprintf_chk@plt+0x124d0>
   10521:	00 
   10522:	c5 f8 11 56 24       	vmovups XMMWORD PTR [rsi+0x24],xmm2
   10527:	c5 f9 6f 1d 01 33 00 	vmovdqa xmm3,XMMWORD PTR [rip+0x3301]        # 13830 <__sprintf_chk@plt+0x124e0>
   1052e:	00 
   1052f:	c5 f8 11 5e 34       	vmovups XMMWORD PTR [rsi+0x34],xmm3
   10534:	c5 f9 6f 25 04 33 00 	vmovdqa xmm4,XMMWORD PTR [rip+0x3304]        # 13840 <__sprintf_chk@plt+0x124f0>
   1053b:	00 
   1053c:	c5 f8 11 66 44       	vmovups XMMWORD PTR [rsi+0x44],xmm4
   10541:	c5 f9 6f 2d 07 33 00 	vmovdqa xmm5,XMMWORD PTR [rip+0x3307]        # 13850 <__sprintf_chk@plt+0x12500>
   10548:	00 
   10549:	c5 f8 11 6e 54       	vmovups XMMWORD PTR [rsi+0x54],xmm5
   1054e:	c5 f9 6f 35 0a 33 00 	vmovdqa xmm6,XMMWORD PTR [rip+0x330a]        # 13860 <__sprintf_chk@plt+0x12510>
   10555:	00 
   10556:	c5 f8 11 76 64       	vmovups XMMWORD PTR [rsi+0x64],xmm6
   1055b:	c5 f9 6f 3d 0d 33 00 	vmovdqa xmm7,XMMWORD PTR [rip+0x330d]        # 13870 <__sprintf_chk@plt+0x12520>
   10562:	00 
   10563:	c5 f8 11 7e 74       	vmovups XMMWORD PTR [rsi+0x74],xmm7
   10568:	c5 f9 6f 05 10 33 00 	vmovdqa xmm0,XMMWORD PTR [rip+0x3310]        # 13880 <__sprintf_chk@plt+0x12530>
   1056f:	00 
   10570:	c5 f8 11 86 84 00 00 	vmovups XMMWORD PTR [rsi+0x84],xmm0
   10577:	00 
   10578:	c5 f9 6f 0d 10 33 00 	vmovdqa xmm1,XMMWORD PTR [rip+0x3310]        # 13890 <__sprintf_chk@plt+0x12540>
   1057f:	00 
   10580:	c5 f8 11 8e 94 00 00 	vmovups XMMWORD PTR [rsi+0x94],xmm1
   10587:	00 
   10588:	c5 f9 6f 15 10 33 00 	vmovdqa xmm2,XMMWORD PTR [rip+0x3310]        # 138a0 <__sprintf_chk@plt+0x12550>
   1058f:	00 
   10590:	c5 f8 11 96 a4 00 00 	vmovups XMMWORD PTR [rsi+0xa4],xmm2
   10597:	00 
   10598:	c5 f9 6f 1d 10 33 00 	vmovdqa xmm3,XMMWORD PTR [rip+0x3310]        # 138b0 <__sprintf_chk@plt+0x12560>
   1059f:	00 
   105a0:	c5 f8 11 9e b4 00 00 	vmovups XMMWORD PTR [rsi+0xb4],xmm3
   105a7:	00 
   105a8:	c5 f9 6f 25 10 33 00 	vmovdqa xmm4,XMMWORD PTR [rip+0x3310]        # 138c0 <__sprintf_chk@plt+0x12570>
   105af:	00 
   105b0:	c5 f8 11 a6 c4 00 00 	vmovups XMMWORD PTR [rsi+0xc4],xmm4
   105b7:	00 
   105b8:	c5 f9 6f 2d 10 33 00 	vmovdqa xmm5,XMMWORD PTR [rip+0x3310]        # 138d0 <__sprintf_chk@plt+0x12580>
   105bf:	00 
   105c0:	c5 f8 11 ae d4 00 00 	vmovups XMMWORD PTR [rsi+0xd4],xmm5
   105c7:	00 
   105c8:	c5 f9 6f 35 10 33 00 	vmovdqa xmm6,XMMWORD PTR [rip+0x3310]        # 138e0 <__sprintf_chk@plt+0x12590>
   105cf:	00 
   105d0:	c5 f8 11 b6 e4 00 00 	vmovups XMMWORD PTR [rsi+0xe4],xmm6
   105d7:	00 
   105d8:	c5 f9 6f 3d 10 33 00 	vmovdqa xmm7,XMMWORD PTR [rip+0x3310]        # 138f0 <__sprintf_chk@plt+0x125a0>
   105df:	00 
   105e0:	c5 f8 11 be f4 00 00 	vmovups XMMWORD PTR [rsi+0xf4],xmm7
   105e7:	00 
   105e8:	c7 86 cc 01 00 00 01 	mov    DWORD PTR [rsi+0x1cc],0x1
   105ef:	00 00 00 
   105f2:	c7 86 c8 01 00 00 00 	mov    DWORD PTR [rsi+0x1c8],0x0
   105f9:	00 00 00 
   105fc:	c7 86 c4 01 00 00 1e 	mov    DWORD PTR [rsi+0x1c4],0x1e
   10603:	00 00 00 
   10606:	c7 86 d0 01 00 00 3c 	mov    DWORD PTR [rsi+0x1d0],0x3c
   1060d:	00 00 00 
   10610:	c7 86 d4 01 00 00 04 	mov    DWORD PTR [rsi+0x1d4],0x4
   10617:	00 00 00 
   1061a:	c7 86 14 11 00 00 3c 	mov    DWORD PTR [rsi+0x1114],0x3c
   10621:	00 00 00 
   10624:	c7 86 18 11 00 00 04 	mov    DWORD PTR [rsi+0x1118],0x4
   1062b:	00 00 00 
   1062e:	c7 86 1c 11 00 00 38 	mov    DWORD PTR [rsi+0x111c],0x38
   10635:	00 00 00 
   10638:	c7 86 20 11 00 00 3f 	mov    DWORD PTR [rsi+0x1120],0x3f
   1063f:	00 00 00 
   10642:	c7 86 24 11 00 00 00 	mov    DWORD PTR [rsi+0x1124],0x0
   10649:	00 00 00 
   1064c:	c7 86 28 11 00 00 07 	mov    DWORD PTR [rsi+0x1128],0x7
   10653:	00 00 00 
   10656:	48 89 f7             	mov    rdi,rsi
   10659:	e8 86 21 ff ff       	call   27e4 <__sprintf_chk@plt+0x1494>
   1065e:	c7 05 e8 dd b6 00 00 	mov    DWORD PTR [rip+0xb6dde8],0x0        # b7e450 <stdin@@GLIBC_2.2.5+0xb67420>
   10665:	00 00 00 
   10668:	c7 83 88 01 00 00 00 	mov    DWORD PTR [rbx+0x188],0x0
   1066f:	00 00 00 
   10672:	48 89 df             	mov    rdi,rbx
   10675:	e8 c9 fc ff ff       	call   10343 <__sprintf_chk@plt+0xeff3>
   1067a:	c7 83 dc 01 00 00 00 	mov    DWORD PTR [rbx+0x1dc],0x0
   10681:	00 00 00 
   10684:	c7 83 d8 01 00 00 00 	mov    DWORD PTR [rbx+0x1d8],0x0
   1068b:	00 00 00 
   1068e:	c7 03 00 00 00 00    	mov    DWORD PTR [rbx],0x0
   10694:	c7 05 a6 dd b6 00 00 	mov    DWORD PTR [rip+0xb6dda6],0x0        # b7e444 <stdin@@GLIBC_2.2.5+0xb67414>
   1069b:	00 00 00 
   1069e:	5b                   	pop    rbx
   1069f:	c3                   	ret    
   106a0:	f3 0f 1e fa          	endbr64 
   106a4:	55                   	push   rbp
   106a5:	53                   	push   rbx
   106a6:	48 81 ec d8 00 00 00 	sub    rsp,0xd8
   106ad:	48 89 fb             	mov    rbx,rdi
   106b0:	48 89 74 24 28       	mov    QWORD PTR [rsp+0x28],rsi
   106b5:	48 89 54 24 30       	mov    QWORD PTR [rsp+0x30],rdx
   106ba:	48 89 4c 24 38       	mov    QWORD PTR [rsp+0x38],rcx
   106bf:	4c 89 44 24 40       	mov    QWORD PTR [rsp+0x40],r8
   106c4:	4c 89 4c 24 48       	mov    QWORD PTR [rsp+0x48],r9
   106c9:	84 c0                	test   al,al
   106cb:	74 3f                	je     1070c <__sprintf_chk@plt+0xf3bc>
   106cd:	c5 f8 29 44 24 50    	vmovaps XMMWORD PTR [rsp+0x50],xmm0
   106d3:	c5 f8 29 4c 24 60    	vmovaps XMMWORD PTR [rsp+0x60],xmm1
   106d9:	c5 f8 29 54 24 70    	vmovaps XMMWORD PTR [rsp+0x70],xmm2
   106df:	c5 f8 29 9c 24 80 00 	vmovaps XMMWORD PTR [rsp+0x80],xmm3
   106e6:	00 00 
   106e8:	c5 f8 29 a4 24 90 00 	vmovaps XMMWORD PTR [rsp+0x90],xmm4
   106ef:	00 00 
   106f1:	c5 f8 29 ac 24 a0 00 	vmovaps XMMWORD PTR [rsp+0xa0],xmm5
   106f8:	00 00 
   106fa:	c5 f8 29 b4 24 b0 00 	vmovaps XMMWORD PTR [rsp+0xb0],xmm6
   10701:	00 00 
   10703:	c5 f8 29 bc 24 c0 00 	vmovaps XMMWORD PTR [rsp+0xc0],xmm7
   1070a:	00 00 
   1070c:	64 48 8b 04 25 28 00 	mov    rax,QWORD PTR fs:0x28
   10713:	00 00 
   10715:	48 89 44 24 18       	mov    QWORD PTR [rsp+0x18],rax
   1071a:	31 c0                	xor    eax,eax
   1071c:	c7 04 24 08 00 00 00 	mov    DWORD PTR [rsp],0x8
   10723:	c7 44 24 04 30 00 00 	mov    DWORD PTR [rsp+0x4],0x30
   1072a:	00 
   1072b:	48 8d 84 24 f0 00 00 	lea    rax,[rsp+0xf0]
   10732:	00 
   10733:	48 89 44 24 08       	mov    QWORD PTR [rsp+0x8],rax
   10738:	48 8d 44 24 20       	lea    rax,[rsp+0x20]
   1073d:	48 89 44 24 10       	mov    QWORD PTR [rsp+0x10],rax
   10742:	48 89 e1             	mov    rcx,rsp
   10745:	48 89 da             	mov    rdx,rbx
   10748:	be 01 00 00 00       	mov    esi,0x1
   1074d:	48 8b 3d cc 68 00 00 	mov    rdi,QWORD PTR [rip+0x68cc]        # 17020 <stdout@@GLIBC_2.2.5>
   10754:	e8 97 0a ff ff       	call   11f0 <__vfprintf_chk@plt>
   10759:	83 3d 80 d8 b2 00 00 	cmp    DWORD PTR [rip+0xb2d880],0x0        # b3dfe0 <stdin@@GLIBC_2.2.5+0xb26fb0>
   10760:	75 1a                	jne    1077c <__sprintf_chk@plt+0xf42c>
   10762:	48 8b 44 24 18       	mov    rax,QWORD PTR [rsp+0x18]
   10767:	64 48 33 04 25 28 00 	xor    rax,QWORD PTR fs:0x28
   1076e:	00 00 
   10770:	75 42                	jne    107b4 <__sprintf_chk@plt+0xf464>
   10772:	48 81 c4 d8 00 00 00 	add    rsp,0xd8
   10779:	5b                   	pop    rbx
   1077a:	5d                   	pop    rbp
   1077b:	c3                   	ret    
   1077c:	48 8d 35 d0 2b 00 00 	lea    rsi,[rip+0x2bd0]        # 13353 <__sprintf_chk@plt+0x12003>
   10783:	48 8d 3d 56 d6 b2 00 	lea    rdi,[rip+0xb2d656]        # b3dde0 <stdin@@GLIBC_2.2.5+0xb26db0>
   1078a:	e8 61 0b ff ff       	call   12f0 <fopen@plt>
   1078f:	48 89 c5             	mov    rbp,rax
   10792:	48 85 c0             	test   rax,rax
   10795:	74 cb                	je     10762 <__sprintf_chk@plt+0xf412>
   10797:	48 89 e1             	mov    rcx,rsp
   1079a:	48 89 da             	mov    rdx,rbx
   1079d:	be 01 00 00 00       	mov    esi,0x1
   107a2:	48 89 c7             	mov    rdi,rax
   107a5:	e8 46 0a ff ff       	call   11f0 <__vfprintf_chk@plt>
   107aa:	48 89 ef             	mov    rdi,rbp
   107ad:	e8 7e 0a ff ff       	call   1230 <fclose@plt>
   107b2:	eb ae                	jmp    10762 <__sprintf_chk@plt+0xf412>
   107b4:	e8 87 0a ff ff       	call   1240 <__stack_chk_fail@plt>
   107b9:	f3 0f 1e fa          	endbr64 
   107bd:	41 55                	push   r13
   107bf:	41 54                	push   r12
   107c1:	55                   	push   rbp
   107c2:	53                   	push   rbx
   107c3:	48 81 ec 88 00 00 00 	sub    rsp,0x88
   107ca:	48 89 fd             	mov    rbp,rdi
   107cd:	64 48 8b 04 25 28 00 	mov    rax,QWORD PTR fs:0x28
   107d4:	00 00 
   107d6:	48 89 44 24 78       	mov    QWORD PTR [rsp+0x78],rax
   107db:	31 c0                	xor    eax,eax
   107dd:	48 8d 05 c6 2b 00 00 	lea    rax,[rip+0x2bc6]        # 133aa <__sprintf_chk@plt+0x1205a>
   107e4:	48 89 04 24          	mov    QWORD PTR [rsp],rax
   107e8:	48 8d 05 66 2b 00 00 	lea    rax,[rip+0x2b66]        # 13355 <__sprintf_chk@plt+0x12005>
   107ef:	48 89 44 24 08       	mov    QWORD PTR [rsp+0x8],rax
   107f4:	48 8d 05 5d 2b 00 00 	lea    rax,[rip+0x2b5d]        # 13358 <__sprintf_chk@plt+0x12008>
   107fb:	48 89 44 24 10       	mov    QWORD PTR [rsp+0x10],rax
   10800:	48 8d 05 54 2b 00 00 	lea    rax,[rip+0x2b54]        # 1335b <__sprintf_chk@plt+0x1200b>
   10807:	48 89 44 24 18       	mov    QWORD PTR [rsp+0x18],rax
   1080c:	48 8d 05 4b 2b 00 00 	lea    rax,[rip+0x2b4b]        # 1335e <__sprintf_chk@plt+0x1200e>
   10813:	48 89 44 24 20       	mov    QWORD PTR [rsp+0x20],rax
   10818:	48 8d 05 42 2b 00 00 	lea    rax,[rip+0x2b42]        # 13361 <__sprintf_chk@plt+0x12011>
   1081f:	48 89 44 24 28       	mov    QWORD PTR [rsp+0x28],rax
   10824:	48 8d 05 39 2b 00 00 	lea    rax,[rip+0x2b39]        # 13364 <__sprintf_chk@plt+0x12014>
   1082b:	48 89 44 24 30       	mov    QWORD PTR [rsp+0x30],rax
   10830:	48 8d 05 30 2b 00 00 	lea    rax,[rip+0x2b30]        # 13367 <__sprintf_chk@plt+0x12017>
   10837:	48 89 44 24 38       	mov    QWORD PTR [rsp+0x38],rax
   1083c:	48 8d 05 27 2b 00 00 	lea    rax,[rip+0x2b27]        # 1336a <__sprintf_chk@plt+0x1201a>
   10843:	48 89 44 24 40       	mov    QWORD PTR [rsp+0x40],rax
   10848:	48 8d 05 1e 2b 00 00 	lea    rax,[rip+0x2b1e]        # 1336d <__sprintf_chk@plt+0x1201d>
   1084f:	48 89 44 24 48       	mov    QWORD PTR [rsp+0x48],rax
   10854:	48 8d 05 15 2b 00 00 	lea    rax,[rip+0x2b15]        # 13370 <__sprintf_chk@plt+0x12020>
   1085b:	48 89 44 24 50       	mov    QWORD PTR [rsp+0x50],rax
   10860:	48 8d 05 0c 2b 00 00 	lea    rax,[rip+0x2b0c]        # 13373 <__sprintf_chk@plt+0x12023>
   10867:	48 89 44 24 58       	mov    QWORD PTR [rsp+0x58],rax
   1086c:	48 8d 05 03 2b 00 00 	lea    rax,[rip+0x2b03]        # 13376 <__sprintf_chk@plt+0x12026>
   10873:	48 89 44 24 60       	mov    QWORD PTR [rsp+0x60],rax
   10878:	48 8d 05 22 2b 00 00 	lea    rax,[rip+0x2b22]        # 133a1 <__sprintf_chk@plt+0x12051>
   1087f:	48 89 44 24 68       	mov    QWORD PTR [rsp+0x68],rax
   10884:	40 f6 c6 01          	test   sil,0x1
   10888:	0f 84 b3 00 00 00    	je     10941 <__sprintf_chk@plt+0xf5f1>
   1088e:	48 8d 35 83 2b 00 00 	lea    rsi,[rip+0x2b83]        # 13418 <__sprintf_chk@plt+0x120c8>
   10895:	48 8d 3d e9 2a 00 00 	lea    rdi,[rip+0x2ae9]        # 13385 <__sprintf_chk@plt+0x12035>
   1089c:	b8 00 00 00 00       	mov    eax,0x0
   108a1:	e8 fa fd ff ff       	call   106a0 <__sprintf_chk@plt+0xf350>
   108a6:	48 83 c5 20          	add    rbp,0x20
   108aa:	41 bd 08 00 00 00    	mov    r13d,0x8
   108b0:	4c 8d 25 c7 2a 00 00 	lea    r12,[rip+0x2ac7]        # 1337e <__sprintf_chk@plt+0x1202e>
   108b7:	44 89 ee             	mov    esi,r13d
   108ba:	48 8d 3d b8 2a 00 00 	lea    rdi,[rip+0x2ab8]        # 13379 <__sprintf_chk@plt+0x12029>
   108c1:	b8 00 00 00 00       	mov    eax,0x0
   108c6:	e8 d5 fd ff ff       	call   106a0 <__sprintf_chk@plt+0xf350>
   108cb:	48 8d 5d e0          	lea    rbx,[rbp-0x20]
   108cf:	48 63 43 04          	movsxd rax,DWORD PTR [rbx+0x4]
   108d3:	48 8b 34 c4          	mov    rsi,QWORD PTR [rsp+rax*8]
   108d7:	4c 89 e7             	mov    rdi,r12
   108da:	b8 00 00 00 00       	mov    eax,0x0
   108df:	e8 bc fd ff ff       	call   106a0 <__sprintf_chk@plt+0xf350>
   108e4:	48 83 c3 04          	add    rbx,0x4
   108e8:	48 39 eb             	cmp    rbx,rbp
   108eb:	75 e2                	jne    108cf <__sprintf_chk@plt+0xf57f>
   108ed:	48 8d 35 24 2b 00 00 	lea    rsi,[rip+0x2b24]        # 13418 <__sprintf_chk@plt+0x120c8>
   108f4:	48 8d 3d 89 2a 00 00 	lea    rdi,[rip+0x2a89]        # 13384 <__sprintf_chk@plt+0x12034>
   108fb:	b8 00 00 00 00       	mov    eax,0x0
   10900:	e8 9b fd ff ff       	call   106a0 <__sprintf_chk@plt+0xf350>
   10905:	48 83 c5 20          	add    rbp,0x20
   10909:	41 ff cd             	dec    r13d
   1090c:	75 a9                	jne    108b7 <__sprintf_chk@plt+0xf567>
   1090e:	48 8d 3d 33 2b 00 00 	lea    rdi,[rip+0x2b33]        # 13448 <__sprintf_chk@plt+0x120f8>
   10915:	b8 00 00 00 00       	mov    eax,0x0
   1091a:	e8 81 fd ff ff       	call   106a0 <__sprintf_chk@plt+0xf350>
   1091f:	48 8b 44 24 78       	mov    rax,QWORD PTR [rsp+0x78]
   10924:	64 48 33 04 25 28 00 	xor    rax,QWORD PTR fs:0x28
   1092b:	00 00 
   1092d:	0f 85 a6 00 00 00    	jne    109d9 <__sprintf_chk@plt+0xf689>
   10933:	48 81 c4 88 00 00 00 	add    rsp,0x88
   1093a:	5b                   	pop    rbx
   1093b:	5d                   	pop    rbp
   1093c:	41 5c                	pop    r12
   1093e:	41 5d                	pop    r13
   10940:	c3                   	ret    
   10941:	48 8d 35 d0 2a 00 00 	lea    rsi,[rip+0x2ad0]        # 13418 <__sprintf_chk@plt+0x120c8>
   10948:	48 8d 3d 36 2a 00 00 	lea    rdi,[rip+0x2a36]        # 13385 <__sprintf_chk@plt+0x12035>
   1094f:	b8 00 00 00 00       	mov    eax,0x0
   10954:	e8 47 fd ff ff       	call   106a0 <__sprintf_chk@plt+0xf350>
   10959:	48 81 c5 e0 00 00 00 	add    rbp,0xe0
   10960:	41 bd 08 00 00 00    	mov    r13d,0x8
   10966:	4c 8d 25 11 2a 00 00 	lea    r12,[rip+0x2a11]        # 1337e <__sprintf_chk@plt+0x1202e>
   1096d:	44 89 ee             	mov    esi,r13d
   10970:	48 8d 3d 02 2a 00 00 	lea    rdi,[rip+0x2a02]        # 13379 <__sprintf_chk@plt+0x12029>
   10977:	b8 00 00 00 00       	mov    eax,0x0
   1097c:	e8 1f fd ff ff       	call   106a0 <__sprintf_chk@plt+0xf350>
   10981:	48 8d 5d 20          	lea    rbx,[rbp+0x20]
   10985:	48 63 03             	movsxd rax,DWORD PTR [rbx]
   10988:	48 8b 34 c4          	mov    rsi,QWORD PTR [rsp+rax*8]
   1098c:	4c 89 e7             	mov    rdi,r12
   1098f:	b8 00 00 00 00       	mov    eax,0x0
   10994:	e8 07 fd ff ff       	call   106a0 <__sprintf_chk@plt+0xf350>
   10999:	48 83 eb 04          	sub    rbx,0x4
   1099d:	48 39 eb             	cmp    rbx,rbp
   109a0:	75 e3                	jne    10985 <__sprintf_chk@plt+0xf635>
   109a2:	48 8d 35 6f 2a 00 00 	lea    rsi,[rip+0x2a6f]        # 13418 <__sprintf_chk@plt+0x120c8>
   109a9:	48 8d 3d d4 29 00 00 	lea    rdi,[rip+0x29d4]        # 13384 <__sprintf_chk@plt+0x12034>
   109b0:	b8 00 00 00 00       	mov    eax,0x0
   109b5:	e8 e6 fc ff ff       	call   106a0 <__sprintf_chk@plt+0xf350>
   109ba:	48 83 ed 20          	sub    rbp,0x20
   109be:	41 ff cd             	dec    r13d
   109c1:	75 aa                	jne    1096d <__sprintf_chk@plt+0xf61d>
   109c3:	48 8d 3d ae 2a 00 00 	lea    rdi,[rip+0x2aae]        # 13478 <__sprintf_chk@plt+0x12128>
   109ca:	b8 00 00 00 00       	mov    eax,0x0
   109cf:	e8 cc fc ff ff       	call   106a0 <__sprintf_chk@plt+0xf350>
   109d4:	e9 46 ff ff ff       	jmp    1091f <__sprintf_chk@plt+0xf5cf>
   109d9:	e8 62 08 ff ff       	call   1240 <__stack_chk_fail@plt>
   109de:	f3 0f 1e fa          	endbr64 
   109e2:	41 55                	push   r13
   109e4:	41 54                	push   r12
   109e6:	55                   	push   rbp
   109e7:	53                   	push   rbx
   109e8:	48 81 ec a8 02 00 00 	sub    rsp,0x2a8
   109ef:	64 48 8b 04 25 28 00 	mov    rax,QWORD PTR fs:0x28
   109f6:	00 00 
   109f8:	48 89 84 24 98 02 00 	mov    QWORD PTR [rsp+0x298],rax
   109ff:	00 
   10a00:	31 c0                	xor    eax,eax
   10a02:	c6 44 24 10 00       	mov    BYTE PTR [rsp+0x10],0x0
   10a07:	83 bf d8 01 00 00 01 	cmp    DWORD PTR [rdi+0x1d8],0x1
   10a0e:	7e 76                	jle    10a86 <__sprintf_chk@plt+0xf736>
   10a10:	48 89 fd             	mov    rbp,rdi
   10a13:	bb 01 00 00 00       	mov    ebx,0x1
   10a18:	4c 8d 64 24 10       	lea    r12,[rsp+0x10]
   10a1d:	eb 3f                	jmp    10a5e <__sprintf_chk@plt+0xf70e>
   10a1f:	4c 8d 6c 24 06       	lea    r13,[rsp+0x6]
   10a24:	4c 89 ea             	mov    rdx,r13
   10a27:	48 89 ef             	mov    rdi,rbp
   10a2a:	e8 da f2 ff ff       	call   fd09 <__sprintf_chk@plt+0xe9b9>
   10a2f:	ba 80 02 00 00       	mov    edx,0x280
   10a34:	4c 89 ee             	mov    rsi,r13
   10a37:	4c 89 e7             	mov    rdi,r12
   10a3a:	e8 91 07 ff ff       	call   11d0 <__strcat_chk@plt>
   10a3f:	ba 80 02 00 00       	mov    edx,0x280
   10a44:	48 8d 35 57 29 00 00 	lea    rsi,[rip+0x2957]        # 133a2 <__sprintf_chk@plt+0x12052>
   10a4b:	4c 89 e7             	mov    rdi,r12
   10a4e:	e8 7d 07 ff ff       	call   11d0 <__strcat_chk@plt>
   10a53:	48 ff c3             	inc    rbx
   10a56:	39 9d d8 01 00 00    	cmp    DWORD PTR [rbp+0x1d8],ebx
   10a5c:	7e 28                	jle    10a86 <__sprintf_chk@plt+0xf736>
   10a5e:	8b b4 9d f0 09 00 00 	mov    esi,DWORD PTR [rbp+rbx*4+0x9f0]
   10a65:	89 f0                	mov    eax,esi
   10a67:	c1 f8 06             	sar    eax,0x6
   10a6a:	09 f0                	or     eax,esi
   10a6c:	a8 3f                	test   al,0x3f
   10a6e:	75 af                	jne    10a1f <__sprintf_chk@plt+0xf6cf>
   10a70:	ba 80 02 00 00       	mov    edx,0x280
   10a75:	48 8d 35 0f 29 00 00 	lea    rsi,[rip+0x290f]        # 1338b <__sprintf_chk@plt+0x1203b>
   10a7c:	4c 89 e7             	mov    rdi,r12
   10a7f:	e8 4c 07 ff ff       	call   11d0 <__strcat_chk@plt>
   10a84:	eb b9                	jmp    10a3f <__sprintf_chk@plt+0xf6ef>
   10a86:	48 8d 5c 24 10       	lea    rbx,[rsp+0x10]
   10a8b:	ba 80 02 00 00       	mov    edx,0x280
   10a90:	48 8d 35 7f 29 00 00 	lea    rsi,[rip+0x297f]        # 13416 <__sprintf_chk@plt+0x120c6>
   10a97:	48 89 df             	mov    rdi,rbx
   10a9a:	e8 31 07 ff ff       	call   11d0 <__strcat_chk@plt>
   10a9f:	48 89 df             	mov    rdi,rbx
   10aa2:	b8 00 00 00 00       	mov    eax,0x0
   10aa7:	e8 f4 fb ff ff       	call   106a0 <__sprintf_chk@plt+0xf350>
   10aac:	48 8b 84 24 98 02 00 	mov    rax,QWORD PTR [rsp+0x298]
   10ab3:	00 
   10ab4:	64 48 33 04 25 28 00 	xor    rax,QWORD PTR fs:0x28
   10abb:	00 00 
   10abd:	75 0e                	jne    10acd <__sprintf_chk@plt+0xf77d>
   10abf:	48 81 c4 a8 02 00 00 	add    rsp,0x2a8
   10ac6:	5b                   	pop    rbx
   10ac7:	5d                   	pop    rbp
   10ac8:	41 5c                	pop    r12
   10aca:	41 5d                	pop    r13
   10acc:	c3                   	ret    
   10acd:	e8 6e 07 ff ff       	call   1240 <__stack_chk_fail@plt>
   10ad2:	f3 0f 1e fa          	endbr64 
   10ad6:	55                   	push   rbp
   10ad7:	53                   	push   rbx
   10ad8:	48 81 ec 98 02 00 00 	sub    rsp,0x298
   10adf:	bd 28 00 00 00       	mov    ebp,0x28
   10ae4:	64 48 8b 45 00       	mov    rax,QWORD PTR fs:[rbp+0x0]
   10ae9:	48 89 84 24 88 02 00 	mov    QWORD PTR [rsp+0x288],rax
   10af0:	00 
   10af1:	31 c0                	xor    eax,eax
   10af3:	c6 04 24 00          	mov    BYTE PTR [rsp],0x0
   10af7:	48 89 e3             	mov    rbx,rsp
   10afa:	48 89 da             	mov    rdx,rbx
   10afd:	be 3c 00 00 00       	mov    esi,0x3c
   10b02:	e8 7c f4 ff ff       	call   ff83 <__sprintf_chk@plt+0xec33>
   10b07:	ba 80 02 00 00       	mov    edx,0x280
   10b0c:	48 8d 35 03 29 00 00 	lea    rsi,[rip+0x2903]        # 13416 <__sprintf_chk@plt+0x120c6>
   10b13:	48 89 df             	mov    rdi,rbx
   10b16:	e8 b5 06 ff ff       	call   11d0 <__strcat_chk@plt>
   10b1b:	48 89 df             	mov    rdi,rbx
   10b1e:	b8 00 00 00 00       	mov    eax,0x0
   10b23:	e8 78 fb ff ff       	call   106a0 <__sprintf_chk@plt+0xf350>
   10b28:	48 8b 84 24 88 02 00 	mov    rax,QWORD PTR [rsp+0x288]
   10b2f:	00 
   10b30:	64 48 33 45 00       	xor    rax,QWORD PTR fs:[rbp+0x0]
   10b35:	75 0a                	jne    10b41 <__sprintf_chk@plt+0xf7f1>
   10b37:	48 81 c4 98 02 00 00 	add    rsp,0x298
   10b3e:	5b                   	pop    rbx
   10b3f:	5d                   	pop    rbp
   10b40:	c3                   	ret    
   10b41:	e8 fa 06 ff ff       	call   1240 <__stack_chk_fail@plt>
   10b46:	f3 0f 1e fa          	endbr64 
   10b4a:	41 55                	push   r13
   10b4c:	41 54                	push   r12
   10b4e:	55                   	push   rbp
   10b4f:	53                   	push   rbx
   10b50:	48 81 ec 18 04 00 00 	sub    rsp,0x418
   10b57:	48 89 fb             	mov    rbx,rdi
   10b5a:	41 89 f4             	mov    r12d,esi
   10b5d:	89 d5                	mov    ebp,edx
   10b5f:	64 48 8b 04 25 28 00 	mov    rax,QWORD PTR fs:0x28
   10b66:	00 00 
   10b68:	48 89 84 24 08 04 00 	mov    QWORD PTR [rsp+0x408],rax
   10b6f:	00 
   10b70:	31 c0                	xor    eax,eax
   10b72:	8b 35 dc d8 b6 00    	mov    esi,DWORD PTR [rip+0xb6d8dc]        # b7e454 <stdin@@GLIBC_2.2.5+0xb67424>
   10b78:	83 fe 02             	cmp    esi,0x2
   10b7b:	7f 0d                	jg     10b8a <__sprintf_chk@plt+0xf83a>
   10b7d:	83 3d f4 d8 b6 00 02 	cmp    DWORD PTR [rip+0xb6d8f4],0x2        # b7e478 <stdin@@GLIBC_2.2.5+0xb67448>
   10b84:	0f 8f 0b 01 00 00    	jg     10c95 <__sprintf_chk@plt+0xf945>
   10b8a:	83 3d 6b d4 b2 00 00 	cmp    DWORD PTR [rip+0xb2d46b],0x0        # b3dffc <stdin@@GLIBC_2.2.5+0xb26fcc>
   10b91:	0f 85 23 01 00 00    	jne    10cba <__sprintf_chk@plt+0xf96a>
   10b97:	4c 8b 83 f0 0f 00 00 	mov    r8,QWORD PTR [rbx+0xff0]
   10b9e:	b9 00 00 00 00       	mov    ecx,0x0
   10ba3:	44 89 e2             	mov    edx,r12d
   10ba6:	48 8d 3d e3 27 00 00 	lea    rdi,[rip+0x27e3]        # 13390 <__sprintf_chk@plt+0x12040>
   10bad:	b8 00 00 00 00       	mov    eax,0x0
   10bb2:	e8 e9 fa ff ff       	call   106a0 <__sprintf_chk@plt+0xf350>
   10bb7:	41 bc 00 00 00 00    	mov    r12d,0x0
   10bbd:	83 bb d8 01 00 00 01 	cmp    DWORD PTR [rbx+0x1d8],0x1
   10bc4:	0f 8f c2 01 00 00    	jg     10d8c <__sprintf_chk@plt+0xfa3c>
   10bca:	48 89 e6             	mov    rsi,rsp
   10bcd:	b9 00 00 00 00       	mov    ecx,0x0
   10bd2:	bf 00 02 00 00       	mov    edi,0x200
   10bd7:	ba 00 00 00 00       	mov    edx,0x0
   10bdc:	89 d0                	mov    eax,edx
   10bde:	48 89 0c 06          	mov    QWORD PTR [rsi+rax*1],rcx
   10be2:	48 89 4c 06 08       	mov    QWORD PTR [rsi+rax*1+0x8],rcx
   10be7:	48 89 4c 06 10       	mov    QWORD PTR [rsi+rax*1+0x10],rcx
   10bec:	48 89 4c 06 18       	mov    QWORD PTR [rsi+rax*1+0x18],rcx
   10bf1:	83 c2 20             	add    edx,0x20
   10bf4:	39 fa                	cmp    edx,edi
   10bf6:	72 e4                	jb     10bdc <__sprintf_chk@plt+0xf88c>
   10bf8:	83 3d fd d3 b2 00 00 	cmp    DWORD PTR [rip+0xb2d3fd],0x0        # b3dffc <stdin@@GLIBC_2.2.5+0xb26fcc>
   10bff:	0f 85 9c 01 00 00    	jne    10da1 <__sprintf_chk@plt+0xfa51>
   10c05:	48 8d 94 24 00 02 00 	lea    rdx,[rsp+0x200]
   10c0c:	00 
   10c0d:	89 ee                	mov    esi,ebp
   10c0f:	48 89 df             	mov    rdi,rbx
   10c12:	e8 b0 ea ff ff       	call   f6c7 <__sprintf_chk@plt+0xe377>
   10c17:	48 8d b4 24 00 02 00 	lea    rsi,[rsp+0x200]
   10c1e:	00 
   10c1f:	49 89 e5             	mov    r13,rsp
   10c22:	ba 00 02 00 00       	mov    edx,0x200
   10c27:	4c 89 ef             	mov    rdi,r13
   10c2a:	e8 b1 06 ff ff       	call   12e0 <__strcpy_chk@plt>
   10c2f:	ba 00 02 00 00       	mov    edx,0x200
   10c34:	48 8d 35 67 27 00 00 	lea    rsi,[rip+0x2767]        # 133a2 <__sprintf_chk@plt+0x12052>
   10c3b:	4c 89 ef             	mov    rdi,r13
   10c3e:	e8 8d 05 ff ff       	call   11d0 <__strcat_chk@plt>
   10c43:	89 ee                	mov    esi,ebp
   10c45:	48 89 df             	mov    rdi,rbx
   10c48:	e8 44 5b ff ff       	call   6791 <__sprintf_chk@plt+0x5441>
   10c4d:	4c 89 ea             	mov    rdx,r13
   10c50:	be 3c 00 00 00       	mov    esi,0x3c
   10c55:	48 89 df             	mov    rdi,rbx
   10c58:	e8 26 f3 ff ff       	call   ff83 <__sprintf_chk@plt+0xec33>
   10c5d:	4c 89 ee             	mov    rsi,r13
   10c60:	48 8d 3d 3d 27 00 00 	lea    rdi,[rip+0x273d]        # 133a4 <__sprintf_chk@plt+0x12054>
   10c67:	b8 00 00 00 00       	mov    eax,0x0
   10c6c:	e8 2f fa ff ff       	call   106a0 <__sprintf_chk@plt+0xf350>
   10c71:	89 ee                	mov    esi,ebp
   10c73:	48 89 df             	mov    rdi,rbx
   10c76:	e8 e2 63 ff ff       	call   705d <__sprintf_chk@plt+0x5d0d>
   10c7b:	45 85 e4             	test   r12d,r12d
   10c7e:	0f 85 34 01 00 00    	jne    10db8 <__sprintf_chk@plt+0xfa68>
   10c84:	48 8d 3d 8b 27 00 00 	lea    rdi,[rip+0x278b]        # 13416 <__sprintf_chk@plt+0x120c6>
   10c8b:	b8 00 00 00 00       	mov    eax,0x0
   10c90:	e8 0b fa ff ff       	call   106a0 <__sprintf_chk@plt+0xf350>
   10c95:	48 8b 84 24 08 04 00 	mov    rax,QWORD PTR [rsp+0x408]
   10c9c:	00 
   10c9d:	64 48 33 04 25 28 00 	xor    rax,QWORD PTR fs:0x28
   10ca4:	00 00 
   10ca6:	0f 85 1b 01 00 00    	jne    10dc7 <__sprintf_chk@plt+0xfa77>
   10cac:	48 81 c4 18 04 00 00 	add    rsp,0x418
   10cb3:	5b                   	pop    rbx
   10cb4:	5d                   	pop    rbp
   10cb5:	41 5c                	pop    r12
   10cb7:	41 5d                	pop    r13
   10cb9:	c3                   	ret    
   10cba:	44 89 c2             	mov    edx,r8d
   10cbd:	48 89 ce             	mov    rsi,rcx
   10cc0:	48 8d 3d e1 27 00 00 	lea    rdi,[rip+0x27e1]        # 134a8 <__sprintf_chk@plt+0x12158>
   10cc7:	b8 00 00 00 00       	mov    eax,0x0
   10ccc:	e8 cf f9 ff ff       	call   106a0 <__sprintf_chk@plt+0xf350>
   10cd1:	41 8d 84 24 0f 27 00 	lea    eax,[r12+0x270f]
   10cd8:	00 
   10cd9:	3d 1e 4e 00 00       	cmp    eax,0x4e1e
   10cde:	76 60                	jbe    10d40 <__sprintf_chk@plt+0xf9f0>
   10ce0:	be 01 00 00 00       	mov    esi,0x1
   10ce5:	45 85 e4             	test   r12d,r12d
   10ce8:	0f 88 91 00 00 00    	js     10d7f <__sprintf_chk@plt+0xfa2f>
   10cee:	8b 93 00 10 00 00    	mov    edx,DWORD PTR [rbx+0x1000]
   10cf4:	48 83 ec 08          	sub    rsp,0x8
   10cf8:	b8 00 7d 00 00       	mov    eax,0x7d00
   10cfd:	44 29 e0             	sub    eax,r12d
   10d00:	89 c1                	mov    ecx,eax
   10d02:	c1 e9 1f             	shr    ecx,0x1f
   10d05:	01 c8                	add    eax,ecx
   10d07:	d1 f8                	sar    eax,1
   10d09:	0f af c6             	imul   eax,esi
   10d0c:	50                   	push   rax
   10d0d:	44 8b 0d b0 d0 b2 00 	mov    r9d,DWORD PTR [rip+0xb2d0b0]        # b3ddc4 <stdin@@GLIBC_2.2.5+0xb26d94>
   10d14:	4c 8b 83 f0 0f 00 00 	mov    r8,QWORD PTR [rbx+0xff0]
   10d1b:	b9 00 00 00 00       	mov    ecx,0x0
   10d20:	8b 35 2e d7 b6 00    	mov    esi,DWORD PTR [rip+0xb6d72e]        # b7e454 <stdin@@GLIBC_2.2.5+0xb67424>
   10d26:	48 8d 3d fb 27 00 00 	lea    rdi,[rip+0x27fb]        # 13528 <__sprintf_chk@plt+0x121d8>
   10d2d:	b8 00 00 00 00       	mov    eax,0x0
   10d32:	e8 69 f9 ff ff       	call   106a0 <__sprintf_chk@plt+0xf350>
   10d37:	48 83 c4 10          	add    rsp,0x10
   10d3b:	e9 77 fe ff ff       	jmp    10bb7 <__sprintf_chk@plt+0xf867>
   10d40:	8b 93 00 10 00 00    	mov    edx,DWORD PTR [rbx+0x1000]
   10d46:	48 83 ec 08          	sub    rsp,0x8
   10d4a:	41 54                	push   r12
   10d4c:	44 8b 0d 71 d0 b2 00 	mov    r9d,DWORD PTR [rip+0xb2d071]        # b3ddc4 <stdin@@GLIBC_2.2.5+0xb26d94>
   10d53:	4c 8b 83 f0 0f 00 00 	mov    r8,QWORD PTR [rbx+0xff0]
   10d5a:	b9 00 00 00 00       	mov    ecx,0x0
   10d5f:	8b 35 ef d6 b6 00    	mov    esi,DWORD PTR [rip+0xb6d6ef]        # b7e454 <stdin@@GLIBC_2.2.5+0xb67424>
   10d65:	48 8d 3d 64 27 00 00 	lea    rdi,[rip+0x2764]        # 134d0 <__sprintf_chk@plt+0x12180>
   10d6c:	b8 00 00 00 00       	mov    eax,0x0
   10d71:	e8 2a f9 ff ff       	call   106a0 <__sprintf_chk@plt+0xf350>
   10d76:	48 83 c4 10          	add    rsp,0x10
   10d7a:	e9 38 fe ff ff       	jmp    10bb7 <__sprintf_chk@plt+0xf867>
   10d7f:	41 f7 dc             	neg    r12d
   10d82:	be ff ff ff ff       	mov    esi,0xffffffff
   10d87:	e9 62 ff ff ff       	jmp    10cee <__sprintf_chk@plt+0xf99e>
   10d8c:	89 ee                	mov    esi,ebp
   10d8e:	48 89 df             	mov    rdi,rbx
   10d91:	e8 c7 62 ff ff       	call   705d <__sprintf_chk@plt+0x5d0d>
   10d96:	41 bc 01 00 00 00    	mov    r12d,0x1
   10d9c:	e9 29 fe ff ff       	jmp    10bca <__sprintf_chk@plt+0xf87a>
   10da1:	48 8d 94 24 00 02 00 	lea    rdx,[rsp+0x200]
   10da8:	00 
   10da9:	89 ee                	mov    esi,ebp
   10dab:	48 89 df             	mov    rdi,rbx
   10dae:	e8 56 ef ff ff       	call   fd09 <__sprintf_chk@plt+0xe9b9>
   10db3:	e9 5f fe ff ff       	jmp    10c17 <__sprintf_chk@plt+0xf8c7>
   10db8:	89 ee                	mov    esi,ebp
   10dba:	48 89 df             	mov    rdi,rbx
   10dbd:	e8 cf 59 ff ff       	call   6791 <__sprintf_chk@plt+0x5441>
   10dc2:	e9 bd fe ff ff       	jmp    10c84 <__sprintf_chk@plt+0xf934>
   10dc7:	e8 74 04 ff ff       	call   1240 <__stack_chk_fail@plt>
   10dcc:	f3 0f 1e fa          	endbr64 
   10dd0:	41 54                	push   r12
   10dd2:	55                   	push   rbp
   10dd3:	53                   	push   rbx
   10dd4:	48 81 ec 10 02 00 00 	sub    rsp,0x210
   10ddb:	48 89 fb             	mov    rbx,rdi
   10dde:	89 d5                	mov    ebp,edx
   10de0:	45 89 c4             	mov    r12d,r8d
   10de3:	64 48 8b 04 25 28 00 	mov    rax,QWORD PTR fs:0x28
   10dea:	00 00 
   10dec:	48 89 84 24 08 02 00 	mov    QWORD PTR [rsp+0x208],rax
   10df3:	00 
   10df4:	31 c0                	xor    eax,eax
   10df6:	8b 3d 58 d6 b6 00    	mov    edi,DWORD PTR [rip+0xb6d658]        # b7e454 <stdin@@GLIBC_2.2.5+0xb67424>
   10dfc:	83 ff 02             	cmp    edi,0x2
   10dff:	7f 0d                	jg     10e0e <__sprintf_chk@plt+0xfabe>
   10e01:	83 3d 70 d6 b6 00 02 	cmp    DWORD PTR [rip+0xb6d670],0x2        # b7e478 <stdin@@GLIBC_2.2.5+0xb67448>
   10e08:	0f 8f d5 00 00 00    	jg     10ee3 <__sprintf_chk@plt+0xfb93>
   10e0e:	83 3d e7 d1 b2 00 00 	cmp    DWORD PTR [rip+0xb2d1e7],0x0        # b3dffc <stdin@@GLIBC_2.2.5+0xb26fcc>
   10e15:	0f 84 eb 00 00 00    	je     10f06 <__sprintf_chk@plt+0xfbb6>
   10e1b:	8d 86 0f 27 00 00    	lea    eax,[rsi+0x270f]
   10e21:	3d 1e 4e 00 00       	cmp    eax,0x4e1e
   10e26:	0f 86 00 01 00 00    	jbe    10f2c <__sprintf_chk@plt+0xfbdc>
   10e2c:	41 b8 01 00 00 00    	mov    r8d,0x1
   10e32:	85 f6                	test   esi,esi
   10e34:	0f 88 2c 01 00 00    	js     10f66 <__sprintf_chk@plt+0xfc16>
   10e3a:	8b 93 00 10 00 00    	mov    edx,DWORD PTR [rbx+0x1000]
   10e40:	48 83 ec 08          	sub    rsp,0x8
   10e44:	b8 00 7d 00 00       	mov    eax,0x7d00
   10e49:	29 f0                	sub    eax,esi
   10e4b:	89 c1                	mov    ecx,eax
   10e4d:	c1 e9 1f             	shr    ecx,0x1f
   10e50:	01 c8                	add    eax,ecx
   10e52:	d1 f8                	sar    eax,1
   10e54:	41 0f af c0          	imul   eax,r8d
   10e58:	50                   	push   rax
   10e59:	44 8b 0d 64 cf b2 00 	mov    r9d,DWORD PTR [rip+0xb2cf64]        # b3ddc4 <stdin@@GLIBC_2.2.5+0xb26d94>
   10e60:	4c 8b 83 f0 0f 00 00 	mov    r8,QWORD PTR [rbx+0xff0]
   10e67:	b9 00 00 00 00       	mov    ecx,0x0
   10e6c:	89 fe                	mov    esi,edi
   10e6e:	48 8d 3d 0b 27 00 00 	lea    rdi,[rip+0x270b]        # 13580 <__sprintf_chk@plt+0x12230>
   10e75:	b8 00 00 00 00       	mov    eax,0x0
   10e7a:	e8 21 f8 ff ff       	call   106a0 <__sprintf_chk@plt+0xf350>
   10e7f:	48 83 c4 10          	add    rsp,0x10
   10e83:	89 ee                	mov    esi,ebp
   10e85:	48 89 df             	mov    rdi,rbx
   10e88:	e8 d0 61 ff ff       	call   705d <__sprintf_chk@plt+0x5d0d>
   10e8d:	83 3d 68 d1 b2 00 00 	cmp    DWORD PTR [rip+0xb2d168],0x0        # b3dffc <stdin@@GLIBC_2.2.5+0xb26fcc>
   10e94:	0f 85 d9 00 00 00    	jne    10f73 <__sprintf_chk@plt+0xfc23>
   10e9a:	48 89 e2             	mov    rdx,rsp
   10e9d:	89 ee                	mov    esi,ebp
   10e9f:	48 89 df             	mov    rdi,rbx
   10ea2:	e8 20 e8 ff ff       	call   f6c7 <__sprintf_chk@plt+0xe377>
   10ea7:	89 ee                	mov    esi,ebp
   10ea9:	48 89 df             	mov    rdi,rbx
   10eac:	e8 e0 58 ff ff       	call   6791 <__sprintf_chk@plt+0x5441>
   10eb1:	83 3d 44 d1 b2 00 00 	cmp    DWORD PTR [rip+0xb2d144],0x0        # b3dffc <stdin@@GLIBC_2.2.5+0xb26fcc>
   10eb8:	0f 85 c7 00 00 00    	jne    10f85 <__sprintf_chk@plt+0xfc35>
   10ebe:	48 89 e6             	mov    rsi,rsp
   10ec1:	48 8d 3d df 24 00 00 	lea    rdi,[rip+0x24df]        # 133a7 <__sprintf_chk@plt+0x12057>
   10ec8:	b8 00 00 00 00       	mov    eax,0x0
   10ecd:	e8 ce f7 ff ff       	call   106a0 <__sprintf_chk@plt+0xf350>
   10ed2:	48 8d 3d 3d 25 00 00 	lea    rdi,[rip+0x253d]        # 13416 <__sprintf_chk@plt+0x120c6>
   10ed9:	b8 00 00 00 00       	mov    eax,0x0
   10ede:	e8 bd f7 ff ff       	call   106a0 <__sprintf_chk@plt+0xf350>
   10ee3:	48 8b 84 24 08 02 00 	mov    rax,QWORD PTR [rsp+0x208]
   10eea:	00 
   10eeb:	64 48 33 04 25 28 00 	xor    rax,QWORD PTR fs:0x28
   10ef2:	00 00 
   10ef4:	0f 85 cf 00 00 00    	jne    10fc9 <__sprintf_chk@plt+0xfc79>
   10efa:	48 81 c4 10 02 00 00 	add    rsp,0x210
   10f01:	5b                   	pop    rbx
   10f02:	5d                   	pop    rbp
   10f03:	41 5c                	pop    r12
   10f05:	c3                   	ret    
   10f06:	4c 8b 83 f0 0f 00 00 	mov    r8,QWORD PTR [rbx+0xff0]
   10f0d:	b9 00 00 00 00       	mov    ecx,0x0
   10f12:	89 f2                	mov    edx,esi
   10f14:	89 fe                	mov    esi,edi
   10f16:	48 8d 3d 73 24 00 00 	lea    rdi,[rip+0x2473]        # 13390 <__sprintf_chk@plt+0x12040>
   10f1d:	b8 00 00 00 00       	mov    eax,0x0
   10f22:	e8 79 f7 ff ff       	call   106a0 <__sprintf_chk@plt+0xf350>
   10f27:	e9 57 ff ff ff       	jmp    10e83 <__sprintf_chk@plt+0xfb33>
   10f2c:	8b 93 00 10 00 00    	mov    edx,DWORD PTR [rbx+0x1000]
   10f32:	48 83 ec 08          	sub    rsp,0x8
   10f36:	56                   	push   rsi
   10f37:	44 8b 0d 86 ce b2 00 	mov    r9d,DWORD PTR [rip+0xb2ce86]        # b3ddc4 <stdin@@GLIBC_2.2.5+0xb26d94>
   10f3e:	4c 8b 83 f0 0f 00 00 	mov    r8,QWORD PTR [rbx+0xff0]
   10f45:	b9 00 00 00 00       	mov    ecx,0x0
   10f4a:	89 fe                	mov    esi,edi
   10f4c:	48 8d 3d 2d 26 00 00 	lea    rdi,[rip+0x262d]        # 13580 <__sprintf_chk@plt+0x12230>
   10f53:	b8 00 00 00 00       	mov    eax,0x0
   10f58:	e8 43 f7 ff ff       	call   106a0 <__sprintf_chk@plt+0xf350>
   10f5d:	48 83 c4 10          	add    rsp,0x10
   10f61:	e9 1d ff ff ff       	jmp    10e83 <__sprintf_chk@plt+0xfb33>
   10f66:	f7 de                	neg    esi
   10f68:	41 b8 ff ff ff ff    	mov    r8d,0xffffffff
   10f6e:	e9 c7 fe ff ff       	jmp    10e3a <__sprintf_chk@plt+0xfaea>
   10f73:	48 89 e2             	mov    rdx,rsp
   10f76:	89 ee                	mov    esi,ebp
   10f78:	48 89 df             	mov    rdi,rbx
   10f7b:	e8 89 ed ff ff       	call   fd09 <__sprintf_chk@plt+0xe9b9>
   10f80:	e9 22 ff ff ff       	jmp    10ea7 <__sprintf_chk@plt+0xfb57>
   10f85:	48 89 e3             	mov    rbx,rsp
   10f88:	48 89 de             	mov    rsi,rbx
   10f8b:	48 8d 3d 12 24 00 00 	lea    rdi,[rip+0x2412]        # 133a4 <__sprintf_chk@plt+0x12054>
   10f92:	b8 00 00 00 00       	mov    eax,0x0
   10f97:	e8 04 f7 ff ff       	call   106a0 <__sprintf_chk@plt+0xf350>
   10f9c:	48 8d 3d 73 24 00 00 	lea    rdi,[rip+0x2473]        # 13416 <__sprintf_chk@plt+0x120c6>
   10fa3:	b8 00 00 00 00       	mov    eax,0x0
   10fa8:	e8 f3 f6 ff ff       	call   106a0 <__sprintf_chk@plt+0xf350>
   10fad:	44 89 e2             	mov    edx,r12d
   10fb0:	48 89 de             	mov    rsi,rbx
   10fb3:	48 8d 3d 26 26 00 00 	lea    rdi,[rip+0x2626]        # 135e0 <__sprintf_chk@plt+0x12290>
   10fba:	b8 00 00 00 00       	mov    eax,0x0
   10fbf:	e8 dc f6 ff ff       	call   106a0 <__sprintf_chk@plt+0xf350>
   10fc4:	e9 09 ff ff ff       	jmp    10ed2 <__sprintf_chk@plt+0xfb82>
   10fc9:	e8 72 02 ff ff       	call   1240 <__stack_chk_fail@plt>
   10fce:	f3 0f 1e fa          	endbr64 
   10fd2:	41 54                	push   r12
   10fd4:	55                   	push   rbp
   10fd5:	53                   	push   rbx
   10fd6:	48 81 ec 10 02 00 00 	sub    rsp,0x210
   10fdd:	48 89 fb             	mov    rbx,rdi
   10fe0:	41 89 f4             	mov    r12d,esi
   10fe3:	89 d5                	mov    ebp,edx
   10fe5:	64 48 8b 04 25 28 00 	mov    rax,QWORD PTR fs:0x28
   10fec:	00 00 
   10fee:	48 89 84 24 08 02 00 	mov    QWORD PTR [rsp+0x208],rax
   10ff5:	00 
   10ff6:	31 c0                	xor    eax,eax
   10ff8:	8b 35 56 d4 b6 00    	mov    esi,DWORD PTR [rip+0xb6d456]        # b7e454 <stdin@@GLIBC_2.2.5+0xb67424>
   10ffe:	83 fe 02             	cmp    esi,0x2
   11001:	7f 0d                	jg     11010 <__sprintf_chk@plt+0xfcc0>
   11003:	83 3d 6e d4 b6 00 02 	cmp    DWORD PTR [rip+0xb6d46e],0x2        # b7e478 <stdin@@GLIBC_2.2.5+0xb67448>
   1100a:	0f 8f 8d 00 00 00    	jg     1109d <__sprintf_chk@plt+0xfd4d>
   11010:	83 3d e5 cf b2 00 00 	cmp    DWORD PTR [rip+0xb2cfe5],0x0        # b3dffc <stdin@@GLIBC_2.2.5+0xb26fcc>
   11017:	0f 85 a3 00 00 00    	jne    110c0 <__sprintf_chk@plt+0xfd70>
   1101d:	4c 8b 83 f0 0f 00 00 	mov    r8,QWORD PTR [rbx+0xff0]
   11024:	b9 00 00 00 00       	mov    ecx,0x0
   11029:	44 89 e2             	mov    edx,r12d
   1102c:	48 8d 3d 5d 23 00 00 	lea    rdi,[rip+0x235d]        # 13390 <__sprintf_chk@plt+0x12040>
   11033:	b8 00 00 00 00       	mov    eax,0x0
   11038:	e8 63 f6 ff ff       	call   106a0 <__sprintf_chk@plt+0xf350>
   1103d:	89 ee                	mov    esi,ebp
   1103f:	48 89 df             	mov    rdi,rbx
   11042:	e8 16 60 ff ff       	call   705d <__sprintf_chk@plt+0x5d0d>
   11047:	83 3d ae cf b2 00 00 	cmp    DWORD PTR [rip+0xb2cfae],0x0        # b3dffc <stdin@@GLIBC_2.2.5+0xb26fcc>
   1104e:	0f 85 3e 01 00 00    	jne    11192 <__sprintf_chk@plt+0xfe42>
   11054:	48 89 e2             	mov    rdx,rsp
   11057:	89 ee                	mov    esi,ebp
   11059:	48 89 df             	mov    rdi,rbx
   1105c:	e8 66 e6 ff ff       	call   f6c7 <__sprintf_chk@plt+0xe377>
   11061:	89 ee                	mov    esi,ebp
   11063:	48 89 df             	mov    rdi,rbx
   11066:	e8 26 57 ff ff       	call   6791 <__sprintf_chk@plt+0x5441>
   1106b:	83 3d 8a cf b2 00 00 	cmp    DWORD PTR [rip+0xb2cf8a],0x0        # b3dffc <stdin@@GLIBC_2.2.5+0xb26fcc>
   11072:	0f 85 2c 01 00 00    	jne    111a4 <__sprintf_chk@plt+0xfe54>
   11078:	48 89 e6             	mov    rsi,rsp
   1107b:	48 8d 3d 2b 23 00 00 	lea    rdi,[rip+0x232b]        # 133ad <__sprintf_chk@plt+0x1205d>
   11082:	b8 00 00 00 00       	mov    eax,0x0
   11087:	e8 14 f6 ff ff       	call   106a0 <__sprintf_chk@plt+0xf350>
   1108c:	48 8d 3d 83 23 00 00 	lea    rdi,[rip+0x2383]        # 13416 <__sprintf_chk@plt+0x120c6>
   11093:	b8 00 00 00 00       	mov    eax,0x0
   11098:	e8 03 f6 ff ff       	call   106a0 <__sprintf_chk@plt+0xf350>
   1109d:	48 8b 84 24 08 02 00 	mov    rax,QWORD PTR [rsp+0x208]
   110a4:	00 
   110a5:	64 48 33 04 25 28 00 	xor    rax,QWORD PTR fs:0x28
   110ac:	00 00 
   110ae:	0f 85 09 01 00 00    	jne    111bd <__sprintf_chk@plt+0xfe6d>
   110b4:	48 81 c4 10 02 00 00 	add    rsp,0x210
   110bb:	5b                   	pop    rbx
   110bc:	5d                   	pop    rbp
   110bd:	41 5c                	pop    r12
   110bf:	c3                   	ret    
   110c0:	44 89 c2             	mov    edx,r8d
   110c3:	48 89 ce             	mov    rsi,rcx
   110c6:	48 8d 3d db 23 00 00 	lea    rdi,[rip+0x23db]        # 134a8 <__sprintf_chk@plt+0x12158>
   110cd:	b8 00 00 00 00       	mov    eax,0x0
   110d2:	e8 c9 f5 ff ff       	call   106a0 <__sprintf_chk@plt+0xf350>
   110d7:	41 8d 84 24 0f 27 00 	lea    eax,[r12+0x270f]
   110de:	00 
   110df:	3d 1e 4e 00 00       	cmp    eax,0x4e1e
   110e4:	76 60                	jbe    11146 <__sprintf_chk@plt+0xfdf6>
   110e6:	be 01 00 00 00       	mov    esi,0x1
   110eb:	45 85 e4             	test   r12d,r12d
   110ee:	0f 88 91 00 00 00    	js     11185 <__sprintf_chk@plt+0xfe35>
   110f4:	8b 93 00 10 00 00    	mov    edx,DWORD PTR [rbx+0x1000]
   110fa:	48 83 ec 08          	sub    rsp,0x8
   110fe:	b8 00 7d 00 00       	mov    eax,0x7d00
   11103:	44 29 e0             	sub    eax,r12d
   11106:	89 c1                	mov    ecx,eax
   11108:	c1 e9 1f             	shr    ecx,0x1f
   1110b:	01 c8                	add    eax,ecx
   1110d:	d1 f8                	sar    eax,1
   1110f:	0f af c6             	imul   eax,esi
   11112:	50                   	push   rax
   11113:	44 8b 0d aa cc b2 00 	mov    r9d,DWORD PTR [rip+0xb2ccaa]        # b3ddc4 <stdin@@GLIBC_2.2.5+0xb26d94>
   1111a:	4c 8b 83 f0 0f 00 00 	mov    r8,QWORD PTR [rbx+0xff0]
   11121:	b9 00 00 00 00       	mov    ecx,0x0
   11126:	8b 35 28 d3 b6 00    	mov    esi,DWORD PTR [rip+0xb6d328]        # b7e454 <stdin@@GLIBC_2.2.5+0xb67424>
   1112c:	48 8d 3d d5 24 00 00 	lea    rdi,[rip+0x24d5]        # 13608 <__sprintf_chk@plt+0x122b8>
   11133:	b8 00 00 00 00       	mov    eax,0x0
   11138:	e8 63 f5 ff ff       	call   106a0 <__sprintf_chk@plt+0xf350>
   1113d:	48 83 c4 10          	add    rsp,0x10
   11141:	e9 f7 fe ff ff       	jmp    1103d <__sprintf_chk@plt+0xfced>
   11146:	8b 93 00 10 00 00    	mov    edx,DWORD PTR [rbx+0x1000]
   1114c:	48 83 ec 08          	sub    rsp,0x8
   11150:	41 54                	push   r12
   11152:	44 8b 0d 6b cc b2 00 	mov    r9d,DWORD PTR [rip+0xb2cc6b]        # b3ddc4 <stdin@@GLIBC_2.2.5+0xb26d94>
   11159:	4c 8b 83 f0 0f 00 00 	mov    r8,QWORD PTR [rbx+0xff0]
   11160:	b9 00 00 00 00       	mov    ecx,0x0
   11165:	8b 35 e9 d2 b6 00    	mov    esi,DWORD PTR [rip+0xb6d2e9]        # b7e454 <stdin@@GLIBC_2.2.5+0xb67424>
   1116b:	48 8d 3d 96 24 00 00 	lea    rdi,[rip+0x2496]        # 13608 <__sprintf_chk@plt+0x122b8>
   11172:	b8 00 00 00 00       	mov    eax,0x0
   11177:	e8 24 f5 ff ff       	call   106a0 <__sprintf_chk@plt+0xf350>
   1117c:	48 83 c4 10          	add    rsp,0x10
   11180:	e9 b8 fe ff ff       	jmp    1103d <__sprintf_chk@plt+0xfced>
   11185:	41 f7 dc             	neg    r12d
   11188:	be ff ff ff ff       	mov    esi,0xffffffff
   1118d:	e9 62 ff ff ff       	jmp    110f4 <__sprintf_chk@plt+0xfda4>
   11192:	48 89 e2             	mov    rdx,rsp
   11195:	89 ee                	mov    esi,ebp
   11197:	48 89 df             	mov    rdi,rbx
   1119a:	e8 6a eb ff ff       	call   fd09 <__sprintf_chk@plt+0xe9b9>
   1119f:	e9 bd fe ff ff       	jmp    11061 <__sprintf_chk@plt+0xfd11>
   111a4:	48 89 e6             	mov    rsi,rsp
   111a7:	48 8d 3d f6 21 00 00 	lea    rdi,[rip+0x21f6]        # 133a4 <__sprintf_chk@plt+0x12054>
   111ae:	b8 00 00 00 00       	mov    eax,0x0
   111b3:	e8 e8 f4 ff ff       	call   106a0 <__sprintf_chk@plt+0xf350>
   111b8:	e9 cf fe ff ff       	jmp    1108c <__sprintf_chk@plt+0xfd3c>
   111bd:	e8 7e 00 ff ff       	call   1240 <__stack_chk_fail@plt>
   111c2:	f3 0f 1e fa          	endbr64 
   111c6:	41 57                	push   r15
   111c8:	41 56                	push   r14
   111ca:	41 55                	push   r13
   111cc:	41 54                	push   r12
   111ce:	55                   	push   rbp
   111cf:	53                   	push   rbx
   111d0:	48 81 ec 48 04 00 00 	sub    rsp,0x448
   111d7:	49 89 fc             	mov    r12,rdi
   111da:	89 d5                	mov    ebp,edx
   111dc:	41 89 cd             	mov    r13d,ecx
   111df:	64 48 8b 04 25 28 00 	mov    rax,QWORD PTR fs:0x28
   111e6:	00 00 
   111e8:	48 89 84 24 38 04 00 	mov    QWORD PTR [rsp+0x438],rax
   111ef:	00 
   111f0:	31 c0                	xor    eax,eax
   111f2:	44 8b 05 5b d2 b6 00 	mov    r8d,DWORD PTR [rip+0xb6d25b]        # b7e454 <stdin@@GLIBC_2.2.5+0xb67424>
   111f9:	41 83 f8 02          	cmp    r8d,0x2
   111fd:	7f 0d                	jg     1120c <__sprintf_chk@plt+0xfebc>
   111ff:	83 3d 72 d2 b6 00 02 	cmp    DWORD PTR [rip+0xb6d272],0x2        # b7e478 <stdin@@GLIBC_2.2.5+0xb67448>
   11206:	0f 8f f9 02 00 00    	jg     11505 <__sprintf_chk@plt+0x101b5>
   1120c:	48 63 dd             	movsxd rbx,ebp
   1120f:	48 c1 e3 09          	shl    rbx,0x9
   11213:	48 8d 05 a6 af b7 00 	lea    rax,[rip+0xb7afa6]        # b8c1c0 <stdin@@GLIBC_2.2.5+0xb75190>
   1121a:	48 01 c3             	add    rbx,rax
   1121d:	b9 00 00 00 00       	mov    ecx,0x0
   11222:	bf 00 02 00 00       	mov    edi,0x200
   11227:	ba 00 00 00 00       	mov    edx,0x0
   1122c:	89 d0                	mov    eax,edx
   1122e:	48 89 0c 03          	mov    QWORD PTR [rbx+rax*1],rcx
   11232:	48 89 4c 03 08       	mov    QWORD PTR [rbx+rax*1+0x8],rcx
   11237:	48 89 4c 03 10       	mov    QWORD PTR [rbx+rax*1+0x10],rcx
   1123c:	48 89 4c 03 18       	mov    QWORD PTR [rbx+rax*1+0x18],rcx
   11241:	83 c2 20             	add    edx,0x20
   11244:	39 fa                	cmp    edx,edi
   11246:	72 e4                	jb     1122c <__sprintf_chk@plt+0xfedc>
   11248:	48 63 c5             	movsxd rax,ebp
   1124b:	48 8d 15 ae ab b7 00 	lea    rdx,[rip+0xb7abae]        # b8be00 <stdin@@GLIBC_2.2.5+0xb74dd0>
   11252:	89 34 82             	mov    DWORD PTR [rdx+rax*4],esi
   11255:	8d 86 0f 27 00 00    	lea    eax,[rsi+0x270f]
   1125b:	3d 1e 4e 00 00       	cmp    eax,0x4e1e
   11260:	0f 86 57 01 00 00    	jbe    113bd <__sprintf_chk@plt+0x1006d>
   11266:	b9 01 00 00 00       	mov    ecx,0x1
   1126b:	85 f6                	test   esi,esi
   1126d:	0f 88 8d 01 00 00    	js     11400 <__sprintf_chk@plt+0x100b0>
   11273:	b8 00 7d 00 00       	mov    eax,0x7d00
   11278:	29 f0                	sub    eax,esi
   1127a:	89 c2                	mov    edx,eax
   1127c:	c1 ea 1f             	shr    edx,0x1f
   1127f:	01 d0                	add    eax,edx
   11281:	d1 f8                	sar    eax,1
   11283:	0f af c1             	imul   eax,ecx
   11286:	50                   	push   rax
   11287:	8b 05 37 cb b2 00    	mov    eax,DWORD PTR [rip+0xb2cb37]        # b3ddc4 <stdin@@GLIBC_2.2.5+0xb26d94>
   1128d:	50                   	push   rax
   1128e:	41 ff b4 24 f0 0f 00 	push   QWORD PTR [r12+0xff0]
   11295:	00 
   11296:	6a 00                	push   0x0
   11298:	45 8b 8c 24 00 10 00 	mov    r9d,DWORD PTR [r12+0x1000]
   1129f:	00 
   112a0:	48 8d 0d 09 24 00 00 	lea    rcx,[rip+0x2409]        # 136b0 <__sprintf_chk@plt+0x12360>
   112a7:	48 c7 c2 ff ff ff ff 	mov    rdx,0xffffffffffffffff
   112ae:	be 01 00 00 00       	mov    esi,0x1
   112b3:	48 89 df             	mov    rdi,rbx
   112b6:	b8 00 00 00 00       	mov    eax,0x0
   112bb:	e8 90 00 ff ff       	call   1350 <__sprintf_chk@plt>
   112c0:	48 83 c4 20          	add    rsp,0x20
   112c4:	4c 8d 74 24 26       	lea    r14,[rsp+0x26]
   112c9:	4c 89 f2             	mov    rdx,r14
   112cc:	44 89 ee             	mov    esi,r13d
   112cf:	4c 89 e7             	mov    rdi,r12
   112d2:	e8 32 ea ff ff       	call   fd09 <__sprintf_chk@plt+0xe9b9>
   112d7:	4c 89 f6             	mov    rsi,r14
   112da:	48 89 df             	mov    rdi,rbx
   112dd:	e8 1e 00 ff ff       	call   1300 <strcat@plt>
   112e2:	48 c7 c1 ff ff ff ff 	mov    rcx,0xffffffffffffffff
   112e9:	b8 00 00 00 00       	mov    eax,0x0
   112ee:	48 89 df             	mov    rdi,rbx
   112f1:	f2 ae                	repnz scas al,BYTE PTR es:[rdi]
   112f3:	48 f7 d1             	not    rcx
   112f6:	66 c7 44 0b ff 20 00 	mov    WORD PTR [rbx+rcx*1-0x1],0x20
   112fd:	48 8d 74 24 30       	lea    rsi,[rsp+0x30]
   11302:	b9 00 00 00 00       	mov    ecx,0x0
   11307:	bf 00 02 00 00       	mov    edi,0x200
   1130c:	ba 00 00 00 00       	mov    edx,0x0
   11311:	89 d0                	mov    eax,edx
   11313:	48 89 0c 06          	mov    QWORD PTR [rsi+rax*1],rcx
   11317:	48 89 4c 06 08       	mov    QWORD PTR [rsi+rax*1+0x8],rcx
   1131c:	48 89 4c 06 10       	mov    QWORD PTR [rsi+rax*1+0x10],rcx
   11321:	48 89 4c 06 18       	mov    QWORD PTR [rsi+rax*1+0x18],rcx
   11326:	83 c2 20             	add    edx,0x20
   11329:	39 fa                	cmp    edx,edi
   1132b:	72 e4                	jb     11311 <__sprintf_chk@plt+0xffc1>
   1132d:	4c 8d 6c 24 30       	lea    r13,[rsp+0x30]
   11332:	4c 89 ea             	mov    rdx,r13
   11335:	be 3c 00 00 00       	mov    esi,0x3c
   1133a:	4c 89 e7             	mov    rdi,r12
   1133d:	e8 41 ec ff ff       	call   ff83 <__sprintf_chk@plt+0xec33>
   11342:	4c 89 ee             	mov    rsi,r13
   11345:	48 89 df             	mov    rdi,rbx
   11348:	e8 b3 ff fe ff       	call   1300 <strcat@plt>
   1134d:	48 c7 c1 ff ff ff ff 	mov    rcx,0xffffffffffffffff
   11354:	b8 00 00 00 00       	mov    eax,0x0
   11359:	48 89 df             	mov    rdi,rbx
   1135c:	f2 ae                	repnz scas al,BYTE PTR es:[rdi]
   1135e:	48 f7 d1             	not    rcx
   11361:	66 c7 44 0b ff 0a 00 	mov    WORD PTR [rbx+rcx*1-0x1],0xa
   11368:	8b 3d 76 cc b2 00    	mov    edi,DWORD PTR [rip+0xb2cc76]        # b3dfe4 <stdin@@GLIBC_2.2.5+0xb26fb4>
   1136e:	89 7c 24 1c          	mov    DWORD PTR [rsp+0x1c],edi
   11372:	48 8d 15 87 aa b7 00 	lea    rdx,[rip+0xb7aa87]        # b8be00 <stdin@@GLIBC_2.2.5+0xb74dd0>
   11379:	48 63 c5             	movsxd rax,ebp
   1137c:	48 63 cf             	movsxd rcx,edi
   1137f:	8b 0c 8a             	mov    ecx,DWORD PTR [rdx+rcx*4]
   11382:	39 0c 82             	cmp    DWORD PTR [rdx+rax*4],ecx
   11385:	7d 08                	jge    1138f <__sprintf_chk@plt+0x1003f>
   11387:	39 ef                	cmp    edi,ebp
   11389:	0f 8c 76 01 00 00    	jl     11505 <__sprintf_chk@plt+0x101b5>
   1138f:	48 8d 05 2a b0 b7 00 	lea    rax,[rip+0xb7b02a]        # b8c3c0 <stdin@@GLIBC_2.2.5+0xb75390>
   11396:	48 89 44 24 10       	mov    QWORD PTR [rsp+0x10],rax
   1139b:	48 8d 2d 62 aa b7 00 	lea    rbp,[rip+0xb7aa62]        # b8be04 <stdin@@GLIBC_2.2.5+0xb74dd4>
   113a2:	49 89 c6             	mov    r14,rax
   113a5:	41 bd 01 00 00 00    	mov    r13d,0x1
   113ab:	48 8d 84 24 30 02 00 	lea    rax,[rsp+0x230]
   113b2:	00 
   113b3:	48 89 44 24 08       	mov    QWORD PTR [rsp+0x8],rax
   113b8:	e9 c7 00 00 00       	jmp    11484 <__sprintf_chk@plt+0x10134>
   113bd:	56                   	push   rsi
   113be:	8b 05 00 ca b2 00    	mov    eax,DWORD PTR [rip+0xb2ca00]        # b3ddc4 <stdin@@GLIBC_2.2.5+0xb26d94>
   113c4:	50                   	push   rax
   113c5:	41 ff b4 24 f0 0f 00 	push   QWORD PTR [r12+0xff0]
   113cc:	00 
   113cd:	6a 00                	push   0x0
   113cf:	45 8b 8c 24 00 10 00 	mov    r9d,DWORD PTR [r12+0x1000]
   113d6:	00 
   113d7:	48 8d 0d 8a 22 00 00 	lea    rcx,[rip+0x228a]        # 13668 <__sprintf_chk@plt+0x12318>
   113de:	48 c7 c2 ff ff ff ff 	mov    rdx,0xffffffffffffffff
   113e5:	be 01 00 00 00       	mov    esi,0x1
   113ea:	48 89 df             	mov    rdi,rbx
   113ed:	b8 00 00 00 00       	mov    eax,0x0
   113f2:	e8 59 ff fe ff       	call   1350 <__sprintf_chk@plt>
   113f7:	48 83 c4 20          	add    rsp,0x20
   113fb:	e9 c4 fe ff ff       	jmp    112c4 <__sprintf_chk@plt+0xff74>
   11400:	f7 de                	neg    esi
   11402:	b9 ff ff ff ff       	mov    ecx,0xffffffff
   11407:	e9 67 fe ff ff       	jmp    11273 <__sprintf_chk@plt+0xff23>
   1140c:	ba 00 02 00 00       	mov    edx,0x200
   11411:	48 89 de             	mov    rsi,rbx
   11414:	48 8b 7c 24 08       	mov    rdi,QWORD PTR [rsp+0x8]
   11419:	e8 c2 fe fe ff       	call   12e0 <__strcpy_chk@plt>
   1141e:	48 8b 34 24          	mov    rsi,QWORD PTR [rsp]
   11422:	48 89 df             	mov    rdi,rbx
   11425:	e8 f6 fd fe ff       	call   1220 <strcpy@plt>
   1142a:	48 8b 74 24 08       	mov    rsi,QWORD PTR [rsp+0x8]
   1142f:	48 8b 3c 24          	mov    rdi,QWORD PTR [rsp]
   11433:	e8 e8 fd fe ff       	call   1220 <strcpy@plt>
   11438:	45 89 3c 24          	mov    DWORD PTR [r12],r15d
   1143c:	8b 44 24 18          	mov    eax,DWORD PTR [rsp+0x18]
   11440:	89 45 00             	mov    DWORD PTR [rbp+0x0],eax
   11443:	49 83 c4 04          	add    r12,0x4
   11447:	48 81 c3 00 02 00 00 	add    rbx,0x200
   1144e:	48 8d 05 6b 8d b9 00 	lea    rax,[rip+0xb98d6b]        # baa1c0 <stdin@@GLIBC_2.2.5+0xb93190>
   11455:	48 39 c3             	cmp    rbx,rax
   11458:	74 13                	je     1146d <__sprintf_chk@plt+0x1011d>
   1145a:	41 8b 04 24          	mov    eax,DWORD PTR [r12]
   1145e:	89 44 24 18          	mov    DWORD PTR [rsp+0x18],eax
   11462:	44 8b 7d 00          	mov    r15d,DWORD PTR [rbp+0x0]
   11466:	44 39 f8             	cmp    eax,r15d
   11469:	7e d8                	jle    11443 <__sprintf_chk@plt+0x100f3>
   1146b:	eb 9f                	jmp    1140c <__sprintf_chk@plt+0x100bc>
   1146d:	49 ff c5             	inc    r13
   11470:	49 81 c6 00 02 00 00 	add    r14,0x200
   11477:	48 83 c5 04          	add    rbp,0x4
   1147b:	49 81 fd f0 00 00 00 	cmp    r13,0xf0
   11482:	74 15                	je     11499 <__sprintf_chk@plt+0x10149>
   11484:	41 81 fd ef 00 00 00 	cmp    r13d,0xef
   1148b:	7f e0                	jg     1146d <__sprintf_chk@plt+0x1011d>
   1148d:	4c 89 34 24          	mov    QWORD PTR [rsp],r14
   11491:	4c 89 f3             	mov    rbx,r14
   11494:	49 89 ec             	mov    r12,rbp
   11497:	eb c1                	jmp    1145a <__sprintf_chk@plt+0x1010a>
   11499:	83 7c 24 1c 00       	cmp    DWORD PTR [rsp+0x1c],0x0
   1149e:	7e 65                	jle    11505 <__sprintf_chk@plt+0x101b5>
   114a0:	bb 01 00 00 00       	mov    ebx,0x1
   114a5:	48 8d 6c 24 30       	lea    rbp,[rsp+0x30]
   114aa:	41 89 d8             	mov    r8d,ebx
   114ad:	48 8d 0d ff 1e 00 00 	lea    rcx,[rip+0x1eff]        # 133b3 <__sprintf_chk@plt+0x12063>
   114b4:	ba 00 02 00 00       	mov    edx,0x200
   114b9:	be 01 00 00 00       	mov    esi,0x1
   114be:	48 89 ef             	mov    rdi,rbp
   114c1:	b8 00 00 00 00       	mov    eax,0x0
   114c6:	e8 85 fe fe ff       	call   1350 <__sprintf_chk@plt>
   114cb:	ba 00 02 00 00       	mov    edx,0x200
   114d0:	4c 8b 7c 24 10       	mov    r15,QWORD PTR [rsp+0x10]
   114d5:	4c 89 fe             	mov    rsi,r15
   114d8:	48 89 ef             	mov    rdi,rbp
   114db:	e8 f0 fc fe ff       	call   11d0 <__strcat_chk@plt>
   114e0:	48 89 ef             	mov    rdi,rbp
   114e3:	b8 00 00 00 00       	mov    eax,0x0
   114e8:	e8 b3 f1 ff ff       	call   106a0 <__sprintf_chk@plt+0xf350>
   114ed:	ff c3                	inc    ebx
   114ef:	4c 89 f8             	mov    rax,r15
   114f2:	48 05 00 02 00 00    	add    rax,0x200
   114f8:	48 89 44 24 10       	mov    QWORD PTR [rsp+0x10],rax
   114fd:	39 1d e1 ca b2 00    	cmp    DWORD PTR [rip+0xb2cae1],ebx        # b3dfe4 <stdin@@GLIBC_2.2.5+0xb26fb4>
   11503:	7d a5                	jge    114aa <__sprintf_chk@plt+0x1015a>
   11505:	48 8b 84 24 38 04 00 	mov    rax,QWORD PTR [rsp+0x438]
   1150c:	00 
   1150d:	64 48 33 04 25 28 00 	xor    rax,QWORD PTR fs:0x28
   11514:	00 00 
   11516:	75 12                	jne    1152a <__sprintf_chk@plt+0x101da>
   11518:	48 81 c4 48 04 00 00 	add    rsp,0x448
   1151f:	5b                   	pop    rbx
   11520:	5d                   	pop    rbp
   11521:	41 5c                	pop    r12
   11523:	41 5d                	pop    r13
   11525:	41 5e                	pop    r14
   11527:	41 5f                	pop    r15
   11529:	c3                   	ret    
   1152a:	e8 11 fd fe ff       	call   1240 <__stack_chk_fail@plt>
   1152f:	f3 0f 1e fa          	endbr64 
   11533:	41 57                	push   r15
   11535:	41 56                	push   r14
   11537:	41 55                	push   r13
   11539:	41 54                	push   r12
   1153b:	55                   	push   rbp
   1153c:	53                   	push   rbx
   1153d:	48 83 ec 08          	sub    rsp,0x8
   11541:	49 89 fe             	mov    r14,rdi
   11544:	49 89 d4             	mov    r12,rdx
   11547:	83 3d c2 ca b2 00 00 	cmp    DWORD PTR [rip+0xb2cac2],0x0        # b3e010 <stdin@@GLIBC_2.2.5+0xb26fe0>
   1154e:	0f 84 8d 00 00 00    	je     115e1 <__sprintf_chk@plt+0x10291>
   11554:	41 bd 00 00 00 00    	mov    r13d,0x0
   1155a:	83 3d ab ca b2 00 00 	cmp    DWORD PTR [rip+0xb2caab],0x0        # b3e00c <stdin@@GLIBC_2.2.5+0xb26fdc>
   11561:	0f 85 80 00 00 00    	jne    115e7 <__sprintf_chk@plt+0x10297>
   11567:	48 63 d6             	movsxd rdx,esi
   1156a:	48 8d 35 af ca b2 00 	lea    rsi,[rip+0xb2caaf]        # b3e020 <stdin@@GLIBC_2.2.5+0xb26ff0>
   11571:	e8 8a fc fe ff       	call   1200 <strncpy@plt>
   11576:	8b 05 94 ca b2 00    	mov    eax,DWORD PTR [rip+0xb2ca94]        # b3e010 <stdin@@GLIBC_2.2.5+0xb26fe0>
   1157c:	41 89 c4             	mov    r12d,eax
   1157f:	41 ff cc             	dec    r12d
   11582:	74 34                	je     115b8 <__sprintf_chk@plt+0x10268>
   11584:	48 8d 1d 95 ca b2 00 	lea    rbx,[rip+0xb2ca95]        # b3e020 <stdin@@GLIBC_2.2.5+0xb26ff0>
   1158b:	8d 68 fe             	lea    ebp,[rax-0x2]
   1158e:	48 c1 e5 0d          	shl    rbp,0xd
   11592:	48 8d 83 00 20 00 00 	lea    rax,[rbx+0x2000]
   11599:	48 01 c5             	add    rbp,rax
   1159c:	48 89 df             	mov    rdi,rbx
   1159f:	48 81 c3 00 20 00 00 	add    rbx,0x2000
   115a6:	ba 00 20 00 00       	mov    edx,0x2000
   115ab:	48 89 de             	mov    rsi,rbx
   115ae:	e8 4d fc fe ff       	call   1200 <strncpy@plt>
   115b3:	48 39 eb             	cmp    rbx,rbp
   115b6:	75 e4                	jne    1159c <__sprintf_chk@plt+0x1024c>
   115b8:	44 89 25 51 ca b2 00 	mov    DWORD PTR [rip+0xb2ca51],r12d        # b3e010 <stdin@@GLIBC_2.2.5+0xb26fe0>
   115bf:	49 63 fc             	movsxd rdi,r12d
   115c2:	48 c1 e7 0d          	shl    rdi,0xd
   115c6:	48 8d 05 53 ca b2 00 	lea    rax,[rip+0xb2ca53]        # b3e020 <stdin@@GLIBC_2.2.5+0xb26ff0>
   115cd:	48 01 c7             	add    rdi,rax
   115d0:	ba 00 20 00 00       	mov    edx,0x2000
   115d5:	be 00 00 00 00       	mov    esi,0x0
   115da:	e8 81 fc fe ff       	call   1260 <memset@plt>
   115df:	eb 44                	jmp    11625 <__sprintf_chk@plt+0x102d5>
   115e1:	41 bd 00 00 00 00    	mov    r13d,0x0
   115e7:	8d 6e ff             	lea    ebp,[rsi-0x1]
   115ea:	45 89 ef             	mov    r15d,r13d
   115ed:	4c 89 e7             	mov    rdi,r12
   115f0:	e8 3b fd fe ff       	call   1330 <getc@plt>
   115f5:	89 c3                	mov    ebx,eax
   115f7:	83 f8 0a             	cmp    eax,0xa
   115fa:	74 13                	je     1160f <__sprintf_chk@plt+0x102bf>
   115fc:	83 f8 ff             	cmp    eax,0xffffffff
   115ff:	74 0e                	je     1160f <__sprintf_chk@plt+0x102bf>
   11601:	44 39 ed             	cmp    ebp,r13d
   11604:	7e e7                	jle    115ed <__sprintf_chk@plt+0x1029d>
   11606:	43 88 04 2e          	mov    BYTE PTR [r14+r13*1],al
   1160a:	49 ff c5             	inc    r13
   1160d:	eb db                	jmp    115ea <__sprintf_chk@plt+0x1029a>
   1160f:	4d 63 ff             	movsxd r15,r15d
   11612:	43 c6 04 3e 00       	mov    BYTE PTR [r14+r15*1],0x0
   11617:	83 3d c2 c9 b2 00 00 	cmp    DWORD PTR [rip+0xb2c9c2],0x0        # b3dfe0 <stdin@@GLIBC_2.2.5+0xb26fb0>
   1161e:	75 14                	jne    11634 <__sprintf_chk@plt+0x102e4>
   11620:	83 fb ff             	cmp    ebx,0xffffffff
   11623:	74 50                	je     11675 <__sprintf_chk@plt+0x10325>
   11625:	48 83 c4 08          	add    rsp,0x8
   11629:	5b                   	pop    rbx
   1162a:	5d                   	pop    rbp
   1162b:	41 5c                	pop    r12
   1162d:	41 5d                	pop    r13
   1162f:	41 5e                	pop    r14
   11631:	41 5f                	pop    r15
   11633:	c3                   	ret    
   11634:	48 8d 35 18 1d 00 00 	lea    rsi,[rip+0x1d18]        # 13353 <__sprintf_chk@plt+0x12003>
   1163b:	48 8d 3d 9e c7 b2 00 	lea    rdi,[rip+0xb2c79e]        # b3dde0 <stdin@@GLIBC_2.2.5+0xb26db0>
   11642:	e8 a9 fc fe ff       	call   12f0 <fopen@plt>
   11647:	48 89 c5             	mov    rbp,rax
   1164a:	48 85 c0             	test   rax,rax
   1164d:	74 d1                	je     11620 <__sprintf_chk@plt+0x102d0>
   1164f:	4c 89 f1             	mov    rcx,r14
   11652:	48 8d 15 6b 1d 00 00 	lea    rdx,[rip+0x1d6b]        # 133c4 <__sprintf_chk@plt+0x12074>
   11659:	be 01 00 00 00       	mov    esi,0x1
   1165e:	48 89 c7             	mov    rdi,rax
   11661:	b8 00 00 00 00       	mov    eax,0x0
   11666:	e8 b5 fc fe ff       	call   1320 <__fprintf_chk@plt>
   1166b:	48 89 ef             	mov    rdi,rbp
   1166e:	e8 bd fb fe ff       	call   1230 <fclose@plt>
   11673:	eb ab                	jmp    11620 <__sprintf_chk@plt+0x102d0>
   11675:	48 8d 3d 7c 20 00 00 	lea    rdi,[rip+0x207c]        # 136f8 <__sprintf_chk@plt+0x123a8>
   1167c:	b8 00 00 00 00       	mov    eax,0x0
   11681:	e8 1a f0 ff ff       	call   106a0 <__sprintf_chk@plt+0xf350>
   11686:	e8 68 dd ff ff       	call   f3f3 <__sprintf_chk@plt+0xe0a3>
   1168b:	bf 01 00 00 00       	mov    edi,0x1
   11690:	e8 7b fc fe ff       	call   1310 <exit@plt>
   11695:	f3 0f 1e fa          	endbr64 
   11699:	b8 00 00 00 00       	mov    eax,0x0
   1169e:	c3                   	ret    
   1169f:	f3 0f 1e fa          	endbr64 
   116a3:	48 83 ec 08          	sub    rsp,0x8
   116a7:	48 8d 3d 6a 20 00 00 	lea    rdi,[rip+0x206a]        # 13718 <__sprintf_chk@plt+0x123c8>
   116ae:	b8 00 00 00 00       	mov    eax,0x0
   116b3:	e8 e8 ef ff ff       	call   106a0 <__sprintf_chk@plt+0xf350>
   116b8:	48 83 c4 08          	add    rsp,0x8
   116bc:	c3                   	ret    
   116bd:	f3 0f 1e fa          	endbr64 
   116c1:	41 57                	push   r15
   116c3:	41 56                	push   r14
   116c5:	41 55                	push   r13
   116c7:	41 54                	push   r12
   116c9:	55                   	push   rbp
   116ca:	53                   	push   rbx
   116cb:	48 81 ec e8 03 00 00 	sub    rsp,0x3e8
   116d2:	49 89 fc             	mov    r12,rdi
   116d5:	49 89 f7             	mov    r15,rsi
   116d8:	48 89 54 24 08       	mov    QWORD PTR [rsp+0x8],rdx
   116dd:	64 48 8b 04 25 28 00 	mov    rax,QWORD PTR fs:0x28
   116e4:	00 00 
   116e6:	48 89 84 24 d8 03 00 	mov    QWORD PTR [rsp+0x3d8],rax
   116ed:	00 
   116ee:	31 c0                	xor    eax,eax
   116f0:	48 8d 74 24 10       	lea    rsi,[rsp+0x10]
   116f5:	e8 98 36 ff ff       	call   4d92 <__sprintf_chk@plt+0x3a42>
   116fa:	85 c0                	test   eax,eax
   116fc:	0f 8e 83 00 00 00    	jle    11785 <__sprintf_chk@plt+0x10435>
   11702:	41 89 c6             	mov    r14d,eax
   11705:	bb 01 00 00 00       	mov    ebx,0x1
   1170a:	4c 8d ac 24 d2 03 00 	lea    r13,[rsp+0x3d2]
   11711:	00 
   11712:	eb 1e                	jmp    11732 <__sprintf_chk@plt+0x103e2>
   11714:	8b 74 9c 0c          	mov    esi,DWORD PTR [rsp+rbx*4+0xc]
   11718:	4c 89 e7             	mov    rdi,r12
   1171b:	e8 3d 59 ff ff       	call   705d <__sprintf_chk@plt+0x5d0d>
   11720:	41 39 de             	cmp    r14d,ebx
   11723:	0f 9e c2             	setle  dl
   11726:	85 ed                	test   ebp,ebp
   11728:	0f 95 c0             	setne  al
   1172b:	48 ff c3             	inc    rbx
   1172e:	08 c2                	or     dl,al
   11730:	75 58                	jne    1178a <__sprintf_chk@plt+0x1043a>
   11732:	8b 74 9c 0c          	mov    esi,DWORD PTR [rsp+rbx*4+0xc]
   11736:	4c 89 ea             	mov    rdx,r13
   11739:	4c 89 e7             	mov    rdi,r12
   1173c:	e8 c8 e5 ff ff       	call   fd09 <__sprintf_chk@plt+0xe9b9>
   11741:	4c 89 ee             	mov    rsi,r13
   11744:	4c 89 ff             	mov    rdi,r15
   11747:	e8 34 fb fe ff       	call   1280 <strcmp@plt>
   1174c:	bd 00 00 00 00       	mov    ebp,0x0
   11751:	85 c0                	test   eax,eax
   11753:	75 cb                	jne    11720 <__sprintf_chk@plt+0x103d0>
   11755:	8b 74 9c 0c          	mov    esi,DWORD PTR [rsp+rbx*4+0xc]
   11759:	4c 89 e7             	mov    rdi,r12
   1175c:	e8 30 50 ff ff       	call   6791 <__sprintf_chk@plt+0x5441>
   11761:	8b 74 9c 0c          	mov    esi,DWORD PTR [rsp+rbx*4+0xc]
   11765:	4c 89 e7             	mov    rdi,r12
   11768:	e8 66 5d ff ff       	call   74d3 <__sprintf_chk@plt+0x6183>
   1176d:	89 c5                	mov    ebp,eax
   1176f:	85 c0                	test   eax,eax
   11771:	74 a1                	je     11714 <__sprintf_chk@plt+0x103c4>
   11773:	8b 44 9c 0c          	mov    eax,DWORD PTR [rsp+rbx*4+0xc]
   11777:	48 8b 4c 24 08       	mov    rcx,QWORD PTR [rsp+0x8]
   1177c:	89 01                	mov    DWORD PTR [rcx],eax
   1177e:	bd 01 00 00 00       	mov    ebp,0x1
   11783:	eb 8f                	jmp    11714 <__sprintf_chk@plt+0x103c4>
   11785:	bd 00 00 00 00       	mov    ebp,0x0
   1178a:	48 8b 84 24 d8 03 00 	mov    rax,QWORD PTR [rsp+0x3d8]
   11791:	00 
   11792:	64 48 33 04 25 28 00 	xor    rax,QWORD PTR fs:0x28
   11799:	00 00 
   1179b:	75 14                	jne    117b1 <__sprintf_chk@plt+0x10461>
   1179d:	89 e8                	mov    eax,ebp
   1179f:	48 81 c4 e8 03 00 00 	add    rsp,0x3e8
   117a6:	5b                   	pop    rbx
   117a7:	5d                   	pop    rbp
   117a8:	41 5c                	pop    r12
   117aa:	41 5d                	pop    r13
   117ac:	41 5e                	pop    r14
   117ae:	41 5f                	pop    r15
   117b0:	c3                   	ret    
   117b1:	e8 8a fa fe ff       	call   1240 <__stack_chk_fail@plt>
   117b6:	f3 0f 1e fa          	endbr64 
   117ba:	55                   	push   rbp
   117bb:	53                   	push   rbx
   117bc:	48 83 ec 18          	sub    rsp,0x18
   117c0:	64 48 8b 04 25 28 00 	mov    rax,QWORD PTR fs:0x28
   117c7:	00 00 
   117c9:	48 89 44 24 08       	mov    QWORD PTR [rsp+0x8],rax
   117ce:	31 c0                	xor    eax,eax
   117d0:	48 8b 3d 59 58 00 00 	mov    rdi,QWORD PTR [rip+0x5859]        # 17030 <stdin@@GLIBC_2.2.5>
   117d7:	e8 54 fb fe ff       	call   1330 <getc@plt>
   117dc:	83 f8 70             	cmp    eax,0x70
   117df:	74 3d                	je     1181e <__sprintf_chk@plt+0x104ce>
   117e1:	89 c7                	mov    edi,eax
   117e3:	48 8b 35 46 58 00 00 	mov    rsi,QWORD PTR [rip+0x5846]        # 17030 <stdin@@GLIBC_2.2.5>
   117ea:	e8 d1 fa fe ff       	call   12c0 <ungetc@plt>
   117ef:	bb 01 00 00 00       	mov    ebx,0x1
   117f4:	83 3d 01 c8 b2 00 00 	cmp    DWORD PTR [rip+0xb2c801],0x0        # b3dffc <stdin@@GLIBC_2.2.5+0xb26fcc>
   117fb:	0f 85 02 01 00 00    	jne    11903 <__sprintf_chk@plt+0x105b3>
   11801:	48 8b 44 24 08       	mov    rax,QWORD PTR [rsp+0x8]
   11806:	64 48 33 04 25 28 00 	xor    rax,QWORD PTR fs:0x28
   1180d:	00 00 
   1180f:	0f 85 fa 01 00 00    	jne    11a0f <__sprintf_chk@plt+0x106bf>
   11815:	89 d8                	mov    eax,ebx
   11817:	48 83 c4 18          	add    rsp,0x18
   1181b:	5b                   	pop    rbx
   1181c:	5d                   	pop    rbp
   1181d:	c3                   	ret    
   1181e:	be 00 00 00 00       	mov    esi,0x0
   11823:	48 8d 3d 16 cc b6 00 	lea    rdi,[rip+0xb6cc16]        # b7e440 <stdin@@GLIBC_2.2.5+0xb67410>
   1182a:	e8 17 dd ff ff       	call   f546 <__sprintf_chk@plt+0xe1f6>
   1182f:	89 05 3b cc b6 00    	mov    DWORD PTR [rip+0xb6cc3b],eax        # b7e470 <stdin@@GLIBC_2.2.5+0xb67440>
   11835:	48 8b 35 f4 57 00 00 	mov    rsi,QWORD PTR [rip+0x57f4]        # 17030 <stdin@@GLIBC_2.2.5>
   1183c:	bf 70 00 00 00       	mov    edi,0x70
   11841:	e8 7a fa fe ff       	call   12c0 <ungetc@plt>
   11846:	48 63 3d c3 c7 b2 00 	movsxd rdi,DWORD PTR [rip+0xb2c7c3]        # b3e010 <stdin@@GLIBC_2.2.5+0xb26fe0>
   1184d:	48 c1 e7 0d          	shl    rdi,0xd
   11851:	48 8d 05 c8 c7 b2 00 	lea    rax,[rip+0xb2c7c8]        # b3e020 <stdin@@GLIBC_2.2.5+0xb26ff0>
   11858:	48 01 c7             	add    rdi,rax
   1185b:	48 8b 15 ce 57 00 00 	mov    rdx,QWORD PTR [rip+0x57ce]        # 17030 <stdin@@GLIBC_2.2.5>
   11862:	be 00 20 00 00       	mov    esi,0x2000
   11867:	e8 c3 fc ff ff       	call   1152f <__sprintf_chk@plt+0x101df>
   1186c:	ff 05 9e c7 b2 00    	inc    DWORD PTR [rip+0xb2c79e]        # b3e010 <stdin@@GLIBC_2.2.5+0xb26fe0>
   11872:	8b 05 f8 cb b6 00    	mov    eax,DWORD PTR [rip+0xb6cbf8]        # b7e470 <stdin@@GLIBC_2.2.5+0xb67440>
   11878:	c5 f8 57 c0          	vxorps xmm0,xmm0,xmm0
   1187c:	c5 fb 2a c0          	vcvtsi2sd xmm0,xmm0,eax
   11880:	c5 fb 5e 05 e0 19 00 	vdivsd xmm0,xmm0,QWORD PTR [rip+0x19e0]        # 13268 <__sprintf_chk@plt+0x11f18>
   11887:	00 
   11888:	c5 fb 5e 05 e0 19 00 	vdivsd xmm0,xmm0,QWORD PTR [rip+0x19e0]        # 13270 <__sprintf_chk@plt+0x11f20>
   1188f:	00 
   11890:	c5 7b 2c c0          	vcvttsd2si r8d,xmm0
   11894:	45 85 c0             	test   r8d,r8d
   11897:	78 35                	js     118ce <__sprintf_chk@plt+0x1057e>
   11899:	48 63 f0             	movsxd rsi,eax
   1189c:	48 69 f6 1f 85 eb 51 	imul   rsi,rsi,0x51eb851f
   118a3:	48 c1 fe 25          	sar    rsi,0x25
   118a7:	c1 f8 1f             	sar    eax,0x1f
   118aa:	29 c6                	sub    esi,eax
   118ac:	89 f1                	mov    ecx,esi
   118ae:	ba 00 00 00 00       	mov    edx,0x0
   118b3:	48 8d 3d ae 1e 00 00 	lea    rdi,[rip+0x1eae]        # 13768 <__sprintf_chk@plt+0x12418>
   118ba:	b8 00 00 00 00       	mov    eax,0x0
   118bf:	e8 dc ed ff ff       	call   106a0 <__sprintf_chk@plt+0xf350>
   118c4:	bb 00 00 00 00       	mov    ebx,0x0
   118c9:	e9 33 ff ff ff       	jmp    11801 <__sprintf_chk@plt+0x104b1>
   118ce:	48 63 f0             	movsxd rsi,eax
   118d1:	48 69 f6 1f 85 eb 51 	imul   rsi,rsi,0x51eb851f
   118d8:	48 c1 fe 25          	sar    rsi,0x25
   118dc:	c1 f8 1f             	sar    eax,0x1f
   118df:	29 c6                	sub    esi,eax
   118e1:	89 f1                	mov    ecx,esi
   118e3:	ba 00 00 00 00       	mov    edx,0x0
   118e8:	48 8d 3d c9 1e 00 00 	lea    rdi,[rip+0x1ec9]        # 137b8 <__sprintf_chk@plt+0x12468>
   118ef:	b8 00 00 00 00       	mov    eax,0x0
   118f4:	e8 a7 ed ff ff       	call   106a0 <__sprintf_chk@plt+0xf350>
   118f9:	bb 00 00 00 00       	mov    ebx,0x0
   118fe:	e9 fe fe ff ff       	jmp    11801 <__sprintf_chk@plt+0x104b1>
   11903:	48 63 3d 06 c7 b2 00 	movsxd rdi,DWORD PTR [rip+0xb2c706]        # b3e010 <stdin@@GLIBC_2.2.5+0xb26fe0>
   1190a:	48 c1 e7 0d          	shl    rdi,0xd
   1190e:	48 8d 2d 0b c7 b2 00 	lea    rbp,[rip+0xb2c70b]        # b3e020 <stdin@@GLIBC_2.2.5+0xb26ff0>
   11915:	48 01 ef             	add    rdi,rbp
   11918:	48 8b 15 11 57 00 00 	mov    rdx,QWORD PTR [rip+0x5711]        # 17030 <stdin@@GLIBC_2.2.5>
   1191f:	be 00 20 00 00       	mov    esi,0x2000
   11924:	e8 06 fc ff ff       	call   1152f <__sprintf_chk@plt+0x101df>
   11929:	8b 15 e1 c6 b2 00    	mov    edx,DWORD PTR [rip+0xb2c6e1]        # b3e010 <stdin@@GLIBC_2.2.5+0xb26fe0>
   1192f:	48 63 c2             	movsxd rax,edx
   11932:	48 c1 e0 0d          	shl    rax,0xd
   11936:	bb 00 00 00 00       	mov    ebx,0x0
   1193b:	80 7c 05 00 00       	cmp    BYTE PTR [rbp+rax*1+0x0],0x0
   11940:	0f 84 bb fe ff ff    	je     11801 <__sprintf_chk@plt+0x104b1>
   11946:	48 8d 04 28          	lea    rax,[rax+rbp*1]
   1194a:	b9 04 00 00 00       	mov    ecx,0x4
   1194f:	48 8d 3d 74 1a 00 00 	lea    rdi,[rip+0x1a74]        # 133ca <__sprintf_chk@plt+0x1207a>
   11956:	48 89 c6             	mov    rsi,rax
   11959:	f3 a6                	repz cmps BYTE PTR ds:[rsi],BYTE PTR es:[rdi]
   1195b:	0f 97 c3             	seta   bl
   1195e:	80 db 00             	sbb    bl,0x0
   11961:	0f be db             	movsx  ebx,bl
   11964:	85 db                	test   ebx,ebx
   11966:	74 4f                	je     119b7 <__sprintf_chk@plt+0x10667>
   11968:	b9 04 00 00 00       	mov    ecx,0x4
   1196d:	48 8d 3d 5b 1a 00 00 	lea    rdi,[rip+0x1a5b]        # 133cf <__sprintf_chk@plt+0x1207f>
   11974:	48 89 c6             	mov    rsi,rax
   11977:	f3 a6                	repz cmps BYTE PTR ds:[rsi],BYTE PTR es:[rdi]
   11979:	0f 97 c3             	seta   bl
   1197c:	80 db 00             	sbb    bl,0x0
   1197f:	0f be db             	movsx  ebx,bl
   11982:	85 db                	test   ebx,ebx
   11984:	74 5a                	je     119e0 <__sprintf_chk@plt+0x10690>
   11986:	b9 16 00 00 00       	mov    ecx,0x16
   1198b:	48 8d 3d 42 1a 00 00 	lea    rdi,[rip+0x1a42]        # 133d4 <__sprintf_chk@plt+0x12084>
   11992:	48 89 c6             	mov    rsi,rax
   11995:	f3 a6                	repz cmps BYTE PTR ds:[rsi],BYTE PTR es:[rdi]
   11997:	0f 97 c3             	seta   bl
   1199a:	80 db 00             	sbb    bl,0x0
   1199d:	0f be db             	movsx  ebx,bl
   119a0:	85 db                	test   ebx,ebx
   119a2:	74 4a                	je     119ee <__sprintf_chk@plt+0x1069e>
   119a4:	8d 42 01             	lea    eax,[rdx+0x1]
   119a7:	89 05 63 c6 b2 00    	mov    DWORD PTR [rip+0xb2c663],eax        # b3e010 <stdin@@GLIBC_2.2.5+0xb26fe0>
   119ad:	bb 01 00 00 00       	mov    ebx,0x1
   119b2:	e9 4a fe ff ff       	jmp    11801 <__sprintf_chk@plt+0x104b1>
   119b7:	48 8d 54 24 04       	lea    rdx,[rsp+0x4]
   119bc:	48 8d 78 05          	lea    rdi,[rax+0x5]
   119c0:	48 8d 35 30 1a 00 00 	lea    rsi,[rip+0x1a30]        # 133f7 <__sprintf_chk@plt+0x120a7>
   119c7:	b8 00 00 00 00       	mov    eax,0x0
   119cc:	e8 df f8 fe ff       	call   12b0 <__isoc99_sscanf@plt>
   119d1:	8b 44 24 04          	mov    eax,DWORD PTR [rsp+0x4]
   119d5:	89 05 8d ca b6 00    	mov    DWORD PTR [rip+0xb6ca8d],eax        # b7e468 <stdin@@GLIBC_2.2.5+0xb67438>
   119db:	e9 21 fe ff ff       	jmp    11801 <__sprintf_chk@plt+0x104b1>
   119e0:	8d 42 01             	lea    eax,[rdx+0x1]
   119e3:	89 05 27 c6 b2 00    	mov    DWORD PTR [rip+0xb2c627],eax        # b3e010 <stdin@@GLIBC_2.2.5+0xb26fe0>
   119e9:	e9 13 fe ff ff       	jmp    11801 <__sprintf_chk@plt+0x104b1>
   119ee:	48 8d 78 17          	lea    rdi,[rax+0x17]
   119f2:	48 8d 15 eb c5 b2 00 	lea    rdx,[rip+0xb2c5eb]        # b3dfe4 <stdin@@GLIBC_2.2.5+0xb26fb4>
   119f9:	48 8d 35 f1 19 00 00 	lea    rsi,[rip+0x19f1]        # 133f1 <__sprintf_chk@plt+0x120a1>
   11a00:	b8 00 00 00 00       	mov    eax,0x0
   11a05:	e8 a6 f8 fe ff       	call   12b0 <__isoc99_sscanf@plt>
   11a0a:	e9 f2 fd ff ff       	jmp    11801 <__sprintf_chk@plt+0x104b1>
   11a0f:	e8 2c f8 fe ff       	call   1240 <__stack_chk_fail@plt>
   11a14:	f3 0f 1e fa          	endbr64 
   11a18:	b8 00 00 00 00       	mov    eax,0x0
   11a1d:	c3                   	ret    
   11a1e:	f3 0f 1e fa          	endbr64 
   11a22:	48 83 ec 08          	sub    rsp,0x8
   11a26:	48 ba 0d 0d 0d 0d 0d 	movabs rdx,0xd0d0d0d0d0d0d0d
   11a2d:	0d 0d 0d 
   11a30:	48 b9 0d 0d 0d 0d 0d 	movabs rcx,0xd0d0d0d0d0d0d0d
   11a37:	0d 0d 0d 
   11a3a:	48 89 57 04          	mov    QWORD PTR [rdi+0x4],rdx
   11a3e:	48 89 4f 0c          	mov    QWORD PTR [rdi+0xc],rcx
   11a42:	48 89 57 14          	mov    QWORD PTR [rdi+0x14],rdx
   11a46:	48 89 4f 1c          	mov    QWORD PTR [rdi+0x1c],rcx
   11a4a:	48 89 57 24          	mov    QWORD PTR [rdi+0x24],rdx
   11a4e:	48 89 4f 2c          	mov    QWORD PTR [rdi+0x2c],rcx
   11a52:	48 89 57 34          	mov    QWORD PTR [rdi+0x34],rdx
   11a56:	48 89 4f 3c          	mov    QWORD PTR [rdi+0x3c],rcx
   11a5a:	48 89 57 44          	mov    QWORD PTR [rdi+0x44],rdx
   11a5e:	48 89 4f 4c          	mov    QWORD PTR [rdi+0x4c],rcx
   11a62:	48 89 57 54          	mov    QWORD PTR [rdi+0x54],rdx
   11a66:	48 89 4f 5c          	mov    QWORD PTR [rdi+0x5c],rcx
   11a6a:	48 89 57 64          	mov    QWORD PTR [rdi+0x64],rdx
   11a6e:	48 89 4f 6c          	mov    QWORD PTR [rdi+0x6c],rcx
   11a72:	48 89 57 74          	mov    QWORD PTR [rdi+0x74],rdx
   11a76:	48 89 4f 7c          	mov    QWORD PTR [rdi+0x7c],rcx
   11a7a:	48 89 97 84 00 00 00 	mov    QWORD PTR [rdi+0x84],rdx
   11a81:	48 89 8f 8c 00 00 00 	mov    QWORD PTR [rdi+0x8c],rcx
   11a88:	48 89 97 94 00 00 00 	mov    QWORD PTR [rdi+0x94],rdx
   11a8f:	48 89 8f 9c 00 00 00 	mov    QWORD PTR [rdi+0x9c],rcx
   11a96:	48 89 97 a4 00 00 00 	mov    QWORD PTR [rdi+0xa4],rdx
   11a9d:	48 89 8f ac 00 00 00 	mov    QWORD PTR [rdi+0xac],rcx
   11aa4:	48 89 97 b4 00 00 00 	mov    QWORD PTR [rdi+0xb4],rdx
   11aab:	48 89 8f bc 00 00 00 	mov    QWORD PTR [rdi+0xbc],rcx
   11ab2:	48 89 97 c4 00 00 00 	mov    QWORD PTR [rdi+0xc4],rdx
   11ab9:	48 89 8f cc 00 00 00 	mov    QWORD PTR [rdi+0xcc],rcx
   11ac0:	48 89 97 d4 00 00 00 	mov    QWORD PTR [rdi+0xd4],rdx
   11ac7:	48 89 8f dc 00 00 00 	mov    QWORD PTR [rdi+0xdc],rcx
   11ace:	48 89 97 e4 00 00 00 	mov    QWORD PTR [rdi+0xe4],rdx
   11ad5:	48 89 8f ec 00 00 00 	mov    QWORD PTR [rdi+0xec],rcx
   11adc:	48 89 97 f4 00 00 00 	mov    QWORD PTR [rdi+0xf4],rdx
   11ae3:	48 89 8f fc 00 00 00 	mov    QWORD PTR [rdi+0xfc],rcx
   11aea:	c7 87 c8 01 00 00 00 	mov    DWORD PTR [rdi+0x1c8],0x0
   11af1:	00 00 00 
   11af4:	c7 87 88 01 00 00 00 	mov    DWORD PTR [rdi+0x188],0x0
   11afb:	00 00 00 
   11afe:	c7 87 dc 01 00 00 00 	mov    DWORD PTR [rdi+0x1dc],0x0
   11b05:	00 00 00 
   11b08:	c7 87 8c 01 00 00 00 	mov    DWORD PTR [rdi+0x18c],0x0
   11b0f:	00 00 00 
   11b12:	c7 87 c4 01 00 00 1e 	mov    DWORD PTR [rdi+0x1c4],0x1e
   11b19:	00 00 00 
   11b1c:	c7 07 00 00 00 00    	mov    DWORD PTR [rdi],0x0
   11b22:	e8 1c e8 ff ff       	call   10343 <__sprintf_chk@plt+0xeff3>
   11b27:	48 83 c4 08          	add    rsp,0x8
   11b2b:	c3                   	ret    
   11b2c:	f3 0f 1e fa          	endbr64 
   11b30:	41 57                	push   r15
   11b32:	41 56                	push   r14
   11b34:	41 55                	push   r13
   11b36:	41 54                	push   r12
   11b38:	55                   	push   rbp
   11b39:	53                   	push   rbx
   11b3a:	48 81 ec 28 02 00 00 	sub    rsp,0x228
   11b41:	64 48 8b 04 25 28 00 	mov    rax,QWORD PTR fs:0x28
   11b48:	00 00 
   11b4a:	48 89 84 24 18 02 00 	mov    QWORD PTR [rsp+0x218],rax
   11b51:	00 
   11b52:	31 c0                	xor    eax,eax
   11b54:	80 3a 00             	cmp    BYTE PTR [rdx],0x0
   11b57:	0f 84 11 01 00 00    	je     11c6e <__sprintf_chk@plt+0x1091e>
   11b5d:	48 89 fb             	mov    rbx,rdi
   11b60:	49 89 f4             	mov    r12,rsi
   11b63:	49 89 d7             	mov    r15,rdx
   11b66:	48 89 d5             	mov    rbp,rdx
   11b69:	41 be 00 00 00 00    	mov    r14d,0x0
   11b6f:	b8 00 00 00 00       	mov    eax,0x0
   11b74:	48 c7 c1 ff ff ff ff 	mov    rcx,0xffffffffffffffff
   11b7b:	4c 89 ff             	mov    rdi,r15
   11b7e:	f2 ae                	repnz scas al,BYTE PTR es:[rdi]
   11b80:	48 89 c8             	mov    rax,rcx
   11b83:	48 f7 d0             	not    rax
   11b86:	48 ff c8             	dec    rax
   11b89:	41 39 c6             	cmp    r14d,eax
   11b8c:	0f 8d dc 00 00 00    	jge    11c6e <__sprintf_chk@plt+0x1091e>
   11b92:	4c 8d 6c 24 10       	lea    r13,[rsp+0x10]
   11b97:	4c 89 ea             	mov    rdx,r13
   11b9a:	48 8d 35 03 18 00 00 	lea    rsi,[rip+0x1803]        # 133a4 <__sprintf_chk@plt+0x12054>
   11ba1:	48 89 ef             	mov    rdi,rbp
   11ba4:	b8 00 00 00 00       	mov    eax,0x0
   11ba9:	e8 02 f7 fe ff       	call   12b0 <__isoc99_sscanf@plt>
   11bae:	b8 00 00 00 00       	mov    eax,0x0
   11bb3:	48 c7 c1 ff ff ff ff 	mov    rcx,0xffffffffffffffff
   11bba:	4c 89 ef             	mov    rdi,r13
   11bbd:	f2 ae                	repnz scas al,BYTE PTR es:[rdi]
   11bbf:	48 89 c8             	mov    rax,rcx
   11bc2:	48 f7 d0             	not    rax
   11bc5:	41 8d 2c 06          	lea    ebp,[r14+rax*1]
   11bc9:	41 89 ee             	mov    r14d,ebp
   11bcc:	48 8d 54 24 0c       	lea    rdx,[rsp+0xc]
   11bd1:	4c 89 ee             	mov    rsi,r13
   11bd4:	4c 89 e7             	mov    rdi,r12
   11bd7:	e8 e1 fa ff ff       	call   116bd <__sprintf_chk@plt+0x1036d>
   11bdc:	85 c0                	test   eax,eax
   11bde:	74 7d                	je     11c5d <__sprintf_chk@plt+0x1090d>
   11be0:	48 63 43 3c          	movsxd rax,DWORD PTR [rbx+0x3c]
   11be4:	49 8b 94 24 e0 01 00 	mov    rdx,QWORD PTR [r12+0x1e0]
   11beb:	00 
   11bec:	49 89 94 c4 30 11 00 	mov    QWORD PTR [r12+rax*8+0x1130],rdx
   11bf3:	00 
   11bf4:	8b 74 24 0c          	mov    esi,DWORD PTR [rsp+0xc]
   11bf8:	48 63 43 3c          	movsxd rax,DWORD PTR [rbx+0x3c]
   11bfc:	89 74 83 40          	mov    DWORD PTR [rbx+rax*4+0x40],esi
   11c00:	4c 89 e7             	mov    rdi,r12
   11c03:	e8 89 4b ff ff       	call   6791 <__sprintf_chk@plt+0x5441>
   11c08:	8b 43 3c             	mov    eax,DWORD PTR [rbx+0x3c]
   11c0b:	8d 50 01             	lea    edx,[rax+0x1]
   11c0e:	89 53 3c             	mov    DWORD PTR [rbx+0x3c],edx
   11c11:	48 98                	cdqe   
   11c13:	48 83 c0 7f          	add    rax,0x7f
   11c17:	48 c1 e0 05          	shl    rax,0x5
   11c1b:	48 01 d8             	add    rax,rbx
   11c1e:	c4 c1 7a 6f 84 24 f0 	vmovdqu xmm0,XMMWORD PTR [r12+0x1f0]
   11c25:	01 00 00 
   11c28:	c5 f8 11 00          	vmovups XMMWORD PTR [rax],xmm0
   11c2c:	c4 c1 7a 6f 8c 24 00 	vmovdqu xmm1,XMMWORD PTR [r12+0x200]
   11c33:	02 00 00 
   11c36:	c5 f8 11 48 10       	vmovups XMMWORD PTR [rax+0x10],xmm1
   11c3b:	41 c7 84 24 d8 01 00 	mov    DWORD PTR [r12+0x1d8],0x0
   11c42:	00 00 00 00 00 
   11c47:	83 73 08 01          	xor    DWORD PTR [rbx+0x8],0x1
   11c4b:	48 63 ed             	movsxd rbp,ebp
   11c4e:	4c 01 fd             	add    rbp,r15
   11c51:	80 7d 00 00          	cmp    BYTE PTR [rbp+0x0],0x0
   11c55:	0f 85 14 ff ff ff    	jne    11b6f <__sprintf_chk@plt+0x1081f>
   11c5b:	eb 11                	jmp    11c6e <__sprintf_chk@plt+0x1091e>
   11c5d:	48 8d 74 24 10       	lea    rsi,[rsp+0x10]
   11c62:	48 8d 3d 91 17 00 00 	lea    rdi,[rip+0x1791]        # 133fa <__sprintf_chk@plt+0x120aa>
   11c69:	e8 32 ea ff ff       	call   106a0 <__sprintf_chk@plt+0xf350>
   11c6e:	48 8b 84 24 18 02 00 	mov    rax,QWORD PTR [rsp+0x218]
   11c75:	00 
   11c76:	64 48 33 04 25 28 00 	xor    rax,QWORD PTR fs:0x28
   11c7d:	00 00 
   11c7f:	75 12                	jne    11c93 <__sprintf_chk@plt+0x10943>
   11c81:	48 81 c4 28 02 00 00 	add    rsp,0x228
   11c88:	5b                   	pop    rbx
   11c89:	5d                   	pop    rbp
   11c8a:	41 5c                	pop    r12
   11c8c:	41 5d                	pop    r13
   11c8e:	41 5e                	pop    r14
   11c90:	41 5f                	pop    r15
   11c92:	c3                   	ret    
   11c93:	e8 a8 f5 fe ff       	call   1240 <__stack_chk_fail@plt>
   11c98:	f3 0f 1e fa          	endbr64 
   11c9c:	8b 05 ee 8a b9 00    	mov    eax,DWORD PTR [rip+0xb98aee]        # baa790 <stdin@@GLIBC_2.2.5+0xb93760>
   11ca2:	89 c2                	mov    edx,eax
   11ca4:	c1 e2 0d             	shl    edx,0xd
   11ca7:	31 c2                	xor    edx,eax
   11ca9:	c1 ea 13             	shr    edx,0x13
   11cac:	c1 e0 0c             	shl    eax,0xc
   11caf:	25 00 e0 ff ff       	and    eax,0xffffe000
   11cb4:	31 c2                	xor    edx,eax
   11cb6:	89 15 d4 8a b9 00    	mov    DWORD PTR [rip+0xb98ad4],edx        # baa790 <stdin@@GLIBC_2.2.5+0xb93760>
   11cbc:	8b 05 ca 8a b9 00    	mov    eax,DWORD PTR [rip+0xb98aca]        # baa78c <stdin@@GLIBC_2.2.5+0xb9375c>
   11cc2:	8d 34 85 00 00 00 00 	lea    esi,[rax*4+0x0]
   11cc9:	31 c6                	xor    esi,eax
   11ccb:	c1 ee 19             	shr    esi,0x19
   11cce:	c1 e0 04             	shl    eax,0x4
   11cd1:	83 e0 80             	and    eax,0xffffff80
   11cd4:	31 c6                	xor    esi,eax
   11cd6:	89 35 b0 8a b9 00    	mov    DWORD PTR [rip+0xb98ab0],esi        # baa78c <stdin@@GLIBC_2.2.5+0xb9375c>
   11cdc:	8b 3d a6 8a b9 00    	mov    edi,DWORD PTR [rip+0xb98aa6]        # baa788 <stdin@@GLIBC_2.2.5+0xb93758>
   11ce2:	8d 04 fd 00 00 00 00 	lea    eax,[rdi*8+0x0]
   11ce9:	31 f8                	xor    eax,edi
   11ceb:	c1 e8 0b             	shr    eax,0xb
   11cee:	c1 e7 11             	shl    edi,0x11
   11cf1:	81 e7 00 00 e0 ff    	and    edi,0xffe00000
   11cf7:	31 f8                	xor    eax,edi
   11cf9:	89 05 89 8a b9 00    	mov    DWORD PTR [rip+0xb98a89],eax        # baa788 <stdin@@GLIBC_2.2.5+0xb93758>
   11cff:	31 f2                	xor    edx,esi
   11d01:	31 d0                	xor    eax,edx
   11d03:	c3                   	ret    
   11d04:	f3 0f 1e fa          	endbr64 
   11d08:	85 ff                	test   edi,edi
   11d0a:	b8 01 00 00 00       	mov    eax,0x1
   11d0f:	0f 44 f8             	cmove  edi,eax
   11d12:	69 c7 ed 57 2c 2c    	imul   eax,edi,0x2c2c57ed
   11d18:	83 c8 02             	or     eax,0x2
   11d1b:	89 05 6f 8a b9 00    	mov    DWORD PTR [rip+0xb98a6f],eax        # baa790 <stdin@@GLIBC_2.2.5+0xb93760>
   11d21:	69 c7 69 f1 aa cf    	imul   eax,edi,0xcfaaf169
   11d27:	83 c8 08             	or     eax,0x8
   11d2a:	89 05 5c 8a b9 00    	mov    DWORD PTR [rip+0xb98a5c],eax        # baa78c <stdin@@GLIBC_2.2.5+0xb9375c>
   11d30:	69 ff 35 2d 58 e3    	imul   edi,edi,0xe3582d35
   11d36:	83 cf 10             	or     edi,0x10
   11d39:	89 3d 49 8a b9 00    	mov    DWORD PTR [rip+0xb98a49],edi        # baa788 <stdin@@GLIBC_2.2.5+0xb93758>
   11d3f:	c3                   	ret    
   11d40:	f3 0f 1e fa          	endbr64 
   11d44:	41 57                	push   r15
   11d46:	4c 8d 3d ab 4f 00 00 	lea    r15,[rip+0x4fab]        # 16cf8 <__sprintf_chk@plt+0x159a8>
   11d4d:	41 56                	push   r14
   11d4f:	49 89 d6             	mov    r14,rdx
   11d52:	41 55                	push   r13
   11d54:	49 89 f5             	mov    r13,rsi
   11d57:	41 54                	push   r12
   11d59:	41 89 fc             	mov    r12d,edi
   11d5c:	55                   	push   rbp
   11d5d:	48 8d 2d 9c 4f 00 00 	lea    rbp,[rip+0x4f9c]        # 16d00 <__sprintf_chk@plt+0x159b0>
   11d64:	53                   	push   rbx
   11d65:	4c 29 fd             	sub    rbp,r15
   11d68:	48 83 ec 08          	sub    rsp,0x8
   11d6c:	e8 8f f2 fe ff       	call   1000 <__cxa_finalize@plt-0x1c0>
   11d71:	48 c1 fd 03          	sar    rbp,0x3
   11d75:	74 1f                	je     11d96 <__sprintf_chk@plt+0x10a46>
   11d77:	31 db                	xor    ebx,ebx
   11d79:	0f 1f 80 00 00 00 00 	nop    DWORD PTR [rax+0x0]
   11d80:	4c 89 f2             	mov    rdx,r14
   11d83:	4c 89 ee             	mov    rsi,r13
   11d86:	44 89 e7             	mov    edi,r12d
   11d89:	41 ff 14 df          	call   QWORD PTR [r15+rbx*8]
   11d8d:	48 83 c3 01          	add    rbx,0x1
   11d91:	48 39 dd             	cmp    rbp,rbx
   11d94:	75 ea                	jne    11d80 <__sprintf_chk@plt+0x10a30>
   11d96:	48 83 c4 08          	add    rsp,0x8
   11d9a:	5b                   	pop    rbx
   11d9b:	5d                   	pop    rbp
   11d9c:	41 5c                	pop    r12
   11d9e:	41 5d                	pop    r13
   11da0:	41 5e                	pop    r14
   11da2:	41 5f                	pop    r15
   11da4:	c3                   	ret    
   11da5:	66 66 2e 0f 1f 84 00 	data16 cs nop WORD PTR [rax+rax*1+0x0]
   11dac:	00 00 00 00 
   11db0:	f3 0f 1e fa          	endbr64 
   11db4:	c3                   	ret    

Disassembly of section .fini:

0000000000011db8 <.fini>:
   11db8:	f3 0f 1e fa          	endbr64 
   11dbc:	48 83 ec 08          	sub    rsp,0x8
   11dc0:	48 83 c4 08          	add    rsp,0x8
   11dc4:	c3                   	ret    
