
/home/jjang/Desktop/sample/llvm/505/strip/mcf_r_op1:     file format elf64-x86-64


Disassembly of section .init:

0000000000401000 <.init>:
  401000:	f3 0f 1e fa          	endbr64 
  401004:	48 83 ec 08          	sub    rsp,0x8
  401008:	48 8b 05 e9 5f 00 00 	mov    rax,QWORD PTR [rip+0x5fe9]        # 406ff8 <fwrite@plt+0x5e98>
  40100f:	48 85 c0             	test   rax,rax
  401012:	74 02                	je     401016 <free@plt-0x1a>
  401014:	ff d0                	call   rax
  401016:	48 83 c4 08          	add    rsp,0x8
  40101a:	c3                   	ret    

Disassembly of section .plt:

0000000000401020 <free@plt-0x10>:
  401020:	ff 35 e2 5f 00 00    	push   QWORD PTR [rip+0x5fe2]        # 407008 <fwrite@plt+0x5ea8>
  401026:	ff 25 e4 5f 00 00    	jmp    QWORD PTR [rip+0x5fe4]        # 407010 <fwrite@plt+0x5eb0>
  40102c:	0f 1f 40 00          	nop    DWORD PTR [rax+0x0]

0000000000401030 <free@plt>:
  401030:	ff 25 e2 5f 00 00    	jmp    QWORD PTR [rip+0x5fe2]        # 407018 <fwrite@plt+0x5eb8>
  401036:	68 00 00 00 00       	push   0x0
  40103b:	e9 e0 ff ff ff       	jmp    401020 <free@plt-0x10>

0000000000401040 <putchar@plt>:
  401040:	ff 25 da 5f 00 00    	jmp    QWORD PTR [rip+0x5fda]        # 407020 <fwrite@plt+0x5ec0>
  401046:	68 01 00 00 00       	push   0x1
  40104b:	e9 d0 ff ff ff       	jmp    401020 <free@plt-0x10>

0000000000401050 <strcpy@plt>:
  401050:	ff 25 d2 5f 00 00    	jmp    QWORD PTR [rip+0x5fd2]        # 407028 <fwrite@plt+0x5ec8>
  401056:	68 02 00 00 00       	push   0x2
  40105b:	e9 c0 ff ff ff       	jmp    401020 <free@plt-0x10>

0000000000401060 <puts@plt>:
  401060:	ff 25 ca 5f 00 00    	jmp    QWORD PTR [rip+0x5fca]        # 407030 <fwrite@plt+0x5ed0>
  401066:	68 03 00 00 00       	push   0x3
  40106b:	e9 b0 ff ff ff       	jmp    401020 <free@plt-0x10>

0000000000401070 <fclose@plt>:
  401070:	ff 25 c2 5f 00 00    	jmp    QWORD PTR [rip+0x5fc2]        # 407038 <fwrite@plt+0x5ed8>
  401076:	68 04 00 00 00       	push   0x4
  40107b:	e9 a0 ff ff ff       	jmp    401020 <free@plt-0x10>

0000000000401080 <printf@plt>:
  401080:	ff 25 ba 5f 00 00    	jmp    QWORD PTR [rip+0x5fba]        # 407040 <fwrite@plt+0x5ee0>
  401086:	68 05 00 00 00       	push   0x5
  40108b:	e9 90 ff ff ff       	jmp    401020 <free@plt-0x10>

0000000000401090 <memset@plt>:
  401090:	ff 25 b2 5f 00 00    	jmp    QWORD PTR [rip+0x5fb2]        # 407048 <fwrite@plt+0x5ee8>
  401096:	68 06 00 00 00       	push   0x6
  40109b:	e9 80 ff ff ff       	jmp    401020 <free@plt-0x10>

00000000004010a0 <calloc@plt>:
  4010a0:	ff 25 aa 5f 00 00    	jmp    QWORD PTR [rip+0x5faa]        # 407050 <fwrite@plt+0x5ef0>
  4010a6:	68 07 00 00 00       	push   0x7
  4010ab:	e9 70 ff ff ff       	jmp    401020 <free@plt-0x10>

00000000004010b0 <fprintf@plt>:
  4010b0:	ff 25 a2 5f 00 00    	jmp    QWORD PTR [rip+0x5fa2]        # 407058 <fwrite@plt+0x5ef8>
  4010b6:	68 08 00 00 00       	push   0x8
  4010bb:	e9 60 ff ff ff       	jmp    401020 <free@plt-0x10>

00000000004010c0 <fgets_unlocked@plt>:
  4010c0:	ff 25 9a 5f 00 00    	jmp    QWORD PTR [rip+0x5f9a]        # 407060 <fwrite@plt+0x5f00>
  4010c6:	68 09 00 00 00       	push   0x9
  4010cb:	e9 50 ff ff ff       	jmp    401020 <free@plt-0x10>

00000000004010d0 <malloc@plt>:
  4010d0:	ff 25 92 5f 00 00    	jmp    QWORD PTR [rip+0x5f92]        # 407068 <fwrite@plt+0x5f08>
  4010d6:	68 0a 00 00 00       	push   0xa
  4010db:	e9 40 ff ff ff       	jmp    401020 <free@plt-0x10>

00000000004010e0 <fflush@plt>:
  4010e0:	ff 25 8a 5f 00 00    	jmp    QWORD PTR [rip+0x5f8a]        # 407070 <fwrite@plt+0x5f10>
  4010e6:	68 0b 00 00 00       	push   0xb
  4010eb:	e9 30 ff ff ff       	jmp    401020 <free@plt-0x10>

00000000004010f0 <__isoc99_sscanf@plt>:
  4010f0:	ff 25 82 5f 00 00    	jmp    QWORD PTR [rip+0x5f82]        # 407078 <fwrite@plt+0x5f18>
  4010f6:	68 0c 00 00 00       	push   0xc
  4010fb:	e9 20 ff ff ff       	jmp    401020 <free@plt-0x10>

0000000000401100 <fwrite_unlocked@plt>:
  401100:	ff 25 7a 5f 00 00    	jmp    QWORD PTR [rip+0x5f7a]        # 407080 <fwrite@plt+0x5f20>
  401106:	68 0d 00 00 00       	push   0xd
  40110b:	e9 10 ff ff ff       	jmp    401020 <free@plt-0x10>

0000000000401110 <realloc@plt>:
  401110:	ff 25 72 5f 00 00    	jmp    QWORD PTR [rip+0x5f72]        # 407088 <fwrite@plt+0x5f28>
  401116:	68 0e 00 00 00       	push   0xe
  40111b:	e9 00 ff ff ff       	jmp    401020 <free@plt-0x10>

0000000000401120 <fopen@plt>:
  401120:	ff 25 6a 5f 00 00    	jmp    QWORD PTR [rip+0x5f6a]        # 407090 <fwrite@plt+0x5f30>
  401126:	68 0f 00 00 00       	push   0xf
  40112b:	e9 f0 fe ff ff       	jmp    401020 <free@plt-0x10>

0000000000401130 <atoi@plt>:
  401130:	ff 25 62 5f 00 00    	jmp    QWORD PTR [rip+0x5f62]        # 407098 <fwrite@plt+0x5f38>
  401136:	68 10 00 00 00       	push   0x10
  40113b:	e9 e0 fe ff ff       	jmp    401020 <free@plt-0x10>

0000000000401140 <sprintf@plt>:
  401140:	ff 25 5a 5f 00 00    	jmp    QWORD PTR [rip+0x5f5a]        # 4070a0 <fwrite@plt+0x5f40>
  401146:	68 11 00 00 00       	push   0x11
  40114b:	e9 d0 fe ff ff       	jmp    401020 <free@plt-0x10>

0000000000401150 <exit@plt>:
  401150:	ff 25 52 5f 00 00    	jmp    QWORD PTR [rip+0x5f52]        # 4070a8 <fwrite@plt+0x5f48>
  401156:	68 12 00 00 00       	push   0x12
  40115b:	e9 c0 fe ff ff       	jmp    401020 <free@plt-0x10>

0000000000401160 <fwrite@plt>:
  401160:	ff 25 4a 5f 00 00    	jmp    QWORD PTR [rip+0x5f4a]        # 4070b0 <fwrite@plt+0x5f50>
  401166:	68 13 00 00 00       	push   0x13
  40116b:	e9 b0 fe ff ff       	jmp    401020 <free@plt-0x10>

Disassembly of section .text:

0000000000401170 <.text>:
  401170:	f3 0f 1e fa          	endbr64 
  401174:	31 ed                	xor    ebp,ebp
  401176:	49 89 d1             	mov    r9,rdx
  401179:	5e                   	pop    rsi
  40117a:	48 89 e2             	mov    rdx,rsp
  40117d:	48 83 e4 f0          	and    rsp,0xfffffffffffffff0
  401181:	50                   	push   rax
  401182:	54                   	push   rsp
  401183:	49 c7 c0 70 49 40 00 	mov    r8,0x404970
  40118a:	48 c7 c1 00 49 40 00 	mov    rcx,0x404900
  401191:	48 c7 c7 80 13 40 00 	mov    rdi,0x401380
  401198:	ff 15 52 5e 00 00    	call   QWORD PTR [rip+0x5e52]        # 406ff0 <fwrite@plt+0x5e90>
  40119e:	f4                   	hlt    
  40119f:	90                   	nop
  4011a0:	f3 0f 1e fa          	endbr64 
  4011a4:	c3                   	ret    
  4011a5:	66 2e 0f 1f 84 00 00 	cs nop WORD PTR [rax+rax*1+0x0]
  4011ac:	00 00 00 
  4011af:	90                   	nop
  4011b0:	b8 c8 70 40 00       	mov    eax,0x4070c8
  4011b5:	48 3d c8 70 40 00    	cmp    rax,0x4070c8
  4011bb:	74 13                	je     4011d0 <fwrite@plt+0x70>
  4011bd:	b8 00 00 00 00       	mov    eax,0x0
  4011c2:	48 85 c0             	test   rax,rax
  4011c5:	74 09                	je     4011d0 <fwrite@plt+0x70>
  4011c7:	bf c8 70 40 00       	mov    edi,0x4070c8
  4011cc:	ff e0                	jmp    rax
  4011ce:	66 90                	xchg   ax,ax
  4011d0:	c3                   	ret    
  4011d1:	66 66 2e 0f 1f 84 00 	data16 cs nop WORD PTR [rax+rax*1+0x0]
  4011d8:	00 00 00 00 
  4011dc:	0f 1f 40 00          	nop    DWORD PTR [rax+0x0]
  4011e0:	be c8 70 40 00       	mov    esi,0x4070c8
  4011e5:	48 81 ee c8 70 40 00 	sub    rsi,0x4070c8
  4011ec:	48 89 f0             	mov    rax,rsi
  4011ef:	48 c1 ee 3f          	shr    rsi,0x3f
  4011f3:	48 c1 f8 03          	sar    rax,0x3
  4011f7:	48 01 c6             	add    rsi,rax
  4011fa:	48 d1 fe             	sar    rsi,1
  4011fd:	74 11                	je     401210 <fwrite@plt+0xb0>
  4011ff:	b8 00 00 00 00       	mov    eax,0x0
  401204:	48 85 c0             	test   rax,rax
  401207:	74 07                	je     401210 <fwrite@plt+0xb0>
  401209:	bf c8 70 40 00       	mov    edi,0x4070c8
  40120e:	ff e0                	jmp    rax
  401210:	c3                   	ret    
  401211:	66 66 2e 0f 1f 84 00 	data16 cs nop WORD PTR [rax+rax*1+0x0]
  401218:	00 00 00 00 
  40121c:	0f 1f 40 00          	nop    DWORD PTR [rax+0x0]
  401220:	f3 0f 1e fa          	endbr64 
  401224:	80 3d dd 5e 00 00 00 	cmp    BYTE PTR [rip+0x5edd],0x0        # 407108 <stderr@@GLIBC_2.2.5+0x8>
  40122b:	75 13                	jne    401240 <fwrite@plt+0xe0>
  40122d:	55                   	push   rbp
  40122e:	48 89 e5             	mov    rbp,rsp
  401231:	e8 7a ff ff ff       	call   4011b0 <fwrite@plt+0x50>
  401236:	c6 05 cb 5e 00 00 01 	mov    BYTE PTR [rip+0x5ecb],0x1        # 407108 <stderr@@GLIBC_2.2.5+0x8>
  40123d:	5d                   	pop    rbp
  40123e:	c3                   	ret    
  40123f:	90                   	nop
  401240:	c3                   	ret    
  401241:	66 66 2e 0f 1f 84 00 	data16 cs nop WORD PTR [rax+rax*1+0x0]
  401248:	00 00 00 00 
  40124c:	0f 1f 40 00          	nop    DWORD PTR [rax+0x0]
  401250:	f3 0f 1e fa          	endbr64 
  401254:	eb 8a                	jmp    4011e0 <fwrite@plt+0x80>
  401256:	66 2e 0f 1f 84 00 00 	cs nop WORD PTR [rax+rax*1+0x0]
  40125d:	00 00 00 
  401260:	53                   	push   rbx
  401261:	48 c7 c3 ff ff ff ff 	mov    rbx,0xffffffffffffffff
  401268:	0f 1f 84 00 00 00 00 	nop    DWORD PTR [rax+rax*1+0x0]
  40126f:	00 
  401270:	48 85 db             	test   rbx,rbx
  401273:	0f 84 ce 00 00 00    	je     401347 <fwrite@plt+0x1e7>
  401279:	48 8b 35 68 60 00 00 	mov    rsi,QWORD PTR [rip+0x6068]        # 4072e8 <stderr@@GLIBC_2.2.5+0x1e8>
  401280:	bf 04 50 40 00       	mov    edi,0x405004
  401285:	31 c0                	xor    eax,eax
  401287:	e8 f4 fd ff ff       	call   401080 <printf@plt>
  40128c:	bf 40 71 40 00       	mov    edi,0x407140
  401291:	e8 ca 2b 00 00       	call   403e60 <fwrite@plt+0x2d00>
  401296:	48 8b 35 03 61 00 00 	mov    rsi,QWORD PTR [rip+0x6103]        # 4073a0 <stderr@@GLIBC_2.2.5+0x2a0>
  40129d:	bf 26 50 40 00       	mov    edi,0x405026
  4012a2:	31 c0                	xor    eax,eax
  4012a4:	e8 d7 fd ff ff       	call   401080 <printf@plt>
  4012a9:	bf 40 71 40 00       	mov    edi,0x407140
  4012ae:	e8 cd 02 00 00       	call   401580 <fwrite@plt+0x420>
  4012b3:	bf 48 50 40 00       	mov    edi,0x405048
  4012b8:	b0 01                	mov    al,0x1
  4012ba:	e8 c1 fd ff ff       	call   401080 <printf@plt>
  4012bf:	48 83 3d 31 60 00 00 	cmp    QWORD PTR [rip+0x6031],0x0        # 4072f8 <stderr@@GLIBC_2.2.5+0x1f8>
  4012c6:	00 
  4012c7:	74 37                	je     401300 <fwrite@plt+0x1a0>
  4012c9:	bf 40 71 40 00       	mov    edi,0x407140
  4012ce:	48 c7 c6 ff ff ff ff 	mov    rsi,0xffffffffffffffff
  4012d5:	31 d2                	xor    edx,edx
  4012d7:	e8 e4 1d 00 00       	call   4030c0 <fwrite@plt+0x1f60>
  4012dc:	48 85 c0             	test   rax,rax
  4012df:	0f 88 84 00 00 00    	js     401369 <fwrite@plt+0x209>
  4012e5:	74 2f                	je     401316 <fwrite@plt+0x1b6>
  4012e7:	48 89 c1             	mov    rcx,rax
  4012ea:	bf 6c 50 40 00       	mov    edi,0x40506c
  4012ef:	31 c0                	xor    eax,eax
  4012f1:	48 89 ce             	mov    rsi,rcx
  4012f4:	e8 87 fd ff ff       	call   401080 <printf@plt>
  4012f9:	eb 1b                	jmp    401316 <fwrite@plt+0x1b6>
  4012fb:	0f 1f 44 00 00       	nop    DWORD PTR [rax+rax*1+0x0]
  401300:	48 8b 15 e1 5f 00 00 	mov    rdx,QWORD PTR [rip+0x5fe1]        # 4072e8 <stderr@@GLIBC_2.2.5+0x1e8>
  401307:	bf 40 71 40 00       	mov    edi,0x407140
  40130c:	be d0 16 40 00       	mov    esi,0x4016d0
  401311:	e8 ba 0e 00 00       	call   4021d0 <fwrite@plt+0x1070>
  401316:	bf 40 71 40 00       	mov    edi,0x407140
  40131b:	e8 c0 15 00 00       	call   4028e0 <fwrite@plt+0x1780>
  401320:	48 89 c3             	mov    rbx,rax
  401323:	48 85 c0             	test   rax,rax
  401326:	74 0f                	je     401337 <fwrite@plt+0x1d7>
  401328:	bf 8e 50 40 00       	mov    edi,0x40508e
  40132d:	31 c0                	xor    eax,eax
  40132f:	48 89 de             	mov    rsi,rbx
  401332:	e8 49 fd ff ff       	call   401080 <printf@plt>
  401337:	48 85 db             	test   rbx,rbx
  40133a:	0f 89 30 ff ff ff    	jns    401270 <fwrite@plt+0x110>
  401340:	bf 10 51 40 00       	mov    edi,0x405110
  401345:	eb 27                	jmp    40136e <fwrite@plt+0x20e>
  401347:	bf 40 71 40 00       	mov    edi,0x407140
  40134c:	e8 2f 02 00 00       	call   401580 <fwrite@plt+0x420>
  401351:	c5 fb 11 05 ff 5f 00 	vmovsd QWORD PTR [rip+0x5fff],xmm0        # 407358 <stderr@@GLIBC_2.2.5+0x258>
  401358:	00 
  401359:	bf b0 50 40 00       	mov    edi,0x4050b0
  40135e:	b0 01                	mov    al,0x1
  401360:	e8 1b fd ff ff       	call   401080 <printf@plt>
  401365:	31 c0                	xor    eax,eax
  401367:	5b                   	pop    rbx
  401368:	c3                   	ret    
  401369:	bf 10 51 40 00       	mov    edi,0x405110
  40136e:	e8 ed fc ff ff       	call   401060 <puts@plt>
  401373:	bf ff ff ff ff       	mov    edi,0xffffffff
  401378:	e8 d3 fd ff ff       	call   401150 <exit@plt>
  40137d:	0f 1f 00             	nop    DWORD PTR [rax]
  401380:	55                   	push   rbp
  401381:	41 56                	push   r14
  401383:	53                   	push   rbx
  401384:	48 83 ec 50          	sub    rsp,0x50
  401388:	41 be ff ff ff ff    	mov    r14d,0xffffffff
  40138e:	83 ff 02             	cmp    edi,0x2
  401391:	0f 8c 0f 01 00 00    	jl     4014a6 <fwrite@plt+0x346>
  401397:	48 89 f3             	mov    rbx,rsi
  40139a:	89 fd                	mov    ebp,edi
  40139c:	bf 30 51 40 00       	mov    edi,0x405130
  4013a1:	e8 ba fc ff ff       	call   401060 <puts@plt>
  4013a6:	bf 50 51 40 00       	mov    edi,0x405150
  4013ab:	e8 b0 fc ff ff       	call   401060 <puts@plt>
  4013b0:	bf 90 51 40 00       	mov    edi,0x405190
  4013b5:	e8 a6 fc ff ff       	call   401060 <puts@plt>
  4013ba:	bf c0 51 40 00       	mov    edi,0x4051c0
  4013bf:	e8 9c fc ff ff       	call   401060 <puts@plt>
  4013c4:	bf f0 51 40 00       	mov    edi,0x4051f0
  4013c9:	e8 92 fc ff ff       	call   401060 <puts@plt>
  4013ce:	bf 0a 00 00 00       	mov    edi,0xa
  4013d3:	e8 68 fc ff ff       	call   401040 <putchar@plt>
  4013d8:	bf 40 71 40 00       	mov    edi,0x407140
  4013dd:	31 f6                	xor    esi,esi
  4013df:	ba 88 02 00 00       	mov    edx,0x288
  4013e4:	e8 a7 fc ff ff       	call   401090 <memset@plt>
  4013e9:	48 c7 05 5c 5f 00 00 	mov    QWORD PTR [rip+0x5f5c],0x989680        # 407350 <stderr@@GLIBC_2.2.5+0x250>
  4013f0:	80 96 98 00 
  4013f4:	48 8b 73 08          	mov    rsi,QWORD PTR [rbx+0x8]
  4013f8:	bf 40 71 40 00       	mov    edi,0x407140
  4013fd:	e8 4e fc ff ff       	call   401050 <strcpy@plt>
  401402:	83 fd 03             	cmp    ebp,0x3
  401405:	75 1e                	jne    401425 <fwrite@plt+0x2c5>
  401407:	48 8b 7b 10          	mov    rdi,QWORD PTR [rbx+0x10]
  40140b:	e8 20 fd ff ff       	call   401130 <atoi@plt>
  401410:	89 c1                	mov    ecx,eax
  401412:	48 89 e7             	mov    rdi,rsp
  401415:	be d4 50 40 00       	mov    esi,0x4050d4
  40141a:	31 c0                	xor    eax,eax
  40141c:	89 ca                	mov    edx,ecx
  40141e:	e8 1d fd ff ff       	call   401140 <sprintf@plt>
  401423:	eb 0e                	jmp    401433 <fwrite@plt+0x2d3>
  401425:	48 b8 6d 63 66 2e 6f 	movabs rax,0x74756f2e66636d
  40142c:	75 74 00 
  40142f:	48 89 04 24          	mov    QWORD PTR [rsp],rax
  401433:	bf 40 71 40 00       	mov    edi,0x407140
  401438:	e8 03 06 00 00       	call   401a40 <fwrite@plt+0x8e0>
  40143d:	48 85 c0             	test   rax,rax
  401440:	74 16                	je     401458 <fwrite@plt+0x2f8>
  401442:	bf 40 52 40 00       	mov    edi,0x405240
  401447:	e8 14 fc ff ff       	call   401060 <puts@plt>
  40144c:	bf 40 71 40 00       	mov    edi,0x407140
  401451:	e8 7a 05 00 00       	call   4019d0 <fwrite@plt+0x870>
  401456:	eb 4e                	jmp    4014a6 <fwrite@plt+0x346>
  401458:	48 8b 35 79 5e 00 00 	mov    rsi,QWORD PTR [rip+0x5e79]        # 4072d8 <stderr@@GLIBC_2.2.5+0x1d8>
  40145f:	bf df 50 40 00       	mov    edi,0x4050df
  401464:	31 c0                	xor    eax,eax
  401466:	e8 15 fc ff ff       	call   401080 <printf@plt>
  40146b:	bf 40 71 40 00       	mov    edi,0x407140
  401470:	e8 cb 1e 00 00       	call   403340 <fwrite@plt+0x21e0>
  401475:	e8 e6 fd ff ff       	call   401260 <fwrite@plt+0x100>
  40147a:	48 89 e7             	mov    rdi,rsp
  40147d:	be 40 71 40 00       	mov    esi,0x407140
  401482:	e8 59 21 00 00       	call   4035e0 <fwrite@plt+0x2480>
  401487:	48 89 c3             	mov    rbx,rax
  40148a:	bf 40 71 40 00       	mov    edi,0x407140
  40148f:	e8 3c 05 00 00       	call   4019d0 <fwrite@plt+0x870>
  401494:	48 85 db             	test   rbx,rbx
  401497:	75 0d                	jne    4014a6 <fwrite@plt+0x346>
  401499:	bf 01 51 40 00       	mov    edi,0x405101
  40149e:	e8 bd fb ff ff       	call   401060 <puts@plt>
  4014a3:	45 31 f6             	xor    r14d,r14d
  4014a6:	44 89 f0             	mov    eax,r14d
  4014a9:	48 83 c4 50          	add    rsp,0x50
  4014ad:	5b                   	pop    rbx
  4014ae:	41 5e                	pop    r14
  4014b0:	5d                   	pop    rbp
  4014b1:	c3                   	ret    
  4014b2:	66 2e 0f 1f 84 00 00 	cs nop WORD PTR [rax+rax*1+0x0]
  4014b9:	00 00 00 
  4014bc:	0f 1f 40 00          	nop    DWORD PTR [rax+0x0]
  4014c0:	41 57                	push   r15
  4014c2:	41 56                	push   r14
  4014c4:	41 54                	push   r12
  4014c6:	53                   	push   rbx
  4014c7:	50                   	push   rax
  4014c8:	49 89 f6             	mov    r14,rsi
  4014cb:	49 89 ff             	mov    r15,rdi
  4014ce:	48 8b 87 28 02 00 00 	mov    rax,QWORD PTR [rdi+0x228]
  4014d5:	48 8b 8f 30 02 00 00 	mov    rcx,QWORD PTR [rdi+0x230]
  4014dc:	48 39 c8             	cmp    rax,rcx
  4014df:	73 1d                	jae    4014fe <fwrite@plt+0x39e>
  4014e1:	c5 f8 57 c0          	vxorps xmm0,xmm0,xmm0
  4014e5:	66 2e 0f 1f 84 00 00 	cs nop WORD PTR [rax+rax*1+0x0]
  4014ec:	00 00 00 
  4014ef:	90                   	nop
  4014f0:	c5 f8 11 40 38       	vmovups XMMWORD PTR [rax+0x38],xmm0
  4014f5:	48 83 c0 68          	add    rax,0x68
  4014f9:	48 39 c8             	cmp    rax,rcx
  4014fc:	72 f2                	jb     4014f0 <fwrite@plt+0x390>
  4014fe:	49 83 bf a8 01 00 00 	cmp    QWORD PTR [r15+0x1a8],0x0
  401505:	00 
  401506:	7e 5d                	jle    401565 <fwrite@plt+0x405>
  401508:	49 8b 87 38 02 00 00 	mov    rax,QWORD PTR [r15+0x238]
  40150f:	31 db                	xor    ebx,ebx
  401511:	66 2e 0f 1f 84 00 00 	cs nop WORD PTR [rax+rax*1+0x0]
  401518:	00 00 00 
  40151b:	0f 1f 44 00 00       	nop    DWORD PTR [rax+rax*1+0x0]
  401520:	48 8b 48 10          	mov    rcx,QWORD PTR [rax+0x10]
  401524:	48 8b 51 38          	mov    rdx,QWORD PTR [rcx+0x38]
  401528:	48 89 50 28          	mov    QWORD PTR [rax+0x28],rdx
  40152c:	48 89 41 38          	mov    QWORD PTR [rcx+0x38],rax
  401530:	48 8b 48 18          	mov    rcx,QWORD PTR [rax+0x18]
  401534:	48 8b 51 40          	mov    rdx,QWORD PTR [rcx+0x40]
  401538:	48 89 50 30          	mov    QWORD PTR [rax+0x30],rdx
  40153c:	48 89 41 40          	mov    QWORD PTR [rcx+0x40],rax
  401540:	48 83 c3 01          	add    rbx,0x1
  401544:	4d 8b a7 38 02 00 00 	mov    r12,QWORD PTR [r15+0x238]
  40154b:	4c 89 ff             	mov    rdi,r15
  40154e:	48 89 de             	mov    rsi,rbx
  401551:	41 ff d6             	call   r14
  401554:	48 8d 04 c0          	lea    rax,[rax+rax*8]
  401558:	49 8d 04 c4          	lea    rax,[r12+rax*8]
  40155c:	49 39 9f a8 01 00 00 	cmp    QWORD PTR [r15+0x1a8],rbx
  401563:	7f bb                	jg     401520 <fwrite@plt+0x3c0>
  401565:	48 83 c4 08          	add    rsp,0x8
  401569:	5b                   	pop    rbx
  40156a:	41 5c                	pop    r12
  40156c:	41 5e                	pop    r14
  40156e:	41 5f                	pop    r15
  401570:	c3                   	ret    
  401571:	66 2e 0f 1f 84 00 00 	cs nop WORD PTR [rax+rax*1+0x0]
  401578:	00 00 00 
  40157b:	0f 1f 44 00 00       	nop    DWORD PTR [rax+rax*1+0x0]
  401580:	4c 8b 8f a8 01 00 00 	mov    r9,QWORD PTR [rdi+0x1a8]
  401587:	4c 8b 97 38 02 00 00 	mov    r10,QWORD PTR [rdi+0x238]
  40158e:	4d 85 c9             	test   r9,r9
  401591:	7e 29                	jle    4015bc <fwrite@plt+0x45c>
  401593:	4c 8b 8f a8 01 00 00 	mov    r9,QWORD PTR [rdi+0x1a8]
  40159a:	49 8d 52 38          	lea    rdx,[r10+0x38]
  40159e:	31 f6                	xor    esi,esi
  4015a0:	0f b7 4a e8          	movzx  ecx,WORD PTR [rdx-0x18]
  4015a4:	31 c0                	xor    eax,eax
  4015a6:	83 f9 02             	cmp    ecx,0x2
  4015a9:	0f 94 c0             	sete   al
  4015ac:	48 89 02             	mov    QWORD PTR [rdx],rax
  4015af:	48 83 c6 01          	add    rsi,0x1
  4015b3:	48 83 c2 48          	add    rdx,0x48
  4015b7:	49 39 f1             	cmp    r9,rsi
  4015ba:	7f e4                	jg     4015a0 <fwrite@plt+0x440>
  4015bc:	48 83 bf 90 01 00 00 	cmp    QWORD PTR [rdi+0x190],0x0
  4015c3:	00 
  4015c4:	7e 32                	jle    4015f8 <fwrite@plt+0x498>
  4015c6:	48 8b 97 28 02 00 00 	mov    rdx,QWORD PTR [rdi+0x228]
  4015cd:	4c 8b 87 90 01 00 00 	mov    r8,QWORD PTR [rdi+0x190]
  4015d4:	48 81 c2 b8 00 00 00 	add    rdx,0xb8
  4015db:	be 01 00 00 00       	mov    esi,0x1
  4015e0:	48 8b 42 e0          	mov    rax,QWORD PTR [rdx-0x20]
  4015e4:	48 8b 0a             	mov    rcx,QWORD PTR [rdx]
  4015e7:	48 89 48 38          	mov    QWORD PTR [rax+0x38],rcx
  4015eb:	48 83 c6 01          	add    rsi,0x1
  4015ef:	48 83 c2 68          	add    rdx,0x68
  4015f3:	49 39 f0             	cmp    r8,rsi
  4015f6:	7d e8                	jge    4015e0 <fwrite@plt+0x480>
  4015f8:	4d 85 c9             	test   r9,r9
  4015fb:	7e 5f                	jle    40165c <fwrite@plt+0x4fc>
  4015fd:	49 83 c2 08          	add    r10,0x8
  401601:	31 d2                	xor    edx,edx
  401603:	45 31 c0             	xor    r8d,r8d
  401606:	66 2e 0f 1f 84 00 00 	cs nop WORD PTR [rax+rax*1+0x0]
  40160d:	00 00 00 
  401610:	49 83 7a 30 00       	cmp    QWORD PTR [r10+0x30],0x0
  401615:	74 39                	je     401650 <fwrite@plt+0x4f0>
  401617:	49 8b 42 08          	mov    rax,QWORD PTR [r10+0x8]
  40161b:	8b 40 60             	mov    eax,DWORD PTR [rax+0x60]
  40161e:	85 c0                	test   eax,eax
  401620:	78 1e                	js     401640 <fwrite@plt+0x4e0>
  401622:	49 8b 32             	mov    rsi,QWORD PTR [r10]
  401625:	75 26                	jne    40164d <fwrite@plt+0x4ed>
  401627:	48 01 d6             	add    rsi,rdx
  40162a:	48 2b b7 10 02 00 00 	sub    rsi,QWORD PTR [rdi+0x210]
  401631:	49 83 c0 01          	add    r8,0x1
  401635:	48 89 f2             	mov    rdx,rsi
  401638:	eb 16                	jmp    401650 <fwrite@plt+0x4f0>
  40163a:	66 0f 1f 44 00 00    	nop    WORD PTR [rax+rax*1+0x0]
  401640:	49 8b 42 10          	mov    rax,QWORD PTR [r10+0x10]
  401644:	83 78 60 00          	cmp    DWORD PTR [rax+0x60],0x0
  401648:	7f 06                	jg     401650 <fwrite@plt+0x4f0>
  40164a:	49 8b 32             	mov    rsi,QWORD PTR [r10]
  40164d:	48 01 f2             	add    rdx,rsi
  401650:	49 83 c2 48          	add    r10,0x48
  401654:	49 83 c1 ff          	add    r9,0xffffffffffffffff
  401658:	75 b6                	jne    401610 <fwrite@plt+0x4b0>
  40165a:	eb 05                	jmp    401661 <fwrite@plt+0x501>
  40165c:	45 31 c0             	xor    r8d,r8d
  40165f:	31 d2                	xor    edx,edx
  401661:	c4 c1 fb 2a c0       	vcvtsi2sd xmm0,xmm0,r8
  401666:	c4 e1 f3 2a 8f 10 02 	vcvtsi2sd xmm1,xmm1,QWORD PTR [rdi+0x210]
  40166d:	00 00 
  40166f:	c5 fb 59 c1          	vmulsd xmm0,xmm0,xmm1
  401673:	c4 e1 eb 2a ca       	vcvtsi2sd xmm1,xmm2,rdx
  401678:	c5 fb 58 c1          	vaddsd xmm0,xmm0,xmm1
  40167c:	c3                   	ret    
  40167d:	0f 1f 00             	nop    DWORD PTR [rax]
  401680:	31 c0                	xor    eax,eax
  401682:	c3                   	ret    
  401683:	66 2e 0f 1f 84 00 00 	cs nop WORD PTR [rax+rax*1+0x0]
  40168a:	00 00 00 
  40168d:	0f 1f 00             	nop    DWORD PTR [rax]
  401690:	48 89 f0             	mov    rax,rsi
  401693:	48 99                	cqo    
  401695:	48 f7 bf 70 02 00 00 	idiv   QWORD PTR [rdi+0x270]
  40169c:	48 8b b7 78 02 00 00 	mov    rsi,QWORD PTR [rdi+0x278]
  4016a3:	48 8b 8f 80 02 00 00 	mov    rcx,QWORD PTR [rdi+0x280]
  4016aa:	48 89 d7             	mov    rdi,rdx
  4016ad:	48 29 f7             	sub    rdi,rsi
  4016b0:	7e 11                	jle    4016c3 <fwrite@plt+0x563>
  4016b2:	48 0f af f1          	imul   rsi,rcx
  4016b6:	48 83 c1 ff          	add    rcx,0xffffffffffffffff
  4016ba:	48 0f af cf          	imul   rcx,rdi
  4016be:	48 01 f1             	add    rcx,rsi
  4016c1:	eb 04                	jmp    4016c7 <fwrite@plt+0x567>
  4016c3:	48 0f af ca          	imul   rcx,rdx
  4016c7:	48 01 c1             	add    rcx,rax
  4016ca:	48 89 c8             	mov    rax,rcx
  4016cd:	c3                   	ret    
  4016ce:	66 90                	xchg   ax,ax
  4016d0:	48 89 f0             	mov    rax,rsi
  4016d3:	c3                   	ret    
  4016d4:	66 2e 0f 1f 84 00 00 	cs nop WORD PTR [rax+rax*1+0x0]
  4016db:	00 00 00 
  4016de:	66 90                	xchg   ax,ax
  4016e0:	41 56                	push   r14
  4016e2:	53                   	push   rbx
  4016e3:	48 83 ec 18          	sub    rsp,0x18
  4016e7:	49 89 fe             	mov    r14,rdi
  4016ea:	48 8b 8f a8 01 00 00 	mov    rcx,QWORD PTR [rdi+0x1a8]
  4016f1:	48 8b 87 38 02 00 00 	mov    rax,QWORD PTR [rdi+0x238]
  4016f8:	48 85 c9             	test   rcx,rcx
  4016fb:	7e 2f                	jle    40172c <fwrite@plt+0x5cc>
  4016fd:	49 8b 8e a8 01 00 00 	mov    rcx,QWORD PTR [r14+0x1a8]
  401704:	48 8d 50 38          	lea    rdx,[rax+0x38]
  401708:	31 f6                	xor    esi,esi
  40170a:	66 0f 1f 44 00 00    	nop    WORD PTR [rax+rax*1+0x0]
  401710:	0f b7 7a e8          	movzx  edi,WORD PTR [rdx-0x18]
  401714:	31 db                	xor    ebx,ebx
  401716:	83 ff 02             	cmp    edi,0x2
  401719:	0f 94 c3             	sete   bl
  40171c:	48 89 1a             	mov    QWORD PTR [rdx],rbx
  40171f:	48 83 c6 01          	add    rsi,0x1
  401723:	48 83 c2 48          	add    rdx,0x48
  401727:	48 39 f1             	cmp    rcx,rsi
  40172a:	7f e4                	jg     401710 <fwrite@plt+0x5b0>
  40172c:	49 83 be 90 01 00 00 	cmp    QWORD PTR [r14+0x190],0x0
  401733:	00 
  401734:	7e 32                	jle    401768 <fwrite@plt+0x608>
  401736:	49 8b 96 28 02 00 00 	mov    rdx,QWORD PTR [r14+0x228]
  40173d:	4d 8b 86 90 01 00 00 	mov    r8,QWORD PTR [r14+0x190]
  401744:	48 83 c2 50          	add    rdx,0x50
  401748:	31 ff                	xor    edi,edi
  40174a:	66 0f 1f 44 00 00    	nop    WORD PTR [rax+rax*1+0x0]
  401750:	48 8b 5a e0          	mov    rbx,QWORD PTR [rdx-0x20]
  401754:	48 8b 32             	mov    rsi,QWORD PTR [rdx]
  401757:	48 89 73 38          	mov    QWORD PTR [rbx+0x38],rsi
  40175b:	48 83 c7 01          	add    rdi,0x1
  40175f:	48 83 c2 68          	add    rdx,0x68
  401763:	49 39 f8             	cmp    r8,rdi
  401766:	7f e8                	jg     401750 <fwrite@plt+0x5f0>
  401768:	48 85 c9             	test   rcx,rcx
  40176b:	7e 5f                	jle    4017cc <fwrite@plt+0x66c>
  40176d:	48 83 c0 40          	add    rax,0x40
  401771:	31 f6                	xor    esi,esi
  401773:	31 d2                	xor    edx,edx
  401775:	66 2e 0f 1f 84 00 00 	cs nop WORD PTR [rax+rax*1+0x0]
  40177c:	00 00 00 
  40177f:	90                   	nop
  401780:	48 83 78 f8 00       	cmp    QWORD PTR [rax-0x8],0x0
  401785:	74 39                	je     4017c0 <fwrite@plt+0x660>
  401787:	48 8b 78 d0          	mov    rdi,QWORD PTR [rax-0x30]
  40178b:	8b 7f 60             	mov    edi,DWORD PTR [rdi+0x60]
  40178e:	85 ff                	test   edi,edi
  401790:	78 1e                	js     4017b0 <fwrite@plt+0x650>
  401792:	48 8b 38             	mov    rdi,QWORD PTR [rax]
  401795:	75 26                	jne    4017bd <fwrite@plt+0x65d>
  401797:	48 01 f7             	add    rdi,rsi
  40179a:	49 2b be 10 02 00 00 	sub    rdi,QWORD PTR [r14+0x210]
  4017a1:	48 83 c2 01          	add    rdx,0x1
  4017a5:	48 89 fe             	mov    rsi,rdi
  4017a8:	eb 16                	jmp    4017c0 <fwrite@plt+0x660>
  4017aa:	66 0f 1f 44 00 00    	nop    WORD PTR [rax+rax*1+0x0]
  4017b0:	48 8b 78 d8          	mov    rdi,QWORD PTR [rax-0x28]
  4017b4:	83 7f 60 00          	cmp    DWORD PTR [rdi+0x60],0x0
  4017b8:	7f 06                	jg     4017c0 <fwrite@plt+0x660>
  4017ba:	48 8b 38             	mov    rdi,QWORD PTR [rax]
  4017bd:	48 01 fe             	add    rsi,rdi
  4017c0:	48 83 c0 48          	add    rax,0x48
  4017c4:	48 83 c1 ff          	add    rcx,0xffffffffffffffff
  4017c8:	75 b6                	jne    401780 <fwrite@plt+0x620>
  4017ca:	eb 04                	jmp    4017d0 <fwrite@plt+0x670>
  4017cc:	31 d2                	xor    edx,edx
  4017ce:	31 f6                	xor    esi,esi
  4017d0:	c4 e1 fb 2a ca       	vcvtsi2sd xmm1,xmm0,rdx
  4017d5:	c5 fb 11 4c 24 10    	vmovsd QWORD PTR [rsp+0x10],xmm1
  4017db:	c4 c1 fb 2a 86 10 02 	vcvtsi2sd xmm0,xmm0,QWORD PTR [r14+0x210]
  4017e2:	00 00 
  4017e4:	c5 f3 59 c0          	vmulsd xmm0,xmm1,xmm0
  4017e8:	c4 e1 eb 2a ce       	vcvtsi2sd xmm1,xmm2,rsi
  4017ed:	c5 fb 11 4c 24 08    	vmovsd QWORD PTR [rsp+0x8],xmm1
  4017f3:	c5 fb 58 c1          	vaddsd xmm0,xmm0,xmm1
  4017f7:	bf 51 52 40 00       	mov    edi,0x405251
  4017fc:	b0 01                	mov    al,0x1
  4017fe:	e8 7d f8 ff ff       	call   401080 <printf@plt>
  401803:	c4 c1 eb 2a 86 10 02 	vcvtsi2sd xmm0,xmm2,QWORD PTR [r14+0x210]
  40180a:	00 00 
  40180c:	c5 fb 59 44 24 10    	vmulsd xmm0,xmm0,QWORD PTR [rsp+0x10]
  401812:	c5 fb 58 44 24 08    	vaddsd xmm0,xmm0,QWORD PTR [rsp+0x8]
  401818:	48 83 c4 18          	add    rsp,0x18
  40181c:	5b                   	pop    rbx
  40181d:	41 5e                	pop    r14
  40181f:	c3                   	ret    
  401820:	55                   	push   rbp
  401821:	41 57                	push   r15
  401823:	41 56                	push   r14
  401825:	41 55                	push   r13
  401827:	41 54                	push   r12
  401829:	53                   	push   rbx
  40182a:	50                   	push   rax
  40182b:	49 89 ff             	mov    r15,rdi
  40182e:	48 8b 9f 28 02 00 00 	mov    rbx,QWORD PTR [rdi+0x228]
  401835:	48 8b af 30 02 00 00 	mov    rbp,QWORD PTR [rdi+0x230]
  40183c:	48 83 c3 68          	add    rbx,0x68
  401840:	48 39 eb             	cmp    rbx,rbp
  401843:	0f 83 94 00 00 00    	jae    4018dd <fwrite@plt+0x77d>
  401849:	4d 8b a7 50 02 00 00 	mov    r12,QWORD PTR [r15+0x250]
  401850:	4d 8b b7 58 02 00 00 	mov    r14,QWORD PTR [r15+0x258]
  401857:	66 0f 1f 84 00 00 00 	nop    WORD PTR [rax+rax*1+0x0]
  40185e:	00 00 
  401860:	48 8b 43 30          	mov    rax,QWORD PTR [rbx+0x30]
  401864:	4c 8b 6b 50          	mov    r13,QWORD PTR [rbx+0x50]
  401868:	4c 39 e0             	cmp    rax,r12
  40186b:	72 43                	jb     4018b0 <fwrite@plt+0x750>
  40186d:	4c 39 f0             	cmp    rax,r14
  401870:	73 3e                	jae    4018b0 <fwrite@plt+0x750>
  401872:	4c 89 e8             	mov    rax,r13
  401875:	48 f7 d8             	neg    rax
  401878:	49 0f 4c c5          	cmovl  rax,r13
  40187c:	49 3b 87 00 02 00 00 	cmp    rax,QWORD PTR [r15+0x200]
  401883:	7e 46                	jle    4018cb <fwrite@plt+0x76b>
  401885:	bf 5e 52 40 00       	mov    edi,0x40525e
  40188a:	31 c0                	xor    eax,eax
  40188c:	e8 ef f7 ff ff       	call   401080 <printf@plt>
  401891:	8b 73 60             	mov    esi,DWORD PTR [rbx+0x60]
  401894:	bf 77 52 40 00       	mov    edi,0x405277
  401899:	31 c0                	xor    eax,eax
  40189b:	4c 89 ea             	mov    rdx,r13
  40189e:	e8 dd f7 ff ff       	call   401080 <printf@plt>
  4018a3:	eb 26                	jmp    4018cb <fwrite@plt+0x76b>
  4018a5:	66 2e 0f 1f 84 00 00 	cs nop WORD PTR [rax+rax*1+0x0]
  4018ac:	00 00 00 
  4018af:	90                   	nop
  4018b0:	49 8b 87 00 02 00 00 	mov    rax,QWORD PTR [r15+0x200]
  4018b7:	48 89 c1             	mov    rcx,rax
  4018ba:	48 f7 d9             	neg    rcx
  4018bd:	49 39 cd             	cmp    r13,rcx
  4018c0:	7c 24                	jl     4018e6 <fwrite@plt+0x786>
  4018c2:	49 8d 4d ff          	lea    rcx,[r13-0x1]
  4018c6:	48 39 c1             	cmp    rcx,rax
  4018c9:	7f 1b                	jg     4018e6 <fwrite@plt+0x786>
  4018cb:	48 83 c3 68          	add    rbx,0x68
  4018cf:	48 39 eb             	cmp    rbx,rbp
  4018d2:	72 8c                	jb     401860 <fwrite@plt+0x700>
  4018d4:	bb 01 00 00 00       	mov    ebx,0x1
  4018d9:	31 c0                	xor    eax,eax
  4018db:	eb 2b                	jmp    401908 <fwrite@plt+0x7a8>
  4018dd:	31 c0                	xor    eax,eax
  4018df:	bb 01 00 00 00       	mov    ebx,0x1
  4018e4:	eb 22                	jmp    401908 <fwrite@plt+0x7a8>
  4018e6:	31 db                	xor    ebx,ebx
  4018e8:	bf 5e 52 40 00       	mov    edi,0x40525e
  4018ed:	31 c0                	xor    eax,eax
  4018ef:	e8 8c f7 ff ff       	call   401080 <printf@plt>
  4018f4:	bf a8 52 40 00       	mov    edi,0x4052a8
  4018f9:	31 c0                	xor    eax,eax
  4018fb:	4c 89 ee             	mov    rsi,r13
  4018fe:	e8 7d f7 ff ff       	call   401080 <printf@plt>
  401903:	b8 01 00 00 00       	mov    eax,0x1
  401908:	49 89 9f e8 01 00 00 	mov    QWORD PTR [r15+0x1e8],rbx
  40190f:	48 83 c4 08          	add    rsp,0x8
  401913:	5b                   	pop    rbx
  401914:	41 5c                	pop    r12
  401916:	41 5d                	pop    r13
  401918:	41 5e                	pop    r14
  40191a:	41 5f                	pop    r15
  40191c:	5d                   	pop    rbp
  40191d:	c3                   	ret    
  40191e:	66 90                	xchg   ax,ax
  401920:	53                   	push   rbx
  401921:	48 8b 87 38 02 00 00 	mov    rax,QWORD PTR [rdi+0x238]
  401928:	48 8b 8f 40 02 00 00 	mov    rcx,QWORD PTR [rdi+0x240]
  40192f:	31 db                	xor    ebx,ebx
  401931:	48 39 c8             	cmp    rax,rcx
  401934:	72 13                	jb     401949 <fwrite@plt+0x7e9>
  401936:	e9 8b 00 00 00       	jmp    4019c6 <fwrite@plt+0x866>
  40193b:	0f 1f 44 00 00       	nop    DWORD PTR [rax+rax*1+0x0]
  401940:	48 83 c0 48          	add    rax,0x48
  401944:	48 39 c8             	cmp    rax,rcx
  401947:	73 7d                	jae    4019c6 <fwrite@plt+0x866>
  401949:	48 8b 50 08          	mov    rdx,QWORD PTR [rax+0x8]
  40194d:	48 8b 70 10          	mov    rsi,QWORD PTR [rax+0x10]
  401951:	48 2b 16             	sub    rdx,QWORD PTR [rsi]
  401954:	48 8b 70 18          	mov    rsi,QWORD PTR [rax+0x18]
  401958:	48 03 16             	add    rdx,QWORD PTR [rsi]
  40195b:	0f bf 70 20          	movsx  esi,WORD PTR [rax+0x20]
  40195f:	83 fe 02             	cmp    esi,0x2
  401962:	73 1c                	jae    401980 <fwrite@plt+0x820>
  401964:	31 f6                	xor    esi,esi
  401966:	48 2b b7 00 02 00 00 	sub    rsi,QWORD PTR [rdi+0x200]
  40196d:	48 39 f2             	cmp    rdx,rsi
  401970:	7d ce                	jge    401940 <fwrite@plt+0x7e0>
  401972:	eb 17                	jmp    40198b <fwrite@plt+0x82b>
  401974:	66 2e 0f 1f 84 00 00 	cs nop WORD PTR [rax+rax*1+0x0]
  40197b:	00 00 00 
  40197e:	66 90                	xchg   ax,ax
  401980:	75 be                	jne    401940 <fwrite@plt+0x7e0>
  401982:	48 3b 97 00 02 00 00 	cmp    rdx,QWORD PTR [rdi+0x200]
  401989:	7e b5                	jle    401940 <fwrite@plt+0x7e0>
  40198b:	48 8b 0d 6e 57 00 00 	mov    rcx,QWORD PTR [rip+0x576e]        # 407100 <stderr@@GLIBC_2.2.5>
  401992:	bb 01 00 00 00       	mov    ebx,0x1
  401997:	bf c7 52 40 00       	mov    edi,0x4052c7
  40199c:	be 16 00 00 00       	mov    esi,0x16
  4019a1:	ba 01 00 00 00       	mov    edx,0x1
  4019a6:	e8 b5 f7 ff ff       	call   401160 <fwrite@plt>
  4019ab:	48 8b 0d 4e 57 00 00 	mov    rcx,QWORD PTR [rip+0x574e]        # 407100 <stderr@@GLIBC_2.2.5>
  4019b2:	bf de 52 40 00       	mov    edi,0x4052de
  4019b7:	be 16 00 00 00       	mov    esi,0x16
  4019bc:	ba 01 00 00 00       	mov    edx,0x1
  4019c1:	e8 9a f7 ff ff       	call   401160 <fwrite@plt>
  4019c6:	48 89 d8             	mov    rax,rbx
  4019c9:	5b                   	pop    rbx
  4019ca:	c3                   	ret    
  4019cb:	0f 1f 44 00 00       	nop    DWORD PTR [rax+rax*1+0x0]
  4019d0:	53                   	push   rbx
  4019d1:	48 89 fb             	mov    rbx,rdi
  4019d4:	48 8b bf 28 02 00 00 	mov    rdi,QWORD PTR [rdi+0x228]
  4019db:	48 85 ff             	test   rdi,rdi
  4019de:	74 05                	je     4019e5 <fwrite@plt+0x885>
  4019e0:	e8 4b f6 ff ff       	call   401030 <free@plt>
  4019e5:	48 8b bb 38 02 00 00 	mov    rdi,QWORD PTR [rbx+0x238]
  4019ec:	48 85 ff             	test   rdi,rdi
  4019ef:	74 05                	je     4019f6 <fwrite@plt+0x896>
  4019f1:	e8 3a f6 ff ff       	call   401030 <free@plt>
  4019f6:	48 8b bb 50 02 00 00 	mov    rdi,QWORD PTR [rbx+0x250]
  4019fd:	48 85 ff             	test   rdi,rdi
  401a00:	74 05                	je     401a07 <fwrite@plt+0x8a7>
  401a02:	e8 29 f6 ff ff       	call   401030 <free@plt>
  401a07:	48 8b bb 48 02 00 00 	mov    rdi,QWORD PTR [rbx+0x248]
  401a0e:	48 81 c3 28 02 00 00 	add    rbx,0x228
  401a15:	48 85 ff             	test   rdi,rdi
  401a18:	74 05                	je     401a1f <fwrite@plt+0x8bf>
  401a1a:	e8 11 f6 ff ff       	call   401030 <free@plt>
  401a1f:	c5 f8 57 c0          	vxorps xmm0,xmm0,xmm0
  401a23:	c5 fc 11 43 18       	vmovups YMMWORD PTR [rbx+0x18],ymm0
  401a28:	c5 fc 11 03          	vmovups YMMWORD PTR [rbx],ymm0
  401a2c:	31 c0                	xor    eax,eax
  401a2e:	5b                   	pop    rbx
  401a2f:	c5 f8 77             	vzeroupper 
  401a32:	c3                   	ret    
  401a33:	66 2e 0f 1f 84 00 00 	cs nop WORD PTR [rax+rax*1+0x0]
  401a3a:	00 00 00 
  401a3d:	0f 1f 00             	nop    DWORD PTR [rax]
  401a40:	55                   	push   rbp
  401a41:	41 57                	push   r15
  401a43:	41 56                	push   r14
  401a45:	41 55                	push   r13
  401a47:	41 54                	push   r12
  401a49:	53                   	push   rbx
  401a4a:	48 81 ec 28 01 00 00 	sub    rsp,0x128
  401a51:	49 89 fe             	mov    r14,rdi
  401a54:	be 00 53 40 00       	mov    esi,0x405300
  401a59:	e8 c2 f6 ff ff       	call   401120 <fopen@plt>
  401a5e:	49 c7 c4 ff ff ff ff 	mov    r12,0xffffffffffffffff
  401a65:	48 85 c0             	test   rax,rax
  401a68:	0f 84 fe 04 00 00    	je     401f6c <fwrite@plt+0xe0c>
  401a6e:	48 89 c3             	mov    rbx,rax
  401a71:	48 8d 6c 24 50       	lea    rbp,[rsp+0x50]
  401a76:	be c8 00 00 00       	mov    esi,0xc8
  401a7b:	48 89 ef             	mov    rdi,rbp
  401a7e:	48 89 c2             	mov    rdx,rax
  401a81:	e8 3a f6 ff ff       	call   4010c0 <fgets_unlocked@plt>
  401a86:	48 8d 54 24 10       	lea    rdx,[rsp+0x10]
  401a8b:	48 8d 4c 24 08       	lea    rcx,[rsp+0x8]
  401a90:	be 06 53 40 00       	mov    esi,0x405306
  401a95:	31 c0                	xor    eax,eax
  401a97:	48 89 ef             	mov    rdi,rbp
  401a9a:	e8 51 f6 ff ff       	call   4010f0 <__isoc99_sscanf@plt>
  401a9f:	83 f8 02             	cmp    eax,0x2
  401aa2:	0f 85 c4 04 00 00    	jne    401f6c <fwrite@plt+0xe0c>
  401aa8:	48 89 5c 24 18       	mov    QWORD PTR [rsp+0x18],rbx
  401aad:	48 8b 4c 24 10       	mov    rcx,QWORD PTR [rsp+0x10]
  401ab2:	49 89 8e 98 01 00 00 	mov    QWORD PTR [r14+0x198],rcx
  401ab9:	48 8b 44 24 08       	mov    rax,QWORD PTR [rsp+0x8]
  401abe:	49 89 86 b0 01 00 00 	mov    QWORD PTR [r14+0x1b0],rax
  401ac5:	4c 8d 64 09 01       	lea    r12,[rcx+rcx*1+0x1]
  401aca:	4d 89 a6 90 01 00 00 	mov    QWORD PTR [r14+0x190],r12
  401ad1:	48 8d 14 49          	lea    rdx,[rcx+rcx*2]
  401ad5:	4c 8d 2c 10          	lea    r13,[rax+rdx*1]
  401ad9:	4d 89 ae a8 01 00 00 	mov    QWORD PTR [r14+0x1a8],r13
  401ae0:	49 c7 86 80 02 00 00 	mov    QWORD PTR [r14+0x280],0xfa0
  401ae7:	a0 0f 00 00 
  401aeb:	48 01 d0             	add    rax,rdx
  401aee:	48 83 c0 ff          	add    rax,0xffffffffffffffff
  401af2:	48 bf cf f7 53 e3 a5 	movabs rdi,0x20c49ba5e353f7cf
  401af9:	9b c4 20 
  401afc:	48 f7 ef             	imul   rdi
  401aff:	48 89 d0             	mov    rax,rdx
  401b02:	48 c1 e8 3f          	shr    rax,0x3f
  401b06:	48 c1 fa 09          	sar    rdx,0x9
  401b0a:	48 8d 34 02          	lea    rsi,[rdx+rax*1]
  401b0e:	48 83 c6 01          	add    rsi,0x1
  401b12:	4c 89 e8             	mov    rax,r13
  401b15:	48 f7 ef             	imul   rdi
  401b18:	49 89 b6 70 02 00 00 	mov    QWORD PTR [r14+0x270],rsi
  401b1f:	48 89 d0             	mov    rax,rdx
  401b22:	48 c1 e8 3f          	shr    rax,0x3f
  401b26:	48 c1 fa 09          	sar    rdx,0x9
  401b2a:	48 01 c2             	add    rdx,rax
  401b2d:	48 69 c2 a0 0f 00 00 	imul   rax,rdx,0xfa0
  401b34:	4c 89 ea             	mov    rdx,r13
  401b37:	48 29 c2             	sub    rdx,rax
  401b3a:	48 8d 82 60 f0 ff ff 	lea    rax,[rdx-0xfa0]
  401b41:	48 85 d2             	test   rdx,rdx
  401b44:	48 0f 44 c2          	cmove  rax,rdx
  401b48:	48 01 f0             	add    rax,rsi
  401b4b:	49 89 86 78 02 00 00 	mov    QWORD PTR [r14+0x278],rax
  401b52:	78 28                	js     401b7c <fwrite@plt+0xa1c>
  401b54:	48 81 f9 98 3a 00 00 	cmp    rcx,0x3a98
  401b5b:	7f 53                	jg     401bb0 <fwrite@plt+0xa50>
  401b5d:	4d 89 ae a0 01 00 00 	mov    QWORD PTR [r14+0x1a0],r13
  401b64:	49 c7 86 c8 01 00 00 	mov    QWORD PTR [r14+0x1c8],0x1e8480
  401b6b:	80 84 1e 00 
  401b6f:	49 c7 86 c0 01 00 00 	mov    QWORD PTR [r14+0x1c0],0x0
  401b76:	00 00 00 00 
  401b7a:	eb 78                	jmp    401bf4 <fwrite@plt+0xa94>
  401b7c:	49 8b 96 80 02 00 00 	mov    rdx,QWORD PTR [r14+0x280]
  401b83:	66 2e 0f 1f 84 00 00 	cs nop WORD PTR [rax+rax*1+0x0]
  401b8a:	00 00 00 
  401b8d:	0f 1f 00             	nop    DWORD PTR [rax]
  401b90:	48 83 c2 ff          	add    rdx,0xffffffffffffffff
  401b94:	48 01 f0             	add    rax,rsi
  401b97:	78 f7                	js     401b90 <fwrite@plt+0xa30>
  401b99:	49 89 86 78 02 00 00 	mov    QWORD PTR [r14+0x278],rax
  401ba0:	49 89 96 80 02 00 00 	mov    QWORD PTR [r14+0x280],rdx
  401ba7:	48 81 f9 98 3a 00 00 	cmp    rcx,0x3a98
  401bae:	7e ad                	jle    401b5d <fwrite@plt+0x9fd>
  401bb0:	49 8d 85 40 4b 4c 00 	lea    rax,[r13+0x4c4b40]
  401bb7:	c4 c1 fb 2a c5       	vcvtsi2sd xmm0,xmm0,r13
  401bbc:	c5 fb 10 0d 34 37 00 	vmovsd xmm1,QWORD PTR [rip+0x3734]        # 4052f8 <fwrite@plt+0x4198>
  401bc3:	00 
  401bc4:	c5 fb 59 c1          	vmulsd xmm0,xmm0,xmm1
  401bc8:	c4 e1 fb 2c c8       	vcvttsd2si rcx,xmm0
  401bcd:	c4 e1 eb 2a c1       	vcvtsi2sd xmm0,xmm2,rcx
  401bd2:	c5 fb 59 c1          	vmulsd xmm0,xmm0,xmm1
  401bd6:	c4 e1 fb 2c c8       	vcvttsd2si rcx,xmm0
  401bdb:	48 39 c8             	cmp    rax,rcx
  401bde:	48 0f 4d c8          	cmovge rcx,rax
  401be2:	49 89 8e a0 01 00 00 	mov    QWORD PTR [r14+0x1a0],rcx
  401be9:	49 c7 86 c8 01 00 00 	mov    QWORD PTR [r14+0x1c8],0x1b8faa0
  401bf0:	a0 fa b8 01 
  401bf4:	49 8d 7c 24 01       	lea    rdi,[r12+0x1]
  401bf9:	be 68 00 00 00       	mov    esi,0x68
  401bfe:	e8 9d f4 ff ff       	call   4010a0 <calloc@plt>
  401c03:	49 89 86 28 02 00 00 	mov    QWORD PTR [r14+0x228],rax
  401c0a:	be 48 00 00 00       	mov    esi,0x48
  401c0f:	4c 89 e7             	mov    rdi,r12
  401c12:	e8 89 f4 ff ff       	call   4010a0 <calloc@plt>
  401c17:	49 89 86 50 02 00 00 	mov    QWORD PTR [r14+0x250],rax
  401c1e:	49 8b ae a0 01 00 00 	mov    rbp,QWORD PTR [r14+0x1a0]
  401c25:	be 48 00 00 00       	mov    esi,0x48
  401c2a:	48 89 ef             	mov    rdi,rbp
  401c2d:	e8 6e f4 ff ff       	call   4010a0 <calloc@plt>
  401c32:	49 89 86 48 02 00 00 	mov    QWORD PTR [r14+0x248],rax
  401c39:	be 48 00 00 00       	mov    esi,0x48
  401c3e:	48 89 ef             	mov    rdi,rbp
  401c41:	e8 5a f4 ff ff       	call   4010a0 <calloc@plt>
  401c46:	49 89 86 38 02 00 00 	mov    QWORD PTR [r14+0x238],rax
  401c4d:	48 85 c0             	test   rax,rax
  401c50:	0f 84 fd 02 00 00    	je     401f53 <fwrite@plt+0xdf3>
  401c56:	49 8b b6 28 02 00 00 	mov    rsi,QWORD PTR [r14+0x228]
  401c5d:	48 85 f6             	test   rsi,rsi
  401c60:	0f 84 ed 02 00 00    	je     401f53 <fwrite@plt+0xdf3>
  401c66:	49 8b 8e 50 02 00 00 	mov    rcx,QWORD PTR [r14+0x250]
  401c6d:	48 85 c9             	test   rcx,rcx
  401c70:	0f 84 dd 02 00 00    	je     401f53 <fwrite@plt+0xdf3>
  401c76:	49 83 be 48 02 00 00 	cmp    QWORD PTR [r14+0x248],0x0
  401c7d:	00 
  401c7e:	0f 84 cf 02 00 00    	je     401f53 <fwrite@plt+0xdf3>
  401c84:	49 6b c4 68          	imul   rax,r12,0x68
  401c88:	48 01 f0             	add    rax,rsi
  401c8b:	48 83 c0 68          	add    rax,0x68
  401c8f:	49 89 86 30 02 00 00 	mov    QWORD PTR [r14+0x230],rax
  401c96:	49 8b 86 98 01 00 00 	mov    rax,QWORD PTR [r14+0x198]
  401c9d:	49 8b 9e 38 02 00 00 	mov    rbx,QWORD PTR [r14+0x238]
  401ca4:	4b 8d 54 ed 00       	lea    rdx,[r13+r13*8+0x0]
  401ca9:	48 8d 14 d3          	lea    rdx,[rbx+rdx*8]
  401cad:	49 89 96 40 02 00 00 	mov    QWORD PTR [r14+0x240],rdx
  401cb4:	4b 8d 14 e4          	lea    rdx,[r12+r12*8]
  401cb8:	48 8d 0c d1          	lea    rcx,[rcx+rdx*8]
  401cbc:	49 89 8e 58 02 00 00 	mov    QWORD PTR [r14+0x258],rcx
  401cc3:	48 85 c0             	test   rax,rax
  401cc6:	48 89 74 24 30       	mov    QWORD PTR [rsp+0x30],rsi
  401ccb:	0f 8e b0 02 00 00    	jle    401f81 <fwrite@plt+0xe21>
  401cd1:	48 89 5c 24 20       	mov    QWORD PTR [rsp+0x20],rbx
  401cd6:	48 8d 6e 68          	lea    rbp,[rsi+0x68]
  401cda:	bb ff ff ff ff       	mov    ebx,0xffffffff
  401cdf:	45 31 ff             	xor    r15d,r15d
  401ce2:	45 31 e4             	xor    r12d,r12d
  401ce5:	66 2e 0f 1f 84 00 00 	cs nop WORD PTR [rax+rax*1+0x0]
  401cec:	00 00 00 
  401cef:	90                   	nop
  401cf0:	be c8 00 00 00       	mov    esi,0xc8
  401cf5:	4c 8d 6c 24 50       	lea    r13,[rsp+0x50]
  401cfa:	4c 89 ef             	mov    rdi,r13
  401cfd:	48 8b 54 24 18       	mov    rdx,QWORD PTR [rsp+0x18]
  401d02:	e8 b9 f3 ff ff       	call   4010c0 <fgets_unlocked@plt>
  401d07:	be 06 53 40 00       	mov    esi,0x405306
  401d0c:	31 c0                	xor    eax,eax
  401d0e:	4c 89 ef             	mov    rdi,r13
  401d11:	48 8d 54 24 10       	lea    rdx,[rsp+0x10]
  401d16:	48 8d 4c 24 08       	lea    rcx,[rsp+0x8]
  401d1b:	e8 d0 f3 ff ff       	call   4010f0 <__isoc99_sscanf@plt>
  401d20:	83 f8 02             	cmp    eax,0x2
  401d23:	0f 85 3c 02 00 00    	jne    401f65 <fwrite@plt+0xe05>
  401d29:	48 8b 44 24 10       	mov    rax,QWORD PTR [rsp+0x10]
  401d2e:	48 3b 44 24 08       	cmp    rax,QWORD PTR [rsp+0x8]
  401d33:	0f 8f 2c 02 00 00    	jg     401f65 <fwrite@plt+0xe05>
  401d39:	49 8d 4f 01          	lea    rcx,[r15+0x1]
  401d3d:	48 89 4c 24 38       	mov    QWORD PTR [rsp+0x38],rcx
  401d42:	89 5d 60             	mov    DWORD PTR [rbp+0x60],ebx
  401d45:	48 c7 45 50 ff ff ff 	mov    QWORD PTR [rbp+0x50],0xffffffffffffffff
  401d4c:	ff 
  401d4d:	49 8b 86 98 01 00 00 	mov    rax,QWORD PTR [r14+0x198]
  401d54:	4c 01 f8             	add    rax,r15
  401d57:	48 6b c0 68          	imul   rax,rax,0x68
  401d5b:	89 5c 24 2c          	mov    DWORD PTR [rsp+0x2c],ebx
  401d5f:	4d 89 f5             	mov    r13,r14
  401d62:	4c 8b 74 24 30       	mov    r14,QWORD PTR [rsp+0x30]
  401d67:	41 89 8c 06 c8 00 00 	mov    DWORD PTR [r14+rax*1+0xc8],ecx
  401d6e:	00 
  401d6f:	49 c7 84 06 b8 00 00 	mov    QWORD PTR [r14+rax*1+0xb8],0x1
  401d76:	00 01 00 00 00 
  401d7b:	8b 4c 24 10          	mov    ecx,DWORD PTR [rsp+0x10]
  401d7f:	89 4d 64             	mov    DWORD PTR [rbp+0x64],ecx
  401d82:	8b 4c 24 08          	mov    ecx,DWORD PTR [rsp+0x8]
  401d86:	41 89 8c 06 cc 00 00 	mov    DWORD PTR [r14+rax*1+0xcc],ecx
  401d8d:	00 
  401d8e:	48 8b 54 24 20       	mov    rdx,QWORD PTR [rsp+0x20]
  401d93:	44 89 22             	mov    DWORD PTR [rdx],r12d
  401d96:	49 6b 85 90 01 00 00 	imul   rax,QWORD PTR [r13+0x190],0x68
  401d9d:	68 
  401d9e:	49 8d 0c 06          	lea    rcx,[r14+rax*1]
  401da2:	48 89 4a 10          	mov    QWORD PTR [rdx+0x10],rcx
  401da6:	48 89 6a 18          	mov    QWORD PTR [rdx+0x18],rbp
  401daa:	49 8b 8d 10 02 00 00 	mov    rcx,QWORD PTR [r13+0x210]
  401db1:	48 83 c1 0f          	add    rcx,0xf
  401db5:	48 89 4a 08          	mov    QWORD PTR [rdx+0x8],rcx
  401db9:	48 89 4a 40          	mov    QWORD PTR [rdx+0x40],rcx
  401dbd:	49 8b 4c 06 38       	mov    rcx,QWORD PTR [r14+rax*1+0x38]
  401dc2:	48 89 4a 28          	mov    QWORD PTR [rdx+0x28],rcx
  401dc6:	49 89 54 06 38       	mov    QWORD PTR [r14+rax*1+0x38],rdx
  401dcb:	48 8b 45 40          	mov    rax,QWORD PTR [rbp+0x40]
  401dcf:	48 89 42 30          	mov    QWORD PTR [rdx+0x30],rax
  401dd3:	48 89 55 40          	mov    QWORD PTR [rbp+0x40],rdx
  401dd7:	4c 89 e3             	mov    rbx,r12
  401dda:	48 89 6c 24 40       	mov    QWORD PTR [rsp+0x40],rbp
  401ddf:	4d 8b a5 38 02 00 00 	mov    r12,QWORD PTR [r13+0x238]
  401de6:	48 8d 6b 01          	lea    rbp,[rbx+0x1]
  401dea:	4c 89 ef             	mov    rdi,r13
  401ded:	48 89 ee             	mov    rsi,rbp
  401df0:	e8 9b f8 ff ff       	call   401690 <fwrite@plt+0x530>
  401df5:	48 8d 04 c0          	lea    rax,[rax+rax*8]
  401df9:	49 8d 0c c4          	lea    rcx,[r12+rax*8]
  401dfd:	41 89 2c c4          	mov    DWORD PTR [r12+rax*8],ebp
  401e01:	49 8b 95 98 01 00 00 	mov    rdx,QWORD PTR [r13+0x198]
  401e08:	4c 01 fa             	add    rdx,r15
  401e0b:	48 6b d2 68          	imul   rdx,rdx,0x68
  401e0f:	49 8d 34 16          	lea    rsi,[r14+rdx*1]
  401e13:	48 83 c6 68          	add    rsi,0x68
  401e17:	49 89 74 c4 10       	mov    QWORD PTR [r12+rax*8+0x10],rsi
  401e1c:	49 6b b5 90 01 00 00 	imul   rsi,QWORD PTR [r13+0x190],0x68
  401e23:	68 
  401e24:	49 8d 3c 36          	lea    rdi,[r14+rsi*1]
  401e28:	49 89 7c c4 18       	mov    QWORD PTR [r12+rax*8+0x18],rdi
  401e2d:	49 c7 44 c4 08 0f 00 	mov    QWORD PTR [r12+rax*8+0x8],0xf
  401e34:	00 00 
  401e36:	49 c7 44 c4 40 0f 00 	mov    QWORD PTR [r12+rax*8+0x40],0xf
  401e3d:	00 00 
  401e3f:	49 8b bc 16 a0 00 00 	mov    rdi,QWORD PTR [r14+rdx*1+0xa0]
  401e46:	00 
  401e47:	49 89 7c c4 28       	mov    QWORD PTR [r12+rax*8+0x28],rdi
  401e4c:	49 89 8c 16 a0 00 00 	mov    QWORD PTR [r14+rdx*1+0xa0],rcx
  401e53:	00 
  401e54:	49 8b 54 36 40       	mov    rdx,QWORD PTR [r14+rsi*1+0x40]
  401e59:	49 89 54 c4 30       	mov    QWORD PTR [r12+rax*8+0x30],rdx
  401e5e:	49 89 dc             	mov    r12,rbx
  401e61:	49 89 4c 36 40       	mov    QWORD PTR [r14+rsi*1+0x40],rcx
  401e66:	49 8b 9d 38 02 00 00 	mov    rbx,QWORD PTR [r13+0x238]
  401e6d:	49 8d 6c 24 02       	lea    rbp,[r12+0x2]
  401e72:	4c 89 ef             	mov    rdi,r13
  401e75:	48 89 ee             	mov    rsi,rbp
  401e78:	e8 13 f8 ff ff       	call   401690 <fwrite@plt+0x530>
  401e7d:	48 8d 04 c0          	lea    rax,[rax+rax*8]
  401e81:	89 2c c3             	mov    DWORD PTR [rbx+rax*8],ebp
  401e84:	48 8b 6c 24 40       	mov    rbp,QWORD PTR [rsp+0x40]
  401e89:	48 89 6c c3 10       	mov    QWORD PTR [rbx+rax*8+0x10],rbp
  401e8e:	4d 03 bd 98 01 00 00 	add    r15,QWORD PTR [r13+0x198]
  401e95:	49 6b cf 68          	imul   rcx,r15,0x68
  401e99:	49 8d 14 0e          	lea    rdx,[r14+rcx*1]
  401e9d:	48 83 c2 68          	add    rdx,0x68
  401ea1:	48 89 54 c3 18       	mov    QWORD PTR [rbx+rax*8+0x18],rdx
  401ea6:	49 8b 95 10 02 00 00 	mov    rdx,QWORD PTR [r13+0x210]
  401ead:	48 81 fa 7f 96 98 00 	cmp    rdx,0x98967f
  401eb4:	be 80 96 98 00       	mov    esi,0x989680
  401eb9:	48 0f 4e d6          	cmovle rdx,rsi
  401ebd:	48 8d 34 c3          	lea    rsi,[rbx+rax*8]
  401ec1:	48 01 d2             	add    rdx,rdx
  401ec4:	48 89 54 c3 08       	mov    QWORD PTR [rbx+rax*8+0x8],rdx
  401ec9:	48 89 54 c3 40       	mov    QWORD PTR [rbx+rax*8+0x40],rdx
  401ece:	48 8b 55 38          	mov    rdx,QWORD PTR [rbp+0x38]
  401ed2:	48 89 54 c3 28       	mov    QWORD PTR [rbx+rax*8+0x28],rdx
  401ed7:	48 89 75 38          	mov    QWORD PTR [rbp+0x38],rsi
  401edb:	49 8b 94 0e a8 00 00 	mov    rdx,QWORD PTR [r14+rcx*1+0xa8]
  401ee2:	00 
  401ee3:	48 89 54 c3 30       	mov    QWORD PTR [rbx+rax*8+0x30],rdx
  401ee8:	49 89 b4 0e a8 00 00 	mov    QWORD PTR [r14+rcx*1+0xa8],rsi
  401eef:	00 
  401ef0:	4d 89 ee             	mov    r14,r13
  401ef3:	8b 5c 24 2c          	mov    ebx,DWORD PTR [rsp+0x2c]
  401ef7:	4d 8b bd 38 02 00 00 	mov    r15,QWORD PTR [r13+0x238]
  401efe:	49 83 c4 03          	add    r12,0x3
  401f02:	4c 89 ef             	mov    rdi,r13
  401f05:	4c 89 e6             	mov    rsi,r12
  401f08:	e8 83 f7 ff ff       	call   401690 <fwrite@plt+0x530>
  401f0d:	48 8b 4c 24 38       	mov    rcx,QWORD PTR [rsp+0x38]
  401f12:	48 8d 04 c0          	lea    rax,[rax+rax*8]
  401f16:	49 8d 04 c7          	lea    rax,[r15+rax*8]
  401f1a:	48 89 44 24 20       	mov    QWORD PTR [rsp+0x20],rax
  401f1f:	49 8b 85 98 01 00 00 	mov    rax,QWORD PTR [r13+0x198]
  401f26:	48 83 c5 68          	add    rbp,0x68
  401f2a:	83 c3 ff             	add    ebx,0xffffffff
  401f2d:	49 89 cf             	mov    r15,rcx
  401f30:	48 39 c1             	cmp    rcx,rax
  401f33:	0f 8c b7 fd ff ff    	jl     401cf0 <fwrite@plt+0xb90>
  401f39:	4c 89 e5             	mov    rbp,r12
  401f3c:	48 83 c1 01          	add    rcx,0x1
  401f40:	49 c7 c4 ff ff ff ff 	mov    r12,0xffffffffffffffff
  401f47:	4c 8b 6c 24 18       	mov    r13,QWORD PTR [rsp+0x18]
  401f4c:	48 8b 5c 24 20       	mov    rbx,QWORD PTR [rsp+0x20]
  401f51:	eb 41                	jmp    401f94 <fwrite@plt+0xe34>
  401f53:	bf 10 53 40 00       	mov    edi,0x405310
  401f58:	e8 03 f1 ff ff       	call   401060 <puts@plt>
  401f5d:	4c 89 f7             	mov    rdi,r14
  401f60:	e8 6b fa ff ff       	call   4019d0 <fwrite@plt+0x870>
  401f65:	49 c7 c4 ff ff ff ff 	mov    r12,0xffffffffffffffff
  401f6c:	4c 89 e0             	mov    rax,r12
  401f6f:	48 81 c4 28 01 00 00 	add    rsp,0x128
  401f76:	5b                   	pop    rbx
  401f77:	41 5c                	pop    r12
  401f79:	41 5d                	pop    r13
  401f7b:	41 5e                	pop    r14
  401f7d:	41 5f                	pop    r15
  401f7f:	5d                   	pop    rbp
  401f80:	c3                   	ret    
  401f81:	31 ed                	xor    ebp,ebp
  401f83:	b9 01 00 00 00       	mov    ecx,0x1
  401f88:	49 c7 c4 ff ff ff ff 	mov    r12,0xffffffffffffffff
  401f8f:	4c 8b 6c 24 18       	mov    r13,QWORD PTR [rsp+0x18]
  401f94:	48 83 c0 01          	add    rax,0x1
  401f98:	48 39 c1             	cmp    rcx,rax
  401f9b:	75 cf                	jne    401f6c <fwrite@plt+0xe0c>
  401f9d:	49 83 be b0 01 00 00 	cmp    QWORD PTR [r14+0x1b0],0x0
  401fa4:	00 
  401fa5:	0f 8e c7 00 00 00    	jle    402072 <fwrite@plt+0xf12>
  401fab:	4c 8d 64 24 50       	lea    r12,[rsp+0x50]
  401fb0:	45 31 ff             	xor    r15d,r15d
  401fb3:	be c8 00 00 00       	mov    esi,0xc8
  401fb8:	4c 89 e7             	mov    rdi,r12
  401fbb:	4c 89 ea             	mov    rdx,r13
  401fbe:	e8 fd f0 ff ff       	call   4010c0 <fgets_unlocked@plt>
  401fc3:	be 02 53 40 00       	mov    esi,0x405302
  401fc8:	31 c0                	xor    eax,eax
  401fca:	4c 89 e7             	mov    rdi,r12
  401fcd:	48 8d 54 24 10       	lea    rdx,[rsp+0x10]
  401fd2:	48 8d 4c 24 08       	lea    rcx,[rsp+0x8]
  401fd7:	4c 8d 44 24 48       	lea    r8,[rsp+0x48]
  401fdc:	e8 0f f1 ff ff       	call   4010f0 <__isoc99_sscanf@plt>
  401fe1:	83 f8 03             	cmp    eax,0x3
  401fe4:	0f 85 7b ff ff ff    	jne    401f65 <fwrite@plt+0xe05>
  401fea:	48 89 ee             	mov    rsi,rbp
  401fed:	89 33                	mov    DWORD PTR [rbx],esi
  401fef:	49 8b 86 98 01 00 00 	mov    rax,QWORD PTR [r14+0x198]
  401ff6:	48 03 44 24 10       	add    rax,QWORD PTR [rsp+0x10]
  401ffb:	48 6b c0 68          	imul   rax,rax,0x68
  401fff:	48 8b 7c 24 30       	mov    rdi,QWORD PTR [rsp+0x30]
  402004:	48 8d 0c 07          	lea    rcx,[rdi+rax*1]
  402008:	48 89 4b 10          	mov    QWORD PTR [rbx+0x10],rcx
  40200c:	48 6b 4c 24 08 68    	imul   rcx,QWORD PTR [rsp+0x8],0x68
  402012:	48 8d 14 0f          	lea    rdx,[rdi+rcx*1]
  402016:	48 89 53 18          	mov    QWORD PTR [rbx+0x18],rdx
  40201a:	48 8b 54 24 48       	mov    rdx,QWORD PTR [rsp+0x48]
  40201f:	48 89 53 40          	mov    QWORD PTR [rbx+0x40],rdx
  402023:	48 89 53 08          	mov    QWORD PTR [rbx+0x8],rdx
  402027:	48 8b 54 07 38       	mov    rdx,QWORD PTR [rdi+rax*1+0x38]
  40202c:	48 89 53 28          	mov    QWORD PTR [rbx+0x28],rdx
  402030:	48 89 5c 07 38       	mov    QWORD PTR [rdi+rax*1+0x38],rbx
  402035:	48 8b 44 0f 40       	mov    rax,QWORD PTR [rdi+rcx*1+0x40]
  40203a:	48 89 43 30          	mov    QWORD PTR [rbx+0x30],rax
  40203e:	48 89 5c 0f 40       	mov    QWORD PTR [rdi+rcx*1+0x40],rbx
  402043:	49 83 c7 01          	add    r15,0x1
  402047:	49 8b 9e 38 02 00 00 	mov    rbx,QWORD PTR [r14+0x238]
  40204e:	48 83 c6 01          	add    rsi,0x1
  402052:	4c 89 f7             	mov    rdi,r14
  402055:	48 89 f5             	mov    rbp,rsi
  402058:	e8 33 f6 ff ff       	call   401690 <fwrite@plt+0x530>
  40205d:	48 8d 04 c0          	lea    rax,[rax+rax*8]
  402061:	48 8d 1c c3          	lea    rbx,[rbx+rax*8]
  402065:	4d 3b be b0 01 00 00 	cmp    r15,QWORD PTR [r14+0x1b0]
  40206c:	0f 8c 41 ff ff ff    	jl     401fb3 <fwrite@plt+0xe53>
  402072:	4c 89 ef             	mov    rdi,r13
  402075:	e8 f6 ef ff ff       	call   401070 <fclose@plt>
  40207a:	41 c6 86 c8 00 00 00 	mov    BYTE PTR [r14+0xc8],0x0
  402081:	00 
  402082:	49 83 be 98 01 00 00 	cmp    QWORD PTR [r14+0x198],0x0
  402089:	00 
  40208a:	7e 62                	jle    4020ee <fwrite@plt+0xf8e>
  40208c:	45 31 e4             	xor    r12d,r12d
  40208f:	41 bf 02 00 00 00    	mov    r15d,0x2
  402095:	bb 80 96 98 00       	mov    ebx,0x989680
  40209a:	31 ed                	xor    ebp,ebp
  40209c:	0f 1f 40 00          	nop    DWORD PTR [rax+0x0]
  4020a0:	4d 8b ae 38 02 00 00 	mov    r13,QWORD PTR [r14+0x238]
  4020a7:	4c 89 f7             	mov    rdi,r14
  4020aa:	4c 89 fe             	mov    rsi,r15
  4020ad:	e8 de f5 ff ff       	call   401690 <fwrite@plt+0x530>
  4020b2:	49 8b 8e 10 02 00 00 	mov    rcx,QWORD PTR [r14+0x210]
  4020b9:	48 81 f9 7f 96 98 00 	cmp    rcx,0x98967f
  4020c0:	48 0f 4e cb          	cmovle rcx,rbx
  4020c4:	48 01 c9             	add    rcx,rcx
  4020c7:	48 f7 d9             	neg    rcx
  4020ca:	48 8d 04 c0          	lea    rax,[rax+rax*8]
  4020ce:	49 89 4c c5 08       	mov    QWORD PTR [r13+rax*8+0x8],rcx
  4020d3:	49 89 4c c5 40       	mov    QWORD PTR [r13+rax*8+0x40],rcx
  4020d8:	48 83 c5 01          	add    rbp,0x1
  4020dc:	49 83 c7 03          	add    r15,0x3
  4020e0:	49 3b ae 98 01 00 00 	cmp    rbp,QWORD PTR [r14+0x198]
  4020e7:	7c b7                	jl     4020a0 <fwrite@plt+0xf40>
  4020e9:	e9 7e fe ff ff       	jmp    401f6c <fwrite@plt+0xe0c>
  4020ee:	45 31 e4             	xor    r12d,r12d
  4020f1:	e9 76 fe ff ff       	jmp    401f6c <fwrite@plt+0xe0c>
  4020f6:	66 2e 0f 1f 84 00 00 	cs nop WORD PTR [rax+rax*1+0x0]
  4020fd:	00 00 00 
  402100:	55                   	push   rbp
  402101:	41 57                	push   r15
  402103:	41 56                	push   r14
  402105:	41 55                	push   r13
  402107:	41 54                	push   r12
  402109:	53                   	push   rbx
  40210a:	50                   	push   rax
  40210b:	48 83 bf 90 01 00 00 	cmp    QWORD PTR [rdi+0x190],0x0
  402112:	00 
  402113:	0f 88 a4 00 00 00    	js     4021bd <fwrite@plt+0x105d>
  402119:	49 89 d6             	mov    r14,rdx
  40211c:	49 89 f7             	mov    r15,rsi
  40211f:	49 89 fc             	mov    r12,rdi
  402122:	49 c7 c5 ff ff ff ff 	mov    r13,0xffffffffffffffff
  402129:	bb 40 00 00 00       	mov    ebx,0x40
  40212e:	66 90                	xchg   ax,ax
  402130:	49 8b ac 24 28 02 00 	mov    rbp,QWORD PTR [r12+0x228]
  402137:	00 
  402138:	48 8b 44 1d f0       	mov    rax,QWORD PTR [rbp+rbx*1-0x10]
  40213d:	48 85 c0             	test   rax,rax
  402140:	74 1b                	je     40215d <fwrite@plt+0xffd>
  402142:	48 63 30             	movsxd rsi,DWORD PTR [rax]
  402145:	48 85 f6             	test   rsi,rsi
  402148:	78 13                	js     40215d <fwrite@plt+0xffd>
  40214a:	4c 89 e7             	mov    rdi,r12
  40214d:	41 ff d7             	call   r15
  402150:	48 8d 04 c0          	lea    rax,[rax+rax*8]
  402154:	49 8d 04 c6          	lea    rax,[r14+rax*8]
  402158:	48 89 44 1d f0       	mov    QWORD PTR [rbp+rbx*1-0x10],rax
  40215d:	48 8b 44 1d 00       	mov    rax,QWORD PTR [rbp+rbx*1+0x0]
  402162:	48 85 c0             	test   rax,rax
  402165:	74 1b                	je     402182 <fwrite@plt+0x1022>
  402167:	48 63 30             	movsxd rsi,DWORD PTR [rax]
  40216a:	48 85 f6             	test   rsi,rsi
  40216d:	78 13                	js     402182 <fwrite@plt+0x1022>
  40216f:	4c 89 e7             	mov    rdi,r12
  402172:	41 ff d7             	call   r15
  402175:	48 8d 04 c0          	lea    rax,[rax+rax*8]
  402179:	49 8d 04 c6          	lea    rax,[r14+rax*8]
  40217d:	48 89 44 1d 00       	mov    QWORD PTR [rbp+rbx*1+0x0],rax
  402182:	48 8b 44 1d f8       	mov    rax,QWORD PTR [rbp+rbx*1-0x8]
  402187:	48 85 c0             	test   rax,rax
  40218a:	74 1b                	je     4021a7 <fwrite@plt+0x1047>
  40218c:	48 63 30             	movsxd rsi,DWORD PTR [rax]
  40218f:	48 85 f6             	test   rsi,rsi
  402192:	78 13                	js     4021a7 <fwrite@plt+0x1047>
  402194:	4c 89 e7             	mov    rdi,r12
  402197:	41 ff d7             	call   r15
  40219a:	48 8d 04 c0          	lea    rax,[rax+rax*8]
  40219e:	49 8d 04 c6          	lea    rax,[r14+rax*8]
  4021a2:	48 89 44 1d f8       	mov    QWORD PTR [rbp+rbx*1-0x8],rax
  4021a7:	49 83 c5 01          	add    r13,0x1
  4021ab:	48 83 c3 68          	add    rbx,0x68
  4021af:	4d 3b ac 24 90 01 00 	cmp    r13,QWORD PTR [r12+0x190]
  4021b6:	00 
  4021b7:	0f 8c 73 ff ff ff    	jl     402130 <fwrite@plt+0xfd0>
  4021bd:	31 c0                	xor    eax,eax
  4021bf:	48 83 c4 08          	add    rsp,0x8
  4021c3:	5b                   	pop    rbx
  4021c4:	41 5c                	pop    r12
  4021c6:	41 5d                	pop    r13
  4021c8:	41 5e                	pop    r14
  4021ca:	41 5f                	pop    r15
  4021cc:	5d                   	pop    rbp
  4021cd:	c3                   	ret    
  4021ce:	66 90                	xchg   ax,ax
  4021d0:	55                   	push   rbp
  4021d1:	41 57                	push   r15
  4021d3:	41 56                	push   r14
  4021d5:	41 55                	push   r13
  4021d7:	41 54                	push   r12
  4021d9:	53                   	push   rbx
  4021da:	50                   	push   rax
  4021db:	49 89 d6             	mov    r14,rdx
  4021de:	49 89 f4             	mov    r12,rsi
  4021e1:	49 89 ff             	mov    r15,rdi
  4021e4:	4c 8b af 48 02 00 00 	mov    r13,QWORD PTR [rdi+0x248]
  4021eb:	4c 89 ea             	mov    rdx,r13
  4021ee:	e8 0d ff ff ff       	call   402100 <fwrite@plt+0xfa0>
  4021f3:	49 8b 9f 38 02 00 00 	mov    rbx,QWORD PTR [r15+0x238]
  4021fa:	4d 85 f6             	test   r14,r14
  4021fd:	4c 89 34 24          	mov    QWORD PTR [rsp],r14
  402201:	7e 57                	jle    40225a <fwrite@plt+0x10fa>
  402203:	31 ed                	xor    ebp,ebp
  402205:	66 2e 0f 1f 84 00 00 	cs nop WORD PTR [rax+rax*1+0x0]
  40220c:	00 00 00 
  40220f:	90                   	nop
  402210:	48 63 34 2b          	movsxd rsi,DWORD PTR [rbx+rbp*1]
  402214:	48 85 f6             	test   rsi,rsi
  402217:	78 30                	js     402249 <fwrite@plt+0x10e9>
  402219:	4c 89 ff             	mov    rdi,r15
  40221c:	c5 f8 77             	vzeroupper 
  40221f:	41 ff d4             	call   r12
  402222:	48 8d 04 c0          	lea    rax,[rax+rax*8]
  402226:	c5 fc 10 04 2b       	vmovups ymm0,YMMWORD PTR [rbx+rbp*1]
  40222b:	c5 fc 10 4c 2b 20    	vmovups ymm1,YMMWORD PTR [rbx+rbp*1+0x20]
  402231:	c4 c1 7c 11 44 c5 00 	vmovups YMMWORD PTR [r13+rax*8+0x0],ymm0
  402238:	c4 c1 7c 11 4c c5 20 	vmovups YMMWORD PTR [r13+rax*8+0x20],ymm1
  40223f:	48 8b 4c 2b 40       	mov    rcx,QWORD PTR [rbx+rbp*1+0x40]
  402244:	49 89 4c c5 40       	mov    QWORD PTR [r13+rax*8+0x40],rcx
  402249:	49 8b 9f 38 02 00 00 	mov    rbx,QWORD PTR [r15+0x238]
  402250:	48 83 c5 48          	add    rbp,0x48
  402254:	49 83 c6 ff          	add    r14,0xffffffffffffffff
  402258:	75 b6                	jne    402210 <fwrite@plt+0x10b0>
  40225a:	4d 89 af 38 02 00 00 	mov    QWORD PTR [r15+0x238],r13
  402261:	49 89 9f 48 02 00 00 	mov    QWORD PTR [r15+0x248],rbx
  402268:	48 8b 04 24          	mov    rax,QWORD PTR [rsp]
  40226c:	48 8d 04 c0          	lea    rax,[rax+rax*8]
  402270:	48 8d 04 c5 00 00 00 	lea    rax,[rax*8+0x0]
  402277:	00 
  402278:	4c 01 e8             	add    rax,r13
  40227b:	49 89 87 40 02 00 00 	mov    QWORD PTR [r15+0x240],rax
  402282:	31 c0                	xor    eax,eax
  402284:	48 83 c4 08          	add    rsp,0x8
  402288:	5b                   	pop    rbx
  402289:	41 5c                	pop    r12
  40228b:	41 5d                	pop    r13
  40228d:	41 5e                	pop    r14
  40228f:	41 5f                	pop    r15
  402291:	5d                   	pop    rbp
  402292:	c5 f8 77             	vzeroupper 
  402295:	c3                   	ret    
  402296:	66 2e 0f 1f 84 00 00 	cs nop WORD PTR [rax+rax*1+0x0]
  40229d:	00 00 00 
  4022a0:	55                   	push   rbp
  4022a1:	41 57                	push   r15
  4022a3:	41 56                	push   r14
  4022a5:	41 55                	push   r13
  4022a7:	41 54                	push   r12
  4022a9:	53                   	push   rbx
  4022aa:	50                   	push   rax
  4022ab:	48 89 cd             	mov    rbp,rcx
  4022ae:	49 89 d5             	mov    r13,rdx
  4022b1:	48 89 f3             	mov    rbx,rsi
  4022b4:	49 89 fc             	mov    r12,rdi
  4022b7:	bf 08 00 00 00       	mov    edi,0x8
  4022bc:	e8 0f ee ff ff       	call   4010d0 <malloc@plt>
  4022c1:	49 89 c6             	mov    r14,rax
  4022c4:	bf 08 00 00 00       	mov    edi,0x8
  4022c9:	e8 02 ee ff ff       	call   4010d0 <malloc@plt>
  4022ce:	49 81 bc 24 98 01 00 	cmp    QWORD PTR [r12+0x198],0x3a99
  4022d5:	00 99 3a 00 00 
  4022da:	48 c7 c2 c0 bd f0 ff 	mov    rdx,0xfffffffffff0bdc0
  4022e1:	48 c7 c1 00 f7 c2 ff 	mov    rcx,0xffffffffffc2f700
  4022e8:	48 0f 4c ca          	cmovl  rcx,rdx
  4022ec:	49 03 8c 24 c0 01 00 	add    rcx,QWORD PTR [r12+0x1c0]
  4022f3:	00 
  4022f4:	49 89 c7             	mov    r15,rax
  4022f7:	48 c7 03 00 00 00 00 	mov    QWORD PTR [rbx],0x0
  4022fe:	49 8b 45 00          	mov    rax,QWORD PTR [r13+0x0]
  402302:	48 89 03             	mov    QWORD PTR [rbx],rax
  402305:	48 8b 45 00          	mov    rax,QWORD PTR [rbp+0x0]
  402309:	49 89 06             	mov    QWORD PTR [r14],rax
  40230c:	49 c7 07 00 00 00 00 	mov    QWORD PTR [r15],0x0
  402313:	48 85 c9             	test   rcx,rcx
  402316:	7e 64                	jle    40237c <fwrite@plt+0x121c>
  402318:	48 8b 03             	mov    rax,QWORD PTR [rbx]
  40231b:	48 85 c0             	test   rax,rax
  40231e:	7e 5c                	jle    40237c <fwrite@plt+0x121c>
  402320:	41 8b b4 24 a8 01 00 	mov    esi,DWORD PTR [r12+0x1a8]
  402327:	00 
  402328:	49 8b 17             	mov    rdx,QWORD PTR [r15]
  40232b:	49 8b 06             	mov    rax,QWORD PTR [r14]
  40232e:	bf 01 00 00 00       	mov    edi,0x1
  402333:	66 2e 0f 1f 84 00 00 	cs nop WORD PTR [rax+rax*1+0x0]
  40233a:	00 00 00 
  40233d:	0f 1f 00             	nop    DWORD PTR [rax]
  402340:	49 3b 55 00          	cmp    rdx,QWORD PTR [r13+0x0]
  402344:	7d 0a                	jge    402350 <fwrite@plt+0x11f0>
  402346:	48 8b 28             	mov    rbp,QWORD PTR [rax]
  402349:	eb 07                	jmp    402352 <fwrite@plt+0x11f2>
  40234b:	0f 1f 44 00 00       	nop    DWORD PTR [rax+rax*1+0x0]
  402350:	31 ed                	xor    ebp,ebp
  402352:	89 75 00             	mov    DWORD PTR [rbp+0x0],esi
  402355:	48 c7 45 38 01 00 00 	mov    QWORD PTR [rbp+0x38],0x1
  40235c:	00 
  40235d:	48 83 c0 08          	add    rax,0x8
  402361:	48 83 c2 01          	add    rdx,0x1
  402365:	48 39 cf             	cmp    rdi,rcx
  402368:	7d 0c                	jge    402376 <fwrite@plt+0x1216>
  40236a:	83 c6 01             	add    esi,0x1
  40236d:	48 3b 3b             	cmp    rdi,QWORD PTR [rbx]
  402370:	48 8d 7f 01          	lea    rdi,[rdi+0x1]
  402374:	7c ca                	jl     402340 <fwrite@plt+0x11e0>
  402376:	49 89 17             	mov    QWORD PTR [r15],rdx
  402379:	49 89 06             	mov    QWORD PTR [r14],rax
  40237c:	49 8b 07             	mov    rax,QWORD PTR [r15]
  40237f:	48 89 03             	mov    QWORD PTR [rbx],rax
  402382:	49 c7 84 24 80 02 00 	mov    QWORD PTR [r12+0x280],0xfa0
  402389:	00 a0 0f 00 00 
  40238e:	48 8b 03             	mov    rax,QWORD PTR [rbx]
  402391:	49 8b 8c 24 a8 01 00 	mov    rcx,QWORD PTR [r12+0x1a8]
  402398:	00 
  402399:	48 01 c8             	add    rax,rcx
  40239c:	48 83 c0 ff          	add    rax,0xffffffffffffffff
  4023a0:	48 bf cf f7 53 e3 a5 	movabs rdi,0x20c49ba5e353f7cf
  4023a7:	9b c4 20 
  4023aa:	48 f7 ef             	imul   rdi
  4023ad:	48 89 d0             	mov    rax,rdx
  4023b0:	48 c1 e8 3f          	shr    rax,0x3f
  4023b4:	48 c1 fa 09          	sar    rdx,0x9
  4023b8:	48 8d 2c 02          	lea    rbp,[rdx+rax*1]
  4023bc:	48 8d 34 02          	lea    rsi,[rdx+rax*1]
  4023c0:	48 83 c6 01          	add    rsi,0x1
  4023c4:	49 89 b4 24 70 02 00 	mov    QWORD PTR [r12+0x270],rsi
  4023cb:	00 
  4023cc:	48 03 0b             	add    rcx,QWORD PTR [rbx]
  4023cf:	48 89 c8             	mov    rax,rcx
  4023d2:	48 f7 ef             	imul   rdi
  4023d5:	48 89 d0             	mov    rax,rdx
  4023d8:	48 c1 e8 3f          	shr    rax,0x3f
  4023dc:	48 c1 fa 09          	sar    rdx,0x9
  4023e0:	48 01 c2             	add    rdx,rax
  4023e3:	48 69 c2 a0 0f 00 00 	imul   rax,rdx,0xfa0
  4023ea:	48 29 c1             	sub    rcx,rax
  4023ed:	48 8d 84 29 61 f0 ff 	lea    rax,[rcx+rbp*1-0xf9f]
  4023f4:	ff 
  4023f5:	48 0f 44 c6          	cmove  rax,rsi
  4023f9:	49 89 84 24 78 02 00 	mov    QWORD PTR [r12+0x278],rax
  402400:	00 
  402401:	48 85 c0             	test   rax,rax
  402404:	79 23                	jns    402429 <fwrite@plt+0x12c9>
  402406:	49 8b 8c 24 80 02 00 	mov    rcx,QWORD PTR [r12+0x280]
  40240d:	00 
  40240e:	66 90                	xchg   ax,ax
  402410:	48 83 c1 ff          	add    rcx,0xffffffffffffffff
  402414:	48 01 f0             	add    rax,rsi
  402417:	78 f7                	js     402410 <fwrite@plt+0x12b0>
  402419:	49 89 84 24 78 02 00 	mov    QWORD PTR [r12+0x278],rax
  402420:	00 
  402421:	49 89 8c 24 80 02 00 	mov    QWORD PTR [r12+0x280],rcx
  402428:	00 
  402429:	4c 89 f7             	mov    rdi,r14
  40242c:	e8 ff eb ff ff       	call   401030 <free@plt>
  402431:	4c 89 ff             	mov    rdi,r15
  402434:	48 83 c4 08          	add    rsp,0x8
  402438:	5b                   	pop    rbx
  402439:	41 5c                	pop    r12
  40243b:	41 5d                	pop    r13
  40243d:	41 5e                	pop    r14
  40243f:	41 5f                	pop    r15
  402441:	5d                   	pop    rbp
  402442:	e9 e9 eb ff ff       	jmp    401030 <free@plt>
  402447:	66 0f 1f 84 00 00 00 	nop    WORD PTR [rax+rax*1+0x0]
  40244e:	00 00 
  402450:	48 8b 17             	mov    rdx,QWORD PTR [rdi]
  402453:	48 8b 0e             	mov    rcx,QWORD PTR [rsi]
  402456:	48 8b 71 38          	mov    rsi,QWORD PTR [rcx+0x38]
  40245a:	b8 01 00 00 00       	mov    eax,0x1
  40245f:	48 39 72 38          	cmp    QWORD PTR [rdx+0x38],rsi
  402463:	7f 16                	jg     40247b <fwrite@plt+0x131b>
  402465:	b8 ff ff ff ff       	mov    eax,0xffffffff
  40246a:	7c 0f                	jl     40247b <fwrite@plt+0x131b>
  40246c:	8b 02                	mov    eax,DWORD PTR [rdx]
  40246e:	31 d2                	xor    edx,edx
  402470:	3b 01                	cmp    eax,DWORD PTR [rcx]
  402472:	0f 9d c2             	setge  dl
  402475:	8d 04 12             	lea    eax,[rdx+rdx*1]
  402478:	83 c0 ff             	add    eax,0xffffffff
  40247b:	c3                   	ret    
  40247c:	0f 1f 40 00          	nop    DWORD PTR [rax+0x0]
  402480:	53                   	push   rbx
  402481:	48 89 fb             	mov    rbx,rdi
  402484:	48 8b 87 c8 01 00 00 	mov    rax,QWORD PTR [rdi+0x1c8]
  40248b:	48 8b bf 38 02 00 00 	mov    rdi,QWORD PTR [rdi+0x238]
  402492:	48 8b 8b a0 01 00 00 	mov    rcx,QWORD PTR [rbx+0x1a0]
  402499:	48 01 c1             	add    rcx,rax
  40249c:	48 89 8b a0 01 00 00 	mov    QWORD PTR [rbx+0x1a0],rcx
  4024a3:	48 01 83 c0 01 00 00 	add    QWORD PTR [rbx+0x1c0],rax
  4024aa:	48 c1 e1 03          	shl    rcx,0x3
  4024ae:	48 8d 34 c9          	lea    rsi,[rcx+rcx*8]
  4024b2:	e8 59 ec ff ff       	call   401110 <realloc@plt>
  4024b7:	48 85 c0             	test   rax,rax
  4024ba:	0f 84 8e 00 00 00    	je     40254e <fwrite@plt+0x13ee>
  4024c0:	48 8b 8b 38 02 00 00 	mov    rcx,QWORD PTR [rbx+0x238]
  4024c7:	48 89 83 38 02 00 00 	mov    QWORD PTR [rbx+0x238],rax
  4024ce:	48 8b b3 a8 01 00 00 	mov    rsi,QWORD PTR [rbx+0x1a8]
  4024d5:	48 8b 93 28 02 00 00 	mov    rdx,QWORD PTR [rbx+0x228]
  4024dc:	48 8d 34 f6          	lea    rsi,[rsi+rsi*8]
  4024e0:	48 8d 04 f0          	lea    rax,[rax+rsi*8]
  4024e4:	48 89 83 40 02 00 00 	mov    QWORD PTR [rbx+0x240],rax
  4024eb:	48 8b 83 30 02 00 00 	mov    rax,QWORD PTR [rbx+0x230]
  4024f2:	48 8d 72 68          	lea    rsi,[rdx+0x68]
  4024f6:	48 39 c6             	cmp    rsi,rax
  4024f9:	72 0e                	jb     402509 <fwrite@plt+0x13a9>
  4024fb:	eb 2b                	jmp    402528 <fwrite@plt+0x13c8>
  4024fd:	0f 1f 00             	nop    DWORD PTR [rax]
  402500:	48 83 c6 68          	add    rsi,0x68
  402504:	48 39 c6             	cmp    rsi,rax
  402507:	73 1f                	jae    402528 <fwrite@plt+0x13c8>
  402509:	48 8b 7e 30          	mov    rdi,QWORD PTR [rsi+0x30]
  40250d:	48 85 ff             	test   rdi,rdi
  402510:	74 ee                	je     402500 <fwrite@plt+0x13a0>
  402512:	48 39 56 18          	cmp    QWORD PTR [rsi+0x18],rdx
  402516:	74 e8                	je     402500 <fwrite@plt+0x13a0>
  402518:	48 29 cf             	sub    rdi,rcx
  40251b:	48 03 bb 38 02 00 00 	add    rdi,QWORD PTR [rbx+0x238]
  402522:	48 89 7e 30          	mov    QWORD PTR [rsi+0x30],rdi
  402526:	eb d8                	jmp    402500 <fwrite@plt+0x13a0>
  402528:	48 8b 83 a0 01 00 00 	mov    rax,QWORD PTR [rbx+0x1a0]
  40252f:	48 8b bb 48 02 00 00 	mov    rdi,QWORD PTR [rbx+0x248]
  402536:	48 c1 e0 03          	shl    rax,0x3
  40253a:	48 8d 34 c0          	lea    rsi,[rax+rax*8]
  40253e:	e8 cd eb ff ff       	call   401110 <realloc@plt>
  402543:	48 89 83 48 02 00 00 	mov    QWORD PTR [rbx+0x248],rax
  40254a:	31 c0                	xor    eax,eax
  40254c:	5b                   	pop    rbx
  40254d:	c3                   	ret    
  40254e:	bf 2e 53 40 00       	mov    edi,0x40532e
  402553:	31 c0                	xor    eax,eax
  402555:	48 89 de             	mov    rsi,rbx
  402558:	e8 23 eb ff ff       	call   401080 <printf@plt>
  40255d:	48 8b 3d 7c 4b 00 00 	mov    rdi,QWORD PTR [rip+0x4b7c]        # 4070e0 <stdout@@GLIBC_2.2.5>
  402564:	e8 77 eb ff ff       	call   4010e0 <fflush@plt>
  402569:	48 c7 c0 ff ff ff ff 	mov    rax,0xffffffffffffffff
  402570:	5b                   	pop    rbx
  402571:	c3                   	ret    
  402572:	66 2e 0f 1f 84 00 00 	cs nop WORD PTR [rax+rax*1+0x0]
  402579:	00 00 00 
  40257c:	0f 1f 40 00          	nop    DWORD PTR [rax+0x0]
  402580:	41 57                	push   r15
  402582:	41 56                	push   r14
  402584:	41 54                	push   r12
  402586:	53                   	push   rbx
  402587:	44 8b 54 24 30       	mov    r10d,DWORD PTR [rsp+0x30]
  40258c:	48 8d 04 f6          	lea    rax,[rsi+rsi*8]
  402590:	48 89 54 c7 10       	mov    QWORD PTR [rdi+rax*8+0x10],rdx
  402595:	48 89 4c c7 18       	mov    QWORD PTR [rdi+rax*8+0x18],rcx
  40259a:	4c 89 44 c7 40       	mov    QWORD PTR [rdi+rax*8+0x40],r8
  40259f:	4c 89 44 c7 08       	mov    QWORD PTR [rdi+rax*8+0x8],r8
  4025a4:	4c 89 4c c7 38       	mov    QWORD PTR [rdi+rax*8+0x38],r9
  4025a9:	44 89 14 c7          	mov    DWORD PTR [rdi+rax*8],r10d
  4025ad:	48 85 f6             	test   rsi,rsi
  4025b0:	0f 84 90 00 00 00    	je     402646 <fwrite@plt+0x14e6>
  4025b6:	4c 8d 5e 01          	lea    r11,[rsi+0x1]
  4025ba:	66 0f 1f 44 00 00    	nop    WORD PTR [rax+rax*1+0x0]
  4025c0:	4c 89 d8             	mov    rax,r11
  4025c3:	48 c1 e8 3f          	shr    rax,0x3f
  4025c7:	49 01 c3             	add    r11,rax
  4025ca:	49 d1 fb             	sar    r11,1
  4025cd:	49 8d 43 ff          	lea    rax,[r11-0x1]
  4025d1:	48 8d 04 c0          	lea    rax,[rax+rax*8]
  4025d5:	4c 8b 64 c7 38       	mov    r12,QWORD PTR [rdi+rax*8+0x38]
  4025da:	4d 39 cc             	cmp    r12,r9
  4025dd:	7d 67                	jge    402646 <fwrite@plt+0x14e6>
  4025df:	4c 8d 34 c7          	lea    r14,[rdi+rax*8]
  4025e3:	49 83 c6 38          	add    r14,0x38
  4025e7:	4c 8b 7c c7 10       	mov    r15,QWORD PTR [rdi+rax*8+0x10]
  4025ec:	48 8d 34 f6          	lea    rsi,[rsi+rsi*8]
  4025f0:	4c 89 7c f7 10       	mov    QWORD PTR [rdi+rsi*8+0x10],r15
  4025f5:	48 8b 5c c7 18       	mov    rbx,QWORD PTR [rdi+rax*8+0x18]
  4025fa:	48 89 5c f7 18       	mov    QWORD PTR [rdi+rsi*8+0x18],rbx
  4025ff:	48 8b 5c c7 08       	mov    rbx,QWORD PTR [rdi+rax*8+0x8]
  402604:	48 89 5c f7 08       	mov    QWORD PTR [rdi+rsi*8+0x8],rbx
  402609:	48 8b 5c c7 08       	mov    rbx,QWORD PTR [rdi+rax*8+0x8]
  40260e:	48 89 5c f7 40       	mov    QWORD PTR [rdi+rsi*8+0x40],rbx
  402613:	4c 89 64 f7 38       	mov    QWORD PTR [rdi+rsi*8+0x38],r12
  402618:	8b 1c c7             	mov    ebx,DWORD PTR [rdi+rax*8]
  40261b:	89 1c f7             	mov    DWORD PTR [rdi+rsi*8],ebx
  40261e:	48 89 54 c7 10       	mov    QWORD PTR [rdi+rax*8+0x10],rdx
  402623:	48 89 4c c7 18       	mov    QWORD PTR [rdi+rax*8+0x18],rcx
  402628:	4c 89 44 c7 08       	mov    QWORD PTR [rdi+rax*8+0x8],r8
  40262d:	4c 89 44 c7 40       	mov    QWORD PTR [rdi+rax*8+0x40],r8
  402632:	4d 89 0e             	mov    QWORD PTR [r14],r9
  402635:	44 89 14 c7          	mov    DWORD PTR [rdi+rax*8],r10d
  402639:	4c 89 de             	mov    rsi,r11
  40263c:	48 83 c6 ff          	add    rsi,0xffffffffffffffff
  402640:	0f 85 7a ff ff ff    	jne    4025c0 <fwrite@plt+0x1460>
  402646:	5b                   	pop    rbx
  402647:	41 5c                	pop    r12
  402649:	41 5e                	pop    r14
  40264b:	41 5f                	pop    r15
  40264d:	c3                   	ret    
  40264e:	66 90                	xchg   ax,ax
  402650:	41 57                	push   r15
  402652:	41 56                	push   r14
  402654:	41 55                	push   r13
  402656:	41 54                	push   r12
  402658:	53                   	push   rbx
  402659:	44 8b 54 24 30       	mov    r10d,DWORD PTR [rsp+0x30]
  40265e:	48 89 77 10          	mov    QWORD PTR [rdi+0x10],rsi
  402662:	48 89 57 18          	mov    QWORD PTR [rdi+0x18],rdx
  402666:	48 89 4f 40          	mov    QWORD PTR [rdi+0x40],rcx
  40266a:	48 89 4f 08          	mov    QWORD PTR [rdi+0x8],rcx
  40266e:	4c 89 47 38          	mov    QWORD PTR [rdi+0x38],r8
  402672:	44 89 17             	mov    DWORD PTR [rdi],r10d
  402675:	48 8b 87 80 00 00 00 	mov    rax,QWORD PTR [rdi+0x80]
  40267c:	45 31 db             	xor    r11d,r11d
  40267f:	48 3b 87 c8 00 00 00 	cmp    rax,QWORD PTR [rdi+0xc8]
  402686:	41 0f 9f c3          	setg   r11b
  40268a:	49 83 f3 03          	xor    r11,0x3
  40268e:	4d 39 cb             	cmp    r11,r9
  402691:	0f 8f b1 00 00 00    	jg     402748 <fwrite@plt+0x15e8>
  402697:	41 be 01 00 00 00    	mov    r14d,0x1
  40269d:	0f 1f 00             	nop    DWORD PTR [rax]
  4026a0:	49 8d 43 ff          	lea    rax,[r11-0x1]
  4026a4:	48 8d 04 c0          	lea    rax,[rax+rax*8]
  4026a8:	4c 8b 6c c7 38       	mov    r13,QWORD PTR [rdi+rax*8+0x38]
  4026ad:	4d 39 c5             	cmp    r13,r8
  4026b0:	0f 8e 92 00 00 00    	jle    402748 <fwrite@plt+0x15e8>
  4026b6:	4d 89 df             	mov    r15,r11
  4026b9:	4c 8d 1c c7          	lea    r11,[rdi+rax*8]
  4026bd:	49 83 c3 38          	add    r11,0x38
  4026c1:	4c 8b 64 c7 10       	mov    r12,QWORD PTR [rdi+rax*8+0x10]
  4026c6:	4f 8d 34 f6          	lea    r14,[r14+r14*8]
  4026ca:	4e 89 64 f7 c8       	mov    QWORD PTR [rdi+r14*8-0x38],r12
  4026cf:	48 8b 5c c7 18       	mov    rbx,QWORD PTR [rdi+rax*8+0x18]
  4026d4:	4a 89 5c f7 d0       	mov    QWORD PTR [rdi+r14*8-0x30],rbx
  4026d9:	48 8b 5c c7 08       	mov    rbx,QWORD PTR [rdi+rax*8+0x8]
  4026de:	4a 89 5c f7 c0       	mov    QWORD PTR [rdi+r14*8-0x40],rbx
  4026e3:	48 8b 5c c7 08       	mov    rbx,QWORD PTR [rdi+rax*8+0x8]
  4026e8:	4a 89 5c f7 f8       	mov    QWORD PTR [rdi+r14*8-0x8],rbx
  4026ed:	4e 89 6c f7 f0       	mov    QWORD PTR [rdi+r14*8-0x10],r13
  4026f2:	8b 1c c7             	mov    ebx,DWORD PTR [rdi+rax*8]
  4026f5:	42 89 5c f7 b8       	mov    DWORD PTR [rdi+r14*8-0x48],ebx
  4026fa:	48 89 74 c7 10       	mov    QWORD PTR [rdi+rax*8+0x10],rsi
  4026ff:	48 89 54 c7 18       	mov    QWORD PTR [rdi+rax*8+0x18],rdx
  402704:	48 89 4c c7 08       	mov    QWORD PTR [rdi+rax*8+0x8],rcx
  402709:	48 89 4c c7 40       	mov    QWORD PTR [rdi+rax*8+0x40],rcx
  40270e:	4d 89 03             	mov    QWORD PTR [r11],r8
  402711:	44 89 14 c7          	mov    DWORD PTR [rdi+rax*8],r10d
  402715:	4f 8d 1c 3f          	lea    r11,[r15+r15*1]
  402719:	4b 8d 04 3f          	lea    rax,[r15+r15*1]
  40271d:	48 83 c0 01          	add    rax,0x1
  402721:	4c 39 c8             	cmp    rax,r9
  402724:	7f 16                	jg     40273c <fwrite@plt+0x15dc>
  402726:	4f 8d 34 db          	lea    r14,[r11+r11*8]
  40272a:	4a 8b 5c f7 f0       	mov    rbx,QWORD PTR [rdi+r14*8-0x10]
  40272f:	4a 3b 5c f7 38       	cmp    rbx,QWORD PTR [rdi+r14*8+0x38]
  402734:	7c 03                	jl     402739 <fwrite@plt+0x15d9>
  402736:	4c 89 d8             	mov    rax,r11
  402739:	49 89 c3             	mov    r11,rax
  40273c:	4d 89 fe             	mov    r14,r15
  40273f:	4d 39 cb             	cmp    r11,r9
  402742:	0f 8e 58 ff ff ff    	jle    4026a0 <fwrite@plt+0x1540>
  402748:	5b                   	pop    rbx
  402749:	41 5c                	pop    r12
  40274b:	41 5d                	pop    r13
  40274d:	41 5e                	pop    r14
  40274f:	41 5f                	pop    r15
  402751:	c3                   	ret    
  402752:	66 2e 0f 1f 84 00 00 	cs nop WORD PTR [rax+rax*1+0x0]
  402759:	00 00 00 
  40275c:	0f 1f 40 00          	nop    DWORD PTR [rax+0x0]
  402760:	48 c7 06 00 00 00 00 	mov    QWORD PTR [rsi],0x0
  402767:	48 85 c9             	test   rcx,rcx
  40276a:	7e 20                	jle    40278c <fwrite@plt+0x162c>
  40276c:	31 c0                	xor    eax,eax
  40276e:	66 90                	xchg   ax,ax
  402770:	48 8b 3c c2          	mov    rdi,QWORD PTR [rdx+rax*8]
  402774:	48 8b 3f             	mov    rdi,QWORD PTR [rdi]
  402777:	48 8b 7f 38          	mov    rdi,QWORD PTR [rdi+0x38]
  40277b:	48 3b 3e             	cmp    rdi,QWORD PTR [rsi]
  40277e:	7e 03                	jle    402783 <fwrite@plt+0x1623>
  402780:	48 89 3e             	mov    QWORD PTR [rsi],rdi
  402783:	48 83 c0 01          	add    rax,0x1
  402787:	48 39 c1             	cmp    rcx,rax
  40278a:	75 e4                	jne    402770 <fwrite@plt+0x1610>
  40278c:	c3                   	ret    
  40278d:	0f 1f 00             	nop    DWORD PTR [rax]
  402790:	55                   	push   rbp
  402791:	41 57                	push   r15
  402793:	41 56                	push   r14
  402795:	41 55                	push   r13
  402797:	41 54                	push   r12
  402799:	53                   	push   rbx
  40279a:	48 83 ec 28          	sub    rsp,0x28
  40279e:	4c 89 4c 24 20       	mov    QWORD PTR [rsp+0x20],r9
  4027a3:	48 89 74 24 08       	mov    QWORD PTR [rsp+0x8],rsi
  4027a8:	48 83 7c 24 68 00    	cmp    QWORD PTR [rsp+0x68],0x0
  4027ae:	0f 8e 0c 01 00 00    	jle    4028c0 <fwrite@plt+0x1760>
  4027b4:	49 89 cf             	mov    r15,rcx
  4027b7:	48 89 d7             	mov    rdi,rdx
  4027ba:	49 63 e8             	movsxd rbp,r8d
  4027bd:	31 f6                	xor    esi,esi
  4027bf:	45 31 c9             	xor    r9d,r9d
  4027c2:	48 89 54 24 18       	mov    QWORD PTR [rsp+0x18],rdx
  4027c7:	66 0f 1f 84 00 00 00 	nop    WORD PTR [rax+rax*1+0x0]
  4027ce:	00 00 
  4027d0:	48 8b 44 24 08       	mov    rax,QWORD PTR [rsp+0x8]
  4027d5:	4c 8b 34 e8          	mov    r14,QWORD PTR [rax+rbp*8]
  4027d9:	48 8b 44 24 60       	mov    rax,QWORD PTR [rsp+0x60]
  4027de:	49 39 c6             	cmp    r14,rax
  4027e1:	4c 0f 4f f0          	cmovg  r14,rax
  4027e5:	4d 85 f6             	test   r14,r14
  4027e8:	48 89 74 24 10       	mov    QWORD PTR [rsp+0x10],rsi
  4027ed:	0f 8e a5 00 00 00    	jle    402898 <fwrite@plt+0x1738>
  4027f3:	45 31 e4             	xor    r12d,r12d
  4027f6:	45 31 ed             	xor    r13d,r13d
  4027f9:	0f 1f 80 00 00 00 00 	nop    DWORD PTR [rax+0x0]
  402800:	48 8b 04 ef          	mov    rax,QWORD PTR [rdi+rbp*8]
  402804:	66 42 83 7c 20 20 00 	cmp    WORD PTR [rax+r12*1+0x20],0x0
  40280b:	75 7a                	jne    402887 <fwrite@plt+0x1727>
  40280d:	4e 8b 44 20 38       	mov    r8,QWORD PTR [rax+r12*1+0x38]
  402812:	4d 3b 47 38          	cmp    r8,QWORD PTR [r15+0x38]
  402816:	7c 18                	jl     402830 <fwrite@plt+0x16d0>
  402818:	75 6d                	jne    402887 <fwrite@plt+0x1727>
  40281a:	42 8b 0c 20          	mov    ecx,DWORD PTR [rax+r12*1]
  40281e:	41 3b 0f             	cmp    ecx,DWORD PTR [r15]
  402821:	7d 64                	jge    402887 <fwrite@plt+0x1727>
  402823:	66 2e 0f 1f 84 00 00 	cs nop WORD PTR [rax+rax*1+0x0]
  40282a:	00 00 00 
  40282d:	0f 1f 00             	nop    DWORD PTR [rax]
  402830:	4a 63 3c 20          	movsxd rdi,DWORD PTR [rax+r12*1]
  402834:	4a 8b 4c 20 08       	mov    rcx,QWORD PTR [rax+r12*1+0x8]
  402839:	4a 8b 74 20 10       	mov    rsi,QWORD PTR [rax+r12*1+0x10]
  40283e:	4a 8b 54 20 18       	mov    rdx,QWORD PTR [rax+r12*1+0x18]
  402843:	49 83 c1 01          	add    r9,0x1
  402847:	c4 c1 7c 10 07       	vmovups ymm0,YMMWORD PTR [r15]
  40284c:	c4 c1 7c 10 4f 20    	vmovups ymm1,YMMWORD PTR [r15+0x20]
  402852:	c4 a1 7c 11 4c 20 20 	vmovups YMMWORD PTR [rax+r12*1+0x20],ymm1
  402859:	49 8b 5f 40          	mov    rbx,QWORD PTR [r15+0x40]
  40285d:	4a 89 5c 20 40       	mov    QWORD PTR [rax+r12*1+0x40],rbx
  402862:	c4 a1 7c 11 04 20    	vmovups YMMWORD PTR [rax+r12*1],ymm0
  402868:	48 89 3c 24          	mov    QWORD PTR [rsp],rdi
  40286c:	4c 89 ff             	mov    rdi,r15
  40286f:	4c 89 cb             	mov    rbx,r9
  402872:	4c 8b 4c 24 20       	mov    r9,QWORD PTR [rsp+0x20]
  402877:	c5 f8 77             	vzeroupper 
  40287a:	e8 d1 fd ff ff       	call   402650 <fwrite@plt+0x14f0>
  40287f:	49 89 d9             	mov    r9,rbx
  402882:	48 8b 7c 24 18       	mov    rdi,QWORD PTR [rsp+0x18]
  402887:	49 83 c5 01          	add    r13,0x1
  40288b:	49 83 c4 48          	add    r12,0x48
  40288f:	4d 39 f5             	cmp    r13,r14
  402892:	0f 8c 68 ff ff ff    	jl     402800 <fwrite@plt+0x16a0>
  402898:	48 8b 74 24 10       	mov    rsi,QWORD PTR [rsp+0x10]
  40289d:	48 83 c6 01          	add    rsi,0x1
  4028a1:	48 83 c5 01          	add    rbp,0x1
  4028a5:	48 89 e8             	mov    rax,rbp
  4028a8:	48 99                	cqo    
  4028aa:	48 8b 4c 24 68       	mov    rcx,QWORD PTR [rsp+0x68]
  4028af:	48 f7 f9             	idiv   rcx
  4028b2:	48 89 d5             	mov    rbp,rdx
  4028b5:	48 39 ce             	cmp    rsi,rcx
  4028b8:	0f 85 12 ff ff ff    	jne    4027d0 <fwrite@plt+0x1670>
  4028be:	eb 03                	jmp    4028c3 <fwrite@plt+0x1763>
  4028c0:	45 31 c9             	xor    r9d,r9d
  4028c3:	4c 89 c8             	mov    rax,r9
  4028c6:	48 83 c4 28          	add    rsp,0x28
  4028ca:	5b                   	pop    rbx
  4028cb:	41 5c                	pop    r12
  4028cd:	41 5d                	pop    r13
  4028cf:	41 5e                	pop    r14
  4028d1:	41 5f                	pop    r15
  4028d3:	5d                   	pop    rbp
  4028d4:	c3                   	ret    
  4028d5:	66 2e 0f 1f 84 00 00 	cs nop WORD PTR [rax+rax*1+0x0]
  4028dc:	00 00 00 
  4028df:	90                   	nop
  4028e0:	55                   	push   rbp
  4028e1:	41 57                	push   r15
  4028e3:	41 56                	push   r14
  4028e5:	41 55                	push   r13
  4028e7:	41 54                	push   r12
  4028e9:	53                   	push   rbx
  4028ea:	48 81 ec c8 00 00 00 	sub    rsp,0xc8
  4028f1:	49 89 fe             	mov    r14,rdi
  4028f4:	48 c7 84 24 a8 00 00 	mov    QWORD PTR [rsp+0xa8],0x0
  4028fb:	00 00 00 00 00 
  402900:	48 8b 87 10 02 00 00 	mov    rax,QWORD PTR [rdi+0x210]
  402907:	48 89 84 24 98 00 00 	mov    QWORD PTR [rsp+0x98],rax
  40290e:	00 
  40290f:	bf 08 00 00 00       	mov    edi,0x8
  402914:	e8 b7 e7 ff ff       	call   4010d0 <malloc@plt>
  402919:	49 89 c7             	mov    r15,rax
  40291c:	bf 08 00 00 00       	mov    edi,0x8
  402921:	e8 aa e7 ff ff       	call   4010d0 <malloc@plt>
  402926:	49 89 c5             	mov    r13,rax
  402929:	bf 08 00 00 00       	mov    edi,0x8
  40292e:	e8 9d e7 ff ff       	call   4010d0 <malloc@plt>
  402933:	48 89 44 24 30       	mov    QWORD PTR [rsp+0x30],rax
  402938:	bf 08 00 00 00       	mov    edi,0x8
  40293d:	e8 8e e7 ff ff       	call   4010d0 <malloc@plt>
  402942:	48 89 44 24 58       	mov    QWORD PTR [rsp+0x58],rax
  402947:	49 8b 86 98 01 00 00 	mov    rax,QWORD PTR [r14+0x198]
  40294e:	49 8b 8e a0 01 00 00 	mov    rcx,QWORD PTR [r14+0x1a0]
  402955:	49 8b 96 a8 01 00 00 	mov    rdx,QWORD PTR [r14+0x1a8]
  40295c:	49 8b b6 c8 01 00 00 	mov    rsi,QWORD PTR [r14+0x1c8]
  402963:	48 01 d6             	add    rsi,rdx
  402966:	48 3d 98 3a 00 00    	cmp    rax,0x3a98
  40296c:	48 39 ce             	cmp    rsi,rcx
  40296f:	7e 3c                	jle    4029ad <fwrite@plt+0x184d>
  402971:	48 0f af c0          	imul   rax,rax
  402975:	48 d1 e8             	shr    rax,1
  402978:	48 01 d0             	add    rax,rdx
  40297b:	48 39 c8             	cmp    rax,rcx
  40297e:	7e 2d                	jle    4029ad <fwrite@plt+0x184d>
  402980:	4c 89 f7             	mov    rdi,r14
  402983:	e8 f8 fa ff ff       	call   402480 <fwrite@plt+0x1320>
  402988:	48 c7 c5 ff ff ff ff 	mov    rbp,0xffffffffffffffff
  40298f:	48 85 c0             	test   rax,rax
  402992:	0f 85 13 07 00 00    	jne    4030ab <fwrite@plt+0x1f4b>
  402998:	be d0 16 40 00       	mov    esi,0x4016d0
  40299d:	4c 89 f7             	mov    rdi,r14
  4029a0:	e8 1b eb ff ff       	call   4014c0 <fwrite@plt+0x360>
  4029a5:	41 bc 01 00 00 00    	mov    r12d,0x1
  4029ab:	eb 03                	jmp    4029b0 <fwrite@plt+0x1850>
  4029ad:	45 31 e4             	xor    r12d,r12d
  4029b0:	49 8b 86 98 01 00 00 	mov    rax,QWORD PTR [r14+0x198]
  4029b7:	49 8b ae 48 02 00 00 	mov    rbp,QWORD PTR [r14+0x248]
  4029be:	48 89 44 24 38       	mov    QWORD PTR [rsp+0x38],rax
  4029c3:	48 3d 99 3a 00 00    	cmp    rax,0x3a99
  4029c9:	b8 e8 03 00 00       	mov    eax,0x3e8
  4029ce:	b9 d0 07 00 00       	mov    ecx,0x7d0
  4029d3:	48 0f 4c c8          	cmovl  rcx,rax
  4029d7:	48 89 8c 24 c0 00 00 	mov    QWORD PTR [rsp+0xc0],rcx
  4029de:	00 
  4029df:	48 85 ed             	test   rbp,rbp
  4029e2:	0f 84 c7 00 00 00    	je     402aaf <fwrite@plt+0x194f>
  4029e8:	49 8b 86 a0 01 00 00 	mov    rax,QWORD PTR [r14+0x1a0]
  4029ef:	48 89 44 24 68       	mov    QWORD PTR [rsp+0x68],rax
  4029f4:	49 8b 9e c0 01 00 00 	mov    rbx,QWORD PTR [r14+0x1c0]
  4029fb:	48 c7 84 24 80 00 00 	mov    QWORD PTR [rsp+0x80],0x0
  402a02:	00 00 00 00 00 
  402a07:	48 8b 44 24 58       	mov    rax,QWORD PTR [rsp+0x58]
  402a0c:	48 89 28             	mov    QWORD PTR [rax],rbp
  402a0f:	49 c7 45 00 00 00 00 	mov    QWORD PTR [r13+0x0],0x0
  402a16:	00 
  402a17:	49 c7 07 00 00 00 00 	mov    QWORD PTR [r15],0x0
  402a1e:	49 8b 86 40 02 00 00 	mov    rax,QWORD PTR [r14+0x240]
  402a25:	48 89 44 24 48       	mov    QWORD PTR [rsp+0x48],rax
  402a2a:	be 08 00 00 00       	mov    esi,0x8
  402a2f:	48 89 df             	mov    rdi,rbx
  402a32:	e8 69 e6 ff ff       	call   4010a0 <calloc@plt>
  402a37:	48 8b 4c 24 30       	mov    rcx,QWORD PTR [rsp+0x30]
  402a3c:	48 89 01             	mov    QWORD PTR [rcx],rax
  402a3f:	48 85 db             	test   rbx,rbx
  402a42:	7e 2d                	jle    402a71 <fwrite@plt+0x1911>
  402a44:	48 8b 44 24 30       	mov    rax,QWORD PTR [rsp+0x30]
  402a49:	48 8b 00             	mov    rax,QWORD PTR [rax]
  402a4c:	31 c9                	xor    ecx,ecx
  402a4e:	48 8b 54 24 48       	mov    rdx,QWORD PTR [rsp+0x48]
  402a53:	66 2e 0f 1f 84 00 00 	cs nop WORD PTR [rax+rax*1+0x0]
  402a5a:	00 00 00 
  402a5d:	0f 1f 00             	nop    DWORD PTR [rax]
  402a60:	48 89 14 c8          	mov    QWORD PTR [rax+rcx*8],rdx
  402a64:	48 83 c1 01          	add    rcx,0x1
  402a68:	48 83 c2 48          	add    rdx,0x48
  402a6c:	48 39 cb             	cmp    rbx,rcx
  402a6f:	75 ef                	jne    402a60 <fwrite@plt+0x1900>
  402a71:	48 89 5c 24 60       	mov    QWORD PTR [rsp+0x60],rbx
  402a76:	4c 89 6c 24 20       	mov    QWORD PTR [rsp+0x20],r13
  402a7b:	49 8b 9e 38 02 00 00 	mov    rbx,QWORD PTR [r14+0x238]
  402a82:	48 83 7c 24 38 00    	cmp    QWORD PTR [rsp+0x38],0x0
  402a88:	7e 31                	jle    402abb <fwrite@plt+0x195b>
  402a8a:	45 31 ed             	xor    r13d,r13d
  402a8d:	0f 1f 00             	nop    DWORD PTR [rax]
  402a90:	0f b7 43 68          	movzx  eax,WORD PTR [rbx+0x68]
  402a94:	3d ff ff 00 00       	cmp    eax,0xffff
  402a99:	75 23                	jne    402abe <fwrite@plt+0x195e>
  402a9b:	49 83 c5 01          	add    r13,0x1
  402a9f:	48 81 c3 d8 00 00 00 	add    rbx,0xd8
  402aa6:	4c 3b 6c 24 38       	cmp    r13,QWORD PTR [rsp+0x38]
  402aab:	7c e3                	jl     402a90 <fwrite@plt+0x1930>
  402aad:	eb 0f                	jmp    402abe <fwrite@plt+0x195e>
  402aaf:	48 c7 c5 ff ff ff ff 	mov    rbp,0xffffffffffffffff
  402ab6:	e9 f0 05 00 00       	jmp    4030ab <fwrite@plt+0x1f4b>
  402abb:	45 31 ed             	xor    r13d,r13d
  402abe:	48 8b 44 24 38       	mov    rax,QWORD PTR [rsp+0x38]
  402ac3:	49 39 c5             	cmp    r13,rax
  402ac6:	4c 89 7c 24 78       	mov    QWORD PTR [rsp+0x78],r15
  402acb:	48 89 6c 24 70       	mov    QWORD PTR [rsp+0x70],rbp
  402ad0:	4c 89 b4 24 b8 00 00 	mov    QWORD PTR [rsp+0xb8],r14
  402ad7:	00 
  402ad8:	4c 89 a4 24 b0 00 00 	mov    QWORD PTR [rsp+0xb0],r12
  402adf:	00 
  402ae0:	0f 8d b2 03 00 00    	jge    402e98 <fwrite@plt+0x1d38>
  402ae6:	48 83 84 24 98 00 00 	add    QWORD PTR [rsp+0x98],0xfffffffffffffff1
  402aed:	00 f1 
  402aef:	66 b9 01 00          	mov    cx,0x1
  402af3:	89 4c 24 1c          	mov    DWORD PTR [rsp+0x1c],ecx
  402af7:	48 c7 84 24 a0 00 00 	mov    QWORD PTR [rsp+0xa0],0xffffffffffffffff
  402afe:	00 ff ff ff ff 
  402b03:	31 c9                	xor    ecx,ecx
  402b05:	48 89 4c 24 28       	mov    QWORD PTR [rsp+0x28],rcx
  402b0a:	66 b9 01 00          	mov    cx,0x1
  402b0e:	89 4c 24 54          	mov    DWORD PTR [rsp+0x54],ecx
  402b12:	31 c9                	xor    ecx,ecx
  402b14:	48 89 4c 24 40       	mov    QWORD PTR [rsp+0x40],rcx
  402b19:	45 31 e4             	xor    r12d,r12d
  402b1c:	4c 8b 74 24 68       	mov    r14,QWORD PTR [rsp+0x68]
  402b21:	49 89 c7             	mov    r15,rax
  402b24:	66 2e 0f 1f 84 00 00 	cs nop WORD PTR [rax+rax*1+0x0]
  402b2b:	00 00 00 
  402b2e:	66 90                	xchg   ax,ax
  402b30:	66 83 7c 24 1c 00    	cmp    WORD PTR [rsp+0x1c],0x0
  402b36:	75 17                	jne    402b4f <fwrite@plt+0x19ef>
  402b38:	b9 01 00 00 00       	mov    ecx,0x1
  402b3d:	48 8d b4 24 80 00 00 	lea    rsi,[rsp+0x80]
  402b44:	00 
  402b45:	48 8b 54 24 30       	mov    rdx,QWORD PTR [rsp+0x30]
  402b4a:	e8 11 fc ff ff       	call   402760 <fwrite@plt+0x1600>
  402b4f:	31 d2                	xor    edx,edx
  402b51:	4c 89 e8             	mov    rax,r13
  402b54:	48 f7 b4 24 c0 00 00 	div    QWORD PTR [rsp+0xc0]
  402b5b:	00 
  402b5c:	48 85 d2             	test   rdx,rdx
  402b5f:	75 6f                	jne    402bd0 <fwrite@plt+0x1a70>
  402b61:	b9 01 00 00 00       	mov    ecx,0x1
  402b66:	48 8d b4 24 80 00 00 	lea    rsi,[rsp+0x80]
  402b6d:	00 
  402b6e:	48 8b 54 24 30       	mov    rdx,QWORD PTR [rsp+0x30]
  402b73:	e8 e8 fb ff ff       	call   402760 <fwrite@plt+0x1600>
  402b78:	66 83 7c 24 1c 00    	cmp    WORD PTR [rsp+0x1c],0x0
  402b7e:	75 50                	jne    402bd0 <fwrite@plt+0x1a70>
  402b80:	48 8b 6c 24 20       	mov    rbp,QWORD PTR [rsp+0x20]
  402b85:	48 8b 44 24 40       	mov    rax,QWORD PTR [rsp+0x40]
  402b8a:	48 89 45 00          	mov    QWORD PTR [rbp+0x0],rax
  402b8e:	4c 89 34 24          	mov    QWORD PTR [rsp],r14
  402b92:	48 c7 44 24 08 01 00 	mov    QWORD PTR [rsp+0x8],0x1
  402b99:	00 00 
  402b9b:	45 31 c0             	xor    r8d,r8d
  402b9e:	48 89 ee             	mov    rsi,rbp
  402ba1:	48 8b 54 24 58       	mov    rdx,QWORD PTR [rsp+0x58]
  402ba6:	48 8b 4c 24 48       	mov    rcx,QWORD PTR [rsp+0x48]
  402bab:	4c 8b 4c 24 60       	mov    r9,QWORD PTR [rsp+0x60]
  402bb0:	e8 db fb ff ff       	call   402790 <fwrite@plt+0x1630>
  402bb5:	48 c7 45 00 00 00 00 	mov    QWORD PTR [rbp+0x0],0x0
  402bbc:	00 
  402bbd:	31 c0                	xor    eax,eax
  402bbf:	48 89 44 24 40       	mov    QWORD PTR [rsp+0x40],rax
  402bc4:	66 2e 0f 1f 84 00 00 	cs nop WORD PTR [rax+rax*1+0x0]
  402bcb:	00 00 00 
  402bce:	66 90                	xchg   ax,ax
  402bd0:	0f b7 43 68          	movzx  eax,WORD PTR [rbx+0x68]
  402bd4:	3d ff ff 00 00       	cmp    eax,0xffff
  402bd9:	74 26                	je     402c01 <fwrite@plt+0x1aa1>
  402bdb:	48 8d 6b 48          	lea    rbp,[rbx+0x48]
  402bdf:	bf 01 00 00 00       	mov    edi,0x1
  402be4:	be 10 00 00 00       	mov    esi,0x10
  402be9:	e8 b2 e4 ff ff       	call   4010a0 <calloc@plt>
  402bee:	4c 89 60 08          	mov    QWORD PTR [rax+0x8],r12
  402bf2:	48 89 28             	mov    QWORD PTR [rax],rbp
  402bf5:	48 83 84 24 a0 00 00 	add    QWORD PTR [rsp+0xa0],0x1
  402bfc:	00 01 
  402bfe:	49 89 c4             	mov    r12,rax
  402c01:	0f b7 43 20          	movzx  eax,WORD PTR [rbx+0x20]
  402c05:	3d ff ff 00 00       	cmp    eax,0xffff
  402c0a:	0f 84 10 02 00 00    	je     402e20 <fwrite@plt+0x1cc0>
  402c10:	4d 8b 7c 24 08       	mov    r15,QWORD PTR [r12+0x8]
  402c15:	4d 85 ff             	test   r15,r15
  402c18:	0f 84 ec 01 00 00    	je     402e0a <fwrite@plt+0x1caa>
  402c1e:	4c 8b 53 18          	mov    r10,QWORD PTR [rbx+0x18]
  402c22:	49 63 42 64          	movsxd rax,DWORD PTR [r10+0x64]
  402c26:	4c 8b b4 24 98 00 00 	mov    r14,QWORD PTR [rsp+0x98]
  402c2d:	00 
  402c2e:	4c 2b 73 40          	sub    r14,QWORD PTR [rbx+0x40]
  402c32:	49 01 c6             	add    r14,rax
  402c35:	4c 8b 84 24 80 00 00 	mov    r8,QWORD PTR [rsp+0x80]
  402c3c:	00 
  402c3d:	48 8b 44 24 28       	mov    rax,QWORD PTR [rsp+0x28]
  402c42:	48 89 c5             	mov    rbp,rax
  402c45:	66 2e 0f 1f 84 00 00 	cs nop WORD PTR [rax+rax*1+0x0]
  402c4c:	00 00 00 
  402c4f:	90                   	nop
  402c50:	49 8b 07             	mov    rax,QWORD PTR [r15]
  402c53:	48 8b 50 10          	mov    rdx,QWORD PTR [rax+0x10]
  402c57:	48 63 4a 64          	movsxd rcx,DWORD PTR [rdx+0x64]
  402c5b:	48 03 48 40          	add    rcx,QWORD PTR [rax+0x40]
  402c5f:	4c 39 f1             	cmp    rcx,r14
  402c62:	7e 1c                	jle    402c80 <fwrite@plt+0x1b20>
  402c64:	48 83 c5 01          	add    rbp,0x1
  402c68:	4d 8b 7f 08          	mov    r15,QWORD PTR [r15+0x8]
  402c6c:	4d 85 ff             	test   r15,r15
  402c6f:	75 df                	jne    402c50 <fwrite@plt+0x1af0>
  402c71:	e9 8a 01 00 00       	jmp    402e00 <fwrite@plt+0x1ca0>
  402c76:	66 2e 0f 1f 84 00 00 	cs nop WORD PTR [rax+rax*1+0x0]
  402c7d:	00 00 00 
  402c80:	41 b9 1e 00 00 00    	mov    r9d,0x1e
  402c86:	4c 2b 0a             	sub    r9,QWORD PTR [rdx]
  402c89:	4d 03 0a             	add    r9,QWORD PTR [r10]
  402c8c:	0f 89 51 01 00 00    	jns    402de3 <fwrite@plt+0x1c83>
  402c92:	48 8b 44 24 78       	mov    rax,QWORD PTR [rsp+0x78]
  402c97:	48 8b 30             	mov    rsi,QWORD PTR [rax]
  402c9a:	48 3b 74 24 60       	cmp    rsi,QWORD PTR [rsp+0x60]
  402c9f:	4c 89 94 24 90 00 00 	mov    QWORD PTR [rsp+0x90],r10
  402ca6:	00 
  402ca7:	4c 89 84 24 88 00 00 	mov    QWORD PTR [rsp+0x88],r8
  402cae:	00 
  402caf:	7d 33                	jge    402ce4 <fwrite@plt+0x1b84>
  402cb1:	48 89 6c 24 08       	mov    QWORD PTR [rsp+0x8],rbp
  402cb6:	41 b8 1e 00 00 00    	mov    r8d,0x1e
  402cbc:	48 8b 7c 24 48       	mov    rdi,QWORD PTR [rsp+0x48]
  402cc1:	48 89 74 24 28       	mov    QWORD PTR [rsp+0x28],rsi
  402cc6:	4c 89 d1             	mov    rcx,r10
  402cc9:	e8 b2 f8 ff ff       	call   402580 <fwrite@plt+0x1420>
  402cce:	48 8b 44 24 28       	mov    rax,QWORD PTR [rsp+0x28]
  402cd3:	48 83 c0 01          	add    rax,0x1
  402cd7:	48 8b 4c 24 78       	mov    rcx,QWORD PTR [rsp+0x78]
  402cdc:	48 89 01             	mov    QWORD PTR [rcx],rax
  402cdf:	e9 d9 00 00 00       	jmp    402dbd <fwrite@plt+0x1c5d>
  402ce4:	48 8b 7c 24 48       	mov    rdi,QWORD PTR [rsp+0x48]
  402ce9:	4c 39 4f 38          	cmp    QWORD PTR [rdi+0x38],r9
  402ced:	0f 8e 81 00 00 00    	jle    402d74 <fwrite@plt+0x1c14>
  402cf3:	31 c0                	xor    eax,eax
  402cf5:	66 83 7c 24 54 00    	cmp    WORD PTR [rsp+0x54],0x0
  402cfb:	8b 4c 24 1c          	mov    ecx,DWORD PTR [rsp+0x1c]
  402cff:	0f 45 c8             	cmovne ecx,eax
  402d02:	89 4c 24 1c          	mov    DWORD PTR [rsp+0x1c],ecx
  402d06:	48 8b 4c 24 20       	mov    rcx,QWORD PTR [rsp+0x20]
  402d0b:	48 8b 01             	mov    rax,QWORD PTR [rcx]
  402d0e:	49 89 cb             	mov    r11,rcx
  402d11:	4c 8d 04 c0          	lea    r8,[rax+rax*8]
  402d15:	48 8b 77 40          	mov    rsi,QWORD PTR [rdi+0x40]
  402d19:	48 8b 4c 24 70       	mov    rcx,QWORD PTR [rsp+0x70]
  402d1e:	4a 89 74 c1 40       	mov    QWORD PTR [rcx+r8*8+0x40],rsi
  402d23:	c5 fc 10 07          	vmovups ymm0,YMMWORD PTR [rdi]
  402d27:	c5 fc 10 4f 20       	vmovups ymm1,YMMWORD PTR [rdi+0x20]
  402d2c:	c4 a1 7c 11 4c c1 20 	vmovups YMMWORD PTR [rcx+r8*8+0x20],ymm1
  402d33:	c4 a1 7c 11 04 c1    	vmovups YMMWORD PTR [rcx+r8*8],ymm0
  402d39:	48 83 c0 01          	add    rax,0x1
  402d3d:	49 89 03             	mov    QWORD PTR [r11],rax
  402d40:	48 83 44 24 40 01    	add    QWORD PTR [rsp+0x40],0x1
  402d46:	48 89 2c 24          	mov    QWORD PTR [rsp],rbp
  402d4a:	b9 1e 00 00 00       	mov    ecx,0x1e
  402d4f:	48 89 d6             	mov    rsi,rdx
  402d52:	4c 89 d2             	mov    rdx,r10
  402d55:	4d 89 c8             	mov    r8,r9
  402d58:	4c 8b 4c 24 60       	mov    r9,QWORD PTR [rsp+0x60]
  402d5d:	c5 f8 77             	vzeroupper 
  402d60:	e8 eb f8 ff ff       	call   402650 <fwrite@plt+0x14f0>
  402d65:	48 8b 74 24 20       	mov    rsi,QWORD PTR [rsp+0x20]
  402d6a:	c7 44 24 54 00 00 00 	mov    DWORD PTR [rsp+0x54],0x0
  402d71:	00 
  402d72:	eb 4e                	jmp    402dc2 <fwrite@plt+0x1c62>
  402d74:	4d 39 c1             	cmp    r9,r8
  402d77:	7d 44                	jge    402dbd <fwrite@plt+0x1c5d>
  402d79:	48 8b 74 24 20       	mov    rsi,QWORD PTR [rsp+0x20]
  402d7e:	48 8b 06             	mov    rax,QWORD PTR [rsi]
  402d81:	48 8d 48 01          	lea    rcx,[rax+0x1]
  402d85:	48 89 0e             	mov    QWORD PTR [rsi],rcx
  402d88:	48 8d 04 c0          	lea    rax,[rax+rax*8]
  402d8c:	48 8b 4c 24 70       	mov    rcx,QWORD PTR [rsp+0x70]
  402d91:	48 89 54 c1 10       	mov    QWORD PTR [rcx+rax*8+0x10],rdx
  402d96:	4c 89 54 c1 18       	mov    QWORD PTR [rcx+rax*8+0x18],r10
  402d9b:	48 c7 44 c1 40 1e 00 	mov    QWORD PTR [rcx+rax*8+0x40],0x1e
  402da2:	00 00 
  402da4:	48 c7 44 c1 08 1e 00 	mov    QWORD PTR [rcx+rax*8+0x8],0x1e
  402dab:	00 00 
  402dad:	4c 89 4c c1 38       	mov    QWORD PTR [rcx+rax*8+0x38],r9
  402db2:	89 2c c1             	mov    DWORD PTR [rcx+rax*8],ebp
  402db5:	48 83 44 24 40 01    	add    QWORD PTR [rsp+0x40],0x1
  402dbb:	eb 05                	jmp    402dc2 <fwrite@plt+0x1c62>
  402dbd:	48 8b 74 24 20       	mov    rsi,QWORD PTR [rsp+0x20]
  402dc2:	48 8b 44 24 68       	mov    rax,QWORD PTR [rsp+0x68]
  402dc7:	48 39 06             	cmp    QWORD PTR [rsi],rax
  402dca:	75 07                	jne    402dd3 <fwrite@plt+0x1c73>
  402dcc:	48 c7 06 00 00 00 00 	mov    QWORD PTR [rsi],0x0
  402dd3:	4c 8b 94 24 90 00 00 	mov    r10,QWORD PTR [rsp+0x90]
  402dda:	00 
  402ddb:	4c 8b 84 24 88 00 00 	mov    r8,QWORD PTR [rsp+0x88]
  402de2:	00 
  402de3:	48 8d 45 01          	lea    rax,[rbp+0x1]
  402de7:	4d 8b 7f 08          	mov    r15,QWORD PTR [r15+0x8]
  402deb:	4d 85 ff             	test   r15,r15
  402dee:	0f 85 4e fe ff ff    	jne    402c42 <fwrite@plt+0x1ae2>
  402df4:	48 83 c5 01          	add    rbp,0x1
  402df8:	0f 1f 84 00 00 00 00 	nop    DWORD PTR [rax+rax*1+0x0]
  402dff:	00 
  402e00:	48 89 6c 24 28       	mov    QWORD PTR [rsp+0x28],rbp
  402e05:	4c 8b 74 24 68       	mov    r14,QWORD PTR [rsp+0x68]
  402e0a:	4c 8b 7c 24 38       	mov    r15,QWORD PTR [rsp+0x38]
  402e0f:	eb 21                	jmp    402e32 <fwrite@plt+0x1cd2>
  402e11:	66 2e 0f 1f 84 00 00 	cs nop WORD PTR [rax+rax*1+0x0]
  402e18:	00 00 00 
  402e1b:	0f 1f 44 00 00       	nop    DWORD PTR [rax+rax*1+0x0]
  402e20:	48 8b 44 24 28       	mov    rax,QWORD PTR [rsp+0x28]
  402e25:	48 03 84 24 a0 00 00 	add    rax,QWORD PTR [rsp+0xa0]
  402e2c:	00 
  402e2d:	48 89 44 24 28       	mov    QWORD PTR [rsp+0x28],rax
  402e32:	49 83 c5 01          	add    r13,0x1
  402e36:	48 81 c3 d8 00 00 00 	add    rbx,0xd8
  402e3d:	4d 39 fd             	cmp    r13,r15
  402e40:	0f 85 ea fc ff ff    	jne    402b30 <fwrite@plt+0x19d0>
  402e46:	4c 8b 6c 24 20       	mov    r13,QWORD PTR [rsp+0x20]
  402e4b:	48 8b 44 24 40       	mov    rax,QWORD PTR [rsp+0x40]
  402e50:	49 89 45 00          	mov    QWORD PTR [r13+0x0],rax
  402e54:	66 83 7c 24 1c 00    	cmp    WORD PTR [rsp+0x1c],0x0
  402e5a:	75 54                	jne    402eb0 <fwrite@plt+0x1d50>
  402e5c:	4c 8b 7c 24 58       	mov    r15,QWORD PTR [rsp+0x58]
  402e61:	48 8b 6c 24 60       	mov    rbp,QWORD PTR [rsp+0x60]
  402e66:	48 8b 5c 24 48       	mov    rbx,QWORD PTR [rsp+0x48]
  402e6b:	0f 1f 44 00 00       	nop    DWORD PTR [rax+rax*1+0x0]
  402e70:	4c 89 34 24          	mov    QWORD PTR [rsp],r14
  402e74:	48 c7 44 24 08 01 00 	mov    QWORD PTR [rsp+0x8],0x1
  402e7b:	00 00 
  402e7d:	45 31 c0             	xor    r8d,r8d
  402e80:	4c 89 ee             	mov    rsi,r13
  402e83:	4c 89 fa             	mov    rdx,r15
  402e86:	48 89 d9             	mov    rcx,rbx
  402e89:	49 89 e9             	mov    r9,rbp
  402e8c:	e8 ff f8 ff ff       	call   402790 <fwrite@plt+0x1630>
  402e91:	48 85 c0             	test   rax,rax
  402e94:	75 da                	jne    402e70 <fwrite@plt+0x1d10>
  402e96:	eb 18                	jmp    402eb0 <fwrite@plt+0x1d50>
  402e98:	4c 8b 6c 24 20       	mov    r13,QWORD PTR [rsp+0x20]
  402e9d:	49 c7 45 00 00 00 00 	mov    QWORD PTR [r13+0x0],0x0
  402ea4:	00 
  402ea5:	45 31 e4             	xor    r12d,r12d
  402ea8:	0f 1f 84 00 00 00 00 	nop    DWORD PTR [rax+rax*1+0x0]
  402eaf:	00 
  402eb0:	49 8b 5c 24 08       	mov    rbx,QWORD PTR [r12+0x8]
  402eb5:	4c 89 e7             	mov    rdi,r12
  402eb8:	e8 73 e1 ff ff       	call   401030 <free@plt>
  402ebd:	49 89 dc             	mov    r12,rbx
  402ec0:	48 85 db             	test   rbx,rbx
  402ec3:	75 eb                	jne    402eb0 <fwrite@plt+0x1d50>
  402ec5:	48 8b 5c 24 30       	mov    rbx,QWORD PTR [rsp+0x30]
  402eca:	4c 8b 33             	mov    r14,QWORD PTR [rbx]
  402ecd:	4c 8b 64 24 78       	mov    r12,QWORD PTR [rsp+0x78]
  402ed2:	49 8b 2c 24          	mov    rbp,QWORD PTR [r12]
  402ed6:	ba 08 00 00 00       	mov    edx,0x8
  402edb:	b9 50 24 40 00       	mov    ecx,0x402450
  402ee0:	4c 89 f7             	mov    rdi,r14
  402ee3:	48 89 ee             	mov    rsi,rbp
  402ee6:	e8 35 13 00 00       	call   404220 <fwrite@plt+0x30c0>
  402eeb:	48 8d b4 24 a8 00 00 	lea    rsi,[rsp+0xa8]
  402ef2:	00 
  402ef3:	4c 8b bc 24 b8 00 00 	mov    r15,QWORD PTR [rsp+0xb8]
  402efa:	00 
  402efb:	4c 89 ff             	mov    rdi,r15
  402efe:	4c 89 e2             	mov    rdx,r12
  402f01:	48 89 d9             	mov    rcx,rbx
  402f04:	e8 97 f3 ff ff       	call   4022a0 <fwrite@plt+0x1140>
  402f09:	4c 89 f7             	mov    rdi,r14
  402f0c:	e8 1f e1 ff ff       	call   401030 <free@plt>
  402f11:	48 85 ed             	test   rbp,rbp
  402f14:	0f 84 19 01 00 00    	je     403033 <fwrite@plt+0x1ed3>
  402f1a:	49 8b 9f 40 02 00 00 	mov    rbx,QWORD PTR [r15+0x240]
  402f21:	48 83 bc 24 b0 00 00 	cmp    QWORD PTR [rsp+0xb0],0x0
  402f28:	00 00 
  402f2a:	0f 84 7e 00 00 00    	je     402fae <fwrite@plt+0x1e4e>
  402f30:	48 83 c3 38          	add    rbx,0x38
  402f34:	48 c1 e5 03          	shl    rbp,0x3
  402f38:	4c 8d 34 ed 00 00 00 	lea    r14,[rbp*8+0x0]
  402f3f:	00 
  402f40:	49 01 ee             	add    r14,rbp
  402f43:	31 ed                	xor    ebp,ebp
  402f45:	66 2e 0f 1f 84 00 00 	cs nop WORD PTR [rax+rax*1+0x0]
  402f4c:	00 00 00 
  402f4f:	90                   	nop
  402f50:	48 83 3c 2b 01       	cmp    QWORD PTR [rbx+rbp*1],0x1
  402f55:	75 49                	jne    402fa0 <fwrite@plt+0x1e40>
  402f57:	48 c7 04 2b 00 00 00 	mov    QWORD PTR [rbx+rbp*1],0x0
  402f5e:	00 
  402f5f:	66 c7 44 2b e8 01 00 	mov    WORD PTR [rbx+rbp*1-0x18],0x1
  402f66:	48 63 74 2b c8       	movsxd rsi,DWORD PTR [rbx+rbp*1-0x38]
  402f6b:	4c 89 ff             	mov    rdi,r15
  402f6e:	c5 f8 77             	vzeroupper 
  402f71:	e8 1a e7 ff ff       	call   401690 <fwrite@plt+0x530>
  402f76:	48 8d 04 c0          	lea    rax,[rax+rax*8]
  402f7a:	c5 fc 10 44 2b c8    	vmovups ymm0,YMMWORD PTR [rbx+rbp*1-0x38]
  402f80:	c5 fc 10 4c 2b e8    	vmovups ymm1,YMMWORD PTR [rbx+rbp*1-0x18]
  402f86:	48 8b 54 24 70       	mov    rdx,QWORD PTR [rsp+0x70]
  402f8b:	c5 fc 11 04 c2       	vmovups YMMWORD PTR [rdx+rax*8],ymm0
  402f90:	c5 fc 11 4c c2 20    	vmovups YMMWORD PTR [rdx+rax*8+0x20],ymm1
  402f96:	48 8b 4c 2b 08       	mov    rcx,QWORD PTR [rbx+rbp*1+0x8]
  402f9b:	48 89 4c c2 40       	mov    QWORD PTR [rdx+rax*8+0x40],rcx
  402fa0:	48 83 c5 48          	add    rbp,0x48
  402fa4:	49 39 ee             	cmp    r14,rbp
  402fa7:	75 a7                	jne    402f50 <fwrite@plt+0x1df0>
  402fa9:	e9 85 00 00 00       	jmp    403033 <fwrite@plt+0x1ed3>
  402fae:	48 c1 e5 03          	shl    rbp,0x3
  402fb2:	48 8d 6c ed 00       	lea    rbp,[rbp+rbp*8+0x0]
  402fb7:	66 0f 1f 84 00 00 00 	nop    WORD PTR [rax+rax*1+0x0]
  402fbe:	00 00 
  402fc0:	48 83 7b 38 01       	cmp    QWORD PTR [rbx+0x38],0x1
  402fc5:	75 62                	jne    403029 <fwrite@plt+0x1ec9>
  402fc7:	48 c7 43 38 00 00 00 	mov    QWORD PTR [rbx+0x38],0x0
  402fce:	00 
  402fcf:	66 c7 43 20 01 00    	mov    WORD PTR [rbx+0x20],0x1
  402fd5:	48 8b 43 10          	mov    rax,QWORD PTR [rbx+0x10]
  402fd9:	48 8b 48 38          	mov    rcx,QWORD PTR [rax+0x38]
  402fdd:	48 89 4b 28          	mov    QWORD PTR [rbx+0x28],rcx
  402fe1:	48 89 58 38          	mov    QWORD PTR [rax+0x38],rbx
  402fe5:	48 8b 43 18          	mov    rax,QWORD PTR [rbx+0x18]
  402fe9:	48 8b 48 40          	mov    rcx,QWORD PTR [rax+0x40]
  402fed:	48 89 4b 30          	mov    QWORD PTR [rbx+0x30],rcx
  402ff1:	48 89 58 40          	mov    QWORD PTR [rax+0x40],rbx
  402ff5:	48 63 33             	movsxd rsi,DWORD PTR [rbx]
  402ff8:	4c 89 ff             	mov    rdi,r15
  402ffb:	c5 f8 77             	vzeroupper 
  402ffe:	e8 8d e6 ff ff       	call   401690 <fwrite@plt+0x530>
  403003:	48 8d 04 c0          	lea    rax,[rax+rax*8]
  403007:	c5 fc 10 03          	vmovups ymm0,YMMWORD PTR [rbx]
  40300b:	c5 fc 10 4b 20       	vmovups ymm1,YMMWORD PTR [rbx+0x20]
  403010:	48 8b 54 24 70       	mov    rdx,QWORD PTR [rsp+0x70]
  403015:	c5 fc 11 04 c2       	vmovups YMMWORD PTR [rdx+rax*8],ymm0
  40301a:	c5 fc 11 4c c2 20    	vmovups YMMWORD PTR [rdx+rax*8+0x20],ymm1
  403020:	48 8b 4b 40          	mov    rcx,QWORD PTR [rbx+0x40]
  403024:	48 89 4c c2 40       	mov    QWORD PTR [rdx+rax*8+0x40],rcx
  403029:	48 83 c3 48          	add    rbx,0x48
  40302d:	48 83 c5 b8          	add    rbp,0xffffffffffffffb8
  403031:	75 8d                	jne    402fc0 <fwrite@plt+0x1e60>
  403033:	48 8b ac 24 a8 00 00 	mov    rbp,QWORD PTR [rsp+0xa8]
  40303a:	00 
  40303b:	49 01 af b8 01 00 00 	add    QWORD PTR [r15+0x1b8],rbp
  403042:	49 29 af c0 01 00 00 	sub    QWORD PTR [r15+0x1c0],rbp
  403049:	49 8b 97 a8 01 00 00 	mov    rdx,QWORD PTR [r15+0x1a8]
  403050:	be 90 16 40 00       	mov    esi,0x401690
  403055:	4c 89 ff             	mov    rdi,r15
  403058:	c5 f8 77             	vzeroupper 
  40305b:	e8 70 f1 ff ff       	call   4021d0 <fwrite@plt+0x1070>
  403060:	49 8b 87 a8 01 00 00 	mov    rax,QWORD PTR [r15+0x1a8]
  403067:	48 01 e8             	add    rax,rbp
  40306a:	49 89 87 a8 01 00 00 	mov    QWORD PTR [r15+0x1a8],rax
  403071:	48 8d 04 c0          	lea    rax,[rax+rax*8]
  403075:	48 c1 e0 03          	shl    rax,0x3
  403079:	49 03 87 38 02 00 00 	add    rax,QWORD PTR [r15+0x238]
  403080:	49 89 87 40 02 00 00 	mov    QWORD PTR [r15+0x240],rax
  403087:	4c 89 e7             	mov    rdi,r12
  40308a:	e8 a1 df ff ff       	call   401030 <free@plt>
  40308f:	4c 89 ef             	mov    rdi,r13
  403092:	e8 99 df ff ff       	call   401030 <free@plt>
  403097:	48 8b 7c 24 30       	mov    rdi,QWORD PTR [rsp+0x30]
  40309c:	e8 8f df ff ff       	call   401030 <free@plt>
  4030a1:	48 8b 7c 24 58       	mov    rdi,QWORD PTR [rsp+0x58]
  4030a6:	e8 85 df ff ff       	call   401030 <free@plt>
  4030ab:	48 89 e8             	mov    rax,rbp
  4030ae:	48 81 c4 c8 00 00 00 	add    rsp,0xc8
  4030b5:	5b                   	pop    rbx
  4030b6:	41 5c                	pop    r12
  4030b8:	41 5d                	pop    r13
  4030ba:	41 5e                	pop    r14
  4030bc:	41 5f                	pop    r15
  4030be:	5d                   	pop    rbp
  4030bf:	c3                   	ret    
  4030c0:	55                   	push   rbp
  4030c1:	41 57                	push   r15
  4030c3:	41 56                	push   r14
  4030c5:	41 55                	push   r13
  4030c7:	41 54                	push   r12
  4030c9:	53                   	push   rbx
  4030ca:	50                   	push   rax
  4030cb:	48 89 d1             	mov    rcx,rdx
  4030ce:	49 89 f7             	mov    r15,rsi
  4030d1:	49 89 fd             	mov    r13,rdi
  4030d4:	48 c7 87 80 02 00 00 	mov    QWORD PTR [rdi+0x280],0xfa0
  4030db:	a0 0f 00 00 
  4030df:	4c 8b a7 a8 01 00 00 	mov    r12,QWORD PTR [rdi+0x1a8]
  4030e6:	49 8d 44 24 ff       	lea    rax,[r12-0x1]
  4030eb:	48 bf cf f7 53 e3 a5 	movabs rdi,0x20c49ba5e353f7cf
  4030f2:	9b c4 20 
  4030f5:	48 f7 ef             	imul   rdi
  4030f8:	48 89 d0             	mov    rax,rdx
  4030fb:	48 c1 e8 3f          	shr    rax,0x3f
  4030ff:	48 c1 fa 09          	sar    rdx,0x9
  403103:	48 8d 34 02          	lea    rsi,[rdx+rax*1]
  403107:	48 83 c6 01          	add    rsi,0x1
  40310b:	49 89 b5 70 02 00 00 	mov    QWORD PTR [r13+0x270],rsi
  403112:	4c 89 e0             	mov    rax,r12
  403115:	48 f7 ef             	imul   rdi
  403118:	48 89 d0             	mov    rax,rdx
  40311b:	48 c1 e8 3f          	shr    rax,0x3f
  40311f:	48 c1 fa 09          	sar    rdx,0x9
  403123:	48 01 c2             	add    rdx,rax
  403126:	48 69 d2 a0 0f 00 00 	imul   rdx,rdx,0xfa0
  40312d:	4c 89 e0             	mov    rax,r12
  403130:	48 29 d0             	sub    rax,rdx
  403133:	48 01 f0             	add    rax,rsi
  403136:	48 05 60 f0 ff ff    	add    rax,0xfffffffffffff060
  40313c:	49 89 85 78 02 00 00 	mov    QWORD PTR [r13+0x278],rax
  403143:	79 22                	jns    403167 <fwrite@plt+0x2007>
  403145:	49 8b 95 80 02 00 00 	mov    rdx,QWORD PTR [r13+0x280]
  40314c:	0f 1f 40 00          	nop    DWORD PTR [rax+0x0]
  403150:	48 83 c2 ff          	add    rdx,0xffffffffffffffff
  403154:	48 01 f0             	add    rax,rsi
  403157:	78 f7                	js     403150 <fwrite@plt+0x1ff0>
  403159:	49 89 85 78 02 00 00 	mov    QWORD PTR [r13+0x278],rax
  403160:	49 89 95 80 02 00 00 	mov    QWORD PTR [r13+0x280],rdx
  403167:	4d 8b b5 b8 01 00 00 	mov    r14,QWORD PTR [r13+0x1b8]
  40316e:	48 85 c9             	test   rcx,rcx
  403171:	0f 85 ad 00 00 00    	jne    403224 <fwrite@plt+0x20c4>
  403177:	4d 29 f4             	sub    r12,r14
  40317a:	4d 3b a5 a8 01 00 00 	cmp    r12,QWORD PTR [r13+0x1a8]
  403181:	0f 8d 9b 01 00 00    	jge    403322 <fwrite@plt+0x21c2>
  403187:	45 31 f6             	xor    r14d,r14d
  40318a:	4c 89 e3             	mov    rbx,r12
  40318d:	0f 1f 00             	nop    DWORD PTR [rax]
  403190:	49 8b ad 38 02 00 00 	mov    rbp,QWORD PTR [r13+0x238]
  403197:	4c 89 ef             	mov    rdi,r13
  40319a:	48 89 de             	mov    rsi,rbx
  40319d:	e8 ee e4 ff ff       	call   401690 <fwrite@plt+0x530>
  4031a2:	48 8d 14 c0          	lea    rdx,[rax+rax*8]
  4031a6:	48 8d 04 d5 00 00 00 	lea    rax,[rdx*8+0x0]
  4031ad:	00 
  4031ae:	48 01 e8             	add    rax,rbp
  4031b1:	0f b7 74 d5 20       	movzx  esi,WORD PTR [rbp+rdx*8+0x20]
  4031b6:	48 c7 c1 fe ff ff ff 	mov    rcx,0xfffffffffffffffe
  4031bd:	66 85 f6             	test   si,si
  4031c0:	74 2e                	je     4031f0 <fwrite@plt+0x2090>
  4031c2:	0f b7 f6             	movzx  esi,si
  4031c5:	83 fe 01             	cmp    esi,0x1
  4031c8:	75 3a                	jne    403204 <fwrite@plt+0x20a4>
  4031ca:	48 8b 4c d5 08       	mov    rcx,QWORD PTR [rbp+rdx*8+0x8]
  4031cf:	48 8b 74 d5 10       	mov    rsi,QWORD PTR [rbp+rdx*8+0x10]
  4031d4:	48 2b 0e             	sub    rcx,QWORD PTR [rsi]
  4031d7:	48 8b 54 d5 18       	mov    rdx,QWORD PTR [rbp+rdx*8+0x18]
  4031dc:	48 03 0a             	add    rcx,QWORD PTR [rdx]
  4031df:	4c 39 f9             	cmp    rcx,r15
  4031e2:	7f 25                	jg     403209 <fwrite@plt+0x20a9>
  4031e4:	44 89 20             	mov    DWORD PTR [rax],r12d
  4031e7:	49 83 c4 01          	add    r12,0x1
  4031eb:	eb 26                	jmp    403213 <fwrite@plt+0x20b3>
  4031ed:	0f 1f 00             	nop    DWORD PTR [rax]
  4031f0:	48 8b 74 d5 10       	mov    rsi,QWORD PTR [rbp+rdx*8+0x10]
  4031f5:	48 39 46 30          	cmp    QWORD PTR [rsi+0x30],rax
  4031f9:	74 09                	je     403204 <fwrite@plt+0x20a4>
  4031fb:	48 8b 54 d5 18       	mov    rdx,QWORD PTR [rbp+rdx*8+0x18]
  403200:	48 89 42 30          	mov    QWORD PTR [rdx+0x30],rax
  403204:	4c 39 f9             	cmp    rcx,r15
  403207:	7e db                	jle    4031e4 <fwrite@plt+0x2084>
  403209:	49 83 c6 01          	add    r14,0x1
  40320d:	c7 00 ff ff ff ff    	mov    DWORD PTR [rax],0xffffffff
  403213:	48 83 c3 01          	add    rbx,0x1
  403217:	49 3b 9d a8 01 00 00 	cmp    rbx,QWORD PTR [r13+0x1a8]
  40321e:	0f 8c 6c ff ff ff    	jl     403190 <fwrite@plt+0x2030>
  403224:	4d 85 f6             	test   r14,r14
  403227:	0f 84 f5 00 00 00    	je     403322 <fwrite@plt+0x21c2>
  40322d:	4d 29 b5 b8 01 00 00 	sub    QWORD PTR [r13+0x1b8],r14
  403234:	4d 01 b5 c0 01 00 00 	add    QWORD PTR [r13+0x1c0],r14
  40323b:	49 c7 85 80 02 00 00 	mov    QWORD PTR [r13+0x280],0xfa0
  403242:	a0 0f 00 00 
  403246:	49 8b 8d a8 01 00 00 	mov    rcx,QWORD PTR [r13+0x1a8]
  40324d:	4c 89 f0             	mov    rax,r14
  403250:	48 f7 d0             	not    rax
  403253:	48 01 c8             	add    rax,rcx
  403256:	48 ba cf f7 53 e3 a5 	movabs rdx,0x20c49ba5e353f7cf
  40325d:	9b c4 20 
  403260:	48 89 d5             	mov    rbp,rdx
  403263:	48 f7 ea             	imul   rdx
  403266:	48 89 d0             	mov    rax,rdx
  403269:	48 c1 e8 3f          	shr    rax,0x3f
  40326d:	48 c1 fa 09          	sar    rdx,0x9
  403271:	48 8d 3c 02          	lea    rdi,[rdx+rax*1]
  403275:	48 83 c7 01          	add    rdi,0x1
  403279:	48 89 ce             	mov    rsi,rcx
  40327c:	4c 29 f6             	sub    rsi,r14
  40327f:	48 89 f0             	mov    rax,rsi
  403282:	48 f7 ed             	imul   rbp
  403285:	49 89 bd 70 02 00 00 	mov    QWORD PTR [r13+0x270],rdi
  40328c:	48 89 d0             	mov    rax,rdx
  40328f:	48 c1 e8 3f          	shr    rax,0x3f
  403293:	48 c1 fa 09          	sar    rdx,0x9
  403297:	48 01 c2             	add    rdx,rax
  40329a:	48 69 c2 a0 0f 00 00 	imul   rax,rdx,0xfa0
  4032a1:	48 89 c2             	mov    rdx,rax
  4032a4:	48 f7 da             	neg    rdx
  4032a7:	48 01 f2             	add    rdx,rsi
  4032aa:	48 81 c2 60 f0 ff ff 	add    rdx,0xfffffffffffff060
  4032b1:	48 29 c6             	sub    rsi,rax
  4032b4:	48 0f 45 f2          	cmovne rsi,rdx
  4032b8:	48 01 fe             	add    rsi,rdi
  4032bb:	49 89 b5 78 02 00 00 	mov    QWORD PTR [r13+0x278],rsi
  4032c2:	79 23                	jns    4032e7 <fwrite@plt+0x2187>
  4032c4:	49 8b 85 80 02 00 00 	mov    rax,QWORD PTR [r13+0x280]
  4032cb:	0f 1f 44 00 00       	nop    DWORD PTR [rax+rax*1+0x0]
  4032d0:	48 83 c0 ff          	add    rax,0xffffffffffffffff
  4032d4:	48 01 fe             	add    rsi,rdi
  4032d7:	78 f7                	js     4032d0 <fwrite@plt+0x2170>
  4032d9:	49 89 b5 78 02 00 00 	mov    QWORD PTR [r13+0x278],rsi
  4032e0:	49 89 85 80 02 00 00 	mov    QWORD PTR [r13+0x280],rax
  4032e7:	be d0 16 40 00       	mov    esi,0x4016d0
  4032ec:	4c 89 ef             	mov    rdi,r13
  4032ef:	48 89 ca             	mov    rdx,rcx
  4032f2:	e8 d9 ee ff ff       	call   4021d0 <fwrite@plt+0x1070>
  4032f7:	4d 29 b5 a8 01 00 00 	sub    QWORD PTR [r13+0x1a8],r14
  4032fe:	4c 89 f0             	mov    rax,r14
  403301:	48 f7 d8             	neg    rax
  403304:	48 8d 04 c0          	lea    rax,[rax+rax*8]
  403308:	48 c1 e0 03          	shl    rax,0x3
  40330c:	49 01 85 40 02 00 00 	add    QWORD PTR [r13+0x240],rax
  403313:	be d0 16 40 00       	mov    esi,0x4016d0
  403318:	4c 89 ef             	mov    rdi,r13
  40331b:	e8 a0 e1 ff ff       	call   4014c0 <fwrite@plt+0x360>
  403320:	eb 03                	jmp    403325 <fwrite@plt+0x21c5>
  403322:	45 31 f6             	xor    r14d,r14d
  403325:	4c 89 f0             	mov    rax,r14
  403328:	48 83 c4 08          	add    rsp,0x8
  40332c:	5b                   	pop    rbx
  40332d:	41 5c                	pop    r12
  40332f:	41 5d                	pop    r13
  403331:	41 5e                	pop    r14
  403333:	41 5f                	pop    r15
  403335:	5d                   	pop    rbp
  403336:	c3                   	ret    
  403337:	66 0f 1f 84 00 00 00 	nop    WORD PTR [rax+rax*1+0x0]
  40333e:	00 00 
  403340:	48 8b 87 28 02 00 00 	mov    rax,QWORD PTR [rdi+0x228]
  403347:	4c 8d 48 68          	lea    r9,[rax+0x68]
  40334b:	48 c7 40 30 00 00 00 	mov    QWORD PTR [rax+0x30],0x0
  403352:	00 
  403353:	48 c7 40 18 00 00 00 	mov    QWORD PTR [rax+0x18],0x0
  40335a:	00 
  40335b:	4c 89 48 10          	mov    QWORD PTR [rax+0x10],r9
  40335f:	c5 f8 57 c0          	vxorps xmm0,xmm0,xmm0
  403363:	c5 f8 11 40 20       	vmovups XMMWORD PTR [rax+0x20],xmm0
  403368:	4c 8b 87 90 01 00 00 	mov    r8,QWORD PTR [rdi+0x190]
  40336f:	49 8d 48 01          	lea    rcx,[r8+0x1]
  403373:	48 89 48 58          	mov    QWORD PTR [rax+0x58],rcx
  403377:	c7 40 08 00 00 00 00 	mov    DWORD PTR [rax+0x8],0x0
  40337e:	48 c7 00 00 1f 0a fa 	mov    QWORD PTR [rax],0xfffffffffa0a1f00
  403385:	48 c7 40 50 00 00 00 	mov    QWORD PTR [rax+0x50],0x0
  40338c:	00 
  40338d:	48 83 bf a8 01 00 00 	cmp    QWORD PTR [rdi+0x1a8],0x0
  403394:	00 
  403395:	7e 36                	jle    4033cd <fwrite@plt+0x226d>
  403397:	48 8b 8f 38 02 00 00 	mov    rcx,QWORD PTR [rdi+0x238]
  40339e:	4c 8b 97 a8 01 00 00 	mov    r10,QWORD PTR [rdi+0x1a8]
  4033a5:	48 83 c1 20          	add    rcx,0x20
  4033a9:	31 f6                	xor    esi,esi
  4033ab:	0f 1f 44 00 00       	nop    DWORD PTR [rax+rax*1+0x0]
  4033b0:	0f b7 11             	movzx  edx,WORD PTR [rcx]
  4033b3:	81 fa ff ff 00 00    	cmp    edx,0xffff
  4033b9:	74 05                	je     4033c0 <fwrite@plt+0x2260>
  4033bb:	66 c7 01 01 00       	mov    WORD PTR [rcx],0x1
  4033c0:	48 83 c6 01          	add    rsi,0x1
  4033c4:	48 83 c1 48          	add    rcx,0x48
  4033c8:	49 39 f2             	cmp    r10,rsi
  4033cb:	7f e3                	jg     4033b0 <fwrite@plt+0x2250>
  4033cd:	4d 85 c0             	test   r8,r8
  4033d0:	0f 8e 93 00 00 00    	jle    403469 <fwrite@plt+0x2309>
  4033d6:	48 8b b7 50 02 00 00 	mov    rsi,QWORD PTR [rdi+0x250]
  4033dd:	4d 89 c2             	mov    r10,r8
  4033e0:	49 f7 da             	neg    r10
  4033e3:	ba 01 00 00 00       	mov    edx,0x1
  4033e8:	4c 89 c9             	mov    rcx,r9
  4033eb:	0f 1f 44 00 00       	nop    DWORD PTR [rax+rax*1+0x0]
  4033f0:	48 89 71 30          	mov    QWORD PTR [rcx+0x30],rsi
  4033f4:	48 89 41 18          	mov    QWORD PTR [rcx+0x18],rax
  4033f8:	48 c7 41 10 00 00 00 	mov    QWORD PTR [rcx+0x10],0x0
  4033ff:	00 
  403400:	89 d7                	mov    edi,edx
  403402:	48 6b ff 68          	imul   rdi,rdi,0x68
  403406:	4c 01 cf             	add    rdi,r9
  403409:	48 89 79 20          	mov    QWORD PTR [rcx+0x20],rdi
  40340d:	48 8d 79 98          	lea    rdi,[rcx-0x68]
  403411:	48 89 79 28          	mov    QWORD PTR [rcx+0x28],rdi
  403415:	48 c7 41 58 01 00 00 	mov    QWORD PTR [rcx+0x58],0x1
  40341c:	00 
  40341d:	48 c7 46 08 00 e1 f5 	mov    QWORD PTR [rsi+0x8],0x5f5e100
  403424:	05 
  403425:	66 c7 46 20 00 00    	mov    WORD PTR [rsi+0x20],0x0
  40342b:	c7 41 08 01 00 00 00 	mov    DWORD PTR [rcx+0x8],0x1
  403432:	48 c7 01 00 00 00 00 	mov    QWORD PTR [rcx],0x0
  403439:	48 89 4e 10          	mov    QWORD PTR [rsi+0x10],rcx
  40343d:	48 89 46 18          	mov    QWORD PTR [rsi+0x18],rax
  403441:	c7 06 fe ff ff ff    	mov    DWORD PTR [rsi],0xfffffffe
  403447:	48 c7 41 50 00 00 00 	mov    QWORD PTR [rcx+0x50],0x0
  40344e:	00 
  40344f:	48 83 c1 68          	add    rcx,0x68
  403453:	48 83 c6 48          	add    rsi,0x48
  403457:	49 8d 3c 12          	lea    rdi,[r10+rdx*1]
  40345b:	48 83 c7 01          	add    rdi,0x1
  40345f:	48 83 c2 01          	add    rdx,0x1
  403463:	48 83 ff 01          	cmp    rdi,0x1
  403467:	75 87                	jne    4033f0 <fwrite@plt+0x2290>
  403469:	49 6b c8 68          	imul   rcx,r8,0x68
  40346d:	48 c7 44 08 20 00 00 	mov    QWORD PTR [rax+rcx*1+0x20],0x0
  403474:	00 00 
  403476:	48 c7 80 90 00 00 00 	mov    QWORD PTR [rax+0x90],0x0
  40347d:	00 00 00 00 
  403481:	31 c0                	xor    eax,eax
  403483:	c3                   	ret    
  403484:	66 2e 0f 1f 84 00 00 	cs nop WORD PTR [rax+rax*1+0x0]
  40348b:	00 00 00 
  40348e:	66 90                	xchg   ax,ax
  403490:	55                   	push   rbp
  403491:	41 57                	push   r15
  403493:	41 56                	push   r14
  403495:	41 55                	push   r13
  403497:	41 54                	push   r12
  403499:	53                   	push   rbx
  40349a:	50                   	push   rax
  40349b:	49 89 f4             	mov    r12,rsi
  40349e:	31 c0                	xor    eax,eax
  4034a0:	48 2b 86 b8 01 00 00 	sub    rax,QWORD PTR [rsi+0x1b8]
  4034a7:	48 8d 1c c0          	lea    rbx,[rax+rax*8]
  4034ab:	48 c1 e3 03          	shl    rbx,0x3
  4034af:	48 03 9e 40 02 00 00 	add    rbx,QWORD PTR [rsi+0x240]
  4034b6:	be 4d 53 40 00       	mov    esi,0x40534d
  4034bb:	e8 60 dc ff ff       	call   401120 <fopen@plt>
  4034c0:	49 c7 c6 ff ff ff ff 	mov    r14,0xffffffffffffffff
  4034c7:	48 85 c0             	test   rax,rax
  4034ca:	0f 84 f0 00 00 00    	je     4035c0 <fwrite@plt+0x2460>
  4034d0:	49 89 c7             	mov    r15,rax
  4034d3:	be 90 16 40 00       	mov    esi,0x401690
  4034d8:	4c 89 e7             	mov    rdi,r12
  4034db:	e8 e0 df ff ff       	call   4014c0 <fwrite@plt+0x360>
  4034e0:	49 8b 84 24 28 02 00 	mov    rax,QWORD PTR [r12+0x228]
  4034e7:	00 
  4034e8:	49 6b 8c 24 90 01 00 	imul   rcx,QWORD PTR [r12+0x190],0x68
  4034ef:	00 68 
  4034f1:	4c 8b 6c 08 38       	mov    r13,QWORD PTR [rax+rcx*1+0x38]
  4034f6:	4d 85 ed             	test   r13,r13
  4034f9:	75 12                	jne    40350d <fwrite@plt+0x23ad>
  4034fb:	e9 b5 00 00 00       	jmp    4035b5 <fwrite@plt+0x2455>
  403500:	4d 8b 6d 28          	mov    r13,QWORD PTR [r13+0x28]
  403504:	4d 85 ed             	test   r13,r13
  403507:	0f 84 a8 00 00 00    	je     4035b5 <fwrite@plt+0x2455>
  40350d:	49 83 7d 38 00       	cmp    QWORD PTR [r13+0x38],0x0
  403512:	74 ec                	je     403500 <fwrite@plt+0x23a0>
  403514:	bf 4f 53 40 00       	mov    edi,0x40534f
  403519:	be 03 00 00 00       	mov    esi,0x3
  40351e:	ba 01 00 00 00       	mov    edx,0x1
  403523:	4c 89 f9             	mov    rcx,r15
  403526:	e8 d5 db ff ff       	call   401100 <fwrite_unlocked@plt>
  40352b:	4c 89 ed             	mov    rbp,r13
  40352e:	48 39 dd             	cmp    rbp,rbx
  403531:	72 17                	jb     40354a <fwrite@plt+0x23ea>
  403533:	bf 53 53 40 00       	mov    edi,0x405353
  403538:	be 04 00 00 00       	mov    esi,0x4
  40353d:	ba 01 00 00 00       	mov    edx,0x1
  403542:	4c 89 f9             	mov    rcx,r15
  403545:	e8 b6 db ff ff       	call   401100 <fwrite_unlocked@plt>
  40354a:	48 8b 45 18          	mov    rax,QWORD PTR [rbp+0x18]
  40354e:	31 d2                	xor    edx,edx
  403550:	2b 50 60             	sub    edx,DWORD PTR [rax+0x60]
  403553:	be 58 53 40 00       	mov    esi,0x405358
  403558:	31 c0                	xor    eax,eax
  40355a:	4c 89 ff             	mov    rdi,r15
  40355d:	e8 4e db ff ff       	call   4010b0 <fprintf@plt>
  403562:	48 8b 45 18          	mov    rax,QWORD PTR [rbp+0x18]
  403566:	49 6b 8c 24 98 01 00 	imul   rcx,QWORD PTR [r12+0x198],0x68
  40356d:	00 68 
  40356f:	48 8b 44 08 38       	mov    rax,QWORD PTR [rax+rcx*1+0x38]
  403574:	48 85 c0             	test   rax,rax
  403577:	75 10                	jne    403589 <fwrite@plt+0x2429>
  403579:	eb 30                	jmp    4035ab <fwrite@plt+0x244b>
  40357b:	0f 1f 44 00 00       	nop    DWORD PTR [rax+rax*1+0x0]
  403580:	48 8b 40 28          	mov    rax,QWORD PTR [rax+0x28]
  403584:	48 85 c0             	test   rax,rax
  403587:	74 22                	je     4035ab <fwrite@plt+0x244b>
  403589:	48 83 78 38 00       	cmp    QWORD PTR [rax+0x38],0x0
  40358e:	74 f0                	je     403580 <fwrite@plt+0x2420>
  403590:	48 8b 48 18          	mov    rcx,QWORD PTR [rax+0x18]
  403594:	83 79 60 00          	cmp    DWORD PTR [rcx+0x60],0x0
  403598:	bd 00 00 00 00       	mov    ebp,0x0
  40359d:	48 0f 45 e8          	cmovne rbp,rax
  4035a1:	48 85 ed             	test   rbp,rbp
  4035a4:	75 88                	jne    40352e <fwrite@plt+0x23ce>
  4035a6:	e9 55 ff ff ff       	jmp    403500 <fwrite@plt+0x23a0>
  4035ab:	4c 89 ff             	mov    rdi,r15
  4035ae:	e8 bd da ff ff       	call   401070 <fclose@plt>
  4035b3:	eb 0b                	jmp    4035c0 <fwrite@plt+0x2460>
  4035b5:	4c 89 ff             	mov    rdi,r15
  4035b8:	e8 b3 da ff ff       	call   401070 <fclose@plt>
  4035bd:	45 31 f6             	xor    r14d,r14d
  4035c0:	4c 89 f0             	mov    rax,r14
  4035c3:	48 83 c4 08          	add    rsp,0x8
  4035c7:	5b                   	pop    rbx
  4035c8:	41 5c                	pop    r12
  4035ca:	41 5d                	pop    r13
  4035cc:	41 5e                	pop    r14
  4035ce:	41 5f                	pop    r15
  4035d0:	5d                   	pop    rbp
  4035d1:	c3                   	ret    
  4035d2:	66 2e 0f 1f 84 00 00 	cs nop WORD PTR [rax+rax*1+0x0]
  4035d9:	00 00 00 
  4035dc:	0f 1f 40 00          	nop    DWORD PTR [rax+0x0]
  4035e0:	41 56                	push   r14
  4035e2:	53                   	push   rbx
  4035e3:	50                   	push   rax
  4035e4:	49 89 f6             	mov    r14,rsi
  4035e7:	be 4d 53 40 00       	mov    esi,0x40534d
  4035ec:	e8 2f db ff ff       	call   401120 <fopen@plt>
  4035f1:	48 85 c0             	test   rax,rax
  4035f4:	74 26                	je     40361c <fwrite@plt+0x24bc>
  4035f6:	48 89 c3             	mov    rbx,rax
  4035f9:	4c 89 f7             	mov    rdi,r14
  4035fc:	e8 7f df ff ff       	call   401580 <fwrite@plt+0x420>
  403601:	be 5c 53 40 00       	mov    esi,0x40535c
  403606:	b0 01                	mov    al,0x1
  403608:	48 89 df             	mov    rdi,rbx
  40360b:	e8 a0 da ff ff       	call   4010b0 <fprintf@plt>
  403610:	48 89 df             	mov    rdi,rbx
  403613:	e8 58 da ff ff       	call   401070 <fclose@plt>
  403618:	31 c0                	xor    eax,eax
  40361a:	eb 07                	jmp    403623 <fwrite@plt+0x24c3>
  40361c:	48 c7 c0 ff ff ff ff 	mov    rax,0xffffffffffffffff
  403623:	48 83 c4 08          	add    rsp,0x8
  403627:	5b                   	pop    rbx
  403628:	41 5e                	pop    r14
  40362a:	c3                   	ret    
  40362b:	0f 1f 44 00 00       	nop    DWORD PTR [rax+rax*1+0x0]
  403630:	55                   	push   rbp
  403631:	41 57                	push   r15
  403633:	41 56                	push   r14
  403635:	41 55                	push   r13
  403637:	41 54                	push   r12
  403639:	53                   	push   rbx
  40363a:	49 89 d6             	mov    r14,rdx
  40363d:	4c 8b 5c 24 58       	mov    r11,QWORD PTR [rsp+0x58]
  403642:	4c 8b 64 24 50       	mov    r12,QWORD PTR [rsp+0x50]
  403647:	49 8b 44 24 10       	mov    rax,QWORD PTR [r12+0x10]
  40364c:	4d 85 db             	test   r11,r11
  40364f:	79 05                	jns    403656 <fwrite@plt+0x24f6>
  403651:	4c 39 c8             	cmp    rax,r9
  403654:	74 0a                	je     403660 <fwrite@plt+0x2500>
  403656:	4d 85 db             	test   r11,r11
  403659:	7e 10                	jle    40366b <fwrite@plt+0x250b>
  40365b:	4c 39 c0             	cmp    rax,r8
  40365e:	75 0b                	jne    40366b <fwrite@plt+0x250b>
  403660:	4c 89 da             	mov    rdx,r11
  403663:	48 f7 da             	neg    rdx
  403666:	4c 89 d8             	mov    rax,r11
  403669:	eb 09                	jmp    403674 <fwrite@plt+0x2514>
  40366b:	4c 89 d8             	mov    rax,r11
  40366e:	48 f7 d8             	neg    rax
  403671:	4c 89 da             	mov    rdx,r11
  403674:	4c 8b 7c 24 40       	mov    r15,QWORD PTR [rsp+0x40]
  403679:	48 8b 6c 24 38       	mov    rbp,QWORD PTR [rsp+0x38]
  40367e:	4d 85 db             	test   r11,r11
  403681:	48 0f 48 c2          	cmovs  rax,rdx
  403685:	48 89 ea             	mov    rdx,rbp
  403688:	48 89 d3             	mov    rbx,rdx
  40368b:	48 01 02             	add    QWORD PTR [rdx],rax
  40368e:	48 8b 52 10          	mov    rdx,QWORD PTR [rdx+0x10]
  403692:	48 85 d2             	test   rdx,rdx
  403695:	75 f1                	jne    403688 <fwrite@plt+0x2528>
  403697:	eb 0b                	jmp    4036a4 <fwrite@plt+0x2544>
  403699:	0f 1f 80 00 00 00 00 	nop    DWORD PTR [rax+0x0]
  4036a0:	48 8b 5b 18          	mov    rbx,QWORD PTR [rbx+0x18]
  4036a4:	48 39 eb             	cmp    rbx,rbp
  4036a7:	74 0b                	je     4036b4 <fwrite@plt+0x2554>
  4036a9:	48 8b 53 20          	mov    rdx,QWORD PTR [rbx+0x20]
  4036ad:	48 85 d2             	test   rdx,rdx
  4036b0:	74 ee                	je     4036a0 <fwrite@plt+0x2540>
  4036b2:	eb d4                	jmp    403688 <fwrite@plt+0x2528>
  4036b4:	4c 8b 5d 58          	mov    r11,QWORD PTR [rbp+0x58]
  4036b8:	4d 39 f8             	cmp    r8,r15
  4036bb:	0f 84 bf 00 00 00    	je     403780 <fwrite@plt+0x2620>
  4036c1:	4c 89 f0             	mov    rax,r14
  4036c4:	48 f7 d8             	neg    rax
  4036c7:	48 89 44 24 f8       	mov    QWORD PTR [rsp-0x8],rax
  4036cc:	4d 89 dd             	mov    r13,r11
  4036cf:	4c 89 cd             	mov    rbp,r9
  4036d2:	66 2e 0f 1f 84 00 00 	cs nop WORD PTR [rax+rax*1+0x0]
  4036d9:	00 00 00 
  4036dc:	0f 1f 40 00          	nop    DWORD PTR [rax+0x0]
  4036e0:	4c 89 c3             	mov    rbx,r8
  4036e3:	4d 8b 40 18          	mov    r8,QWORD PTR [r8+0x18]
  4036e7:	48 8b 53 20          	mov    rdx,QWORD PTR [rbx+0x20]
  4036eb:	48 85 d2             	test   rdx,rdx
  4036ee:	74 08                	je     4036f8 <fwrite@plt+0x2598>
  4036f0:	4c 8b 53 28          	mov    r10,QWORD PTR [rbx+0x28]
  4036f4:	4c 89 52 28          	mov    QWORD PTR [rdx+0x28],r10
  4036f8:	4c 8b 53 20          	mov    r10,QWORD PTR [rbx+0x20]
  4036fc:	48 8b 43 28          	mov    rax,QWORD PTR [rbx+0x28]
  403700:	49 8d 50 10          	lea    rdx,[r8+0x10]
  403704:	48 85 c0             	test   rax,rax
  403707:	48 8d 40 20          	lea    rax,[rax+0x20]
  40370b:	48 0f 44 c2          	cmove  rax,rdx
  40370f:	4c 89 10             	mov    QWORD PTR [rax],r10
  403712:	48 89 6b 18          	mov    QWORD PTR [rbx+0x18],rbp
  403716:	48 8b 55 10          	mov    rdx,QWORD PTR [rbp+0x10]
  40371a:	48 89 53 20          	mov    QWORD PTR [rbx+0x20],rdx
  40371e:	48 85 d2             	test   rdx,rdx
  403721:	74 04                	je     403727 <fwrite@plt+0x25c7>
  403723:	48 89 5a 28          	mov    QWORD PTR [rdx+0x28],rbx
  403727:	48 89 5d 10          	mov    QWORD PTR [rbp+0x10],rbx
  40372b:	48 c7 43 28 00 00 00 	mov    QWORD PTR [rbx+0x28],0x0
  403732:	00 
  403733:	31 ed                	xor    ebp,ebp
  403735:	83 7b 08 00          	cmp    DWORD PTR [rbx+0x8],0x0
  403739:	40 0f 94 c5          	sete   bpl
  40373d:	4c 89 f2             	mov    rdx,r14
  403740:	48 39 fd             	cmp    rbp,rdi
  403743:	74 05                	je     40374a <fwrite@plt+0x25ea>
  403745:	48 8b 54 24 f8       	mov    rdx,QWORD PTR [rsp-0x8]
  40374a:	48 03 53 50          	add    rdx,QWORD PTR [rbx+0x50]
  40374e:	48 8b 43 30          	mov    rax,QWORD PTR [rbx+0x30]
  403752:	89 73 08             	mov    DWORD PTR [rbx+0x8],esi
  403755:	48 89 4b 50          	mov    QWORD PTR [rbx+0x50],rcx
  403759:	4c 89 63 30          	mov    QWORD PTR [rbx+0x30],r12
  40375d:	4c 89 d9             	mov    rcx,r11
  403760:	48 2b 4b 58          	sub    rcx,QWORD PTR [rbx+0x58]
  403764:	4c 89 6b 58          	mov    QWORD PTR [rbx+0x58],r13
  403768:	49 89 cd             	mov    r13,rcx
  40376b:	48 89 ee             	mov    rsi,rbp
  40376e:	48 89 d1             	mov    rcx,rdx
  403771:	48 89 dd             	mov    rbp,rbx
  403774:	49 89 c4             	mov    r12,rax
  403777:	4d 39 f8             	cmp    r8,r15
  40377a:	0f 85 60 ff ff ff    	jne    4036e0 <fwrite@plt+0x2580>
  403780:	4c 3b 74 24 60       	cmp    r14,QWORD PTR [rsp+0x60]
  403785:	7e 6a                	jle    4037f1 <fwrite@plt+0x2691>
  403787:	48 8b 54 24 48       	mov    rdx,QWORD PTR [rsp+0x48]
  40378c:	49 39 d7             	cmp    r15,rdx
  40378f:	74 2e                	je     4037bf <fwrite@plt+0x265f>
  403791:	4c 89 f1             	mov    rcx,r14
  403794:	48 f7 d9             	neg    rcx
  403797:	66 0f 1f 84 00 00 00 	nop    WORD PTR [rax+rax*1+0x0]
  40379e:	00 00 
  4037a0:	4d 29 5f 58          	sub    QWORD PTR [r15+0x58],r11
  4037a4:	49 63 47 08          	movsxd rax,DWORD PTR [r15+0x8]
  4037a8:	48 39 f8             	cmp    rax,rdi
  4037ab:	4c 89 f0             	mov    rax,r14
  4037ae:	48 0f 44 c1          	cmove  rax,rcx
  4037b2:	49 01 47 50          	add    QWORD PTR [r15+0x50],rax
  4037b6:	4d 8b 7f 18          	mov    r15,QWORD PTR [r15+0x18]
  4037ba:	49 39 d7             	cmp    r15,rdx
  4037bd:	75 e1                	jne    4037a0 <fwrite@plt+0x2640>
  4037bf:	49 39 d1             	cmp    r9,rdx
  4037c2:	74 59                	je     40381d <fwrite@plt+0x26bd>
  4037c4:	4c 89 f0             	mov    rax,r14
  4037c7:	48 f7 d8             	neg    rax
  4037ca:	66 0f 1f 44 00 00    	nop    WORD PTR [rax+rax*1+0x0]
  4037d0:	4d 01 59 58          	add    QWORD PTR [r9+0x58],r11
  4037d4:	49 63 49 08          	movsxd rcx,DWORD PTR [r9+0x8]
  4037d8:	48 39 f9             	cmp    rcx,rdi
  4037db:	48 89 c1             	mov    rcx,rax
  4037de:	49 0f 44 ce          	cmove  rcx,r14
  4037e2:	49 01 49 50          	add    QWORD PTR [r9+0x50],rcx
  4037e6:	4d 8b 49 18          	mov    r9,QWORD PTR [r9+0x18]
  4037ea:	49 39 d1             	cmp    r9,rdx
  4037ed:	75 e1                	jne    4037d0 <fwrite@plt+0x2670>
  4037ef:	eb 2c                	jmp    40381d <fwrite@plt+0x26bd>
  4037f1:	48 8b 44 24 48       	mov    rax,QWORD PTR [rsp+0x48]
  4037f6:	49 39 c7             	cmp    r15,rax
  4037f9:	74 1d                	je     403818 <fwrite@plt+0x26b8>
  4037fb:	0f 1f 44 00 00       	nop    DWORD PTR [rax+rax*1+0x0]
  403800:	4d 29 5f 58          	sub    QWORD PTR [r15+0x58],r11
  403804:	4d 8b 7f 18          	mov    r15,QWORD PTR [r15+0x18]
  403808:	49 39 c7             	cmp    r15,rax
  40380b:	75 f3                	jne    403800 <fwrite@plt+0x26a0>
  40380d:	eb 09                	jmp    403818 <fwrite@plt+0x26b8>
  40380f:	90                   	nop
  403810:	4d 01 59 58          	add    QWORD PTR [r9+0x58],r11
  403814:	4d 8b 49 18          	mov    r9,QWORD PTR [r9+0x18]
  403818:	49 39 c1             	cmp    r9,rax
  40381b:	75 f3                	jne    403810 <fwrite@plt+0x26b0>
  40381d:	5b                   	pop    rbx
  40381e:	41 5c                	pop    r12
  403820:	41 5d                	pop    r13
  403822:	41 5e                	pop    r14
  403824:	41 5f                	pop    r15
  403826:	5d                   	pop    rbp
  403827:	c3                   	ret    
  403828:	0f 1f 84 00 00 00 00 	nop    DWORD PTR [rax+rax*1+0x0]
  40382f:	00 
  403830:	31 c0                	xor    eax,eax
  403832:	48 39 ca             	cmp    rdx,rcx
  403835:	75 16                	jne    40384d <fwrite@plt+0x26ed>
  403837:	e9 aa 00 00 00       	jmp    4038e6 <fwrite@plt+0x2786>
  40383c:	0f 1f 40 00          	nop    DWORD PTR [rax+0x0]
  403840:	48 8b 49 18          	mov    rcx,QWORD PTR [rcx+0x18]
  403844:	48 39 ca             	cmp    rdx,rcx
  403847:	0f 84 99 00 00 00    	je     4038e6 <fwrite@plt+0x2786>
  40384d:	4c 8b 4a 58          	mov    r9,QWORD PTR [rdx+0x58]
  403851:	4c 3b 49 58          	cmp    r9,QWORD PTR [rcx+0x58]
  403855:	7d 19                	jge    403870 <fwrite@plt+0x2710>
  403857:	83 7a 08 00          	cmp    DWORD PTR [rdx+0x8],0x0
  40385b:	74 38                	je     403895 <fwrite@plt+0x2735>
  40385d:	4c 8b 4a 50          	mov    r9,QWORD PTR [rdx+0x50]
  403861:	4c 39 0f             	cmp    QWORD PTR [rdi],r9
  403864:	7f 49                	jg     4038af <fwrite@plt+0x274f>
  403866:	eb 54                	jmp    4038bc <fwrite@plt+0x275c>
  403868:	0f 1f 84 00 00 00 00 	nop    DWORD PTR [rax+rax*1+0x0]
  40386f:	00 
  403870:	83 79 08 00          	cmp    DWORD PTR [rcx+0x8],0x0
  403874:	74 51                	je     4038c7 <fwrite@plt+0x2767>
  403876:	4c 8b 49 18          	mov    r9,QWORD PTR [rcx+0x18]
  40387a:	49 83 79 18 00       	cmp    QWORD PTR [r9+0x18],0x0
  40387f:	74 bf                	je     403840 <fwrite@plt+0x26e0>
  403881:	4c 8b 51 50          	mov    r10,QWORD PTR [rcx+0x50]
  403885:	41 b9 01 00 00 00    	mov    r9d,0x1
  40388b:	4d 29 d1             	sub    r9,r10
  40388e:	4c 39 0f             	cmp    QWORD PTR [rdi],r9
  403891:	7c ad                	jl     403840 <fwrite@plt+0x26e0>
  403893:	eb 3f                	jmp    4038d4 <fwrite@plt+0x2774>
  403895:	4c 8b 4a 18          	mov    r9,QWORD PTR [rdx+0x18]
  403899:	49 83 79 18 00       	cmp    QWORD PTR [r9+0x18],0x0
  40389e:	74 1c                	je     4038bc <fwrite@plt+0x275c>
  4038a0:	41 b9 01 00 00 00    	mov    r9d,0x1
  4038a6:	4c 2b 4a 50          	sub    r9,QWORD PTR [rdx+0x50]
  4038aa:	4c 39 0f             	cmp    QWORD PTR [rdi],r9
  4038ad:	7e 0d                	jle    4038bc <fwrite@plt+0x275c>
  4038af:	4c 89 0f             	mov    QWORD PTR [rdi],r9
  4038b2:	48 c7 06 00 00 00 00 	mov    QWORD PTR [rsi],0x0
  4038b9:	48 89 d0             	mov    rax,rdx
  4038bc:	48 8b 52 18          	mov    rdx,QWORD PTR [rdx+0x18]
  4038c0:	48 39 ca             	cmp    rdx,rcx
  4038c3:	75 88                	jne    40384d <fwrite@plt+0x26ed>
  4038c5:	eb 1f                	jmp    4038e6 <fwrite@plt+0x2786>
  4038c7:	4c 8b 49 50          	mov    r9,QWORD PTR [rcx+0x50]
  4038cb:	4c 39 0f             	cmp    QWORD PTR [rdi],r9
  4038ce:	0f 8c 6c ff ff ff    	jl     403840 <fwrite@plt+0x26e0>
  4038d4:	4c 89 0f             	mov    QWORD PTR [rdi],r9
  4038d7:	48 c7 06 01 00 00 00 	mov    QWORD PTR [rsi],0x1
  4038de:	48 89 c8             	mov    rax,rcx
  4038e1:	e9 5a ff ff ff       	jmp    403840 <fwrite@plt+0x26e0>
  4038e6:	49 89 10             	mov    QWORD PTR [r8],rdx
  4038e9:	c3                   	ret    
  4038ea:	66 0f 1f 44 00 00    	nop    WORD PTR [rax+rax*1+0x0]
  4038f0:	48 39 d7             	cmp    rdi,rdx
  4038f3:	74 3c                	je     403931 <fwrite@plt+0x27d1>
  4038f5:	66 2e 0f 1f 84 00 00 	cs nop WORD PTR [rax+rax*1+0x0]
  4038fc:	00 00 00 
  4038ff:	90                   	nop
  403900:	31 c0                	xor    eax,eax
  403902:	83 7f 08 00          	cmp    DWORD PTR [rdi+0x8],0x0
  403906:	0f 94 c0             	sete   al
  403909:	48 89 47 50          	mov    QWORD PTR [rdi+0x50],rax
  40390d:	48 8b 7f 18          	mov    rdi,QWORD PTR [rdi+0x18]
  403911:	48 39 d7             	cmp    rdi,rdx
  403914:	75 ea                	jne    403900 <fwrite@plt+0x27a0>
  403916:	eb 19                	jmp    403931 <fwrite@plt+0x27d1>
  403918:	0f 1f 84 00 00 00 00 	nop    DWORD PTR [rax+rax*1+0x0]
  40391f:	00 
  403920:	31 c0                	xor    eax,eax
  403922:	83 7e 08 00          	cmp    DWORD PTR [rsi+0x8],0x0
  403926:	0f 95 c0             	setne  al
  403929:	48 89 46 50          	mov    QWORD PTR [rsi+0x50],rax
  40392d:	48 8b 76 18          	mov    rsi,QWORD PTR [rsi+0x18]
  403931:	48 39 d6             	cmp    rsi,rdx
  403934:	75 ea                	jne    403920 <fwrite@plt+0x27c0>
  403936:	c3                   	ret    
  403937:	66 0f 1f 84 00 00 00 	nop    WORD PTR [rax+rax*1+0x0]
  40393e:	00 00 
  403940:	55                   	push   rbp
  403941:	41 57                	push   r15
  403943:	41 56                	push   r14
  403945:	41 55                	push   r13
  403947:	41 54                	push   r12
  403949:	53                   	push   rbx
  40394a:	48 83 ec 18          	sub    rsp,0x18
  40394e:	48 89 fb             	mov    rbx,rdi
  403951:	41 bc 01 00 00 00    	mov    r12d,0x1
  403957:	31 c9                	xor    ecx,ecx
  403959:	4c 8d 74 24 10       	lea    r14,[rsp+0x10]
  40395e:	4c 8d 7c 24 08       	lea    r15,[rsp+0x8]
  403963:	45 31 ed             	xor    r13d,r13d
  403966:	66 2e 0f 1f 84 00 00 	cs nop WORD PTR [rax+rax*1+0x0]
  40396d:	00 00 00 
  403970:	48 8b 05 99 37 00 00 	mov    rax,QWORD PTR [rip+0x3799]        # 407110 <stderr@@GLIBC_2.2.5+0x10>
  403977:	48 8b 00             	mov    rax,QWORD PTR [rax]
  40397a:	48 8b 00             	mov    rax,QWORD PTR [rax]
  40397d:	48 83 78 18 00       	cmp    QWORD PTR [rax+0x18],0x0
  403982:	48 0f 48 c1          	cmovs  rax,rcx
  403986:	4c 0f 49 e9          	cmovns r13,rcx
  40398a:	48 89 44 24 08       	mov    QWORD PTR [rsp+0x8],rax
  40398f:	48 83 fb 02          	cmp    rbx,0x2
  403993:	7c 59                	jl     4039ee <fwrite@plt+0x288e>
  403995:	bd 01 00 00 00       	mov    ebp,0x1
  40399a:	66 0f 1f 44 00 00    	nop    WORD PTR [rax+rax*1+0x0]
  4039a0:	48 8b 05 69 37 00 00 	mov    rax,QWORD PTR [rip+0x3769]        # 407110 <stderr@@GLIBC_2.2.5+0x10>
  4039a7:	48 8b 04 e8          	mov    rax,QWORD PTR [rax+rbp*8]
  4039ab:	48 8b 00             	mov    rax,QWORD PTR [rax]
  4039ae:	48 89 44 24 10       	mov    QWORD PTR [rsp+0x10],rax
  4039b3:	48 83 78 18 00       	cmp    QWORD PTR [rax+0x18],0x0
  4039b8:	78 24                	js     4039de <fwrite@plt+0x287e>
  4039ba:	48 83 7c 24 08 00    	cmp    QWORD PTR [rsp+0x8],0x0
  4039c0:	74 0f                	je     4039d1 <fwrite@plt+0x2871>
  4039c2:	4c 89 f7             	mov    rdi,r14
  4039c5:	4c 89 fe             	mov    rsi,r15
  4039c8:	e8 b3 05 00 00       	call   403f80 <fwrite@plt+0x2e20>
  4039cd:	85 c0                	test   eax,eax
  4039cf:	79 0d                	jns    4039de <fwrite@plt+0x287e>
  4039d1:	48 8b 44 24 10       	mov    rax,QWORD PTR [rsp+0x10]
  4039d6:	48 89 44 24 08       	mov    QWORD PTR [rsp+0x8],rax
  4039db:	49 89 ed             	mov    r13,rbp
  4039de:	48 83 c5 01          	add    rbp,0x1
  4039e2:	48 39 eb             	cmp    rbx,rbp
  4039e5:	75 b9                	jne    4039a0 <fwrite@plt+0x2840>
  4039e7:	48 8b 44 24 08       	mov    rax,QWORD PTR [rsp+0x8]
  4039ec:	31 c9                	xor    ecx,ecx
  4039ee:	48 85 c0             	test   rax,rax
  4039f1:	74 1e                	je     403a11 <fwrite@plt+0x28b1>
  4039f3:	4c 89 60 18          	mov    QWORD PTR [rax+0x18],r12
  4039f7:	48 8b 05 12 37 00 00 	mov    rax,QWORD PTR [rip+0x3712]        # 407110 <stderr@@GLIBC_2.2.5+0x10>
  4039fe:	4a 83 04 e8 08       	add    QWORD PTR [rax+r13*8],0x8
  403a03:	49 83 c4 01          	add    r12,0x1
  403a07:	49 83 fc 3d          	cmp    r12,0x3d
  403a0b:	0f 82 5f ff ff ff    	jb     403970 <fwrite@plt+0x2810>
  403a11:	48 83 c4 18          	add    rsp,0x18
  403a15:	5b                   	pop    rbx
  403a16:	41 5c                	pop    r12
  403a18:	41 5d                	pop    r13
  403a1a:	41 5e                	pop    r14
  403a1c:	41 5f                	pop    r15
  403a1e:	5d                   	pop    rbp
  403a1f:	c3                   	ret    
  403a20:	55                   	push   rbp
  403a21:	41 57                	push   r15
  403a23:	41 56                	push   r14
  403a25:	41 55                	push   r13
  403a27:	41 54                	push   r12
  403a29:	53                   	push   rbx
  403a2a:	48 81 ec f8 7e 00 00 	sub    rsp,0x7ef8
  403a31:	89 d1                	mov    ecx,edx
  403a33:	49 89 fd             	mov    r13,rdi
  403a36:	4c 8b b7 a8 01 00 00 	mov    r14,QWORD PTR [rdi+0x1a8]
  403a3d:	4c 8b bf 38 02 00 00 	mov    r15,QWORD PTR [rdi+0x238]
  403a44:	4c 8b a7 40 02 00 00 	mov    r12,QWORD PTR [rdi+0x240]
  403a4b:	48 8b 87 38 02 00 00 	mov    rax,QWORD PTR [rdi+0x238]
  403a52:	48 89 44 24 08       	mov    QWORD PTR [rsp+0x8],rax
  403a57:	48 8b 05 ba 36 00 00 	mov    rax,QWORD PTR [rip+0x36ba]        # 407118 <stderr@@GLIBC_2.2.5+0x18>
  403a5e:	48 63 de             	movsxd rbx,esi
  403a61:	48 c7 04 d8 00 00 00 	mov    QWORD PTR [rax+rbx*8],0x0
  403a68:	00 
  403a69:	b8 a0 0f 00 00       	mov    eax,0xfa0
  403a6e:	31 d2                	xor    edx,edx
  403a70:	f7 f9                	idiv   ecx
  403a72:	83 f8 c5             	cmp    eax,0xffffffc5
  403a75:	7c 3b                	jl     403ab2 <fwrite@plt+0x2952>
  403a77:	8d 50 3d             	lea    edx,[rax+0x3d]
  403a7a:	48 63 d2             	movsxd rdx,edx
  403a7d:	05 05 01 00 00       	add    eax,0x105
  403a82:	0f af c6             	imul   eax,esi
  403a85:	48 98                	cdqe   
  403a87:	48 c1 e0 05          	shl    rax,0x5
  403a8b:	48 8b 35 8e 36 00 00 	mov    rsi,QWORD PTR [rip+0x368e]        # 407120 <stderr@@GLIBC_2.2.5+0x20>
  403a92:	48 01 f0             	add    rax,rsi
  403a95:	48 83 c0 20          	add    rax,0x20
  403a99:	be 01 00 00 00       	mov    esi,0x1
  403a9e:	66 90                	xchg   ax,ax
  403aa0:	48 89 44 f4 10       	mov    QWORD PTR [rsp+rsi*8+0x10],rax
  403aa5:	48 83 c6 01          	add    rsi,0x1
  403aa9:	48 83 c0 20          	add    rax,0x20
  403aad:	48 39 d6             	cmp    rsi,rdx
  403ab0:	7c ee                	jl     403aa0 <fwrite@plt+0x2940>
  403ab2:	80 3d 6f 36 00 00 00 	cmp    BYTE PTR [rip+0x366f],0x0        # 407128 <stderr@@GLIBC_2.2.5+0x28>
  403ab9:	75 78                	jne    403b33 <fwrite@plt+0x29d3>
  403abb:	48 63 e9             	movsxd rbp,ecx
  403abe:	66 90                	xchg   ax,ax
  403ac0:	48 8b 0d 51 36 00 00 	mov    rcx,QWORD PTR [rip+0x3651]        # 407118 <stderr@@GLIBC_2.2.5+0x18>
  403ac7:	49 8b 85 60 02 00 00 	mov    rax,QWORD PTR [r13+0x260]
  403ace:	48 01 d8             	add    rax,rbx
  403ad1:	48 99                	cqo    
  403ad3:	48 f7 fd             	idiv   rbp
  403ad6:	48 89 d0             	mov    rax,rdx
  403ad9:	4c 89 f7             	mov    rdi,r14
  403adc:	4c 89 fe             	mov    rsi,r15
  403adf:	4c 89 e2             	mov    rdx,r12
  403ae2:	4c 8d 44 24 10       	lea    r8,[rsp+0x10]
  403ae7:	41 89 d9             	mov    r9d,ebx
  403aea:	41 ff b5 80 02 00 00 	push   QWORD PTR [r13+0x280]
  403af1:	55                   	push   rbp
  403af2:	50                   	push   rax
  403af3:	48 8d 44 24 20       	lea    rax,[rsp+0x20]
  403af8:	50                   	push   rax
  403af9:	e8 c2 04 00 00       	call   403fc0 <fwrite@plt+0x2e60>
  403afe:	48 83 c4 20          	add    rsp,0x20
  403b02:	48 8b 0d 27 36 00 00 	mov    rcx,QWORD PTR [rip+0x3627]        # 407130 <stderr@@GLIBC_2.2.5+0x30>
  403b09:	48 89 04 d9          	mov    QWORD PTR [rcx+rbx*8],rax
  403b0d:	48 8b 05 fc 35 00 00 	mov    rax,QWORD PTR [rip+0x35fc]        # 407110 <stderr@@GLIBC_2.2.5+0x10>
  403b14:	48 8d 4c 24 18       	lea    rcx,[rsp+0x18]
  403b19:	48 89 0c d8          	mov    QWORD PTR [rax+rbx*8],rcx
  403b1d:	83 fb 01             	cmp    ebx,0x1
  403b20:	75 08                	jne    403b2a <fwrite@plt+0x29ca>
  403b22:	48 89 ef             	mov    rdi,rbp
  403b25:	e8 16 fe ff ff       	call   403940 <fwrite@plt+0x27e0>
  403b2a:	80 3d f7 35 00 00 01 	cmp    BYTE PTR [rip+0x35f7],0x1        # 407128 <stderr@@GLIBC_2.2.5+0x28>
  403b31:	75 8d                	jne    403ac0 <fwrite@plt+0x2960>
  403b33:	48 81 c4 f8 7e 00 00 	add    rsp,0x7ef8
  403b3a:	5b                   	pop    rbx
  403b3b:	41 5c                	pop    r12
  403b3d:	41 5d                	pop    r13
  403b3f:	41 5e                	pop    r14
  403b41:	41 5f                	pop    r15
  403b43:	5d                   	pop    rbp
  403b44:	c3                   	ret    
  403b45:	66 2e 0f 1f 84 00 00 	cs nop WORD PTR [rax+rax*1+0x0]
  403b4c:	00 00 00 
  403b4f:	90                   	nop
  403b50:	55                   	push   rbp
  403b51:	41 57                	push   r15
  403b53:	41 56                	push   r14
  403b55:	41 55                	push   r13
  403b57:	41 54                	push   r12
  403b59:	53                   	push   rbx
  403b5a:	48 81 ec 48 7f 00 00 	sub    rsp,0x7f48
  403b61:	41 89 f7             	mov    r15d,esi
  403b64:	49 89 fc             	mov    r12,rdi
  403b67:	48 8b 87 a8 01 00 00 	mov    rax,QWORD PTR [rdi+0x1a8]
  403b6e:	48 89 44 24 48       	mov    QWORD PTR [rsp+0x48],rax
  403b73:	48 8b 87 38 02 00 00 	mov    rax,QWORD PTR [rdi+0x238]
  403b7a:	48 89 44 24 40       	mov    QWORD PTR [rsp+0x40],rax
  403b7f:	48 8b 87 40 02 00 00 	mov    rax,QWORD PTR [rdi+0x240]
  403b86:	48 89 44 24 38       	mov    QWORD PTR [rsp+0x38],rax
  403b8b:	48 8b 87 38 02 00 00 	mov    rax,QWORD PTR [rdi+0x238]
  403b92:	48 89 44 24 50       	mov    QWORD PTR [rsp+0x50],rax
  403b97:	48 8b 05 7a 35 00 00 	mov    rax,QWORD PTR [rip+0x357a]        # 407118 <stderr@@GLIBC_2.2.5+0x18>
  403b9e:	48 c7 00 00 00 00 00 	mov    QWORD PTR [rax],0x0
  403ba5:	b8 a0 0f 00 00       	mov    eax,0xfa0
  403baa:	31 d2                	xor    edx,edx
  403bac:	f7 fe                	idiv   esi
  403bae:	83 f8 c5             	cmp    eax,0xffffffc5
  403bb1:	7c 2f                	jl     403be2 <fwrite@plt+0x2a82>
  403bb3:	83 c0 3d             	add    eax,0x3d
  403bb6:	48 98                	cdqe   
  403bb8:	48 8b 0d 61 35 00 00 	mov    rcx,QWORD PTR [rip+0x3561]        # 407120 <stderr@@GLIBC_2.2.5+0x20>
  403bbf:	48 83 c1 20          	add    rcx,0x20
  403bc3:	ba 01 00 00 00       	mov    edx,0x1
  403bc8:	0f 1f 84 00 00 00 00 	nop    DWORD PTR [rax+rax*1+0x0]
  403bcf:	00 
  403bd0:	48 89 4c d4 60       	mov    QWORD PTR [rsp+rdx*8+0x60],rcx
  403bd5:	48 83 c2 01          	add    rdx,0x1
  403bd9:	48 83 c1 20          	add    rcx,0x20
  403bdd:	48 39 c2             	cmp    rdx,rax
  403be0:	7c ee                	jl     403bd0 <fwrite@plt+0x2a70>
  403be2:	80 3d 3f 35 00 00 00 	cmp    BYTE PTR [rip+0x353f],0x0        # 407128 <stderr@@GLIBC_2.2.5+0x28>
  403be9:	0f 85 5a 02 00 00    	jne    403e49 <fwrite@plt+0x2ce9>
  403bef:	49 63 c7             	movsxd rax,r15d
  403bf2:	48 89 44 24 08       	mov    QWORD PTR [rsp+0x8],rax
  403bf7:	4c 8d 74 24 10       	lea    r14,[rsp+0x10]
  403bfc:	4c 89 64 24 30       	mov    QWORD PTR [rsp+0x30],r12
  403c01:	44 89 7c 24 24       	mov    DWORD PTR [rsp+0x24],r15d
  403c06:	66 2e 0f 1f 84 00 00 	cs nop WORD PTR [rax+rax*1+0x0]
  403c0d:	00 00 00 
  403c10:	48 8b 0d 01 35 00 00 	mov    rcx,QWORD PTR [rip+0x3501]        # 407118 <stderr@@GLIBC_2.2.5+0x18>
  403c17:	49 8b 84 24 60 02 00 	mov    rax,QWORD PTR [r12+0x260]
  403c1e:	00 
  403c1f:	49 8b ac 24 80 02 00 	mov    rbp,QWORD PTR [r12+0x280]
  403c26:	00 
  403c27:	48 99                	cqo    
  403c29:	48 8b 5c 24 08       	mov    rbx,QWORD PTR [rsp+0x8]
  403c2e:	48 f7 fb             	idiv   rbx
  403c31:	48 89 d0             	mov    rax,rdx
  403c34:	41 b9 00 00 00 00    	mov    r9d,0x0
  403c3a:	48 8b 7c 24 48       	mov    rdi,QWORD PTR [rsp+0x48]
  403c3f:	48 8b 74 24 40       	mov    rsi,QWORD PTR [rsp+0x40]
  403c44:	48 8b 54 24 38       	mov    rdx,QWORD PTR [rsp+0x38]
  403c49:	4c 8d 44 24 60       	lea    r8,[rsp+0x60]
  403c4e:	55                   	push   rbp
  403c4f:	53                   	push   rbx
  403c50:	50                   	push   rax
  403c51:	48 8d 44 24 68       	lea    rax,[rsp+0x68]
  403c56:	50                   	push   rax
  403c57:	e8 64 03 00 00       	call   403fc0 <fwrite@plt+0x2e60>
  403c5c:	48 83 c4 20          	add    rsp,0x20
  403c60:	48 8b 0d c9 34 00 00 	mov    rcx,QWORD PTR [rip+0x34c9]        # 407130 <stderr@@GLIBC_2.2.5+0x30>
  403c67:	48 89 01             	mov    QWORD PTR [rcx],rax
  403c6a:	48 8b 05 9f 34 00 00 	mov    rax,QWORD PTR [rip+0x349f]        # 407110 <stderr@@GLIBC_2.2.5+0x10>
  403c71:	48 8d 4c 24 68       	lea    rcx,[rsp+0x68]
  403c76:	48 89 08             	mov    QWORD PTR [rax],rcx
  403c79:	48 c7 44 24 10 00 00 	mov    QWORD PTR [rsp+0x10],0x0
  403c80:	00 00 
  403c82:	45 85 ff             	test   r15d,r15d
  403c85:	0f 8e b7 01 00 00    	jle    403e42 <fwrite@plt+0x2ce2>
  403c8b:	31 ed                	xor    ebp,ebp
  403c8d:	48 8b 5c 24 08       	mov    rbx,QWORD PTR [rsp+0x8]
  403c92:	31 c9                	xor    ecx,ecx
  403c94:	66 2e 0f 1f 84 00 00 	cs nop WORD PTR [rax+rax*1+0x0]
  403c9b:	00 00 00 
  403c9e:	66 90                	xchg   ax,ax
  403ca0:	f6 c1 01             	test   cl,0x1
  403ca3:	75 0e                	jne    403cb3 <fwrite@plt+0x2b53>
  403ca5:	48 8b 05 84 34 00 00 	mov    rax,QWORD PTR [rip+0x3484]        # 407130 <stderr@@GLIBC_2.2.5+0x30>
  403cac:	48 83 3c 28 00       	cmp    QWORD PTR [rax+rbp*1],0x0
  403cb1:	75 1d                	jne    403cd0 <fwrite@plt+0x2b70>
  403cb3:	48 8b 3d 76 34 00 00 	mov    rdi,QWORD PTR [rip+0x3476]        # 407130 <stderr@@GLIBC_2.2.5+0x30>
  403cba:	48 83 3c 2f 00       	cmp    QWORD PTR [rdi+rbp*1],0x0
  403cbf:	74 1f                	je     403ce0 <fwrite@plt+0x2b80>
  403cc1:	48 01 ef             	add    rdi,rbp
  403cc4:	4c 89 f6             	mov    rsi,r14
  403cc7:	e8 b4 02 00 00       	call   403f80 <fwrite@plt+0x2e20>
  403ccc:	85 c0                	test   eax,eax
  403cce:	79 10                	jns    403ce0 <fwrite@plt+0x2b80>
  403cd0:	48 8b 05 59 34 00 00 	mov    rax,QWORD PTR [rip+0x3459]        # 407130 <stderr@@GLIBC_2.2.5+0x30>
  403cd7:	48 8b 04 28          	mov    rax,QWORD PTR [rax+rbp*1]
  403cdb:	48 89 44 24 10       	mov    QWORD PTR [rsp+0x10],rax
  403ce0:	48 8b 44 24 10       	mov    rax,QWORD PTR [rsp+0x10]
  403ce5:	48 85 c0             	test   rax,rax
  403ce8:	0f 95 c1             	setne  cl
  403ceb:	48 83 c5 08          	add    rbp,0x8
  403cef:	48 83 c3 ff          	add    rbx,0xffffffffffffffff
  403cf3:	75 ab                	jne    403ca0 <fwrite@plt+0x2b40>
  403cf5:	48 85 c0             	test   rax,rax
  403cf8:	0f 84 44 01 00 00    	je     403e42 <fwrite@plt+0x2ce2>
  403cfe:	4c 8b 28             	mov    r13,QWORD PTR [rax]
  403d01:	48 8b 68 08          	mov    rbp,QWORD PTR [rax+0x8]
  403d05:	41 83 ff 01          	cmp    r15d,0x1
  403d09:	75 0a                	jne    403d15 <fwrite@plt+0x2bb5>
  403d0b:	48 8b 7c 24 08       	mov    rdi,QWORD PTR [rsp+0x8]
  403d10:	e8 2b fc ff ff       	call   403940 <fwrite@plt+0x27e0>
  403d15:	48 85 ed             	test   rbp,rbp
  403d18:	0f 84 24 01 00 00    	je     403e42 <fwrite@plt+0x2ce2>
  403d1e:	49 83 84 24 60 02 00 	add    QWORD PTR [r12+0x260],0x1
  403d25:	00 01 
  403d27:	31 c0                	xor    eax,eax
  403d29:	31 c9                	xor    ecx,ecx
  403d2b:	48 85 ed             	test   rbp,rbp
  403d2e:	0f 9f c0             	setg   al
  403d31:	0f 9e c1             	setle  cl
  403d34:	4c 89 e3             	mov    rbx,r12
  403d37:	4d 8b 64 c5 10       	mov    r12,QWORD PTR [r13+rax*8+0x10]
  403d3c:	4d 8b 7c cd 10       	mov    r15,QWORD PTR [r13+rcx*8+0x10]
  403d41:	48 c7 44 24 18 01 00 	mov    QWORD PTR [rsp+0x18],0x1
  403d48:	00 00 
  403d4a:	48 8d 7c 24 18       	lea    rdi,[rsp+0x18]
  403d4f:	48 8d 74 24 58       	lea    rsi,[rsp+0x58]
  403d54:	4c 89 e2             	mov    rdx,r12
  403d57:	4c 89 f9             	mov    rcx,r15
  403d5a:	4c 8d 44 24 28       	lea    r8,[rsp+0x28]
  403d5f:	e8 cc fa ff ff       	call   403830 <fwrite@plt+0x26d0>
  403d64:	48 85 c0             	test   rax,rax
  403d67:	0f 84 83 00 00 00    	je     403df0 <fwrite@plt+0x2c90>
  403d6d:	48 8b 4c 24 58       	mov    rcx,QWORD PTR [rsp+0x58]
  403d72:	31 ff                	xor    edi,edi
  403d74:	48 85 c9             	test   rcx,rcx
  403d77:	40 0f 94 c7          	sete   dil
  403d7b:	4d 89 e1             	mov    r9,r12
  403d7e:	4d 0f 44 cf          	cmove  r9,r15
  403d82:	4d 0f 44 fc          	cmove  r15,r12
  403d86:	48 63 50 08          	movsxd rdx,DWORD PTR [rax+0x8]
  403d8a:	49 89 da             	mov    r10,rbx
  403d8d:	31 db                	xor    ebx,ebx
  403d8f:	48 39 d1             	cmp    rcx,rdx
  403d92:	0f 94 c3             	sete   bl
  403d95:	83 c3 01             	add    ebx,0x1
  403d98:	48 8b 54 24 18       	mov    rdx,QWORD PTR [rsp+0x18]
  403d9d:	b9 01 00 00 00       	mov    ecx,0x1
  403da2:	48 29 d1             	sub    rcx,rdx
  403da5:	48 85 ed             	test   rbp,rbp
  403da8:	4c 8b 60 30          	mov    r12,QWORD PTR [rax+0x30]
  403dac:	48 0f 4e ca          	cmovle rcx,rdx
  403db0:	31 f6                	xor    esi,esi
  403db2:	4d 39 7d 10          	cmp    QWORD PTR [r13+0x10],r15
  403db6:	40 0f 94 c6          	sete   sil
  403dba:	4d 89 f8             	mov    r8,r15
  403dbd:	41 ff b2 00 02 00 00 	push   QWORD PTR [r10+0x200]
  403dc4:	55                   	push   rbp
  403dc5:	41 55                	push   r13
  403dc7:	ff 74 24 40          	push   QWORD PTR [rsp+0x40]
  403dcb:	ff 70 18             	push   QWORD PTR [rax+0x18]
  403dce:	50                   	push   rax
  403dcf:	e8 5c f8 ff ff       	call   403630 <fwrite@plt+0x24d0>
  403dd4:	48 83 c4 30          	add    rsp,0x30
  403dd8:	66 41 c7 45 20 00 00 	mov    WORD PTR [r13+0x20],0x0
  403ddf:	66 41 89 5c 24 20    	mov    WORD PTR [r12+0x20],bx
  403de5:	eb 42                	jmp    403e29 <fwrite@plt+0x2cc9>
  403de7:	66 0f 1f 84 00 00 00 	nop    WORD PTR [rax+rax*1+0x0]
  403dee:	00 00 
  403df0:	48 83 83 68 02 00 00 	add    QWORD PTR [rbx+0x268],0x1
  403df7:	01 
  403df8:	41 0f b7 45 20       	movzx  eax,WORD PTR [r13+0x20]
  403dfd:	31 c9                	xor    ecx,ecx
  403dff:	83 f8 02             	cmp    eax,0x2
  403e02:	0f 94 c1             	sete   cl
  403e05:	b8 02 00 00 00       	mov    eax,0x2
  403e0a:	29 c8                	sub    eax,ecx
  403e0c:	66 41 89 45 20       	mov    WORD PTR [r13+0x20],ax
  403e11:	48 83 7c 24 18 00    	cmp    QWORD PTR [rsp+0x18],0x0
  403e17:	74 10                	je     403e29 <fwrite@plt+0x2cc9>
  403e19:	48 8b 54 24 28       	mov    rdx,QWORD PTR [rsp+0x28]
  403e1e:	4c 89 e7             	mov    rdi,r12
  403e21:	4c 89 fe             	mov    rsi,r15
  403e24:	e8 c7 fa ff ff       	call   4038f0 <fwrite@plt+0x2790>
  403e29:	80 3d f8 32 00 00 01 	cmp    BYTE PTR [rip+0x32f8],0x1        # 407128 <stderr@@GLIBC_2.2.5+0x28>
  403e30:	44 8b 7c 24 24       	mov    r15d,DWORD PTR [rsp+0x24]
  403e35:	4c 8b 64 24 30       	mov    r12,QWORD PTR [rsp+0x30]
  403e3a:	0f 85 d0 fd ff ff    	jne    403c10 <fwrite@plt+0x2ab0>
  403e40:	eb 07                	jmp    403e49 <fwrite@plt+0x2ce9>
  403e42:	c6 05 df 32 00 00 01 	mov    BYTE PTR [rip+0x32df],0x1        # 407128 <stderr@@GLIBC_2.2.5+0x28>
  403e49:	48 81 c4 48 7f 00 00 	add    rsp,0x7f48
  403e50:	5b                   	pop    rbx
  403e51:	41 5c                	pop    r12
  403e53:	41 5d                	pop    r13
  403e55:	41 5e                	pop    r14
  403e57:	41 5f                	pop    r15
  403e59:	5d                   	pop    rbp
  403e5a:	c3                   	ret    
  403e5b:	0f 1f 44 00 00       	nop    DWORD PTR [rax+rax*1+0x0]
  403e60:	53                   	push   rbx
  403e61:	48 89 fb             	mov    rbx,rdi
  403e64:	bf 01 00 00 00       	mov    edi,0x1
  403e69:	be 08 00 00 00       	mov    esi,0x8
  403e6e:	e8 2d d2 ff ff       	call   4010a0 <calloc@plt>
  403e73:	48 89 05 96 32 00 00 	mov    QWORD PTR [rip+0x3296],rax        # 407110 <stderr@@GLIBC_2.2.5+0x10>
  403e7a:	bf 01 00 00 00       	mov    edi,0x1
  403e7f:	be 08 00 00 00       	mov    esi,0x8
  403e84:	e8 17 d2 ff ff       	call   4010a0 <calloc@plt>
  403e89:	48 89 05 a0 32 00 00 	mov    QWORD PTR [rip+0x32a0],rax        # 407130 <stderr@@GLIBC_2.2.5+0x30>
  403e90:	bf 01 00 00 00       	mov    edi,0x1
  403e95:	be 08 00 00 00       	mov    esi,0x8
  403e9a:	e8 01 d2 ff ff       	call   4010a0 <calloc@plt>
  403e9f:	48 89 05 72 32 00 00 	mov    QWORD PTR [rip+0x3272],rax        # 407118 <stderr@@GLIBC_2.2.5+0x18>
  403ea6:	bf a5 10 00 00       	mov    edi,0x10a5
  403eab:	be 20 00 00 00       	mov    esi,0x20
  403eb0:	e8 eb d1 ff ff       	call   4010a0 <calloc@plt>
  403eb5:	48 89 05 64 32 00 00 	mov    QWORD PTR [rip+0x3264],rax        # 407120 <stderr@@GLIBC_2.2.5+0x20>
  403ebc:	48 8b b3 38 02 00 00 	mov    rsi,QWORD PTR [rbx+0x238]
  403ec3:	48 89 df             	mov    rdi,rbx
  403ec6:	e8 65 00 00 00       	call   403f30 <fwrite@plt+0x2dd0>
  403ecb:	be 01 00 00 00       	mov    esi,0x1
  403ed0:	48 89 df             	mov    rdi,rbx
  403ed3:	e8 78 fc ff ff       	call   403b50 <fwrite@plt+0x29f0>
  403ed8:	48 89 df             	mov    rdi,rbx
  403edb:	e8 40 d9 ff ff       	call   401820 <fwrite@plt+0x6c0>
  403ee0:	48 89 df             	mov    rdi,rbx
  403ee3:	e8 38 da ff ff       	call   401920 <fwrite@plt+0x7c0>
  403ee8:	c6 05 39 32 00 00 00 	mov    BYTE PTR [rip+0x3239],0x0        # 407128 <stderr@@GLIBC_2.2.5+0x28>
  403eef:	48 8b 3d 1a 32 00 00 	mov    rdi,QWORD PTR [rip+0x321a]        # 407110 <stderr@@GLIBC_2.2.5+0x10>
  403ef6:	e8 35 d1 ff ff       	call   401030 <free@plt>
  403efb:	48 8b 3d 2e 32 00 00 	mov    rdi,QWORD PTR [rip+0x322e]        # 407130 <stderr@@GLIBC_2.2.5+0x30>
  403f02:	e8 29 d1 ff ff       	call   401030 <free@plt>
  403f07:	48 8b 3d 0a 32 00 00 	mov    rdi,QWORD PTR [rip+0x320a]        # 407118 <stderr@@GLIBC_2.2.5+0x18>
  403f0e:	e8 1d d1 ff ff       	call   401030 <free@plt>
  403f13:	48 8b 3d 06 32 00 00 	mov    rdi,QWORD PTR [rip+0x3206]        # 407120 <stderr@@GLIBC_2.2.5+0x20>
  403f1a:	e8 11 d1 ff ff       	call   401030 <free@plt>
  403f1f:	31 c0                	xor    eax,eax
  403f21:	5b                   	pop    rbx
  403f22:	c3                   	ret    
  403f23:	66 2e 0f 1f 84 00 00 	cs nop WORD PTR [rax+rax*1+0x0]
  403f2a:	00 00 00 
  403f2d:	0f 1f 00             	nop    DWORD PTR [rax]
  403f30:	48 8b 87 80 02 00 00 	mov    rax,QWORD PTR [rdi+0x280]
  403f37:	48 0f af 87 78 02 00 	imul   rax,QWORD PTR [rdi+0x278]
  403f3e:	00 
  403f3f:	48 8d 04 c0          	lea    rax,[rax+rax*8]
  403f43:	48 8d 04 c6          	lea    rax,[rsi+rax*8]
  403f47:	48 89 05 ea 31 00 00 	mov    QWORD PTR [rip+0x31ea],rax        # 407138 <stderr@@GLIBC_2.2.5+0x38>
  403f4e:	c3                   	ret    
  403f4f:	90                   	nop
  403f50:	48 85 f6             	test   rsi,rsi
  403f53:	78 12                	js     403f67 <fwrite@plt+0x2e07>
  403f55:	48 85 f6             	test   rsi,rsi
  403f58:	74 1a                	je     403f74 <fwrite@plt+0x2e14>
  403f5a:	0f b7 4f 20          	movzx  ecx,WORD PTR [rdi+0x20]
  403f5e:	31 c0                	xor    eax,eax
  403f60:	83 f9 02             	cmp    ecx,0x2
  403f63:	0f 94 c0             	sete   al
  403f66:	c3                   	ret    
  403f67:	0f b7 4f 20          	movzx  ecx,WORD PTR [rdi+0x20]
  403f6b:	31 c0                	xor    eax,eax
  403f6d:	83 f9 01             	cmp    ecx,0x1
  403f70:	0f 94 c0             	sete   al
  403f73:	c3                   	ret    
  403f74:	31 c0                	xor    eax,eax
  403f76:	c3                   	ret    
  403f77:	66 0f 1f 84 00 00 00 	nop    WORD PTR [rax+rax*1+0x0]
  403f7e:	00 00 
  403f80:	48 8b 17             	mov    rdx,QWORD PTR [rdi]
  403f83:	48 8b 0e             	mov    rcx,QWORD PTR [rsi]
  403f86:	48 8b 71 10          	mov    rsi,QWORD PTR [rcx+0x10]
  403f8a:	b8 01 00 00 00       	mov    eax,0x1
  403f8f:	48 39 72 10          	cmp    QWORD PTR [rdx+0x10],rsi
  403f93:	7c 1c                	jl     403fb1 <fwrite@plt+0x2e51>
  403f95:	b8 ff ff ff ff       	mov    eax,0xffffffff
  403f9a:	7f 15                	jg     403fb1 <fwrite@plt+0x2e51>
  403f9c:	48 8b 02             	mov    rax,QWORD PTR [rdx]
  403f9f:	8b 00                	mov    eax,DWORD PTR [rax]
  403fa1:	48 8b 09             	mov    rcx,QWORD PTR [rcx]
  403fa4:	31 d2                	xor    edx,edx
  403fa6:	3b 01                	cmp    eax,DWORD PTR [rcx]
  403fa8:	0f 9f c2             	setg   dl
  403fab:	8d 04 12             	lea    eax,[rdx+rdx*1]
  403fae:	83 c0 ff             	add    eax,0xffffffff
  403fb1:	c3                   	ret    
  403fb2:	66 2e 0f 1f 84 00 00 	cs nop WORD PTR [rax+rax*1+0x0]
  403fb9:	00 00 00 
  403fbc:	0f 1f 40 00          	nop    DWORD PTR [rax+0x0]
  403fc0:	55                   	push   rbp
  403fc1:	41 57                	push   r15
  403fc3:	41 56                	push   r14
  403fc5:	41 55                	push   r13
  403fc7:	41 54                	push   r12
  403fc9:	53                   	push   rbx
  403fca:	48 83 ec 28          	sub    rsp,0x28
  403fce:	4d 89 c6             	mov    r14,r8
  403fd1:	49 89 cd             	mov    r13,rcx
  403fd4:	48 89 54 24 20       	mov    QWORD PTR [rsp+0x20],rdx
  403fd9:	48 89 34 24          	mov    QWORD PTR [rsp],rsi
  403fdd:	4c 8b 44 24 78       	mov    r8,QWORD PTR [rsp+0x78]
  403fe2:	48 8b 44 24 70       	mov    rax,QWORD PTR [rsp+0x70]
  403fe7:	48 8b 4c 24 68       	mov    rcx,QWORD PTR [rsp+0x68]
  403fec:	4d 63 e1             	movsxd r12,r9d
  403fef:	be 01 00 00 00       	mov    esi,0x1
  403ff4:	31 d2                	xor    edx,edx
  403ff6:	eb 18                	jmp    404010 <fwrite@plt+0x2eb0>
  403ff8:	0f 1f 84 00 00 00 00 	nop    DWORD PTR [rax+rax*1+0x0]
  403fff:	00 
  404000:	0f b7 5d 20          	movzx  ebx,WORD PTR [rbp+0x20]
  404004:	83 fb 01             	cmp    ebx,0x1
  404007:	74 3e                	je     404047 <fwrite@plt+0x2ee7>
  404009:	eb 67                	jmp    404072 <fwrite@plt+0x2f12>
  40400b:	0f 1f 44 00 00       	nop    DWORD PTR [rax+rax*1+0x0]
  404010:	4b 3b 74 e5 00       	cmp    rsi,QWORD PTR [r13+r12*8+0x0]
  404015:	7f 6a                	jg     404081 <fwrite@plt+0x2f21>
  404017:	49 8b 3c f6          	mov    rdi,QWORD PTR [r14+rsi*8]
  40401b:	48 83 7f 18 00       	cmp    QWORD PTR [rdi+0x18],0x0
  404020:	7e 55                	jle    404077 <fwrite@plt+0x2f17>
  404022:	48 8b 2f             	mov    rbp,QWORD PTR [rdi]
  404025:	48 8b 7d 08          	mov    rdi,QWORD PTR [rbp+0x8]
  404029:	48 8b 5d 10          	mov    rbx,QWORD PTR [rbp+0x10]
  40402d:	48 2b 3b             	sub    rdi,QWORD PTR [rbx]
  404030:	48 8b 5d 18          	mov    rbx,QWORD PTR [rbp+0x18]
  404034:	48 03 3b             	add    rdi,QWORD PTR [rbx]
  404037:	48 85 ff             	test   rdi,rdi
  40403a:	78 c4                	js     404000 <fwrite@plt+0x2ea0>
  40403c:	74 34                	je     404072 <fwrite@plt+0x2f12>
  40403e:	0f b7 5d 20          	movzx  ebx,WORD PTR [rbp+0x20]
  404042:	83 fb 02             	cmp    ebx,0x2
  404045:	75 2b                	jne    404072 <fwrite@plt+0x2f12>
  404047:	48 89 fb             	mov    rbx,rdi
  40404a:	48 f7 db             	neg    rbx
  40404d:	48 0f 4c df          	cmovl  rbx,rdi
  404051:	49 8b 44 d6 08       	mov    rax,QWORD PTR [r14+rdx*8+0x8]
  404056:	48 89 28             	mov    QWORD PTR [rax],rbp
  404059:	49 8b 44 d6 08       	mov    rax,QWORD PTR [r14+rdx*8+0x8]
  40405e:	48 8d 52 01          	lea    rdx,[rdx+0x1]
  404062:	48 89 78 08          	mov    QWORD PTR [rax+0x8],rdi
  404066:	48 89 58 10          	mov    QWORD PTR [rax+0x10],rbx
  40406a:	48 c7 40 18 00 00 00 	mov    QWORD PTR [rax+0x18],0x0
  404071:	00 
  404072:	48 8b 44 24 70       	mov    rax,QWORD PTR [rsp+0x70]
  404077:	48 83 c6 01          	add    rsi,0x1
  40407b:	48 83 fe 3d          	cmp    rsi,0x3d
  40407f:	72 8f                	jb     404010 <fwrite@plt+0x2eb0>
  404081:	4b 89 54 e5 00       	mov    QWORD PTR [r13+r12*8+0x0],rdx
  404086:	48 8b 54 24 60       	mov    rdx,QWORD PTR [rsp+0x60]
  40408b:	48 8b 12             	mov    rdx,QWORD PTR [rdx]
  40408e:	48 89 54 24 18       	mov    QWORD PTR [rsp+0x18],rdx
  404093:	48 8d 04 c5 00 00 00 	lea    rax,[rax*8+0x0]
  40409a:	00 
  40409b:	4c 8d 3c c0          	lea    r15,[rax+rax*8]
  40409f:	48 8d 04 c9          	lea    rax,[rcx+rcx*8]
  4040a3:	48 89 44 24 10       	mov    QWORD PTR [rsp+0x10],rax
  4040a8:	4b 8d 04 c0          	lea    rax,[r8+r8*8]
  4040ac:	48 89 44 24 08       	mov    QWORD PTR [rsp+0x8],rax
  4040b1:	e9 9a 00 00 00       	jmp    404150 <fwrite@plt+0x2ff0>
  4040b6:	66 2e 0f 1f 84 00 00 	cs nop WORD PTR [rax+rax*1+0x0]
  4040bd:	00 00 00 
  4040c0:	48 8b 44 24 60       	mov    rax,QWORD PTR [rsp+0x60]
  4040c5:	48 8b 00             	mov    rax,QWORD PTR [rax]
  4040c8:	4c 01 fb             	add    rbx,r15
  4040cb:	48 39 c3             	cmp    rbx,rax
  4040ce:	0f 83 bc 00 00 00    	jae    404190 <fwrite@plt+0x3030>
  4040d4:	66 83 7b 20 00       	cmp    WORD PTR [rbx+0x20],0x0
  4040d9:	7e e5                	jle    4040c0 <fwrite@plt+0x2f60>
  4040db:	48 8b 6b 08          	mov    rbp,QWORD PTR [rbx+0x8]
  4040df:	48 8b 43 10          	mov    rax,QWORD PTR [rbx+0x10]
  4040e3:	48 2b 28             	sub    rbp,QWORD PTR [rax]
  4040e6:	48 8b 43 18          	mov    rax,QWORD PTR [rbx+0x18]
  4040ea:	48 03 28             	add    rbp,QWORD PTR [rax]
  4040ed:	48 89 df             	mov    rdi,rbx
  4040f0:	48 89 ee             	mov    rsi,rbp
  4040f3:	e8 58 fe ff ff       	call   403f50 <fwrite@plt+0x2df0>
  4040f8:	85 c0                	test   eax,eax
  4040fa:	74 c4                	je     4040c0 <fwrite@plt+0x2f60>
  4040fc:	4b 8b 44 e5 00       	mov    rax,QWORD PTR [r13+r12*8+0x0]
  404101:	48 8d 48 01          	lea    rcx,[rax+0x1]
  404105:	4b 89 4c e5 00       	mov    QWORD PTR [r13+r12*8+0x0],rcx
  40410a:	49 8b 4c c6 08       	mov    rcx,QWORD PTR [r14+rax*8+0x8]
  40410f:	48 89 19             	mov    QWORD PTR [rcx],rbx
  404112:	49 8b 44 c6 08       	mov    rax,QWORD PTR [r14+rax*8+0x8]
  404117:	48 89 68 08          	mov    QWORD PTR [rax+0x8],rbp
  40411b:	48 89 e8             	mov    rax,rbp
  40411e:	48 f7 d8             	neg    rax
  404121:	48 0f 4c c5          	cmovl  rax,rbp
  404125:	4b 8b 4c e5 00       	mov    rcx,QWORD PTR [r13+r12*8+0x0]
  40412a:	49 8b 0c ce          	mov    rcx,QWORD PTR [r14+rcx*8]
  40412e:	48 89 41 10          	mov    QWORD PTR [rcx+0x10],rax
  404132:	4b 8b 44 e5 00       	mov    rax,QWORD PTR [r13+r12*8+0x0]
  404137:	49 8b 04 c6          	mov    rax,QWORD PTR [r14+rax*8]
  40413b:	48 c7 40 18 00 00 00 	mov    QWORD PTR [rax+0x18],0x0
  404142:	00 
  404143:	e9 78 ff ff ff       	jmp    4040c0 <fwrite@plt+0x2f60>
  404148:	0f 1f 84 00 00 00 00 	nop    DWORD PTR [rax+rax*1+0x0]
  40414f:	00 
  404150:	48 8b 44 24 60       	mov    rax,QWORD PTR [rsp+0x60]
  404155:	48 89 c2             	mov    rdx,rax
  404158:	48 8b 00             	mov    rax,QWORD PTR [rax]
  40415b:	48 8b 4c 24 10       	mov    rcx,QWORD PTR [rsp+0x10]
  404160:	48 8d 1c c8          	lea    rbx,[rax+rcx*8]
  404164:	48 3b 05 cd 2f 00 00 	cmp    rax,QWORD PTR [rip+0x2fcd]        # 407138 <stderr@@GLIBC_2.2.5+0x38>
  40416b:	48 8b 74 24 08       	mov    rsi,QWORD PTR [rsp+0x8]
  404170:	48 8d 0c f0          	lea    rcx,[rax+rsi*8]
  404174:	48 8d 44 f0 b8       	lea    rax,[rax+rsi*8-0x48]
  404179:	48 0f 42 c1          	cmovb  rax,rcx
  40417d:	48 89 02             	mov    QWORD PTR [rdx],rax
  404180:	48 39 c3             	cmp    rbx,rax
  404183:	0f 82 4b ff ff ff    	jb     4040d4 <fwrite@plt+0x2f74>
  404189:	0f 1f 80 00 00 00 00 	nop    DWORD PTR [rax+0x0]
  404190:	48 3b 44 24 20       	cmp    rax,QWORD PTR [rsp+0x20]
  404195:	72 0c                	jb     4041a3 <fwrite@plt+0x3043>
  404197:	48 8b 04 24          	mov    rax,QWORD PTR [rsp]
  40419b:	48 8b 4c 24 60       	mov    rcx,QWORD PTR [rsp+0x60]
  4041a0:	48 89 01             	mov    QWORD PTR [rcx],rax
  4041a3:	48 8b 44 24 60       	mov    rax,QWORD PTR [rsp+0x60]
  4041a8:	48 8b 4c 24 18       	mov    rcx,QWORD PTR [rsp+0x18]
  4041ad:	48 39 08             	cmp    QWORD PTR [rax],rcx
  4041b0:	48 8b 54 24 70       	mov    rdx,QWORD PTR [rsp+0x70]
  4041b5:	74 21                	je     4041d8 <fwrite@plt+0x3078>
  4041b7:	31 c0                	xor    eax,eax
  4041b9:	48 85 d2             	test   rdx,rdx
  4041bc:	7e 10                	jle    4041ce <fwrite@plt+0x306e>
  4041be:	31 c9                	xor    ecx,ecx
  4041c0:	49 03 44 cd 00       	add    rax,QWORD PTR [r13+rcx*8+0x0]
  4041c5:	48 83 c1 01          	add    rcx,0x1
  4041c9:	48 39 ca             	cmp    rdx,rcx
  4041cc:	75 f2                	jne    4041c0 <fwrite@plt+0x3060>
  4041ce:	48 83 f8 3c          	cmp    rax,0x3c
  4041d2:	0f 8c 78 ff ff ff    	jl     404150 <fwrite@plt+0x2ff0>
  4041d8:	4b 8b 44 e5 00       	mov    rax,QWORD PTR [r13+r12*8+0x0]
  4041dd:	49 8b 44 c6 08       	mov    rax,QWORD PTR [r14+rax*8+0x8]
  4041e2:	48 c7 40 18 ff ff ff 	mov    QWORD PTR [rax+0x18],0xffffffffffffffff
  4041e9:	ff 
  4041ea:	4b 8b 74 e5 00       	mov    rsi,QWORD PTR [r13+r12*8+0x0]
  4041ef:	48 85 f6             	test   rsi,rsi
  4041f2:	74 19                	je     40420d <fwrite@plt+0x30ad>
  4041f4:	49 8d 7e 08          	lea    rdi,[r14+0x8]
  4041f8:	ba 08 00 00 00       	mov    edx,0x8
  4041fd:	b9 80 3f 40 00       	mov    ecx,0x403f80
  404202:	e8 19 00 00 00       	call   404220 <fwrite@plt+0x30c0>
  404207:	49 8b 46 08          	mov    rax,QWORD PTR [r14+0x8]
  40420b:	eb 02                	jmp    40420f <fwrite@plt+0x30af>
  40420d:	31 c0                	xor    eax,eax
  40420f:	48 83 c4 28          	add    rsp,0x28
  404213:	5b                   	pop    rbx
  404214:	41 5c                	pop    r12
  404216:	41 5d                	pop    r13
  404218:	41 5e                	pop    r14
  40421a:	41 5f                	pop    r15
  40421c:	5d                   	pop    rbp
  40421d:	c3                   	ret    
  40421e:	66 90                	xchg   ax,ax
  404220:	55                   	push   rbp
  404221:	41 57                	push   r15
  404223:	41 56                	push   r14
  404225:	41 55                	push   r13
  404227:	41 54                	push   r12
  404229:	53                   	push   rbx
  40422a:	48 83 ec 38          	sub    rsp,0x38
  40422e:	49 89 d4             	mov    r12,rdx
  404231:	49 89 f7             	mov    r15,rsi
  404234:	49 89 fd             	mov    r13,rdi
  404237:	48 89 d0             	mov    rax,rdx
  40423a:	48 f7 d8             	neg    rax
  40423d:	48 89 44 24 08       	mov    QWORD PTR [rsp+0x8],rax
  404242:	48 89 f8             	mov    rax,rdi
  404245:	48 09 d0             	or     rax,rdx
  404248:	31 d2                	xor    edx,edx
  40424a:	49 83 fc 08          	cmp    r12,0x8
  40424e:	0f 95 c2             	setne  dl
  404251:	a8 07                	test   al,0x7
  404253:	be 02 00 00 00       	mov    esi,0x2
  404258:	0f 44 f2             	cmove  esi,edx
  40425b:	89 34 24             	mov    DWORD PTR [rsp],esi
  40425e:	bb 02 00 00 00       	mov    ebx,0x2
  404263:	31 ff                	xor    edi,edi
  404265:	49 83 fc 04          	cmp    r12,0x4
  404269:	40 0f 95 c7          	setne  dil
  40426d:	a8 03                	test   al,0x3
  40426f:	0f 44 df             	cmove  ebx,edi
  404272:	49 83 ff 07          	cmp    r15,0x7
  404276:	48 89 4c 24 20       	mov    QWORD PTR [rsp+0x20],rcx
  40427b:	73 08                	jae    404285 <fwrite@plt+0x3125>
  40427d:	4c 89 ee             	mov    rsi,r13
  404280:	e9 a2 03 00 00       	jmp    404627 <fwrite@plt+0x34c7>
  404285:	89 54 24 34          	mov    DWORD PTR [rsp+0x34],edx
  404289:	89 7c 24 30          	mov    DWORD PTR [rsp+0x30],edi
  40428d:	0f 1f 00             	nop    DWORD PTR [rax]
  404290:	4d 89 fe             	mov    r14,r15
  404293:	49 d1 ee             	shr    r14,1
  404296:	4d 0f af f4          	imul   r14,r12
  40429a:	4d 01 ee             	add    r14,r13
  40429d:	49 83 ff 07          	cmp    r15,0x7
  4042a1:	89 5c 24 04          	mov    DWORD PTR [rsp+0x4],ebx
  4042a5:	4c 89 ed             	mov    rbp,r13
  4042a8:	4c 89 7c 24 18       	mov    QWORD PTR [rsp+0x18],r15
  4042ad:	0f 84 b6 00 00 00    	je     404369 <fwrite@plt+0x3209>
  4042b3:	4c 89 f8             	mov    rax,r15
  4042b6:	4d 8d 7f ff          	lea    r15,[r15-0x1]
  4042ba:	4d 0f af fc          	imul   r15,r12
  4042be:	4d 01 ef             	add    r15,r13
  4042c1:	48 83 f8 29          	cmp    rax,0x29
  4042c5:	0f 82 85 00 00 00    	jb     404350 <fwrite@plt+0x31f0>
  4042cb:	48 89 c3             	mov    rbx,rax
  4042ce:	48 c1 eb 03          	shr    rbx,0x3
  4042d2:	49 0f af dc          	imul   rbx,r12
  4042d6:	4a 8d 34 2b          	lea    rsi,[rbx+r13*1]
  4042da:	48 8d 04 1b          	lea    rax,[rbx+rbx*1]
  4042de:	48 89 44 24 10       	mov    QWORD PTR [rsp+0x10],rax
  4042e3:	48 8d 14 5d 00 00 00 	lea    rdx,[rbx*2+0x0]
  4042ea:	00 
  4042eb:	4c 01 ea             	add    rdx,r13
  4042ee:	4c 89 ef             	mov    rdi,r13
  4042f1:	48 8b 4c 24 20       	mov    rcx,QWORD PTR [rsp+0x20]
  4042f6:	e8 a5 05 00 00       	call   4048a0 <fwrite@plt+0x3740>
  4042fb:	48 89 44 24 28       	mov    QWORD PTR [rsp+0x28],rax
  404300:	4c 89 f7             	mov    rdi,r14
  404303:	48 29 df             	sub    rdi,rbx
  404306:	49 8d 14 1e          	lea    rdx,[r14+rbx*1]
  40430a:	4c 89 f6             	mov    rsi,r14
  40430d:	48 8b 4c 24 20       	mov    rcx,QWORD PTR [rsp+0x20]
  404312:	e8 89 05 00 00       	call   4048a0 <fwrite@plt+0x3740>
  404317:	49 89 c6             	mov    r14,rax
  40431a:	4c 89 ff             	mov    rdi,r15
  40431d:	48 2b 7c 24 10       	sub    rdi,QWORD PTR [rsp+0x10]
  404322:	4c 8b 6c 24 20       	mov    r13,QWORD PTR [rsp+0x20]
  404327:	4c 89 fe             	mov    rsi,r15
  40432a:	48 29 de             	sub    rsi,rbx
  40432d:	8b 5c 24 04          	mov    ebx,DWORD PTR [rsp+0x4]
  404331:	4c 89 fa             	mov    rdx,r15
  404334:	4c 89 e9             	mov    rcx,r13
  404337:	e8 64 05 00 00       	call   4048a0 <fwrite@plt+0x3740>
  40433c:	48 8b 7c 24 28       	mov    rdi,QWORD PTR [rsp+0x28]
  404341:	4c 89 e9             	mov    rcx,r13
  404344:	49 89 c7             	mov    r15,rax
  404347:	eb 0a                	jmp    404353 <fwrite@plt+0x31f3>
  404349:	0f 1f 80 00 00 00 00 	nop    DWORD PTR [rax+0x0]
  404350:	4c 89 ef             	mov    rdi,r13
  404353:	4c 89 f6             	mov    rsi,r14
  404356:	4c 89 fa             	mov    rdx,r15
  404359:	e8 42 05 00 00       	call   4048a0 <fwrite@plt+0x3740>
  40435e:	49 89 c6             	mov    r14,rax
  404361:	49 89 ed             	mov    r13,rbp
  404364:	4c 8b 7c 24 18       	mov    r15,QWORD PTR [rsp+0x18]
  404369:	83 3c 24 00          	cmp    DWORD PTR [rsp],0x0
  40436d:	74 21                	je     404390 <fwrite@plt+0x3230>
  40436f:	85 db                	test   ebx,ebx
  404371:	74 2d                	je     4043a0 <fwrite@plt+0x3240>
  404373:	4c 89 ef             	mov    rdi,r13
  404376:	4c 89 f6             	mov    rsi,r14
  404379:	44 89 e2             	mov    edx,r12d
  40437c:	8b 0c 24             	mov    ecx,DWORD PTR [rsp]
  40437f:	41 89 d8             	mov    r8d,ebx
  404382:	e8 79 04 00 00       	call   404800 <fwrite@plt+0x36a0>
  404387:	eb 25                	jmp    4043ae <fwrite@plt+0x324e>
  404389:	0f 1f 80 00 00 00 00 	nop    DWORD PTR [rax+0x0]
  404390:	49 8b 45 00          	mov    rax,QWORD PTR [r13+0x0]
  404394:	49 8b 0e             	mov    rcx,QWORD PTR [r14]
  404397:	49 89 4d 00          	mov    QWORD PTR [r13+0x0],rcx
  40439b:	49 89 06             	mov    QWORD PTR [r14],rax
  40439e:	eb 0e                	jmp    4043ae <fwrite@plt+0x324e>
  4043a0:	41 8b 45 00          	mov    eax,DWORD PTR [r13+0x0]
  4043a4:	41 8b 0e             	mov    ecx,DWORD PTR [r14]
  4043a7:	41 89 4d 00          	mov    DWORD PTR [r13+0x0],ecx
  4043ab:	41 89 06             	mov    DWORD PTR [r14],eax
  4043ae:	4b 8d 0c 2c          	lea    rcx,[r12+r13*1]
  4043b2:	4c 89 e8             	mov    rax,r13
  4043b5:	4d 8d 6f ff          	lea    r13,[r15-0x1]
  4043b9:	4d 0f af ec          	imul   r13,r12
  4043bd:	49 01 c5             	add    r13,rax
  4043c0:	31 db                	xor    ebx,ebx
  4043c2:	4d 89 ee             	mov    r14,r13
  4043c5:	49 89 cf             	mov    r15,rcx
  4043c8:	48 89 4c 24 28       	mov    QWORD PTR [rsp+0x28],rcx
  4043cd:	48 89 4c 24 10       	mov    QWORD PTR [rsp+0x10],rcx
  4043d2:	4d 39 f7             	cmp    r15,r14
  4043d5:	76 11                	jbe    4043e8 <fwrite@plt+0x3288>
  4043d7:	eb 7f                	jmp    404458 <fwrite@plt+0x32f8>
  4043d9:	0f 1f 80 00 00 00 00 	nop    DWORD PTR [rax+0x0]
  4043e0:	4d 01 e7             	add    r15,r12
  4043e3:	4d 39 f7             	cmp    r15,r14
  4043e6:	77 70                	ja     404458 <fwrite@plt+0x32f8>
  4043e8:	4c 89 ff             	mov    rdi,r15
  4043eb:	48 89 ee             	mov    rsi,rbp
  4043ee:	ff 54 24 20          	call   QWORD PTR [rsp+0x20]
  4043f2:	85 c0                	test   eax,eax
  4043f4:	7f 62                	jg     404458 <fwrite@plt+0x32f8>
  4043f6:	75 e8                	jne    4043e0 <fwrite@plt+0x3280>
  4043f8:	83 3c 24 00          	cmp    DWORD PTR [rsp],0x0
  4043fc:	74 22                	je     404420 <fwrite@plt+0x32c0>
  4043fe:	44 8b 44 24 04       	mov    r8d,DWORD PTR [rsp+0x4]
  404403:	45 85 c0             	test   r8d,r8d
  404406:	48 8b 5c 24 10       	mov    rbx,QWORD PTR [rsp+0x10]
  40440b:	74 26                	je     404433 <fwrite@plt+0x32d3>
  40440d:	48 89 df             	mov    rdi,rbx
  404410:	4c 89 fe             	mov    rsi,r15
  404413:	44 89 e2             	mov    edx,r12d
  404416:	8b 0c 24             	mov    ecx,DWORD PTR [rsp]
  404419:	e8 e2 03 00 00       	call   404800 <fwrite@plt+0x36a0>
  40441e:	eb 1d                	jmp    40443d <fwrite@plt+0x32dd>
  404420:	48 8b 5c 24 10       	mov    rbx,QWORD PTR [rsp+0x10]
  404425:	48 8b 03             	mov    rax,QWORD PTR [rbx]
  404428:	49 8b 0f             	mov    rcx,QWORD PTR [r15]
  40442b:	48 89 0b             	mov    QWORD PTR [rbx],rcx
  40442e:	49 89 07             	mov    QWORD PTR [r15],rax
  404431:	eb 0a                	jmp    40443d <fwrite@plt+0x32dd>
  404433:	8b 03                	mov    eax,DWORD PTR [rbx]
  404435:	41 8b 0f             	mov    ecx,DWORD PTR [r15]
  404438:	89 0b                	mov    DWORD PTR [rbx],ecx
  40443a:	41 89 07             	mov    DWORD PTR [r15],eax
  40443d:	4c 01 e3             	add    rbx,r12
  404440:	48 89 5c 24 10       	mov    QWORD PTR [rsp+0x10],rbx
  404445:	bb 01 00 00 00       	mov    ebx,0x1
  40444a:	eb 94                	jmp    4043e0 <fwrite@plt+0x3280>
  40444c:	0f 1f 40 00          	nop    DWORD PTR [rax+0x0]
  404450:	48 8b 44 24 08       	mov    rax,QWORD PTR [rsp+0x8]
  404455:	49 01 c6             	add    r14,rax
  404458:	4d 39 f7             	cmp    r15,r14
  40445b:	0f 87 cf 00 00 00    	ja     404530 <fwrite@plt+0x33d0>
  404461:	4c 89 f7             	mov    rdi,r14
  404464:	48 89 ee             	mov    rsi,rbp
  404467:	ff 54 24 20          	call   QWORD PTR [rsp+0x20]
  40446b:	85 c0                	test   eax,eax
  40446d:	78 5a                	js     4044c9 <fwrite@plt+0x3369>
  40446f:	75 df                	jne    404450 <fwrite@plt+0x32f0>
  404471:	83 3c 24 00          	cmp    DWORD PTR [rsp],0x0
  404475:	74 1d                	je     404494 <fwrite@plt+0x3334>
  404477:	44 8b 44 24 04       	mov    r8d,DWORD PTR [rsp+0x4]
  40447c:	45 85 c0             	test   r8d,r8d
  40447f:	74 23                	je     4044a4 <fwrite@plt+0x3344>
  404481:	4c 89 f7             	mov    rdi,r14
  404484:	4c 89 ee             	mov    rsi,r13
  404487:	44 89 e2             	mov    edx,r12d
  40448a:	8b 0c 24             	mov    ecx,DWORD PTR [rsp]
  40448d:	e8 6e 03 00 00       	call   404800 <fwrite@plt+0x36a0>
  404492:	eb 1e                	jmp    4044b2 <fwrite@plt+0x3352>
  404494:	49 8b 06             	mov    rax,QWORD PTR [r14]
  404497:	49 8b 4d 00          	mov    rcx,QWORD PTR [r13+0x0]
  40449b:	49 89 0e             	mov    QWORD PTR [r14],rcx
  40449e:	49 89 45 00          	mov    QWORD PTR [r13+0x0],rax
  4044a2:	eb 0e                	jmp    4044b2 <fwrite@plt+0x3352>
  4044a4:	41 8b 06             	mov    eax,DWORD PTR [r14]
  4044a7:	41 8b 4d 00          	mov    ecx,DWORD PTR [r13+0x0]
  4044ab:	41 89 0e             	mov    DWORD PTR [r14],ecx
  4044ae:	41 89 45 00          	mov    DWORD PTR [r13+0x0],eax
  4044b2:	48 8b 44 24 08       	mov    rax,QWORD PTR [rsp+0x8]
  4044b7:	49 01 c5             	add    r13,rax
  4044ba:	bb 01 00 00 00       	mov    ebx,0x1
  4044bf:	49 01 c6             	add    r14,rax
  4044c2:	4d 39 f7             	cmp    r15,r14
  4044c5:	76 9a                	jbe    404461 <fwrite@plt+0x3301>
  4044c7:	eb 67                	jmp    404530 <fwrite@plt+0x33d0>
  4044c9:	83 3c 24 00          	cmp    DWORD PTR [rsp],0x0
  4044cd:	74 1d                	je     4044ec <fwrite@plt+0x338c>
  4044cf:	44 8b 44 24 04       	mov    r8d,DWORD PTR [rsp+0x4]
  4044d4:	45 85 c0             	test   r8d,r8d
  4044d7:	74 21                	je     4044fa <fwrite@plt+0x339a>
  4044d9:	4c 89 ff             	mov    rdi,r15
  4044dc:	4c 89 f6             	mov    rsi,r14
  4044df:	44 89 e2             	mov    edx,r12d
  4044e2:	8b 0c 24             	mov    ecx,DWORD PTR [rsp]
  4044e5:	e8 16 03 00 00       	call   404800 <fwrite@plt+0x36a0>
  4044ea:	eb 1a                	jmp    404506 <fwrite@plt+0x33a6>
  4044ec:	49 8b 07             	mov    rax,QWORD PTR [r15]
  4044ef:	49 8b 0e             	mov    rcx,QWORD PTR [r14]
  4044f2:	49 89 0f             	mov    QWORD PTR [r15],rcx
  4044f5:	49 89 06             	mov    QWORD PTR [r14],rax
  4044f8:	eb 0c                	jmp    404506 <fwrite@plt+0x33a6>
  4044fa:	41 8b 07             	mov    eax,DWORD PTR [r15]
  4044fd:	41 8b 0e             	mov    ecx,DWORD PTR [r14]
  404500:	41 89 0f             	mov    DWORD PTR [r15],ecx
  404503:	41 89 06             	mov    DWORD PTR [r14],eax
  404506:	48 8b 44 24 08       	mov    rax,QWORD PTR [rsp+0x8]
  40450b:	4d 01 e7             	add    r15,r12
  40450e:	49 01 c6             	add    r14,rax
  404511:	bb 01 00 00 00       	mov    ebx,0x1
  404516:	4d 39 f7             	cmp    r15,r14
  404519:	0f 86 c9 fe ff ff    	jbe    4043e8 <fwrite@plt+0x3288>
  40451f:	e9 34 ff ff ff       	jmp    404458 <fwrite@plt+0x32f8>
  404524:	66 2e 0f 1f 84 00 00 	cs nop WORD PTR [rax+rax*1+0x0]
  40452b:	00 00 00 
  40452e:	66 90                	xchg   ax,ax
  404530:	48 8b 44 24 18       	mov    rax,QWORD PTR [rsp+0x18]
  404535:	49 0f af c4          	imul   rax,r12
  404539:	48 89 ef             	mov    rdi,rbp
  40453c:	48 8d 0c 28          	lea    rcx,[rax+rbp*1]
  404540:	48 89 4c 24 18       	mov    QWORD PTR [rsp+0x18],rcx
  404545:	85 db                	test   ebx,ebx
  404547:	0f 84 c3 01 00 00    	je     404710 <fwrite@plt+0x35b0>
  40454d:	4c 89 f8             	mov    rax,r15
  404550:	48 8b 54 24 10       	mov    rdx,QWORD PTR [rsp+0x10]
  404555:	48 29 d0             	sub    rax,rdx
  404558:	48 29 fa             	sub    rdx,rdi
  40455b:	48 39 c2             	cmp    rdx,rax
  40455e:	48 89 44 24 10       	mov    QWORD PTR [rsp+0x10],rax
  404563:	48 0f 4f d0          	cmovg  rdx,rax
  404567:	48 85 d2             	test   rdx,rdx
  40456a:	8b 5c 24 04          	mov    ebx,DWORD PTR [rsp+0x4]
  40456e:	74 11                	je     404581 <fwrite@plt+0x3421>
  404570:	4c 89 fe             	mov    rsi,r15
  404573:	48 29 d6             	sub    rsi,rdx
  404576:	8b 0c 24             	mov    ecx,DWORD PTR [rsp]
  404579:	41 89 d8             	mov    r8d,ebx
  40457c:	e8 7f 02 00 00       	call   404800 <fwrite@plt+0x36a0>
  404581:	48 8b 44 24 18       	mov    rax,QWORD PTR [rsp+0x18]
  404586:	48 89 c2             	mov    rdx,rax
  404589:	4c 29 ea             	sub    rdx,r13
  40458c:	4d 29 f5             	sub    r13,r14
  40458f:	4c 29 e2             	sub    rdx,r12
  404592:	49 39 d5             	cmp    r13,rdx
  404595:	49 0f 4e d5          	cmovle rdx,r13
  404599:	48 85 d2             	test   rdx,rdx
  40459c:	74 14                	je     4045b2 <fwrite@plt+0x3452>
  40459e:	48 89 c6             	mov    rsi,rax
  4045a1:	48 29 d6             	sub    rsi,rdx
  4045a4:	4c 89 ff             	mov    rdi,r15
  4045a7:	8b 0c 24             	mov    ecx,DWORD PTR [rsp]
  4045aa:	41 89 d8             	mov    r8d,ebx
  4045ad:	e8 4e 02 00 00       	call   404800 <fwrite@plt+0x36a0>
  4045b2:	48 8b 44 24 10       	mov    rax,QWORD PTR [rsp+0x10]
  4045b7:	4c 39 e0             	cmp    rax,r12
  4045ba:	76 18                	jbe    4045d4 <fwrite@plt+0x3474>
  4045bc:	31 d2                	xor    edx,edx
  4045be:	49 f7 f4             	div    r12
  4045c1:	48 89 ef             	mov    rdi,rbp
  4045c4:	48 89 c6             	mov    rsi,rax
  4045c7:	4c 89 e2             	mov    rdx,r12
  4045ca:	48 8b 4c 24 20       	mov    rcx,QWORD PTR [rsp+0x20]
  4045cf:	e8 4c fc ff ff       	call   404220 <fwrite@plt+0x30c0>
  4045d4:	4d 39 e5             	cmp    r13,r12
  4045d7:	48 8b 74 24 18       	mov    rsi,QWORD PTR [rsp+0x18]
  4045dc:	0f 86 09 02 00 00    	jbe    4047eb <fwrite@plt+0x368b>
  4045e2:	4c 29 ee             	sub    rsi,r13
  4045e5:	31 d2                	xor    edx,edx
  4045e7:	4c 89 e8             	mov    rax,r13
  4045ea:	49 f7 f4             	div    r12
  4045ed:	49 89 c7             	mov    r15,rax
  4045f0:	48 89 f0             	mov    rax,rsi
  4045f3:	4c 09 e0             	or     rax,r12
  4045f6:	a8 07                	test   al,0x7
  4045f8:	b9 02 00 00 00       	mov    ecx,0x2
  4045fd:	8b 54 24 34          	mov    edx,DWORD PTR [rsp+0x34]
  404601:	0f 44 ca             	cmove  ecx,edx
  404604:	89 0c 24             	mov    DWORD PTR [rsp],ecx
  404607:	a8 03                	test   al,0x3
  404609:	bb 02 00 00 00       	mov    ebx,0x2
  40460e:	8b 7c 24 30          	mov    edi,DWORD PTR [rsp+0x30]
  404612:	0f 44 df             	cmove  ebx,edi
  404615:	49 89 f5             	mov    r13,rsi
  404618:	49 83 ff 07          	cmp    r15,0x7
  40461c:	48 8b 4c 24 20       	mov    rcx,QWORD PTR [rsp+0x20]
  404621:	0f 83 69 fc ff ff    	jae    404290 <fwrite@plt+0x3130>
  404627:	89 5c 24 04          	mov    DWORD PTR [rsp+0x4],ebx
  40462b:	4d 0f af fc          	imul   r15,r12
  40462f:	4c 89 7c 24 18       	mov    QWORD PTR [rsp+0x18],r15
  404634:	4d 39 e7             	cmp    r15,r12
  404637:	0f 8e ae 01 00 00    	jle    4047eb <fwrite@plt+0x368b>
  40463d:	48 01 74 24 18       	add    QWORD PTR [rsp+0x18],rsi
  404642:	4e 8d 34 26          	lea    r14,[rsi+r12*1]
  404646:	48 89 74 24 10       	mov    QWORD PTR [rsp+0x10],rsi
  40464b:	0f 1f 44 00 00       	nop    DWORD PTR [rax+rax*1+0x0]
  404650:	49 89 f7             	mov    r15,rsi
  404653:	49 39 f6             	cmp    r14,rsi
  404656:	4c 8b 6c 24 20       	mov    r13,QWORD PTR [rsp+0x20]
  40465b:	0f 86 94 00 00 00    	jbe    4046f5 <fwrite@plt+0x3595>
  404661:	48 8b 6c 24 10       	mov    rbp,QWORD PTR [rsp+0x10]
  404666:	66 2e 0f 1f 84 00 00 	cs nop WORD PTR [rax+rax*1+0x0]
  40466d:	00 00 00 
  404670:	49 8d 1c 2c          	lea    rbx,[r12+rbp*1]
  404674:	48 89 ef             	mov    rdi,rbp
  404677:	48 89 de             	mov    rsi,rbx
  40467a:	41 ff d5             	call   r13
  40467d:	85 c0                	test   eax,eax
  40467f:	7e 74                	jle    4046f5 <fwrite@plt+0x3595>
  404681:	83 3c 24 00          	cmp    DWORD PTR [rsp],0x0
  404685:	74 29                	je     4046b0 <fwrite@plt+0x3550>
  404687:	44 8b 44 24 04       	mov    r8d,DWORD PTR [rsp+0x4]
  40468c:	45 85 c0             	test   r8d,r8d
  40468f:	74 3f                	je     4046d0 <fwrite@plt+0x3570>
  404691:	48 89 df             	mov    rdi,rbx
  404694:	48 89 ee             	mov    rsi,rbp
  404697:	44 89 e2             	mov    edx,r12d
  40469a:	8b 0c 24             	mov    ecx,DWORD PTR [rsp]
  40469d:	e8 5e 01 00 00       	call   404800 <fwrite@plt+0x36a0>
  4046a2:	eb 3c                	jmp    4046e0 <fwrite@plt+0x3580>
  4046a4:	66 2e 0f 1f 84 00 00 	cs nop WORD PTR [rax+rax*1+0x0]
  4046ab:	00 00 00 
  4046ae:	66 90                	xchg   ax,ax
  4046b0:	4a 8b 44 25 00       	mov    rax,QWORD PTR [rbp+r12*1+0x0]
  4046b5:	48 8b 4d 00          	mov    rcx,QWORD PTR [rbp+0x0]
  4046b9:	4a 89 4c 25 00       	mov    QWORD PTR [rbp+r12*1+0x0],rcx
  4046be:	48 89 45 00          	mov    QWORD PTR [rbp+0x0],rax
  4046c2:	eb 1c                	jmp    4046e0 <fwrite@plt+0x3580>
  4046c4:	66 2e 0f 1f 84 00 00 	cs nop WORD PTR [rax+rax*1+0x0]
  4046cb:	00 00 00 
  4046ce:	66 90                	xchg   ax,ax
  4046d0:	42 8b 44 25 00       	mov    eax,DWORD PTR [rbp+r12*1+0x0]
  4046d5:	8b 4d 00             	mov    ecx,DWORD PTR [rbp+0x0]
  4046d8:	42 89 4c 25 00       	mov    DWORD PTR [rbp+r12*1+0x0],ecx
  4046dd:	89 45 00             	mov    DWORD PTR [rbp+0x0],eax
  4046e0:	48 8b 44 24 08       	mov    rax,QWORD PTR [rsp+0x8]
  4046e5:	48 01 c5             	add    rbp,rax
  4046e8:	49 8d 04 2c          	lea    rax,[r12+rbp*1]
  4046ec:	4c 39 f8             	cmp    rax,r15
  4046ef:	0f 87 7b ff ff ff    	ja     404670 <fwrite@plt+0x3510>
  4046f5:	4d 01 e6             	add    r14,r12
  4046f8:	4c 01 64 24 10       	add    QWORD PTR [rsp+0x10],r12
  4046fd:	4c 3b 74 24 18       	cmp    r14,QWORD PTR [rsp+0x18]
  404702:	4c 89 fe             	mov    rsi,r15
  404705:	0f 82 45 ff ff ff    	jb     404650 <fwrite@plt+0x34f0>
  40470b:	e9 db 00 00 00       	jmp    4047eb <fwrite@plt+0x368b>
  404710:	4c 39 e0             	cmp    rax,r12
  404713:	48 8b 44 24 28       	mov    rax,QWORD PTR [rsp+0x28]
  404718:	0f 8e cd 00 00 00    	jle    4047eb <fwrite@plt+0x368b>
  40471e:	49 89 fd             	mov    r13,rdi
  404721:	49 89 fe             	mov    r14,rdi
  404724:	66 2e 0f 1f 84 00 00 	cs nop WORD PTR [rax+rax*1+0x0]
  40472b:	00 00 00 
  40472e:	66 90                	xchg   ax,ax
  404730:	48 89 44 24 28       	mov    QWORD PTR [rsp+0x28],rax
  404735:	4c 39 e8             	cmp    rax,r13
  404738:	4c 8b 7c 24 20       	mov    r15,QWORD PTR [rsp+0x20]
  40473d:	0f 86 92 00 00 00    	jbe    4047d5 <fwrite@plt+0x3675>
  404743:	4c 89 f5             	mov    rbp,r14
  404746:	66 2e 0f 1f 84 00 00 	cs nop WORD PTR [rax+rax*1+0x0]
  40474d:	00 00 00 
  404750:	49 8d 1c 2c          	lea    rbx,[r12+rbp*1]
  404754:	48 89 ef             	mov    rdi,rbp
  404757:	48 89 de             	mov    rsi,rbx
  40475a:	41 ff d7             	call   r15
  40475d:	85 c0                	test   eax,eax
  40475f:	7e 74                	jle    4047d5 <fwrite@plt+0x3675>
  404761:	83 3c 24 00          	cmp    DWORD PTR [rsp],0x0
  404765:	74 29                	je     404790 <fwrite@plt+0x3630>
  404767:	44 8b 44 24 04       	mov    r8d,DWORD PTR [rsp+0x4]
  40476c:	45 85 c0             	test   r8d,r8d
  40476f:	74 3f                	je     4047b0 <fwrite@plt+0x3650>
  404771:	48 89 df             	mov    rdi,rbx
  404774:	48 89 ee             	mov    rsi,rbp
  404777:	44 89 e2             	mov    edx,r12d
  40477a:	8b 0c 24             	mov    ecx,DWORD PTR [rsp]
  40477d:	e8 7e 00 00 00       	call   404800 <fwrite@plt+0x36a0>
  404782:	eb 3c                	jmp    4047c0 <fwrite@plt+0x3660>
  404784:	66 2e 0f 1f 84 00 00 	cs nop WORD PTR [rax+rax*1+0x0]
  40478b:	00 00 00 
  40478e:	66 90                	xchg   ax,ax
  404790:	4a 8b 44 25 00       	mov    rax,QWORD PTR [rbp+r12*1+0x0]
  404795:	48 8b 4d 00          	mov    rcx,QWORD PTR [rbp+0x0]
  404799:	4a 89 4c 25 00       	mov    QWORD PTR [rbp+r12*1+0x0],rcx
  40479e:	48 89 45 00          	mov    QWORD PTR [rbp+0x0],rax
  4047a2:	eb 1c                	jmp    4047c0 <fwrite@plt+0x3660>
  4047a4:	66 2e 0f 1f 84 00 00 	cs nop WORD PTR [rax+rax*1+0x0]
  4047ab:	00 00 00 
  4047ae:	66 90                	xchg   ax,ax
  4047b0:	42 8b 44 25 00       	mov    eax,DWORD PTR [rbp+r12*1+0x0]
  4047b5:	8b 4d 00             	mov    ecx,DWORD PTR [rbp+0x0]
  4047b8:	42 89 4c 25 00       	mov    DWORD PTR [rbp+r12*1+0x0],ecx
  4047bd:	89 45 00             	mov    DWORD PTR [rbp+0x0],eax
  4047c0:	48 8b 44 24 08       	mov    rax,QWORD PTR [rsp+0x8]
  4047c5:	48 01 c5             	add    rbp,rax
  4047c8:	49 8d 04 2c          	lea    rax,[r12+rbp*1]
  4047cc:	4c 39 e8             	cmp    rax,r13
  4047cf:	0f 87 7b ff ff ff    	ja     404750 <fwrite@plt+0x35f0>
  4047d5:	48 8b 44 24 28       	mov    rax,QWORD PTR [rsp+0x28]
  4047da:	4c 01 e0             	add    rax,r12
  4047dd:	4d 01 e6             	add    r14,r12
  4047e0:	48 3b 44 24 18       	cmp    rax,QWORD PTR [rsp+0x18]
  4047e5:	0f 82 45 ff ff ff    	jb     404730 <fwrite@plt+0x35d0>
  4047eb:	48 83 c4 38          	add    rsp,0x38
  4047ef:	5b                   	pop    rbx
  4047f0:	41 5c                	pop    r12
  4047f2:	41 5d                	pop    r13
  4047f4:	41 5e                	pop    r14
  4047f6:	41 5f                	pop    r15
  4047f8:	5d                   	pop    rbp
  4047f9:	c3                   	ret    
  4047fa:	66 0f 1f 44 00 00    	nop    WORD PTR [rax+rax*1+0x0]
  404800:	48 63 c2             	movsxd rax,edx
  404803:	83 f9 01             	cmp    ecx,0x1
  404806:	7f 38                	jg     404840 <fwrite@plt+0x36e0>
  404808:	48 c1 e8 03          	shr    rax,0x3
  40480c:	48 83 c0 01          	add    rax,0x1
  404810:	31 c9                	xor    ecx,ecx
  404812:	66 2e 0f 1f 84 00 00 	cs nop WORD PTR [rax+rax*1+0x0]
  404819:	00 00 00 
  40481c:	0f 1f 40 00          	nop    DWORD PTR [rax+0x0]
  404820:	4c 8b 04 0f          	mov    r8,QWORD PTR [rdi+rcx*1]
  404824:	48 8b 14 0e          	mov    rdx,QWORD PTR [rsi+rcx*1]
  404828:	48 89 14 0f          	mov    QWORD PTR [rdi+rcx*1],rdx
  40482c:	4c 89 04 0e          	mov    QWORD PTR [rsi+rcx*1],r8
  404830:	48 83 c1 08          	add    rcx,0x8
  404834:	48 83 c0 ff          	add    rax,0xffffffffffffffff
  404838:	48 83 f8 01          	cmp    rax,0x1
  40483c:	7f e2                	jg     404820 <fwrite@plt+0x36c0>
  40483e:	eb 5e                	jmp    40489e <fwrite@plt+0x373e>
  404840:	41 83 f8 02          	cmp    r8d,0x2
  404844:	7d 28                	jge    40486e <fwrite@plt+0x370e>
  404846:	48 c1 e8 02          	shr    rax,0x2
  40484a:	48 83 c0 01          	add    rax,0x1
  40484e:	31 c9                	xor    ecx,ecx
  404850:	44 8b 04 0f          	mov    r8d,DWORD PTR [rdi+rcx*1]
  404854:	8b 14 0e             	mov    edx,DWORD PTR [rsi+rcx*1]
  404857:	89 14 0f             	mov    DWORD PTR [rdi+rcx*1],edx
  40485a:	44 89 04 0e          	mov    DWORD PTR [rsi+rcx*1],r8d
  40485e:	48 83 c0 ff          	add    rax,0xffffffffffffffff
  404862:	48 83 c1 04          	add    rcx,0x4
  404866:	48 83 f8 01          	cmp    rax,0x1
  40486a:	7f e4                	jg     404850 <fwrite@plt+0x36f0>
  40486c:	eb 30                	jmp    40489e <fwrite@plt+0x373e>
  40486e:	48 83 c0 01          	add    rax,0x1
  404872:	31 c9                	xor    ecx,ecx
  404874:	66 2e 0f 1f 84 00 00 	cs nop WORD PTR [rax+rax*1+0x0]
  40487b:	00 00 00 
  40487e:	66 90                	xchg   ax,ax
  404880:	44 0f b6 04 0f       	movzx  r8d,BYTE PTR [rdi+rcx*1]
  404885:	0f b6 14 0e          	movzx  edx,BYTE PTR [rsi+rcx*1]
  404889:	88 14 0f             	mov    BYTE PTR [rdi+rcx*1],dl
  40488c:	44 88 04 0e          	mov    BYTE PTR [rsi+rcx*1],r8b
  404890:	48 83 c0 ff          	add    rax,0xffffffffffffffff
  404894:	48 83 c1 01          	add    rcx,0x1
  404898:	48 83 f8 01          	cmp    rax,0x1
  40489c:	7f e2                	jg     404880 <fwrite@plt+0x3720>
  40489e:	c3                   	ret    
  40489f:	90                   	nop
  4048a0:	55                   	push   rbp
  4048a1:	41 57                	push   r15
  4048a3:	41 56                	push   r14
  4048a5:	41 54                	push   r12
  4048a7:	53                   	push   rbx
  4048a8:	49 89 cc             	mov    r12,rcx
  4048ab:	49 89 d6             	mov    r14,rdx
  4048ae:	48 89 f3             	mov    rbx,rsi
  4048b1:	49 89 ff             	mov    r15,rdi
  4048b4:	ff d1                	call   rcx
  4048b6:	89 c5                	mov    ebp,eax
  4048b8:	48 89 df             	mov    rdi,rbx
  4048bb:	4c 89 f6             	mov    rsi,r14
  4048be:	41 ff d4             	call   r12
  4048c1:	85 ed                	test   ebp,ebp
  4048c3:	78 18                	js     4048dd <fwrite@plt+0x377d>
  4048c5:	85 c0                	test   eax,eax
  4048c7:	7f 2a                	jg     4048f3 <fwrite@plt+0x3793>
  4048c9:	4c 89 ff             	mov    rdi,r15
  4048cc:	4c 89 f6             	mov    rsi,r14
  4048cf:	41 ff d4             	call   r12
  4048d2:	85 c0                	test   eax,eax
  4048d4:	4d 0f 48 f7          	cmovs  r14,r15
  4048d8:	4c 89 f3             	mov    rbx,r14
  4048db:	eb 16                	jmp    4048f3 <fwrite@plt+0x3793>
  4048dd:	85 c0                	test   eax,eax
  4048df:	78 12                	js     4048f3 <fwrite@plt+0x3793>
  4048e1:	4c 89 ff             	mov    rdi,r15
  4048e4:	4c 89 f6             	mov    rsi,r14
  4048e7:	41 ff d4             	call   r12
  4048ea:	85 c0                	test   eax,eax
  4048ec:	4d 0f 48 fe          	cmovs  r15,r14
  4048f0:	4c 89 fb             	mov    rbx,r15
  4048f3:	48 89 d8             	mov    rax,rbx
  4048f6:	5b                   	pop    rbx
  4048f7:	41 5c                	pop    r12
  4048f9:	41 5e                	pop    r14
  4048fb:	41 5f                	pop    r15
  4048fd:	5d                   	pop    rbp
  4048fe:	c3                   	ret    
  4048ff:	90                   	nop
  404900:	f3 0f 1e fa          	endbr64 
  404904:	41 57                	push   r15
  404906:	4c 8d 3d e3 24 00 00 	lea    r15,[rip+0x24e3]        # 406df0 <fwrite@plt+0x5c90>
  40490d:	41 56                	push   r14
  40490f:	49 89 d6             	mov    r14,rdx
  404912:	41 55                	push   r13
  404914:	49 89 f5             	mov    r13,rsi
  404917:	41 54                	push   r12
  404919:	41 89 fc             	mov    r12d,edi
  40491c:	55                   	push   rbp
  40491d:	48 8d 2d d4 24 00 00 	lea    rbp,[rip+0x24d4]        # 406df8 <fwrite@plt+0x5c98>
  404924:	53                   	push   rbx
  404925:	4c 29 fd             	sub    rbp,r15
  404928:	48 83 ec 08          	sub    rsp,0x8
  40492c:	e8 cf c6 ff ff       	call   401000 <free@plt-0x30>
  404931:	48 c1 fd 03          	sar    rbp,0x3
  404935:	74 1f                	je     404956 <fwrite@plt+0x37f6>
  404937:	31 db                	xor    ebx,ebx
  404939:	0f 1f 80 00 00 00 00 	nop    DWORD PTR [rax+0x0]
  404940:	4c 89 f2             	mov    rdx,r14
  404943:	4c 89 ee             	mov    rsi,r13
  404946:	44 89 e7             	mov    edi,r12d
  404949:	41 ff 14 df          	call   QWORD PTR [r15+rbx*8]
  40494d:	48 83 c3 01          	add    rbx,0x1
  404951:	48 39 dd             	cmp    rbp,rbx
  404954:	75 ea                	jne    404940 <fwrite@plt+0x37e0>
  404956:	48 83 c4 08          	add    rsp,0x8
  40495a:	5b                   	pop    rbx
  40495b:	5d                   	pop    rbp
  40495c:	41 5c                	pop    r12
  40495e:	41 5d                	pop    r13
  404960:	41 5e                	pop    r14
  404962:	41 5f                	pop    r15
  404964:	c3                   	ret    
  404965:	66 66 2e 0f 1f 84 00 	data16 cs nop WORD PTR [rax+rax*1+0x0]
  40496c:	00 00 00 00 
  404970:	f3 0f 1e fa          	endbr64 
  404974:	c3                   	ret    

Disassembly of section .fini:

0000000000404978 <.fini>:
  404978:	f3 0f 1e fa          	endbr64 
  40497c:	48 83 ec 08          	sub    rsp,0x8
  404980:	48 83 c4 08          	add    rsp,0x8
  404984:	c3                   	ret    
