
/home/jjang/Desktop/sample/llvm/505/strip/mcf_r_op2:     file format elf64-x86-64


Disassembly of section .init:

0000000000401000 <.init>:
  401000:	f3 0f 1e fa          	endbr64 
  401004:	48 83 ec 08          	sub    rsp,0x8
  401008:	48 8b 05 e9 af 00 00 	mov    rax,QWORD PTR [rip+0xafe9]        # 40bff8 <fwrite@plt+0xaea8>
  40100f:	48 85 c0             	test   rax,rax
  401012:	74 02                	je     401016 <free@plt-0x1a>
  401014:	ff d0                	call   rax
  401016:	48 83 c4 08          	add    rsp,0x8
  40101a:	c3                   	ret    

Disassembly of section .plt:

0000000000401020 <free@plt-0x10>:
  401020:	ff 35 e2 af 00 00    	push   QWORD PTR [rip+0xafe2]        # 40c008 <fwrite@plt+0xaeb8>
  401026:	ff 25 e4 af 00 00    	jmp    QWORD PTR [rip+0xafe4]        # 40c010 <fwrite@plt+0xaec0>
  40102c:	0f 1f 40 00          	nop    DWORD PTR [rax+0x0]

0000000000401030 <free@plt>:
  401030:	ff 25 e2 af 00 00    	jmp    QWORD PTR [rip+0xafe2]        # 40c018 <fwrite@plt+0xaec8>
  401036:	68 00 00 00 00       	push   0x0
  40103b:	e9 e0 ff ff ff       	jmp    401020 <free@plt-0x10>

0000000000401040 <putchar@plt>:
  401040:	ff 25 da af 00 00    	jmp    QWORD PTR [rip+0xafda]        # 40c020 <fwrite@plt+0xaed0>
  401046:	68 01 00 00 00       	push   0x1
  40104b:	e9 d0 ff ff ff       	jmp    401020 <free@plt-0x10>

0000000000401050 <strcpy@plt>:
  401050:	ff 25 d2 af 00 00    	jmp    QWORD PTR [rip+0xafd2]        # 40c028 <fwrite@plt+0xaed8>
  401056:	68 02 00 00 00       	push   0x2
  40105b:	e9 c0 ff ff ff       	jmp    401020 <free@plt-0x10>

0000000000401060 <puts@plt>:
  401060:	ff 25 ca af 00 00    	jmp    QWORD PTR [rip+0xafca]        # 40c030 <fwrite@plt+0xaee0>
  401066:	68 03 00 00 00       	push   0x3
  40106b:	e9 b0 ff ff ff       	jmp    401020 <free@plt-0x10>

0000000000401070 <fclose@plt>:
  401070:	ff 25 c2 af 00 00    	jmp    QWORD PTR [rip+0xafc2]        # 40c038 <fwrite@plt+0xaee8>
  401076:	68 04 00 00 00       	push   0x4
  40107b:	e9 a0 ff ff ff       	jmp    401020 <free@plt-0x10>

0000000000401080 <printf@plt>:
  401080:	ff 25 ba af 00 00    	jmp    QWORD PTR [rip+0xafba]        # 40c040 <fwrite@plt+0xaef0>
  401086:	68 05 00 00 00       	push   0x5
  40108b:	e9 90 ff ff ff       	jmp    401020 <free@plt-0x10>

0000000000401090 <memset@plt>:
  401090:	ff 25 b2 af 00 00    	jmp    QWORD PTR [rip+0xafb2]        # 40c048 <fwrite@plt+0xaef8>
  401096:	68 06 00 00 00       	push   0x6
  40109b:	e9 80 ff ff ff       	jmp    401020 <free@plt-0x10>

00000000004010a0 <calloc@plt>:
  4010a0:	ff 25 aa af 00 00    	jmp    QWORD PTR [rip+0xafaa]        # 40c050 <fwrite@plt+0xaf00>
  4010a6:	68 07 00 00 00       	push   0x7
  4010ab:	e9 70 ff ff ff       	jmp    401020 <free@plt-0x10>

00000000004010b0 <fprintf@plt>:
  4010b0:	ff 25 a2 af 00 00    	jmp    QWORD PTR [rip+0xafa2]        # 40c058 <fwrite@plt+0xaf08>
  4010b6:	68 08 00 00 00       	push   0x8
  4010bb:	e9 60 ff ff ff       	jmp    401020 <free@plt-0x10>

00000000004010c0 <strtol@plt>:
  4010c0:	ff 25 9a af 00 00    	jmp    QWORD PTR [rip+0xaf9a]        # 40c060 <fwrite@plt+0xaf10>
  4010c6:	68 09 00 00 00       	push   0x9
  4010cb:	e9 50 ff ff ff       	jmp    401020 <free@plt-0x10>

00000000004010d0 <fgets_unlocked@plt>:
  4010d0:	ff 25 92 af 00 00    	jmp    QWORD PTR [rip+0xaf92]        # 40c068 <fwrite@plt+0xaf18>
  4010d6:	68 0a 00 00 00       	push   0xa
  4010db:	e9 40 ff ff ff       	jmp    401020 <free@plt-0x10>

00000000004010e0 <fflush@plt>:
  4010e0:	ff 25 8a af 00 00    	jmp    QWORD PTR [rip+0xaf8a]        # 40c070 <fwrite@plt+0xaf20>
  4010e6:	68 0b 00 00 00       	push   0xb
  4010eb:	e9 30 ff ff ff       	jmp    401020 <free@plt-0x10>

00000000004010f0 <__isoc99_sscanf@plt>:
  4010f0:	ff 25 82 af 00 00    	jmp    QWORD PTR [rip+0xaf82]        # 40c078 <fwrite@plt+0xaf28>
  4010f6:	68 0c 00 00 00       	push   0xc
  4010fb:	e9 20 ff ff ff       	jmp    401020 <free@plt-0x10>

0000000000401100 <fwrite_unlocked@plt>:
  401100:	ff 25 7a af 00 00    	jmp    QWORD PTR [rip+0xaf7a]        # 40c080 <fwrite@plt+0xaf30>
  401106:	68 0d 00 00 00       	push   0xd
  40110b:	e9 10 ff ff ff       	jmp    401020 <free@plt-0x10>

0000000000401110 <realloc@plt>:
  401110:	ff 25 72 af 00 00    	jmp    QWORD PTR [rip+0xaf72]        # 40c088 <fwrite@plt+0xaf38>
  401116:	68 0e 00 00 00       	push   0xe
  40111b:	e9 00 ff ff ff       	jmp    401020 <free@plt-0x10>

0000000000401120 <fopen@plt>:
  401120:	ff 25 6a af 00 00    	jmp    QWORD PTR [rip+0xaf6a]        # 40c090 <fwrite@plt+0xaf40>
  401126:	68 0f 00 00 00       	push   0xf
  40112b:	e9 f0 fe ff ff       	jmp    401020 <free@plt-0x10>

0000000000401130 <sprintf@plt>:
  401130:	ff 25 62 af 00 00    	jmp    QWORD PTR [rip+0xaf62]        # 40c098 <fwrite@plt+0xaf48>
  401136:	68 10 00 00 00       	push   0x10
  40113b:	e9 e0 fe ff ff       	jmp    401020 <free@plt-0x10>

0000000000401140 <exit@plt>:
  401140:	ff 25 5a af 00 00    	jmp    QWORD PTR [rip+0xaf5a]        # 40c0a0 <fwrite@plt+0xaf50>
  401146:	68 11 00 00 00       	push   0x11
  40114b:	e9 d0 fe ff ff       	jmp    401020 <free@plt-0x10>

0000000000401150 <fwrite@plt>:
  401150:	ff 25 52 af 00 00    	jmp    QWORD PTR [rip+0xaf52]        # 40c0a8 <fwrite@plt+0xaf58>
  401156:	68 12 00 00 00       	push   0x12
  40115b:	e9 c0 fe ff ff       	jmp    401020 <free@plt-0x10>

Disassembly of section .text:

0000000000401160 <.text>:
  401160:	f3 0f 1e fa          	endbr64 
  401164:	31 ed                	xor    ebp,ebp
  401166:	49 89 d1             	mov    r9,rdx
  401169:	5e                   	pop    rsi
  40116a:	48 89 e2             	mov    rdx,rsp
  40116d:	48 83 e4 f0          	and    rsp,0xfffffffffffffff0
  401171:	50                   	push   rax
  401172:	54                   	push   rsp
  401173:	49 c7 c0 b0 8e 40 00 	mov    r8,0x408eb0
  40117a:	48 c7 c1 40 8e 40 00 	mov    rcx,0x408e40
  401181:	48 c7 c7 70 13 40 00 	mov    rdi,0x401370
  401188:	ff 15 62 ae 00 00    	call   QWORD PTR [rip+0xae62]        # 40bff0 <fwrite@plt+0xaea0>
  40118e:	f4                   	hlt    
  40118f:	90                   	nop
  401190:	f3 0f 1e fa          	endbr64 
  401194:	c3                   	ret    
  401195:	66 2e 0f 1f 84 00 00 	cs nop WORD PTR [rax+rax*1+0x0]
  40119c:	00 00 00 
  40119f:	90                   	nop
  4011a0:	b8 c0 c0 40 00       	mov    eax,0x40c0c0
  4011a5:	48 3d c0 c0 40 00    	cmp    rax,0x40c0c0
  4011ab:	74 13                	je     4011c0 <fwrite@plt+0x70>
  4011ad:	b8 00 00 00 00       	mov    eax,0x0
  4011b2:	48 85 c0             	test   rax,rax
  4011b5:	74 09                	je     4011c0 <fwrite@plt+0x70>
  4011b7:	bf c0 c0 40 00       	mov    edi,0x40c0c0
  4011bc:	ff e0                	jmp    rax
  4011be:	66 90                	xchg   ax,ax
  4011c0:	c3                   	ret    
  4011c1:	66 66 2e 0f 1f 84 00 	data16 cs nop WORD PTR [rax+rax*1+0x0]
  4011c8:	00 00 00 00 
  4011cc:	0f 1f 40 00          	nop    DWORD PTR [rax+0x0]
  4011d0:	be c0 c0 40 00       	mov    esi,0x40c0c0
  4011d5:	48 81 ee c0 c0 40 00 	sub    rsi,0x40c0c0
  4011dc:	48 89 f0             	mov    rax,rsi
  4011df:	48 c1 ee 3f          	shr    rsi,0x3f
  4011e3:	48 c1 f8 03          	sar    rax,0x3
  4011e7:	48 01 c6             	add    rsi,rax
  4011ea:	48 d1 fe             	sar    rsi,1
  4011ed:	74 11                	je     401200 <fwrite@plt+0xb0>
  4011ef:	b8 00 00 00 00       	mov    eax,0x0
  4011f4:	48 85 c0             	test   rax,rax
  4011f7:	74 07                	je     401200 <fwrite@plt+0xb0>
  4011f9:	bf c0 c0 40 00       	mov    edi,0x40c0c0
  4011fe:	ff e0                	jmp    rax
  401200:	c3                   	ret    
  401201:	66 66 2e 0f 1f 84 00 	data16 cs nop WORD PTR [rax+rax*1+0x0]
  401208:	00 00 00 00 
  40120c:	0f 1f 40 00          	nop    DWORD PTR [rax+0x0]
  401210:	f3 0f 1e fa          	endbr64 
  401214:	80 3d cd ae 00 00 00 	cmp    BYTE PTR [rip+0xaecd],0x0        # 40c0e8 <stderr@@GLIBC_2.2.5+0x8>
  40121b:	75 13                	jne    401230 <fwrite@plt+0xe0>
  40121d:	55                   	push   rbp
  40121e:	48 89 e5             	mov    rbp,rsp
  401221:	e8 7a ff ff ff       	call   4011a0 <fwrite@plt+0x50>
  401226:	c6 05 bb ae 00 00 01 	mov    BYTE PTR [rip+0xaebb],0x1        # 40c0e8 <stderr@@GLIBC_2.2.5+0x8>
  40122d:	5d                   	pop    rbp
  40122e:	c3                   	ret    
  40122f:	90                   	nop
  401230:	c3                   	ret    
  401231:	66 66 2e 0f 1f 84 00 	data16 cs nop WORD PTR [rax+rax*1+0x0]
  401238:	00 00 00 00 
  40123c:	0f 1f 40 00          	nop    DWORD PTR [rax+0x0]
  401240:	f3 0f 1e fa          	endbr64 
  401244:	eb 8a                	jmp    4011d0 <fwrite@plt+0x80>
  401246:	66 2e 0f 1f 84 00 00 	cs nop WORD PTR [rax+rax*1+0x0]
  40124d:	00 00 00 
  401250:	53                   	push   rbx
  401251:	48 c7 c3 ff ff ff ff 	mov    rbx,0xffffffffffffffff
  401258:	0f 1f 84 00 00 00 00 	nop    DWORD PTR [rax+rax*1+0x0]
  40125f:	00 
  401260:	48 85 db             	test   rbx,rbx
  401263:	0f 84 db 00 00 00    	je     401344 <fwrite@plt+0x1f4>
  401269:	48 8b 35 58 b0 00 00 	mov    rsi,QWORD PTR [rip+0xb058]        # 40c2c8 <stderr@@GLIBC_2.2.5+0x1e8>
  401270:	bf 04 90 40 00       	mov    edi,0x409004
  401275:	31 c0                	xor    eax,eax
  401277:	e8 04 fe ff ff       	call   401080 <printf@plt>
  40127c:	bf 20 c1 40 00       	mov    edi,0x40c120
  401281:	e8 0a 3d 00 00       	call   404f90 <fwrite@plt+0x3e40>
  401286:	48 8b 35 f3 b0 00 00 	mov    rsi,QWORD PTR [rip+0xb0f3]        # 40c380 <stderr@@GLIBC_2.2.5+0x2a0>
  40128d:	bf 26 90 40 00       	mov    edi,0x409026
  401292:	31 c0                	xor    eax,eax
  401294:	e8 e7 fd ff ff       	call   401080 <printf@plt>
  401299:	bf 20 c1 40 00       	mov    edi,0x40c120
  40129e:	e8 0d 03 00 00       	call   4015b0 <fwrite@plt+0x460>
  4012a3:	bf 48 90 40 00       	mov    edi,0x409048
  4012a8:	b0 01                	mov    al,0x1
  4012aa:	e8 d1 fd ff ff       	call   401080 <printf@plt>
  4012af:	48 83 3d 21 b0 00 00 	cmp    QWORD PTR [rip+0xb021],0x0        # 40c2d8 <stderr@@GLIBC_2.2.5+0x1f8>
  4012b6:	00 
  4012b7:	74 37                	je     4012f0 <fwrite@plt+0x1a0>
  4012b9:	bf 20 c1 40 00       	mov    edi,0x40c120
  4012be:	48 c7 c6 ff ff ff ff 	mov    rsi,0xffffffffffffffff
  4012c5:	31 d2                	xor    edx,edx
  4012c7:	e8 f4 27 00 00       	call   403ac0 <fwrite@plt+0x2970>
  4012cc:	48 85 c0             	test   rax,rax
  4012cf:	78 5f                	js     401330 <fwrite@plt+0x1e0>
  4012d1:	74 33                	je     401306 <fwrite@plt+0x1b6>
  4012d3:	48 89 c1             	mov    rcx,rax
  4012d6:	bf 6c 90 40 00       	mov    edi,0x40906c
  4012db:	31 c0                	xor    eax,eax
  4012dd:	48 89 ce             	mov    rsi,rcx
  4012e0:	e8 9b fd ff ff       	call   401080 <printf@plt>
  4012e5:	eb 1f                	jmp    401306 <fwrite@plt+0x1b6>
  4012e7:	66 0f 1f 84 00 00 00 	nop    WORD PTR [rax+rax*1+0x0]
  4012ee:	00 00 
  4012f0:	48 8b 15 d1 af 00 00 	mov    rdx,QWORD PTR [rip+0xafd1]        # 40c2c8 <stderr@@GLIBC_2.2.5+0x1e8>
  4012f7:	bf 20 c1 40 00       	mov    edi,0x40c120
  4012fc:	be 50 17 40 00       	mov    esi,0x401750
  401301:	e8 5a 11 00 00       	call   402460 <fwrite@plt+0x1310>
  401306:	bf 20 c1 40 00       	mov    edi,0x40c120
  40130b:	e8 80 19 00 00       	call   402c90 <fwrite@plt+0x1b40>
  401310:	48 89 c3             	mov    rbx,rax
  401313:	48 85 c0             	test   rax,rax
  401316:	74 0f                	je     401327 <fwrite@plt+0x1d7>
  401318:	bf 8e 90 40 00       	mov    edi,0x40908e
  40131d:	31 c0                	xor    eax,eax
  40131f:	48 89 de             	mov    rsi,rbx
  401322:	e8 59 fd ff ff       	call   401080 <printf@plt>
  401327:	48 85 db             	test   rbx,rbx
  40132a:	0f 89 30 ff ff ff    	jns    401260 <fwrite@plt+0x110>
  401330:	bf 10 91 40 00       	mov    edi,0x409110
  401335:	e8 26 fd ff ff       	call   401060 <puts@plt>
  40133a:	bf ff ff ff ff       	mov    edi,0xffffffff
  40133f:	e8 fc fd ff ff       	call   401140 <exit@plt>
  401344:	bf 20 c1 40 00       	mov    edi,0x40c120
  401349:	e8 62 02 00 00       	call   4015b0 <fwrite@plt+0x460>
  40134e:	c5 fb 11 05 e2 af 00 	vmovsd QWORD PTR [rip+0xafe2],xmm0        # 40c338 <stderr@@GLIBC_2.2.5+0x258>
  401355:	00 
  401356:	bf b0 90 40 00       	mov    edi,0x4090b0
  40135b:	b0 01                	mov    al,0x1
  40135d:	e8 1e fd ff ff       	call   401080 <printf@plt>
  401362:	31 c0                	xor    eax,eax
  401364:	5b                   	pop    rbx
  401365:	c3                   	ret    
  401366:	66 2e 0f 1f 84 00 00 	cs nop WORD PTR [rax+rax*1+0x0]
  40136d:	00 00 00 
  401370:	55                   	push   rbp
  401371:	41 56                	push   r14
  401373:	53                   	push   rbx
  401374:	48 83 ec 50          	sub    rsp,0x50
  401378:	41 be ff ff ff ff    	mov    r14d,0xffffffff
  40137e:	83 ff 02             	cmp    edi,0x2
  401381:	0f 8c 17 01 00 00    	jl     40149e <fwrite@plt+0x34e>
  401387:	48 89 f3             	mov    rbx,rsi
  40138a:	89 fd                	mov    ebp,edi
  40138c:	bf 30 91 40 00       	mov    edi,0x409130
  401391:	e8 ca fc ff ff       	call   401060 <puts@plt>
  401396:	bf 50 91 40 00       	mov    edi,0x409150
  40139b:	e8 c0 fc ff ff       	call   401060 <puts@plt>
  4013a0:	bf 90 91 40 00       	mov    edi,0x409190
  4013a5:	e8 b6 fc ff ff       	call   401060 <puts@plt>
  4013aa:	bf c0 91 40 00       	mov    edi,0x4091c0
  4013af:	e8 ac fc ff ff       	call   401060 <puts@plt>
  4013b4:	bf f0 91 40 00       	mov    edi,0x4091f0
  4013b9:	e8 a2 fc ff ff       	call   401060 <puts@plt>
  4013be:	bf 0a 00 00 00       	mov    edi,0xa
  4013c3:	e8 78 fc ff ff       	call   401040 <putchar@plt>
  4013c8:	bf 20 c1 40 00       	mov    edi,0x40c120
  4013cd:	31 f6                	xor    esi,esi
  4013cf:	ba 88 02 00 00       	mov    edx,0x288
  4013d4:	e8 b7 fc ff ff       	call   401090 <memset@plt>
  4013d9:	48 c7 05 4c af 00 00 	mov    QWORD PTR [rip+0xaf4c],0x989680        # 40c330 <stderr@@GLIBC_2.2.5+0x250>
  4013e0:	80 96 98 00 
  4013e4:	48 8b 73 08          	mov    rsi,QWORD PTR [rbx+0x8]
  4013e8:	bf 20 c1 40 00       	mov    edi,0x40c120
  4013ed:	e8 5e fc ff ff       	call   401050 <strcpy@plt>
  4013f2:	83 fd 03             	cmp    ebp,0x3
  4013f5:	75 26                	jne    40141d <fwrite@plt+0x2cd>
  4013f7:	48 8b 7b 10          	mov    rdi,QWORD PTR [rbx+0x10]
  4013fb:	31 f6                	xor    esi,esi
  4013fd:	ba 0a 00 00 00       	mov    edx,0xa
  401402:	e8 b9 fc ff ff       	call   4010c0 <strtol@plt>
  401407:	48 89 c1             	mov    rcx,rax
  40140a:	48 89 e7             	mov    rdi,rsp
  40140d:	be d4 90 40 00       	mov    esi,0x4090d4
  401412:	31 c0                	xor    eax,eax
  401414:	89 ca                	mov    edx,ecx
  401416:	e8 15 fd ff ff       	call   401130 <sprintf@plt>
  40141b:	eb 0e                	jmp    40142b <fwrite@plt+0x2db>
  40141d:	48 b8 6d 63 66 2e 6f 	movabs rax,0x74756f2e66636d
  401424:	75 74 00 
  401427:	48 89 04 24          	mov    QWORD PTR [rsp],rax
  40142b:	bf 20 c1 40 00       	mov    edi,0x40c120
  401430:	e8 6b 07 00 00       	call   401ba0 <fwrite@plt+0xa50>
  401435:	48 85 c0             	test   rax,rax
  401438:	74 16                	je     401450 <fwrite@plt+0x300>
  40143a:	bf 40 92 40 00       	mov    edi,0x409240
  40143f:	e8 1c fc ff ff       	call   401060 <puts@plt>
  401444:	bf 20 c1 40 00       	mov    edi,0x40c120
  401449:	e8 e2 06 00 00       	call   401b30 <fwrite@plt+0x9e0>
  40144e:	eb 4e                	jmp    40149e <fwrite@plt+0x34e>
  401450:	48 8b 35 61 ae 00 00 	mov    rsi,QWORD PTR [rip+0xae61]        # 40c2b8 <stderr@@GLIBC_2.2.5+0x1d8>
  401457:	bf df 90 40 00       	mov    edi,0x4090df
  40145c:	31 c0                	xor    eax,eax
  40145e:	e8 1d fc ff ff       	call   401080 <printf@plt>
  401463:	bf 20 c1 40 00       	mov    edi,0x40c120
  401468:	e8 23 2c 00 00       	call   404090 <fwrite@plt+0x2f40>
  40146d:	e8 de fd ff ff       	call   401250 <fwrite@plt+0x100>
  401472:	48 89 e7             	mov    rdi,rsp
  401475:	be 20 c1 40 00       	mov    esi,0x40c120
  40147a:	e8 01 2f 00 00       	call   404380 <fwrite@plt+0x3230>
  40147f:	48 89 c3             	mov    rbx,rax
  401482:	bf 20 c1 40 00       	mov    edi,0x40c120
  401487:	e8 a4 06 00 00       	call   401b30 <fwrite@plt+0x9e0>
  40148c:	48 85 db             	test   rbx,rbx
  40148f:	75 0d                	jne    40149e <fwrite@plt+0x34e>
  401491:	bf 01 91 40 00       	mov    edi,0x409101
  401496:	e8 c5 fb ff ff       	call   401060 <puts@plt>
  40149b:	45 31 f6             	xor    r14d,r14d
  40149e:	44 89 f0             	mov    eax,r14d
  4014a1:	48 83 c4 50          	add    rsp,0x50
  4014a5:	5b                   	pop    rbx
  4014a6:	41 5e                	pop    r14
  4014a8:	5d                   	pop    rbp
  4014a9:	c3                   	ret    
  4014aa:	66 0f 1f 44 00 00    	nop    WORD PTR [rax+rax*1+0x0]
  4014b0:	41 57                	push   r15
  4014b2:	41 56                	push   r14
  4014b4:	41 55                	push   r13
  4014b6:	41 54                	push   r12
  4014b8:	53                   	push   rbx
  4014b9:	49 89 f6             	mov    r14,rsi
  4014bc:	49 89 ff             	mov    r15,rdi
  4014bf:	48 8b 87 28 02 00 00 	mov    rax,QWORD PTR [rdi+0x228]
  4014c6:	48 8b 8f 30 02 00 00 	mov    rcx,QWORD PTR [rdi+0x230]
  4014cd:	48 39 c8             	cmp    rax,rcx
  4014d0:	73 1c                	jae    4014ee <fwrite@plt+0x39e>
  4014d2:	c5 f8 57 c0          	vxorps xmm0,xmm0,xmm0
  4014d6:	66 2e 0f 1f 84 00 00 	cs nop WORD PTR [rax+rax*1+0x0]
  4014dd:	00 00 00 
  4014e0:	c5 f8 11 40 38       	vmovups XMMWORD PTR [rax+0x38],xmm0
  4014e5:	48 83 c0 68          	add    rax,0x68
  4014e9:	48 39 c8             	cmp    rax,rcx
  4014ec:	72 f2                	jb     4014e0 <fwrite@plt+0x390>
  4014ee:	49 83 bf a8 01 00 00 	cmp    QWORD PTR [r15+0x1a8],0x0
  4014f5:	00 
  4014f6:	0f 8e a0 00 00 00    	jle    40159c <fwrite@plt+0x44c>
  4014fc:	4d 8b a7 38 02 00 00 	mov    r12,QWORD PTR [r15+0x238]
  401503:	49 8b 44 24 10       	mov    rax,QWORD PTR [r12+0x10]
  401508:	48 8b 48 38          	mov    rcx,QWORD PTR [rax+0x38]
  40150c:	49 89 4c 24 28       	mov    QWORD PTR [r12+0x28],rcx
  401511:	4c 89 60 38          	mov    QWORD PTR [rax+0x38],r12
  401515:	49 8b 44 24 18       	mov    rax,QWORD PTR [r12+0x18]
  40151a:	48 8b 48 40          	mov    rcx,QWORD PTR [rax+0x40]
  40151e:	49 89 4c 24 30       	mov    QWORD PTR [r12+0x30],rcx
  401523:	4c 89 60 40          	mov    QWORD PTR [rax+0x40],r12
  401527:	be 01 00 00 00       	mov    esi,0x1
  40152c:	4c 89 ff             	mov    rdi,r15
  40152f:	41 ff d6             	call   r14
  401532:	49 83 bf a8 01 00 00 	cmp    QWORD PTR [r15+0x1a8],0x2
  401539:	02 
  40153a:	7c 60                	jl     40159c <fwrite@plt+0x44c>
  40153c:	bb 01 00 00 00       	mov    ebx,0x1
  401541:	66 2e 0f 1f 84 00 00 	cs nop WORD PTR [rax+rax*1+0x0]
  401548:	00 00 00 
  40154b:	0f 1f 44 00 00       	nop    DWORD PTR [rax+rax*1+0x0]
  401550:	48 8d 04 c0          	lea    rax,[rax+rax*8]
  401554:	49 8d 0c c4          	lea    rcx,[r12+rax*8]
  401558:	4d 8b af 38 02 00 00 	mov    r13,QWORD PTR [r15+0x238]
  40155f:	49 8b 54 c4 10       	mov    rdx,QWORD PTR [r12+rax*8+0x10]
  401564:	48 8b 72 38          	mov    rsi,QWORD PTR [rdx+0x38]
  401568:	49 89 74 c4 28       	mov    QWORD PTR [r12+rax*8+0x28],rsi
  40156d:	48 89 4a 38          	mov    QWORD PTR [rdx+0x38],rcx
  401571:	49 8b 54 c4 18       	mov    rdx,QWORD PTR [r12+rax*8+0x18]
  401576:	48 8b 72 40          	mov    rsi,QWORD PTR [rdx+0x40]
  40157a:	49 89 74 c4 30       	mov    QWORD PTR [r12+rax*8+0x30],rsi
  40157f:	48 89 4a 40          	mov    QWORD PTR [rdx+0x40],rcx
  401583:	48 83 c3 01          	add    rbx,0x1
  401587:	4c 89 ff             	mov    rdi,r15
  40158a:	48 89 de             	mov    rsi,rbx
  40158d:	41 ff d6             	call   r14
  401590:	49 39 9f a8 01 00 00 	cmp    QWORD PTR [r15+0x1a8],rbx
  401597:	4d 89 ec             	mov    r12,r13
  40159a:	7f b4                	jg     401550 <fwrite@plt+0x400>
  40159c:	5b                   	pop    rbx
  40159d:	41 5c                	pop    r12
  40159f:	41 5d                	pop    r13
  4015a1:	41 5e                	pop    r14
  4015a3:	41 5f                	pop    r15
  4015a5:	c3                   	ret    
  4015a6:	66 2e 0f 1f 84 00 00 	cs nop WORD PTR [rax+rax*1+0x0]
  4015ad:	00 00 00 
  4015b0:	53                   	push   rbx
  4015b1:	4c 8b 97 a8 01 00 00 	mov    r10,QWORD PTR [rdi+0x1a8]
  4015b8:	48 8b 9f 38 02 00 00 	mov    rbx,QWORD PTR [rdi+0x238]
  4015bf:	4d 85 d2             	test   r10,r10
  4015c2:	7e 7b                	jle    40163f <fwrite@plt+0x4ef>
  4015c4:	45 89 d0             	mov    r8d,r10d
  4015c7:	41 83 e0 01          	and    r8d,0x1
  4015cb:	49 83 fa 01          	cmp    r10,0x1
  4015cf:	75 09                	jne    4015da <fwrite@plt+0x48a>
  4015d1:	31 f6                	xor    esi,esi
  4015d3:	4d 85 c0             	test   r8,r8
  4015d6:	75 50                	jne    401628 <fwrite@plt+0x4d8>
  4015d8:	eb 65                	jmp    40163f <fwrite@plt+0x4ef>
  4015da:	4d 89 d1             	mov    r9,r10
  4015dd:	4d 29 c1             	sub    r9,r8
  4015e0:	48 89 d9             	mov    rcx,rbx
  4015e3:	48 83 e9 80          	sub    rcx,0xffffffffffffff80
  4015e7:	31 f6                	xor    esi,esi
  4015e9:	0f 1f 80 00 00 00 00 	nop    DWORD PTR [rax+0x0]
  4015f0:	44 0f b7 59 a0       	movzx  r11d,WORD PTR [rcx-0x60]
  4015f5:	31 c0                	xor    eax,eax
  4015f7:	41 83 fb 02          	cmp    r11d,0x2
  4015fb:	0f 94 c0             	sete   al
  4015fe:	48 89 41 b8          	mov    QWORD PTR [rcx-0x48],rax
  401602:	44 0f b7 59 e8       	movzx  r11d,WORD PTR [rcx-0x18]
  401607:	31 c0                	xor    eax,eax
  401609:	41 83 fb 02          	cmp    r11d,0x2
  40160d:	0f 94 c0             	sete   al
  401610:	48 89 01             	mov    QWORD PTR [rcx],rax
  401613:	48 83 c6 02          	add    rsi,0x2
  401617:	48 81 c1 90 00 00 00 	add    rcx,0x90
  40161e:	49 39 f1             	cmp    r9,rsi
  401621:	75 cd                	jne    4015f0 <fwrite@plt+0x4a0>
  401623:	4d 85 c0             	test   r8,r8
  401626:	74 17                	je     40163f <fwrite@plt+0x4ef>
  401628:	48 8d 04 f6          	lea    rax,[rsi+rsi*8]
  40162c:	0f b7 4c c3 20       	movzx  ecx,WORD PTR [rbx+rax*8+0x20]
  401631:	31 f6                	xor    esi,esi
  401633:	83 f9 02             	cmp    ecx,0x2
  401636:	40 0f 94 c6          	sete   sil
  40163a:	48 89 74 c3 38       	mov    QWORD PTR [rbx+rax*8+0x38],rsi
  40163f:	4c 8b 87 90 01 00 00 	mov    r8,QWORD PTR [rdi+0x190]
  401646:	4d 85 c0             	test   r8,r8
  401649:	7e 2d                	jle    401678 <fwrite@plt+0x528>
  40164b:	48 8b b7 28 02 00 00 	mov    rsi,QWORD PTR [rdi+0x228]
  401652:	48 81 c6 b8 00 00 00 	add    rsi,0xb8
  401659:	b9 01 00 00 00       	mov    ecx,0x1
  40165e:	66 90                	xchg   ax,ax
  401660:	48 8b 46 e0          	mov    rax,QWORD PTR [rsi-0x20]
  401664:	48 8b 16             	mov    rdx,QWORD PTR [rsi]
  401667:	48 89 50 38          	mov    QWORD PTR [rax+0x38],rdx
  40166b:	48 83 c1 01          	add    rcx,0x1
  40166f:	48 83 c6 68          	add    rsi,0x68
  401673:	49 39 c8             	cmp    r8,rcx
  401676:	7d e8                	jge    401660 <fwrite@plt+0x510>
  401678:	4d 85 d2             	test   r10,r10
  40167b:	7e 5f                	jle    4016dc <fwrite@plt+0x58c>
  40167d:	48 83 c3 08          	add    rbx,0x8
  401681:	31 c9                	xor    ecx,ecx
  401683:	45 31 c0             	xor    r8d,r8d
  401686:	66 2e 0f 1f 84 00 00 	cs nop WORD PTR [rax+rax*1+0x0]
  40168d:	00 00 00 
  401690:	48 83 7b 30 00       	cmp    QWORD PTR [rbx+0x30],0x0
  401695:	74 39                	je     4016d0 <fwrite@plt+0x580>
  401697:	48 8b 43 08          	mov    rax,QWORD PTR [rbx+0x8]
  40169b:	8b 40 60             	mov    eax,DWORD PTR [rax+0x60]
  40169e:	85 c0                	test   eax,eax
  4016a0:	78 1e                	js     4016c0 <fwrite@plt+0x570>
  4016a2:	48 8b 33             	mov    rsi,QWORD PTR [rbx]
  4016a5:	75 26                	jne    4016cd <fwrite@plt+0x57d>
  4016a7:	48 01 ce             	add    rsi,rcx
  4016aa:	48 2b b7 10 02 00 00 	sub    rsi,QWORD PTR [rdi+0x210]
  4016b1:	49 83 c0 01          	add    r8,0x1
  4016b5:	48 89 f1             	mov    rcx,rsi
  4016b8:	eb 16                	jmp    4016d0 <fwrite@plt+0x580>
  4016ba:	66 0f 1f 44 00 00    	nop    WORD PTR [rax+rax*1+0x0]
  4016c0:	48 8b 43 10          	mov    rax,QWORD PTR [rbx+0x10]
  4016c4:	83 78 60 00          	cmp    DWORD PTR [rax+0x60],0x0
  4016c8:	7f 06                	jg     4016d0 <fwrite@plt+0x580>
  4016ca:	48 8b 33             	mov    rsi,QWORD PTR [rbx]
  4016cd:	48 01 f1             	add    rcx,rsi
  4016d0:	48 83 c3 48          	add    rbx,0x48
  4016d4:	49 83 c2 ff          	add    r10,0xffffffffffffffff
  4016d8:	75 b6                	jne    401690 <fwrite@plt+0x540>
  4016da:	eb 05                	jmp    4016e1 <fwrite@plt+0x591>
  4016dc:	45 31 c0             	xor    r8d,r8d
  4016df:	31 c9                	xor    ecx,ecx
  4016e1:	c4 c1 fb 2a c0       	vcvtsi2sd xmm0,xmm0,r8
  4016e6:	c4 e1 f3 2a 8f 10 02 	vcvtsi2sd xmm1,xmm1,QWORD PTR [rdi+0x210]
  4016ed:	00 00 
  4016ef:	c5 fb 59 c1          	vmulsd xmm0,xmm0,xmm1
  4016f3:	c4 e1 eb 2a c9       	vcvtsi2sd xmm1,xmm2,rcx
  4016f8:	c5 fb 58 c1          	vaddsd xmm0,xmm0,xmm1
  4016fc:	5b                   	pop    rbx
  4016fd:	c3                   	ret    
  4016fe:	66 90                	xchg   ax,ax
  401700:	31 c0                	xor    eax,eax
  401702:	c3                   	ret    
  401703:	66 2e 0f 1f 84 00 00 	cs nop WORD PTR [rax+rax*1+0x0]
  40170a:	00 00 00 
  40170d:	0f 1f 00             	nop    DWORD PTR [rax]
  401710:	48 89 f0             	mov    rax,rsi
  401713:	48 99                	cqo    
  401715:	48 f7 bf 70 02 00 00 	idiv   QWORD PTR [rdi+0x270]
  40171c:	48 8b b7 78 02 00 00 	mov    rsi,QWORD PTR [rdi+0x278]
  401723:	48 8b 8f 80 02 00 00 	mov    rcx,QWORD PTR [rdi+0x280]
  40172a:	48 89 d7             	mov    rdi,rdx
  40172d:	48 29 f7             	sub    rdi,rsi
  401730:	7e 11                	jle    401743 <fwrite@plt+0x5f3>
  401732:	48 0f af f1          	imul   rsi,rcx
  401736:	48 83 c1 ff          	add    rcx,0xffffffffffffffff
  40173a:	48 0f af cf          	imul   rcx,rdi
  40173e:	48 01 f1             	add    rcx,rsi
  401741:	eb 04                	jmp    401747 <fwrite@plt+0x5f7>
  401743:	48 0f af ca          	imul   rcx,rdx
  401747:	48 01 c1             	add    rcx,rax
  40174a:	48 89 c8             	mov    rax,rcx
  40174d:	c3                   	ret    
  40174e:	66 90                	xchg   ax,ax
  401750:	48 89 f0             	mov    rax,rsi
  401753:	c3                   	ret    
  401754:	66 2e 0f 1f 84 00 00 	cs nop WORD PTR [rax+rax*1+0x0]
  40175b:	00 00 00 
  40175e:	66 90                	xchg   ax,ax
  401760:	41 56                	push   r14
  401762:	53                   	push   rbx
  401763:	48 83 ec 18          	sub    rsp,0x18
  401767:	49 89 fe             	mov    r14,rdi
  40176a:	4c 8b 97 a8 01 00 00 	mov    r10,QWORD PTR [rdi+0x1a8]
  401771:	48 8b 9f 38 02 00 00 	mov    rbx,QWORD PTR [rdi+0x238]
  401778:	4d 85 d2             	test   r10,r10
  40177b:	0f 8e 7c 00 00 00    	jle    4017fd <fwrite@plt+0x6ad>
  401781:	45 89 d0             	mov    r8d,r10d
  401784:	41 83 e0 01          	and    r8d,0x1
  401788:	49 83 fa 01          	cmp    r10,0x1
  40178c:	75 09                	jne    401797 <fwrite@plt+0x647>
  40178e:	31 f6                	xor    esi,esi
  401790:	4d 85 c0             	test   r8,r8
  401793:	75 51                	jne    4017e6 <fwrite@plt+0x696>
  401795:	eb 66                	jmp    4017fd <fwrite@plt+0x6ad>
  401797:	4d 89 d1             	mov    r9,r10
  40179a:	4d 29 c1             	sub    r9,r8
  40179d:	48 89 d9             	mov    rcx,rbx
  4017a0:	48 83 e9 80          	sub    rcx,0xffffffffffffff80
  4017a4:	31 f6                	xor    esi,esi
  4017a6:	66 2e 0f 1f 84 00 00 	cs nop WORD PTR [rax+rax*1+0x0]
  4017ad:	00 00 00 
  4017b0:	0f b7 51 a0          	movzx  edx,WORD PTR [rcx-0x60]
  4017b4:	31 ff                	xor    edi,edi
  4017b6:	83 fa 02             	cmp    edx,0x2
  4017b9:	40 0f 94 c7          	sete   dil
  4017bd:	48 89 79 b8          	mov    QWORD PTR [rcx-0x48],rdi
  4017c1:	0f b7 51 e8          	movzx  edx,WORD PTR [rcx-0x18]
  4017c5:	31 ff                	xor    edi,edi
  4017c7:	83 fa 02             	cmp    edx,0x2
  4017ca:	40 0f 94 c7          	sete   dil
  4017ce:	48 89 39             	mov    QWORD PTR [rcx],rdi
  4017d1:	48 83 c6 02          	add    rsi,0x2
  4017d5:	48 81 c1 90 00 00 00 	add    rcx,0x90
  4017dc:	49 39 f1             	cmp    r9,rsi
  4017df:	75 cf                	jne    4017b0 <fwrite@plt+0x660>
  4017e1:	4d 85 c0             	test   r8,r8
  4017e4:	74 17                	je     4017fd <fwrite@plt+0x6ad>
  4017e6:	48 8d 0c f6          	lea    rcx,[rsi+rsi*8]
  4017ea:	0f b7 54 cb 20       	movzx  edx,WORD PTR [rbx+rcx*8+0x20]
  4017ef:	31 f6                	xor    esi,esi
  4017f1:	83 fa 02             	cmp    edx,0x2
  4017f4:	40 0f 94 c6          	sete   sil
  4017f8:	48 89 74 cb 38       	mov    QWORD PTR [rbx+rcx*8+0x38],rsi
  4017fd:	4d 8b 8e 90 01 00 00 	mov    r9,QWORD PTR [r14+0x190]
  401804:	4d 85 c9             	test   r9,r9
  401807:	0f 8e b8 00 00 00    	jle    4018c5 <fwrite@plt+0x775>
  40180d:	4d 8b 86 28 02 00 00 	mov    r8,QWORD PTR [r14+0x228]
  401814:	49 8d 49 ff          	lea    rcx,[r9-0x1]
  401818:	44 89 ca             	mov    edx,r9d
  40181b:	83 e2 03             	and    edx,0x3
  40181e:	48 83 f9 03          	cmp    rcx,0x3
  401822:	73 0c                	jae    401830 <fwrite@plt+0x6e0>
  401824:	31 f6                	xor    esi,esi
  401826:	48 85 d2             	test   rdx,rdx
  401829:	75 68                	jne    401893 <fwrite@plt+0x743>
  40182b:	e9 95 00 00 00       	jmp    4018c5 <fwrite@plt+0x775>
  401830:	49 29 d1             	sub    r9,rdx
  401833:	49 8d 88 88 01 00 00 	lea    rcx,[r8+0x188]
  40183a:	31 f6                	xor    esi,esi
  40183c:	0f 1f 40 00          	nop    DWORD PTR [rax+0x0]
  401840:	48 8b b9 a8 fe ff ff 	mov    rdi,QWORD PTR [rcx-0x158]
  401847:	48 8b 81 c8 fe ff ff 	mov    rax,QWORD PTR [rcx-0x138]
  40184e:	48 89 47 38          	mov    QWORD PTR [rdi+0x38],rax
  401852:	48 8b 81 10 ff ff ff 	mov    rax,QWORD PTR [rcx-0xf0]
  401859:	48 8b b9 30 ff ff ff 	mov    rdi,QWORD PTR [rcx-0xd0]
  401860:	48 89 78 38          	mov    QWORD PTR [rax+0x38],rdi
  401864:	48 8b 81 78 ff ff ff 	mov    rax,QWORD PTR [rcx-0x88]
  40186b:	48 8b 79 98          	mov    rdi,QWORD PTR [rcx-0x68]
  40186f:	48 89 78 38          	mov    QWORD PTR [rax+0x38],rdi
  401873:	48 8b 41 e0          	mov    rax,QWORD PTR [rcx-0x20]
  401877:	48 8b 39             	mov    rdi,QWORD PTR [rcx]
  40187a:	48 89 78 38          	mov    QWORD PTR [rax+0x38],rdi
  40187e:	48 83 c6 04          	add    rsi,0x4
  401882:	48 81 c1 a0 01 00 00 	add    rcx,0x1a0
  401889:	49 39 f1             	cmp    r9,rsi
  40188c:	75 b2                	jne    401840 <fwrite@plt+0x6f0>
  40188e:	48 85 d2             	test   rdx,rdx
  401891:	74 32                	je     4018c5 <fwrite@plt+0x775>
  401893:	48 6b ce 68          	imul   rcx,rsi,0x68
  401897:	4c 01 c1             	add    rcx,r8
  40189a:	48 83 c1 50          	add    rcx,0x50
  40189e:	48 f7 da             	neg    rdx
  4018a1:	66 2e 0f 1f 84 00 00 	cs nop WORD PTR [rax+rax*1+0x0]
  4018a8:	00 00 00 
  4018ab:	0f 1f 44 00 00       	nop    DWORD PTR [rax+rax*1+0x0]
  4018b0:	48 8b 71 e0          	mov    rsi,QWORD PTR [rcx-0x20]
  4018b4:	48 8b 39             	mov    rdi,QWORD PTR [rcx]
  4018b7:	48 89 7e 38          	mov    QWORD PTR [rsi+0x38],rdi
  4018bb:	48 83 c1 68          	add    rcx,0x68
  4018bf:	48 83 c2 01          	add    rdx,0x1
  4018c3:	75 eb                	jne    4018b0 <fwrite@plt+0x760>
  4018c5:	4d 85 d2             	test   r10,r10
  4018c8:	7e 62                	jle    40192c <fwrite@plt+0x7dc>
  4018ca:	48 83 c3 40          	add    rbx,0x40
  4018ce:	31 f6                	xor    esi,esi
  4018d0:	31 d2                	xor    edx,edx
  4018d2:	66 2e 0f 1f 84 00 00 	cs nop WORD PTR [rax+rax*1+0x0]
  4018d9:	00 00 00 
  4018dc:	0f 1f 40 00          	nop    DWORD PTR [rax+0x0]
  4018e0:	48 83 7b f8 00       	cmp    QWORD PTR [rbx-0x8],0x0
  4018e5:	74 39                	je     401920 <fwrite@plt+0x7d0>
  4018e7:	48 8b 43 d0          	mov    rax,QWORD PTR [rbx-0x30]
  4018eb:	8b 40 60             	mov    eax,DWORD PTR [rax+0x60]
  4018ee:	85 c0                	test   eax,eax
  4018f0:	78 1e                	js     401910 <fwrite@plt+0x7c0>
  4018f2:	48 8b 0b             	mov    rcx,QWORD PTR [rbx]
  4018f5:	75 26                	jne    40191d <fwrite@plt+0x7cd>
  4018f7:	48 01 f1             	add    rcx,rsi
  4018fa:	49 2b 8e 10 02 00 00 	sub    rcx,QWORD PTR [r14+0x210]
  401901:	48 83 c2 01          	add    rdx,0x1
  401905:	48 89 ce             	mov    rsi,rcx
  401908:	eb 16                	jmp    401920 <fwrite@plt+0x7d0>
  40190a:	66 0f 1f 44 00 00    	nop    WORD PTR [rax+rax*1+0x0]
  401910:	48 8b 43 d8          	mov    rax,QWORD PTR [rbx-0x28]
  401914:	83 78 60 00          	cmp    DWORD PTR [rax+0x60],0x0
  401918:	7f 06                	jg     401920 <fwrite@plt+0x7d0>
  40191a:	48 8b 0b             	mov    rcx,QWORD PTR [rbx]
  40191d:	48 01 ce             	add    rsi,rcx
  401920:	48 83 c3 48          	add    rbx,0x48
  401924:	49 83 c2 ff          	add    r10,0xffffffffffffffff
  401928:	75 b6                	jne    4018e0 <fwrite@plt+0x790>
  40192a:	eb 04                	jmp    401930 <fwrite@plt+0x7e0>
  40192c:	31 d2                	xor    edx,edx
  40192e:	31 f6                	xor    esi,esi
  401930:	c4 e1 fb 2a ca       	vcvtsi2sd xmm1,xmm0,rdx
  401935:	c5 fb 11 4c 24 10    	vmovsd QWORD PTR [rsp+0x10],xmm1
  40193b:	c4 c1 fb 2a 86 10 02 	vcvtsi2sd xmm0,xmm0,QWORD PTR [r14+0x210]
  401942:	00 00 
  401944:	c5 f3 59 c0          	vmulsd xmm0,xmm1,xmm0
  401948:	c4 e1 eb 2a ce       	vcvtsi2sd xmm1,xmm2,rsi
  40194d:	c5 fb 11 4c 24 08    	vmovsd QWORD PTR [rsp+0x8],xmm1
  401953:	c5 fb 58 c1          	vaddsd xmm0,xmm0,xmm1
  401957:	bf 51 92 40 00       	mov    edi,0x409251
  40195c:	b0 01                	mov    al,0x1
  40195e:	e8 1d f7 ff ff       	call   401080 <printf@plt>
  401963:	c4 c1 eb 2a 86 10 02 	vcvtsi2sd xmm0,xmm2,QWORD PTR [r14+0x210]
  40196a:	00 00 
  40196c:	c5 fb 59 44 24 10    	vmulsd xmm0,xmm0,QWORD PTR [rsp+0x10]
  401972:	c5 fb 58 44 24 08    	vaddsd xmm0,xmm0,QWORD PTR [rsp+0x8]
  401978:	48 83 c4 18          	add    rsp,0x18
  40197c:	5b                   	pop    rbx
  40197d:	41 5e                	pop    r14
  40197f:	c3                   	ret    
  401980:	55                   	push   rbp
  401981:	41 57                	push   r15
  401983:	41 56                	push   r14
  401985:	41 55                	push   r13
  401987:	41 54                	push   r12
  401989:	53                   	push   rbx
  40198a:	50                   	push   rax
  40198b:	49 89 ff             	mov    r15,rdi
  40198e:	48 8b 9f 28 02 00 00 	mov    rbx,QWORD PTR [rdi+0x228]
  401995:	48 8b af 30 02 00 00 	mov    rbp,QWORD PTR [rdi+0x230]
  40199c:	48 83 c3 68          	add    rbx,0x68
  4019a0:	48 39 eb             	cmp    rbx,rbp
  4019a3:	0f 83 94 00 00 00    	jae    401a3d <fwrite@plt+0x8ed>
  4019a9:	4d 8b a7 50 02 00 00 	mov    r12,QWORD PTR [r15+0x250]
  4019b0:	4d 8b b7 58 02 00 00 	mov    r14,QWORD PTR [r15+0x258]
  4019b7:	66 0f 1f 84 00 00 00 	nop    WORD PTR [rax+rax*1+0x0]
  4019be:	00 00 
  4019c0:	48 8b 43 30          	mov    rax,QWORD PTR [rbx+0x30]
  4019c4:	4c 8b 6b 50          	mov    r13,QWORD PTR [rbx+0x50]
  4019c8:	4c 39 e0             	cmp    rax,r12
  4019cb:	72 43                	jb     401a10 <fwrite@plt+0x8c0>
  4019cd:	4c 39 f0             	cmp    rax,r14
  4019d0:	73 3e                	jae    401a10 <fwrite@plt+0x8c0>
  4019d2:	4c 89 e8             	mov    rax,r13
  4019d5:	48 f7 d8             	neg    rax
  4019d8:	49 0f 4c c5          	cmovl  rax,r13
  4019dc:	49 3b 87 00 02 00 00 	cmp    rax,QWORD PTR [r15+0x200]
  4019e3:	7e 46                	jle    401a2b <fwrite@plt+0x8db>
  4019e5:	bf 5e 92 40 00       	mov    edi,0x40925e
  4019ea:	31 c0                	xor    eax,eax
  4019ec:	e8 8f f6 ff ff       	call   401080 <printf@plt>
  4019f1:	8b 73 60             	mov    esi,DWORD PTR [rbx+0x60]
  4019f4:	bf 77 92 40 00       	mov    edi,0x409277
  4019f9:	31 c0                	xor    eax,eax
  4019fb:	4c 89 ea             	mov    rdx,r13
  4019fe:	e8 7d f6 ff ff       	call   401080 <printf@plt>
  401a03:	eb 26                	jmp    401a2b <fwrite@plt+0x8db>
  401a05:	66 2e 0f 1f 84 00 00 	cs nop WORD PTR [rax+rax*1+0x0]
  401a0c:	00 00 00 
  401a0f:	90                   	nop
  401a10:	49 8b 87 00 02 00 00 	mov    rax,QWORD PTR [r15+0x200]
  401a17:	48 89 c1             	mov    rcx,rax
  401a1a:	48 f7 d9             	neg    rcx
  401a1d:	49 39 cd             	cmp    r13,rcx
  401a20:	7c 24                	jl     401a46 <fwrite@plt+0x8f6>
  401a22:	49 8d 4d ff          	lea    rcx,[r13-0x1]
  401a26:	48 39 c1             	cmp    rcx,rax
  401a29:	7f 1b                	jg     401a46 <fwrite@plt+0x8f6>
  401a2b:	48 83 c3 68          	add    rbx,0x68
  401a2f:	48 39 eb             	cmp    rbx,rbp
  401a32:	72 8c                	jb     4019c0 <fwrite@plt+0x870>
  401a34:	bb 01 00 00 00       	mov    ebx,0x1
  401a39:	31 c0                	xor    eax,eax
  401a3b:	eb 2b                	jmp    401a68 <fwrite@plt+0x918>
  401a3d:	31 c0                	xor    eax,eax
  401a3f:	bb 01 00 00 00       	mov    ebx,0x1
  401a44:	eb 22                	jmp    401a68 <fwrite@plt+0x918>
  401a46:	31 db                	xor    ebx,ebx
  401a48:	bf 5e 92 40 00       	mov    edi,0x40925e
  401a4d:	31 c0                	xor    eax,eax
  401a4f:	e8 2c f6 ff ff       	call   401080 <printf@plt>
  401a54:	bf a8 92 40 00       	mov    edi,0x4092a8
  401a59:	31 c0                	xor    eax,eax
  401a5b:	4c 89 ee             	mov    rsi,r13
  401a5e:	e8 1d f6 ff ff       	call   401080 <printf@plt>
  401a63:	b8 01 00 00 00       	mov    eax,0x1
  401a68:	49 89 9f e8 01 00 00 	mov    QWORD PTR [r15+0x1e8],rbx
  401a6f:	48 83 c4 08          	add    rsp,0x8
  401a73:	5b                   	pop    rbx
  401a74:	41 5c                	pop    r12
  401a76:	41 5d                	pop    r13
  401a78:	41 5e                	pop    r14
  401a7a:	41 5f                	pop    r15
  401a7c:	5d                   	pop    rbp
  401a7d:	c3                   	ret    
  401a7e:	66 90                	xchg   ax,ax
  401a80:	53                   	push   rbx
  401a81:	48 8b 87 38 02 00 00 	mov    rax,QWORD PTR [rdi+0x238]
  401a88:	48 8b 8f 40 02 00 00 	mov    rcx,QWORD PTR [rdi+0x240]
  401a8f:	31 db                	xor    ebx,ebx
  401a91:	48 39 c8             	cmp    rax,rcx
  401a94:	72 13                	jb     401aa9 <fwrite@plt+0x959>
  401a96:	e9 8b 00 00 00       	jmp    401b26 <fwrite@plt+0x9d6>
  401a9b:	0f 1f 44 00 00       	nop    DWORD PTR [rax+rax*1+0x0]
  401aa0:	48 83 c0 48          	add    rax,0x48
  401aa4:	48 39 c8             	cmp    rax,rcx
  401aa7:	73 7d                	jae    401b26 <fwrite@plt+0x9d6>
  401aa9:	48 8b 50 08          	mov    rdx,QWORD PTR [rax+0x8]
  401aad:	48 8b 70 10          	mov    rsi,QWORD PTR [rax+0x10]
  401ab1:	48 2b 16             	sub    rdx,QWORD PTR [rsi]
  401ab4:	48 8b 70 18          	mov    rsi,QWORD PTR [rax+0x18]
  401ab8:	48 03 16             	add    rdx,QWORD PTR [rsi]
  401abb:	0f bf 70 20          	movsx  esi,WORD PTR [rax+0x20]
  401abf:	83 fe 02             	cmp    esi,0x2
  401ac2:	73 1c                	jae    401ae0 <fwrite@plt+0x990>
  401ac4:	31 f6                	xor    esi,esi
  401ac6:	48 2b b7 00 02 00 00 	sub    rsi,QWORD PTR [rdi+0x200]
  401acd:	48 39 f2             	cmp    rdx,rsi
  401ad0:	7d ce                	jge    401aa0 <fwrite@plt+0x950>
  401ad2:	eb 17                	jmp    401aeb <fwrite@plt+0x99b>
  401ad4:	66 2e 0f 1f 84 00 00 	cs nop WORD PTR [rax+rax*1+0x0]
  401adb:	00 00 00 
  401ade:	66 90                	xchg   ax,ax
  401ae0:	75 be                	jne    401aa0 <fwrite@plt+0x950>
  401ae2:	48 3b 97 00 02 00 00 	cmp    rdx,QWORD PTR [rdi+0x200]
  401ae9:	7e b5                	jle    401aa0 <fwrite@plt+0x950>
  401aeb:	48 8b 0d ee a5 00 00 	mov    rcx,QWORD PTR [rip+0xa5ee]        # 40c0e0 <stderr@@GLIBC_2.2.5>
  401af2:	bb 01 00 00 00       	mov    ebx,0x1
  401af7:	bf c7 92 40 00       	mov    edi,0x4092c7
  401afc:	be 16 00 00 00       	mov    esi,0x16
  401b01:	ba 01 00 00 00       	mov    edx,0x1
  401b06:	e8 45 f6 ff ff       	call   401150 <fwrite@plt>
  401b0b:	48 8b 0d ce a5 00 00 	mov    rcx,QWORD PTR [rip+0xa5ce]        # 40c0e0 <stderr@@GLIBC_2.2.5>
  401b12:	bf de 92 40 00       	mov    edi,0x4092de
  401b17:	be 16 00 00 00       	mov    esi,0x16
  401b1c:	ba 01 00 00 00       	mov    edx,0x1
  401b21:	e8 2a f6 ff ff       	call   401150 <fwrite@plt>
  401b26:	48 89 d8             	mov    rax,rbx
  401b29:	5b                   	pop    rbx
  401b2a:	c3                   	ret    
  401b2b:	0f 1f 44 00 00       	nop    DWORD PTR [rax+rax*1+0x0]
  401b30:	53                   	push   rbx
  401b31:	48 89 fb             	mov    rbx,rdi
  401b34:	48 8b bf 28 02 00 00 	mov    rdi,QWORD PTR [rdi+0x228]
  401b3b:	48 85 ff             	test   rdi,rdi
  401b3e:	74 05                	je     401b45 <fwrite@plt+0x9f5>
  401b40:	e8 eb f4 ff ff       	call   401030 <free@plt>
  401b45:	48 8b bb 38 02 00 00 	mov    rdi,QWORD PTR [rbx+0x238]
  401b4c:	48 85 ff             	test   rdi,rdi
  401b4f:	74 05                	je     401b56 <fwrite@plt+0xa06>
  401b51:	e8 da f4 ff ff       	call   401030 <free@plt>
  401b56:	48 8b bb 50 02 00 00 	mov    rdi,QWORD PTR [rbx+0x250]
  401b5d:	48 85 ff             	test   rdi,rdi
  401b60:	74 05                	je     401b67 <fwrite@plt+0xa17>
  401b62:	e8 c9 f4 ff ff       	call   401030 <free@plt>
  401b67:	48 8b bb 48 02 00 00 	mov    rdi,QWORD PTR [rbx+0x248]
  401b6e:	48 81 c3 28 02 00 00 	add    rbx,0x228
  401b75:	48 85 ff             	test   rdi,rdi
  401b78:	74 05                	je     401b7f <fwrite@plt+0xa2f>
  401b7a:	e8 b1 f4 ff ff       	call   401030 <free@plt>
  401b7f:	c5 f8 57 c0          	vxorps xmm0,xmm0,xmm0
  401b83:	c5 fc 11 43 18       	vmovups YMMWORD PTR [rbx+0x18],ymm0
  401b88:	c5 fc 11 03          	vmovups YMMWORD PTR [rbx],ymm0
  401b8c:	31 c0                	xor    eax,eax
  401b8e:	5b                   	pop    rbx
  401b8f:	c5 f8 77             	vzeroupper 
  401b92:	c3                   	ret    
  401b93:	66 2e 0f 1f 84 00 00 	cs nop WORD PTR [rax+rax*1+0x0]
  401b9a:	00 00 00 
  401b9d:	0f 1f 00             	nop    DWORD PTR [rax]
  401ba0:	55                   	push   rbp
  401ba1:	41 57                	push   r15
  401ba3:	41 56                	push   r14
  401ba5:	41 55                	push   r13
  401ba7:	41 54                	push   r12
  401ba9:	53                   	push   rbx
  401baa:	48 81 ec 28 01 00 00 	sub    rsp,0x128
  401bb1:	49 89 fe             	mov    r14,rdi
  401bb4:	be 18 93 40 00       	mov    esi,0x409318
  401bb9:	e8 62 f5 ff ff       	call   401120 <fopen@plt>
  401bbe:	49 c7 c4 ff ff ff ff 	mov    r12,0xffffffffffffffff
  401bc5:	48 85 c0             	test   rax,rax
  401bc8:	0f 84 a0 07 00 00    	je     40236e <fwrite@plt+0x121e>
  401bce:	49 89 c7             	mov    r15,rax
  401bd1:	48 8d 5c 24 50       	lea    rbx,[rsp+0x50]
  401bd6:	be c8 00 00 00       	mov    esi,0xc8
  401bdb:	48 89 df             	mov    rdi,rbx
  401bde:	48 89 c2             	mov    rdx,rax
  401be1:	e8 ea f4 ff ff       	call   4010d0 <fgets_unlocked@plt>
  401be6:	48 8d 54 24 28       	lea    rdx,[rsp+0x28]
  401beb:	48 8d 4c 24 20       	lea    rcx,[rsp+0x20]
  401bf0:	be 1e 93 40 00       	mov    esi,0x40931e
  401bf5:	31 c0                	xor    eax,eax
  401bf7:	48 89 df             	mov    rdi,rbx
  401bfa:	e8 f1 f4 ff ff       	call   4010f0 <__isoc99_sscanf@plt>
  401bff:	83 f8 02             	cmp    eax,0x2
  401c02:	0f 85 66 07 00 00    	jne    40236e <fwrite@plt+0x121e>
  401c08:	4c 8b 44 24 28       	mov    r8,QWORD PTR [rsp+0x28]
  401c0d:	4d 89 86 98 01 00 00 	mov    QWORD PTR [r14+0x198],r8
  401c14:	48 8b 44 24 20       	mov    rax,QWORD PTR [rsp+0x20]
  401c19:	49 89 86 b0 01 00 00 	mov    QWORD PTR [r14+0x1b0],rax
  401c20:	4f 8d 6c 00 01       	lea    r13,[r8+r8*1+0x1]
  401c25:	4d 89 ae 90 01 00 00 	mov    QWORD PTR [r14+0x190],r13
  401c2c:	4b 8d 0c 40          	lea    rcx,[r8+r8*2]
  401c30:	4c 8d 0c 08          	lea    r9,[rax+rcx*1]
  401c34:	4d 89 8e a8 01 00 00 	mov    QWORD PTR [r14+0x1a8],r9
  401c3b:	49 c7 86 80 02 00 00 	mov    QWORD PTR [r14+0x280],0xfa0
  401c42:	a0 0f 00 00 
  401c46:	48 01 c8             	add    rax,rcx
  401c49:	48 83 c0 ff          	add    rax,0xffffffffffffffff
  401c4d:	48 be cf f7 53 e3 a5 	movabs rsi,0x20c49ba5e353f7cf
  401c54:	9b c4 20 
  401c57:	48 f7 ee             	imul   rsi
  401c5a:	48 89 d1             	mov    rcx,rdx
  401c5d:	48 89 d3             	mov    rbx,rdx
  401c60:	48 c1 eb 3f          	shr    rbx,0x3f
  401c64:	48 c1 f9 09          	sar    rcx,0x9
  401c68:	48 8d 2c 19          	lea    rbp,[rcx+rbx*1]
  401c6c:	48 83 c5 01          	add    rbp,0x1
  401c70:	4c 89 c8             	mov    rax,r9
  401c73:	48 f7 ee             	imul   rsi
  401c76:	49 89 ae 70 02 00 00 	mov    QWORD PTR [r14+0x270],rbp
  401c7d:	48 89 d0             	mov    rax,rdx
  401c80:	48 c1 e8 3f          	shr    rax,0x3f
  401c84:	48 c1 fa 09          	sar    rdx,0x9
  401c88:	48 01 c2             	add    rdx,rax
  401c8b:	48 69 c2 a0 0f 00 00 	imul   rax,rdx,0xfa0
  401c92:	4c 89 ca             	mov    rdx,r9
  401c95:	48 29 c2             	sub    rdx,rax
  401c98:	48 8d ba 60 f0 ff ff 	lea    rdi,[rdx-0xfa0]
  401c9f:	48 85 d2             	test   rdx,rdx
  401ca2:	48 0f 44 fa          	cmove  rdi,rdx
  401ca6:	48 89 ee             	mov    rsi,rbp
  401ca9:	48 01 fe             	add    rsi,rdi
  401cac:	49 89 b6 78 02 00 00 	mov    QWORD PTR [r14+0x278],rsi
  401cb3:	0f 89 0e 01 00 00    	jns    401dc7 <fwrite@plt+0xc77>
  401cb9:	48 01 d9             	add    rcx,rbx
  401cbc:	48 01 cf             	add    rdi,rcx
  401cbf:	48 c7 c0 fe ff ff ff 	mov    rax,0xfffffffffffffffe
  401cc6:	48 29 f8             	sub    rax,rdi
  401cc9:	31 d2                	xor    edx,edx
  401ccb:	48 f7 f5             	div    rbp
  401cce:	48 83 c0 01          	add    rax,0x1
  401cd2:	48 83 f8 08          	cmp    rax,0x8
  401cd6:	73 0a                	jae    401ce2 <fwrite@plt+0xb92>
  401cd8:	ba a0 0f 00 00       	mov    edx,0xfa0
  401cdd:	e9 ce 00 00 00       	jmp    401db0 <fwrite@plt+0xc60>
  401ce2:	48 89 c1             	mov    rcx,rax
  401ce5:	48 83 e1 f8          	and    rcx,0xfffffffffffffff8
  401ce9:	48 8d 59 f8          	lea    rbx,[rcx-0x8]
  401ced:	48 89 de             	mov    rsi,rbx
  401cf0:	48 c1 ee 03          	shr    rsi,0x3
  401cf4:	48 83 c6 01          	add    rsi,0x1
  401cf8:	89 f2                	mov    edx,esi
  401cfa:	83 e2 03             	and    edx,0x3
  401cfd:	48 83 fb 18          	cmp    rbx,0x18
  401d01:	73 18                	jae    401d1b <fwrite@plt+0xbcb>
  401d03:	be a0 0f 00 00       	mov    esi,0xfa0
  401d08:	c4 e1 f9 6e c6       	vmovq  xmm0,rsi
  401d0d:	c5 f1 ef c9          	vpxor  xmm1,xmm1,xmm1
  401d11:	c5 e9 ef d2          	vpxor  xmm2,xmm2,xmm2
  401d15:	c5 e1 ef db          	vpxor  xmm3,xmm3,xmm3
  401d19:	eb 3b                	jmp    401d56 <fwrite@plt+0xc06>
  401d1b:	48 29 d6             	sub    rsi,rdx
  401d1e:	bb a0 0f 00 00       	mov    ebx,0xfa0
  401d23:	c4 e1 f9 6e c3       	vmovq  xmm0,rbx
  401d28:	c5 f1 ef c9          	vpxor  xmm1,xmm1,xmm1
  401d2c:	c5 f9 6f 25 cc 75 00 	vmovdqa xmm4,XMMWORD PTR [rip+0x75cc]        # 409300 <fwrite@plt+0x81b0>
  401d33:	00 
  401d34:	c5 e9 ef d2          	vpxor  xmm2,xmm2,xmm2
  401d38:	c5 e1 ef db          	vpxor  xmm3,xmm3,xmm3
  401d3c:	0f 1f 40 00          	nop    DWORD PTR [rax+0x0]
  401d40:	c5 f9 d4 c4          	vpaddq xmm0,xmm0,xmm4
  401d44:	c5 f1 d4 cc          	vpaddq xmm1,xmm1,xmm4
  401d48:	c5 e9 d4 d4          	vpaddq xmm2,xmm2,xmm4
  401d4c:	c5 e1 d4 dc          	vpaddq xmm3,xmm3,xmm4
  401d50:	48 83 c6 fc          	add    rsi,0xfffffffffffffffc
  401d54:	75 ea                	jne    401d40 <fwrite@plt+0xbf0>
  401d56:	48 89 ce             	mov    rsi,rcx
  401d59:	48 0f af f5          	imul   rsi,rbp
  401d5d:	48 85 d2             	test   rdx,rdx
  401d60:	74 24                	je     401d86 <fwrite@plt+0xc36>
  401d62:	c5 d9 76 e4          	vpcmpeqd xmm4,xmm4,xmm4
  401d66:	66 2e 0f 1f 84 00 00 	cs nop WORD PTR [rax+rax*1+0x0]
  401d6d:	00 00 00 
  401d70:	c5 f9 d4 c4          	vpaddq xmm0,xmm0,xmm4
  401d74:	c5 f1 d4 cc          	vpaddq xmm1,xmm1,xmm4
  401d78:	c5 e9 d4 d4          	vpaddq xmm2,xmm2,xmm4
  401d7c:	c5 e1 d4 dc          	vpaddq xmm3,xmm3,xmm4
  401d80:	48 83 c2 ff          	add    rdx,0xffffffffffffffff
  401d84:	75 ea                	jne    401d70 <fwrite@plt+0xc20>
  401d86:	c5 f1 d4 cb          	vpaddq xmm1,xmm1,xmm3
  401d8a:	c5 f9 d4 c2          	vpaddq xmm0,xmm0,xmm2
  401d8e:	c5 f9 d4 c1          	vpaddq xmm0,xmm0,xmm1
  401d92:	48 01 fe             	add    rsi,rdi
  401d95:	48 83 c6 01          	add    rsi,0x1
  401d99:	c5 f9 70 c8 4e       	vpshufd xmm1,xmm0,0x4e
  401d9e:	c5 f9 d4 c1          	vpaddq xmm0,xmm0,xmm1
  401da2:	c4 e1 f9 7e c2       	vmovq  rdx,xmm0
  401da7:	48 39 c8             	cmp    rax,rcx
  401daa:	74 0d                	je     401db9 <fwrite@plt+0xc69>
  401dac:	0f 1f 40 00          	nop    DWORD PTR [rax+0x0]
  401db0:	48 83 c2 ff          	add    rdx,0xffffffffffffffff
  401db4:	48 01 ee             	add    rsi,rbp
  401db7:	78 f7                	js     401db0 <fwrite@plt+0xc60>
  401db9:	49 89 b6 78 02 00 00 	mov    QWORD PTR [r14+0x278],rsi
  401dc0:	49 89 96 80 02 00 00 	mov    QWORD PTR [r14+0x280],rdx
  401dc7:	49 81 f8 98 3a 00 00 	cmp    r8,0x3a98
  401dce:	4c 89 7c 24 30       	mov    QWORD PTR [rsp+0x30],r15
  401dd3:	4c 89 44 24 38       	mov    QWORD PTR [rsp+0x38],r8
  401dd8:	4c 89 4c 24 10       	mov    QWORD PTR [rsp+0x10],r9
  401ddd:	7f 15                	jg     401df4 <fwrite@plt+0xca4>
  401ddf:	49 c7 86 c0 01 00 00 	mov    QWORD PTR [r14+0x1c0],0x0
  401de6:	00 00 00 00 
  401dea:	b8 80 84 1e 00       	mov    eax,0x1e8480
  401def:	4c 89 cd             	mov    rbp,r9
  401df2:	eb 37                	jmp    401e2b <fwrite@plt+0xcdb>
  401df4:	c4 c1 d3 2a c1       	vcvtsi2sd xmm0,xmm5,r9
  401df9:	c5 fb 10 0d 0f 75 00 	vmovsd xmm1,QWORD PTR [rip+0x750f]        # 409310 <fwrite@plt+0x81c0>
  401e00:	00 
  401e01:	c5 fb 59 c1          	vmulsd xmm0,xmm0,xmm1
  401e05:	c4 e1 fb 2c c0       	vcvttsd2si rax,xmm0
  401e0a:	c4 e1 d3 2a c0       	vcvtsi2sd xmm0,xmm5,rax
  401e0f:	49 8d 81 40 4b 4c 00 	lea    rax,[r9+0x4c4b40]
  401e16:	c5 fb 59 c1          	vmulsd xmm0,xmm0,xmm1
  401e1a:	c4 e1 fb 2c e8       	vcvttsd2si rbp,xmm0
  401e1f:	48 39 e8             	cmp    rax,rbp
  401e22:	48 0f 4d e8          	cmovge rbp,rax
  401e26:	b8 a0 fa b8 01       	mov    eax,0x1b8faa0
  401e2b:	49 89 ae a0 01 00 00 	mov    QWORD PTR [r14+0x1a0],rbp
  401e32:	49 89 86 c8 01 00 00 	mov    QWORD PTR [r14+0x1c8],rax
  401e39:	49 8d 7d 01          	lea    rdi,[r13+0x1]
  401e3d:	be 68 00 00 00       	mov    esi,0x68
  401e42:	e8 59 f2 ff ff       	call   4010a0 <calloc@plt>
  401e47:	49 89 c4             	mov    r12,rax
  401e4a:	49 89 86 28 02 00 00 	mov    QWORD PTR [r14+0x228],rax
  401e51:	be 48 00 00 00       	mov    esi,0x48
  401e56:	4c 89 6c 24 08       	mov    QWORD PTR [rsp+0x8],r13
  401e5b:	4c 89 ef             	mov    rdi,r13
  401e5e:	e8 3d f2 ff ff       	call   4010a0 <calloc@plt>
  401e63:	4c 89 f3             	mov    rbx,r14
  401e66:	49 89 c5             	mov    r13,rax
  401e69:	49 89 86 50 02 00 00 	mov    QWORD PTR [r14+0x250],rax
  401e70:	be 48 00 00 00       	mov    esi,0x48
  401e75:	48 89 ef             	mov    rdi,rbp
  401e78:	e8 23 f2 ff ff       	call   4010a0 <calloc@plt>
  401e7d:	49 89 c7             	mov    r15,rax
  401e80:	49 89 86 48 02 00 00 	mov    QWORD PTR [r14+0x248],rax
  401e87:	be 48 00 00 00       	mov    esi,0x48
  401e8c:	48 89 ef             	mov    rdi,rbp
  401e8f:	4c 89 e5             	mov    rbp,r12
  401e92:	e8 09 f2 ff ff       	call   4010a0 <calloc@plt>
  401e97:	4c 89 74 24 18       	mov    QWORD PTR [rsp+0x18],r14
  401e9c:	49 89 86 38 02 00 00 	mov    QWORD PTR [r14+0x238],rax
  401ea3:	48 85 c0             	test   rax,rax
  401ea6:	0f 84 00 03 00 00    	je     4021ac <fwrite@plt+0x105c>
  401eac:	48 85 ed             	test   rbp,rbp
  401eaf:	0f 84 f7 02 00 00    	je     4021ac <fwrite@plt+0x105c>
  401eb5:	4d 85 ed             	test   r13,r13
  401eb8:	0f 84 ee 02 00 00    	je     4021ac <fwrite@plt+0x105c>
  401ebe:	4d 85 ff             	test   r15,r15
  401ec1:	0f 84 e5 02 00 00    	je     4021ac <fwrite@plt+0x105c>
  401ec7:	49 89 c6             	mov    r14,rax
  401eca:	48 8b 54 24 08       	mov    rdx,QWORD PTR [rsp+0x8]
  401ecf:	48 6b c2 68          	imul   rax,rdx,0x68
  401ed3:	48 01 e8             	add    rax,rbp
  401ed6:	48 83 c0 68          	add    rax,0x68
  401eda:	48 8b 4c 24 18       	mov    rcx,QWORD PTR [rsp+0x18]
  401edf:	48 89 81 30 02 00 00 	mov    QWORD PTR [rcx+0x230],rax
  401ee6:	48 8b 44 24 10       	mov    rax,QWORD PTR [rsp+0x10]
  401eeb:	48 8d 04 c0          	lea    rax,[rax+rax*8]
  401eef:	49 8d 04 c6          	lea    rax,[r14+rax*8]
  401ef3:	48 89 81 40 02 00 00 	mov    QWORD PTR [rcx+0x240],rax
  401efa:	48 8d 04 d2          	lea    rax,[rdx+rdx*8]
  401efe:	48 8d 04 c5 00 00 00 	lea    rax,[rax*8+0x0]
  401f05:	00 
  401f06:	4c 01 e8             	add    rax,r13
  401f09:	48 89 81 58 02 00 00 	mov    QWORD PTR [rcx+0x258],rax
  401f10:	48 8b 44 24 38       	mov    rax,QWORD PTR [rsp+0x38]
  401f15:	48 85 c0             	test   rax,rax
  401f18:	48 89 6c 24 08       	mov    QWORD PTR [rsp+0x8],rbp
  401f1d:	0f 8e b5 02 00 00    	jle    4021d8 <fwrite@plt+0x1088>
  401f23:	4c 8d 6d 68          	lea    r13,[rbp+0x68]
  401f27:	bb ff ff ff ff       	mov    ebx,0xffffffff
  401f2c:	45 31 e4             	xor    r12d,r12d
  401f2f:	31 c0                	xor    eax,eax
  401f31:	48 89 44 24 10       	mov    QWORD PTR [rsp+0x10],rax
  401f36:	66 2e 0f 1f 84 00 00 	cs nop WORD PTR [rax+rax*1+0x0]
  401f3d:	00 00 00 
  401f40:	be c8 00 00 00       	mov    esi,0xc8
  401f45:	4c 8d 7c 24 50       	lea    r15,[rsp+0x50]
  401f4a:	4c 89 ff             	mov    rdi,r15
  401f4d:	48 8b 54 24 30       	mov    rdx,QWORD PTR [rsp+0x30]
  401f52:	e8 79 f1 ff ff       	call   4010d0 <fgets_unlocked@plt>
  401f57:	be 1e 93 40 00       	mov    esi,0x40931e
  401f5c:	31 c0                	xor    eax,eax
  401f5e:	4c 89 ff             	mov    rdi,r15
  401f61:	48 8d 54 24 28       	lea    rdx,[rsp+0x28]
  401f66:	48 8d 4c 24 20       	lea    rcx,[rsp+0x20]
  401f6b:	e8 80 f1 ff ff       	call   4010f0 <__isoc99_sscanf@plt>
  401f70:	83 f8 02             	cmp    eax,0x2
  401f73:	0f 85 53 02 00 00    	jne    4021cc <fwrite@plt+0x107c>
  401f79:	48 8b 4c 24 28       	mov    rcx,QWORD PTR [rsp+0x28]
  401f7e:	48 8b 44 24 20       	mov    rax,QWORD PTR [rsp+0x20]
  401f83:	48 39 c1             	cmp    rcx,rax
  401f86:	0f 8f 40 02 00 00    	jg     4021cc <fwrite@plt+0x107c>
  401f8c:	49 8d 74 24 01       	lea    rsi,[r12+0x1]
  401f91:	48 89 74 24 40       	mov    QWORD PTR [rsp+0x40],rsi
  401f96:	41 89 5d 60          	mov    DWORD PTR [r13+0x60],ebx
  401f9a:	49 c7 45 50 ff ff ff 	mov    QWORD PTR [r13+0x50],0xffffffffffffffff
  401fa1:	ff 
  401fa2:	4c 8b 7c 24 18       	mov    r15,QWORD PTR [rsp+0x18]
  401fa7:	49 8b 97 98 01 00 00 	mov    rdx,QWORD PTR [r15+0x198]
  401fae:	4c 01 e2             	add    rdx,r12
  401fb1:	48 6b d2 68          	imul   rdx,rdx,0x68
  401fb5:	89 b4 15 c8 00 00 00 	mov    DWORD PTR [rbp+rdx*1+0xc8],esi
  401fbc:	48 c7 84 15 b8 00 00 	mov    QWORD PTR [rbp+rdx*1+0xb8],0x1
  401fc3:	00 01 00 00 00 
  401fc8:	41 89 4d 64          	mov    DWORD PTR [r13+0x64],ecx
  401fcc:	89 84 15 cc 00 00 00 	mov    DWORD PTR [rbp+rdx*1+0xcc],eax
  401fd3:	48 8b 44 24 10       	mov    rax,QWORD PTR [rsp+0x10]
  401fd8:	41 89 06             	mov    DWORD PTR [r14],eax
  401fdb:	48 89 c2             	mov    rdx,rax
  401fde:	49 6b 87 90 01 00 00 	imul   rax,QWORD PTR [r15+0x190],0x68
  401fe5:	68 
  401fe6:	48 8d 0c 28          	lea    rcx,[rax+rbp*1]
  401fea:	49 89 4e 10          	mov    QWORD PTR [r14+0x10],rcx
  401fee:	4d 89 6e 18          	mov    QWORD PTR [r14+0x18],r13
  401ff2:	49 8b 8f 10 02 00 00 	mov    rcx,QWORD PTR [r15+0x210]
  401ff9:	48 83 c1 0f          	add    rcx,0xf
  401ffd:	49 89 4e 08          	mov    QWORD PTR [r14+0x8],rcx
  402001:	49 89 4e 40          	mov    QWORD PTR [r14+0x40],rcx
  402005:	48 8b 4c 05 38       	mov    rcx,QWORD PTR [rbp+rax*1+0x38]
  40200a:	49 89 4e 28          	mov    QWORD PTR [r14+0x28],rcx
  40200e:	4c 89 74 05 38       	mov    QWORD PTR [rbp+rax*1+0x38],r14
  402013:	49 8b 45 40          	mov    rax,QWORD PTR [r13+0x40]
  402017:	49 89 46 30          	mov    QWORD PTR [r14+0x30],rax
  40201b:	4d 89 75 40          	mov    QWORD PTR [r13+0x40],r14
  40201f:	89 5c 24 38          	mov    DWORD PTR [rsp+0x38],ebx
  402023:	49 8b 9f 38 02 00 00 	mov    rbx,QWORD PTR [r15+0x238]
  40202a:	49 89 d6             	mov    r14,rdx
  40202d:	48 8d 6a 01          	lea    rbp,[rdx+0x1]
  402031:	4c 89 ff             	mov    rdi,r15
  402034:	48 89 ee             	mov    rsi,rbp
  402037:	e8 d4 f6 ff ff       	call   401710 <fwrite@plt+0x5c0>
  40203c:	48 8d 04 c0          	lea    rax,[rax+rax*8]
  402040:	48 8d 0c c3          	lea    rcx,[rbx+rax*8]
  402044:	89 2c c3             	mov    DWORD PTR [rbx+rax*8],ebp
  402047:	49 8b 97 98 01 00 00 	mov    rdx,QWORD PTR [r15+0x198]
  40204e:	4c 01 e2             	add    rdx,r12
  402051:	48 6b d2 68          	imul   rdx,rdx,0x68
  402055:	48 8b 74 24 08       	mov    rsi,QWORD PTR [rsp+0x8]
  40205a:	48 01 d6             	add    rsi,rdx
  40205d:	48 83 c6 68          	add    rsi,0x68
  402061:	48 89 74 c3 10       	mov    QWORD PTR [rbx+rax*8+0x10],rsi
  402066:	49 6b b7 90 01 00 00 	imul   rsi,QWORD PTR [r15+0x190],0x68
  40206d:	68 
  40206e:	48 8b 7c 24 08       	mov    rdi,QWORD PTR [rsp+0x8]
  402073:	48 8d 3c 37          	lea    rdi,[rdi+rsi*1]
  402077:	48 89 7c c3 18       	mov    QWORD PTR [rbx+rax*8+0x18],rdi
  40207c:	48 c7 44 c3 08 0f 00 	mov    QWORD PTR [rbx+rax*8+0x8],0xf
  402083:	00 00 
  402085:	48 c7 44 c3 40 0f 00 	mov    QWORD PTR [rbx+rax*8+0x40],0xf
  40208c:	00 00 
  40208e:	48 8b 7c 24 08       	mov    rdi,QWORD PTR [rsp+0x8]
  402093:	48 8b bc 17 a0 00 00 	mov    rdi,QWORD PTR [rdi+rdx*1+0xa0]
  40209a:	00 
  40209b:	48 89 7c c3 28       	mov    QWORD PTR [rbx+rax*8+0x28],rdi
  4020a0:	48 8b 7c 24 08       	mov    rdi,QWORD PTR [rsp+0x8]
  4020a5:	48 89 8c 17 a0 00 00 	mov    QWORD PTR [rdi+rdx*1+0xa0],rcx
  4020ac:	00 
  4020ad:	48 8b 54 24 08       	mov    rdx,QWORD PTR [rsp+0x8]
  4020b2:	48 8b 54 32 40       	mov    rdx,QWORD PTR [rdx+rsi*1+0x40]
  4020b7:	48 89 54 c3 30       	mov    QWORD PTR [rbx+rax*8+0x30],rdx
  4020bc:	48 8b 44 24 08       	mov    rax,QWORD PTR [rsp+0x8]
  4020c1:	48 89 4c 30 40       	mov    QWORD PTR [rax+rsi*1+0x40],rcx
  4020c6:	49 8b 9f 38 02 00 00 	mov    rbx,QWORD PTR [r15+0x238]
  4020cd:	49 8d 6e 02          	lea    rbp,[r14+0x2]
  4020d1:	4c 89 ff             	mov    rdi,r15
  4020d4:	48 89 ee             	mov    rsi,rbp
  4020d7:	e8 34 f6 ff ff       	call   401710 <fwrite@plt+0x5c0>
  4020dc:	48 8d 04 c0          	lea    rax,[rax+rax*8]
  4020e0:	89 2c c3             	mov    DWORD PTR [rbx+rax*8],ebp
  4020e3:	48 8b 6c 24 08       	mov    rbp,QWORD PTR [rsp+0x8]
  4020e8:	4c 89 6c c3 10       	mov    QWORD PTR [rbx+rax*8+0x10],r13
  4020ed:	4d 03 a7 98 01 00 00 	add    r12,QWORD PTR [r15+0x198]
  4020f4:	49 6b cc 68          	imul   rcx,r12,0x68
  4020f8:	48 8d 14 29          	lea    rdx,[rcx+rbp*1]
  4020fc:	48 83 c2 68          	add    rdx,0x68
  402100:	48 89 54 c3 18       	mov    QWORD PTR [rbx+rax*8+0x18],rdx
  402105:	49 8b 97 10 02 00 00 	mov    rdx,QWORD PTR [r15+0x210]
  40210c:	48 81 fa 7f 96 98 00 	cmp    rdx,0x98967f
  402113:	be 80 96 98 00       	mov    esi,0x989680
  402118:	48 0f 4e d6          	cmovle rdx,rsi
  40211c:	48 8d 34 c3          	lea    rsi,[rbx+rax*8]
  402120:	48 01 d2             	add    rdx,rdx
  402123:	48 89 54 c3 08       	mov    QWORD PTR [rbx+rax*8+0x8],rdx
  402128:	48 89 54 c3 40       	mov    QWORD PTR [rbx+rax*8+0x40],rdx
  40212d:	49 8b 55 38          	mov    rdx,QWORD PTR [r13+0x38]
  402131:	48 89 54 c3 28       	mov    QWORD PTR [rbx+rax*8+0x28],rdx
  402136:	49 89 75 38          	mov    QWORD PTR [r13+0x38],rsi
  40213a:	48 8b 94 0d a8 00 00 	mov    rdx,QWORD PTR [rbp+rcx*1+0xa8]
  402141:	00 
  402142:	48 89 54 c3 30       	mov    QWORD PTR [rbx+rax*8+0x30],rdx
  402147:	48 89 b4 0d a8 00 00 	mov    QWORD PTR [rbp+rcx*1+0xa8],rsi
  40214e:	00 
  40214f:	49 8b 9f 38 02 00 00 	mov    rbx,QWORD PTR [r15+0x238]
  402156:	4c 89 f6             	mov    rsi,r14
  402159:	48 83 c6 03          	add    rsi,0x3
  40215d:	4c 89 ff             	mov    rdi,r15
  402160:	48 89 74 24 10       	mov    QWORD PTR [rsp+0x10],rsi
  402165:	e8 a6 f5 ff ff       	call   401710 <fwrite@plt+0x5c0>
  40216a:	48 8b 54 24 40       	mov    rdx,QWORD PTR [rsp+0x40]
  40216f:	48 8d 04 c0          	lea    rax,[rax+rax*8]
  402173:	4c 8d 34 c3          	lea    r14,[rbx+rax*8]
  402177:	8b 5c 24 38          	mov    ebx,DWORD PTR [rsp+0x38]
  40217b:	49 8b 87 98 01 00 00 	mov    rax,QWORD PTR [r15+0x198]
  402182:	49 83 c5 68          	add    r13,0x68
  402186:	83 c3 ff             	add    ebx,0xffffffff
  402189:	49 89 d4             	mov    r12,rdx
  40218c:	48 39 c2             	cmp    rdx,rax
  40218f:	0f 8c ab fd ff ff    	jl     401f40 <fwrite@plt+0xdf0>
  402195:	48 83 c2 01          	add    rdx,0x1
  402199:	49 c7 c4 ff ff ff ff 	mov    r12,0xffffffffffffffff
  4021a0:	48 8b 4c 24 18       	mov    rcx,QWORD PTR [rsp+0x18]
  4021a5:	4c 8b 7c 24 30       	mov    r15,QWORD PTR [rsp+0x30]
  4021aa:	eb 44                	jmp    4021f0 <fwrite@plt+0x10a0>
  4021ac:	bf 30 93 40 00       	mov    edi,0x409330
  4021b1:	e8 aa ee ff ff       	call   401060 <puts@plt>
  4021b6:	48 8b 7c 24 18       	mov    rdi,QWORD PTR [rsp+0x18]
  4021bb:	e8 70 f9 ff ff       	call   401b30 <fwrite@plt+0x9e0>
  4021c0:	49 c7 c4 ff ff ff ff 	mov    r12,0xffffffffffffffff
  4021c7:	e9 a2 01 00 00       	jmp    40236e <fwrite@plt+0x121e>
  4021cc:	49 c7 c4 ff ff ff ff 	mov    r12,0xffffffffffffffff
  4021d3:	e9 96 01 00 00       	jmp    40236e <fwrite@plt+0x121e>
  4021d8:	31 d2                	xor    edx,edx
  4021da:	48 89 54 24 10       	mov    QWORD PTR [rsp+0x10],rdx
  4021df:	ba 01 00 00 00       	mov    edx,0x1
  4021e4:	4c 8b 7c 24 30       	mov    r15,QWORD PTR [rsp+0x30]
  4021e9:	49 c7 c4 ff ff ff ff 	mov    r12,0xffffffffffffffff
  4021f0:	48 83 c0 01          	add    rax,0x1
  4021f4:	48 39 c2             	cmp    rdx,rax
  4021f7:	0f 85 71 01 00 00    	jne    40236e <fwrite@plt+0x121e>
  4021fd:	48 83 b9 b0 01 00 00 	cmp    QWORD PTR [rcx+0x1b0],0x0
  402204:	00 
  402205:	0f 8e de 00 00 00    	jle    4022e9 <fwrite@plt+0x1199>
  40220b:	4c 8d 6c 24 50       	lea    r13,[rsp+0x50]
  402210:	31 ed                	xor    ebp,ebp
  402212:	66 2e 0f 1f 84 00 00 	cs nop WORD PTR [rax+rax*1+0x0]
  402219:	00 00 00 
  40221c:	0f 1f 40 00          	nop    DWORD PTR [rax+0x0]
  402220:	be c8 00 00 00       	mov    esi,0xc8
  402225:	4c 89 ef             	mov    rdi,r13
  402228:	4c 89 fa             	mov    rdx,r15
  40222b:	e8 a0 ee ff ff       	call   4010d0 <fgets_unlocked@plt>
  402230:	be 1a 93 40 00       	mov    esi,0x40931a
  402235:	31 c0                	xor    eax,eax
  402237:	4c 89 ef             	mov    rdi,r13
  40223a:	48 8d 54 24 28       	lea    rdx,[rsp+0x28]
  40223f:	48 8d 4c 24 20       	lea    rcx,[rsp+0x20]
  402244:	4c 8d 44 24 48       	lea    r8,[rsp+0x48]
  402249:	e8 a2 ee ff ff       	call   4010f0 <__isoc99_sscanf@plt>
  40224e:	83 f8 03             	cmp    eax,0x3
  402251:	0f 85 17 01 00 00    	jne    40236e <fwrite@plt+0x121e>
  402257:	48 8b 74 24 10       	mov    rsi,QWORD PTR [rsp+0x10]
  40225c:	41 89 36             	mov    DWORD PTR [r14],esi
  40225f:	48 8b 5c 24 18       	mov    rbx,QWORD PTR [rsp+0x18]
  402264:	48 8b 83 98 01 00 00 	mov    rax,QWORD PTR [rbx+0x198]
  40226b:	48 03 44 24 28       	add    rax,QWORD PTR [rsp+0x28]
  402270:	48 6b c0 68          	imul   rax,rax,0x68
  402274:	48 8b 7c 24 08       	mov    rdi,QWORD PTR [rsp+0x8]
  402279:	48 8d 0c 07          	lea    rcx,[rdi+rax*1]
  40227d:	49 89 4e 10          	mov    QWORD PTR [r14+0x10],rcx
  402281:	48 6b 4c 24 20 68    	imul   rcx,QWORD PTR [rsp+0x20],0x68
  402287:	48 8d 14 0f          	lea    rdx,[rdi+rcx*1]
  40228b:	49 89 56 18          	mov    QWORD PTR [r14+0x18],rdx
  40228f:	48 8b 54 24 48       	mov    rdx,QWORD PTR [rsp+0x48]
  402294:	49 89 56 40          	mov    QWORD PTR [r14+0x40],rdx
  402298:	49 89 56 08          	mov    QWORD PTR [r14+0x8],rdx
  40229c:	48 8b 54 07 38       	mov    rdx,QWORD PTR [rdi+rax*1+0x38]
  4022a1:	49 89 56 28          	mov    QWORD PTR [r14+0x28],rdx
  4022a5:	4c 89 74 07 38       	mov    QWORD PTR [rdi+rax*1+0x38],r14
  4022aa:	48 8b 44 0f 40       	mov    rax,QWORD PTR [rdi+rcx*1+0x40]
  4022af:	49 89 46 30          	mov    QWORD PTR [r14+0x30],rax
  4022b3:	4c 89 74 0f 40       	mov    QWORD PTR [rdi+rcx*1+0x40],r14
  4022b8:	48 83 c5 01          	add    rbp,0x1
  4022bc:	4c 8b b3 38 02 00 00 	mov    r14,QWORD PTR [rbx+0x238]
  4022c3:	48 83 c6 01          	add    rsi,0x1
  4022c7:	48 89 df             	mov    rdi,rbx
  4022ca:	48 89 74 24 10       	mov    QWORD PTR [rsp+0x10],rsi
  4022cf:	e8 3c f4 ff ff       	call   401710 <fwrite@plt+0x5c0>
  4022d4:	48 8d 04 c0          	lea    rax,[rax+rax*8]
  4022d8:	4d 8d 34 c6          	lea    r14,[r14+rax*8]
  4022dc:	48 3b ab b0 01 00 00 	cmp    rbp,QWORD PTR [rbx+0x1b0]
  4022e3:	0f 8c 37 ff ff ff    	jl     402220 <fwrite@plt+0x10d0>
  4022e9:	4c 89 ff             	mov    rdi,r15
  4022ec:	e8 7f ed ff ff       	call   401070 <fclose@plt>
  4022f1:	4c 8b 6c 24 18       	mov    r13,QWORD PTR [rsp+0x18]
  4022f6:	41 c6 85 c8 00 00 00 	mov    BYTE PTR [r13+0xc8],0x0
  4022fd:	00 
  4022fe:	49 83 bd 98 01 00 00 	cmp    QWORD PTR [r13+0x198],0x0
  402305:	00 
  402306:	7e 63                	jle    40236b <fwrite@plt+0x121b>
  402308:	45 31 e4             	xor    r12d,r12d
  40230b:	bb 02 00 00 00       	mov    ebx,0x2
  402310:	41 be 80 96 98 00    	mov    r14d,0x989680
  402316:	31 ed                	xor    ebp,ebp
  402318:	0f 1f 84 00 00 00 00 	nop    DWORD PTR [rax+rax*1+0x0]
  40231f:	00 
  402320:	4d 8b bd 38 02 00 00 	mov    r15,QWORD PTR [r13+0x238]
  402327:	4c 89 ef             	mov    rdi,r13
  40232a:	48 89 de             	mov    rsi,rbx
  40232d:	e8 de f3 ff ff       	call   401710 <fwrite@plt+0x5c0>
  402332:	49 8b 8d 10 02 00 00 	mov    rcx,QWORD PTR [r13+0x210]
  402339:	48 81 f9 7f 96 98 00 	cmp    rcx,0x98967f
  402340:	49 0f 4e ce          	cmovle rcx,r14
  402344:	48 01 c9             	add    rcx,rcx
  402347:	48 f7 d9             	neg    rcx
  40234a:	48 8d 04 c0          	lea    rax,[rax+rax*8]
  40234e:	49 89 4c c7 08       	mov    QWORD PTR [r15+rax*8+0x8],rcx
  402353:	49 89 4c c7 40       	mov    QWORD PTR [r15+rax*8+0x40],rcx
  402358:	48 83 c5 01          	add    rbp,0x1
  40235c:	48 83 c3 03          	add    rbx,0x3
  402360:	49 3b ad 98 01 00 00 	cmp    rbp,QWORD PTR [r13+0x198]
  402367:	7c b7                	jl     402320 <fwrite@plt+0x11d0>
  402369:	eb 03                	jmp    40236e <fwrite@plt+0x121e>
  40236b:	45 31 e4             	xor    r12d,r12d
  40236e:	4c 89 e0             	mov    rax,r12
  402371:	48 81 c4 28 01 00 00 	add    rsp,0x128
  402378:	5b                   	pop    rbx
  402379:	41 5c                	pop    r12
  40237b:	41 5d                	pop    r13
  40237d:	41 5e                	pop    r14
  40237f:	41 5f                	pop    r15
  402381:	5d                   	pop    rbp
  402382:	c3                   	ret    
  402383:	66 2e 0f 1f 84 00 00 	cs nop WORD PTR [rax+rax*1+0x0]
  40238a:	00 00 00 
  40238d:	0f 1f 00             	nop    DWORD PTR [rax]
  402390:	55                   	push   rbp
  402391:	41 57                	push   r15
  402393:	41 56                	push   r14
  402395:	41 55                	push   r13
  402397:	41 54                	push   r12
  402399:	53                   	push   rbx
  40239a:	50                   	push   rax
  40239b:	48 83 bf 90 01 00 00 	cmp    QWORD PTR [rdi+0x190],0x0
  4023a2:	00 
  4023a3:	0f 88 a4 00 00 00    	js     40244d <fwrite@plt+0x12fd>
  4023a9:	49 89 d6             	mov    r14,rdx
  4023ac:	49 89 f7             	mov    r15,rsi
  4023af:	49 89 fc             	mov    r12,rdi
  4023b2:	49 c7 c5 ff ff ff ff 	mov    r13,0xffffffffffffffff
  4023b9:	bb 40 00 00 00       	mov    ebx,0x40
  4023be:	66 90                	xchg   ax,ax
  4023c0:	49 8b ac 24 28 02 00 	mov    rbp,QWORD PTR [r12+0x228]
  4023c7:	00 
  4023c8:	48 8b 44 1d f0       	mov    rax,QWORD PTR [rbp+rbx*1-0x10]
  4023cd:	48 85 c0             	test   rax,rax
  4023d0:	74 1b                	je     4023ed <fwrite@plt+0x129d>
  4023d2:	48 63 30             	movsxd rsi,DWORD PTR [rax]
  4023d5:	48 85 f6             	test   rsi,rsi
  4023d8:	78 13                	js     4023ed <fwrite@plt+0x129d>
  4023da:	4c 89 e7             	mov    rdi,r12
  4023dd:	41 ff d7             	call   r15
  4023e0:	48 8d 04 c0          	lea    rax,[rax+rax*8]
  4023e4:	49 8d 04 c6          	lea    rax,[r14+rax*8]
  4023e8:	48 89 44 1d f0       	mov    QWORD PTR [rbp+rbx*1-0x10],rax
  4023ed:	48 8b 44 1d 00       	mov    rax,QWORD PTR [rbp+rbx*1+0x0]
  4023f2:	48 85 c0             	test   rax,rax
  4023f5:	74 1b                	je     402412 <fwrite@plt+0x12c2>
  4023f7:	48 63 30             	movsxd rsi,DWORD PTR [rax]
  4023fa:	48 85 f6             	test   rsi,rsi
  4023fd:	78 13                	js     402412 <fwrite@plt+0x12c2>
  4023ff:	4c 89 e7             	mov    rdi,r12
  402402:	41 ff d7             	call   r15
  402405:	48 8d 04 c0          	lea    rax,[rax+rax*8]
  402409:	49 8d 04 c6          	lea    rax,[r14+rax*8]
  40240d:	48 89 44 1d 00       	mov    QWORD PTR [rbp+rbx*1+0x0],rax
  402412:	48 8b 44 1d f8       	mov    rax,QWORD PTR [rbp+rbx*1-0x8]
  402417:	48 85 c0             	test   rax,rax
  40241a:	74 1b                	je     402437 <fwrite@plt+0x12e7>
  40241c:	48 63 30             	movsxd rsi,DWORD PTR [rax]
  40241f:	48 85 f6             	test   rsi,rsi
  402422:	78 13                	js     402437 <fwrite@plt+0x12e7>
  402424:	4c 89 e7             	mov    rdi,r12
  402427:	41 ff d7             	call   r15
  40242a:	48 8d 04 c0          	lea    rax,[rax+rax*8]
  40242e:	49 8d 04 c6          	lea    rax,[r14+rax*8]
  402432:	48 89 44 1d f8       	mov    QWORD PTR [rbp+rbx*1-0x8],rax
  402437:	49 83 c5 01          	add    r13,0x1
  40243b:	48 83 c3 68          	add    rbx,0x68
  40243f:	4d 3b ac 24 90 01 00 	cmp    r13,QWORD PTR [r12+0x190]
  402446:	00 
  402447:	0f 8c 73 ff ff ff    	jl     4023c0 <fwrite@plt+0x1270>
  40244d:	31 c0                	xor    eax,eax
  40244f:	48 83 c4 08          	add    rsp,0x8
  402453:	5b                   	pop    rbx
  402454:	41 5c                	pop    r12
  402456:	41 5d                	pop    r13
  402458:	41 5e                	pop    r14
  40245a:	41 5f                	pop    r15
  40245c:	5d                   	pop    rbp
  40245d:	c3                   	ret    
  40245e:	66 90                	xchg   ax,ax
  402460:	55                   	push   rbp
  402461:	41 57                	push   r15
  402463:	41 56                	push   r14
  402465:	41 55                	push   r13
  402467:	41 54                	push   r12
  402469:	53                   	push   rbx
  40246a:	50                   	push   rax
  40246b:	48 89 14 24          	mov    QWORD PTR [rsp],rdx
  40246f:	49 89 f7             	mov    r15,rsi
  402472:	49 89 fd             	mov    r13,rdi
  402475:	4c 8b a7 48 02 00 00 	mov    r12,QWORD PTR [rdi+0x248]
  40247c:	48 83 bf 90 01 00 00 	cmp    QWORD PTR [rdi+0x190],0x0
  402483:	00 
  402484:	0f 88 9f 00 00 00    	js     402529 <fwrite@plt+0x13d9>
  40248a:	48 c7 c3 ff ff ff ff 	mov    rbx,0xffffffffffffffff
  402491:	bd 40 00 00 00       	mov    ebp,0x40
  402496:	66 2e 0f 1f 84 00 00 	cs nop WORD PTR [rax+rax*1+0x0]
  40249d:	00 00 00 
  4024a0:	4d 8b b5 28 02 00 00 	mov    r14,QWORD PTR [r13+0x228]
  4024a7:	49 8b 44 2e f0       	mov    rax,QWORD PTR [r14+rbp*1-0x10]
  4024ac:	48 85 c0             	test   rax,rax
  4024af:	74 1b                	je     4024cc <fwrite@plt+0x137c>
  4024b1:	48 63 30             	movsxd rsi,DWORD PTR [rax]
  4024b4:	48 85 f6             	test   rsi,rsi
  4024b7:	78 13                	js     4024cc <fwrite@plt+0x137c>
  4024b9:	4c 89 ef             	mov    rdi,r13
  4024bc:	41 ff d7             	call   r15
  4024bf:	48 8d 04 c0          	lea    rax,[rax+rax*8]
  4024c3:	49 8d 04 c4          	lea    rax,[r12+rax*8]
  4024c7:	49 89 44 2e f0       	mov    QWORD PTR [r14+rbp*1-0x10],rax
  4024cc:	49 8b 04 2e          	mov    rax,QWORD PTR [r14+rbp*1]
  4024d0:	48 85 c0             	test   rax,rax
  4024d3:	74 1a                	je     4024ef <fwrite@plt+0x139f>
  4024d5:	48 63 30             	movsxd rsi,DWORD PTR [rax]
  4024d8:	48 85 f6             	test   rsi,rsi
  4024db:	78 12                	js     4024ef <fwrite@plt+0x139f>
  4024dd:	4c 89 ef             	mov    rdi,r13
  4024e0:	41 ff d7             	call   r15
  4024e3:	48 8d 04 c0          	lea    rax,[rax+rax*8]
  4024e7:	49 8d 04 c4          	lea    rax,[r12+rax*8]
  4024eb:	49 89 04 2e          	mov    QWORD PTR [r14+rbp*1],rax
  4024ef:	49 8b 44 2e f8       	mov    rax,QWORD PTR [r14+rbp*1-0x8]
  4024f4:	48 85 c0             	test   rax,rax
  4024f7:	74 1b                	je     402514 <fwrite@plt+0x13c4>
  4024f9:	48 63 30             	movsxd rsi,DWORD PTR [rax]
  4024fc:	48 85 f6             	test   rsi,rsi
  4024ff:	78 13                	js     402514 <fwrite@plt+0x13c4>
  402501:	4c 89 ef             	mov    rdi,r13
  402504:	41 ff d7             	call   r15
  402507:	48 8d 04 c0          	lea    rax,[rax+rax*8]
  40250b:	49 8d 04 c4          	lea    rax,[r12+rax*8]
  40250f:	49 89 44 2e f8       	mov    QWORD PTR [r14+rbp*1-0x8],rax
  402514:	48 83 c3 01          	add    rbx,0x1
  402518:	48 83 c5 68          	add    rbp,0x68
  40251c:	49 3b 9d 90 01 00 00 	cmp    rbx,QWORD PTR [r13+0x190]
  402523:	0f 8c 77 ff ff ff    	jl     4024a0 <fwrite@plt+0x1350>
  402529:	4d 8b b5 38 02 00 00 	mov    r14,QWORD PTR [r13+0x238]
  402530:	48 8b 04 24          	mov    rax,QWORD PTR [rsp]
  402534:	48 85 c0             	test   rax,rax
  402537:	7e 52                	jle    40258b <fwrite@plt+0x143b>
  402539:	31 ed                	xor    ebp,ebp
  40253b:	48 89 c3             	mov    rbx,rax
  40253e:	66 90                	xchg   ax,ax
  402540:	49 63 34 2e          	movsxd rsi,DWORD PTR [r14+rbp*1]
  402544:	48 85 f6             	test   rsi,rsi
  402547:	78 38                	js     402581 <fwrite@plt+0x1431>
  402549:	4c 89 ef             	mov    rdi,r13
  40254c:	c5 f8 77             	vzeroupper 
  40254f:	41 ff d7             	call   r15
  402552:	48 8d 04 c0          	lea    rax,[rax+rax*8]
  402556:	49 8b 4c 2e 40       	mov    rcx,QWORD PTR [r14+rbp*1+0x40]
  40255b:	49 89 4c c4 40       	mov    QWORD PTR [r12+rax*8+0x40],rcx
  402560:	c4 c1 7c 10 04 2e    	vmovups ymm0,YMMWORD PTR [r14+rbp*1]
  402566:	c4 c1 7c 10 4c 2e 20 	vmovups ymm1,YMMWORD PTR [r14+rbp*1+0x20]
  40256d:	c4 c1 7c 11 4c c4 20 	vmovups YMMWORD PTR [r12+rax*8+0x20],ymm1
  402574:	c4 c1 7c 11 04 c4    	vmovups YMMWORD PTR [r12+rax*8],ymm0
  40257a:	4d 8b b5 38 02 00 00 	mov    r14,QWORD PTR [r13+0x238]
  402581:	48 83 c5 48          	add    rbp,0x48
  402585:	48 83 c3 ff          	add    rbx,0xffffffffffffffff
  402589:	75 b5                	jne    402540 <fwrite@plt+0x13f0>
  40258b:	4d 89 a5 38 02 00 00 	mov    QWORD PTR [r13+0x238],r12
  402592:	4d 89 b5 48 02 00 00 	mov    QWORD PTR [r13+0x248],r14
  402599:	48 8b 04 24          	mov    rax,QWORD PTR [rsp]
  40259d:	48 8d 04 c0          	lea    rax,[rax+rax*8]
  4025a1:	49 8d 04 c4          	lea    rax,[r12+rax*8]
  4025a5:	49 89 85 40 02 00 00 	mov    QWORD PTR [r13+0x240],rax
  4025ac:	31 c0                	xor    eax,eax
  4025ae:	48 83 c4 08          	add    rsp,0x8
  4025b2:	5b                   	pop    rbx
  4025b3:	41 5c                	pop    r12
  4025b5:	41 5d                	pop    r13
  4025b7:	41 5e                	pop    r14
  4025b9:	41 5f                	pop    r15
  4025bb:	5d                   	pop    rbp
  4025bc:	c5 f8 77             	vzeroupper 
  4025bf:	c3                   	ret    
  4025c0:	48 81 bf 98 01 00 00 	cmp    QWORD PTR [rdi+0x198],0x3a99
  4025c7:	99 3a 00 00 
  4025cb:	48 c7 c0 c0 bd f0 ff 	mov    rax,0xfffffffffff0bdc0
  4025d2:	49 c7 c0 00 f7 c2 ff 	mov    r8,0xffffffffffc2f700
  4025d9:	4c 0f 4c c0          	cmovl  r8,rax
  4025dd:	4c 03 87 c0 01 00 00 	add    r8,QWORD PTR [rdi+0x1c0]
  4025e4:	48 c7 06 00 00 00 00 	mov    QWORD PTR [rsi],0x0
  4025eb:	4c 8b 0a             	mov    r9,QWORD PTR [rdx]
  4025ee:	4c 89 0e             	mov    QWORD PTR [rsi],r9
  4025f1:	31 c0                	xor    eax,eax
  4025f3:	4d 85 c0             	test   r8,r8
  4025f6:	7e 48                	jle    402640 <fwrite@plt+0x14f0>
  4025f8:	4d 85 c9             	test   r9,r9
  4025fb:	7e 43                	jle    402640 <fwrite@plt+0x14f0>
  4025fd:	4c 8b 09             	mov    r9,QWORD PTR [rcx]
  402600:	4c 8b 97 a8 01 00 00 	mov    r10,QWORD PTR [rdi+0x1a8]
  402607:	31 c0                	xor    eax,eax
  402609:	0f 1f 80 00 00 00 00 	nop    DWORD PTR [rax+0x0]
  402610:	48 3b 02             	cmp    rax,QWORD PTR [rdx]
  402613:	7d 0b                	jge    402620 <fwrite@plt+0x14d0>
  402615:	4d 8b 1c c1          	mov    r11,QWORD PTR [r9+rax*8]
  402619:	eb 08                	jmp    402623 <fwrite@plt+0x14d3>
  40261b:	0f 1f 44 00 00       	nop    DWORD PTR [rax+rax*1+0x0]
  402620:	45 31 db             	xor    r11d,r11d
  402623:	41 8d 0c 02          	lea    ecx,[r10+rax*1]
  402627:	41 89 0b             	mov    DWORD PTR [r11],ecx
  40262a:	49 c7 43 38 01 00 00 	mov    QWORD PTR [r11+0x38],0x1
  402631:	00 
  402632:	48 83 c0 01          	add    rax,0x1
  402636:	4c 39 c0             	cmp    rax,r8
  402639:	7d 05                	jge    402640 <fwrite@plt+0x14f0>
  40263b:	48 3b 06             	cmp    rax,QWORD PTR [rsi]
  40263e:	7c d0                	jl     402610 <fwrite@plt+0x14c0>
  402640:	48 89 06             	mov    QWORD PTR [rsi],rax
  402643:	48 c7 87 80 02 00 00 	mov    QWORD PTR [rdi+0x280],0xfa0
  40264a:	a0 0f 00 00 
  40264e:	48 8b 06             	mov    rax,QWORD PTR [rsi]
  402651:	48 8b 8f a8 01 00 00 	mov    rcx,QWORD PTR [rdi+0x1a8]
  402658:	48 01 c8             	add    rax,rcx
  40265b:	48 83 c0 ff          	add    rax,0xffffffffffffffff
  40265f:	49 b9 cf f7 53 e3 a5 	movabs r9,0x20c49ba5e353f7cf
  402666:	9b c4 20 
  402669:	49 f7 e9             	imul   r9
  40266c:	48 89 d0             	mov    rax,rdx
  40266f:	48 c1 e8 3f          	shr    rax,0x3f
  402673:	48 c1 fa 09          	sar    rdx,0x9
  402677:	4c 8d 14 02          	lea    r10,[rdx+rax*1]
  40267b:	4c 8d 04 02          	lea    r8,[rdx+rax*1]
  40267f:	49 83 c0 01          	add    r8,0x1
  402683:	4c 89 87 70 02 00 00 	mov    QWORD PTR [rdi+0x270],r8
  40268a:	48 03 0e             	add    rcx,QWORD PTR [rsi]
  40268d:	48 89 c8             	mov    rax,rcx
  402690:	49 f7 e9             	imul   r9
  402693:	48 89 d0             	mov    rax,rdx
  402696:	48 c1 e8 3f          	shr    rax,0x3f
  40269a:	48 c1 fa 09          	sar    rdx,0x9
  40269e:	48 01 c2             	add    rdx,rax
  4026a1:	48 69 c2 a0 0f 00 00 	imul   rax,rdx,0xfa0
  4026a8:	48 29 c1             	sub    rcx,rax
  4026ab:	4a 8d 8c 11 61 f0 ff 	lea    rcx,[rcx+r10*1-0xf9f]
  4026b2:	ff 
  4026b3:	49 0f 44 c8          	cmove  rcx,r8
  4026b7:	48 89 8f 78 02 00 00 	mov    QWORD PTR [rdi+0x278],rcx
  4026be:	48 85 c9             	test   rcx,rcx
  4026c1:	78 01                	js     4026c4 <fwrite@plt+0x1574>
  4026c3:	c3                   	ret    
  4026c4:	48 89 c8             	mov    rax,rcx
  4026c7:	48 f7 d0             	not    rax
  4026ca:	31 d2                	xor    edx,edx
  4026cc:	49 f7 f0             	div    r8
  4026cf:	48 83 c0 01          	add    rax,0x1
  4026d3:	48 83 f8 07          	cmp    rax,0x7
  4026d7:	77 0a                	ja     4026e3 <fwrite@plt+0x1593>
  4026d9:	ba a0 0f 00 00       	mov    edx,0xfa0
  4026de:	e9 cd 00 00 00       	jmp    4027b0 <fwrite@plt+0x1660>
  4026e3:	49 89 c1             	mov    r9,rax
  4026e6:	49 83 e1 f8          	and    r9,0xfffffffffffffff8
  4026ea:	4d 8d 51 f8          	lea    r10,[r9-0x8]
  4026ee:	4c 89 d2             	mov    rdx,r10
  4026f1:	48 c1 ea 03          	shr    rdx,0x3
  4026f5:	48 83 c2 01          	add    rdx,0x1
  4026f9:	41 89 d3             	mov    r11d,edx
  4026fc:	41 83 e3 03          	and    r11d,0x3
  402700:	49 83 fa 18          	cmp    r10,0x18
  402704:	73 18                	jae    40271e <fwrite@plt+0x15ce>
  402706:	ba a0 0f 00 00       	mov    edx,0xfa0
  40270b:	c4 e1 f9 6e c2       	vmovq  xmm0,rdx
  402710:	c5 f1 ef c9          	vpxor  xmm1,xmm1,xmm1
  402714:	c5 e9 ef d2          	vpxor  xmm2,xmm2,xmm2
  402718:	c5 e1 ef db          	vpxor  xmm3,xmm3,xmm3
  40271c:	eb 38                	jmp    402756 <fwrite@plt+0x1606>
  40271e:	4c 29 da             	sub    rdx,r11
  402721:	be a0 0f 00 00       	mov    esi,0xfa0
  402726:	c4 e1 f9 6e c6       	vmovq  xmm0,rsi
  40272b:	c5 f1 ef c9          	vpxor  xmm1,xmm1,xmm1
  40272f:	c5 f9 6f 25 c9 6b 00 	vmovdqa xmm4,XMMWORD PTR [rip+0x6bc9]        # 409300 <fwrite@plt+0x81b0>
  402736:	00 
  402737:	c5 e9 ef d2          	vpxor  xmm2,xmm2,xmm2
  40273b:	c5 e1 ef db          	vpxor  xmm3,xmm3,xmm3
  40273f:	90                   	nop
  402740:	c5 f9 d4 c4          	vpaddq xmm0,xmm0,xmm4
  402744:	c5 f1 d4 cc          	vpaddq xmm1,xmm1,xmm4
  402748:	c5 e9 d4 d4          	vpaddq xmm2,xmm2,xmm4
  40274c:	c5 e1 d4 dc          	vpaddq xmm3,xmm3,xmm4
  402750:	48 83 c2 fc          	add    rdx,0xfffffffffffffffc
  402754:	75 ea                	jne    402740 <fwrite@plt+0x15f0>
  402756:	4c 89 ca             	mov    rdx,r9
  402759:	49 0f af d0          	imul   rdx,r8
  40275d:	4d 85 db             	test   r11,r11
  402760:	74 24                	je     402786 <fwrite@plt+0x1636>
  402762:	c5 d9 76 e4          	vpcmpeqd xmm4,xmm4,xmm4
  402766:	66 2e 0f 1f 84 00 00 	cs nop WORD PTR [rax+rax*1+0x0]
  40276d:	00 00 00 
  402770:	c5 f9 d4 c4          	vpaddq xmm0,xmm0,xmm4
  402774:	c5 f1 d4 cc          	vpaddq xmm1,xmm1,xmm4
  402778:	c5 e9 d4 d4          	vpaddq xmm2,xmm2,xmm4
  40277c:	c5 e1 d4 dc          	vpaddq xmm3,xmm3,xmm4
  402780:	49 83 c3 ff          	add    r11,0xffffffffffffffff
  402784:	75 ea                	jne    402770 <fwrite@plt+0x1620>
  402786:	c5 f1 d4 cb          	vpaddq xmm1,xmm1,xmm3
  40278a:	c5 f9 d4 c2          	vpaddq xmm0,xmm0,xmm2
  40278e:	c5 f9 d4 c1          	vpaddq xmm0,xmm0,xmm1
  402792:	48 01 d1             	add    rcx,rdx
  402795:	c5 f9 70 c8 4e       	vpshufd xmm1,xmm0,0x4e
  40279a:	c5 f9 d4 c1          	vpaddq xmm0,xmm0,xmm1
  40279e:	c4 e1 f9 7e c2       	vmovq  rdx,xmm0
  4027a3:	4c 39 c8             	cmp    rax,r9
  4027a6:	74 11                	je     4027b9 <fwrite@plt+0x1669>
  4027a8:	0f 1f 84 00 00 00 00 	nop    DWORD PTR [rax+rax*1+0x0]
  4027af:	00 
  4027b0:	48 83 c2 ff          	add    rdx,0xffffffffffffffff
  4027b4:	4c 01 c1             	add    rcx,r8
  4027b7:	78 f7                	js     4027b0 <fwrite@plt+0x1660>
  4027b9:	48 89 8f 78 02 00 00 	mov    QWORD PTR [rdi+0x278],rcx
  4027c0:	48 89 97 80 02 00 00 	mov    QWORD PTR [rdi+0x280],rdx
  4027c7:	c3                   	ret    
  4027c8:	0f 1f 84 00 00 00 00 	nop    DWORD PTR [rax+rax*1+0x0]
  4027cf:	00 
  4027d0:	48 8b 17             	mov    rdx,QWORD PTR [rdi]
  4027d3:	48 8b 0e             	mov    rcx,QWORD PTR [rsi]
  4027d6:	48 8b 71 38          	mov    rsi,QWORD PTR [rcx+0x38]
  4027da:	b8 01 00 00 00       	mov    eax,0x1
  4027df:	48 39 72 38          	cmp    QWORD PTR [rdx+0x38],rsi
  4027e3:	7f 16                	jg     4027fb <fwrite@plt+0x16ab>
  4027e5:	b8 ff ff ff ff       	mov    eax,0xffffffff
  4027ea:	7c 0f                	jl     4027fb <fwrite@plt+0x16ab>
  4027ec:	8b 02                	mov    eax,DWORD PTR [rdx]
  4027ee:	31 d2                	xor    edx,edx
  4027f0:	3b 01                	cmp    eax,DWORD PTR [rcx]
  4027f2:	0f 9d c2             	setge  dl
  4027f5:	8d 04 12             	lea    eax,[rdx+rdx*1]
  4027f8:	83 c0 ff             	add    eax,0xffffffff
  4027fb:	c3                   	ret    
  4027fc:	0f 1f 40 00          	nop    DWORD PTR [rax+0x0]
  402800:	53                   	push   rbx
  402801:	48 89 fb             	mov    rbx,rdi
  402804:	48 8b 87 c8 01 00 00 	mov    rax,QWORD PTR [rdi+0x1c8]
  40280b:	48 8b bf 38 02 00 00 	mov    rdi,QWORD PTR [rdi+0x238]
  402812:	48 8b 8b a0 01 00 00 	mov    rcx,QWORD PTR [rbx+0x1a0]
  402819:	48 01 c1             	add    rcx,rax
  40281c:	48 89 8b a0 01 00 00 	mov    QWORD PTR [rbx+0x1a0],rcx
  402823:	48 01 83 c0 01 00 00 	add    QWORD PTR [rbx+0x1c0],rax
  40282a:	48 c1 e1 03          	shl    rcx,0x3
  40282e:	48 8d 34 c9          	lea    rsi,[rcx+rcx*8]
  402832:	e8 d9 e8 ff ff       	call   401110 <realloc@plt>
  402837:	48 85 c0             	test   rax,rax
  40283a:	0f 84 8a 00 00 00    	je     4028ca <fwrite@plt+0x177a>
  402840:	4c 8b 83 38 02 00 00 	mov    r8,QWORD PTR [rbx+0x238]
  402847:	48 89 83 38 02 00 00 	mov    QWORD PTR [rbx+0x238],rax
  40284e:	48 8b 8b a8 01 00 00 	mov    rcx,QWORD PTR [rbx+0x1a8]
  402855:	48 8b 93 28 02 00 00 	mov    rdx,QWORD PTR [rbx+0x228]
  40285c:	48 8d 0c c9          	lea    rcx,[rcx+rcx*8]
  402860:	48 8d 0c c8          	lea    rcx,[rax+rcx*8]
  402864:	48 89 8b 40 02 00 00 	mov    QWORD PTR [rbx+0x240],rcx
  40286b:	48 8b b3 30 02 00 00 	mov    rsi,QWORD PTR [rbx+0x230]
  402872:	48 8d 7a 68          	lea    rdi,[rdx+0x68]
  402876:	48 39 f7             	cmp    rdi,rsi
  402879:	72 0e                	jb     402889 <fwrite@plt+0x1739>
  40287b:	eb 27                	jmp    4028a4 <fwrite@plt+0x1754>
  40287d:	0f 1f 00             	nop    DWORD PTR [rax]
  402880:	48 83 c7 68          	add    rdi,0x68
  402884:	48 39 f7             	cmp    rdi,rsi
  402887:	73 1b                	jae    4028a4 <fwrite@plt+0x1754>
  402889:	48 8b 4f 30          	mov    rcx,QWORD PTR [rdi+0x30]
  40288d:	48 85 c9             	test   rcx,rcx
  402890:	74 ee                	je     402880 <fwrite@plt+0x1730>
  402892:	48 39 57 18          	cmp    QWORD PTR [rdi+0x18],rdx
  402896:	74 e8                	je     402880 <fwrite@plt+0x1730>
  402898:	4c 29 c1             	sub    rcx,r8
  40289b:	48 01 c1             	add    rcx,rax
  40289e:	48 89 4f 30          	mov    QWORD PTR [rdi+0x30],rcx
  4028a2:	eb dc                	jmp    402880 <fwrite@plt+0x1730>
  4028a4:	48 8b 83 a0 01 00 00 	mov    rax,QWORD PTR [rbx+0x1a0]
  4028ab:	48 8b bb 48 02 00 00 	mov    rdi,QWORD PTR [rbx+0x248]
  4028b2:	48 c1 e0 03          	shl    rax,0x3
  4028b6:	48 8d 34 c0          	lea    rsi,[rax+rax*8]
  4028ba:	e8 51 e8 ff ff       	call   401110 <realloc@plt>
  4028bf:	48 89 83 48 02 00 00 	mov    QWORD PTR [rbx+0x248],rax
  4028c6:	31 c0                	xor    eax,eax
  4028c8:	5b                   	pop    rbx
  4028c9:	c3                   	ret    
  4028ca:	bf e0 93 40 00       	mov    edi,0x4093e0
  4028cf:	31 c0                	xor    eax,eax
  4028d1:	48 89 de             	mov    rsi,rbx
  4028d4:	e8 a7 e7 ff ff       	call   401080 <printf@plt>
  4028d9:	48 8b 3d e0 97 00 00 	mov    rdi,QWORD PTR [rip+0x97e0]        # 40c0c0 <stdout@@GLIBC_2.2.5>
  4028e0:	e8 fb e7 ff ff       	call   4010e0 <fflush@plt>
  4028e5:	48 c7 c0 ff ff ff ff 	mov    rax,0xffffffffffffffff
  4028ec:	5b                   	pop    rbx
  4028ed:	c3                   	ret    
  4028ee:	66 90                	xchg   ax,ax
  4028f0:	41 57                	push   r15
  4028f2:	41 56                	push   r14
  4028f4:	41 54                	push   r12
  4028f6:	53                   	push   rbx
  4028f7:	44 8b 54 24 30       	mov    r10d,DWORD PTR [rsp+0x30]
  4028fc:	48 8d 04 f6          	lea    rax,[rsi+rsi*8]
  402900:	48 89 54 c7 10       	mov    QWORD PTR [rdi+rax*8+0x10],rdx
  402905:	48 89 4c c7 18       	mov    QWORD PTR [rdi+rax*8+0x18],rcx
  40290a:	4c 89 44 c7 40       	mov    QWORD PTR [rdi+rax*8+0x40],r8
  40290f:	4c 89 44 c7 08       	mov    QWORD PTR [rdi+rax*8+0x8],r8
  402914:	4c 89 4c c7 38       	mov    QWORD PTR [rdi+rax*8+0x38],r9
  402919:	44 89 14 c7          	mov    DWORD PTR [rdi+rax*8],r10d
  40291d:	48 85 f6             	test   rsi,rsi
  402920:	0f 84 84 00 00 00    	je     4029aa <fwrite@plt+0x185a>
  402926:	4c 8d 7e 01          	lea    r15,[rsi+0x1]
  40292a:	66 0f 1f 44 00 00    	nop    WORD PTR [rax+rax*1+0x0]
  402930:	4c 89 f8             	mov    rax,r15
  402933:	48 c1 e8 3f          	shr    rax,0x3f
  402937:	49 01 c7             	add    r15,rax
  40293a:	49 d1 ff             	sar    r15,1
  40293d:	4d 8d 5f ff          	lea    r11,[r15-0x1]
  402941:	4b 8d 1c db          	lea    rbx,[r11+r11*8]
  402945:	4c 8b 74 df 38       	mov    r14,QWORD PTR [rdi+rbx*8+0x38]
  40294a:	4d 39 ce             	cmp    r14,r9
  40294d:	7d 5b                	jge    4029aa <fwrite@plt+0x185a>
  40294f:	4c 8d 24 df          	lea    r12,[rdi+rbx*8]
  402953:	49 83 c4 38          	add    r12,0x38
  402957:	48 8b 44 df 18       	mov    rax,QWORD PTR [rdi+rbx*8+0x18]
  40295c:	48 8d 34 f6          	lea    rsi,[rsi+rsi*8]
  402960:	48 89 44 f7 18       	mov    QWORD PTR [rdi+rsi*8+0x18],rax
  402965:	c5 f8 10 44 df 08    	vmovups xmm0,XMMWORD PTR [rdi+rbx*8+0x8]
  40296b:	c5 f8 11 44 f7 08    	vmovups XMMWORD PTR [rdi+rsi*8+0x8],xmm0
  402971:	48 8b 44 df 08       	mov    rax,QWORD PTR [rdi+rbx*8+0x8]
  402976:	48 89 44 f7 40       	mov    QWORD PTR [rdi+rsi*8+0x40],rax
  40297b:	4c 89 74 f7 38       	mov    QWORD PTR [rdi+rsi*8+0x38],r14
  402980:	8b 04 df             	mov    eax,DWORD PTR [rdi+rbx*8]
  402983:	89 04 f7             	mov    DWORD PTR [rdi+rsi*8],eax
  402986:	48 89 54 df 10       	mov    QWORD PTR [rdi+rbx*8+0x10],rdx
  40298b:	48 89 4c df 18       	mov    QWORD PTR [rdi+rbx*8+0x18],rcx
  402990:	4c 89 44 df 08       	mov    QWORD PTR [rdi+rbx*8+0x8],r8
  402995:	4c 89 44 df 40       	mov    QWORD PTR [rdi+rbx*8+0x40],r8
  40299a:	4d 89 0c 24          	mov    QWORD PTR [r12],r9
  40299e:	44 89 14 df          	mov    DWORD PTR [rdi+rbx*8],r10d
  4029a2:	4c 89 de             	mov    rsi,r11
  4029a5:	4d 85 db             	test   r11,r11
  4029a8:	75 86                	jne    402930 <fwrite@plt+0x17e0>
  4029aa:	5b                   	pop    rbx
  4029ab:	41 5c                	pop    r12
  4029ad:	41 5e                	pop    r14
  4029af:	41 5f                	pop    r15
  4029b1:	c3                   	ret    
  4029b2:	66 2e 0f 1f 84 00 00 	cs nop WORD PTR [rax+rax*1+0x0]
  4029b9:	00 00 00 
  4029bc:	0f 1f 40 00          	nop    DWORD PTR [rax+0x0]
  4029c0:	41 57                	push   r15
  4029c2:	41 56                	push   r14
  4029c4:	41 54                	push   r12
  4029c6:	53                   	push   rbx
  4029c7:	44 8b 54 24 28       	mov    r10d,DWORD PTR [rsp+0x28]
  4029cc:	48 89 77 10          	mov    QWORD PTR [rdi+0x10],rsi
  4029d0:	48 89 57 18          	mov    QWORD PTR [rdi+0x18],rdx
  4029d4:	48 89 4f 40          	mov    QWORD PTR [rdi+0x40],rcx
  4029d8:	48 89 4f 08          	mov    QWORD PTR [rdi+0x8],rcx
  4029dc:	4c 89 47 38          	mov    QWORD PTR [rdi+0x38],r8
  4029e0:	44 89 17             	mov    DWORD PTR [rdi],r10d
  4029e3:	48 8b 87 80 00 00 00 	mov    rax,QWORD PTR [rdi+0x80]
  4029ea:	45 31 db             	xor    r11d,r11d
  4029ed:	48 3b 87 c8 00 00 00 	cmp    rax,QWORD PTR [rdi+0xc8]
  4029f4:	41 0f 9f c3          	setg   r11b
  4029f8:	49 83 f3 03          	xor    r11,0x3
  4029fc:	4d 39 cb             	cmp    r11,r9
  4029ff:	0f 8f ac 00 00 00    	jg     402ab1 <fwrite@plt+0x1961>
  402a05:	41 be 01 00 00 00    	mov    r14d,0x1
  402a0b:	0f 1f 44 00 00       	nop    DWORD PTR [rax+rax*1+0x0]
  402a10:	49 8d 43 ff          	lea    rax,[r11-0x1]
  402a14:	48 8d 04 c0          	lea    rax,[rax+rax*8]
  402a18:	4c 8b 64 c7 38       	mov    r12,QWORD PTR [rdi+rax*8+0x38]
  402a1d:	4d 39 c4             	cmp    r12,r8
  402a20:	0f 8e 8b 00 00 00    	jle    402ab1 <fwrite@plt+0x1961>
  402a26:	4d 89 df             	mov    r15,r11
  402a29:	4c 8d 1c c7          	lea    r11,[rdi+rax*8]
  402a2d:	49 83 c3 38          	add    r11,0x38
  402a31:	4f 8d 34 f6          	lea    r14,[r14+r14*8]
  402a35:	48 8b 5c c7 18       	mov    rbx,QWORD PTR [rdi+rax*8+0x18]
  402a3a:	4a 89 5c f7 d0       	mov    QWORD PTR [rdi+r14*8-0x30],rbx
  402a3f:	c5 f8 10 44 c7 08    	vmovups xmm0,XMMWORD PTR [rdi+rax*8+0x8]
  402a45:	c4 a1 78 11 44 f7 c0 	vmovups XMMWORD PTR [rdi+r14*8-0x40],xmm0
  402a4c:	48 8b 5c c7 08       	mov    rbx,QWORD PTR [rdi+rax*8+0x8]
  402a51:	4a 89 5c f7 f8       	mov    QWORD PTR [rdi+r14*8-0x8],rbx
  402a56:	4e 89 64 f7 f0       	mov    QWORD PTR [rdi+r14*8-0x10],r12
  402a5b:	8b 1c c7             	mov    ebx,DWORD PTR [rdi+rax*8]
  402a5e:	42 89 5c f7 b8       	mov    DWORD PTR [rdi+r14*8-0x48],ebx
  402a63:	48 89 74 c7 10       	mov    QWORD PTR [rdi+rax*8+0x10],rsi
  402a68:	48 89 54 c7 18       	mov    QWORD PTR [rdi+rax*8+0x18],rdx
  402a6d:	48 89 4c c7 08       	mov    QWORD PTR [rdi+rax*8+0x8],rcx
  402a72:	48 89 4c c7 40       	mov    QWORD PTR [rdi+rax*8+0x40],rcx
  402a77:	4d 89 03             	mov    QWORD PTR [r11],r8
  402a7a:	44 89 14 c7          	mov    DWORD PTR [rdi+rax*8],r10d
  402a7e:	4f 8d 1c 3f          	lea    r11,[r15+r15*1]
  402a82:	4b 8d 04 3f          	lea    rax,[r15+r15*1]
  402a86:	48 83 c0 01          	add    rax,0x1
  402a8a:	4c 39 c8             	cmp    rax,r9
  402a8d:	7f 16                	jg     402aa5 <fwrite@plt+0x1955>
  402a8f:	4f 8d 34 db          	lea    r14,[r11+r11*8]
  402a93:	4a 8b 5c f7 f0       	mov    rbx,QWORD PTR [rdi+r14*8-0x10]
  402a98:	4a 3b 5c f7 38       	cmp    rbx,QWORD PTR [rdi+r14*8+0x38]
  402a9d:	7c 03                	jl     402aa2 <fwrite@plt+0x1952>
  402a9f:	4c 89 d8             	mov    rax,r11
  402aa2:	49 89 c3             	mov    r11,rax
  402aa5:	4d 89 fe             	mov    r14,r15
  402aa8:	4d 39 cb             	cmp    r11,r9
  402aab:	0f 8e 5f ff ff ff    	jle    402a10 <fwrite@plt+0x18c0>
  402ab1:	5b                   	pop    rbx
  402ab2:	41 5c                	pop    r12
  402ab4:	41 5e                	pop    r14
  402ab6:	41 5f                	pop    r15
  402ab8:	c3                   	ret    
  402ab9:	0f 1f 80 00 00 00 00 	nop    DWORD PTR [rax+0x0]
  402ac0:	48 c7 06 00 00 00 00 	mov    QWORD PTR [rsi],0x0
  402ac7:	48 85 c9             	test   rcx,rcx
  402aca:	7e 72                	jle    402b3e <fwrite@plt+0x19ee>
  402acc:	41 89 c8             	mov    r8d,ecx
  402acf:	41 83 e0 01          	and    r8d,0x1
  402ad3:	48 83 f9 01          	cmp    rcx,0x1
  402ad7:	75 0c                	jne    402ae5 <fwrite@plt+0x1995>
  402ad9:	45 31 c9             	xor    r9d,r9d
  402adc:	31 c0                	xor    eax,eax
  402ade:	4d 85 c0             	test   r8,r8
  402ae1:	75 48                	jne    402b2b <fwrite@plt+0x19db>
  402ae3:	eb 59                	jmp    402b3e <fwrite@plt+0x19ee>
  402ae5:	4c 29 c1             	sub    rcx,r8
  402ae8:	45 31 c9             	xor    r9d,r9d
  402aeb:	31 c0                	xor    eax,eax
  402aed:	0f 1f 00             	nop    DWORD PTR [rax]
  402af0:	48 8b 3c c2          	mov    rdi,QWORD PTR [rdx+rax*8]
  402af4:	48 8b 3f             	mov    rdi,QWORD PTR [rdi]
  402af7:	48 8b 7f 38          	mov    rdi,QWORD PTR [rdi+0x38]
  402afb:	4c 39 cf             	cmp    rdi,r9
  402afe:	7e 06                	jle    402b06 <fwrite@plt+0x19b6>
  402b00:	48 89 3e             	mov    QWORD PTR [rsi],rdi
  402b03:	49 89 f9             	mov    r9,rdi
  402b06:	48 8b 7c c2 08       	mov    rdi,QWORD PTR [rdx+rax*8+0x8]
  402b0b:	48 8b 3f             	mov    rdi,QWORD PTR [rdi]
  402b0e:	48 8b 7f 38          	mov    rdi,QWORD PTR [rdi+0x38]
  402b12:	4c 39 cf             	cmp    rdi,r9
  402b15:	7e 06                	jle    402b1d <fwrite@plt+0x19cd>
  402b17:	48 89 3e             	mov    QWORD PTR [rsi],rdi
  402b1a:	49 89 f9             	mov    r9,rdi
  402b1d:	48 83 c0 02          	add    rax,0x2
  402b21:	48 39 c1             	cmp    rcx,rax
  402b24:	75 ca                	jne    402af0 <fwrite@plt+0x19a0>
  402b26:	4d 85 c0             	test   r8,r8
  402b29:	74 13                	je     402b3e <fwrite@plt+0x19ee>
  402b2b:	48 8b 04 c2          	mov    rax,QWORD PTR [rdx+rax*8]
  402b2f:	48 8b 00             	mov    rax,QWORD PTR [rax]
  402b32:	48 8b 40 38          	mov    rax,QWORD PTR [rax+0x38]
  402b36:	4c 39 c8             	cmp    rax,r9
  402b39:	7e 03                	jle    402b3e <fwrite@plt+0x19ee>
  402b3b:	48 89 06             	mov    QWORD PTR [rsi],rax
  402b3e:	c3                   	ret    
  402b3f:	90                   	nop
  402b40:	55                   	push   rbp
  402b41:	41 57                	push   r15
  402b43:	41 56                	push   r14
  402b45:	41 55                	push   r13
  402b47:	41 54                	push   r12
  402b49:	53                   	push   rbx
  402b4a:	48 83 ec 38          	sub    rsp,0x38
  402b4e:	4c 89 4c 24 30       	mov    QWORD PTR [rsp+0x30],r9
  402b53:	48 89 74 24 20       	mov    QWORD PTR [rsp+0x20],rsi
  402b58:	48 83 7c 24 78 00    	cmp    QWORD PTR [rsp+0x78],0x0
  402b5e:	0f 8e 07 01 00 00    	jle    402c6b <fwrite@plt+0x1b1b>
  402b64:	49 89 cf             	mov    r15,rcx
  402b67:	48 89 d1             	mov    rcx,rdx
  402b6a:	49 63 e8             	movsxd rbp,r8d
  402b6d:	31 ff                	xor    edi,edi
  402b6f:	31 c0                	xor    eax,eax
  402b71:	48 89 44 24 10       	mov    QWORD PTR [rsp+0x10],rax
  402b76:	48 89 54 24 18       	mov    QWORD PTR [rsp+0x18],rdx
  402b7b:	0f 1f 44 00 00       	nop    DWORD PTR [rax+rax*1+0x0]
  402b80:	48 8b 44 24 20       	mov    rax,QWORD PTR [rsp+0x20]
  402b85:	4c 8b 34 e8          	mov    r14,QWORD PTR [rax+rbp*8]
  402b89:	48 8b 44 24 70       	mov    rax,QWORD PTR [rsp+0x70]
  402b8e:	49 39 c6             	cmp    r14,rax
  402b91:	4c 0f 4f f0          	cmovg  r14,rax
  402b95:	4d 85 f6             	test   r14,r14
  402b98:	48 89 7c 24 28       	mov    QWORD PTR [rsp+0x28],rdi
  402b9d:	0f 8e a0 00 00 00    	jle    402c43 <fwrite@plt+0x1af3>
  402ba3:	45 31 e4             	xor    r12d,r12d
  402ba6:	45 31 ed             	xor    r13d,r13d
  402ba9:	0f 1f 80 00 00 00 00 	nop    DWORD PTR [rax+0x0]
  402bb0:	48 8b 04 e9          	mov    rax,QWORD PTR [rcx+rbp*8]
  402bb4:	66 42 83 7c 20 20 00 	cmp    WORD PTR [rax+r12*1+0x20],0x0
  402bbb:	75 75                	jne    402c32 <fwrite@plt+0x1ae2>
  402bbd:	4e 8b 44 20 38       	mov    r8,QWORD PTR [rax+r12*1+0x38]
  402bc2:	4d 3b 47 38          	cmp    r8,QWORD PTR [r15+0x38]
  402bc6:	7d 06                	jge    402bce <fwrite@plt+0x1a7e>
  402bc8:	42 8b 3c 20          	mov    edi,DWORD PTR [rax+r12*1]
  402bcc:	eb 12                	jmp    402be0 <fwrite@plt+0x1a90>
  402bce:	75 62                	jne    402c32 <fwrite@plt+0x1ae2>
  402bd0:	42 8b 3c 20          	mov    edi,DWORD PTR [rax+r12*1]
  402bd4:	41 3b 3f             	cmp    edi,DWORD PTR [r15]
  402bd7:	7d 54                	jge    402c2d <fwrite@plt+0x1add>
  402bd9:	0f 1f 80 00 00 00 00 	nop    DWORD PTR [rax+0x0]
  402be0:	4a 8b 4c 20 08       	mov    rcx,QWORD PTR [rax+r12*1+0x8]
  402be5:	4a 8b 74 20 10       	mov    rsi,QWORD PTR [rax+r12*1+0x10]
  402bea:	4a 8b 54 20 18       	mov    rdx,QWORD PTR [rax+r12*1+0x18]
  402bef:	48 83 44 24 10 01    	add    QWORD PTR [rsp+0x10],0x1
  402bf5:	c4 c1 7c 10 07       	vmovups ymm0,YMMWORD PTR [r15]
  402bfa:	c4 c1 7c 10 4f 20    	vmovups ymm1,YMMWORD PTR [r15+0x20]
  402c00:	c4 a1 7c 11 4c 20 20 	vmovups YMMWORD PTR [rax+r12*1+0x20],ymm1
  402c07:	49 8b 5f 40          	mov    rbx,QWORD PTR [r15+0x40]
  402c0b:	4a 89 5c 20 40       	mov    QWORD PTR [rax+r12*1+0x40],rbx
  402c10:	c4 a1 7c 11 04 20    	vmovups YMMWORD PTR [rax+r12*1],ymm0
  402c16:	48 63 c7             	movsxd rax,edi
  402c19:	48 89 04 24          	mov    QWORD PTR [rsp],rax
  402c1d:	4c 89 ff             	mov    rdi,r15
  402c20:	4c 8b 4c 24 30       	mov    r9,QWORD PTR [rsp+0x30]
  402c25:	c5 f8 77             	vzeroupper 
  402c28:	e8 93 fd ff ff       	call   4029c0 <fwrite@plt+0x1870>
  402c2d:	48 8b 4c 24 18       	mov    rcx,QWORD PTR [rsp+0x18]
  402c32:	49 83 c5 01          	add    r13,0x1
  402c36:	49 83 c4 48          	add    r12,0x48
  402c3a:	4d 39 f5             	cmp    r13,r14
  402c3d:	0f 8c 6d ff ff ff    	jl     402bb0 <fwrite@plt+0x1a60>
  402c43:	48 8b 7c 24 28       	mov    rdi,QWORD PTR [rsp+0x28]
  402c48:	48 83 c7 01          	add    rdi,0x1
  402c4c:	48 83 c5 01          	add    rbp,0x1
  402c50:	48 89 e8             	mov    rax,rbp
  402c53:	48 99                	cqo    
  402c55:	48 8b 74 24 78       	mov    rsi,QWORD PTR [rsp+0x78]
  402c5a:	48 f7 fe             	idiv   rsi
  402c5d:	48 89 d5             	mov    rbp,rdx
  402c60:	48 39 f7             	cmp    rdi,rsi
  402c63:	0f 85 17 ff ff ff    	jne    402b80 <fwrite@plt+0x1a30>
  402c69:	eb 07                	jmp    402c72 <fwrite@plt+0x1b22>
  402c6b:	31 c0                	xor    eax,eax
  402c6d:	48 89 44 24 10       	mov    QWORD PTR [rsp+0x10],rax
  402c72:	48 8b 44 24 10       	mov    rax,QWORD PTR [rsp+0x10]
  402c77:	48 83 c4 38          	add    rsp,0x38
  402c7b:	5b                   	pop    rbx
  402c7c:	41 5c                	pop    r12
  402c7e:	41 5d                	pop    r13
  402c80:	41 5e                	pop    r14
  402c82:	41 5f                	pop    r15
  402c84:	5d                   	pop    rbp
  402c85:	c3                   	ret    
  402c86:	66 2e 0f 1f 84 00 00 	cs nop WORD PTR [rax+rax*1+0x0]
  402c8d:	00 00 00 
  402c90:	55                   	push   rbp
  402c91:	41 57                	push   r15
  402c93:	41 56                	push   r14
  402c95:	41 55                	push   r13
  402c97:	41 54                	push   r12
  402c99:	53                   	push   rbx
  402c9a:	48 81 ec a8 00 00 00 	sub    rsp,0xa8
  402ca1:	48 89 fd             	mov    rbp,rdi
  402ca4:	48 8b 87 10 02 00 00 	mov    rax,QWORD PTR [rdi+0x210]
  402cab:	48 89 84 24 88 00 00 	mov    QWORD PTR [rsp+0x88],rax
  402cb2:	00 
  402cb3:	48 8b 87 98 01 00 00 	mov    rax,QWORD PTR [rdi+0x198]
  402cba:	48 8b 8f a0 01 00 00 	mov    rcx,QWORD PTR [rdi+0x1a0]
  402cc1:	48 8b 97 a8 01 00 00 	mov    rdx,QWORD PTR [rdi+0x1a8]
  402cc8:	48 8b b7 c8 01 00 00 	mov    rsi,QWORD PTR [rdi+0x1c8]
  402ccf:	48 01 d6             	add    rsi,rdx
  402cd2:	48 3d 98 3a 00 00    	cmp    rax,0x3a98
  402cd8:	48 39 ce             	cmp    rsi,rcx
  402cdb:	7e 3b                	jle    402d18 <fwrite@plt+0x1bc8>
  402cdd:	48 0f af c0          	imul   rax,rax
  402ce1:	48 d1 e8             	shr    rax,1
  402ce4:	48 01 d0             	add    rax,rdx
  402ce7:	48 39 c8             	cmp    rax,rcx
  402cea:	7e 2c                	jle    402d18 <fwrite@plt+0x1bc8>
  402cec:	48 89 ef             	mov    rdi,rbp
  402cef:	e8 0c fb ff ff       	call   402800 <fwrite@plt+0x16b0>
  402cf4:	49 c7 c6 ff ff ff ff 	mov    r14,0xffffffffffffffff
  402cfb:	48 85 c0             	test   rax,rax
  402cfe:	0f 85 95 0d 00 00    	jne    403a99 <fwrite@plt+0x2949>
  402d04:	be 50 17 40 00       	mov    esi,0x401750
  402d09:	48 89 ef             	mov    rdi,rbp
  402d0c:	e8 9f e7 ff ff       	call   4014b0 <fwrite@plt+0x360>
  402d11:	b9 01 00 00 00       	mov    ecx,0x1
  402d16:	eb 02                	jmp    402d1a <fwrite@plt+0x1bca>
  402d18:	31 c9                	xor    ecx,ecx
  402d1a:	48 8b 85 98 01 00 00 	mov    rax,QWORD PTR [rbp+0x198]
  402d21:	4c 8b b5 48 02 00 00 	mov    r14,QWORD PTR [rbp+0x248]
  402d28:	49 89 c7             	mov    r15,rax
  402d2b:	48 3d 99 3a 00 00    	cmp    rax,0x3a99
  402d31:	b8 e8 03 00 00       	mov    eax,0x3e8
  402d36:	ba d0 07 00 00       	mov    edx,0x7d0
  402d3b:	48 0f 4c d0          	cmovl  rdx,rax
  402d3f:	48 89 94 24 a0 00 00 	mov    QWORD PTR [rsp+0xa0],rdx
  402d46:	00 
  402d47:	4d 85 f6             	test   r14,r14
  402d4a:	74 52                	je     402d9e <fwrite@plt+0x1c4e>
  402d4c:	48 89 8c 24 98 00 00 	mov    QWORD PTR [rsp+0x98],rcx
  402d53:	00 
  402d54:	48 8b 85 a0 01 00 00 	mov    rax,QWORD PTR [rbp+0x1a0]
  402d5b:	48 89 44 24 78       	mov    QWORD PTR [rsp+0x78],rax
  402d60:	48 8b 9d c0 01 00 00 	mov    rbx,QWORD PTR [rbp+0x1c0]
  402d67:	48 89 6c 24 38       	mov    QWORD PTR [rsp+0x38],rbp
  402d6c:	48 8b 85 40 02 00 00 	mov    rax,QWORD PTR [rbp+0x240]
  402d73:	48 89 44 24 10       	mov    QWORD PTR [rsp+0x10],rax
  402d78:	be 08 00 00 00       	mov    esi,0x8
  402d7d:	48 89 df             	mov    rdi,rbx
  402d80:	e8 1b e3 ff ff       	call   4010a0 <calloc@plt>
  402d85:	49 89 c5             	mov    r13,rax
  402d88:	48 85 db             	test   rbx,rbx
  402d8b:	0f 8e c1 01 00 00    	jle    402f52 <fwrite@plt+0x1e02>
  402d91:	48 83 fb 08          	cmp    rbx,0x8
  402d95:	73 13                	jae    402daa <fwrite@plt+0x1c5a>
  402d97:	31 c0                	xor    eax,eax
  402d99:	e9 94 01 00 00       	jmp    402f32 <fwrite@plt+0x1de2>
  402d9e:	49 c7 c6 ff ff ff ff 	mov    r14,0xffffffffffffffff
  402da5:	e9 ef 0c 00 00       	jmp    403a99 <fwrite@plt+0x2949>
  402daa:	48 89 d8             	mov    rax,rbx
  402dad:	48 83 e0 f8          	and    rax,0xfffffffffffffff8
  402db1:	48 8d 70 f8          	lea    rsi,[rax-0x8]
  402db5:	48 89 f1             	mov    rcx,rsi
  402db8:	48 c1 e9 03          	shr    rcx,0x3
  402dbc:	48 83 c1 01          	add    rcx,0x1
  402dc0:	89 ca                	mov    edx,ecx
  402dc2:	83 e2 01             	and    edx,0x1
  402dc5:	48 85 f6             	test   rsi,rsi
  402dc8:	0f 84 77 09 00 00    	je     403745 <fwrite@plt+0x25f5>
  402dce:	be 01 00 00 00       	mov    esi,0x1
  402dd3:	c4 e1 f9 6e c6       	vmovq  xmm0,rsi
  402dd8:	48 29 ce             	sub    rsi,rcx
  402ddb:	48 01 d6             	add    rsi,rdx
  402dde:	48 83 c6 ff          	add    rsi,0xffffffffffffffff
  402de2:	c5 f9 73 f8 08       	vpslldq xmm0,xmm0,0x8
  402de7:	31 c9                	xor    ecx,ecx
  402de9:	c5 f9 6f 0d 5f 65 00 	vmovdqa xmm1,XMMWORD PTR [rip+0x655f]        # 409350 <fwrite@plt+0x8200>
  402df0:	00 
  402df1:	c5 fa 7e 54 24 10    	vmovq  xmm2,QWORD PTR [rsp+0x10]
  402df7:	c5 f9 70 d2 44       	vpshufd xmm2,xmm2,0x44
  402dfc:	c5 79 6f 05 5c 65 00 	vmovdqa xmm8,XMMWORD PTR [rip+0x655c]        # 409360 <fwrite@plt+0x8210>
  402e03:	00 
  402e04:	c5 79 6f 0d 64 65 00 	vmovdqa xmm9,XMMWORD PTR [rip+0x6564]        # 409370 <fwrite@plt+0x8220>
  402e0b:	00 
  402e0c:	c5 79 6f 15 6c 65 00 	vmovdqa xmm10,XMMWORD PTR [rip+0x656c]        # 409380 <fwrite@plt+0x8230>
  402e13:	00 
  402e14:	c5 79 6f 1d 74 65 00 	vmovdqa xmm11,XMMWORD PTR [rip+0x6574]        # 409390 <fwrite@plt+0x8240>
  402e1b:	00 
  402e1c:	c5 79 6f 25 7c 65 00 	vmovdqa xmm12,XMMWORD PTR [rip+0x657c]        # 4093a0 <fwrite@plt+0x8250>
  402e23:	00 
  402e24:	c5 79 6f 2d 84 65 00 	vmovdqa xmm13,XMMWORD PTR [rip+0x6584]        # 4093b0 <fwrite@plt+0x8260>
  402e2b:	00 
  402e2c:	c5 79 6f 35 8c 65 00 	vmovdqa xmm14,XMMWORD PTR [rip+0x658c]        # 4093c0 <fwrite@plt+0x8270>
  402e33:	00 
  402e34:	c5 f9 6f 2d 94 65 00 	vmovdqa xmm5,XMMWORD PTR [rip+0x6594]        # 4093d0 <fwrite@plt+0x8280>
  402e3b:	00 
  402e3c:	0f 1f 40 00          	nop    DWORD PTR [rax+0x0]
  402e40:	c5 f9 f4 f1          	vpmuludq xmm6,xmm0,xmm1
  402e44:	c5 c9 d4 f2          	vpaddq xmm6,xmm6,xmm2
  402e48:	c5 c1 73 d0 20       	vpsrlq xmm7,xmm0,0x20
  402e4d:	c5 c1 f4 f9          	vpmuludq xmm7,xmm7,xmm1
  402e51:	c5 c1 73 f7 20       	vpsllq xmm7,xmm7,0x20
  402e56:	c5 c1 d4 f6          	vpaddq xmm6,xmm7,xmm6
  402e5a:	c4 c1 49 d4 f8       	vpaddq xmm7,xmm6,xmm8
  402e5f:	c4 c1 49 d4 d9       	vpaddq xmm3,xmm6,xmm9
  402e64:	c4 c1 49 d4 e2       	vpaddq xmm4,xmm6,xmm10
  402e69:	c4 c1 7a 7f 74 cd 00 	vmovdqu XMMWORD PTR [r13+rcx*8+0x0],xmm6
  402e70:	c4 c1 7a 7f 7c cd 10 	vmovdqu XMMWORD PTR [r13+rcx*8+0x10],xmm7
  402e77:	c4 c1 7a 7f 5c cd 20 	vmovdqu XMMWORD PTR [r13+rcx*8+0x20],xmm3
  402e7e:	c4 c1 7a 7f 64 cd 30 	vmovdqu XMMWORD PTR [r13+rcx*8+0x30],xmm4
  402e85:	c4 c1 49 d4 db       	vpaddq xmm3,xmm6,xmm11
  402e8a:	c4 c1 49 d4 e4       	vpaddq xmm4,xmm6,xmm12
  402e8f:	c4 c1 49 d4 fd       	vpaddq xmm7,xmm6,xmm13
  402e94:	c4 c1 49 d4 f6       	vpaddq xmm6,xmm6,xmm14
  402e99:	c4 c1 7a 7f 5c cd 40 	vmovdqu XMMWORD PTR [r13+rcx*8+0x40],xmm3
  402ea0:	c4 c1 7a 7f 64 cd 50 	vmovdqu XMMWORD PTR [r13+rcx*8+0x50],xmm4
  402ea7:	c4 c1 7a 7f 7c cd 60 	vmovdqu XMMWORD PTR [r13+rcx*8+0x60],xmm7
  402eae:	c4 c1 7a 7f 74 cd 70 	vmovdqu XMMWORD PTR [r13+rcx*8+0x70],xmm6
  402eb5:	48 83 c1 10          	add    rcx,0x10
  402eb9:	c5 f9 d4 c5          	vpaddq xmm0,xmm0,xmm5
  402ebd:	48 83 c6 02          	add    rsi,0x2
  402ec1:	0f 85 79 ff ff ff    	jne    402e40 <fwrite@plt+0x1cf0>
  402ec7:	48 85 d2             	test   rdx,rdx
  402eca:	74 61                	je     402f2d <fwrite@plt+0x1ddd>
  402ecc:	c5 f9 6f 0d 7c 64 00 	vmovdqa xmm1,XMMWORD PTR [rip+0x647c]        # 409350 <fwrite@plt+0x8200>
  402ed3:	00 
  402ed4:	c5 f9 f4 d1          	vpmuludq xmm2,xmm0,xmm1
  402ed8:	c5 f9 73 d0 20       	vpsrlq xmm0,xmm0,0x20
  402edd:	c5 f9 f4 c1          	vpmuludq xmm0,xmm0,xmm1
  402ee1:	c5 f9 73 f0 20       	vpsllq xmm0,xmm0,0x20
  402ee6:	c5 fa 7e 4c 24 10    	vmovq  xmm1,QWORD PTR [rsp+0x10]
  402eec:	c5 f9 70 c9 44       	vpshufd xmm1,xmm1,0x44
  402ef1:	c5 e9 d4 c9          	vpaddq xmm1,xmm2,xmm1
  402ef5:	c5 f9 d4 c1          	vpaddq xmm0,xmm0,xmm1
  402ef9:	c5 f9 d4 0d 5f 64 00 	vpaddq xmm1,xmm0,XMMWORD PTR [rip+0x645f]        # 409360 <fwrite@plt+0x8210>
  402f00:	00 
  402f01:	c5 f9 d4 15 67 64 00 	vpaddq xmm2,xmm0,XMMWORD PTR [rip+0x6467]        # 409370 <fwrite@plt+0x8220>
  402f08:	00 
  402f09:	c5 f9 d4 1d 6f 64 00 	vpaddq xmm3,xmm0,XMMWORD PTR [rip+0x646f]        # 409380 <fwrite@plt+0x8230>
  402f10:	00 
  402f11:	c4 c1 7a 7f 44 cd 00 	vmovdqu XMMWORD PTR [r13+rcx*8+0x0],xmm0
  402f18:	c4 c1 7a 7f 4c cd 10 	vmovdqu XMMWORD PTR [r13+rcx*8+0x10],xmm1
  402f1f:	c4 c1 7a 7f 54 cd 20 	vmovdqu XMMWORD PTR [r13+rcx*8+0x20],xmm2
  402f26:	c4 c1 7a 7f 5c cd 30 	vmovdqu XMMWORD PTR [r13+rcx*8+0x30],xmm3
  402f2d:	48 39 c3             	cmp    rbx,rax
  402f30:	74 20                	je     402f52 <fwrite@plt+0x1e02>
  402f32:	48 8d 0c c0          	lea    rcx,[rax+rax*8]
  402f36:	48 8b 54 24 10       	mov    rdx,QWORD PTR [rsp+0x10]
  402f3b:	48 8d 0c ca          	lea    rcx,[rdx+rcx*8]
  402f3f:	90                   	nop
  402f40:	49 89 4c c5 00       	mov    QWORD PTR [r13+rax*8+0x0],rcx
  402f45:	48 83 c0 01          	add    rax,0x1
  402f49:	48 83 c1 48          	add    rcx,0x48
  402f4d:	48 39 c3             	cmp    rbx,rax
  402f50:	75 ee                	jne    402f40 <fwrite@plt+0x1df0>
  402f52:	48 89 5c 24 70       	mov    QWORD PTR [rsp+0x70],rbx
  402f57:	4c 89 74 24 40       	mov    QWORD PTR [rsp+0x40],r14
  402f5c:	48 8b 44 24 38       	mov    rax,QWORD PTR [rsp+0x38]
  402f61:	4c 8b 80 38 02 00 00 	mov    r8,QWORD PTR [rax+0x238]
  402f68:	4d 89 f9             	mov    r9,r15
  402f6b:	31 db                	xor    ebx,ebx
  402f6d:	4d 85 ff             	test   r15,r15
  402f70:	7e 2a                	jle    402f9c <fwrite@plt+0x1e4c>
  402f72:	66 2e 0f 1f 84 00 00 	cs nop WORD PTR [rax+rax*1+0x0]
  402f79:	00 00 00 
  402f7c:	0f 1f 40 00          	nop    DWORD PTR [rax+0x0]
  402f80:	41 0f b7 40 68       	movzx  eax,WORD PTR [r8+0x68]
  402f85:	3d ff ff 00 00       	cmp    eax,0xffff
  402f8a:	75 10                	jne    402f9c <fwrite@plt+0x1e4c>
  402f8c:	48 83 c3 01          	add    rbx,0x1
  402f90:	49 81 c0 d8 00 00 00 	add    r8,0xd8
  402f97:	4c 39 cb             	cmp    rbx,r9
  402f9a:	7c e4                	jl     402f80 <fwrite@plt+0x1e30>
  402f9c:	31 ff                	xor    edi,edi
  402f9e:	41 ba 00 00 00 00    	mov    r10d,0x0
  402fa4:	4c 39 cb             	cmp    rbx,r9
  402fa7:	4c 89 6c 24 50       	mov    QWORD PTR [rsp+0x50],r13
  402fac:	0f 8d 0e 06 00 00    	jge    4035c0 <fwrite@plt+0x2470>
  402fb2:	48 83 84 24 88 00 00 	add    QWORD PTR [rsp+0x88],0xfffffffffffffff1
  402fb9:	00 f1 
  402fbb:	66 41 bc 01 00       	mov    r12w,0x1
  402fc0:	48 c7 84 24 90 00 00 	mov    QWORD PTR [rsp+0x90],0xffffffffffffffff
  402fc7:	00 ff ff ff ff 
  402fcc:	31 c0                	xor    eax,eax
  402fce:	48 89 44 24 18       	mov    QWORD PTR [rsp+0x18],rax
  402fd3:	31 c0                	xor    eax,eax
  402fd5:	48 89 44 24 28       	mov    QWORD PTR [rsp+0x28],rax
  402fda:	45 31 d2             	xor    r10d,r10d
  402fdd:	31 f6                	xor    esi,esi
  402fdf:	66 b8 01 00          	mov    ax,0x1
  402fe3:	89 44 24 6c          	mov    DWORD PTR [rsp+0x6c],eax
  402fe7:	31 c0                	xor    eax,eax
  402fe9:	48 89 44 24 48       	mov    QWORD PTR [rsp+0x48],rax
  402fee:	31 ff                	xor    edi,edi
  402ff0:	31 c0                	xor    eax,eax
  402ff2:	48 89 84 24 80 00 00 	mov    QWORD PTR [rsp+0x80],rax
  402ff9:	00 
  402ffa:	4c 89 4c 24 60       	mov    QWORD PTR [rsp+0x60],r9
  402fff:	90                   	nop
  403000:	66 45 85 e4          	test   r12w,r12w
  403004:	75 1c                	jne    403022 <fwrite@plt+0x1ed2>
  403006:	49 8b 45 00          	mov    rax,QWORD PTR [r13+0x0]
  40300a:	48 8b 48 38          	mov    rcx,QWORD PTR [rax+0x38]
  40300e:	48 85 c9             	test   rcx,rcx
  403011:	b8 00 00 00 00       	mov    eax,0x0
  403016:	48 0f 48 c8          	cmovs  rcx,rax
  40301a:	48 89 8c 24 80 00 00 	mov    QWORD PTR [rsp+0x80],rcx
  403021:	00 
  403022:	31 d2                	xor    edx,edx
  403024:	48 89 d8             	mov    rax,rbx
  403027:	48 f7 b4 24 a0 00 00 	div    QWORD PTR [rsp+0xa0]
  40302e:	00 
  40302f:	48 85 d2             	test   rdx,rdx
  403032:	0f 85 38 01 00 00    	jne    403170 <fwrite@plt+0x2020>
  403038:	49 8b 45 00          	mov    rax,QWORD PTR [r13+0x0]
  40303c:	48 8b 48 38          	mov    rcx,QWORD PTR [rax+0x38]
  403040:	48 85 c9             	test   rcx,rcx
  403043:	b8 00 00 00 00       	mov    eax,0x0
  403048:	48 0f 48 c8          	cmovs  rcx,rax
  40304c:	48 89 8c 24 80 00 00 	mov    QWORD PTR [rsp+0x80],rcx
  403053:	00 
  403054:	66 45 85 e4          	test   r12w,r12w
  403058:	0f 85 12 01 00 00    	jne    403170 <fwrite@plt+0x2020>
  40305e:	48 8b 44 24 78       	mov    rax,QWORD PTR [rsp+0x78]
  403063:	48 8b 4c 24 48       	mov    rcx,QWORD PTR [rsp+0x48]
  403068:	48 39 c1             	cmp    rcx,rax
  40306b:	48 0f 4f c8          	cmovg  rcx,rax
  40306f:	48 85 c9             	test   rcx,rcx
  403072:	0f 8e db 00 00 00    	jle    403153 <fwrite@plt+0x2003>
  403078:	49 89 cf             	mov    r15,rcx
  40307b:	48 89 74 24 08       	mov    QWORD PTR [rsp+0x8],rsi
  403080:	4d 89 c6             	mov    r14,r8
  403083:	48 89 5c 24 20       	mov    QWORD PTR [rsp+0x20],rbx
  403088:	48 89 7c 24 58       	mov    QWORD PTR [rsp+0x58],rdi
  40308d:	4c 89 54 24 30       	mov    QWORD PTR [rsp+0x30],r10
  403092:	48 8b 6c 24 40       	mov    rbp,QWORD PTR [rsp+0x40]
  403097:	31 db                	xor    ebx,ebx
  403099:	4c 8b 6c 24 10       	mov    r13,QWORD PTR [rsp+0x10]
  40309e:	66 90                	xchg   ax,ax
  4030a0:	66 83 7d 20 00       	cmp    WORD PTR [rbp+0x20],0x0
  4030a5:	75 6c                	jne    403113 <fwrite@plt+0x1fc3>
  4030a7:	4c 8b 45 38          	mov    r8,QWORD PTR [rbp+0x38]
  4030ab:	4d 3b 45 38          	cmp    r8,QWORD PTR [r13+0x38]
  4030af:	7d 05                	jge    4030b6 <fwrite@plt+0x1f66>
  4030b1:	8b 45 00             	mov    eax,DWORD PTR [rbp+0x0]
  4030b4:	eb 1a                	jmp    4030d0 <fwrite@plt+0x1f80>
  4030b6:	75 5b                	jne    403113 <fwrite@plt+0x1fc3>
  4030b8:	8b 45 00             	mov    eax,DWORD PTR [rbp+0x0]
  4030bb:	41 3b 45 00          	cmp    eax,DWORD PTR [r13+0x0]
  4030bf:	7d 52                	jge    403113 <fwrite@plt+0x1fc3>
  4030c1:	66 2e 0f 1f 84 00 00 	cs nop WORD PTR [rax+rax*1+0x0]
  4030c8:	00 00 00 
  4030cb:	0f 1f 44 00 00       	nop    DWORD PTR [rax+rax*1+0x0]
  4030d0:	48 8b 4d 08          	mov    rcx,QWORD PTR [rbp+0x8]
  4030d4:	48 8b 75 10          	mov    rsi,QWORD PTR [rbp+0x10]
  4030d8:	48 8b 55 18          	mov    rdx,QWORD PTR [rbp+0x18]
  4030dc:	c4 c1 7e 6f 45 00    	vmovdqu ymm0,YMMWORD PTR [r13+0x0]
  4030e2:	c4 c1 7e 6f 4d 20    	vmovdqu ymm1,YMMWORD PTR [r13+0x20]
  4030e8:	c5 fe 7f 4d 20       	vmovdqu YMMWORD PTR [rbp+0x20],ymm1
  4030ed:	49 8b 7d 40          	mov    rdi,QWORD PTR [r13+0x40]
  4030f1:	48 89 7d 40          	mov    QWORD PTR [rbp+0x40],rdi
  4030f5:	c5 fe 7f 45 00       	vmovdqu YMMWORD PTR [rbp+0x0],ymm0
  4030fa:	48 98                	cdqe   
  4030fc:	48 89 04 24          	mov    QWORD PTR [rsp],rax
  403100:	4c 89 ef             	mov    rdi,r13
  403103:	4c 8b 4c 24 70       	mov    r9,QWORD PTR [rsp+0x70]
  403108:	c5 f8 77             	vzeroupper 
  40310b:	e8 b0 f8 ff ff       	call   4029c0 <fwrite@plt+0x1870>
  403110:	4c 89 f9             	mov    rcx,r15
  403113:	48 83 c3 01          	add    rbx,0x1
  403117:	48 83 c5 48          	add    rbp,0x48
  40311b:	48 39 cb             	cmp    rbx,rcx
  40311e:	7c 80                	jl     4030a0 <fwrite@plt+0x1f50>
  403120:	31 c0                	xor    eax,eax
  403122:	48 89 44 24 18       	mov    QWORD PTR [rsp+0x18],rax
  403127:	31 c0                	xor    eax,eax
  403129:	48 89 44 24 28       	mov    QWORD PTR [rsp+0x28],rax
  40312e:	31 c0                	xor    eax,eax
  403130:	48 89 44 24 48       	mov    QWORD PTR [rsp+0x48],rax
  403135:	4c 8b 6c 24 50       	mov    r13,QWORD PTR [rsp+0x50]
  40313a:	4c 8b 54 24 30       	mov    r10,QWORD PTR [rsp+0x30]
  40313f:	48 8b 7c 24 58       	mov    rdi,QWORD PTR [rsp+0x58]
  403144:	48 8b 5c 24 20       	mov    rbx,QWORD PTR [rsp+0x20]
  403149:	4d 89 f0             	mov    r8,r14
  40314c:	48 8b 74 24 08       	mov    rsi,QWORD PTR [rsp+0x8]
  403151:	eb 1d                	jmp    403170 <fwrite@plt+0x2020>
  403153:	31 c0                	xor    eax,eax
  403155:	48 89 44 24 18       	mov    QWORD PTR [rsp+0x18],rax
  40315a:	31 c0                	xor    eax,eax
  40315c:	48 89 44 24 28       	mov    QWORD PTR [rsp+0x28],rax
  403161:	31 c0                	xor    eax,eax
  403163:	48 89 44 24 48       	mov    QWORD PTR [rsp+0x48],rax
  403168:	0f 1f 84 00 00 00 00 	nop    DWORD PTR [rax+rax*1+0x0]
  40316f:	00 
  403170:	41 0f b7 40 68       	movzx  eax,WORD PTR [r8+0x68]
  403175:	3d ff ff 00 00       	cmp    eax,0xffff
  40317a:	74 4f                	je     4031cb <fwrite@plt+0x207b>
  40317c:	48 89 fd             	mov    rbp,rdi
  40317f:	4c 89 54 24 30       	mov    QWORD PTR [rsp+0x30],r10
  403184:	48 89 74 24 08       	mov    QWORD PTR [rsp+0x8],rsi
  403189:	4d 89 ee             	mov    r14,r13
  40318c:	45 89 e5             	mov    r13d,r12d
  40318f:	4d 8d 60 48          	lea    r12,[r8+0x48]
  403193:	bf 01 00 00 00       	mov    edi,0x1
  403198:	be 10 00 00 00       	mov    esi,0x10
  40319d:	4d 89 c7             	mov    r15,r8
  4031a0:	e8 fb de ff ff       	call   4010a0 <calloc@plt>
  4031a5:	4d 89 f8             	mov    r8,r15
  4031a8:	48 89 68 08          	mov    QWORD PTR [rax+0x8],rbp
  4031ac:	4c 89 20             	mov    QWORD PTR [rax],r12
  4031af:	45 89 ec             	mov    r12d,r13d
  4031b2:	4d 89 f5             	mov    r13,r14
  4031b5:	48 8b 74 24 08       	mov    rsi,QWORD PTR [rsp+0x8]
  4031ba:	4c 8b 54 24 30       	mov    r10,QWORD PTR [rsp+0x30]
  4031bf:	48 83 84 24 90 00 00 	add    QWORD PTR [rsp+0x90],0x1
  4031c6:	00 01 
  4031c8:	48 89 c7             	mov    rdi,rax
  4031cb:	4c 8b 4c 24 60       	mov    r9,QWORD PTR [rsp+0x60]
  4031d0:	41 0f b7 40 20       	movzx  eax,WORD PTR [r8+0x20]
  4031d5:	3d ff ff 00 00       	cmp    eax,0xffff
  4031da:	0f 84 c0 02 00 00    	je     4034a0 <fwrite@plt+0x2350>
  4031e0:	4c 8b 7f 08          	mov    r15,QWORD PTR [rdi+0x8]
  4031e4:	4d 85 ff             	test   r15,r15
  4031e7:	0f 84 bb 02 00 00    	je     4034a8 <fwrite@plt+0x2358>
  4031ed:	48 89 7c 24 58       	mov    QWORD PTR [rsp+0x58],rdi
  4031f2:	49 8b 50 18          	mov    rdx,QWORD PTR [r8+0x18]
  4031f6:	48 63 42 64          	movsxd rax,DWORD PTR [rdx+0x64]
  4031fa:	4c 8b ac 24 88 00 00 	mov    r13,QWORD PTR [rsp+0x88]
  403201:	00 
  403202:	4d 2b 68 40          	sub    r13,QWORD PTR [r8+0x40]
  403206:	49 01 c5             	add    r13,rax
  403209:	48 89 f5             	mov    rbp,rsi
  40320c:	0f 1f 40 00          	nop    DWORD PTR [rax+0x0]
  403210:	49 8b 07             	mov    rax,QWORD PTR [r15]
  403213:	48 8b 70 10          	mov    rsi,QWORD PTR [rax+0x10]
  403217:	48 63 4e 64          	movsxd rcx,DWORD PTR [rsi+0x64]
  40321b:	48 03 48 40          	add    rcx,QWORD PTR [rax+0x40]
  40321f:	4c 39 e9             	cmp    rcx,r13
  403222:	7e 1c                	jle    403240 <fwrite@plt+0x20f0>
  403224:	48 83 c5 01          	add    rbp,0x1
  403228:	4d 8b 7f 08          	mov    r15,QWORD PTR [r15+0x8]
  40322c:	4d 85 ff             	test   r15,r15
  40322f:	75 df                	jne    403210 <fwrite@plt+0x20c0>
  403231:	e9 5a 02 00 00       	jmp    403490 <fwrite@plt+0x2340>
  403236:	66 2e 0f 1f 84 00 00 	cs nop WORD PTR [rax+rax*1+0x0]
  40323d:	00 00 00 
  403240:	4c 89 44 24 08       	mov    QWORD PTR [rsp+0x8],r8
  403245:	48 89 5c 24 20       	mov    QWORD PTR [rsp+0x20],rbx
  40324a:	41 b8 1e 00 00 00    	mov    r8d,0x1e
  403250:	4c 2b 06             	sub    r8,QWORD PTR [rsi]
  403253:	4c 03 02             	add    r8,QWORD PTR [rdx]
  403256:	78 0f                	js     403267 <fwrite@plt+0x2117>
  403258:	48 8b 5c 24 20       	mov    rbx,QWORD PTR [rsp+0x20]
  40325d:	4c 8b 44 24 08       	mov    r8,QWORD PTR [rsp+0x8]
  403262:	e9 0e 02 00 00       	jmp    403475 <fwrite@plt+0x2325>
  403267:	4c 3b 54 24 70       	cmp    r10,QWORD PTR [rsp+0x70]
  40326c:	0f 8d f3 00 00 00    	jge    403365 <fwrite@plt+0x2215>
  403272:	4b 8d 04 d2          	lea    rax,[r10+r10*8]
  403276:	48 8b 4c 24 10       	mov    rcx,QWORD PTR [rsp+0x10]
  40327b:	48 89 74 c1 10       	mov    QWORD PTR [rcx+rax*8+0x10],rsi
  403280:	48 89 54 c1 18       	mov    QWORD PTR [rcx+rax*8+0x18],rdx
  403285:	48 c7 44 c1 40 1e 00 	mov    QWORD PTR [rcx+rax*8+0x40],0x1e
  40328c:	00 00 
  40328e:	48 c7 44 c1 08 1e 00 	mov    QWORD PTR [rcx+rax*8+0x8],0x1e
  403295:	00 00 
  403297:	4c 89 44 c1 38       	mov    QWORD PTR [rcx+rax*8+0x38],r8
  40329c:	89 2c c1             	mov    DWORD PTR [rcx+rax*8],ebp
  40329f:	4d 85 d2             	test   r10,r10
  4032a2:	0f 84 9a 01 00 00    	je     403442 <fwrite@plt+0x22f2>
  4032a8:	44 89 64 24 30       	mov    DWORD PTR [rsp+0x30],r12d
  4032ad:	49 8d 4a 01          	lea    rcx,[r10+0x1]
  4032b1:	48 89 4c 24 28       	mov    QWORD PTR [rsp+0x28],rcx
  4032b6:	4c 8b 64 24 10       	mov    r12,QWORD PTR [rsp+0x10]
  4032bb:	0f 1f 44 00 00       	nop    DWORD PTR [rax+rax*1+0x0]
  4032c0:	48 89 cf             	mov    rdi,rcx
  4032c3:	48 c1 ef 3f          	shr    rdi,0x3f
  4032c7:	48 01 f9             	add    rcx,rdi
  4032ca:	48 d1 f9             	sar    rcx,1
  4032cd:	4c 8d 49 ff          	lea    r9,[rcx-0x1]
  4032d1:	4b 8d 3c c9          	lea    rdi,[r9+r9*8]
  4032d5:	4d 8b 74 fc 38       	mov    r14,QWORD PTR [r12+rdi*8+0x38]
  4032da:	4d 39 c6             	cmp    r14,r8
  4032dd:	7d 6d                	jge    40334c <fwrite@plt+0x21fc>
  4032df:	4c 89 d0             	mov    rax,r10
  4032e2:	4d 8d 14 fc          	lea    r10,[r12+rdi*8]
  4032e6:	49 83 c2 38          	add    r10,0x38
  4032ea:	4d 8b 5c fc 18       	mov    r11,QWORD PTR [r12+rdi*8+0x18]
  4032ef:	48 8d 04 c0          	lea    rax,[rax+rax*8]
  4032f3:	4d 89 5c c4 18       	mov    QWORD PTR [r12+rax*8+0x18],r11
  4032f8:	c4 c1 7a 6f 44 fc 08 	vmovdqu xmm0,XMMWORD PTR [r12+rdi*8+0x8]
  4032ff:	c4 c1 7a 7f 44 c4 08 	vmovdqu XMMWORD PTR [r12+rax*8+0x8],xmm0
  403306:	49 8b 5c fc 08       	mov    rbx,QWORD PTR [r12+rdi*8+0x8]
  40330b:	49 89 5c c4 40       	mov    QWORD PTR [r12+rax*8+0x40],rbx
  403310:	4d 89 74 c4 38       	mov    QWORD PTR [r12+rax*8+0x38],r14
  403315:	41 8b 1c fc          	mov    ebx,DWORD PTR [r12+rdi*8]
  403319:	41 89 1c c4          	mov    DWORD PTR [r12+rax*8],ebx
  40331d:	49 89 74 fc 10       	mov    QWORD PTR [r12+rdi*8+0x10],rsi
  403322:	49 89 54 fc 18       	mov    QWORD PTR [r12+rdi*8+0x18],rdx
  403327:	49 c7 44 fc 08 1e 00 	mov    QWORD PTR [r12+rdi*8+0x8],0x1e
  40332e:	00 00 
  403330:	49 c7 44 fc 40 1e 00 	mov    QWORD PTR [r12+rdi*8+0x40],0x1e
  403337:	00 00 
  403339:	4d 89 02             	mov    QWORD PTR [r10],r8
  40333c:	41 89 2c fc          	mov    DWORD PTR [r12+rdi*8],ebp
  403340:	4d 89 ca             	mov    r10,r9
  403343:	4d 85 c9             	test   r9,r9
  403346:	0f 85 74 ff ff ff    	jne    4032c0 <fwrite@plt+0x2170>
  40334c:	4c 8b 54 24 28       	mov    r10,QWORD PTR [rsp+0x28]
  403351:	4c 8b 4c 24 60       	mov    r9,QWORD PTR [rsp+0x60]
  403356:	48 8b 5c 24 20       	mov    rbx,QWORD PTR [rsp+0x20]
  40335b:	44 8b 64 24 30       	mov    r12d,DWORD PTR [rsp+0x30]
  403360:	e9 e8 00 00 00       	jmp    40344d <fwrite@plt+0x22fd>
  403365:	48 8b 7c 24 10       	mov    rdi,QWORD PTR [rsp+0x10]
  40336a:	4c 39 47 38          	cmp    QWORD PTR [rdi+0x38],r8
  40336e:	7e 7d                	jle    4033ed <fwrite@plt+0x229d>
  403370:	31 c0                	xor    eax,eax
  403372:	66 83 7c 24 6c 00    	cmp    WORD PTR [rsp+0x6c],0x0
  403378:	44 0f 45 e0          	cmovne r12d,eax
  40337c:	4c 8b 74 24 28       	mov    r14,QWORD PTR [rsp+0x28]
  403381:	4b 8d 04 f6          	lea    rax,[r14+r14*8]
  403385:	48 8b 4f 40          	mov    rcx,QWORD PTR [rdi+0x40]
  403389:	48 8b 5c 24 40       	mov    rbx,QWORD PTR [rsp+0x40]
  40338e:	48 89 4c c3 40       	mov    QWORD PTR [rbx+rax*8+0x40],rcx
  403393:	c5 fe 6f 07          	vmovdqu ymm0,YMMWORD PTR [rdi]
  403397:	c5 fe 6f 4f 20       	vmovdqu ymm1,YMMWORD PTR [rdi+0x20]
  40339c:	c5 fe 7f 4c c3 20    	vmovdqu YMMWORD PTR [rbx+rax*8+0x20],ymm1
  4033a2:	c5 fe 7f 04 c3       	vmovdqu YMMWORD PTR [rbx+rax*8],ymm0
  4033a7:	49 83 c6 01          	add    r14,0x1
  4033ab:	48 83 44 24 48 01    	add    QWORD PTR [rsp+0x48],0x1
  4033b1:	48 89 2c 24          	mov    QWORD PTR [rsp],rbp
  4033b5:	b9 1e 00 00 00       	mov    ecx,0x1e
  4033ba:	4c 8b 4c 24 70       	mov    r9,QWORD PTR [rsp+0x70]
  4033bf:	4c 89 54 24 30       	mov    QWORD PTR [rsp+0x30],r10
  4033c4:	48 89 54 24 18       	mov    QWORD PTR [rsp+0x18],rdx
  4033c9:	c5 f8 77             	vzeroupper 
  4033cc:	e8 ef f5 ff ff       	call   4029c0 <fwrite@plt+0x1870>
  4033d1:	48 8b 54 24 18       	mov    rdx,QWORD PTR [rsp+0x18]
  4033d6:	4c 8b 54 24 30       	mov    r10,QWORD PTR [rsp+0x30]
  4033db:	4c 8b 4c 24 60       	mov    r9,QWORD PTR [rsp+0x60]
  4033e0:	4c 89 f0             	mov    rax,r14
  4033e3:	c7 44 24 6c 00 00 00 	mov    DWORD PTR [rsp+0x6c],0x0
  4033ea:	00 
  4033eb:	eb 49                	jmp    403436 <fwrite@plt+0x22e6>
  4033ed:	4c 3b 84 24 80 00 00 	cmp    r8,QWORD PTR [rsp+0x80]
  4033f4:	00 
  4033f5:	7d 51                	jge    403448 <fwrite@plt+0x22f8>
  4033f7:	48 8b 4c 24 28       	mov    rcx,QWORD PTR [rsp+0x28]
  4033fc:	48 8d 04 c9          	lea    rax,[rcx+rcx*8]
  403400:	48 8d 79 01          	lea    rdi,[rcx+0x1]
  403404:	48 8b 4c 24 40       	mov    rcx,QWORD PTR [rsp+0x40]
  403409:	48 89 74 c1 10       	mov    QWORD PTR [rcx+rax*8+0x10],rsi
  40340e:	48 89 54 c1 18       	mov    QWORD PTR [rcx+rax*8+0x18],rdx
  403413:	48 c7 44 c1 40 1e 00 	mov    QWORD PTR [rcx+rax*8+0x40],0x1e
  40341a:	00 00 
  40341c:	48 c7 44 c1 08 1e 00 	mov    QWORD PTR [rcx+rax*8+0x8],0x1e
  403423:	00 00 
  403425:	4c 89 44 c1 38       	mov    QWORD PTR [rcx+rax*8+0x38],r8
  40342a:	89 2c c1             	mov    DWORD PTR [rcx+rax*8],ebp
  40342d:	48 89 f8             	mov    rax,rdi
  403430:	48 83 44 24 48 01    	add    QWORD PTR [rsp+0x48],0x1
  403436:	48 8b 5c 24 20       	mov    rbx,QWORD PTR [rsp+0x20]
  40343b:	4c 8b 44 24 08       	mov    r8,QWORD PTR [rsp+0x8]
  403440:	eb 15                	jmp    403457 <fwrite@plt+0x2307>
  403442:	41 ba 01 00 00 00    	mov    r10d,0x1
  403448:	48 8b 5c 24 20       	mov    rbx,QWORD PTR [rsp+0x20]
  40344d:	4c 8b 44 24 08       	mov    r8,QWORD PTR [rsp+0x8]
  403452:	48 8b 44 24 18       	mov    rax,QWORD PTR [rsp+0x18]
  403457:	48 3b 44 24 78       	cmp    rax,QWORD PTR [rsp+0x78]
  40345c:	48 89 c1             	mov    rcx,rax
  40345f:	b8 00 00 00 00       	mov    eax,0x0
  403464:	48 0f 44 c8          	cmove  rcx,rax
  403468:	48 89 c8             	mov    rax,rcx
  40346b:	48 89 4c 24 18       	mov    QWORD PTR [rsp+0x18],rcx
  403470:	48 89 4c 24 28       	mov    QWORD PTR [rsp+0x28],rcx
  403475:	48 8d 75 01          	lea    rsi,[rbp+0x1]
  403479:	4d 8b 7f 08          	mov    r15,QWORD PTR [r15+0x8]
  40347d:	4d 85 ff             	test   r15,r15
  403480:	0f 85 83 fd ff ff    	jne    403209 <fwrite@plt+0x20b9>
  403486:	48 83 c5 01          	add    rbp,0x1
  40348a:	66 0f 1f 44 00 00    	nop    WORD PTR [rax+rax*1+0x0]
  403490:	48 89 ee             	mov    rsi,rbp
  403493:	4c 8b 6c 24 50       	mov    r13,QWORD PTR [rsp+0x50]
  403498:	48 8b 7c 24 58       	mov    rdi,QWORD PTR [rsp+0x58]
  40349d:	eb 09                	jmp    4034a8 <fwrite@plt+0x2358>
  40349f:	90                   	nop
  4034a0:	48 03 b4 24 90 00 00 	add    rsi,QWORD PTR [rsp+0x90]
  4034a7:	00 
  4034a8:	48 83 c3 01          	add    rbx,0x1
  4034ac:	49 81 c0 d8 00 00 00 	add    r8,0xd8
  4034b3:	4c 39 cb             	cmp    rbx,r9
  4034b6:	0f 85 44 fb ff ff    	jne    403000 <fwrite@plt+0x1eb0>
  4034bc:	66 45 85 e4          	test   r12w,r12w
  4034c0:	0f 85 fa 00 00 00    	jne    4035c0 <fwrite@plt+0x2470>
  4034c6:	48 8b 4c 24 78       	mov    rcx,QWORD PTR [rsp+0x78]
  4034cb:	48 8b 44 24 48       	mov    rax,QWORD PTR [rsp+0x48]
  4034d0:	48 39 c8             	cmp    rax,rcx
  4034d3:	48 0f 4e c8          	cmovle rcx,rax
  4034d7:	48 85 c9             	test   rcx,rcx
  4034da:	0f 8e e0 00 00 00    	jle    4035c0 <fwrite@plt+0x2470>
  4034e0:	48 89 c8             	mov    rax,rcx
  4034e3:	4c 89 d3             	mov    rbx,r10
  4034e6:	48 89 7c 24 58       	mov    QWORD PTR [rsp+0x58],rdi
  4034eb:	41 0f 9e c6          	setle  r14b
  4034ef:	31 ed                	xor    ebp,ebp
  4034f1:	45 31 ff             	xor    r15d,r15d
  4034f4:	4c 8b 64 24 40       	mov    r12,QWORD PTR [rsp+0x40]
  4034f9:	49 89 cd             	mov    r13,rcx
  4034fc:	0f 1f 40 00          	nop    DWORD PTR [rax+0x0]
  403500:	48 8d 14 ed 00 00 00 	lea    rdx,[rbp*8+0x0]
  403507:	00 
  403508:	48 01 ea             	add    rdx,rbp
  40350b:	66 41 83 7c d4 20 00 	cmp    WORD PTR [r12+rdx*8+0x20],0x0
  403512:	75 78                	jne    40358c <fwrite@plt+0x243c>
  403514:	49 8d 04 d4          	lea    rax,[r12+rdx*8]
  403518:	4d 8b 44 d4 38       	mov    r8,QWORD PTR [r12+rdx*8+0x38]
  40351d:	48 8b 4c 24 10       	mov    rcx,QWORD PTR [rsp+0x10]
  403522:	4c 3b 41 38          	cmp    r8,QWORD PTR [rcx+0x38]
  403526:	7d 05                	jge    40352d <fwrite@plt+0x23dd>
  403528:	44 8b 08             	mov    r9d,DWORD PTR [rax]
  40352b:	eb 13                	jmp    403540 <fwrite@plt+0x23f0>
  40352d:	75 5d                	jne    40358c <fwrite@plt+0x243c>
  40352f:	44 8b 08             	mov    r9d,DWORD PTR [rax]
  403532:	48 8b 4c 24 10       	mov    rcx,QWORD PTR [rsp+0x10]
  403537:	44 3b 09             	cmp    r9d,DWORD PTR [rcx]
  40353a:	7d 50                	jge    40358c <fwrite@plt+0x243c>
  40353c:	0f 1f 40 00          	nop    DWORD PTR [rax+0x0]
  403540:	49 8b 4c d4 08       	mov    rcx,QWORD PTR [r12+rdx*8+0x8]
  403545:	49 8b 74 d4 10       	mov    rsi,QWORD PTR [r12+rdx*8+0x10]
  40354a:	49 8b 54 d4 18       	mov    rdx,QWORD PTR [r12+rdx*8+0x18]
  40354f:	49 83 c7 01          	add    r15,0x1
  403553:	49 89 da             	mov    r10,rbx
  403556:	48 8b 7c 24 10       	mov    rdi,QWORD PTR [rsp+0x10]
  40355b:	48 8b 5f 40          	mov    rbx,QWORD PTR [rdi+0x40]
  40355f:	48 89 58 40          	mov    QWORD PTR [rax+0x40],rbx
  403563:	4c 89 d3             	mov    rbx,r10
  403566:	c5 fe 6f 07          	vmovdqu ymm0,YMMWORD PTR [rdi]
  40356a:	c5 fe 6f 4f 20       	vmovdqu ymm1,YMMWORD PTR [rdi+0x20]
  40356f:	c5 fe 7f 48 20       	vmovdqu YMMWORD PTR [rax+0x20],ymm1
  403574:	c5 fe 7f 00          	vmovdqu YMMWORD PTR [rax],ymm0
  403578:	49 63 c1             	movsxd rax,r9d
  40357b:	48 89 04 24          	mov    QWORD PTR [rsp],rax
  40357f:	4c 8b 4c 24 70       	mov    r9,QWORD PTR [rsp+0x70]
  403584:	c5 f8 77             	vzeroupper 
  403587:	e8 34 f4 ff ff       	call   4029c0 <fwrite@plt+0x1870>
  40358c:	48 83 c5 01          	add    rbp,0x1
  403590:	4c 39 ed             	cmp    rbp,r13
  403593:	0f 8c 67 ff ff ff    	jl     403500 <fwrite@plt+0x23b0>
  403599:	4d 85 ff             	test   r15,r15
  40359c:	0f 94 c0             	sete   al
  40359f:	44 08 f0             	or     al,r14b
  4035a2:	bd 00 00 00 00       	mov    ebp,0x0
  4035a7:	41 bf 00 00 00 00    	mov    r15d,0x0
  4035ad:	0f 84 4d ff ff ff    	je     403500 <fwrite@plt+0x23b0>
  4035b3:	4c 8b 6c 24 50       	mov    r13,QWORD PTR [rsp+0x50]
  4035b8:	48 8b 7c 24 58       	mov    rdi,QWORD PTR [rsp+0x58]
  4035bd:	49 89 da             	mov    r10,rbx
  4035c0:	4d 89 d7             	mov    r15,r10
  4035c3:	66 2e 0f 1f 84 00 00 	cs nop WORD PTR [rax+rax*1+0x0]
  4035ca:	00 00 00 
  4035cd:	0f 1f 00             	nop    DWORD PTR [rax]
  4035d0:	48 8b 5f 08          	mov    rbx,QWORD PTR [rdi+0x8]
  4035d4:	e8 57 da ff ff       	call   401030 <free@plt>
  4035d9:	48 89 df             	mov    rdi,rbx
  4035dc:	48 85 db             	test   rbx,rbx
  4035df:	75 ef                	jne    4035d0 <fwrite@plt+0x2480>
  4035e1:	ba 08 00 00 00       	mov    edx,0x8
  4035e6:	b9 d0 27 40 00       	mov    ecx,0x4027d0
  4035eb:	4c 89 ef             	mov    rdi,r13
  4035ee:	4c 89 fb             	mov    rbx,r15
  4035f1:	4c 89 fe             	mov    rsi,r15
  4035f4:	e8 07 20 00 00       	call   405600 <fwrite@plt+0x44b0>
  4035f9:	48 8b 74 24 38       	mov    rsi,QWORD PTR [rsp+0x38]
  4035fe:	48 8b 8e a8 01 00 00 	mov    rcx,QWORD PTR [rsi+0x1a8]
  403605:	48 81 be 98 01 00 00 	cmp    QWORD PTR [rsi+0x198],0x3a99
  40360c:	99 3a 00 00 
  403610:	48 c7 c2 c0 bd f0 ff 	mov    rdx,0xfffffffffff0bdc0
  403617:	48 c7 c0 00 f7 c2 ff 	mov    rax,0xffffffffffc2f700
  40361e:	48 0f 4c c2          	cmovl  rax,rdx
  403622:	45 31 f6             	xor    r14d,r14d
  403625:	4d 85 ff             	test   r15,r15
  403628:	7e 39                	jle    403663 <fwrite@plt+0x2513>
  40362a:	48 03 86 c0 01 00 00 	add    rax,QWORD PTR [rsi+0x1c0]
  403631:	48 85 c0             	test   rax,rax
  403634:	4c 8b 64 24 40       	mov    r12,QWORD PTR [rsp+0x40]
  403639:	7e 2d                	jle    403668 <fwrite@plt+0x2518>
  40363b:	45 31 f6             	xor    r14d,r14d
  40363e:	66 90                	xchg   ax,ax
  403640:	4b 8b 54 f5 00       	mov    rdx,QWORD PTR [r13+r14*8+0x0]
  403645:	42 8d 34 31          	lea    esi,[rcx+r14*1]
  403649:	89 32                	mov    DWORD PTR [rdx],esi
  40364b:	48 c7 42 38 01 00 00 	mov    QWORD PTR [rdx+0x38],0x1
  403652:	00 
  403653:	49 83 c6 01          	add    r14,0x1
  403657:	49 39 c6             	cmp    r14,rax
  40365a:	7d 0c                	jge    403668 <fwrite@plt+0x2518>
  40365c:	49 39 de             	cmp    r14,rbx
  40365f:	7c df                	jl     403640 <fwrite@plt+0x24f0>
  403661:	eb 05                	jmp    403668 <fwrite@plt+0x2518>
  403663:	4c 8b 64 24 40       	mov    r12,QWORD PTR [rsp+0x40]
  403668:	4c 8b 6c 24 38       	mov    r13,QWORD PTR [rsp+0x38]
  40366d:	49 c7 85 80 02 00 00 	mov    QWORD PTR [r13+0x280],0xfa0
  403674:	a0 0f 00 00 
  403678:	4a 8d 04 31          	lea    rax,[rcx+r14*1]
  40367c:	48 83 c0 ff          	add    rax,0xffffffffffffffff
  403680:	4c 01 f1             	add    rcx,r14
  403683:	48 bf cf f7 53 e3 a5 	movabs rdi,0x20c49ba5e353f7cf
  40368a:	9b c4 20 
  40368d:	48 f7 ef             	imul   rdi
  403690:	48 89 d0             	mov    rax,rdx
  403693:	48 c1 e8 3f          	shr    rax,0x3f
  403697:	48 c1 fa 09          	sar    rdx,0x9
  40369b:	48 8d 2c 02          	lea    rbp,[rdx+rax*1]
  40369f:	48 8d 34 02          	lea    rsi,[rdx+rax*1]
  4036a3:	48 83 c6 01          	add    rsi,0x1
  4036a7:	49 89 b5 70 02 00 00 	mov    QWORD PTR [r13+0x270],rsi
  4036ae:	48 89 c8             	mov    rax,rcx
  4036b1:	48 f7 ef             	imul   rdi
  4036b4:	48 89 d0             	mov    rax,rdx
  4036b7:	48 c1 e8 3f          	shr    rax,0x3f
  4036bb:	48 c1 fa 09          	sar    rdx,0x9
  4036bf:	48 01 c2             	add    rdx,rax
  4036c2:	48 69 c2 a0 0f 00 00 	imul   rax,rdx,0xfa0
  4036c9:	48 29 c1             	sub    rcx,rax
  4036cc:	48 8d 8c 29 61 f0 ff 	lea    rcx,[rcx+rbp*1-0xf9f]
  4036d3:	ff 
  4036d4:	48 8b 7c 24 50       	mov    rdi,QWORD PTR [rsp+0x50]
  4036d9:	48 0f 44 ce          	cmove  rcx,rsi
  4036dd:	49 89 8d 78 02 00 00 	mov    QWORD PTR [r13+0x278],rcx
  4036e4:	48 85 c9             	test   rcx,rcx
  4036e7:	0f 89 2a 01 00 00    	jns    403817 <fwrite@plt+0x26c7>
  4036ed:	48 89 c8             	mov    rax,rcx
  4036f0:	48 f7 d0             	not    rax
  4036f3:	31 d2                	xor    edx,edx
  4036f5:	48 f7 f6             	div    rsi
  4036f8:	48 83 c0 01          	add    rax,0x1
  4036fc:	48 83 f8 07          	cmp    rax,0x7
  403700:	77 0a                	ja     40370c <fwrite@plt+0x25bc>
  403702:	ba a0 0f 00 00       	mov    edx,0xfa0
  403707:	e9 f4 00 00 00       	jmp    403800 <fwrite@plt+0x26b0>
  40370c:	48 89 c3             	mov    rbx,rax
  40370f:	48 83 e3 f8          	and    rbx,0xfffffffffffffff8
  403713:	48 8d 53 f8          	lea    rdx,[rbx-0x8]
  403717:	48 89 d5             	mov    rbp,rdx
  40371a:	48 c1 ed 03          	shr    rbp,0x3
  40371e:	48 83 c5 01          	add    rbp,0x1
  403722:	89 ef                	mov    edi,ebp
  403724:	83 e7 03             	and    edi,0x3
  403727:	48 83 fa 18          	cmp    rdx,0x18
  40372b:	73 37                	jae    403764 <fwrite@plt+0x2614>
  40372d:	ba a0 0f 00 00       	mov    edx,0xfa0
  403732:	c4 e1 f9 6e c2       	vmovq  xmm0,rdx
  403737:	c5 f1 ef c9          	vpxor  xmm1,xmm1,xmm1
  40373b:	c5 e9 ef d2          	vpxor  xmm2,xmm2,xmm2
  40373f:	c5 e1 ef db          	vpxor  xmm3,xmm3,xmm3
  403743:	eb 61                	jmp    4037a6 <fwrite@plt+0x2656>
  403745:	b9 01 00 00 00       	mov    ecx,0x1
  40374a:	c4 e1 f9 6e c1       	vmovq  xmm0,rcx
  40374f:	c5 f9 73 f8 08       	vpslldq xmm0,xmm0,0x8
  403754:	31 c9                	xor    ecx,ecx
  403756:	48 85 d2             	test   rdx,rdx
  403759:	0f 85 6d f7 ff ff    	jne    402ecc <fwrite@plt+0x1d7c>
  40375f:	e9 c9 f7 ff ff       	jmp    402f2d <fwrite@plt+0x1ddd>
  403764:	48 29 fd             	sub    rbp,rdi
  403767:	ba a0 0f 00 00       	mov    edx,0xfa0
  40376c:	c4 e1 f9 6e c2       	vmovq  xmm0,rdx
  403771:	c5 f1 ef c9          	vpxor  xmm1,xmm1,xmm1
  403775:	c5 f9 6f 25 83 5b 00 	vmovdqa xmm4,XMMWORD PTR [rip+0x5b83]        # 409300 <fwrite@plt+0x81b0>
  40377c:	00 
  40377d:	c5 e9 ef d2          	vpxor  xmm2,xmm2,xmm2
  403781:	c5 e1 ef db          	vpxor  xmm3,xmm3,xmm3
  403785:	66 2e 0f 1f 84 00 00 	cs nop WORD PTR [rax+rax*1+0x0]
  40378c:	00 00 00 
  40378f:	90                   	nop
  403790:	c5 f9 d4 c4          	vpaddq xmm0,xmm0,xmm4
  403794:	c5 f1 d4 cc          	vpaddq xmm1,xmm1,xmm4
  403798:	c5 e9 d4 d4          	vpaddq xmm2,xmm2,xmm4
  40379c:	c5 e1 d4 dc          	vpaddq xmm3,xmm3,xmm4
  4037a0:	48 83 c5 fc          	add    rbp,0xfffffffffffffffc
  4037a4:	75 ea                	jne    403790 <fwrite@plt+0x2640>
  4037a6:	48 89 da             	mov    rdx,rbx
  4037a9:	48 0f af d6          	imul   rdx,rsi
  4037ad:	48 85 ff             	test   rdi,rdi
  4037b0:	74 24                	je     4037d6 <fwrite@plt+0x2686>
  4037b2:	c5 d9 76 e4          	vpcmpeqd xmm4,xmm4,xmm4
  4037b6:	66 2e 0f 1f 84 00 00 	cs nop WORD PTR [rax+rax*1+0x0]
  4037bd:	00 00 00 
  4037c0:	c5 f9 d4 c4          	vpaddq xmm0,xmm0,xmm4
  4037c4:	c5 f1 d4 cc          	vpaddq xmm1,xmm1,xmm4
  4037c8:	c5 e9 d4 d4          	vpaddq xmm2,xmm2,xmm4
  4037cc:	c5 e1 d4 dc          	vpaddq xmm3,xmm3,xmm4
  4037d0:	48 83 c7 ff          	add    rdi,0xffffffffffffffff
  4037d4:	75 ea                	jne    4037c0 <fwrite@plt+0x2670>
  4037d6:	c5 f1 d4 cb          	vpaddq xmm1,xmm1,xmm3
  4037da:	c5 f9 d4 c2          	vpaddq xmm0,xmm0,xmm2
  4037de:	c5 f9 d4 c1          	vpaddq xmm0,xmm0,xmm1
  4037e2:	48 01 d1             	add    rcx,rdx
  4037e5:	c5 f9 70 c8 4e       	vpshufd xmm1,xmm0,0x4e
  4037ea:	c5 f9 d4 c1          	vpaddq xmm0,xmm0,xmm1
  4037ee:	c4 e1 f9 7e c2       	vmovq  rdx,xmm0
  4037f3:	48 39 d8             	cmp    rax,rbx
  4037f6:	48 8b 7c 24 50       	mov    rdi,QWORD PTR [rsp+0x50]
  4037fb:	4c 89 fb             	mov    rbx,r15
  4037fe:	74 09                	je     403809 <fwrite@plt+0x26b9>
  403800:	48 83 c2 ff          	add    rdx,0xffffffffffffffff
  403804:	48 01 f1             	add    rcx,rsi
  403807:	78 f7                	js     403800 <fwrite@plt+0x26b0>
  403809:	49 89 8d 78 02 00 00 	mov    QWORD PTR [r13+0x278],rcx
  403810:	49 89 95 80 02 00 00 	mov    QWORD PTR [r13+0x280],rdx
  403817:	e8 14 d8 ff ff       	call   401030 <free@plt>
  40381c:	48 85 db             	test   rbx,rbx
  40381f:	0f 84 fb 00 00 00    	je     403920 <fwrite@plt+0x27d0>
  403825:	49 8b 9d 40 02 00 00 	mov    rbx,QWORD PTR [r13+0x240]
  40382c:	48 83 bc 24 98 00 00 	cmp    QWORD PTR [rsp+0x98],0x0
  403833:	00 00 
  403835:	74 71                	je     4038a8 <fwrite@plt+0x2758>
  403837:	48 83 c3 38          	add    rbx,0x38
  40383b:	49 c1 e7 03          	shl    r15,0x3
  40383f:	4f 8d 3c ff          	lea    r15,[r15+r15*8]
  403843:	31 ed                	xor    ebp,ebp
  403845:	66 2e 0f 1f 84 00 00 	cs nop WORD PTR [rax+rax*1+0x0]
  40384c:	00 00 00 
  40384f:	90                   	nop
  403850:	48 83 3c 2b 01       	cmp    QWORD PTR [rbx+rbp*1],0x1
  403855:	75 46                	jne    40389d <fwrite@plt+0x274d>
  403857:	48 c7 04 2b 00 00 00 	mov    QWORD PTR [rbx+rbp*1],0x0
  40385e:	00 
  40385f:	66 c7 44 2b e8 01 00 	mov    WORD PTR [rbx+rbp*1-0x18],0x1
  403866:	48 63 74 2b c8       	movsxd rsi,DWORD PTR [rbx+rbp*1-0x38]
  40386b:	4c 89 ef             	mov    rdi,r13
  40386e:	c5 f8 77             	vzeroupper 
  403871:	e8 9a de ff ff       	call   401710 <fwrite@plt+0x5c0>
  403876:	48 8d 04 c0          	lea    rax,[rax+rax*8]
  40387a:	c5 fe 6f 44 2b c8    	vmovdqu ymm0,YMMWORD PTR [rbx+rbp*1-0x38]
  403880:	c5 fe 6f 4c 2b e8    	vmovdqu ymm1,YMMWORD PTR [rbx+rbp*1-0x18]
  403886:	c4 c1 7e 7f 04 c4    	vmovdqu YMMWORD PTR [r12+rax*8],ymm0
  40388c:	c4 c1 7e 7f 4c c4 20 	vmovdqu YMMWORD PTR [r12+rax*8+0x20],ymm1
  403893:	48 8b 4c 2b 08       	mov    rcx,QWORD PTR [rbx+rbp*1+0x8]
  403898:	49 89 4c c4 40       	mov    QWORD PTR [r12+rax*8+0x40],rcx
  40389d:	48 83 c5 48          	add    rbp,0x48
  4038a1:	49 39 ef             	cmp    r15,rbp
  4038a4:	75 aa                	jne    403850 <fwrite@plt+0x2700>
  4038a6:	eb 78                	jmp    403920 <fwrite@plt+0x27d0>
  4038a8:	49 c1 e7 03          	shl    r15,0x3
  4038ac:	4b 8d 2c ff          	lea    rbp,[r15+r15*8]
  4038b0:	48 83 7b 38 01       	cmp    QWORD PTR [rbx+0x38],0x1
  4038b5:	75 5f                	jne    403916 <fwrite@plt+0x27c6>
  4038b7:	48 c7 43 38 00 00 00 	mov    QWORD PTR [rbx+0x38],0x0
  4038be:	00 
  4038bf:	66 c7 43 20 01 00    	mov    WORD PTR [rbx+0x20],0x1
  4038c5:	48 8b 43 10          	mov    rax,QWORD PTR [rbx+0x10]
  4038c9:	48 8b 48 38          	mov    rcx,QWORD PTR [rax+0x38]
  4038cd:	48 89 4b 28          	mov    QWORD PTR [rbx+0x28],rcx
  4038d1:	48 89 58 38          	mov    QWORD PTR [rax+0x38],rbx
  4038d5:	48 8b 43 18          	mov    rax,QWORD PTR [rbx+0x18]
  4038d9:	48 8b 48 40          	mov    rcx,QWORD PTR [rax+0x40]
  4038dd:	48 89 4b 30          	mov    QWORD PTR [rbx+0x30],rcx
  4038e1:	48 89 58 40          	mov    QWORD PTR [rax+0x40],rbx
  4038e5:	48 63 33             	movsxd rsi,DWORD PTR [rbx]
  4038e8:	4c 89 ef             	mov    rdi,r13
  4038eb:	c5 f8 77             	vzeroupper 
  4038ee:	e8 1d de ff ff       	call   401710 <fwrite@plt+0x5c0>
  4038f3:	48 8d 04 c0          	lea    rax,[rax+rax*8]
  4038f7:	c5 fe 6f 03          	vmovdqu ymm0,YMMWORD PTR [rbx]
  4038fb:	c5 fe 6f 4b 20       	vmovdqu ymm1,YMMWORD PTR [rbx+0x20]
  403900:	c4 c1 7e 7f 04 c4    	vmovdqu YMMWORD PTR [r12+rax*8],ymm0
  403906:	c4 c1 7e 7f 4c c4 20 	vmovdqu YMMWORD PTR [r12+rax*8+0x20],ymm1
  40390d:	48 8b 4b 40          	mov    rcx,QWORD PTR [rbx+0x40]
  403911:	49 89 4c c4 40       	mov    QWORD PTR [r12+rax*8+0x40],rcx
  403916:	48 83 c3 48          	add    rbx,0x48
  40391a:	48 83 c5 b8          	add    rbp,0xffffffffffffffb8
  40391e:	75 90                	jne    4038b0 <fwrite@plt+0x2760>
  403920:	4d 01 b5 b8 01 00 00 	add    QWORD PTR [r13+0x1b8],r14
  403927:	4d 29 b5 c0 01 00 00 	sub    QWORD PTR [r13+0x1c0],r14
  40392e:	4d 8b a5 a8 01 00 00 	mov    r12,QWORD PTR [r13+0x1a8]
  403935:	4d 8b bd 48 02 00 00 	mov    r15,QWORD PTR [r13+0x248]
  40393c:	49 83 bd 90 01 00 00 	cmp    QWORD PTR [r13+0x190],0x0
  403943:	00 
  403944:	0f 88 bb 00 00 00    	js     403a05 <fwrite@plt+0x28b5>
  40394a:	48 c7 c5 ff ff ff ff 	mov    rbp,0xffffffffffffffff
  403951:	bb 40 00 00 00       	mov    ebx,0x40
  403956:	66 2e 0f 1f 84 00 00 	cs nop WORD PTR [rax+rax*1+0x0]
  40395d:	00 00 00 
  403960:	4d 8b ad 28 02 00 00 	mov    r13,QWORD PTR [r13+0x228]
  403967:	49 8b 44 1d f0       	mov    rax,QWORD PTR [r13+rbx*1-0x10]
  40396c:	48 85 c0             	test   rax,rax
  40396f:	74 22                	je     403993 <fwrite@plt+0x2843>
  403971:	48 63 30             	movsxd rsi,DWORD PTR [rax]
  403974:	48 85 f6             	test   rsi,rsi
  403977:	78 1a                	js     403993 <fwrite@plt+0x2843>
  403979:	48 8b 7c 24 38       	mov    rdi,QWORD PTR [rsp+0x38]
  40397e:	c5 f8 77             	vzeroupper 
  403981:	e8 8a dd ff ff       	call   401710 <fwrite@plt+0x5c0>
  403986:	48 8d 04 c0          	lea    rax,[rax+rax*8]
  40398a:	49 8d 04 c7          	lea    rax,[r15+rax*8]
  40398e:	49 89 44 1d f0       	mov    QWORD PTR [r13+rbx*1-0x10],rax
  403993:	49 8b 44 1d 00       	mov    rax,QWORD PTR [r13+rbx*1+0x0]
  403998:	48 85 c0             	test   rax,rax
  40399b:	74 22                	je     4039bf <fwrite@plt+0x286f>
  40399d:	48 63 30             	movsxd rsi,DWORD PTR [rax]
  4039a0:	48 85 f6             	test   rsi,rsi
  4039a3:	78 1a                	js     4039bf <fwrite@plt+0x286f>
  4039a5:	48 8b 7c 24 38       	mov    rdi,QWORD PTR [rsp+0x38]
  4039aa:	c5 f8 77             	vzeroupper 
  4039ad:	e8 5e dd ff ff       	call   401710 <fwrite@plt+0x5c0>
  4039b2:	48 8d 04 c0          	lea    rax,[rax+rax*8]
  4039b6:	49 8d 04 c7          	lea    rax,[r15+rax*8]
  4039ba:	49 89 44 1d 00       	mov    QWORD PTR [r13+rbx*1+0x0],rax
  4039bf:	49 8b 44 1d f8       	mov    rax,QWORD PTR [r13+rbx*1-0x8]
  4039c4:	48 85 c0             	test   rax,rax
  4039c7:	74 22                	je     4039eb <fwrite@plt+0x289b>
  4039c9:	48 63 30             	movsxd rsi,DWORD PTR [rax]
  4039cc:	48 85 f6             	test   rsi,rsi
  4039cf:	78 1a                	js     4039eb <fwrite@plt+0x289b>
  4039d1:	48 8b 7c 24 38       	mov    rdi,QWORD PTR [rsp+0x38]
  4039d6:	c5 f8 77             	vzeroupper 
  4039d9:	e8 32 dd ff ff       	call   401710 <fwrite@plt+0x5c0>
  4039de:	48 8d 04 c0          	lea    rax,[rax+rax*8]
  4039e2:	49 8d 04 c7          	lea    rax,[r15+rax*8]
  4039e6:	49 89 44 1d f8       	mov    QWORD PTR [r13+rbx*1-0x8],rax
  4039eb:	48 83 c5 01          	add    rbp,0x1
  4039ef:	48 83 c3 68          	add    rbx,0x68
  4039f3:	4c 8b 6c 24 38       	mov    r13,QWORD PTR [rsp+0x38]
  4039f8:	49 3b ad 90 01 00 00 	cmp    rbp,QWORD PTR [r13+0x190]
  4039ff:	0f 8c 5b ff ff ff    	jl     403960 <fwrite@plt+0x2810>
  403a05:	49 8b 9d 38 02 00 00 	mov    rbx,QWORD PTR [r13+0x238]
  403a0c:	4d 85 e4             	test   r12,r12
  403a0f:	7e 5a                	jle    403a6b <fwrite@plt+0x291b>
  403a11:	31 ed                	xor    ebp,ebp
  403a13:	66 2e 0f 1f 84 00 00 	cs nop WORD PTR [rax+rax*1+0x0]
  403a1a:	00 00 00 
  403a1d:	0f 1f 00             	nop    DWORD PTR [rax]
  403a20:	48 63 34 2b          	movsxd rsi,DWORD PTR [rbx+rbp*1]
  403a24:	48 85 f6             	test   rsi,rsi
  403a27:	78 38                	js     403a61 <fwrite@plt+0x2911>
  403a29:	4c 89 ef             	mov    rdi,r13
  403a2c:	c5 f8 77             	vzeroupper 
  403a2f:	e8 dc dc ff ff       	call   401710 <fwrite@plt+0x5c0>
  403a34:	48 8d 04 c0          	lea    rax,[rax+rax*8]
  403a38:	48 8b 4c 2b 40       	mov    rcx,QWORD PTR [rbx+rbp*1+0x40]
  403a3d:	49 89 4c c7 40       	mov    QWORD PTR [r15+rax*8+0x40],rcx
  403a42:	c5 fe 6f 04 2b       	vmovdqu ymm0,YMMWORD PTR [rbx+rbp*1]
  403a47:	c5 fe 6f 4c 2b 20    	vmovdqu ymm1,YMMWORD PTR [rbx+rbp*1+0x20]
  403a4d:	c4 c1 7e 7f 4c c7 20 	vmovdqu YMMWORD PTR [r15+rax*8+0x20],ymm1
  403a54:	c4 c1 7e 7f 04 c7    	vmovdqu YMMWORD PTR [r15+rax*8],ymm0
  403a5a:	49 8b 9d 38 02 00 00 	mov    rbx,QWORD PTR [r13+0x238]
  403a61:	48 83 c5 48          	add    rbp,0x48
  403a65:	49 83 c4 ff          	add    r12,0xffffffffffffffff
  403a69:	75 b5                	jne    403a20 <fwrite@plt+0x28d0>
  403a6b:	4d 89 bd 38 02 00 00 	mov    QWORD PTR [r13+0x238],r15
  403a72:	49 89 9d 48 02 00 00 	mov    QWORD PTR [r13+0x248],rbx
  403a79:	49 8b 85 a8 01 00 00 	mov    rax,QWORD PTR [r13+0x1a8]
  403a80:	4c 01 f0             	add    rax,r14
  403a83:	49 89 85 a8 01 00 00 	mov    QWORD PTR [r13+0x1a8],rax
  403a8a:	48 8d 04 c0          	lea    rax,[rax+rax*8]
  403a8e:	49 8d 04 c7          	lea    rax,[r15+rax*8]
  403a92:	49 89 85 40 02 00 00 	mov    QWORD PTR [r13+0x240],rax
  403a99:	4c 89 f0             	mov    rax,r14
  403a9c:	48 81 c4 a8 00 00 00 	add    rsp,0xa8
  403aa3:	5b                   	pop    rbx
  403aa4:	41 5c                	pop    r12
  403aa6:	41 5d                	pop    r13
  403aa8:	41 5e                	pop    r14
  403aaa:	41 5f                	pop    r15
  403aac:	5d                   	pop    rbp
  403aad:	c5 f8 77             	vzeroupper 
  403ab0:	c3                   	ret    
  403ab1:	66 2e 0f 1f 84 00 00 	cs nop WORD PTR [rax+rax*1+0x0]
  403ab8:	00 00 00 
  403abb:	0f 1f 44 00 00       	nop    DWORD PTR [rax+rax*1+0x0]
  403ac0:	55                   	push   rbp
  403ac1:	41 57                	push   r15
  403ac3:	41 56                	push   r14
  403ac5:	41 55                	push   r13
  403ac7:	41 54                	push   r12
  403ac9:	53                   	push   rbx
  403aca:	50                   	push   rax
  403acb:	49 89 d1             	mov    r9,rdx
  403ace:	48 89 34 24          	mov    QWORD PTR [rsp],rsi
  403ad2:	49 89 fd             	mov    r13,rdi
  403ad5:	48 c7 87 80 02 00 00 	mov    QWORD PTR [rdi+0x280],0xfa0
  403adc:	a0 0f 00 00 
  403ae0:	48 8b af a8 01 00 00 	mov    rbp,QWORD PTR [rdi+0x1a8]
  403ae7:	48 8d 45 ff          	lea    rax,[rbp-0x1]
  403aeb:	48 bb cf f7 53 e3 a5 	movabs rbx,0x20c49ba5e353f7cf
  403af2:	9b c4 20 
  403af5:	48 f7 eb             	imul   rbx
  403af8:	48 89 d6             	mov    rsi,rdx
  403afb:	48 89 d1             	mov    rcx,rdx
  403afe:	48 c1 e9 3f          	shr    rcx,0x3f
  403b02:	48 c1 fe 09          	sar    rsi,0x9
  403b06:	48 8d 3c 0e          	lea    rdi,[rsi+rcx*1]
  403b0a:	48 83 c7 01          	add    rdi,0x1
  403b0e:	49 89 bd 70 02 00 00 	mov    QWORD PTR [r13+0x270],rdi
  403b15:	48 89 e8             	mov    rax,rbp
  403b18:	48 f7 eb             	imul   rbx
  403b1b:	48 89 d0             	mov    rax,rdx
  403b1e:	48 c1 e8 3f          	shr    rax,0x3f
  403b22:	48 c1 fa 09          	sar    rdx,0x9
  403b26:	48 01 c2             	add    rdx,rax
  403b29:	48 69 c2 a0 0f 00 00 	imul   rax,rdx,0xfa0
  403b30:	49 89 ea             	mov    r10,rbp
  403b33:	48 89 eb             	mov    rbx,rbp
  403b36:	48 29 c3             	sub    rbx,rax
  403b39:	48 8d 2c 3b          	lea    rbp,[rbx+rdi*1]
  403b3d:	48 81 c5 60 f0 ff ff 	add    rbp,0xfffffffffffff060
  403b44:	49 89 ad 78 02 00 00 	mov    QWORD PTR [r13+0x278],rbp
  403b4b:	0f 89 16 01 00 00    	jns    403c67 <fwrite@plt+0x2b17>
  403b51:	48 01 ce             	add    rsi,rcx
  403b54:	48 01 f3             	add    rbx,rsi
  403b57:	b8 9e 0f 00 00       	mov    eax,0xf9e
  403b5c:	48 29 d8             	sub    rax,rbx
  403b5f:	31 d2                	xor    edx,edx
  403b61:	48 f7 f7             	div    rdi
  403b64:	48 83 c0 01          	add    rax,0x1
  403b68:	48 83 f8 08          	cmp    rax,0x8
  403b6c:	73 0a                	jae    403b78 <fwrite@plt+0x2a28>
  403b6e:	ba a0 0f 00 00       	mov    edx,0xfa0
  403b73:	e9 d8 00 00 00       	jmp    403c50 <fwrite@plt+0x2b00>
  403b78:	49 89 c0             	mov    r8,rax
  403b7b:	49 83 e0 f8          	and    r8,0xfffffffffffffff8
  403b7f:	49 8d 48 f8          	lea    rcx,[r8-0x8]
  403b83:	48 89 cd             	mov    rbp,rcx
  403b86:	48 c1 ed 03          	shr    rbp,0x3
  403b8a:	48 83 c5 01          	add    rbp,0x1
  403b8e:	89 ee                	mov    esi,ebp
  403b90:	83 e6 03             	and    esi,0x3
  403b93:	48 83 f9 18          	cmp    rcx,0x18
  403b97:	73 18                	jae    403bb1 <fwrite@plt+0x2a61>
  403b99:	b9 a0 0f 00 00       	mov    ecx,0xfa0
  403b9e:	c4 e1 f9 6e c1       	vmovq  xmm0,rcx
  403ba3:	c5 f1 ef c9          	vpxor  xmm1,xmm1,xmm1
  403ba7:	c5 e9 ef d2          	vpxor  xmm2,xmm2,xmm2
  403bab:	c5 e1 ef db          	vpxor  xmm3,xmm3,xmm3
  403baf:	eb 45                	jmp    403bf6 <fwrite@plt+0x2aa6>
  403bb1:	48 29 f5             	sub    rbp,rsi
  403bb4:	b9 a0 0f 00 00       	mov    ecx,0xfa0
  403bb9:	c4 e1 f9 6e c1       	vmovq  xmm0,rcx
  403bbe:	c5 f1 ef c9          	vpxor  xmm1,xmm1,xmm1
  403bc2:	c5 f9 6f 25 36 57 00 	vmovdqa xmm4,XMMWORD PTR [rip+0x5736]        # 409300 <fwrite@plt+0x81b0>
  403bc9:	00 
  403bca:	c5 e9 ef d2          	vpxor  xmm2,xmm2,xmm2
  403bce:	c5 e1 ef db          	vpxor  xmm3,xmm3,xmm3
  403bd2:	66 2e 0f 1f 84 00 00 	cs nop WORD PTR [rax+rax*1+0x0]
  403bd9:	00 00 00 
  403bdc:	0f 1f 40 00          	nop    DWORD PTR [rax+0x0]
  403be0:	c5 f9 d4 c4          	vpaddq xmm0,xmm0,xmm4
  403be4:	c5 f1 d4 cc          	vpaddq xmm1,xmm1,xmm4
  403be8:	c5 e9 d4 d4          	vpaddq xmm2,xmm2,xmm4
  403bec:	c5 e1 d4 dc          	vpaddq xmm3,xmm3,xmm4
  403bf0:	48 83 c5 fc          	add    rbp,0xfffffffffffffffc
  403bf4:	75 ea                	jne    403be0 <fwrite@plt+0x2a90>
  403bf6:	4c 89 c2             	mov    rdx,r8
  403bf9:	48 0f af d7          	imul   rdx,rdi
  403bfd:	48 85 f6             	test   rsi,rsi
  403c00:	74 24                	je     403c26 <fwrite@plt+0x2ad6>
  403c02:	c5 d9 76 e4          	vpcmpeqd xmm4,xmm4,xmm4
  403c06:	66 2e 0f 1f 84 00 00 	cs nop WORD PTR [rax+rax*1+0x0]
  403c0d:	00 00 00 
  403c10:	c5 f9 d4 c4          	vpaddq xmm0,xmm0,xmm4
  403c14:	c5 f1 d4 cc          	vpaddq xmm1,xmm1,xmm4
  403c18:	c5 e9 d4 d4          	vpaddq xmm2,xmm2,xmm4
  403c1c:	c5 e1 d4 dc          	vpaddq xmm3,xmm3,xmm4
  403c20:	48 83 c6 ff          	add    rsi,0xffffffffffffffff
  403c24:	75 ea                	jne    403c10 <fwrite@plt+0x2ac0>
  403c26:	c5 f1 d4 cb          	vpaddq xmm1,xmm1,xmm3
  403c2a:	c5 f9 d4 c2          	vpaddq xmm0,xmm0,xmm2
  403c2e:	c5 f9 d4 c1          	vpaddq xmm0,xmm0,xmm1
  403c32:	48 8d 2c 1a          	lea    rbp,[rdx+rbx*1]
  403c36:	48 81 c5 61 f0 ff ff 	add    rbp,0xfffffffffffff061
  403c3d:	c5 f9 70 c8 4e       	vpshufd xmm1,xmm0,0x4e
  403c42:	c5 f9 d4 c1          	vpaddq xmm0,xmm0,xmm1
  403c46:	c4 e1 f9 7e c2       	vmovq  rdx,xmm0
  403c4b:	4c 39 c0             	cmp    rax,r8
  403c4e:	74 09                	je     403c59 <fwrite@plt+0x2b09>
  403c50:	48 83 c2 ff          	add    rdx,0xffffffffffffffff
  403c54:	48 01 fd             	add    rbp,rdi
  403c57:	78 f7                	js     403c50 <fwrite@plt+0x2b00>
  403c59:	49 89 ad 78 02 00 00 	mov    QWORD PTR [r13+0x278],rbp
  403c60:	49 89 95 80 02 00 00 	mov    QWORD PTR [r13+0x280],rdx
  403c67:	4d 8b bd b8 01 00 00 	mov    r15,QWORD PTR [r13+0x1b8]
  403c6e:	4d 85 c9             	test   r9,r9
  403c71:	0f 85 cf 00 00 00    	jne    403d46 <fwrite@plt+0x2bf6>
  403c77:	4d 85 ff             	test   r15,r15
  403c7a:	0f 8e 96 01 00 00    	jle    403e16 <fwrite@plt+0x2cc6>
  403c80:	4d 29 fa             	sub    r10,r15
  403c83:	45 31 ff             	xor    r15d,r15d
  403c86:	41 bc ff ff ff ff    	mov    r12d,0xffffffff
  403c8c:	4d 89 d6             	mov    r14,r10
  403c8f:	4c 89 d3             	mov    rbx,r10
  403c92:	66 2e 0f 1f 84 00 00 	cs nop WORD PTR [rax+rax*1+0x0]
  403c99:	00 00 00 
  403c9c:	0f 1f 40 00          	nop    DWORD PTR [rax+0x0]
  403ca0:	49 8b ad 38 02 00 00 	mov    rbp,QWORD PTR [r13+0x238]
  403ca7:	4c 89 ef             	mov    rdi,r13
  403caa:	48 89 de             	mov    rsi,rbx
  403cad:	e8 5e da ff ff       	call   401710 <fwrite@plt+0x5c0>
  403cb2:	48 8d 14 c0          	lea    rdx,[rax+rax*8]
  403cb6:	48 8d 04 d5 00 00 00 	lea    rax,[rdx*8+0x0]
  403cbd:	00 
  403cbe:	48 01 e8             	add    rax,rbp
  403cc1:	0f b7 74 d5 20       	movzx  esi,WORD PTR [rbp+rdx*8+0x20]
  403cc6:	48 c7 c1 fe ff ff ff 	mov    rcx,0xfffffffffffffffe
  403ccd:	66 85 f6             	test   si,si
  403cd0:	74 2e                	je     403d00 <fwrite@plt+0x2bb0>
  403cd2:	0f b7 f6             	movzx  esi,si
  403cd5:	83 fe 01             	cmp    esi,0x1
  403cd8:	75 3a                	jne    403d14 <fwrite@plt+0x2bc4>
  403cda:	48 8b 4c d5 08       	mov    rcx,QWORD PTR [rbp+rdx*8+0x8]
  403cdf:	48 8b 74 d5 10       	mov    rsi,QWORD PTR [rbp+rdx*8+0x10]
  403ce4:	48 2b 0e             	sub    rcx,QWORD PTR [rsi]
  403ce7:	48 8b 54 d5 18       	mov    rdx,QWORD PTR [rbp+rdx*8+0x18]
  403cec:	48 03 0a             	add    rcx,QWORD PTR [rdx]
  403cef:	eb 23                	jmp    403d14 <fwrite@plt+0x2bc4>
  403cf1:	66 2e 0f 1f 84 00 00 	cs nop WORD PTR [rax+rax*1+0x0]
  403cf8:	00 00 00 
  403cfb:	0f 1f 44 00 00       	nop    DWORD PTR [rax+rax*1+0x0]
  403d00:	48 8b 74 d5 10       	mov    rsi,QWORD PTR [rbp+rdx*8+0x10]
  403d05:	48 39 46 30          	cmp    QWORD PTR [rsi+0x30],rax
  403d09:	74 09                	je     403d14 <fwrite@plt+0x2bc4>
  403d0b:	48 8b 54 d5 18       	mov    rdx,QWORD PTR [rbp+rdx*8+0x18]
  403d10:	48 89 42 30          	mov    QWORD PTR [rdx+0x30],rax
  403d14:	31 d2                	xor    edx,edx
  403d16:	31 f6                	xor    esi,esi
  403d18:	48 3b 0c 24          	cmp    rcx,QWORD PTR [rsp]
  403d1c:	0f 9e c2             	setle  dl
  403d1f:	40 0f 9f c6          	setg   sil
  403d23:	44 89 f1             	mov    ecx,r14d
  403d26:	41 0f 4f cc          	cmovg  ecx,r12d
  403d2a:	49 01 f7             	add    r15,rsi
  403d2d:	49 01 d6             	add    r14,rdx
  403d30:	89 08                	mov    DWORD PTR [rax],ecx
  403d32:	48 83 c3 01          	add    rbx,0x1
  403d36:	4d 8b 95 a8 01 00 00 	mov    r10,QWORD PTR [r13+0x1a8]
  403d3d:	4c 39 d3             	cmp    rbx,r10
  403d40:	0f 8c 5a ff ff ff    	jl     403ca0 <fwrite@plt+0x2b50>
  403d46:	4d 85 ff             	test   r15,r15
  403d49:	0f 84 c7 00 00 00    	je     403e16 <fwrite@plt+0x2cc6>
  403d4f:	4d 29 bd b8 01 00 00 	sub    QWORD PTR [r13+0x1b8],r15
  403d56:	4d 01 bd c0 01 00 00 	add    QWORD PTR [r13+0x1c0],r15
  403d5d:	49 c7 85 80 02 00 00 	mov    QWORD PTR [r13+0x280],0xfa0
  403d64:	a0 0f 00 00 
  403d68:	4c 89 f8             	mov    rax,r15
  403d6b:	48 f7 d0             	not    rax
  403d6e:	4c 01 d0             	add    rax,r10
  403d71:	48 b9 cf f7 53 e3 a5 	movabs rcx,0x20c49ba5e353f7cf
  403d78:	9b c4 20 
  403d7b:	48 f7 e9             	imul   rcx
  403d7e:	48 89 d6             	mov    rsi,rdx
  403d81:	48 89 d3             	mov    rbx,rdx
  403d84:	48 c1 eb 3f          	shr    rbx,0x3f
  403d88:	48 c1 fe 09          	sar    rsi,0x9
  403d8c:	48 8d 3c 1e          	lea    rdi,[rsi+rbx*1]
  403d90:	48 83 c7 01          	add    rdi,0x1
  403d94:	4c 89 d0             	mov    rax,r10
  403d97:	4c 89 14 24          	mov    QWORD PTR [rsp],r10
  403d9b:	4c 89 d5             	mov    rbp,r10
  403d9e:	4c 29 fd             	sub    rbp,r15
  403da1:	48 89 e8             	mov    rax,rbp
  403da4:	48 f7 e9             	imul   rcx
  403da7:	49 89 bd 70 02 00 00 	mov    QWORD PTR [r13+0x270],rdi
  403dae:	48 89 d0             	mov    rax,rdx
  403db1:	48 c1 e8 3f          	shr    rax,0x3f
  403db5:	48 c1 fa 09          	sar    rdx,0x9
  403db9:	48 01 c2             	add    rdx,rax
  403dbc:	48 69 c2 a0 0f 00 00 	imul   rax,rdx,0xfa0
  403dc3:	48 89 c1             	mov    rcx,rax
  403dc6:	48 f7 d9             	neg    rcx
  403dc9:	48 01 e9             	add    rcx,rbp
  403dcc:	48 81 c1 60 f0 ff ff 	add    rcx,0xfffffffffffff060
  403dd3:	48 29 c5             	sub    rbp,rax
  403dd6:	48 0f 45 e9          	cmovne rbp,rcx
  403dda:	48 89 e9             	mov    rcx,rbp
  403ddd:	48 01 f9             	add    rcx,rdi
  403de0:	49 89 8d 78 02 00 00 	mov    QWORD PTR [r13+0x278],rcx
  403de7:	0f 89 1a 01 00 00    	jns    403f07 <fwrite@plt+0x2db7>
  403ded:	48 01 de             	add    rsi,rbx
  403df0:	48 01 f5             	add    rbp,rsi
  403df3:	48 c7 c0 fe ff ff ff 	mov    rax,0xfffffffffffffffe
  403dfa:	48 29 e8             	sub    rax,rbp
  403dfd:	31 d2                	xor    edx,edx
  403dff:	48 f7 f7             	div    rdi
  403e02:	48 83 c0 01          	add    rax,0x1
  403e06:	48 83 f8 08          	cmp    rax,0x8
  403e0a:	73 12                	jae    403e1e <fwrite@plt+0x2cce>
  403e0c:	be a0 0f 00 00       	mov    esi,0xfa0
  403e11:	e9 da 00 00 00       	jmp    403ef0 <fwrite@plt+0x2da0>
  403e16:	45 31 ff             	xor    r15d,r15d
  403e19:	e9 55 02 00 00       	jmp    404073 <fwrite@plt+0x2f23>
  403e1e:	48 89 c2             	mov    rdx,rax
  403e21:	48 83 e2 f8          	and    rdx,0xfffffffffffffff8
  403e25:	48 8d 5a f8          	lea    rbx,[rdx-0x8]
  403e29:	48 89 d9             	mov    rcx,rbx
  403e2c:	48 c1 e9 03          	shr    rcx,0x3
  403e30:	48 83 c1 01          	add    rcx,0x1
  403e34:	89 ce                	mov    esi,ecx
  403e36:	83 e6 03             	and    esi,0x3
  403e39:	48 83 fb 18          	cmp    rbx,0x18
  403e3d:	73 18                	jae    403e57 <fwrite@plt+0x2d07>
  403e3f:	b9 a0 0f 00 00       	mov    ecx,0xfa0
  403e44:	c4 e1 f9 6e c1       	vmovq  xmm0,rcx
  403e49:	c5 f1 ef c9          	vpxor  xmm1,xmm1,xmm1
  403e4d:	c5 e9 ef d2          	vpxor  xmm2,xmm2,xmm2
  403e51:	c5 e1 ef db          	vpxor  xmm3,xmm3,xmm3
  403e55:	eb 3f                	jmp    403e96 <fwrite@plt+0x2d46>
  403e57:	48 29 f1             	sub    rcx,rsi
  403e5a:	bb a0 0f 00 00       	mov    ebx,0xfa0
  403e5f:	c4 e1 f9 6e c3       	vmovq  xmm0,rbx
  403e64:	c5 f1 ef c9          	vpxor  xmm1,xmm1,xmm1
  403e68:	c5 f9 6f 25 90 54 00 	vmovdqa xmm4,XMMWORD PTR [rip+0x5490]        # 409300 <fwrite@plt+0x81b0>
  403e6f:	00 
  403e70:	c5 e9 ef d2          	vpxor  xmm2,xmm2,xmm2
  403e74:	c5 e1 ef db          	vpxor  xmm3,xmm3,xmm3
  403e78:	0f 1f 84 00 00 00 00 	nop    DWORD PTR [rax+rax*1+0x0]
  403e7f:	00 
  403e80:	c5 f9 d4 c4          	vpaddq xmm0,xmm0,xmm4
  403e84:	c5 f1 d4 cc          	vpaddq xmm1,xmm1,xmm4
  403e88:	c5 e9 d4 d4          	vpaddq xmm2,xmm2,xmm4
  403e8c:	c5 e1 d4 dc          	vpaddq xmm3,xmm3,xmm4
  403e90:	48 83 c1 fc          	add    rcx,0xfffffffffffffffc
  403e94:	75 ea                	jne    403e80 <fwrite@plt+0x2d30>
  403e96:	48 89 d1             	mov    rcx,rdx
  403e99:	48 0f af cf          	imul   rcx,rdi
  403e9d:	48 85 f6             	test   rsi,rsi
  403ea0:	74 24                	je     403ec6 <fwrite@plt+0x2d76>
  403ea2:	c5 d9 76 e4          	vpcmpeqd xmm4,xmm4,xmm4
  403ea6:	66 2e 0f 1f 84 00 00 	cs nop WORD PTR [rax+rax*1+0x0]
  403ead:	00 00 00 
  403eb0:	c5 f9 d4 c4          	vpaddq xmm0,xmm0,xmm4
  403eb4:	c5 f1 d4 cc          	vpaddq xmm1,xmm1,xmm4
  403eb8:	c5 e9 d4 d4          	vpaddq xmm2,xmm2,xmm4
  403ebc:	c5 e1 d4 dc          	vpaddq xmm3,xmm3,xmm4
  403ec0:	48 83 c6 ff          	add    rsi,0xffffffffffffffff
  403ec4:	75 ea                	jne    403eb0 <fwrite@plt+0x2d60>
  403ec6:	c5 f1 d4 cb          	vpaddq xmm1,xmm1,xmm3
  403eca:	c5 f9 d4 c2          	vpaddq xmm0,xmm0,xmm2
  403ece:	c5 f9 d4 c1          	vpaddq xmm0,xmm0,xmm1
  403ed2:	48 01 e9             	add    rcx,rbp
  403ed5:	48 83 c1 01          	add    rcx,0x1
  403ed9:	c5 f9 70 c8 4e       	vpshufd xmm1,xmm0,0x4e
  403ede:	c5 f9 d4 c1          	vpaddq xmm0,xmm0,xmm1
  403ee2:	c4 e1 f9 7e c6       	vmovq  rsi,xmm0
  403ee7:	48 39 d0             	cmp    rax,rdx
  403eea:	74 0d                	je     403ef9 <fwrite@plt+0x2da9>
  403eec:	0f 1f 40 00          	nop    DWORD PTR [rax+0x0]
  403ef0:	48 83 c6 ff          	add    rsi,0xffffffffffffffff
  403ef4:	48 01 f9             	add    rcx,rdi
  403ef7:	78 f7                	js     403ef0 <fwrite@plt+0x2da0>
  403ef9:	49 89 8d 78 02 00 00 	mov    QWORD PTR [r13+0x278],rcx
  403f00:	49 89 b5 80 02 00 00 	mov    QWORD PTR [r13+0x280],rsi
  403f07:	4d 8b b5 48 02 00 00 	mov    r14,QWORD PTR [r13+0x248]
  403f0e:	49 83 bd 90 01 00 00 	cmp    QWORD PTR [r13+0x190],0x0
  403f15:	00 
  403f16:	0f 88 a3 00 00 00    	js     403fbf <fwrite@plt+0x2e6f>
  403f1c:	48 c7 c5 ff ff ff ff 	mov    rbp,0xffffffffffffffff
  403f23:	bb 40 00 00 00       	mov    ebx,0x40
  403f28:	0f 1f 84 00 00 00 00 	nop    DWORD PTR [rax+rax*1+0x0]
  403f2f:	00 
  403f30:	4d 8b a5 28 02 00 00 	mov    r12,QWORD PTR [r13+0x228]
  403f37:	49 8b 44 1c f0       	mov    rax,QWORD PTR [r12+rbx*1-0x10]
  403f3c:	48 85 c0             	test   rax,rax
  403f3f:	74 1d                	je     403f5e <fwrite@plt+0x2e0e>
  403f41:	48 63 30             	movsxd rsi,DWORD PTR [rax]
  403f44:	48 85 f6             	test   rsi,rsi
  403f47:	78 15                	js     403f5e <fwrite@plt+0x2e0e>
  403f49:	4c 89 ef             	mov    rdi,r13
  403f4c:	e8 ff d7 ff ff       	call   401750 <fwrite@plt+0x600>
  403f51:	48 8d 04 c0          	lea    rax,[rax+rax*8]
  403f55:	49 8d 04 c6          	lea    rax,[r14+rax*8]
  403f59:	49 89 44 1c f0       	mov    QWORD PTR [r12+rbx*1-0x10],rax
  403f5e:	49 8b 04 1c          	mov    rax,QWORD PTR [r12+rbx*1]
  403f62:	48 85 c0             	test   rax,rax
  403f65:	74 1c                	je     403f83 <fwrite@plt+0x2e33>
  403f67:	48 63 30             	movsxd rsi,DWORD PTR [rax]
  403f6a:	48 85 f6             	test   rsi,rsi
  403f6d:	78 14                	js     403f83 <fwrite@plt+0x2e33>
  403f6f:	4c 89 ef             	mov    rdi,r13
  403f72:	e8 d9 d7 ff ff       	call   401750 <fwrite@plt+0x600>
  403f77:	48 8d 04 c0          	lea    rax,[rax+rax*8]
  403f7b:	49 8d 04 c6          	lea    rax,[r14+rax*8]
  403f7f:	49 89 04 1c          	mov    QWORD PTR [r12+rbx*1],rax
  403f83:	49 8b 44 1c f8       	mov    rax,QWORD PTR [r12+rbx*1-0x8]
  403f88:	48 85 c0             	test   rax,rax
  403f8b:	74 1d                	je     403faa <fwrite@plt+0x2e5a>
  403f8d:	48 63 30             	movsxd rsi,DWORD PTR [rax]
  403f90:	48 85 f6             	test   rsi,rsi
  403f93:	78 15                	js     403faa <fwrite@plt+0x2e5a>
  403f95:	4c 89 ef             	mov    rdi,r13
  403f98:	e8 b3 d7 ff ff       	call   401750 <fwrite@plt+0x600>
  403f9d:	48 8d 04 c0          	lea    rax,[rax+rax*8]
  403fa1:	49 8d 04 c6          	lea    rax,[r14+rax*8]
  403fa5:	49 89 44 1c f8       	mov    QWORD PTR [r12+rbx*1-0x8],rax
  403faa:	48 83 c5 01          	add    rbp,0x1
  403fae:	48 83 c3 68          	add    rbx,0x68
  403fb2:	49 3b ad 90 01 00 00 	cmp    rbp,QWORD PTR [r13+0x190]
  403fb9:	0f 8c 71 ff ff ff    	jl     403f30 <fwrite@plt+0x2de0>
  403fbf:	4d 8b a5 38 02 00 00 	mov    r12,QWORD PTR [r13+0x238]
  403fc6:	48 8b 04 24          	mov    rax,QWORD PTR [rsp]
  403fca:	48 85 c0             	test   rax,rax
  403fcd:	7e 5e                	jle    40402d <fwrite@plt+0x2edd>
  403fcf:	31 ed                	xor    ebp,ebp
  403fd1:	48 89 c3             	mov    rbx,rax
  403fd4:	66 2e 0f 1f 84 00 00 	cs nop WORD PTR [rax+rax*1+0x0]
  403fdb:	00 00 00 
  403fde:	66 90                	xchg   ax,ax
  403fe0:	49 63 34 2c          	movsxd rsi,DWORD PTR [r12+rbp*1]
  403fe4:	48 85 f6             	test   rsi,rsi
  403fe7:	78 3a                	js     404023 <fwrite@plt+0x2ed3>
  403fe9:	4c 89 ef             	mov    rdi,r13
  403fec:	c5 f8 77             	vzeroupper 
  403fef:	e8 5c d7 ff ff       	call   401750 <fwrite@plt+0x600>
  403ff4:	48 8d 04 c0          	lea    rax,[rax+rax*8]
  403ff8:	49 8b 4c 2c 40       	mov    rcx,QWORD PTR [r12+rbp*1+0x40]
  403ffd:	49 89 4c c6 40       	mov    QWORD PTR [r14+rax*8+0x40],rcx
  404002:	c4 c1 7e 6f 04 2c    	vmovdqu ymm0,YMMWORD PTR [r12+rbp*1]
  404008:	c4 c1 7e 6f 4c 2c 20 	vmovdqu ymm1,YMMWORD PTR [r12+rbp*1+0x20]
  40400f:	c4 c1 7e 7f 4c c6 20 	vmovdqu YMMWORD PTR [r14+rax*8+0x20],ymm1
  404016:	c4 c1 7e 7f 04 c6    	vmovdqu YMMWORD PTR [r14+rax*8],ymm0
  40401c:	4d 8b a5 38 02 00 00 	mov    r12,QWORD PTR [r13+0x238]
  404023:	48 83 c5 48          	add    rbp,0x48
  404027:	48 83 c3 ff          	add    rbx,0xffffffffffffffff
  40402b:	75 b3                	jne    403fe0 <fwrite@plt+0x2e90>
  40402d:	4d 89 b5 38 02 00 00 	mov    QWORD PTR [r13+0x238],r14
  404034:	4d 89 a5 48 02 00 00 	mov    QWORD PTR [r13+0x248],r12
  40403b:	48 8b 04 24          	mov    rax,QWORD PTR [rsp]
  40403f:	48 8d 04 c0          	lea    rax,[rax+rax*8]
  404043:	49 8d 04 c6          	lea    rax,[r14+rax*8]
  404047:	4d 29 bd a8 01 00 00 	sub    QWORD PTR [r13+0x1a8],r15
  40404e:	4c 89 f9             	mov    rcx,r15
  404051:	48 f7 d9             	neg    rcx
  404054:	48 8d 0c c9          	lea    rcx,[rcx+rcx*8]
  404058:	48 8d 04 c8          	lea    rax,[rax+rcx*8]
  40405c:	49 89 85 40 02 00 00 	mov    QWORD PTR [r13+0x240],rax
  404063:	be 50 17 40 00       	mov    esi,0x401750
  404068:	4c 89 ef             	mov    rdi,r13
  40406b:	c5 f8 77             	vzeroupper 
  40406e:	e8 3d d4 ff ff       	call   4014b0 <fwrite@plt+0x360>
  404073:	4c 89 f8             	mov    rax,r15
  404076:	48 83 c4 08          	add    rsp,0x8
  40407a:	5b                   	pop    rbx
  40407b:	41 5c                	pop    r12
  40407d:	41 5d                	pop    r13
  40407f:	41 5e                	pop    r14
  404081:	41 5f                	pop    r15
  404083:	5d                   	pop    rbp
  404084:	c3                   	ret    
  404085:	66 2e 0f 1f 84 00 00 	cs nop WORD PTR [rax+rax*1+0x0]
  40408c:	00 00 00 
  40408f:	90                   	nop
  404090:	53                   	push   rbx
  404091:	48 8b 87 28 02 00 00 	mov    rax,QWORD PTR [rdi+0x228]
  404098:	4c 8d 50 68          	lea    r10,[rax+0x68]
  40409c:	48 c7 40 30 00 00 00 	mov    QWORD PTR [rax+0x30],0x0
  4040a3:	00 
  4040a4:	48 c7 40 18 00 00 00 	mov    QWORD PTR [rax+0x18],0x0
  4040ab:	00 
  4040ac:	4c 89 50 10          	mov    QWORD PTR [rax+0x10],r10
  4040b0:	c5 f9 ef c0          	vpxor  xmm0,xmm0,xmm0
  4040b4:	c5 fa 7f 40 20       	vmovdqu XMMWORD PTR [rax+0x20],xmm0
  4040b9:	4c 8b 8f 90 01 00 00 	mov    r9,QWORD PTR [rdi+0x190]
  4040c0:	49 8d 49 01          	lea    rcx,[r9+0x1]
  4040c4:	48 89 48 58          	mov    QWORD PTR [rax+0x58],rcx
  4040c8:	c7 40 08 00 00 00 00 	mov    DWORD PTR [rax+0x8],0x0
  4040cf:	48 c7 00 00 1f 0a fa 	mov    QWORD PTR [rax],0xfffffffffa0a1f00
  4040d6:	48 c7 40 50 00 00 00 	mov    QWORD PTR [rax+0x50],0x0
  4040dd:	00 
  4040de:	48 8b b7 a8 01 00 00 	mov    rsi,QWORD PTR [rdi+0x1a8]
  4040e5:	48 85 f6             	test   rsi,rsi
  4040e8:	7e 7c                	jle    404166 <fwrite@plt+0x3016>
  4040ea:	4c 8b 87 38 02 00 00 	mov    r8,QWORD PTR [rdi+0x238]
  4040f1:	41 89 f3             	mov    r11d,esi
  4040f4:	41 83 e3 01          	and    r11d,0x1
  4040f8:	48 83 fe 01          	cmp    rsi,0x1
  4040fc:	75 09                	jne    404107 <fwrite@plt+0x2fb7>
  4040fe:	31 c9                	xor    ecx,ecx
  404100:	4d 85 db             	test   r11,r11
  404103:	75 42                	jne    404147 <fwrite@plt+0x2ff7>
  404105:	eb 5f                	jmp    404166 <fwrite@plt+0x3016>
  404107:	4c 29 de             	sub    rsi,r11
  40410a:	49 8d 50 68          	lea    rdx,[r8+0x68]
  40410e:	31 c9                	xor    ecx,ecx
  404110:	0f b7 5a b8          	movzx  ebx,WORD PTR [rdx-0x48]
  404114:	81 fb ff ff 00 00    	cmp    ebx,0xffff
  40411a:	74 06                	je     404122 <fwrite@plt+0x2fd2>
  40411c:	66 c7 42 b8 01 00    	mov    WORD PTR [rdx-0x48],0x1
  404122:	0f b7 1a             	movzx  ebx,WORD PTR [rdx]
  404125:	81 fb ff ff 00 00    	cmp    ebx,0xffff
  40412b:	74 05                	je     404132 <fwrite@plt+0x2fe2>
  40412d:	66 c7 02 01 00       	mov    WORD PTR [rdx],0x1
  404132:	48 83 c1 02          	add    rcx,0x2
  404136:	48 81 c2 90 00 00 00 	add    rdx,0x90
  40413d:	48 39 ce             	cmp    rsi,rcx
  404140:	75 ce                	jne    404110 <fwrite@plt+0x2fc0>
  404142:	4d 85 db             	test   r11,r11
  404145:	74 1f                	je     404166 <fwrite@plt+0x3016>
  404147:	48 8d 0c c9          	lea    rcx,[rcx+rcx*8]
  40414b:	41 0f b7 54 c8 20    	movzx  edx,WORD PTR [r8+rcx*8+0x20]
  404151:	81 fa ff ff 00 00    	cmp    edx,0xffff
  404157:	74 0d                	je     404166 <fwrite@plt+0x3016>
  404159:	49 8d 0c c8          	lea    rcx,[r8+rcx*8]
  40415d:	48 83 c1 20          	add    rcx,0x20
  404161:	66 c7 01 01 00       	mov    WORD PTR [rcx],0x1
  404166:	4d 85 c9             	test   r9,r9
  404169:	0f 8e 99 00 00 00    	jle    404208 <fwrite@plt+0x30b8>
  40416f:	48 8b b7 50 02 00 00 	mov    rsi,QWORD PTR [rdi+0x250]
  404176:	4c 89 ca             	mov    rdx,r9
  404179:	48 f7 da             	neg    rdx
  40417c:	41 b8 01 00 00 00    	mov    r8d,0x1
  404182:	b9 01 00 00 00       	mov    ecx,0x1
  404187:	4c 89 d7             	mov    rdi,r10
  40418a:	66 0f 1f 44 00 00    	nop    WORD PTR [rax+rax*1+0x0]
  404190:	48 89 77 30          	mov    QWORD PTR [rdi+0x30],rsi
  404194:	48 89 47 18          	mov    QWORD PTR [rdi+0x18],rax
  404198:	48 c7 47 10 00 00 00 	mov    QWORD PTR [rdi+0x10],0x0
  40419f:	00 
  4041a0:	89 cb                	mov    ebx,ecx
  4041a2:	48 6b db 68          	imul   rbx,rbx,0x68
  4041a6:	4c 01 d3             	add    rbx,r10
  4041a9:	48 89 5f 20          	mov    QWORD PTR [rdi+0x20],rbx
  4041ad:	48 8d 5f 98          	lea    rbx,[rdi-0x68]
  4041b1:	48 89 5f 28          	mov    QWORD PTR [rdi+0x28],rbx
  4041b5:	48 c7 46 08 00 e1 f5 	mov    QWORD PTR [rsi+0x8],0x5f5e100
  4041bc:	05 
  4041bd:	66 c7 46 20 00 00    	mov    WORD PTR [rsi+0x20],0x0
  4041c3:	c7 47 08 01 00 00 00 	mov    DWORD PTR [rdi+0x8],0x1
  4041ca:	48 c7 07 00 00 00 00 	mov    QWORD PTR [rdi],0x0
  4041d1:	48 89 7e 10          	mov    QWORD PTR [rsi+0x10],rdi
  4041d5:	48 89 46 18          	mov    QWORD PTR [rsi+0x18],rax
  4041d9:	c7 06 fe ff ff ff    	mov    DWORD PTR [rsi],0xfffffffe
  4041df:	c4 c1 f9 6e c0       	vmovq  xmm0,r8
  4041e4:	c5 f9 73 f8 08       	vpslldq xmm0,xmm0,0x8
  4041e9:	c5 fa 7f 47 50       	vmovdqu XMMWORD PTR [rdi+0x50],xmm0
  4041ee:	48 83 c7 68          	add    rdi,0x68
  4041f2:	48 83 c6 48          	add    rsi,0x48
  4041f6:	48 8d 1c 0a          	lea    rbx,[rdx+rcx*1]
  4041fa:	48 83 c3 01          	add    rbx,0x1
  4041fe:	48 83 c1 01          	add    rcx,0x1
  404202:	48 83 fb 01          	cmp    rbx,0x1
  404206:	75 88                	jne    404190 <fwrite@plt+0x3040>
  404208:	49 6b c9 68          	imul   rcx,r9,0x68
  40420c:	48 c7 44 08 20 00 00 	mov    QWORD PTR [rax+rcx*1+0x20],0x0
  404213:	00 00 
  404215:	48 c7 80 90 00 00 00 	mov    QWORD PTR [rax+0x90],0x0
  40421c:	00 00 00 00 
  404220:	31 c0                	xor    eax,eax
  404222:	5b                   	pop    rbx
  404223:	c3                   	ret    
  404224:	66 2e 0f 1f 84 00 00 	cs nop WORD PTR [rax+rax*1+0x0]
  40422b:	00 00 00 
  40422e:	66 90                	xchg   ax,ax
  404230:	55                   	push   rbp
  404231:	41 57                	push   r15
  404233:	41 56                	push   r14
  404235:	41 55                	push   r13
  404237:	41 54                	push   r12
  404239:	53                   	push   rbx
  40423a:	50                   	push   rax
  40423b:	49 89 f4             	mov    r12,rsi
  40423e:	31 c0                	xor    eax,eax
  404240:	48 2b 86 b8 01 00 00 	sub    rax,QWORD PTR [rsi+0x1b8]
  404247:	48 8d 1c c0          	lea    rbx,[rax+rax*8]
  40424b:	48 c1 e3 03          	shl    rbx,0x3
  40424f:	48 03 9e 40 02 00 00 	add    rbx,QWORD PTR [rsi+0x240]
  404256:	be ff 93 40 00       	mov    esi,0x4093ff
  40425b:	e8 c0 ce ff ff       	call   401120 <fopen@plt>
  404260:	49 c7 c6 ff ff ff ff 	mov    r14,0xffffffffffffffff
  404267:	48 85 c0             	test   rax,rax
  40426a:	0f 84 f0 00 00 00    	je     404360 <fwrite@plt+0x3210>
  404270:	49 89 c7             	mov    r15,rax
  404273:	be 10 17 40 00       	mov    esi,0x401710
  404278:	4c 89 e7             	mov    rdi,r12
  40427b:	e8 30 d2 ff ff       	call   4014b0 <fwrite@plt+0x360>
  404280:	49 8b 84 24 28 02 00 	mov    rax,QWORD PTR [r12+0x228]
  404287:	00 
  404288:	49 6b 8c 24 90 01 00 	imul   rcx,QWORD PTR [r12+0x190],0x68
  40428f:	00 68 
  404291:	4c 8b 6c 08 38       	mov    r13,QWORD PTR [rax+rcx*1+0x38]
  404296:	4d 85 ed             	test   r13,r13
  404299:	75 12                	jne    4042ad <fwrite@plt+0x315d>
  40429b:	e9 b5 00 00 00       	jmp    404355 <fwrite@plt+0x3205>
  4042a0:	4d 8b 6d 28          	mov    r13,QWORD PTR [r13+0x28]
  4042a4:	4d 85 ed             	test   r13,r13
  4042a7:	0f 84 a8 00 00 00    	je     404355 <fwrite@plt+0x3205>
  4042ad:	49 83 7d 38 00       	cmp    QWORD PTR [r13+0x38],0x0
  4042b2:	74 ec                	je     4042a0 <fwrite@plt+0x3150>
  4042b4:	bf 01 94 40 00       	mov    edi,0x409401
  4042b9:	be 03 00 00 00       	mov    esi,0x3
  4042be:	ba 01 00 00 00       	mov    edx,0x1
  4042c3:	4c 89 f9             	mov    rcx,r15
  4042c6:	e8 35 ce ff ff       	call   401100 <fwrite_unlocked@plt>
  4042cb:	4c 89 ed             	mov    rbp,r13
  4042ce:	48 39 dd             	cmp    rbp,rbx
  4042d1:	72 17                	jb     4042ea <fwrite@plt+0x319a>
  4042d3:	bf 05 94 40 00       	mov    edi,0x409405
  4042d8:	be 04 00 00 00       	mov    esi,0x4
  4042dd:	ba 01 00 00 00       	mov    edx,0x1
  4042e2:	4c 89 f9             	mov    rcx,r15
  4042e5:	e8 16 ce ff ff       	call   401100 <fwrite_unlocked@plt>
  4042ea:	48 8b 45 18          	mov    rax,QWORD PTR [rbp+0x18]
  4042ee:	31 d2                	xor    edx,edx
  4042f0:	2b 50 60             	sub    edx,DWORD PTR [rax+0x60]
  4042f3:	be 0a 94 40 00       	mov    esi,0x40940a
  4042f8:	31 c0                	xor    eax,eax
  4042fa:	4c 89 ff             	mov    rdi,r15
  4042fd:	e8 ae cd ff ff       	call   4010b0 <fprintf@plt>
  404302:	48 8b 45 18          	mov    rax,QWORD PTR [rbp+0x18]
  404306:	49 6b 8c 24 98 01 00 	imul   rcx,QWORD PTR [r12+0x198],0x68
  40430d:	00 68 
  40430f:	48 8b 44 08 38       	mov    rax,QWORD PTR [rax+rcx*1+0x38]
  404314:	48 85 c0             	test   rax,rax
  404317:	75 10                	jne    404329 <fwrite@plt+0x31d9>
  404319:	eb 30                	jmp    40434b <fwrite@plt+0x31fb>
  40431b:	0f 1f 44 00 00       	nop    DWORD PTR [rax+rax*1+0x0]
  404320:	48 8b 40 28          	mov    rax,QWORD PTR [rax+0x28]
  404324:	48 85 c0             	test   rax,rax
  404327:	74 22                	je     40434b <fwrite@plt+0x31fb>
  404329:	48 83 78 38 00       	cmp    QWORD PTR [rax+0x38],0x0
  40432e:	74 f0                	je     404320 <fwrite@plt+0x31d0>
  404330:	48 8b 48 18          	mov    rcx,QWORD PTR [rax+0x18]
  404334:	83 79 60 00          	cmp    DWORD PTR [rcx+0x60],0x0
  404338:	bd 00 00 00 00       	mov    ebp,0x0
  40433d:	48 0f 45 e8          	cmovne rbp,rax
  404341:	48 85 ed             	test   rbp,rbp
  404344:	75 88                	jne    4042ce <fwrite@plt+0x317e>
  404346:	e9 55 ff ff ff       	jmp    4042a0 <fwrite@plt+0x3150>
  40434b:	4c 89 ff             	mov    rdi,r15
  40434e:	e8 1d cd ff ff       	call   401070 <fclose@plt>
  404353:	eb 0b                	jmp    404360 <fwrite@plt+0x3210>
  404355:	4c 89 ff             	mov    rdi,r15
  404358:	e8 13 cd ff ff       	call   401070 <fclose@plt>
  40435d:	45 31 f6             	xor    r14d,r14d
  404360:	4c 89 f0             	mov    rax,r14
  404363:	48 83 c4 08          	add    rsp,0x8
  404367:	5b                   	pop    rbx
  404368:	41 5c                	pop    r12
  40436a:	41 5d                	pop    r13
  40436c:	41 5e                	pop    r14
  40436e:	41 5f                	pop    r15
  404370:	5d                   	pop    rbp
  404371:	c3                   	ret    
  404372:	66 2e 0f 1f 84 00 00 	cs nop WORD PTR [rax+rax*1+0x0]
  404379:	00 00 00 
  40437c:	0f 1f 40 00          	nop    DWORD PTR [rax+0x0]
  404380:	41 56                	push   r14
  404382:	53                   	push   rbx
  404383:	50                   	push   rax
  404384:	49 89 f6             	mov    r14,rsi
  404387:	be ff 93 40 00       	mov    esi,0x4093ff
  40438c:	e8 8f cd ff ff       	call   401120 <fopen@plt>
  404391:	48 85 c0             	test   rax,rax
  404394:	74 26                	je     4043bc <fwrite@plt+0x326c>
  404396:	48 89 c3             	mov    rbx,rax
  404399:	4c 89 f7             	mov    rdi,r14
  40439c:	e8 0f d2 ff ff       	call   4015b0 <fwrite@plt+0x460>
  4043a1:	be 0e 94 40 00       	mov    esi,0x40940e
  4043a6:	b0 01                	mov    al,0x1
  4043a8:	48 89 df             	mov    rdi,rbx
  4043ab:	e8 00 cd ff ff       	call   4010b0 <fprintf@plt>
  4043b0:	48 89 df             	mov    rdi,rbx
  4043b3:	e8 b8 cc ff ff       	call   401070 <fclose@plt>
  4043b8:	31 c0                	xor    eax,eax
  4043ba:	eb 07                	jmp    4043c3 <fwrite@plt+0x3273>
  4043bc:	48 c7 c0 ff ff ff ff 	mov    rax,0xffffffffffffffff
  4043c3:	48 83 c4 08          	add    rsp,0x8
  4043c7:	5b                   	pop    rbx
  4043c8:	41 5e                	pop    r14
  4043ca:	c3                   	ret    
  4043cb:	0f 1f 44 00 00       	nop    DWORD PTR [rax+rax*1+0x0]
  4043d0:	55                   	push   rbp
  4043d1:	41 57                	push   r15
  4043d3:	41 56                	push   r14
  4043d5:	41 55                	push   r13
  4043d7:	41 54                	push   r12
  4043d9:	53                   	push   rbx
  4043da:	49 89 d6             	mov    r14,rdx
  4043dd:	4c 8b 5c 24 58       	mov    r11,QWORD PTR [rsp+0x58]
  4043e2:	4c 8b 64 24 50       	mov    r12,QWORD PTR [rsp+0x50]
  4043e7:	49 8b 44 24 10       	mov    rax,QWORD PTR [r12+0x10]
  4043ec:	4d 85 db             	test   r11,r11
  4043ef:	79 05                	jns    4043f6 <fwrite@plt+0x32a6>
  4043f1:	4c 39 c8             	cmp    rax,r9
  4043f4:	74 0a                	je     404400 <fwrite@plt+0x32b0>
  4043f6:	4d 85 db             	test   r11,r11
  4043f9:	7e 10                	jle    40440b <fwrite@plt+0x32bb>
  4043fb:	4c 39 c0             	cmp    rax,r8
  4043fe:	75 0b                	jne    40440b <fwrite@plt+0x32bb>
  404400:	4c 89 da             	mov    rdx,r11
  404403:	48 f7 da             	neg    rdx
  404406:	4c 89 d8             	mov    rax,r11
  404409:	eb 09                	jmp    404414 <fwrite@plt+0x32c4>
  40440b:	4c 89 d8             	mov    rax,r11
  40440e:	48 f7 d8             	neg    rax
  404411:	4c 89 da             	mov    rdx,r11
  404414:	4c 8b 7c 24 40       	mov    r15,QWORD PTR [rsp+0x40]
  404419:	48 8b 6c 24 38       	mov    rbp,QWORD PTR [rsp+0x38]
  40441e:	4d 85 db             	test   r11,r11
  404421:	48 0f 48 c2          	cmovs  rax,rdx
  404425:	48 89 ea             	mov    rdx,rbp
  404428:	48 89 d3             	mov    rbx,rdx
  40442b:	48 01 02             	add    QWORD PTR [rdx],rax
  40442e:	48 8b 52 10          	mov    rdx,QWORD PTR [rdx+0x10]
  404432:	48 85 d2             	test   rdx,rdx
  404435:	75 f1                	jne    404428 <fwrite@plt+0x32d8>
  404437:	eb 0b                	jmp    404444 <fwrite@plt+0x32f4>
  404439:	0f 1f 80 00 00 00 00 	nop    DWORD PTR [rax+0x0]
  404440:	48 8b 5b 18          	mov    rbx,QWORD PTR [rbx+0x18]
  404444:	48 39 eb             	cmp    rbx,rbp
  404447:	74 0b                	je     404454 <fwrite@plt+0x3304>
  404449:	48 8b 53 20          	mov    rdx,QWORD PTR [rbx+0x20]
  40444d:	48 85 d2             	test   rdx,rdx
  404450:	74 ee                	je     404440 <fwrite@plt+0x32f0>
  404452:	eb d4                	jmp    404428 <fwrite@plt+0x32d8>
  404454:	4c 8b 5d 58          	mov    r11,QWORD PTR [rbp+0x58]
  404458:	4d 39 f8             	cmp    r8,r15
  40445b:	0f 84 bb 00 00 00    	je     40451c <fwrite@plt+0x33cc>
  404461:	4c 89 f0             	mov    rax,r14
  404464:	48 f7 d8             	neg    rax
  404467:	48 89 44 24 f8       	mov    QWORD PTR [rsp-0x8],rax
  40446c:	4d 89 dd             	mov    r13,r11
  40446f:	4c 89 cd             	mov    rbp,r9
  404472:	66 2e 0f 1f 84 00 00 	cs nop WORD PTR [rax+rax*1+0x0]
  404479:	00 00 00 
  40447c:	0f 1f 40 00          	nop    DWORD PTR [rax+0x0]
  404480:	4c 89 c3             	mov    rbx,r8
  404483:	4d 8b 40 18          	mov    r8,QWORD PTR [r8+0x18]
  404487:	48 8b 53 20          	mov    rdx,QWORD PTR [rbx+0x20]
  40448b:	48 85 d2             	test   rdx,rdx
  40448e:	74 08                	je     404498 <fwrite@plt+0x3348>
  404490:	4c 8b 53 28          	mov    r10,QWORD PTR [rbx+0x28]
  404494:	4c 89 52 28          	mov    QWORD PTR [rdx+0x28],r10
  404498:	48 8b 43 28          	mov    rax,QWORD PTR [rbx+0x28]
  40449c:	4d 8d 50 10          	lea    r10,[r8+0x10]
  4044a0:	48 85 c0             	test   rax,rax
  4044a3:	48 8d 40 20          	lea    rax,[rax+0x20]
  4044a7:	49 0f 44 c2          	cmove  rax,r10
  4044ab:	48 89 10             	mov    QWORD PTR [rax],rdx
  4044ae:	48 89 6b 18          	mov    QWORD PTR [rbx+0x18],rbp
  4044b2:	48 8b 55 10          	mov    rdx,QWORD PTR [rbp+0x10]
  4044b6:	48 89 53 20          	mov    QWORD PTR [rbx+0x20],rdx
  4044ba:	48 85 d2             	test   rdx,rdx
  4044bd:	74 04                	je     4044c3 <fwrite@plt+0x3373>
  4044bf:	48 89 5a 28          	mov    QWORD PTR [rdx+0x28],rbx
  4044c3:	48 89 5d 10          	mov    QWORD PTR [rbp+0x10],rbx
  4044c7:	48 c7 43 28 00 00 00 	mov    QWORD PTR [rbx+0x28],0x0
  4044ce:	00 
  4044cf:	31 ed                	xor    ebp,ebp
  4044d1:	83 7b 08 00          	cmp    DWORD PTR [rbx+0x8],0x0
  4044d5:	40 0f 94 c5          	sete   bpl
  4044d9:	4c 89 f2             	mov    rdx,r14
  4044dc:	48 39 fd             	cmp    rbp,rdi
  4044df:	74 05                	je     4044e6 <fwrite@plt+0x3396>
  4044e1:	48 8b 54 24 f8       	mov    rdx,QWORD PTR [rsp-0x8]
  4044e6:	48 03 53 50          	add    rdx,QWORD PTR [rbx+0x50]
  4044ea:	48 8b 43 30          	mov    rax,QWORD PTR [rbx+0x30]
  4044ee:	89 73 08             	mov    DWORD PTR [rbx+0x8],esi
  4044f1:	48 89 4b 50          	mov    QWORD PTR [rbx+0x50],rcx
  4044f5:	4c 89 63 30          	mov    QWORD PTR [rbx+0x30],r12
  4044f9:	4c 89 d9             	mov    rcx,r11
  4044fc:	48 2b 4b 58          	sub    rcx,QWORD PTR [rbx+0x58]
  404500:	4c 89 6b 58          	mov    QWORD PTR [rbx+0x58],r13
  404504:	49 89 cd             	mov    r13,rcx
  404507:	48 89 ee             	mov    rsi,rbp
  40450a:	48 89 d1             	mov    rcx,rdx
  40450d:	48 89 dd             	mov    rbp,rbx
  404510:	49 89 c4             	mov    r12,rax
  404513:	4d 39 f8             	cmp    r8,r15
  404516:	0f 85 64 ff ff ff    	jne    404480 <fwrite@plt+0x3330>
  40451c:	4c 3b 74 24 60       	cmp    r14,QWORD PTR [rsp+0x60]
  404521:	7e 7c                	jle    40459f <fwrite@plt+0x344f>
  404523:	48 8b 74 24 48       	mov    rsi,QWORD PTR [rsp+0x48]
  404528:	49 39 f7             	cmp    r15,rsi
  40452b:	74 32                	je     40455f <fwrite@plt+0x340f>
  40452d:	4c 89 f1             	mov    rcx,r14
  404530:	48 f7 d9             	neg    rcx
  404533:	66 2e 0f 1f 84 00 00 	cs nop WORD PTR [rax+rax*1+0x0]
  40453a:	00 00 00 
  40453d:	0f 1f 00             	nop    DWORD PTR [rax]
  404540:	4d 29 5f 58          	sub    QWORD PTR [r15+0x58],r11
  404544:	49 63 47 08          	movsxd rax,DWORD PTR [r15+0x8]
  404548:	48 39 f8             	cmp    rax,rdi
  40454b:	4c 89 f0             	mov    rax,r14
  40454e:	48 0f 44 c1          	cmove  rax,rcx
  404552:	49 01 47 50          	add    QWORD PTR [r15+0x50],rax
  404556:	4d 8b 7f 18          	mov    r15,QWORD PTR [r15+0x18]
  40455a:	49 39 f7             	cmp    r15,rsi
  40455d:	75 e1                	jne    404540 <fwrite@plt+0x33f0>
  40455f:	49 39 f1             	cmp    r9,rsi
  404562:	74 69                	je     4045cd <fwrite@plt+0x347d>
  404564:	4c 89 f0             	mov    rax,r14
  404567:	48 f7 d8             	neg    rax
  40456a:	c4 c1 f9 6e c3       	vmovq  xmm0,r11
  40456f:	90                   	nop
  404570:	49 63 51 08          	movsxd rdx,DWORD PTR [r9+0x8]
  404574:	4c 89 f1             	mov    rcx,r14
  404577:	48 39 fa             	cmp    rdx,rdi
  40457a:	74 03                	je     40457f <fwrite@plt+0x342f>
  40457c:	48 89 c1             	mov    rcx,rax
  40457f:	c4 e1 f9 6e c9       	vmovq  xmm1,rcx
  404584:	c5 f1 6c c8          	vpunpcklqdq xmm1,xmm1,xmm0
  404588:	c4 c1 71 d4 49 50    	vpaddq xmm1,xmm1,XMMWORD PTR [r9+0x50]
  40458e:	c4 c1 7a 7f 49 50    	vmovdqu XMMWORD PTR [r9+0x50],xmm1
  404594:	4d 8b 49 18          	mov    r9,QWORD PTR [r9+0x18]
  404598:	49 39 f1             	cmp    r9,rsi
  40459b:	75 d3                	jne    404570 <fwrite@plt+0x3420>
  40459d:	eb 2e                	jmp    4045cd <fwrite@plt+0x347d>
  40459f:	48 8b 44 24 48       	mov    rax,QWORD PTR [rsp+0x48]
  4045a4:	49 39 c7             	cmp    r15,rax
  4045a7:	74 1f                	je     4045c8 <fwrite@plt+0x3478>
  4045a9:	0f 1f 80 00 00 00 00 	nop    DWORD PTR [rax+0x0]
  4045b0:	4d 29 5f 58          	sub    QWORD PTR [r15+0x58],r11
  4045b4:	4d 8b 7f 18          	mov    r15,QWORD PTR [r15+0x18]
  4045b8:	49 39 c7             	cmp    r15,rax
  4045bb:	75 f3                	jne    4045b0 <fwrite@plt+0x3460>
  4045bd:	eb 09                	jmp    4045c8 <fwrite@plt+0x3478>
  4045bf:	90                   	nop
  4045c0:	4d 01 59 58          	add    QWORD PTR [r9+0x58],r11
  4045c4:	4d 8b 49 18          	mov    r9,QWORD PTR [r9+0x18]
  4045c8:	49 39 c1             	cmp    r9,rax
  4045cb:	75 f3                	jne    4045c0 <fwrite@plt+0x3470>
  4045cd:	5b                   	pop    rbx
  4045ce:	41 5c                	pop    r12
  4045d0:	41 5d                	pop    r13
  4045d2:	41 5e                	pop    r14
  4045d4:	41 5f                	pop    r15
  4045d6:	5d                   	pop    rbp
  4045d7:	c3                   	ret    
  4045d8:	0f 1f 84 00 00 00 00 	nop    DWORD PTR [rax+rax*1+0x0]
  4045df:	00 
  4045e0:	31 c0                	xor    eax,eax
  4045e2:	48 39 ca             	cmp    rdx,rcx
  4045e5:	0f 84 af 00 00 00    	je     40469a <fwrite@plt+0x354a>
  4045eb:	49 89 d1             	mov    r9,rdx
  4045ee:	48 89 ca             	mov    rdx,rcx
  4045f1:	66 2e 0f 1f 84 00 00 	cs nop WORD PTR [rax+rax*1+0x0]
  4045f8:	00 00 00 
  4045fb:	0f 1f 44 00 00       	nop    DWORD PTR [rax+rax*1+0x0]
  404600:	49 8b 49 58          	mov    rcx,QWORD PTR [r9+0x58]
  404604:	48 3b 4a 58          	cmp    rcx,QWORD PTR [rdx+0x58]
  404608:	7d 16                	jge    404620 <fwrite@plt+0x34d0>
  40460a:	41 83 79 08 00       	cmp    DWORD PTR [r9+0x8],0x0
  40460f:	74 49                	je     40465a <fwrite@plt+0x350a>
  404611:	49 8b 49 50          	mov    rcx,QWORD PTR [r9+0x50]
  404615:	48 39 0f             	cmp    QWORD PTR [rdi],rcx
  404618:	7f 59                	jg     404673 <fwrite@plt+0x3523>
  40461a:	eb 64                	jmp    404680 <fwrite@plt+0x3530>
  40461c:	0f 1f 40 00          	nop    DWORD PTR [rax+0x0]
  404620:	83 7a 08 00          	cmp    DWORD PTR [rdx+0x8],0x0
  404624:	74 69                	je     40468f <fwrite@plt+0x353f>
  404626:	48 8b 4a 18          	mov    rcx,QWORD PTR [rdx+0x18]
  40462a:	48 83 79 18 00       	cmp    QWORD PTR [rcx+0x18],0x0
  40462f:	74 1e                	je     40464f <fwrite@plt+0x34ff>
  404631:	4c 8b 52 50          	mov    r10,QWORD PTR [rdx+0x50]
  404635:	b9 01 00 00 00       	mov    ecx,0x1
  40463a:	4c 29 d1             	sub    rcx,r10
  40463d:	48 39 0f             	cmp    QWORD PTR [rdi],rcx
  404640:	7c 0d                	jl     40464f <fwrite@plt+0x34ff>
  404642:	48 89 0f             	mov    QWORD PTR [rdi],rcx
  404645:	48 c7 06 01 00 00 00 	mov    QWORD PTR [rsi],0x1
  40464c:	48 89 d0             	mov    rax,rdx
  40464f:	48 8b 52 18          	mov    rdx,QWORD PTR [rdx+0x18]
  404653:	49 39 d1             	cmp    r9,rdx
  404656:	75 a8                	jne    404600 <fwrite@plt+0x34b0>
  404658:	eb 40                	jmp    40469a <fwrite@plt+0x354a>
  40465a:	49 8b 49 18          	mov    rcx,QWORD PTR [r9+0x18]
  40465e:	48 83 79 18 00       	cmp    QWORD PTR [rcx+0x18],0x0
  404663:	74 1b                	je     404680 <fwrite@plt+0x3530>
  404665:	b9 01 00 00 00       	mov    ecx,0x1
  40466a:	49 2b 49 50          	sub    rcx,QWORD PTR [r9+0x50]
  40466e:	48 39 0f             	cmp    QWORD PTR [rdi],rcx
  404671:	7e 0d                	jle    404680 <fwrite@plt+0x3530>
  404673:	48 89 0f             	mov    QWORD PTR [rdi],rcx
  404676:	48 c7 06 00 00 00 00 	mov    QWORD PTR [rsi],0x0
  40467d:	4c 89 c8             	mov    rax,r9
  404680:	4d 8b 49 18          	mov    r9,QWORD PTR [r9+0x18]
  404684:	49 39 d1             	cmp    r9,rdx
  404687:	0f 85 73 ff ff ff    	jne    404600 <fwrite@plt+0x34b0>
  40468d:	eb 0b                	jmp    40469a <fwrite@plt+0x354a>
  40468f:	48 8b 4a 50          	mov    rcx,QWORD PTR [rdx+0x50]
  404693:	48 39 0f             	cmp    QWORD PTR [rdi],rcx
  404696:	7d aa                	jge    404642 <fwrite@plt+0x34f2>
  404698:	eb b5                	jmp    40464f <fwrite@plt+0x34ff>
  40469a:	49 89 10             	mov    QWORD PTR [r8],rdx
  40469d:	c3                   	ret    
  40469e:	66 90                	xchg   ax,ax
  4046a0:	48 39 d7             	cmp    rdi,rdx
  4046a3:	74 3c                	je     4046e1 <fwrite@plt+0x3591>
  4046a5:	66 2e 0f 1f 84 00 00 	cs nop WORD PTR [rax+rax*1+0x0]
  4046ac:	00 00 00 
  4046af:	90                   	nop
  4046b0:	31 c0                	xor    eax,eax
  4046b2:	83 7f 08 00          	cmp    DWORD PTR [rdi+0x8],0x0
  4046b6:	0f 94 c0             	sete   al
  4046b9:	48 89 47 50          	mov    QWORD PTR [rdi+0x50],rax
  4046bd:	48 8b 7f 18          	mov    rdi,QWORD PTR [rdi+0x18]
  4046c1:	48 39 d7             	cmp    rdi,rdx
  4046c4:	75 ea                	jne    4046b0 <fwrite@plt+0x3560>
  4046c6:	eb 19                	jmp    4046e1 <fwrite@plt+0x3591>
  4046c8:	0f 1f 84 00 00 00 00 	nop    DWORD PTR [rax+rax*1+0x0]
  4046cf:	00 
  4046d0:	31 c0                	xor    eax,eax
  4046d2:	83 7e 08 00          	cmp    DWORD PTR [rsi+0x8],0x0
  4046d6:	0f 95 c0             	setne  al
  4046d9:	48 89 46 50          	mov    QWORD PTR [rsi+0x50],rax
  4046dd:	48 8b 76 18          	mov    rsi,QWORD PTR [rsi+0x18]
  4046e1:	48 39 d6             	cmp    rsi,rdx
  4046e4:	75 ea                	jne    4046d0 <fwrite@plt+0x3580>
  4046e6:	c3                   	ret    
  4046e7:	66 0f 1f 84 00 00 00 	nop    WORD PTR [rax+rax*1+0x0]
  4046ee:	00 00 
  4046f0:	55                   	push   rbp
  4046f1:	41 57                	push   r15
  4046f3:	41 56                	push   r14
  4046f5:	41 55                	push   r13
  4046f7:	41 54                	push   r12
  4046f9:	53                   	push   rbx
  4046fa:	48 83 ec 18          	sub    rsp,0x18
  4046fe:	48 8b 05 eb 79 00 00 	mov    rax,QWORD PTR [rip+0x79eb]        # 40c0f0 <stderr@@GLIBC_2.2.5+0x10>
  404705:	bb 02 00 00 00       	mov    ebx,0x2
  40470a:	48 29 fb             	sub    rbx,rdi
  40470d:	41 bd 01 00 00 00    	mov    r13d,0x1
  404713:	31 d2                	xor    edx,edx
  404715:	4c 8d 7c 24 08       	lea    r15,[rsp+0x8]
  40471a:	49 89 e4             	mov    r12,rsp
  40471d:	45 31 f6             	xor    r14d,r14d
  404720:	48 89 7c 24 10       	mov    QWORD PTR [rsp+0x10],rdi
  404725:	66 2e 0f 1f 84 00 00 	cs nop WORD PTR [rax+rax*1+0x0]
  40472c:	00 00 00 
  40472f:	90                   	nop
  404730:	48 8b 08             	mov    rcx,QWORD PTR [rax]
  404733:	48 8b 09             	mov    rcx,QWORD PTR [rcx]
  404736:	48 83 79 18 00       	cmp    QWORD PTR [rcx+0x18],0x0
  40473b:	48 0f 48 ca          	cmovs  rcx,rdx
  40473f:	4c 0f 49 f2          	cmovns r14,rdx
  404743:	48 89 0c 24          	mov    QWORD PTR [rsp],rcx
  404747:	48 83 ff 02          	cmp    rdi,0x2
  40474b:	7c 68                	jl     4047b5 <fwrite@plt+0x3665>
  40474d:	bd 01 00 00 00       	mov    ebp,0x1
  404752:	eb 17                	jmp    40476b <fwrite@plt+0x361b>
  404754:	66 2e 0f 1f 84 00 00 	cs nop WORD PTR [rax+rax*1+0x0]
  40475b:	00 00 00 
  40475e:	66 90                	xchg   ax,ax
  404760:	48 83 c5 01          	add    rbp,0x1
  404764:	48 8b 05 85 79 00 00 	mov    rax,QWORD PTR [rip+0x7985]        # 40c0f0 <stderr@@GLIBC_2.2.5+0x10>
  40476b:	48 8b 04 e8          	mov    rax,QWORD PTR [rax+rbp*8]
  40476f:	48 8b 00             	mov    rax,QWORD PTR [rax]
  404772:	48 89 44 24 08       	mov    QWORD PTR [rsp+0x8],rax
  404777:	48 83 78 18 00       	cmp    QWORD PTR [rax+0x18],0x0
  40477c:	78 22                	js     4047a0 <fwrite@plt+0x3650>
  40477e:	48 83 3c 24 00       	cmp    QWORD PTR [rsp],0x0
  404783:	74 14                	je     404799 <fwrite@plt+0x3649>
  404785:	4c 89 ff             	mov    rdi,r15
  404788:	4c 89 e6             	mov    rsi,r12
  40478b:	e8 20 09 00 00       	call   4050b0 <fwrite@plt+0x3f60>
  404790:	85 c0                	test   eax,eax
  404792:	79 0c                	jns    4047a0 <fwrite@plt+0x3650>
  404794:	48 8b 44 24 08       	mov    rax,QWORD PTR [rsp+0x8]
  404799:	48 89 04 24          	mov    QWORD PTR [rsp],rax
  40479d:	49 89 ee             	mov    r14,rbp
  4047a0:	48 8d 04 2b          	lea    rax,[rbx+rbp*1]
  4047a4:	48 83 f8 01          	cmp    rax,0x1
  4047a8:	75 b6                	jne    404760 <fwrite@plt+0x3610>
  4047aa:	48 8b 0c 24          	mov    rcx,QWORD PTR [rsp]
  4047ae:	48 8b 7c 24 10       	mov    rdi,QWORD PTR [rsp+0x10]
  4047b3:	31 d2                	xor    edx,edx
  4047b5:	48 85 c9             	test   rcx,rcx
  4047b8:	74 1e                	je     4047d8 <fwrite@plt+0x3688>
  4047ba:	4c 89 69 18          	mov    QWORD PTR [rcx+0x18],r13
  4047be:	48 8b 05 2b 79 00 00 	mov    rax,QWORD PTR [rip+0x792b]        # 40c0f0 <stderr@@GLIBC_2.2.5+0x10>
  4047c5:	4a 83 04 f0 08       	add    QWORD PTR [rax+r14*8],0x8
  4047ca:	49 83 c5 01          	add    r13,0x1
  4047ce:	49 83 fd 3d          	cmp    r13,0x3d
  4047d2:	0f 82 58 ff ff ff    	jb     404730 <fwrite@plt+0x35e0>
  4047d8:	48 83 c4 18          	add    rsp,0x18
  4047dc:	5b                   	pop    rbx
  4047dd:	41 5c                	pop    r12
  4047df:	41 5d                	pop    r13
  4047e1:	41 5e                	pop    r14
  4047e3:	41 5f                	pop    r15
  4047e5:	5d                   	pop    rbp
  4047e6:	c3                   	ret    
  4047e7:	66 0f 1f 84 00 00 00 	nop    WORD PTR [rax+rax*1+0x0]
  4047ee:	00 00 
  4047f0:	55                   	push   rbp
  4047f1:	41 57                	push   r15
  4047f3:	41 56                	push   r14
  4047f5:	41 55                	push   r13
  4047f7:	41 54                	push   r12
  4047f9:	53                   	push   rbx
  4047fa:	48 81 ec 38 7f 00 00 	sub    rsp,0x7f38
  404801:	89 d5                	mov    ebp,edx
  404803:	48 89 f9             	mov    rcx,rdi
  404806:	48 8b bf a8 01 00 00 	mov    rdi,QWORD PTR [rdi+0x1a8]
  40480d:	48 8b 81 38 02 00 00 	mov    rax,QWORD PTR [rcx+0x238]
  404814:	48 89 4c 24 40       	mov    QWORD PTR [rsp+0x40],rcx
  404819:	48 8b 89 40 02 00 00 	mov    rcx,QWORD PTR [rcx+0x240]
  404820:	48 89 4c 24 30       	mov    QWORD PTR [rsp+0x30],rcx
  404825:	48 89 44 24 38       	mov    QWORD PTR [rsp+0x38],rax
  40482a:	48 89 44 24 48       	mov    QWORD PTR [rsp+0x48],rax
  40482f:	48 8b 0d c2 78 00 00 	mov    rcx,QWORD PTR [rip+0x78c2]        # 40c0f8 <stderr@@GLIBC_2.2.5+0x18>
  404836:	48 63 c6             	movsxd rax,esi
  404839:	48 89 44 24 28       	mov    QWORD PTR [rsp+0x28],rax
  40483e:	48 c7 04 c1 00 00 00 	mov    QWORD PTR [rcx+rax*8],0x0
  404845:	00 
  404846:	b8 a0 0f 00 00       	mov    eax,0xfa0
  40484b:	31 d2                	xor    edx,edx
  40484d:	f7 fd                	idiv   ebp
  40484f:	83 f8 c5             	cmp    eax,0xffffffc5
  404852:	89 6c 24 04          	mov    DWORD PTR [rsp+0x4],ebp
  404856:	0f 8c 66 01 00 00    	jl     4049c2 <fwrite@plt+0x3872>
  40485c:	8d 50 3d             	lea    edx,[rax+0x3d]
  40485f:	4c 63 da             	movsxd r11,edx
  404862:	05 05 01 00 00       	add    eax,0x105
  404867:	0f af c6             	imul   eax,esi
  40486a:	83 c0 01             	add    eax,0x1
  40486d:	4c 63 d0             	movsxd r10,eax
  404870:	48 8b 05 89 78 00 00 	mov    rax,QWORD PTR [rip+0x7889]        # 40c100 <stderr@@GLIBC_2.2.5+0x20>
  404877:	49 83 fb 01          	cmp    r11,0x1
  40487b:	41 b9 02 00 00 00    	mov    r9d,0x2
  404881:	4d 0f 4f cb          	cmovg  r9,r11
  404885:	49 83 c1 ff          	add    r9,0xffffffffffffffff
  404889:	49 83 f9 0f          	cmp    r9,0xf
  40488d:	77 0d                	ja     40489c <fwrite@plt+0x374c>
  40488f:	be 01 00 00 00       	mov    esi,0x1
  404894:	4d 89 d0             	mov    r8,r10
  404897:	e9 00 01 00 00       	jmp    40499c <fwrite@plt+0x384c>
  40489c:	4c 89 cb             	mov    rbx,r9
  40489f:	48 83 e3 f0          	and    rbx,0xfffffffffffffff0
  4048a3:	4e 8d 04 13          	lea    r8,[rbx+r10*1]
  4048a7:	48 8d 73 01          	lea    rsi,[rbx+0x1]
  4048ab:	c4 c1 f9 6e c2       	vmovq  xmm0,r10
  4048b0:	c5 f9 70 c0 44       	vpshufd xmm0,xmm0,0x44
  4048b5:	ba 01 00 00 00       	mov    edx,0x1
  4048ba:	c4 e1 f9 6e ca       	vmovq  xmm1,rdx
  4048bf:	c5 f1 73 f9 08       	vpslldq xmm1,xmm1,0x8
  4048c4:	c5 f9 d4 c9          	vpaddq xmm1,xmm0,xmm1
  4048c8:	c5 f9 d4 05 50 4b 00 	vpaddq xmm0,xmm0,XMMWORD PTR [rip+0x4b50]        # 409420 <fwrite@plt+0x82d0>
  4048cf:	00 
  4048d0:	c4 e3 75 18 c0 01    	vinsertf128 ymm0,ymm1,xmm0,0x1
  4048d6:	31 d2                	xor    edx,edx
  4048d8:	c4 e1 f9 6e c8       	vmovq  xmm1,rax
  4048dd:	c5 f9 70 c9 44       	vpshufd xmm1,xmm1,0x44
  4048e2:	c5 79 6f 05 46 4b 00 	vmovdqa xmm8,XMMWORD PTR [rip+0x4b46]        # 409430 <fwrite@plt+0x82e0>
  4048e9:	00 
  4048ea:	c5 79 6f 15 4e 4b 00 	vmovdqa xmm10,XMMWORD PTR [rip+0x4b4e]        # 409440 <fwrite@plt+0x82f0>
  4048f1:	00 
  4048f2:	c5 79 6f 25 56 4b 00 	vmovdqa xmm12,XMMWORD PTR [rip+0x4b56]        # 409450 <fwrite@plt+0x8300>
  4048f9:	00 
  4048fa:	c5 f9 6f 2d ce 4a 00 	vmovdqa xmm5,XMMWORD PTR [rip+0x4ace]        # 4093d0 <fwrite@plt+0x8280>
  404901:	00 
  404902:	66 2e 0f 1f 84 00 00 	cs nop WORD PTR [rax+rax*1+0x0]
  404909:	00 00 00 
  40490c:	0f 1f 40 00          	nop    DWORD PTR [rax+0x0]
  404910:	c4 e3 7d 19 c6 01    	vextractf128 xmm6,ymm0,0x1
  404916:	c5 c1 73 f6 05       	vpsllq xmm7,xmm6,0x5
  40491b:	c5 f1 d4 ff          	vpaddq xmm7,xmm1,xmm7
  40491f:	c5 e9 73 f0 05       	vpsllq xmm2,xmm0,0x5
  404924:	c5 f1 d4 d2          	vpaddq xmm2,xmm1,xmm2
  404928:	c4 63 6d 18 cf 01    	vinsertf128 ymm9,ymm2,xmm7,0x1
  40492e:	c4 c1 41 d4 d8       	vpaddq xmm3,xmm7,xmm8
  404933:	c4 41 69 d4 d8       	vpaddq xmm11,xmm2,xmm8
  404938:	c4 e3 25 18 db 01    	vinsertf128 ymm3,ymm11,xmm3,0x1
  40493e:	c4 c1 41 d4 e2       	vpaddq xmm4,xmm7,xmm10
  404943:	c4 41 69 d4 da       	vpaddq xmm11,xmm2,xmm10
  404948:	c4 e3 25 18 e4 01    	vinsertf128 ymm4,ymm11,xmm4,0x1
  40494e:	c4 c1 41 d4 fc       	vpaddq xmm7,xmm7,xmm12
  404953:	c4 c1 69 d4 d4       	vpaddq xmm2,xmm2,xmm12
  404958:	c4 e3 6d 18 d7 01    	vinsertf128 ymm2,ymm2,xmm7,0x1
  40495e:	c5 7c 11 4c d4 58    	vmovups YMMWORD PTR [rsp+rdx*8+0x58],ymm9
  404964:	c5 fc 11 5c d4 78    	vmovups YMMWORD PTR [rsp+rdx*8+0x78],ymm3
  40496a:	c5 fc 11 a4 d4 98 00 	vmovups YMMWORD PTR [rsp+rdx*8+0x98],ymm4
  404971:	00 00 
  404973:	c5 fc 11 94 d4 b8 00 	vmovups YMMWORD PTR [rsp+rdx*8+0xb8],ymm2
  40497a:	00 00 
  40497c:	48 83 c2 10          	add    rdx,0x10
  404980:	c5 c9 d4 d5          	vpaddq xmm2,xmm6,xmm5
  404984:	c5 f9 d4 c5          	vpaddq xmm0,xmm0,xmm5
  404988:	c4 e3 7d 18 c2 01    	vinsertf128 ymm0,ymm0,xmm2,0x1
  40498e:	48 39 d3             	cmp    rbx,rdx
  404991:	0f 85 79 ff ff ff    	jne    404910 <fwrite@plt+0x37c0>
  404997:	49 39 d9             	cmp    r9,rbx
  40499a:	74 26                	je     4049c2 <fwrite@plt+0x3872>
  40499c:	49 c1 e0 05          	shl    r8,0x5
  4049a0:	4c 01 c0             	add    rax,r8
  4049a3:	66 2e 0f 1f 84 00 00 	cs nop WORD PTR [rax+rax*1+0x0]
  4049aa:	00 00 00 
  4049ad:	0f 1f 00             	nop    DWORD PTR [rax]
  4049b0:	48 89 44 f4 50       	mov    QWORD PTR [rsp+rsi*8+0x50],rax
  4049b5:	48 83 c6 01          	add    rsi,0x1
  4049b9:	48 83 c0 20          	add    rax,0x20
  4049bd:	4c 39 de             	cmp    rsi,r11
  4049c0:	7c ee                	jl     4049b0 <fwrite@plt+0x3860>
  4049c2:	80 3d 3f 77 00 00 00 	cmp    BYTE PTR [rip+0x773f],0x0        # 40c108 <stderr@@GLIBC_2.2.5+0x28>
  4049c9:	0f 85 7b 01 00 00    	jne    404b4a <fwrite@plt+0x39fa>
  4049cf:	48 63 44 24 04       	movsxd rax,DWORD PTR [rsp+0x4]
  4049d4:	41 be 02 00 00 00    	mov    r14d,0x2
  4049da:	48 89 44 24 20       	mov    QWORD PTR [rsp+0x20],rax
  4049df:	49 29 c6             	sub    r14,rax
  4049e2:	4c 8d 7c 24 10       	lea    r15,[rsp+0x10]
  4049e7:	4c 8d 6c 24 08       	lea    r13,[rsp+0x8]
  4049ec:	48 89 7c 24 18       	mov    QWORD PTR [rsp+0x18],rdi
  4049f1:	eb 14                	jmp    404a07 <fwrite@plt+0x38b7>
  4049f3:	66 2e 0f 1f 84 00 00 	cs nop WORD PTR [rax+rax*1+0x0]
  4049fa:	00 00 00 
  4049fd:	0f 1f 00             	nop    DWORD PTR [rax]
  404a00:	48 8b 0d f1 76 00 00 	mov    rcx,QWORD PTR [rip+0x76f1]        # 40c0f8 <stderr@@GLIBC_2.2.5+0x18>
  404a07:	48 8b 6c 24 40       	mov    rbp,QWORD PTR [rsp+0x40]
  404a0c:	48 8b 85 60 02 00 00 	mov    rax,QWORD PTR [rbp+0x260]
  404a13:	4c 8b 64 24 28       	mov    r12,QWORD PTR [rsp+0x28]
  404a18:	4c 01 e0             	add    rax,r12
  404a1b:	48 99                	cqo    
  404a1d:	48 8b 5c 24 20       	mov    rbx,QWORD PTR [rsp+0x20]
  404a22:	48 f7 fb             	idiv   rbx
  404a25:	48 89 d0             	mov    rax,rdx
  404a28:	48 8b 74 24 38       	mov    rsi,QWORD PTR [rsp+0x38]
  404a2d:	48 8b 54 24 30       	mov    rdx,QWORD PTR [rsp+0x30]
  404a32:	4c 8d 44 24 50       	lea    r8,[rsp+0x50]
  404a37:	45 89 e1             	mov    r9d,r12d
  404a3a:	ff b5 80 02 00 00    	push   QWORD PTR [rbp+0x280]
  404a40:	53                   	push   rbx
  404a41:	50                   	push   rax
  404a42:	48 8d 44 24 60       	lea    rax,[rsp+0x60]
  404a47:	50                   	push   rax
  404a48:	48 89 fd             	mov    rbp,rdi
  404a4b:	c5 f8 77             	vzeroupper 
  404a4e:	e8 9d 06 00 00       	call   4050f0 <fwrite@plt+0x3fa0>
  404a53:	48 89 ef             	mov    rdi,rbp
  404a56:	48 83 c4 20          	add    rsp,0x20
  404a5a:	48 8b 0d af 76 00 00 	mov    rcx,QWORD PTR [rip+0x76af]        # 40c110 <stderr@@GLIBC_2.2.5+0x30>
  404a61:	4a 89 04 e1          	mov    QWORD PTR [rcx+r12*8],rax
  404a65:	48 8b 05 84 76 00 00 	mov    rax,QWORD PTR [rip+0x7684]        # 40c0f0 <stderr@@GLIBC_2.2.5+0x10>
  404a6c:	48 8d 4c 24 58       	lea    rcx,[rsp+0x58]
  404a71:	4a 89 0c e0          	mov    QWORD PTR [rax+r12*8],rcx
  404a75:	41 83 fc 01          	cmp    r12d,0x1
  404a79:	0f 85 be 00 00 00    	jne    404b3d <fwrite@plt+0x39ed>
  404a7f:	45 31 e4             	xor    r12d,r12d
  404a82:	bd 01 00 00 00       	mov    ebp,0x1
  404a87:	8b 74 24 04          	mov    esi,DWORD PTR [rsp+0x4]
  404a8b:	0f 1f 44 00 00       	nop    DWORD PTR [rax+rax*1+0x0]
  404a90:	48 8b 08             	mov    rcx,QWORD PTR [rax]
  404a93:	48 8b 09             	mov    rcx,QWORD PTR [rcx]
  404a96:	48 83 79 18 00       	cmp    QWORD PTR [rcx+0x18],0x0
  404a9b:	ba 00 00 00 00       	mov    edx,0x0
  404aa0:	48 0f 48 ca          	cmovs  rcx,rdx
  404aa4:	4c 0f 49 e2          	cmovns r12,rdx
  404aa8:	48 89 4c 24 08       	mov    QWORD PTR [rsp+0x8],rcx
  404aad:	83 fe 02             	cmp    esi,0x2
  404ab0:	7c 63                	jl     404b15 <fwrite@plt+0x39c5>
  404ab2:	bb 01 00 00 00       	mov    ebx,0x1
  404ab7:	eb 12                	jmp    404acb <fwrite@plt+0x397b>
  404ab9:	0f 1f 80 00 00 00 00 	nop    DWORD PTR [rax+0x0]
  404ac0:	48 83 c3 01          	add    rbx,0x1
  404ac4:	48 8b 05 25 76 00 00 	mov    rax,QWORD PTR [rip+0x7625]        # 40c0f0 <stderr@@GLIBC_2.2.5+0x10>
  404acb:	48 8b 04 d8          	mov    rax,QWORD PTR [rax+rbx*8]
  404acf:	48 8b 00             	mov    rax,QWORD PTR [rax]
  404ad2:	48 89 44 24 10       	mov    QWORD PTR [rsp+0x10],rax
  404ad7:	48 83 78 18 00       	cmp    QWORD PTR [rax+0x18],0x0
  404adc:	78 24                	js     404b02 <fwrite@plt+0x39b2>
  404ade:	48 83 7c 24 08 00    	cmp    QWORD PTR [rsp+0x8],0x0
  404ae4:	74 14                	je     404afa <fwrite@plt+0x39aa>
  404ae6:	4c 89 ff             	mov    rdi,r15
  404ae9:	4c 89 ee             	mov    rsi,r13
  404aec:	e8 bf 05 00 00       	call   4050b0 <fwrite@plt+0x3f60>
  404af1:	85 c0                	test   eax,eax
  404af3:	79 0d                	jns    404b02 <fwrite@plt+0x39b2>
  404af5:	48 8b 44 24 10       	mov    rax,QWORD PTR [rsp+0x10]
  404afa:	48 89 44 24 08       	mov    QWORD PTR [rsp+0x8],rax
  404aff:	49 89 dc             	mov    r12,rbx
  404b02:	49 8d 04 1e          	lea    rax,[r14+rbx*1]
  404b06:	48 83 f8 01          	cmp    rax,0x1
  404b0a:	75 b4                	jne    404ac0 <fwrite@plt+0x3970>
  404b0c:	48 8b 4c 24 08       	mov    rcx,QWORD PTR [rsp+0x8]
  404b11:	8b 74 24 04          	mov    esi,DWORD PTR [rsp+0x4]
  404b15:	48 85 c9             	test   rcx,rcx
  404b18:	74 1e                	je     404b38 <fwrite@plt+0x39e8>
  404b1a:	48 89 69 18          	mov    QWORD PTR [rcx+0x18],rbp
  404b1e:	48 8b 05 cb 75 00 00 	mov    rax,QWORD PTR [rip+0x75cb]        # 40c0f0 <stderr@@GLIBC_2.2.5+0x10>
  404b25:	4a 83 04 e0 08       	add    QWORD PTR [rax+r12*8],0x8
  404b2a:	48 83 c5 01          	add    rbp,0x1
  404b2e:	48 83 fd 3d          	cmp    rbp,0x3d
  404b32:	0f 82 58 ff ff ff    	jb     404a90 <fwrite@plt+0x3940>
  404b38:	48 8b 7c 24 18       	mov    rdi,QWORD PTR [rsp+0x18]
  404b3d:	80 3d c4 75 00 00 00 	cmp    BYTE PTR [rip+0x75c4],0x0        # 40c108 <stderr@@GLIBC_2.2.5+0x28>
  404b44:	0f 84 b6 fe ff ff    	je     404a00 <fwrite@plt+0x38b0>
  404b4a:	48 81 c4 38 7f 00 00 	add    rsp,0x7f38
  404b51:	5b                   	pop    rbx
  404b52:	41 5c                	pop    r12
  404b54:	41 5d                	pop    r13
  404b56:	41 5e                	pop    r14
  404b58:	41 5f                	pop    r15
  404b5a:	5d                   	pop    rbp
  404b5b:	c5 f8 77             	vzeroupper 
  404b5e:	c3                   	ret    
  404b5f:	90                   	nop
  404b60:	55                   	push   rbp
  404b61:	41 57                	push   r15
  404b63:	41 56                	push   r14
  404b65:	41 55                	push   r13
  404b67:	41 54                	push   r12
  404b69:	53                   	push   rbx
  404b6a:	48 81 ec 48 7f 00 00 	sub    rsp,0x7f48
  404b71:	41 89 f4             	mov    r12d,esi
  404b74:	48 89 fb             	mov    rbx,rdi
  404b77:	48 8b 87 a8 01 00 00 	mov    rax,QWORD PTR [rdi+0x1a8]
  404b7e:	48 89 44 24 48       	mov    QWORD PTR [rsp+0x48],rax
  404b83:	48 8b 87 38 02 00 00 	mov    rax,QWORD PTR [rdi+0x238]
  404b8a:	48 8b 8f 40 02 00 00 	mov    rcx,QWORD PTR [rdi+0x240]
  404b91:	48 89 4c 24 38       	mov    QWORD PTR [rsp+0x38],rcx
  404b96:	48 89 44 24 40       	mov    QWORD PTR [rsp+0x40],rax
  404b9b:	48 89 44 24 50       	mov    QWORD PTR [rsp+0x50],rax
  404ba0:	48 8b 0d 51 75 00 00 	mov    rcx,QWORD PTR [rip+0x7551]        # 40c0f8 <stderr@@GLIBC_2.2.5+0x18>
  404ba7:	48 c7 01 00 00 00 00 	mov    QWORD PTR [rcx],0x0
  404bae:	b8 a0 0f 00 00       	mov    eax,0xfa0
  404bb3:	31 d2                	xor    edx,edx
  404bb5:	f7 fe                	idiv   esi
  404bb7:	83 f8 c5             	cmp    eax,0xffffffc5
  404bba:	48 89 7c 24 08       	mov    QWORD PTR [rsp+0x8],rdi
  404bbf:	0f 8c ed 00 00 00    	jl     404cb2 <fwrite@plt+0x3b62>
  404bc5:	83 c0 3d             	add    eax,0x3d
  404bc8:	48 98                	cdqe   
  404bca:	48 8b 15 2f 75 00 00 	mov    rdx,QWORD PTR [rip+0x752f]        # 40c100 <stderr@@GLIBC_2.2.5+0x20>
  404bd1:	48 83 f8 01          	cmp    rax,0x1
  404bd5:	bd 02 00 00 00       	mov    ebp,0x2
  404bda:	48 0f 4f e8          	cmovg  rbp,rax
  404bde:	48 83 c5 ff          	add    rbp,0xffffffffffffffff
  404be2:	48 83 fd 07          	cmp    rbp,0x7
  404be6:	77 0a                	ja     404bf2 <fwrite@plt+0x3aa2>
  404be8:	be 01 00 00 00       	mov    esi,0x1
  404bed:	e9 9a 00 00 00       	jmp    404c8c <fwrite@plt+0x3b3c>
  404bf2:	48 89 ef             	mov    rdi,rbp
  404bf5:	48 83 e7 f8          	and    rdi,0xfffffffffffffff8
  404bf9:	48 8d 77 01          	lea    rsi,[rdi+0x1]
  404bfd:	c5 f9 6f 05 5b 48 00 	vmovdqa xmm0,XMMWORD PTR [rip+0x485b]        # 409460 <fwrite@plt+0x8310>
  404c04:	00 
  404c05:	31 db                	xor    ebx,ebx
  404c07:	c4 e1 f9 6e ca       	vmovq  xmm1,rdx
  404c0c:	c5 f9 70 c9 44       	vpshufd xmm1,xmm1,0x44
  404c11:	c5 79 6f 05 57 48 00 	vmovdqa xmm8,XMMWORD PTR [rip+0x4857]        # 409470 <fwrite@plt+0x8320>
  404c18:	00 
  404c19:	c5 79 6f 0d 0f 48 00 	vmovdqa xmm9,XMMWORD PTR [rip+0x480f]        # 409430 <fwrite@plt+0x82e0>
  404c20:	00 
  404c21:	c5 f9 6f 25 57 48 00 	vmovdqa xmm4,XMMWORD PTR [rip+0x4857]        # 409480 <fwrite@plt+0x8330>
  404c28:	00 
  404c29:	c5 f9 6f 2d 5f 48 00 	vmovdqa xmm5,XMMWORD PTR [rip+0x485f]        # 409490 <fwrite@plt+0x8340>
  404c30:	00 
  404c31:	66 2e 0f 1f 84 00 00 	cs nop WORD PTR [rax+rax*1+0x0]
  404c38:	00 00 00 
  404c3b:	0f 1f 44 00 00       	nop    DWORD PTR [rax+rax*1+0x0]
  404c40:	c5 c9 73 f0 05       	vpsllq xmm6,xmm0,0x5
  404c45:	c5 f1 d4 f6          	vpaddq xmm6,xmm1,xmm6
  404c49:	c4 c1 49 d4 f8       	vpaddq xmm7,xmm6,xmm8
  404c4e:	c4 c1 49 d4 d1       	vpaddq xmm2,xmm6,xmm9
  404c53:	c5 c9 d4 dc          	vpaddq xmm3,xmm6,xmm4
  404c57:	c5 fa 7f 74 dc 68    	vmovdqu XMMWORD PTR [rsp+rbx*8+0x68],xmm6
  404c5d:	c5 fa 7f 7c dc 78    	vmovdqu XMMWORD PTR [rsp+rbx*8+0x78],xmm7
  404c63:	c5 fa 7f 94 dc 88 00 	vmovdqu XMMWORD PTR [rsp+rbx*8+0x88],xmm2
  404c6a:	00 00 
  404c6c:	c5 fa 7f 9c dc 98 00 	vmovdqu XMMWORD PTR [rsp+rbx*8+0x98],xmm3
  404c73:	00 00 
  404c75:	48 83 c3 08          	add    rbx,0x8
  404c79:	c5 f9 d4 c5          	vpaddq xmm0,xmm0,xmm5
  404c7d:	48 39 df             	cmp    rdi,rbx
  404c80:	75 be                	jne    404c40 <fwrite@plt+0x3af0>
  404c82:	48 39 fd             	cmp    rbp,rdi
  404c85:	48 8b 5c 24 08       	mov    rbx,QWORD PTR [rsp+0x8]
  404c8a:	74 26                	je     404cb2 <fwrite@plt+0x3b62>
  404c8c:	48 89 f7             	mov    rdi,rsi
  404c8f:	48 c1 e7 05          	shl    rdi,0x5
  404c93:	48 01 fa             	add    rdx,rdi
  404c96:	66 2e 0f 1f 84 00 00 	cs nop WORD PTR [rax+rax*1+0x0]
  404c9d:	00 00 00 
  404ca0:	48 89 54 f4 60       	mov    QWORD PTR [rsp+rsi*8+0x60],rdx
  404ca5:	48 83 c6 01          	add    rsi,0x1
  404ca9:	48 83 c2 20          	add    rdx,0x20
  404cad:	48 39 c6             	cmp    rsi,rax
  404cb0:	7c ee                	jl     404ca0 <fwrite@plt+0x3b50>
  404cb2:	80 3d 4f 74 00 00 00 	cmp    BYTE PTR [rip+0x744f],0x0        # 40c108 <stderr@@GLIBC_2.2.5+0x28>
  404cb9:	0f 85 b5 02 00 00    	jne    404f74 <fwrite@plt+0x3e24>
  404cbf:	49 63 c4             	movsxd rax,r12d
  404cc2:	48 89 44 24 28       	mov    QWORD PTR [rsp+0x28],rax
  404cc7:	44 89 64 24 24       	mov    DWORD PTR [rsp+0x24],r12d
  404ccc:	eb 09                	jmp    404cd7 <fwrite@plt+0x3b87>
  404cce:	66 90                	xchg   ax,ax
  404cd0:	48 8b 0d 21 74 00 00 	mov    rcx,QWORD PTR [rip+0x7421]        # 40c0f8 <stderr@@GLIBC_2.2.5+0x18>
  404cd7:	48 8b 83 60 02 00 00 	mov    rax,QWORD PTR [rbx+0x260]
  404cde:	48 8b ab 80 02 00 00 	mov    rbp,QWORD PTR [rbx+0x280]
  404ce5:	48 99                	cqo    
  404ce7:	48 8b 5c 24 28       	mov    rbx,QWORD PTR [rsp+0x28]
  404cec:	48 f7 fb             	idiv   rbx
  404cef:	48 89 d0             	mov    rax,rdx
  404cf2:	41 b9 00 00 00 00    	mov    r9d,0x0
  404cf8:	48 8b 7c 24 48       	mov    rdi,QWORD PTR [rsp+0x48]
  404cfd:	48 8b 74 24 40       	mov    rsi,QWORD PTR [rsp+0x40]
  404d02:	48 8b 54 24 38       	mov    rdx,QWORD PTR [rsp+0x38]
  404d07:	4c 8d 44 24 60       	lea    r8,[rsp+0x60]
  404d0c:	55                   	push   rbp
  404d0d:	53                   	push   rbx
  404d0e:	50                   	push   rax
  404d0f:	48 8d 44 24 68       	lea    rax,[rsp+0x68]
  404d14:	50                   	push   rax
  404d15:	e8 d6 03 00 00       	call   4050f0 <fwrite@plt+0x3fa0>
  404d1a:	48 83 c4 20          	add    rsp,0x20
  404d1e:	48 8b 0d eb 73 00 00 	mov    rcx,QWORD PTR [rip+0x73eb]        # 40c110 <stderr@@GLIBC_2.2.5+0x30>
  404d25:	48 89 01             	mov    QWORD PTR [rcx],rax
  404d28:	48 8b 05 c1 73 00 00 	mov    rax,QWORD PTR [rip+0x73c1]        # 40c0f0 <stderr@@GLIBC_2.2.5+0x10>
  404d2f:	48 8d 4c 24 68       	lea    rcx,[rsp+0x68]
  404d34:	48 89 08             	mov    QWORD PTR [rax],rcx
  404d37:	48 c7 44 24 10 00 00 	mov    QWORD PTR [rsp+0x10],0x0
  404d3e:	00 00 
  404d40:	45 85 e4             	test   r12d,r12d
  404d43:	0f 8e 24 02 00 00    	jle    404f6d <fwrite@plt+0x3e1d>
  404d49:	31 ed                	xor    ebp,ebp
  404d4b:	4c 8b 74 24 28       	mov    r14,QWORD PTR [rsp+0x28]
  404d50:	31 c0                	xor    eax,eax
  404d52:	31 c9                	xor    ecx,ecx
  404d54:	31 db                	xor    ebx,ebx
  404d56:	4c 8d 7c 24 10       	lea    r15,[rsp+0x10]
  404d5b:	0f 1f 44 00 00       	nop    DWORD PTR [rax+rax*1+0x0]
  404d60:	48 8b 3d a9 73 00 00 	mov    rdi,QWORD PTR [rip+0x73a9]        # 40c110 <stderr@@GLIBC_2.2.5+0x30>
  404d67:	48 8b 14 2f          	mov    rdx,QWORD PTR [rdi+rbp*1]
  404d6b:	f6 c1 01             	test   cl,0x1
  404d6e:	74 20                	je     404d90 <fwrite@plt+0x3c40>
  404d70:	48 85 d2             	test   rdx,rdx
  404d73:	74 38                	je     404dad <fwrite@plt+0x3c5d>
  404d75:	48 01 ef             	add    rdi,rbp
  404d78:	4c 89 fe             	mov    rsi,r15
  404d7b:	e8 30 03 00 00       	call   4050b0 <fwrite@plt+0x3f60>
  404d80:	85 c0                	test   eax,eax
  404d82:	78 17                	js     404d9b <fwrite@plt+0x3c4b>
  404d84:	48 8b 44 24 10       	mov    rax,QWORD PTR [rsp+0x10]
  404d89:	eb 22                	jmp    404dad <fwrite@plt+0x3c5d>
  404d8b:	0f 1f 44 00 00       	nop    DWORD PTR [rax+rax*1+0x0]
  404d90:	48 85 d2             	test   rdx,rdx
  404d93:	74 18                	je     404dad <fwrite@plt+0x3c5d>
  404d95:	48 8d 04 df          	lea    rax,[rdi+rbx*8]
  404d99:	eb 0a                	jmp    404da5 <fwrite@plt+0x3c55>
  404d9b:	48 8b 05 6e 73 00 00 	mov    rax,QWORD PTR [rip+0x736e]        # 40c110 <stderr@@GLIBC_2.2.5+0x30>
  404da2:	48 01 e8             	add    rax,rbp
  404da5:	48 8b 00             	mov    rax,QWORD PTR [rax]
  404da8:	48 89 44 24 10       	mov    QWORD PTR [rsp+0x10],rax
  404dad:	48 83 c3 01          	add    rbx,0x1
  404db1:	48 85 c0             	test   rax,rax
  404db4:	0f 95 c1             	setne  cl
  404db7:	48 83 c5 08          	add    rbp,0x8
  404dbb:	49 83 c6 ff          	add    r14,0xffffffffffffffff
  404dbf:	75 9f                	jne    404d60 <fwrite@plt+0x3c10>
  404dc1:	48 85 c0             	test   rax,rax
  404dc4:	48 8b 5c 24 08       	mov    rbx,QWORD PTR [rsp+0x8]
  404dc9:	0f 84 9e 01 00 00    	je     404f6d <fwrite@plt+0x3e1d>
  404dcf:	4c 8b 28             	mov    r13,QWORD PTR [rax]
  404dd2:	4c 8b 78 08          	mov    r15,QWORD PTR [rax+0x8]
  404dd6:	41 83 fc 01          	cmp    r12d,0x1
  404dda:	75 64                	jne    404e40 <fwrite@plt+0x3cf0>
  404ddc:	48 8b 05 0d 73 00 00 	mov    rax,QWORD PTR [rip+0x730d]        # 40c0f0 <stderr@@GLIBC_2.2.5+0x10>
  404de3:	b9 01 00 00 00       	mov    ecx,0x1
  404de8:	0f 1f 84 00 00 00 00 	nop    DWORD PTR [rax+rax*1+0x0]
  404def:	00 
  404df0:	48 8b 10             	mov    rdx,QWORD PTR [rax]
  404df3:	48 8b 12             	mov    rdx,QWORD PTR [rdx]
  404df6:	48 85 d2             	test   rdx,rdx
  404df9:	74 45                	je     404e40 <fwrite@plt+0x3cf0>
  404dfb:	48 8b 72 18          	mov    rsi,QWORD PTR [rdx+0x18]
  404dff:	48 85 f6             	test   rsi,rsi
  404e02:	78 3c                	js     404e40 <fwrite@plt+0x3cf0>
  404e04:	48 89 4a 18          	mov    QWORD PTR [rdx+0x18],rcx
  404e08:	48 8b 10             	mov    rdx,QWORD PTR [rax]
  404e0b:	48 8d 72 08          	lea    rsi,[rdx+0x8]
  404e0f:	48 89 30             	mov    QWORD PTR [rax],rsi
  404e12:	48 8b 52 08          	mov    rdx,QWORD PTR [rdx+0x8]
  404e16:	48 85 d2             	test   rdx,rdx
  404e19:	74 25                	je     404e40 <fwrite@plt+0x3cf0>
  404e1b:	48 8b 72 18          	mov    rsi,QWORD PTR [rdx+0x18]
  404e1f:	48 85 f6             	test   rsi,rsi
  404e22:	78 1c                	js     404e40 <fwrite@plt+0x3cf0>
  404e24:	48 8d 71 01          	lea    rsi,[rcx+0x1]
  404e28:	48 89 72 18          	mov    QWORD PTR [rdx+0x18],rsi
  404e2c:	48 83 00 08          	add    QWORD PTR [rax],0x8
  404e30:	48 83 c1 02          	add    rcx,0x2
  404e34:	48 83 f9 3d          	cmp    rcx,0x3d
  404e38:	72 b6                	jb     404df0 <fwrite@plt+0x3ca0>
  404e3a:	66 0f 1f 44 00 00    	nop    WORD PTR [rax+rax*1+0x0]
  404e40:	4d 85 ff             	test   r15,r15
  404e43:	0f 84 24 01 00 00    	je     404f6d <fwrite@plt+0x3e1d>
  404e49:	48 83 83 60 02 00 00 	add    QWORD PTR [rbx+0x260],0x1
  404e50:	01 
  404e51:	31 c0                	xor    eax,eax
  404e53:	31 c9                	xor    ecx,ecx
  404e55:	4d 85 ff             	test   r15,r15
  404e58:	0f 9f c0             	setg   al
  404e5b:	0f 9e c1             	setle  cl
  404e5e:	4d 8b 64 c5 10       	mov    r12,QWORD PTR [r13+rax*8+0x10]
  404e63:	4d 8b 74 cd 10       	mov    r14,QWORD PTR [r13+rcx*8+0x10]
  404e68:	48 c7 44 24 18 01 00 	mov    QWORD PTR [rsp+0x18],0x1
  404e6f:	00 00 
  404e71:	48 8d 7c 24 18       	lea    rdi,[rsp+0x18]
  404e76:	48 8d 74 24 58       	lea    rsi,[rsp+0x58]
  404e7b:	4c 89 e2             	mov    rdx,r12
  404e7e:	4c 89 f1             	mov    rcx,r14
  404e81:	4c 8d 44 24 30       	lea    r8,[rsp+0x30]
  404e86:	e8 55 f7 ff ff       	call   4045e0 <fwrite@plt+0x3490>
  404e8b:	48 85 c0             	test   rax,rax
  404e8e:	0f 84 8c 00 00 00    	je     404f20 <fwrite@plt+0x3dd0>
  404e94:	48 8b 4c 24 58       	mov    rcx,QWORD PTR [rsp+0x58]
  404e99:	31 ff                	xor    edi,edi
  404e9b:	48 85 c9             	test   rcx,rcx
  404e9e:	40 0f 94 c7          	sete   dil
  404ea2:	4d 89 e1             	mov    r9,r12
  404ea5:	4d 0f 44 ce          	cmove  r9,r14
  404ea9:	4d 0f 44 f4          	cmove  r14,r12
  404ead:	48 63 50 08          	movsxd rdx,DWORD PTR [rax+0x8]
  404eb1:	31 db                	xor    ebx,ebx
  404eb3:	48 39 d1             	cmp    rcx,rdx
  404eb6:	0f 94 c3             	sete   bl
  404eb9:	83 c3 01             	add    ebx,0x1
  404ebc:	48 8b 54 24 18       	mov    rdx,QWORD PTR [rsp+0x18]
  404ec1:	b9 01 00 00 00       	mov    ecx,0x1
  404ec6:	48 29 d1             	sub    rcx,rdx
  404ec9:	4d 85 ff             	test   r15,r15
  404ecc:	4c 8b 60 30          	mov    r12,QWORD PTR [rax+0x30]
  404ed0:	48 0f 4e ca          	cmovle rcx,rdx
  404ed4:	31 f6                	xor    esi,esi
  404ed6:	4d 39 75 10          	cmp    QWORD PTR [r13+0x10],r14
  404eda:	40 0f 94 c6          	sete   sil
  404ede:	4d 89 f0             	mov    r8,r14
  404ee1:	48 8b 6c 24 08       	mov    rbp,QWORD PTR [rsp+0x8]
  404ee6:	ff b5 00 02 00 00    	push   QWORD PTR [rbp+0x200]
  404eec:	41 57                	push   r15
  404eee:	41 55                	push   r13
  404ef0:	ff 74 24 48          	push   QWORD PTR [rsp+0x48]
  404ef4:	ff 70 18             	push   QWORD PTR [rax+0x18]
  404ef7:	50                   	push   rax
  404ef8:	e8 d3 f4 ff ff       	call   4043d0 <fwrite@plt+0x3280>
  404efd:	48 83 c4 30          	add    rsp,0x30
  404f01:	66 41 c7 45 20 00 00 	mov    WORD PTR [r13+0x20],0x0
  404f08:	66 41 89 5c 24 20    	mov    WORD PTR [r12+0x20],bx
  404f0e:	48 8b 5c 24 08       	mov    rbx,QWORD PTR [rsp+0x8]
  404f13:	eb 44                	jmp    404f59 <fwrite@plt+0x3e09>
  404f15:	66 2e 0f 1f 84 00 00 	cs nop WORD PTR [rax+rax*1+0x0]
  404f1c:	00 00 00 
  404f1f:	90                   	nop
  404f20:	48 83 83 68 02 00 00 	add    QWORD PTR [rbx+0x268],0x1
  404f27:	01 
  404f28:	41 0f b7 45 20       	movzx  eax,WORD PTR [r13+0x20]
  404f2d:	31 c9                	xor    ecx,ecx
  404f2f:	83 f8 02             	cmp    eax,0x2
  404f32:	0f 94 c1             	sete   cl
  404f35:	b8 02 00 00 00       	mov    eax,0x2
  404f3a:	29 c8                	sub    eax,ecx
  404f3c:	66 41 89 45 20       	mov    WORD PTR [r13+0x20],ax
  404f41:	48 83 7c 24 18 00    	cmp    QWORD PTR [rsp+0x18],0x0
  404f47:	74 10                	je     404f59 <fwrite@plt+0x3e09>
  404f49:	48 8b 54 24 30       	mov    rdx,QWORD PTR [rsp+0x30]
  404f4e:	4c 89 e7             	mov    rdi,r12
  404f51:	4c 89 f6             	mov    rsi,r14
  404f54:	e8 47 f7 ff ff       	call   4046a0 <fwrite@plt+0x3550>
  404f59:	80 3d a8 71 00 00 00 	cmp    BYTE PTR [rip+0x71a8],0x0        # 40c108 <stderr@@GLIBC_2.2.5+0x28>
  404f60:	44 8b 64 24 24       	mov    r12d,DWORD PTR [rsp+0x24]
  404f65:	0f 84 65 fd ff ff    	je     404cd0 <fwrite@plt+0x3b80>
  404f6b:	eb 07                	jmp    404f74 <fwrite@plt+0x3e24>
  404f6d:	c6 05 94 71 00 00 01 	mov    BYTE PTR [rip+0x7194],0x1        # 40c108 <stderr@@GLIBC_2.2.5+0x28>
  404f74:	48 81 c4 48 7f 00 00 	add    rsp,0x7f48
  404f7b:	5b                   	pop    rbx
  404f7c:	41 5c                	pop    r12
  404f7e:	41 5d                	pop    r13
  404f80:	41 5e                	pop    r14
  404f82:	41 5f                	pop    r15
  404f84:	5d                   	pop    rbp
  404f85:	c3                   	ret    
  404f86:	66 2e 0f 1f 84 00 00 	cs nop WORD PTR [rax+rax*1+0x0]
  404f8d:	00 00 00 
  404f90:	53                   	push   rbx
  404f91:	48 89 fb             	mov    rbx,rdi
  404f94:	bf 01 00 00 00       	mov    edi,0x1
  404f99:	be 08 00 00 00       	mov    esi,0x8
  404f9e:	e8 fd c0 ff ff       	call   4010a0 <calloc@plt>
  404fa3:	48 89 05 46 71 00 00 	mov    QWORD PTR [rip+0x7146],rax        # 40c0f0 <stderr@@GLIBC_2.2.5+0x10>
  404faa:	bf 01 00 00 00       	mov    edi,0x1
  404faf:	be 08 00 00 00       	mov    esi,0x8
  404fb4:	e8 e7 c0 ff ff       	call   4010a0 <calloc@plt>
  404fb9:	48 89 05 50 71 00 00 	mov    QWORD PTR [rip+0x7150],rax        # 40c110 <stderr@@GLIBC_2.2.5+0x30>
  404fc0:	bf 01 00 00 00       	mov    edi,0x1
  404fc5:	be 08 00 00 00       	mov    esi,0x8
  404fca:	e8 d1 c0 ff ff       	call   4010a0 <calloc@plt>
  404fcf:	48 89 05 22 71 00 00 	mov    QWORD PTR [rip+0x7122],rax        # 40c0f8 <stderr@@GLIBC_2.2.5+0x18>
  404fd6:	bf a5 10 00 00       	mov    edi,0x10a5
  404fdb:	be 20 00 00 00       	mov    esi,0x20
  404fe0:	e8 bb c0 ff ff       	call   4010a0 <calloc@plt>
  404fe5:	48 89 05 14 71 00 00 	mov    QWORD PTR [rip+0x7114],rax        # 40c100 <stderr@@GLIBC_2.2.5+0x20>
  404fec:	48 8b b3 38 02 00 00 	mov    rsi,QWORD PTR [rbx+0x238]
  404ff3:	48 89 df             	mov    rdi,rbx
  404ff6:	e8 65 00 00 00       	call   405060 <fwrite@plt+0x3f10>
  404ffb:	be 01 00 00 00       	mov    esi,0x1
  405000:	48 89 df             	mov    rdi,rbx
  405003:	e8 58 fb ff ff       	call   404b60 <fwrite@plt+0x3a10>
  405008:	48 89 df             	mov    rdi,rbx
  40500b:	e8 70 c9 ff ff       	call   401980 <fwrite@plt+0x830>
  405010:	48 89 df             	mov    rdi,rbx
  405013:	e8 68 ca ff ff       	call   401a80 <fwrite@plt+0x930>
  405018:	c6 05 e9 70 00 00 00 	mov    BYTE PTR [rip+0x70e9],0x0        # 40c108 <stderr@@GLIBC_2.2.5+0x28>
  40501f:	48 8b 3d ca 70 00 00 	mov    rdi,QWORD PTR [rip+0x70ca]        # 40c0f0 <stderr@@GLIBC_2.2.5+0x10>
  405026:	e8 05 c0 ff ff       	call   401030 <free@plt>
  40502b:	48 8b 3d de 70 00 00 	mov    rdi,QWORD PTR [rip+0x70de]        # 40c110 <stderr@@GLIBC_2.2.5+0x30>
  405032:	e8 f9 bf ff ff       	call   401030 <free@plt>
  405037:	48 8b 3d ba 70 00 00 	mov    rdi,QWORD PTR [rip+0x70ba]        # 40c0f8 <stderr@@GLIBC_2.2.5+0x18>
  40503e:	e8 ed bf ff ff       	call   401030 <free@plt>
  405043:	48 8b 3d b6 70 00 00 	mov    rdi,QWORD PTR [rip+0x70b6]        # 40c100 <stderr@@GLIBC_2.2.5+0x20>
  40504a:	e8 e1 bf ff ff       	call   401030 <free@plt>
  40504f:	31 c0                	xor    eax,eax
  405051:	5b                   	pop    rbx
  405052:	c3                   	ret    
  405053:	66 2e 0f 1f 84 00 00 	cs nop WORD PTR [rax+rax*1+0x0]
  40505a:	00 00 00 
  40505d:	0f 1f 00             	nop    DWORD PTR [rax]
  405060:	48 8b 87 80 02 00 00 	mov    rax,QWORD PTR [rdi+0x280]
  405067:	48 0f af 87 78 02 00 	imul   rax,QWORD PTR [rdi+0x278]
  40506e:	00 
  40506f:	48 8d 04 c0          	lea    rax,[rax+rax*8]
  405073:	48 8d 04 c6          	lea    rax,[rsi+rax*8]
  405077:	48 89 05 9a 70 00 00 	mov    QWORD PTR [rip+0x709a],rax        # 40c118 <stderr@@GLIBC_2.2.5+0x38>
  40507e:	c3                   	ret    
  40507f:	90                   	nop
  405080:	48 85 f6             	test   rsi,rsi
  405083:	78 12                	js     405097 <fwrite@plt+0x3f47>
  405085:	48 85 f6             	test   rsi,rsi
  405088:	74 1a                	je     4050a4 <fwrite@plt+0x3f54>
  40508a:	0f b7 4f 20          	movzx  ecx,WORD PTR [rdi+0x20]
  40508e:	31 c0                	xor    eax,eax
  405090:	83 f9 02             	cmp    ecx,0x2
  405093:	0f 94 c0             	sete   al
  405096:	c3                   	ret    
  405097:	0f b7 4f 20          	movzx  ecx,WORD PTR [rdi+0x20]
  40509b:	31 c0                	xor    eax,eax
  40509d:	83 f9 01             	cmp    ecx,0x1
  4050a0:	0f 94 c0             	sete   al
  4050a3:	c3                   	ret    
  4050a4:	31 c0                	xor    eax,eax
  4050a6:	c3                   	ret    
  4050a7:	66 0f 1f 84 00 00 00 	nop    WORD PTR [rax+rax*1+0x0]
  4050ae:	00 00 
  4050b0:	48 8b 17             	mov    rdx,QWORD PTR [rdi]
  4050b3:	48 8b 0e             	mov    rcx,QWORD PTR [rsi]
  4050b6:	48 8b 71 10          	mov    rsi,QWORD PTR [rcx+0x10]
  4050ba:	b8 01 00 00 00       	mov    eax,0x1
  4050bf:	48 39 72 10          	cmp    QWORD PTR [rdx+0x10],rsi
  4050c3:	7c 1c                	jl     4050e1 <fwrite@plt+0x3f91>
  4050c5:	b8 ff ff ff ff       	mov    eax,0xffffffff
  4050ca:	7f 15                	jg     4050e1 <fwrite@plt+0x3f91>
  4050cc:	48 8b 02             	mov    rax,QWORD PTR [rdx]
  4050cf:	8b 00                	mov    eax,DWORD PTR [rax]
  4050d1:	48 8b 09             	mov    rcx,QWORD PTR [rcx]
  4050d4:	31 d2                	xor    edx,edx
  4050d6:	3b 01                	cmp    eax,DWORD PTR [rcx]
  4050d8:	0f 9f c2             	setg   dl
  4050db:	8d 04 12             	lea    eax,[rdx+rdx*1]
  4050de:	83 c0 ff             	add    eax,0xffffffff
  4050e1:	c3                   	ret    
  4050e2:	66 2e 0f 1f 84 00 00 	cs nop WORD PTR [rax+rax*1+0x0]
  4050e9:	00 00 00 
  4050ec:	0f 1f 40 00          	nop    DWORD PTR [rax+0x0]
  4050f0:	55                   	push   rbp
  4050f1:	41 57                	push   r15
  4050f3:	41 56                	push   r14
  4050f5:	41 55                	push   r13
  4050f7:	41 54                	push   r12
  4050f9:	53                   	push   rbx
  4050fa:	48 83 ec 38          	sub    rsp,0x38
  4050fe:	4d 89 c6             	mov    r14,r8
  405101:	49 89 d7             	mov    r15,rdx
  405104:	48 89 74 24 28       	mov    QWORD PTR [rsp+0x28],rsi
  405109:	4c 8b 9c 24 88 00 00 	mov    r11,QWORD PTR [rsp+0x88]
  405110:	00 
  405111:	4c 8b a4 24 80 00 00 	mov    r12,QWORD PTR [rsp+0x80]
  405118:	00 
  405119:	48 8b 5c 24 78       	mov    rbx,QWORD PTR [rsp+0x78]
  40511e:	4c 8b 44 24 70       	mov    r8,QWORD PTR [rsp+0x70]
  405123:	49 63 c1             	movsxd rax,r9d
  405126:	be 01 00 00 00       	mov    esi,0x1
  40512b:	45 31 c9             	xor    r9d,r9d
  40512e:	eb 10                	jmp    405140 <fwrite@plt+0x3ff0>
  405130:	0f b7 7d 20          	movzx  edi,WORD PTR [rbp+0x20]
  405134:	83 ff 01             	cmp    edi,0x1
  405137:	74 3d                	je     405176 <fwrite@plt+0x4026>
  405139:	eb 66                	jmp    4051a1 <fwrite@plt+0x4051>
  40513b:	0f 1f 44 00 00       	nop    DWORD PTR [rax+rax*1+0x0]
  405140:	48 3b 34 c1          	cmp    rsi,QWORD PTR [rcx+rax*8]
  405144:	7f 65                	jg     4051ab <fwrite@plt+0x405b>
  405146:	49 8b 14 f6          	mov    rdx,QWORD PTR [r14+rsi*8]
  40514a:	48 83 7a 18 00       	cmp    QWORD PTR [rdx+0x18],0x0
  40514f:	7e 50                	jle    4051a1 <fwrite@plt+0x4051>
  405151:	48 8b 2a             	mov    rbp,QWORD PTR [rdx]
  405154:	48 8b 55 08          	mov    rdx,QWORD PTR [rbp+0x8]
  405158:	48 8b 7d 10          	mov    rdi,QWORD PTR [rbp+0x10]
  40515c:	48 2b 17             	sub    rdx,QWORD PTR [rdi]
  40515f:	48 8b 7d 18          	mov    rdi,QWORD PTR [rbp+0x18]
  405163:	48 03 17             	add    rdx,QWORD PTR [rdi]
  405166:	48 85 d2             	test   rdx,rdx
  405169:	78 c5                	js     405130 <fwrite@plt+0x3fe0>
  40516b:	74 34                	je     4051a1 <fwrite@plt+0x4051>
  40516d:	0f b7 7d 20          	movzx  edi,WORD PTR [rbp+0x20]
  405171:	83 ff 02             	cmp    edi,0x2
  405174:	75 2b                	jne    4051a1 <fwrite@plt+0x4051>
  405176:	49 89 d2             	mov    r10,rdx
  405179:	49 f7 da             	neg    r10
  40517c:	4c 0f 4c d2          	cmovl  r10,rdx
  405180:	4b 8b 7c ce 08       	mov    rdi,QWORD PTR [r14+r9*8+0x8]
  405185:	48 89 2f             	mov    QWORD PTR [rdi],rbp
  405188:	4b 8b 7c ce 08       	mov    rdi,QWORD PTR [r14+r9*8+0x8]
  40518d:	4d 8d 49 01          	lea    r9,[r9+0x1]
  405191:	48 89 57 08          	mov    QWORD PTR [rdi+0x8],rdx
  405195:	4c 89 57 10          	mov    QWORD PTR [rdi+0x10],r10
  405199:	48 c7 47 18 00 00 00 	mov    QWORD PTR [rdi+0x18],0x0
  4051a0:	00 
  4051a1:	48 83 c6 01          	add    rsi,0x1
  4051a5:	48 83 fe 3d          	cmp    rsi,0x3d
  4051a9:	72 95                	jb     405140 <fwrite@plt+0x3ff0>
  4051ab:	4c 89 0c c1          	mov    QWORD PTR [rcx+rax*8],r9
  4051af:	4d 8b 08             	mov    r9,QWORD PTR [r8]
  4051b2:	48 8b 35 5f 6f 00 00 	mov    rsi,QWORD PTR [rip+0x6f5f]        # 40c118 <stderr@@GLIBC_2.2.5+0x38>
  4051b9:	49 8d 7c 24 f0       	lea    rdi,[r12-0x10]
  4051be:	48 c1 ef 04          	shr    rdi,0x4
  4051c2:	8d 6f 01             	lea    ebp,[rdi+0x1]
  4051c5:	4c 89 e2             	mov    rdx,r12
  4051c8:	48 83 e2 f0          	and    rdx,0xfffffffffffffff0
  4051cc:	48 89 54 24 10       	mov    QWORD PTR [rsp+0x10],rdx
  4051d1:	83 e5 01             	and    ebp,0x1
  4051d4:	4a 8d 14 e5 00 00 00 	lea    rdx,[r12*8+0x0]
  4051db:	00 
  4051dc:	4c 8d 14 d2          	lea    r10,[rdx+rdx*8]
  4051e0:	48 89 6c 24 18       	mov    QWORD PTR [rsp+0x18],rbp
  4051e5:	48 8d 55 ff          	lea    rdx,[rbp-0x1]
  4051e9:	48 89 7c 24 20       	mov    QWORD PTR [rsp+0x20],rdi
  4051ee:	48 29 fa             	sub    rdx,rdi
  4051f1:	48 89 14 24          	mov    QWORD PTR [rsp],rdx
  4051f5:	48 8d 14 db          	lea    rdx,[rbx+rbx*8]
  4051f9:	48 89 54 24 30       	mov    QWORD PTR [rsp+0x30],rdx
  4051fe:	4f 8d 2c db          	lea    r13,[r11+r11*8]
  405202:	49 89 f3             	mov    r11,rsi
  405205:	4c 89 ce             	mov    rsi,r9
  405208:	4c 89 5c 24 08       	mov    QWORD PTR [rsp+0x8],r11
  40520d:	eb 31                	jmp    405240 <fwrite@plt+0x40f0>
  40520f:	c4 41 39 ef c0       	vpxor  xmm8,xmm8,xmm8
  405214:	45 31 db             	xor    r11d,r11d
  405217:	c5 e1 ef db          	vpxor  xmm3,xmm3,xmm3
  40521b:	c4 41 31 ef c9       	vpxor  xmm9,xmm9,xmm9
  405220:	c4 41 29 ef d2       	vpxor  xmm10,xmm10,xmm10
  405225:	48 83 7c 24 18 00    	cmp    QWORD PTR [rsp+0x18],0x0
  40522b:	0f 85 71 02 00 00    	jne    4054a2 <fwrite@plt+0x4352>
  405231:	e9 f2 02 00 00       	jmp    405528 <fwrite@plt+0x43d8>
  405236:	66 2e 0f 1f 84 00 00 	cs nop WORD PTR [rax+rax*1+0x0]
  40523d:	00 00 00 
  405240:	48 8b 54 24 30       	mov    rdx,QWORD PTR [rsp+0x30]
  405245:	48 8d 2c d6          	lea    rbp,[rsi+rdx*8]
  405249:	4c 39 de             	cmp    rsi,r11
  40524c:	4a 8d 14 ee          	lea    rdx,[rsi+r13*8]
  405250:	4a 8d 74 ee b8       	lea    rsi,[rsi+r13*8-0x48]
  405255:	48 0f 42 f2          	cmovb  rsi,rdx
  405259:	49 89 30             	mov    QWORD PTR [r8],rsi
  40525c:	48 39 f5             	cmp    rbp,rsi
  40525f:	72 57                	jb     4052b8 <fwrite@plt+0x4168>
  405261:	66 2e 0f 1f 84 00 00 	cs nop WORD PTR [rax+rax*1+0x0]
  405268:	00 00 00 
  40526b:	0f 1f 44 00 00       	nop    DWORD PTR [rax+rax*1+0x0]
  405270:	4c 39 fe             	cmp    rsi,r15
  405273:	72 08                	jb     40527d <fwrite@plt+0x412d>
  405275:	48 8b 74 24 28       	mov    rsi,QWORD PTR [rsp+0x28]
  40527a:	49 89 30             	mov    QWORD PTR [r8],rsi
  40527d:	4c 39 ce             	cmp    rsi,r9
  405280:	0f 84 21 03 00 00    	je     4055a7 <fwrite@plt+0x4457>
  405286:	4d 85 e4             	test   r12,r12
  405289:	0f 8e c1 00 00 00    	jle    405350 <fwrite@plt+0x4200>
  40528f:	49 83 fc 10          	cmp    r12,0x10
  405293:	0f 83 d7 00 00 00    	jae    405370 <fwrite@plt+0x4220>
  405299:	31 d2                	xor    edx,edx
  40529b:	31 ed                	xor    ebp,ebp
  40529d:	e9 ee 02 00 00       	jmp    405590 <fwrite@plt+0x4440>
  4052a2:	66 2e 0f 1f 84 00 00 	cs nop WORD PTR [rax+rax*1+0x0]
  4052a9:	00 00 00 
  4052ac:	0f 1f 40 00          	nop    DWORD PTR [rax+0x0]
  4052b0:	4c 01 d5             	add    rbp,r10
  4052b3:	48 39 f5             	cmp    rbp,rsi
  4052b6:	73 b8                	jae    405270 <fwrite@plt+0x4120>
  4052b8:	0f b7 7d 20          	movzx  edi,WORD PTR [rbp+0x20]
  4052bc:	66 85 ff             	test   di,di
  4052bf:	7e ef                	jle    4052b0 <fwrite@plt+0x4160>
  4052c1:	48 8b 55 08          	mov    rdx,QWORD PTR [rbp+0x8]
  4052c5:	48 8b 5d 10          	mov    rbx,QWORD PTR [rbp+0x10]
  4052c9:	48 2b 13             	sub    rdx,QWORD PTR [rbx]
  4052cc:	48 8b 5d 18          	mov    rbx,QWORD PTR [rbp+0x18]
  4052d0:	48 03 13             	add    rdx,QWORD PTR [rbx]
  4052d3:	78 1b                	js     4052f0 <fwrite@plt+0x41a0>
  4052d5:	48 85 d2             	test   rdx,rdx
  4052d8:	74 d6                	je     4052b0 <fwrite@plt+0x4160>
  4052da:	0f b7 ff             	movzx  edi,di
  4052dd:	83 ff 02             	cmp    edi,0x2
  4052e0:	74 16                	je     4052f8 <fwrite@plt+0x41a8>
  4052e2:	eb cc                	jmp    4052b0 <fwrite@plt+0x4160>
  4052e4:	66 2e 0f 1f 84 00 00 	cs nop WORD PTR [rax+rax*1+0x0]
  4052eb:	00 00 00 
  4052ee:	66 90                	xchg   ax,ax
  4052f0:	0f b7 ff             	movzx  edi,di
  4052f3:	83 ff 01             	cmp    edi,0x1
  4052f6:	75 b8                	jne    4052b0 <fwrite@plt+0x4160>
  4052f8:	48 89 d6             	mov    rsi,rdx
  4052fb:	48 f7 de             	neg    rsi
  4052fe:	48 0f 4c f2          	cmovl  rsi,rdx
  405302:	48 8b 3c c1          	mov    rdi,QWORD PTR [rcx+rax*8]
  405306:	48 8d 5f 01          	lea    rbx,[rdi+0x1]
  40530a:	48 89 1c c1          	mov    QWORD PTR [rcx+rax*8],rbx
  40530e:	49 8b 5c fe 08       	mov    rbx,QWORD PTR [r14+rdi*8+0x8]
  405313:	48 89 2b             	mov    QWORD PTR [rbx],rbp
  405316:	49 8b 7c fe 08       	mov    rdi,QWORD PTR [r14+rdi*8+0x8]
  40531b:	48 89 57 08          	mov    QWORD PTR [rdi+0x8],rdx
  40531f:	48 8b 14 c1          	mov    rdx,QWORD PTR [rcx+rax*8]
  405323:	49 8b 14 d6          	mov    rdx,QWORD PTR [r14+rdx*8]
  405327:	48 89 72 10          	mov    QWORD PTR [rdx+0x10],rsi
  40532b:	48 8b 14 c1          	mov    rdx,QWORD PTR [rcx+rax*8]
  40532f:	49 8b 14 d6          	mov    rdx,QWORD PTR [r14+rdx*8]
  405333:	48 c7 42 18 00 00 00 	mov    QWORD PTR [rdx+0x18],0x0
  40533a:	00 
  40533b:	49 8b 30             	mov    rsi,QWORD PTR [r8]
  40533e:	e9 6d ff ff ff       	jmp    4052b0 <fwrite@plt+0x4160>
  405343:	66 2e 0f 1f 84 00 00 	cs nop WORD PTR [rax+rax*1+0x0]
  40534a:	00 00 00 
  40534d:	0f 1f 00             	nop    DWORD PTR [rax]
  405350:	31 d2                	xor    edx,edx
  405352:	48 83 fa 3c          	cmp    rdx,0x3c
  405356:	0f 8c e4 fe ff ff    	jl     405240 <fwrite@plt+0x40f0>
  40535c:	e9 46 02 00 00       	jmp    4055a7 <fwrite@plt+0x4457>
  405361:	66 2e 0f 1f 84 00 00 	cs nop WORD PTR [rax+rax*1+0x0]
  405368:	00 00 00 
  40536b:	0f 1f 44 00 00       	nop    DWORD PTR [rax+rax*1+0x0]
  405370:	4c 89 ff             	mov    rdi,r15
  405373:	48 83 7c 24 20 00    	cmp    QWORD PTR [rsp+0x20],0x0
  405379:	0f 84 90 fe ff ff    	je     40520f <fwrite@plt+0x40bf>
  40537f:	c4 41 39 ef c0       	vpxor  xmm8,xmm8,xmm8
  405384:	4c 8b 3c 24          	mov    r15,QWORD PTR [rsp]
  405388:	45 31 db             	xor    r11d,r11d
  40538b:	c5 e1 ef db          	vpxor  xmm3,xmm3,xmm3
  40538f:	c4 41 31 ef c9       	vpxor  xmm9,xmm9,xmm9
  405394:	c4 41 29 ef d2       	vpxor  xmm10,xmm10,xmm10
  405399:	0f 1f 80 00 00 00 00 	nop    DWORD PTR [rax+0x0]
  4053a0:	c4 a1 7e 6f 24 d9    	vmovdqu ymm4,YMMWORD PTR [rcx+r11*8]
  4053a6:	c4 a1 7e 6f 6c d9 20 	vmovdqu ymm5,YMMWORD PTR [rcx+r11*8+0x20]
  4053ad:	c4 a1 7e 6f 74 d9 40 	vmovdqu ymm6,YMMWORD PTR [rcx+r11*8+0x40]
  4053b4:	c4 a1 7e 6f 7c d9 60 	vmovdqu ymm7,YMMWORD PTR [rcx+r11*8+0x60]
  4053bb:	c4 41 59 d4 d8       	vpaddq xmm11,xmm4,xmm8
  4053c0:	c4 e3 7d 19 e4 01    	vextractf128 xmm4,ymm4,0x1
  4053c6:	c4 63 7d 19 c1 01    	vextractf128 xmm1,ymm8,0x1
  4053cc:	c5 d9 d4 c9          	vpaddq xmm1,xmm4,xmm1
  4053d0:	c5 51 d4 eb          	vpaddq xmm13,xmm5,xmm3
  4053d4:	c4 e3 7d 19 ed 01    	vextractf128 xmm5,ymm5,0x1
  4053da:	c4 e3 7d 19 db 01    	vextractf128 xmm3,ymm3,0x1
  4053e0:	c5 d1 d4 db          	vpaddq xmm3,xmm5,xmm3
  4053e4:	c4 c1 49 d4 e9       	vpaddq xmm5,xmm6,xmm9
  4053e9:	c4 e3 7d 19 f6 01    	vextractf128 xmm6,ymm6,0x1
  4053ef:	c4 63 7d 19 ca 01    	vextractf128 xmm2,ymm9,0x1
  4053f5:	c5 c9 d4 d2          	vpaddq xmm2,xmm6,xmm2
  4053f9:	c4 c1 41 d4 f2       	vpaddq xmm6,xmm7,xmm10
  4053fe:	c4 e3 7d 19 ff 01    	vextractf128 xmm7,ymm7,0x1
  405404:	c4 63 7d 19 d0 01    	vextractf128 xmm0,ymm10,0x1
  40540a:	c5 c1 d4 c0          	vpaddq xmm0,xmm7,xmm0
  40540e:	c4 a1 7e 6f bc d9 80 	vmovdqu ymm7,YMMWORD PTR [rcx+r11*8+0x80]
  405415:	00 00 00 
  405418:	c4 21 7e 6f 8c d9 a0 	vmovdqu ymm9,YMMWORD PTR [rcx+r11*8+0xa0]
  40541f:	00 00 00 
  405422:	c4 21 7e 6f 94 d9 c0 	vmovdqu ymm10,YMMWORD PTR [rcx+r11*8+0xc0]
  405429:	00 00 00 
  40542c:	c4 21 7e 6f a4 d9 e0 	vmovdqu ymm12,YMMWORD PTR [rcx+r11*8+0xe0]
  405433:	00 00 00 
  405436:	c4 e3 7d 19 fc 01    	vextractf128 xmm4,ymm7,0x1
  40543c:	c5 d9 d4 c9          	vpaddq xmm1,xmm4,xmm1
  405440:	c4 c1 41 d4 e3       	vpaddq xmm4,xmm7,xmm11
  405445:	c4 63 5d 18 c1 01    	vinsertf128 ymm8,ymm4,xmm1,0x1
  40544b:	c4 63 7d 19 c9 01    	vextractf128 xmm1,ymm9,0x1
  405451:	c5 f1 d4 cb          	vpaddq xmm1,xmm1,xmm3
  405455:	c4 c1 31 d4 dd       	vpaddq xmm3,xmm9,xmm13
  40545a:	c4 e3 65 18 d9 01    	vinsertf128 ymm3,ymm3,xmm1,0x1
  405460:	c4 63 7d 19 d1 01    	vextractf128 xmm1,ymm10,0x1
  405466:	c5 f1 d4 ca          	vpaddq xmm1,xmm1,xmm2
  40546a:	c5 a9 d4 d5          	vpaddq xmm2,xmm10,xmm5
  40546e:	c4 63 6d 18 c9 01    	vinsertf128 ymm9,ymm2,xmm1,0x1
  405474:	c4 63 7d 19 e1 01    	vextractf128 xmm1,ymm12,0x1
  40547a:	c5 f1 d4 c0          	vpaddq xmm0,xmm1,xmm0
  40547e:	c5 99 d4 ce          	vpaddq xmm1,xmm12,xmm6
  405482:	c4 63 75 18 d0 01    	vinsertf128 ymm10,ymm1,xmm0,0x1
  405488:	49 83 c3 20          	add    r11,0x20
  40548c:	49 83 c7 02          	add    r15,0x2
  405490:	0f 85 0a ff ff ff    	jne    4053a0 <fwrite@plt+0x4250>
  405496:	48 83 7c 24 18 00    	cmp    QWORD PTR [rsp+0x18],0x0
  40549c:	0f 84 86 00 00 00    	je     405528 <fwrite@plt+0x43d8>
  4054a2:	c4 a1 7e 6f 24 d9    	vmovdqu ymm4,YMMWORD PTR [rcx+r11*8]
  4054a8:	c4 a1 7e 6f 44 d9 20 	vmovdqu ymm0,YMMWORD PTR [rcx+r11*8+0x20]
  4054af:	c4 a1 7e 6f 4c d9 40 	vmovdqu ymm1,YMMWORD PTR [rcx+r11*8+0x40]
  4054b6:	c4 a1 7e 6f 54 d9 60 	vmovdqu ymm2,YMMWORD PTR [rcx+r11*8+0x60]
  4054bd:	c4 e3 7d 19 d5 01    	vextractf128 xmm5,ymm2,0x1
  4054c3:	c4 63 7d 19 d6 01    	vextractf128 xmm6,ymm10,0x1
  4054c9:	c5 d1 d4 ee          	vpaddq xmm5,xmm5,xmm6
  4054cd:	c4 c1 69 d4 d2       	vpaddq xmm2,xmm2,xmm10
  4054d2:	c4 63 6d 18 d5 01    	vinsertf128 ymm10,ymm2,xmm5,0x1
  4054d8:	c4 e3 7d 19 ca 01    	vextractf128 xmm2,ymm1,0x1
  4054de:	c4 63 7d 19 cd 01    	vextractf128 xmm5,ymm9,0x1
  4054e4:	c5 e9 d4 d5          	vpaddq xmm2,xmm2,xmm5
  4054e8:	c4 c1 71 d4 c9       	vpaddq xmm1,xmm1,xmm9
  4054ed:	c4 63 75 18 ca 01    	vinsertf128 ymm9,ymm1,xmm2,0x1
  4054f3:	c4 e3 7d 19 c1 01    	vextractf128 xmm1,ymm0,0x1
  4054f9:	c4 e3 7d 19 da 01    	vextractf128 xmm2,ymm3,0x1
  4054ff:	c5 f1 d4 ca          	vpaddq xmm1,xmm1,xmm2
  405503:	c5 f9 d4 c3          	vpaddq xmm0,xmm0,xmm3
  405507:	c4 e3 7d 18 d9 01    	vinsertf128 ymm3,ymm0,xmm1,0x1
  40550d:	c4 e3 7d 19 e0 01    	vextractf128 xmm0,ymm4,0x1
  405513:	c4 63 7d 19 c1 01    	vextractf128 xmm1,ymm8,0x1
  405519:	c5 f9 d4 c1          	vpaddq xmm0,xmm0,xmm1
  40551d:	c4 c1 59 d4 c8       	vpaddq xmm1,xmm4,xmm8
  405522:	c4 63 75 18 c0 01    	vinsertf128 ymm8,ymm1,xmm0,0x1
  405528:	c4 63 7d 19 c0 01    	vextractf128 xmm0,ymm8,0x1
  40552e:	c4 e3 7d 19 d9 01    	vextractf128 xmm1,ymm3,0x1
  405534:	c5 f1 d4 c0          	vpaddq xmm0,xmm1,xmm0
  405538:	c4 c1 61 d4 c8       	vpaddq xmm1,xmm3,xmm8
  40553d:	c4 63 7d 19 ca 01    	vextractf128 xmm2,ymm9,0x1
  405543:	c4 63 7d 19 d3 01    	vextractf128 xmm3,ymm10,0x1
  405549:	c5 e9 d4 d3          	vpaddq xmm2,xmm2,xmm3
  40554d:	c5 f9 d4 c2          	vpaddq xmm0,xmm0,xmm2
  405551:	c4 c1 31 d4 d2       	vpaddq xmm2,xmm9,xmm10
  405556:	c5 f1 d4 ca          	vpaddq xmm1,xmm1,xmm2
  40555a:	c5 f1 d4 c0          	vpaddq xmm0,xmm1,xmm0
  40555e:	c5 f9 70 c8 4e       	vpshufd xmm1,xmm0,0x4e
  405563:	c5 f9 d4 c1          	vpaddq xmm0,xmm0,xmm1
  405567:	c4 e1 f9 7e c2       	vmovq  rdx,xmm0
  40556c:	48 8b 5c 24 10       	mov    rbx,QWORD PTR [rsp+0x10]
  405571:	48 89 dd             	mov    rbp,rbx
  405574:	4c 39 e3             	cmp    rbx,r12
  405577:	49 89 ff             	mov    r15,rdi
  40557a:	4c 8b 5c 24 08       	mov    r11,QWORD PTR [rsp+0x8]
  40557f:	74 1c                	je     40559d <fwrite@plt+0x444d>
  405581:	66 2e 0f 1f 84 00 00 	cs nop WORD PTR [rax+rax*1+0x0]
  405588:	00 00 00 
  40558b:	0f 1f 44 00 00       	nop    DWORD PTR [rax+rax*1+0x0]
  405590:	48 03 14 e9          	add    rdx,QWORD PTR [rcx+rbp*8]
  405594:	48 83 c5 01          	add    rbp,0x1
  405598:	49 39 ec             	cmp    r12,rbp
  40559b:	75 f3                	jne    405590 <fwrite@plt+0x4440>
  40559d:	48 83 fa 3c          	cmp    rdx,0x3c
  4055a1:	0f 8c 99 fc ff ff    	jl     405240 <fwrite@plt+0x40f0>
  4055a7:	48 8b 14 c1          	mov    rdx,QWORD PTR [rcx+rax*8]
  4055ab:	49 8b 54 d6 08       	mov    rdx,QWORD PTR [r14+rdx*8+0x8]
  4055b0:	48 c7 42 18 ff ff ff 	mov    QWORD PTR [rdx+0x18],0xffffffffffffffff
  4055b7:	ff 
  4055b8:	48 8b 34 c1          	mov    rsi,QWORD PTR [rcx+rax*8]
  4055bc:	48 85 f6             	test   rsi,rsi
  4055bf:	74 1c                	je     4055dd <fwrite@plt+0x448d>
  4055c1:	49 8d 7e 08          	lea    rdi,[r14+0x8]
  4055c5:	ba 08 00 00 00       	mov    edx,0x8
  4055ca:	b9 b0 50 40 00       	mov    ecx,0x4050b0
  4055cf:	c5 f8 77             	vzeroupper 
  4055d2:	e8 29 00 00 00       	call   405600 <fwrite@plt+0x44b0>
  4055d7:	49 8b 46 08          	mov    rax,QWORD PTR [r14+0x8]
  4055db:	eb 02                	jmp    4055df <fwrite@plt+0x448f>
  4055dd:	31 c0                	xor    eax,eax
  4055df:	48 83 c4 38          	add    rsp,0x38
  4055e3:	5b                   	pop    rbx
  4055e4:	41 5c                	pop    r12
  4055e6:	41 5d                	pop    r13
  4055e8:	41 5e                	pop    r14
  4055ea:	41 5f                	pop    r15
  4055ec:	5d                   	pop    rbp
  4055ed:	c5 f8 77             	vzeroupper 
  4055f0:	c3                   	ret    
  4055f1:	66 2e 0f 1f 84 00 00 	cs nop WORD PTR [rax+rax*1+0x0]
  4055f8:	00 00 00 
  4055fb:	0f 1f 44 00 00       	nop    DWORD PTR [rax+rax*1+0x0]
  405600:	55                   	push   rbp
  405601:	41 57                	push   r15
  405603:	41 56                	push   r14
  405605:	41 55                	push   r13
  405607:	41 54                	push   r12
  405609:	53                   	push   rbx
  40560a:	48 81 ec 98 01 00 00 	sub    rsp,0x198
  405611:	48 89 4c 24 38       	mov    QWORD PTR [rsp+0x38],rcx
  405616:	48 89 d5             	mov    rbp,rdx
  405619:	49 89 f4             	mov    r12,rsi
  40561c:	49 89 fa             	mov    r10,rdi
  40561f:	49 89 d0             	mov    r8,rdx
  405622:	49 f7 d8             	neg    r8
  405625:	48 89 f8             	mov    rax,rdi
  405628:	48 09 d0             	or     rax,rdx
  40562b:	45 31 ff             	xor    r15d,r15d
  40562e:	48 83 fa 08          	cmp    rdx,0x8
  405632:	41 0f 95 c7          	setne  r15b
  405636:	a8 07                	test   al,0x7
  405638:	0f 94 44 24 0f       	sete   BYTE PTR [rsp+0xf]
  40563d:	ba 02 00 00 00       	mov    edx,0x2
  405642:	b9 02 00 00 00       	mov    ecx,0x2
  405647:	41 0f 44 cf          	cmove  ecx,r15d
  40564b:	89 4c 24 4c          	mov    DWORD PTR [rsp+0x4c],ecx
  40564f:	31 c9                	xor    ecx,ecx
  405651:	48 83 fd 04          	cmp    rbp,0x4
  405655:	0f 95 c1             	setne  cl
  405658:	a8 03                	test   al,0x3
  40565a:	0f 94 44 24 0e       	sete   BYTE PTR [rsp+0xe]
  40565f:	0f 44 d1             	cmove  edx,ecx
  405662:	89 54 24 48          	mov    DWORD PTR [rsp+0x48],edx
  405666:	48 83 fe 07          	cmp    rsi,0x7
  40566a:	48 89 6c 24 60       	mov    QWORD PTR [rsp+0x60],rbp
  40566f:	4c 89 44 24 40       	mov    QWORD PTR [rsp+0x40],r8
  405674:	73 08                	jae    40567e <fwrite@plt+0x452e>
  405676:	4c 89 d6             	mov    rsi,r10
  405679:	e9 3e 27 00 00       	jmp    407dbc <fwrite@plt+0x6c6c>
  40567e:	89 c8                	mov    eax,ecx
  405680:	89 8c 24 60 01 00 00 	mov    DWORD PTR [rsp+0x160],ecx
  405687:	48 be fe ff ff ff ff 	movabs rsi,0x3ffffffffffffffe
  40568e:	ff ff 3f 
  405691:	49 bb fe ff ff ff ff 	movabs r11,0x1ffffffffffffffe
  405698:	ff ff 1f 
  40569b:	4c 63 c5             	movsxd r8,ebp
  40569e:	4c 89 c3             	mov    rbx,r8
  4056a1:	48 c1 eb 03          	shr    rbx,0x3
  4056a5:	4d 89 c5             	mov    r13,r8
  4056a8:	49 c1 ed 02          	shr    r13,0x2
  4056ac:	49 8d 53 01          	lea    rdx,[r11+0x1]
  4056b0:	45 31 c9             	xor    r9d,r9d
  4056b3:	48 85 db             	test   rbx,rbx
  4056b6:	41 0f 94 c1          	sete   r9b
  4056ba:	48 89 94 24 40 01 00 	mov    QWORD PTR [rsp+0x140],rdx
  4056c1:	00 
  4056c2:	4c 0f 44 da          	cmove  r11,rdx
  4056c6:	49 83 c9 fe          	or     r9,0xfffffffffffffffe
  4056ca:	49 8d 04 19          	lea    rax,[r9+rbx*1]
  4056ce:	48 83 c0 02          	add    rax,0x2
  4056d2:	48 89 44 24 58       	mov    QWORD PTR [rsp+0x58],rax
  4056d7:	49 01 db             	add    r11,rbx
  4056da:	89 c2                	mov    edx,eax
  4056dc:	83 e2 07             	and    edx,0x7
  4056df:	48 29 d0             	sub    rax,rdx
  4056e2:	48 89 84 24 00 01 00 	mov    QWORD PTR [rsp+0x100],rax
  4056e9:	00 
  4056ea:	48 8d 46 01          	lea    rax,[rsi+0x1]
  4056ee:	31 d2                	xor    edx,edx
  4056f0:	4d 85 ed             	test   r13,r13
  4056f3:	0f 94 c2             	sete   dl
  4056f6:	48 89 84 24 38 01 00 	mov    QWORD PTR [rsp+0x138],rax
  4056fd:	00 
  4056fe:	48 0f 44 f0          	cmove  rsi,rax
  405702:	48 83 ca fe          	or     rdx,0xfffffffffffffffe
  405706:	4e 8d 34 2a          	lea    r14,[rdx+r13*1]
  40570a:	49 83 c6 02          	add    r14,0x2
  40570e:	44 89 f7             	mov    edi,r14d
  405711:	83 e7 0f             	and    edi,0xf
  405714:	4c 89 f0             	mov    rax,r14
  405717:	48 29 f8             	sub    rax,rdi
  40571a:	48 89 84 24 d0 00 00 	mov    QWORD PTR [rsp+0xd0],rax
  405721:	00 
  405722:	4c 01 ee             	add    rsi,r13
  405725:	4c 89 c0             	mov    rax,r8
  405728:	48 f7 d0             	not    rax
  40572b:	48 83 f8 fd          	cmp    rax,0xfffffffffffffffd
  40572f:	48 c7 c7 fe ff ff ff 	mov    rdi,0xfffffffffffffffe
  405736:	48 0f 4e c7          	cmovle rax,rdi
  40573a:	8d 3c 28             	lea    edi,[rax+rbp*1]
  40573d:	83 c7 02             	add    edi,0x2
  405740:	83 e7 3f             	and    edi,0x3f
  405743:	44 89 bc 24 68 01 00 	mov    DWORD PTR [rsp+0x168],r15d
  40574a:	00 
  40574b:	4e 8d 3c 00          	lea    r15,[rax+r8*1]
  40574f:	49 83 c7 02          	add    r15,0x2
  405753:	4c 89 7c 24 30       	mov    QWORD PTR [rsp+0x30],r15
  405758:	49 29 ff             	sub    r15,rdi
  40575b:	4c 89 bc 24 c8 00 00 	mov    QWORD PTR [rsp+0xc8],r15
  405762:	00 
  405763:	4a 8d 0c dd 10 00 00 	lea    rcx,[r11*8+0x10]
  40576a:	00 
  40576b:	48 89 8c 24 50 01 00 	mov    QWORD PTR [rsp+0x150],rcx
  405772:	00 
  405773:	48 8d 0c b5 08 00 00 	lea    rcx,[rsi*4+0x8]
  40577a:	00 
  40577b:	48 89 8c 24 78 01 00 	mov    QWORD PTR [rsp+0x178],rcx
  405782:	00 
  405783:	49 8d 0c 19          	lea    rcx,[r9+rbx*1]
  405787:	48 8d 0c cd 10 00 00 	lea    rcx,[rcx*8+0x10]
  40578e:	00 
  40578f:	48 89 8c 24 98 00 00 	mov    QWORD PTR [rsp+0x98],rcx
  405796:	00 
  405797:	48 89 84 24 80 01 00 	mov    QWORD PTR [rsp+0x180],rax
  40579e:	00 
  40579f:	4a 8d 34 00          	lea    rsi,[rax+r8*1]
  4057a3:	48 83 c6 c2          	add    rsi,0xffffffffffffffc2
  4057a7:	48 c1 ee 06          	shr    rsi,0x6
  4057ab:	4a 8d 0c 2a          	lea    rcx,[rdx+r13*1]
  4057af:	4a 8d 3c 2a          	lea    rdi,[rdx+r13*1]
  4057b3:	48 83 c7 f2          	add    rdi,0xfffffffffffffff2
  4057b7:	48 c1 ef 04          	shr    rdi,0x4
  4057bb:	49 01 d9             	add    r9,rbx
  4057be:	49 83 c1 fa          	add    r9,0xfffffffffffffffa
  4057c2:	49 c1 e9 03          	shr    r9,0x3
  4057c6:	4c 8b 5c 24 58       	mov    r11,QWORD PTR [rsp+0x58]
  4057cb:	49 83 e3 f8          	and    r11,0xfffffffffffffff8
  4057cf:	48 89 5c 24 50       	mov    QWORD PTR [rsp+0x50],rbx
  4057d4:	4c 89 9c 24 a0 00 00 	mov    QWORD PTR [rsp+0xa0],r11
  4057db:	00 
  4057dc:	4c 29 db             	sub    rbx,r11
  4057df:	48 89 9c 24 e8 00 00 	mov    QWORD PTR [rsp+0xe8],rbx
  4057e6:	00 
  4057e7:	4c 89 74 24 78       	mov    QWORD PTR [rsp+0x78],r14
  4057ec:	49 83 e6 f0          	and    r14,0xfffffffffffffff0
  4057f0:	4c 89 6c 24 68       	mov    QWORD PTR [rsp+0x68],r13
  4057f5:	4c 89 b4 24 10 01 00 	mov    QWORD PTR [rsp+0x110],r14
  4057fc:	00 
  4057fd:	4d 29 f5             	sub    r13,r14
  405800:	4c 89 ac 24 c0 00 00 	mov    QWORD PTR [rsp+0xc0],r13
  405807:	00 
  405808:	48 8b 44 24 30       	mov    rax,QWORD PTR [rsp+0x30]
  40580d:	49 89 c7             	mov    r15,rax
  405810:	49 83 e7 c0          	and    r15,0xffffffffffffffc0
  405814:	4c 89 44 24 70       	mov    QWORD PTR [rsp+0x70],r8
  405819:	4c 89 bc 24 08 01 00 	mov    QWORD PTR [rsp+0x108],r15
  405820:	00 
  405821:	4d 29 f8             	sub    r8,r15
  405824:	4c 89 84 24 b8 00 00 	mov    QWORD PTR [rsp+0xb8],r8
  40582b:	00 
  40582c:	49 8d 59 01          	lea    rbx,[r9+0x1]
  405830:	48 89 d8             	mov    rax,rbx
  405833:	48 89 9c 24 30 01 00 	mov    QWORD PTR [rsp+0x130],rbx
  40583a:	00 
  40583b:	83 e3 01             	and    ebx,0x1
  40583e:	48 8d 57 01          	lea    rdx,[rdi+0x1]
  405842:	48 89 d0             	mov    rax,rdx
  405845:	48 89 94 24 28 01 00 	mov    QWORD PTR [rsp+0x128],rdx
  40584c:	00 
  40584d:	83 e2 01             	and    edx,0x1
  405850:	4c 8d 46 01          	lea    r8,[rsi+0x1]
  405854:	4c 89 c0             	mov    rax,r8
  405857:	4c 89 84 24 20 01 00 	mov    QWORD PTR [rsp+0x120],r8
  40585e:	00 
  40585f:	41 83 e0 01          	and    r8d,0x1
  405863:	4c 89 84 24 88 01 00 	mov    QWORD PTR [rsp+0x188],r8
  40586a:	00 
  40586b:	49 8d 40 ff          	lea    rax,[r8-0x1]
  40586f:	48 89 b4 24 f8 00 00 	mov    QWORD PTR [rsp+0xf8],rsi
  405876:	00 
  405877:	48 29 f0             	sub    rax,rsi
  40587a:	48 89 84 24 e0 00 00 	mov    QWORD PTR [rsp+0xe0],rax
  405881:	00 
  405882:	48 89 94 24 90 01 00 	mov    QWORD PTR [rsp+0x190],rdx
  405889:	00 
  40588a:	48 8d 42 ff          	lea    rax,[rdx-0x1]
  40588e:	48 89 bc 24 f0 00 00 	mov    QWORD PTR [rsp+0xf0],rdi
  405895:	00 
  405896:	48 29 f8             	sub    rax,rdi
  405899:	48 89 84 24 d8 00 00 	mov    QWORD PTR [rsp+0xd8],rax
  4058a0:	00 
  4058a1:	48 89 9c 24 48 01 00 	mov    QWORD PTR [rsp+0x148],rbx
  4058a8:	00 
  4058a9:	48 8d 43 ff          	lea    rax,[rbx-0x1]
  4058ad:	4c 89 8c 24 a8 00 00 	mov    QWORD PTR [rsp+0xa8],r9
  4058b4:	00 
  4058b5:	4c 29 c8             	sub    rax,r9
  4058b8:	48 89 84 24 18 01 00 	mov    QWORD PTR [rsp+0x118],rax
  4058bf:	00 
  4058c0:	48 89 8c 24 58 01 00 	mov    QWORD PTR [rsp+0x158],rcx
  4058c7:	00 
  4058c8:	48 8d 04 8d 08 00 00 	lea    rax,[rcx*4+0x8]
  4058cf:	00 
  4058d0:	48 89 84 24 90 00 00 	mov    QWORD PTR [rsp+0x90],rax
  4058d7:	00 
  4058d8:	0f 1f 84 00 00 00 00 	nop    DWORD PTR [rax+rax*1+0x0]
  4058df:	00 
  4058e0:	4d 89 e5             	mov    r13,r12
  4058e3:	49 d1 ed             	shr    r13,1
  4058e6:	4c 0f af ed          	imul   r13,rbp
  4058ea:	4d 01 d5             	add    r13,r10
  4058ed:	49 83 fc 07          	cmp    r12,0x7
  4058f1:	4c 89 54 24 18       	mov    QWORD PTR [rsp+0x18],r10
  4058f6:	4c 89 a4 24 b0 00 00 	mov    QWORD PTR [rsp+0xb0],r12
  4058fd:	00 
  4058fe:	0f 84 1c 02 00 00    	je     405b20 <fwrite@plt+0x49d0>
  405904:	4d 8d 7c 24 ff       	lea    r15,[r12-0x1]
  405909:	4c 0f af fd          	imul   r15,rbp
  40590d:	4d 01 d7             	add    r15,r10
  405910:	49 83 fc 29          	cmp    r12,0x29
  405914:	72 6a                	jb     405980 <fwrite@plt+0x4830>
  405916:	48 89 e8             	mov    rax,rbp
  405919:	4c 89 e5             	mov    rbp,r12
  40591c:	48 c1 ed 03          	shr    rbp,0x3
  405920:	48 0f af e8          	imul   rbp,rax
  405924:	4d 8d 34 2a          	lea    r14,[r10+rbp*1]
  405928:	49 8d 04 6a          	lea    rax,[r10+rbp*2]
  40592c:	48 89 84 24 80 00 00 	mov    QWORD PTR [rsp+0x80],rax
  405933:	00 
  405934:	4c 89 d7             	mov    rdi,r10
  405937:	4c 89 f6             	mov    rsi,r14
  40593a:	48 8b 5c 24 38       	mov    rbx,QWORD PTR [rsp+0x38]
  40593f:	c5 f8 77             	vzeroupper 
  405942:	ff d3                	call   rbx
  405944:	41 89 c4             	mov    r12d,eax
  405947:	4c 89 74 24 10       	mov    QWORD PTR [rsp+0x10],r14
  40594c:	4c 89 f7             	mov    rdi,r14
  40594f:	4c 8b b4 24 80 00 00 	mov    r14,QWORD PTR [rsp+0x80]
  405956:	00 
  405957:	4c 89 f6             	mov    rsi,r14
  40595a:	ff d3                	call   rbx
  40595c:	45 85 e4             	test   r12d,r12d
  40595f:	78 27                	js     405988 <fwrite@plt+0x4838>
  405961:	85 c0                	test   eax,eax
  405963:	7f 41                	jg     4059a6 <fwrite@plt+0x4856>
  405965:	48 8b 5c 24 18       	mov    rbx,QWORD PTR [rsp+0x18]
  40596a:	48 89 df             	mov    rdi,rbx
  40596d:	4c 89 f6             	mov    rsi,r14
  405970:	ff 54 24 38          	call   QWORD PTR [rsp+0x38]
  405974:	85 c0                	test   eax,eax
  405976:	4c 0f 48 f3          	cmovs  r14,rbx
  40597a:	eb 25                	jmp    4059a1 <fwrite@plt+0x4851>
  40597c:	0f 1f 40 00          	nop    DWORD PTR [rax+0x0]
  405980:	4d 89 d6             	mov    r14,r10
  405983:	e9 09 01 00 00       	jmp    405a91 <fwrite@plt+0x4941>
  405988:	85 c0                	test   eax,eax
  40598a:	78 1a                	js     4059a6 <fwrite@plt+0x4856>
  40598c:	48 8b 5c 24 18       	mov    rbx,QWORD PTR [rsp+0x18]
  405991:	48 89 df             	mov    rdi,rbx
  405994:	4c 89 f6             	mov    rsi,r14
  405997:	ff 54 24 38          	call   QWORD PTR [rsp+0x38]
  40599b:	85 c0                	test   eax,eax
  40599d:	4c 0f 49 f3          	cmovns r14,rbx
  4059a1:	4c 89 74 24 10       	mov    QWORD PTR [rsp+0x10],r14
  4059a6:	49 89 ec             	mov    r12,rbp
  4059a9:	49 f7 dc             	neg    r12
  4059ac:	4d 89 ee             	mov    r14,r13
  4059af:	49 29 ee             	sub    r14,rbp
  4059b2:	4c 89 eb             	mov    rbx,r13
  4059b5:	48 01 eb             	add    rbx,rbp
  4059b8:	48 8d 44 2d 00       	lea    rax,[rbp+rbp*1+0x0]
  4059bd:	48 89 84 24 80 00 00 	mov    QWORD PTR [rsp+0x80],rax
  4059c4:	00 
  4059c5:	4c 89 f7             	mov    rdi,r14
  4059c8:	4c 89 ee             	mov    rsi,r13
  4059cb:	48 8b 6c 24 38       	mov    rbp,QWORD PTR [rsp+0x38]
  4059d0:	ff d5                	call   rbp
  4059d2:	89 44 24 20          	mov    DWORD PTR [rsp+0x20],eax
  4059d6:	4c 89 ef             	mov    rdi,r13
  4059d9:	48 89 9c 24 88 00 00 	mov    QWORD PTR [rsp+0x88],rbx
  4059e0:	00 
  4059e1:	48 89 de             	mov    rsi,rbx
  4059e4:	ff d5                	call   rbp
  4059e6:	83 7c 24 20 00       	cmp    DWORD PTR [rsp+0x20],0x0
  4059eb:	78 1e                	js     405a0b <fwrite@plt+0x48bb>
  4059ed:	85 c0                	test   eax,eax
  4059ef:	7f 39                	jg     405a2a <fwrite@plt+0x48da>
  4059f1:	4c 89 f7             	mov    rdi,r14
  4059f4:	4c 8b ac 24 88 00 00 	mov    r13,QWORD PTR [rsp+0x88]
  4059fb:	00 
  4059fc:	4c 89 ee             	mov    rsi,r13
  4059ff:	ff 54 24 38          	call   QWORD PTR [rsp+0x38]
  405a03:	85 c0                	test   eax,eax
  405a05:	4d 0f 48 ee          	cmovs  r13,r14
  405a09:	eb 1f                	jmp    405a2a <fwrite@plt+0x48da>
  405a0b:	85 c0                	test   eax,eax
  405a0d:	78 1b                	js     405a2a <fwrite@plt+0x48da>
  405a0f:	4c 89 f7             	mov    rdi,r14
  405a12:	48 8b 9c 24 88 00 00 	mov    rbx,QWORD PTR [rsp+0x88]
  405a19:	00 
  405a1a:	48 89 de             	mov    rsi,rbx
  405a1d:	ff 54 24 38          	call   QWORD PTR [rsp+0x38]
  405a21:	85 c0                	test   eax,eax
  405a23:	4c 0f 48 f3          	cmovs  r14,rbx
  405a27:	4d 89 f5             	mov    r13,r14
  405a2a:	4c 89 fd             	mov    rbp,r15
  405a2d:	48 2b ac 24 80 00 00 	sub    rbp,QWORD PTR [rsp+0x80]
  405a34:	00 
  405a35:	4d 01 fc             	add    r12,r15
  405a38:	48 89 ef             	mov    rdi,rbp
  405a3b:	4c 89 e6             	mov    rsi,r12
  405a3e:	48 8b 5c 24 38       	mov    rbx,QWORD PTR [rsp+0x38]
  405a43:	ff d3                	call   rbx
  405a45:	41 89 c6             	mov    r14d,eax
  405a48:	4c 89 e7             	mov    rdi,r12
  405a4b:	4c 89 fe             	mov    rsi,r15
  405a4e:	ff d3                	call   rbx
  405a50:	45 85 f6             	test   r14d,r14d
  405a53:	78 16                	js     405a6b <fwrite@plt+0x491b>
  405a55:	85 c0                	test   eax,eax
  405a57:	7f 28                	jg     405a81 <fwrite@plt+0x4931>
  405a59:	48 89 ef             	mov    rdi,rbp
  405a5c:	4c 89 fe             	mov    rsi,r15
  405a5f:	ff 54 24 38          	call   QWORD PTR [rsp+0x38]
  405a63:	85 c0                	test   eax,eax
  405a65:	4c 0f 48 fd          	cmovs  r15,rbp
  405a69:	eb 19                	jmp    405a84 <fwrite@plt+0x4934>
  405a6b:	85 c0                	test   eax,eax
  405a6d:	78 12                	js     405a81 <fwrite@plt+0x4931>
  405a6f:	48 89 ef             	mov    rdi,rbp
  405a72:	4c 89 fe             	mov    rsi,r15
  405a75:	ff 54 24 38          	call   QWORD PTR [rsp+0x38]
  405a79:	85 c0                	test   eax,eax
  405a7b:	4c 0f 49 fd          	cmovns r15,rbp
  405a7f:	eb 03                	jmp    405a84 <fwrite@plt+0x4934>
  405a81:	4d 89 e7             	mov    r15,r12
  405a84:	4c 8b a4 24 b0 00 00 	mov    r12,QWORD PTR [rsp+0xb0]
  405a8b:	00 
  405a8c:	4c 8b 74 24 10       	mov    r14,QWORD PTR [rsp+0x10]
  405a91:	4c 89 f7             	mov    rdi,r14
  405a94:	4c 89 ee             	mov    rsi,r13
  405a97:	48 8b 5c 24 38       	mov    rbx,QWORD PTR [rsp+0x38]
  405a9c:	c5 f8 77             	vzeroupper 
  405a9f:	ff d3                	call   rbx
  405aa1:	89 c5                	mov    ebp,eax
  405aa3:	4c 89 ef             	mov    rdi,r13
  405aa6:	4c 89 fe             	mov    rsi,r15
  405aa9:	ff d3                	call   rbx
  405aab:	85 ed                	test   ebp,ebp
  405aad:	78 44                	js     405af3 <fwrite@plt+0x49a3>
  405aaf:	85 c0                	test   eax,eax
  405ab1:	48 8b 6c 24 60       	mov    rbp,QWORD PTR [rsp+0x60]
  405ab6:	4c 8b 54 24 18       	mov    r10,QWORD PTR [rsp+0x18]
  405abb:	7f 63                	jg     405b20 <fwrite@plt+0x49d0>
  405abd:	4c 89 f7             	mov    rdi,r14
  405ac0:	4c 89 fe             	mov    rsi,r15
  405ac3:	ff 54 24 38          	call   QWORD PTR [rsp+0x38]
  405ac7:	4c 8b 54 24 18       	mov    r10,QWORD PTR [rsp+0x18]
  405acc:	85 c0                	test   eax,eax
  405ace:	4d 0f 48 fe          	cmovs  r15,r14
  405ad2:	4d 89 fd             	mov    r13,r15
  405ad5:	83 7c 24 4c 00       	cmp    DWORD PTR [rsp+0x4c],0x0
  405ada:	75 4b                	jne    405b27 <fwrite@plt+0x49d7>
  405adc:	0f 1f 40 00          	nop    DWORD PTR [rax+0x0]
  405ae0:	49 8b 02             	mov    rax,QWORD PTR [r10]
  405ae3:	49 8b 4d 00          	mov    rcx,QWORD PTR [r13+0x0]
  405ae7:	49 89 0a             	mov    QWORD PTR [r10],rcx
  405aea:	49 89 45 00          	mov    QWORD PTR [r13+0x0],rax
  405aee:	e9 9d 04 00 00       	jmp    405f90 <fwrite@plt+0x4e40>
  405af3:	85 c0                	test   eax,eax
  405af5:	48 8b 6c 24 60       	mov    rbp,QWORD PTR [rsp+0x60]
  405afa:	4c 8b 54 24 18       	mov    r10,QWORD PTR [rsp+0x18]
  405aff:	78 1f                	js     405b20 <fwrite@plt+0x49d0>
  405b01:	4c 89 f7             	mov    rdi,r14
  405b04:	4c 89 fe             	mov    rsi,r15
  405b07:	ff 54 24 38          	call   QWORD PTR [rsp+0x38]
  405b0b:	4c 8b 54 24 18       	mov    r10,QWORD PTR [rsp+0x18]
  405b10:	85 c0                	test   eax,eax
  405b12:	4d 0f 48 f7          	cmovs  r14,r15
  405b16:	4d 89 f5             	mov    r13,r14
  405b19:	0f 1f 80 00 00 00 00 	nop    DWORD PTR [rax+0x0]
  405b20:	83 7c 24 4c 00       	cmp    DWORD PTR [rsp+0x4c],0x0
  405b25:	74 b9                	je     405ae0 <fwrite@plt+0x4990>
  405b27:	83 7c 24 48 00       	cmp    DWORD PTR [rsp+0x48],0x0
  405b2c:	74 72                	je     405ba0 <fwrite@plt+0x4a50>
  405b2e:	f6 44 24 0f 01       	test   BYTE PTR [rsp+0xf],0x1
  405b33:	74 7e                	je     405bb3 <fwrite@plt+0x4a63>
  405b35:	48 83 7c 24 58 08    	cmp    QWORD PTR [rsp+0x58],0x8
  405b3b:	72 22                	jb     405b5f <fwrite@plt+0x4a0f>
  405b3d:	48 8b 8c 24 98 00 00 	mov    rcx,QWORD PTR [rsp+0x98]
  405b44:	00 
  405b45:	4a 8d 04 29          	lea    rax,[rcx+r13*1]
  405b49:	49 39 c2             	cmp    r10,rax
  405b4c:	0f 83 33 01 00 00    	jae    405c85 <fwrite@plt+0x4b35>
  405b52:	49 8d 04 0a          	lea    rax,[r10+rcx*1]
  405b56:	49 39 c5             	cmp    r13,rax
  405b59:	0f 83 26 01 00 00    	jae    405c85 <fwrite@plt+0x4b35>
  405b5f:	4c 89 d0             	mov    rax,r10
  405b62:	48 8b 4c 24 50       	mov    rcx,QWORD PTR [rsp+0x50]
  405b67:	48 83 c1 01          	add    rcx,0x1
  405b6b:	31 d2                	xor    edx,edx
  405b6d:	0f 1f 00             	nop    DWORD PTR [rax]
  405b70:	48 8b 34 10          	mov    rsi,QWORD PTR [rax+rdx*1]
  405b74:	49 8b 7c 15 00       	mov    rdi,QWORD PTR [r13+rdx*1+0x0]
  405b79:	48 89 3c 10          	mov    QWORD PTR [rax+rdx*1],rdi
  405b7d:	49 89 74 15 00       	mov    QWORD PTR [r13+rdx*1+0x0],rsi
  405b82:	48 83 c2 08          	add    rdx,0x8
  405b86:	48 83 c1 ff          	add    rcx,0xffffffffffffffff
  405b8a:	48 83 f9 01          	cmp    rcx,0x1
  405b8e:	7f e0                	jg     405b70 <fwrite@plt+0x4a20>
  405b90:	e9 fb 03 00 00       	jmp    405f90 <fwrite@plt+0x4e40>
  405b95:	66 2e 0f 1f 84 00 00 	cs nop WORD PTR [rax+rax*1+0x0]
  405b9c:	00 00 00 
  405b9f:	90                   	nop
  405ba0:	41 8b 02             	mov    eax,DWORD PTR [r10]
  405ba3:	41 8b 4d 00          	mov    ecx,DWORD PTR [r13+0x0]
  405ba7:	41 89 0a             	mov    DWORD PTR [r10],ecx
  405baa:	41 89 45 00          	mov    DWORD PTR [r13+0x0],eax
  405bae:	e9 dd 03 00 00       	jmp    405f90 <fwrite@plt+0x4e40>
  405bb3:	f6 44 24 0e 01       	test   BYTE PTR [rsp+0xe],0x1
  405bb8:	74 69                	je     405c23 <fwrite@plt+0x4ad3>
  405bba:	48 83 7c 24 78 10    	cmp    QWORD PTR [rsp+0x78],0x10
  405bc0:	72 22                	jb     405be4 <fwrite@plt+0x4a94>
  405bc2:	48 8b 8c 24 90 00 00 	mov    rcx,QWORD PTR [rsp+0x90]
  405bc9:	00 
  405bca:	4a 8d 04 29          	lea    rax,[rcx+r13*1]
  405bce:	49 39 c2             	cmp    r10,rax
  405bd1:	0f 83 b3 01 00 00    	jae    405d8a <fwrite@plt+0x4c3a>
  405bd7:	49 8d 04 0a          	lea    rax,[r10+rcx*1]
  405bdb:	49 39 c5             	cmp    r13,rax
  405bde:	0f 83 a6 01 00 00    	jae    405d8a <fwrite@plt+0x4c3a>
  405be4:	48 8b 44 24 68       	mov    rax,QWORD PTR [rsp+0x68]
  405be9:	4c 89 d1             	mov    rcx,r10
  405bec:	48 83 c0 01          	add    rax,0x1
  405bf0:	31 d2                	xor    edx,edx
  405bf2:	66 2e 0f 1f 84 00 00 	cs nop WORD PTR [rax+rax*1+0x0]
  405bf9:	00 00 00 
  405bfc:	0f 1f 40 00          	nop    DWORD PTR [rax+0x0]
  405c00:	8b 34 11             	mov    esi,DWORD PTR [rcx+rdx*1]
  405c03:	41 8b 7c 15 00       	mov    edi,DWORD PTR [r13+rdx*1+0x0]
  405c08:	89 3c 11             	mov    DWORD PTR [rcx+rdx*1],edi
  405c0b:	41 89 74 15 00       	mov    DWORD PTR [r13+rdx*1+0x0],esi
  405c10:	48 83 c0 ff          	add    rax,0xffffffffffffffff
  405c14:	48 83 c2 04          	add    rdx,0x4
  405c18:	48 83 f8 01          	cmp    rax,0x1
  405c1c:	7f e2                	jg     405c00 <fwrite@plt+0x4ab0>
  405c1e:	e9 6d 03 00 00       	jmp    405f90 <fwrite@plt+0x4e40>
  405c23:	48 8b 4c 24 30       	mov    rcx,QWORD PTR [rsp+0x30]
  405c28:	48 83 f9 3f          	cmp    rcx,0x3f
  405c2c:	76 1a                	jbe    405c48 <fwrite@plt+0x4af8>
  405c2e:	4a 8d 04 29          	lea    rax,[rcx+r13*1]
  405c32:	49 39 c2             	cmp    r10,rax
  405c35:	0f 83 5f 02 00 00    	jae    405e9a <fwrite@plt+0x4d4a>
  405c3b:	49 8d 04 0a          	lea    rax,[r10+rcx*1]
  405c3f:	49 39 c5             	cmp    r13,rax
  405c42:	0f 83 52 02 00 00    	jae    405e9a <fwrite@plt+0x4d4a>
  405c48:	48 8b 4c 24 70       	mov    rcx,QWORD PTR [rsp+0x70]
  405c4d:	4c 89 d6             	mov    rsi,r10
  405c50:	48 83 c1 01          	add    rcx,0x1
  405c54:	31 d2                	xor    edx,edx
  405c56:	66 2e 0f 1f 84 00 00 	cs nop WORD PTR [rax+rax*1+0x0]
  405c5d:	00 00 00 
  405c60:	0f b6 1c 16          	movzx  ebx,BYTE PTR [rsi+rdx*1]
  405c64:	41 0f b6 44 15 00    	movzx  eax,BYTE PTR [r13+rdx*1+0x0]
  405c6a:	88 04 16             	mov    BYTE PTR [rsi+rdx*1],al
  405c6d:	41 88 5c 15 00       	mov    BYTE PTR [r13+rdx*1+0x0],bl
  405c72:	48 83 c1 ff          	add    rcx,0xffffffffffffffff
  405c76:	48 83 c2 01          	add    rdx,0x1
  405c7a:	48 83 f9 01          	cmp    rcx,0x1
  405c7e:	7f e0                	jg     405c60 <fwrite@plt+0x4b10>
  405c80:	e9 0b 03 00 00       	jmp    405f90 <fwrite@plt+0x4e40>
  405c85:	48 83 bc 24 a8 00 00 	cmp    QWORD PTR [rsp+0xa8],0x0
  405c8c:	00 00 
  405c8e:	0f 84 8a 20 00 00    	je     407d1e <fwrite@plt+0x6bce>
  405c94:	48 8b 8c 24 18 01 00 	mov    rcx,QWORD PTR [rsp+0x118]
  405c9b:	00 
  405c9c:	31 c0                	xor    eax,eax
  405c9e:	66 90                	xchg   ax,ax
  405ca0:	c4 c1 7c 10 04 c2    	vmovups ymm0,YMMWORD PTR [r10+rax*8]
  405ca6:	c4 c1 7c 10 4c c2 20 	vmovups ymm1,YMMWORD PTR [r10+rax*8+0x20]
  405cad:	c4 c1 7c 10 54 c5 00 	vmovups ymm2,YMMWORD PTR [r13+rax*8+0x0]
  405cb4:	c4 c1 7c 10 5c c5 20 	vmovups ymm3,YMMWORD PTR [r13+rax*8+0x20]
  405cbb:	c4 c1 7c 11 14 c2    	vmovups YMMWORD PTR [r10+rax*8],ymm2
  405cc1:	c4 c1 7c 11 5c c2 20 	vmovups YMMWORD PTR [r10+rax*8+0x20],ymm3
  405cc8:	c4 c1 7c 11 44 c5 00 	vmovups YMMWORD PTR [r13+rax*8+0x0],ymm0
  405ccf:	c4 c1 7c 11 4c c5 20 	vmovups YMMWORD PTR [r13+rax*8+0x20],ymm1
  405cd6:	c4 c1 7e 6f 44 c2 40 	vmovdqu ymm0,YMMWORD PTR [r10+rax*8+0x40]
  405cdd:	c4 c1 7e 6f 4c c2 60 	vmovdqu ymm1,YMMWORD PTR [r10+rax*8+0x60]
  405ce4:	c4 c1 7e 6f 54 c5 40 	vmovdqu ymm2,YMMWORD PTR [r13+rax*8+0x40]
  405ceb:	c4 c1 7e 6f 5c c5 60 	vmovdqu ymm3,YMMWORD PTR [r13+rax*8+0x60]
  405cf2:	c4 c1 7e 7f 54 c2 40 	vmovdqu YMMWORD PTR [r10+rax*8+0x40],ymm2
  405cf9:	c4 c1 7e 7f 5c c2 60 	vmovdqu YMMWORD PTR [r10+rax*8+0x60],ymm3
  405d00:	c4 c1 7e 7f 44 c5 40 	vmovdqu YMMWORD PTR [r13+rax*8+0x40],ymm0
  405d07:	c4 c1 7e 7f 4c c5 60 	vmovdqu YMMWORD PTR [r13+rax*8+0x60],ymm1
  405d0e:	48 83 c0 10          	add    rax,0x10
  405d12:	48 83 c1 02          	add    rcx,0x2
  405d16:	75 88                	jne    405ca0 <fwrite@plt+0x4b50>
  405d18:	48 83 bc 24 48 01 00 	cmp    QWORD PTR [rsp+0x148],0x0
  405d1f:	00 00 
  405d21:	74 36                	je     405d59 <fwrite@plt+0x4c09>
  405d23:	c4 c1 7e 6f 04 c2    	vmovdqu ymm0,YMMWORD PTR [r10+rax*8]
  405d29:	c4 c1 7e 6f 4c c2 20 	vmovdqu ymm1,YMMWORD PTR [r10+rax*8+0x20]
  405d30:	c4 c1 7e 6f 54 c5 00 	vmovdqu ymm2,YMMWORD PTR [r13+rax*8+0x0]
  405d37:	c4 c1 7e 6f 5c c5 20 	vmovdqu ymm3,YMMWORD PTR [r13+rax*8+0x20]
  405d3e:	c4 c1 7e 7f 14 c2    	vmovdqu YMMWORD PTR [r10+rax*8],ymm2
  405d44:	c4 c1 7e 7f 5c c2 20 	vmovdqu YMMWORD PTR [r10+rax*8+0x20],ymm3
  405d4b:	c4 c1 7e 7f 44 c5 00 	vmovdqu YMMWORD PTR [r13+rax*8+0x0],ymm0
  405d52:	c4 c1 7e 7f 4c c5 20 	vmovdqu YMMWORD PTR [r13+rax*8+0x20],ymm1
  405d59:	48 8b 84 24 a0 00 00 	mov    rax,QWORD PTR [rsp+0xa0]
  405d60:	00 
  405d61:	48 39 44 24 58       	cmp    QWORD PTR [rsp+0x58],rax
  405d66:	0f 84 24 02 00 00    	je     405f90 <fwrite@plt+0x4e40>
  405d6c:	48 8b 84 24 00 01 00 	mov    rax,QWORD PTR [rsp+0x100]
  405d73:	00 
  405d74:	4d 8d 6c c5 00       	lea    r13,[r13+rax*8+0x0]
  405d79:	49 8d 04 c2          	lea    rax,[r10+rax*8]
  405d7d:	48 8b 8c 24 e8 00 00 	mov    rcx,QWORD PTR [rsp+0xe8]
  405d84:	00 
  405d85:	e9 dd fd ff ff       	jmp    405b67 <fwrite@plt+0x4a17>
  405d8a:	48 83 bc 24 f0 00 00 	cmp    QWORD PTR [rsp+0xf0],0x0
  405d91:	00 00 
  405d93:	0f 84 f7 1f 00 00    	je     407d90 <fwrite@plt+0x6c40>
  405d99:	48 8b 8c 24 d8 00 00 	mov    rcx,QWORD PTR [rsp+0xd8]
  405da0:	00 
  405da1:	31 c0                	xor    eax,eax
  405da3:	66 2e 0f 1f 84 00 00 	cs nop WORD PTR [rax+rax*1+0x0]
  405daa:	00 00 00 
  405dad:	0f 1f 00             	nop    DWORD PTR [rax]
  405db0:	c4 c1 7c 10 04 82    	vmovups ymm0,YMMWORD PTR [r10+rax*4]
  405db6:	c4 c1 7c 10 4c 82 20 	vmovups ymm1,YMMWORD PTR [r10+rax*4+0x20]
  405dbd:	c4 c1 7c 10 54 85 00 	vmovups ymm2,YMMWORD PTR [r13+rax*4+0x0]
  405dc4:	c4 c1 7c 10 5c 85 20 	vmovups ymm3,YMMWORD PTR [r13+rax*4+0x20]
  405dcb:	c4 c1 7c 11 14 82    	vmovups YMMWORD PTR [r10+rax*4],ymm2
  405dd1:	c4 c1 7c 11 5c 82 20 	vmovups YMMWORD PTR [r10+rax*4+0x20],ymm3
  405dd8:	c4 c1 7c 11 44 85 00 	vmovups YMMWORD PTR [r13+rax*4+0x0],ymm0
  405ddf:	c4 c1 7c 11 4c 85 20 	vmovups YMMWORD PTR [r13+rax*4+0x20],ymm1
  405de6:	c4 c1 7e 6f 44 82 40 	vmovdqu ymm0,YMMWORD PTR [r10+rax*4+0x40]
  405ded:	c4 c1 7e 6f 4c 82 60 	vmovdqu ymm1,YMMWORD PTR [r10+rax*4+0x60]
  405df4:	c4 c1 7e 6f 54 85 40 	vmovdqu ymm2,YMMWORD PTR [r13+rax*4+0x40]
  405dfb:	c4 c1 7e 6f 5c 85 60 	vmovdqu ymm3,YMMWORD PTR [r13+rax*4+0x60]
  405e02:	c4 c1 7e 7f 54 82 40 	vmovdqu YMMWORD PTR [r10+rax*4+0x40],ymm2
  405e09:	c4 c1 7e 7f 5c 82 60 	vmovdqu YMMWORD PTR [r10+rax*4+0x60],ymm3
  405e10:	c4 c1 7e 7f 44 85 40 	vmovdqu YMMWORD PTR [r13+rax*4+0x40],ymm0
  405e17:	c4 c1 7e 7f 4c 85 60 	vmovdqu YMMWORD PTR [r13+rax*4+0x60],ymm1
  405e1e:	48 83 c0 20          	add    rax,0x20
  405e22:	48 83 c1 02          	add    rcx,0x2
  405e26:	75 88                	jne    405db0 <fwrite@plt+0x4c60>
  405e28:	48 83 bc 24 90 01 00 	cmp    QWORD PTR [rsp+0x190],0x0
  405e2f:	00 00 
  405e31:	74 36                	je     405e69 <fwrite@plt+0x4d19>
  405e33:	c4 c1 7e 6f 04 82    	vmovdqu ymm0,YMMWORD PTR [r10+rax*4]
  405e39:	c4 c1 7e 6f 4c 82 20 	vmovdqu ymm1,YMMWORD PTR [r10+rax*4+0x20]
  405e40:	c4 c1 7e 6f 54 85 00 	vmovdqu ymm2,YMMWORD PTR [r13+rax*4+0x0]
  405e47:	c4 c1 7e 6f 5c 85 20 	vmovdqu ymm3,YMMWORD PTR [r13+rax*4+0x20]
  405e4e:	c4 c1 7e 7f 14 82    	vmovdqu YMMWORD PTR [r10+rax*4],ymm2
  405e54:	c4 c1 7e 7f 5c 82 20 	vmovdqu YMMWORD PTR [r10+rax*4+0x20],ymm3
  405e5b:	c4 c1 7e 7f 44 85 00 	vmovdqu YMMWORD PTR [r13+rax*4+0x0],ymm0
  405e62:	c4 c1 7e 7f 4c 85 20 	vmovdqu YMMWORD PTR [r13+rax*4+0x20],ymm1
  405e69:	48 8b 84 24 10 01 00 	mov    rax,QWORD PTR [rsp+0x110]
  405e70:	00 
  405e71:	48 39 44 24 78       	cmp    QWORD PTR [rsp+0x78],rax
  405e76:	0f 84 14 01 00 00    	je     405f90 <fwrite@plt+0x4e40>
  405e7c:	48 8b 84 24 d0 00 00 	mov    rax,QWORD PTR [rsp+0xd0]
  405e83:	00 
  405e84:	49 8d 0c 82          	lea    rcx,[r10+rax*4]
  405e88:	4d 8d 6c 85 00       	lea    r13,[r13+rax*4+0x0]
  405e8d:	48 8b 84 24 c0 00 00 	mov    rax,QWORD PTR [rsp+0xc0]
  405e94:	00 
  405e95:	e9 52 fd ff ff       	jmp    405bec <fwrite@plt+0x4a9c>
  405e9a:	48 83 bc 24 f8 00 00 	cmp    QWORD PTR [rsp+0xf8],0x0
  405ea1:	00 00 
  405ea3:	0f 84 fd 1e 00 00    	je     407da6 <fwrite@plt+0x6c56>
  405ea9:	48 8b 8c 24 e0 00 00 	mov    rcx,QWORD PTR [rsp+0xe0]
  405eb0:	00 
  405eb1:	31 c0                	xor    eax,eax
  405eb3:	66 2e 0f 1f 84 00 00 	cs nop WORD PTR [rax+rax*1+0x0]
  405eba:	00 00 00 
  405ebd:	0f 1f 00             	nop    DWORD PTR [rax]
  405ec0:	c4 c1 7c 10 04 02    	vmovups ymm0,YMMWORD PTR [r10+rax*1]
  405ec6:	c4 c1 7c 10 4c 02 20 	vmovups ymm1,YMMWORD PTR [r10+rax*1+0x20]
  405ecd:	c4 c1 7c 10 54 05 00 	vmovups ymm2,YMMWORD PTR [r13+rax*1+0x0]
  405ed4:	c4 c1 7c 10 5c 05 20 	vmovups ymm3,YMMWORD PTR [r13+rax*1+0x20]
  405edb:	c4 c1 7c 11 14 02    	vmovups YMMWORD PTR [r10+rax*1],ymm2
  405ee1:	c4 c1 7c 11 5c 02 20 	vmovups YMMWORD PTR [r10+rax*1+0x20],ymm3
  405ee8:	c4 c1 7c 11 44 05 00 	vmovups YMMWORD PTR [r13+rax*1+0x0],ymm0
  405eef:	c4 c1 7c 11 4c 05 20 	vmovups YMMWORD PTR [r13+rax*1+0x20],ymm1
  405ef6:	c4 c1 7e 6f 44 02 40 	vmovdqu ymm0,YMMWORD PTR [r10+rax*1+0x40]
  405efd:	c4 c1 7e 6f 4c 02 60 	vmovdqu ymm1,YMMWORD PTR [r10+rax*1+0x60]
  405f04:	c4 c1 7e 6f 54 05 40 	vmovdqu ymm2,YMMWORD PTR [r13+rax*1+0x40]
  405f0b:	c4 c1 7e 6f 5c 05 60 	vmovdqu ymm3,YMMWORD PTR [r13+rax*1+0x60]
  405f12:	c4 c1 7e 7f 54 02 40 	vmovdqu YMMWORD PTR [r10+rax*1+0x40],ymm2
  405f19:	c4 c1 7e 7f 5c 02 60 	vmovdqu YMMWORD PTR [r10+rax*1+0x60],ymm3
  405f20:	c4 c1 7e 7f 44 05 40 	vmovdqu YMMWORD PTR [r13+rax*1+0x40],ymm0
  405f27:	c4 c1 7e 7f 4c 05 60 	vmovdqu YMMWORD PTR [r13+rax*1+0x60],ymm1
  405f2e:	48 83 e8 80          	sub    rax,0xffffffffffffff80
  405f32:	48 83 c1 02          	add    rcx,0x2
  405f36:	75 88                	jne    405ec0 <fwrite@plt+0x4d70>
  405f38:	48 83 bc 24 88 01 00 	cmp    QWORD PTR [rsp+0x188],0x0
  405f3f:	00 00 
  405f41:	74 36                	je     405f79 <fwrite@plt+0x4e29>
  405f43:	c4 c1 7e 6f 04 02    	vmovdqu ymm0,YMMWORD PTR [r10+rax*1]
  405f49:	c4 c1 7e 6f 4c 02 20 	vmovdqu ymm1,YMMWORD PTR [r10+rax*1+0x20]
  405f50:	c4 c1 7e 6f 54 05 00 	vmovdqu ymm2,YMMWORD PTR [r13+rax*1+0x0]
  405f57:	c4 c1 7e 6f 5c 05 20 	vmovdqu ymm3,YMMWORD PTR [r13+rax*1+0x20]
  405f5e:	c4 c1 7e 7f 14 02    	vmovdqu YMMWORD PTR [r10+rax*1],ymm2
  405f64:	c4 c1 7e 7f 5c 02 20 	vmovdqu YMMWORD PTR [r10+rax*1+0x20],ymm3
  405f6b:	c4 c1 7e 7f 44 05 00 	vmovdqu YMMWORD PTR [r13+rax*1+0x0],ymm0
  405f72:	c4 c1 7e 7f 4c 05 20 	vmovdqu YMMWORD PTR [r13+rax*1+0x20],ymm1
  405f79:	48 8b 84 24 08 01 00 	mov    rax,QWORD PTR [rsp+0x108]
  405f80:	00 
  405f81:	48 39 44 24 30       	cmp    QWORD PTR [rsp+0x30],rax
  405f86:	0f 85 e8 1d 00 00    	jne    407d74 <fwrite@plt+0x6c24>
  405f8c:	0f 1f 40 00          	nop    DWORD PTR [rax+0x0]
  405f90:	49 8d 04 2a          	lea    rax,[r10+rbp*1]
  405f94:	48 89 84 24 70 01 00 	mov    QWORD PTR [rsp+0x170],rax
  405f9b:	00 
  405f9c:	4d 8d 4c 24 ff       	lea    r9,[r12-0x1]
  405fa1:	4c 0f af cd          	imul   r9,rbp
  405fa5:	4d 01 d1             	add    r9,r10
  405fa8:	31 d2                	xor    edx,edx
  405faa:	4c 89 c9             	mov    rcx,r9
  405fad:	49 89 c0             	mov    r8,rax
  405fb0:	48 89 44 24 28       	mov    QWORD PTR [rsp+0x28],rax
  405fb5:	eb 24                	jmp    405fdb <fwrite@plt+0x4e8b>
  405fb7:	66 0f 1f 84 00 00 00 	nop    WORD PTR [rax+rax*1+0x0]
  405fbe:	00 00 
  405fc0:	48 8b 6c 24 60       	mov    rbp,QWORD PTR [rsp+0x60]
  405fc5:	49 01 ec             	add    r12,rbp
  405fc8:	48 8b 44 24 10       	mov    rax,QWORD PTR [rsp+0x10]
  405fcd:	4c 01 c0             	add    rax,r8
  405fd0:	ba 01 00 00 00       	mov    edx,0x1
  405fd5:	48 89 c1             	mov    rcx,rax
  405fd8:	4d 89 e0             	mov    r8,r12
  405fdb:	49 39 c8             	cmp    r8,rcx
  405fde:	48 89 8c 24 80 00 00 	mov    QWORD PTR [rsp+0x80],rcx
  405fe5:	00 
  405fe6:	4c 89 4c 24 20       	mov    QWORD PTR [rsp+0x20],r9
  405feb:	89 94 24 88 00 00 00 	mov    DWORD PTR [rsp+0x88],edx
  405ff2:	76 1c                	jbe    406010 <fwrite@plt+0x4ec0>
  405ff4:	4d 89 c5             	mov    r13,r8
  405ff7:	49 39 cd             	cmp    r13,rcx
  405ffa:	0f 86 6b 06 00 00    	jbe    40666b <fwrite@plt+0x551b>
  406000:	e9 29 11 00 00       	jmp    40712e <fwrite@plt+0x5fde>
  406005:	66 2e 0f 1f 84 00 00 	cs nop WORD PTR [rax+rax*1+0x0]
  40600c:	00 00 00 
  40600f:	90                   	nop
  406010:	45 31 c9             	xor    r9d,r9d
  406013:	4d 89 c5             	mov    r13,r8
  406016:	e9 75 01 00 00       	jmp    406190 <fwrite@plt+0x5040>
  40601b:	48 83 bc 24 f0 00 00 	cmp    QWORD PTR [rsp+0xf0],0x0
  406022:	00 00 
  406024:	4c 8b 54 24 18       	mov    r10,QWORD PTR [rsp+0x18]
  406029:	4d 89 f0             	mov    r8,r14
  40602c:	4d 89 e1             	mov    r9,r12
  40602f:	0f 84 37 01 00 00    	je     40616c <fwrite@plt+0x501c>
  406035:	48 8b 8c 24 d8 00 00 	mov    rcx,QWORD PTR [rsp+0xd8]
  40603c:	00 
  40603d:	31 c0                	xor    eax,eax
  40603f:	4c 8b 6c 24 10       	mov    r13,QWORD PTR [rsp+0x10]
  406044:	66 2e 0f 1f 84 00 00 	cs nop WORD PTR [rax+rax*1+0x0]
  40604b:	00 00 00 
  40604e:	66 90                	xchg   ax,ax
  406050:	c5 fc 10 04 82       	vmovups ymm0,YMMWORD PTR [rdx+rax*4]
  406055:	c5 fc 10 4c 82 20    	vmovups ymm1,YMMWORD PTR [rdx+rax*4+0x20]
  40605b:	c4 c1 7c 10 54 85 00 	vmovups ymm2,YMMWORD PTR [r13+rax*4+0x0]
  406062:	c4 c1 7c 10 5c 85 20 	vmovups ymm3,YMMWORD PTR [r13+rax*4+0x20]
  406069:	c5 fc 11 14 82       	vmovups YMMWORD PTR [rdx+rax*4],ymm2
  40606e:	c5 fc 11 5c 82 20    	vmovups YMMWORD PTR [rdx+rax*4+0x20],ymm3
  406074:	c4 c1 7c 11 44 85 00 	vmovups YMMWORD PTR [r13+rax*4+0x0],ymm0
  40607b:	c4 c1 7c 11 4c 85 20 	vmovups YMMWORD PTR [r13+rax*4+0x20],ymm1
  406082:	c5 fe 6f 44 82 40    	vmovdqu ymm0,YMMWORD PTR [rdx+rax*4+0x40]
  406088:	c5 fe 6f 4c 82 60    	vmovdqu ymm1,YMMWORD PTR [rdx+rax*4+0x60]
  40608e:	c4 c1 7e 6f 54 85 40 	vmovdqu ymm2,YMMWORD PTR [r13+rax*4+0x40]
  406095:	c4 c1 7e 6f 5c 85 60 	vmovdqu ymm3,YMMWORD PTR [r13+rax*4+0x60]
  40609c:	c5 fe 7f 54 82 40    	vmovdqu YMMWORD PTR [rdx+rax*4+0x40],ymm2
  4060a2:	c5 fe 7f 5c 82 60    	vmovdqu YMMWORD PTR [rdx+rax*4+0x60],ymm3
  4060a8:	c4 c1 7e 7f 44 85 40 	vmovdqu YMMWORD PTR [r13+rax*4+0x40],ymm0
  4060af:	c4 c1 7e 7f 4c 85 60 	vmovdqu YMMWORD PTR [r13+rax*4+0x60],ymm1
  4060b6:	48 83 c0 20          	add    rax,0x20
  4060ba:	48 83 c1 02          	add    rcx,0x2
  4060be:	75 90                	jne    406050 <fwrite@plt+0x4f00>
  4060c0:	f6 84 24 28 01 00 00 	test   BYTE PTR [rsp+0x128],0x1
  4060c7:	01 
  4060c8:	74 32                	je     4060fc <fwrite@plt+0x4fac>
  4060ca:	c5 fe 6f 04 82       	vmovdqu ymm0,YMMWORD PTR [rdx+rax*4]
  4060cf:	c5 fe 6f 4c 82 20    	vmovdqu ymm1,YMMWORD PTR [rdx+rax*4+0x20]
  4060d5:	c4 c1 7e 6f 54 85 00 	vmovdqu ymm2,YMMWORD PTR [r13+rax*4+0x0]
  4060dc:	c4 c1 7e 6f 5c 85 20 	vmovdqu ymm3,YMMWORD PTR [r13+rax*4+0x20]
  4060e3:	c5 fe 7f 14 82       	vmovdqu YMMWORD PTR [rdx+rax*4],ymm2
  4060e8:	c5 fe 7f 5c 82 20    	vmovdqu YMMWORD PTR [rdx+rax*4+0x20],ymm3
  4060ee:	c4 c1 7e 7f 44 85 00 	vmovdqu YMMWORD PTR [r13+rax*4+0x0],ymm0
  4060f5:	c4 c1 7e 7f 4c 85 20 	vmovdqu YMMWORD PTR [r13+rax*4+0x20],ymm1
  4060fc:	48 8b 84 24 10 01 00 	mov    rax,QWORD PTR [rsp+0x110]
  406103:	00 
  406104:	48 39 44 24 78       	cmp    QWORD PTR [rsp+0x78],rax
  406109:	0f 84 11 05 00 00    	je     406620 <fwrite@plt+0x54d0>
  40610f:	48 8b 84 24 d0 00 00 	mov    rax,QWORD PTR [rsp+0xd0]
  406116:	00 
  406117:	48 8b 4c 24 28       	mov    rcx,QWORD PTR [rsp+0x28]
  40611c:	48 8d 0c 81          	lea    rcx,[rcx+rax*4]
  406120:	48 8d 14 85 00 00 00 	lea    rdx,[rax*4+0x0]
  406127:	00 
  406128:	4c 01 ea             	add    rdx,r13
  40612b:	48 8b 84 24 c0 00 00 	mov    rax,QWORD PTR [rsp+0xc0]
  406132:	00 
  406133:	e9 c1 04 00 00       	jmp    4065f9 <fwrite@plt+0x54a9>
  406138:	31 c0                	xor    eax,eax
  40613a:	4c 8b 6c 24 10       	mov    r13,QWORD PTR [rsp+0x10]
  40613f:	f6 84 24 30 01 00 00 	test   BYTE PTR [rsp+0x130],0x1
  406146:	01 
  406147:	0f 85 fd 03 00 00    	jne    40654a <fwrite@plt+0x53fa>
  40614d:	e9 2a 04 00 00       	jmp    40657c <fwrite@plt+0x542c>
  406152:	31 c0                	xor    eax,eax
  406154:	4c 8b 6c 24 10       	mov    r13,QWORD PTR [rsp+0x10]
  406159:	f6 84 24 20 01 00 00 	test   BYTE PTR [rsp+0x120],0x1
  406160:	01 
  406161:	0f 85 a3 02 00 00    	jne    40640a <fwrite@plt+0x52ba>
  406167:	e9 d5 02 00 00       	jmp    406441 <fwrite@plt+0x52f1>
  40616c:	31 c0                	xor    eax,eax
  40616e:	4c 8b 6c 24 10       	mov    r13,QWORD PTR [rsp+0x10]
  406173:	f6 84 24 28 01 00 00 	test   BYTE PTR [rsp+0x128],0x1
  40617a:	01 
  40617b:	0f 85 49 ff ff ff    	jne    4060ca <fwrite@plt+0x4f7a>
  406181:	e9 76 ff ff ff       	jmp    4060fc <fwrite@plt+0x4fac>
  406186:	66 2e 0f 1f 84 00 00 	cs nop WORD PTR [rax+rax*1+0x0]
  40618d:	00 00 00 
  406190:	4d 89 cc             	mov    r12,r9
  406193:	4c 89 cb             	mov    rbx,r9
  406196:	48 0f af dd          	imul   rbx,rbp
  40619a:	4c 89 ef             	mov    rdi,r13
  40619d:	4d 8d 2c 18          	lea    r13,[r8+rbx*1]
  4061a1:	48 8b 44 24 30       	mov    rax,QWORD PTR [rsp+0x30]
  4061a6:	4c 8d 3c 18          	lea    r15,[rax+rbx*1]
  4061aa:	4d 01 c7             	add    r15,r8
  4061ad:	48 8b 84 24 90 00 00 	mov    rax,QWORD PTR [rsp+0x90]
  4061b4:	00 
  4061b5:	48 8d 2c 18          	lea    rbp,[rax+rbx*1]
  4061b9:	4c 01 c5             	add    rbp,r8
  4061bc:	48 03 9c 24 98 00 00 	add    rbx,QWORD PTR [rsp+0x98]
  4061c3:	00 
  4061c4:	4d 89 c6             	mov    r14,r8
  4061c7:	4c 01 c3             	add    rbx,r8
  4061ca:	48 89 7c 24 10       	mov    QWORD PTR [rsp+0x10],rdi
  4061cf:	4c 89 d6             	mov    rsi,r10
  4061d2:	c5 f8 77             	vzeroupper 
  4061d5:	ff 54 24 38          	call   QWORD PTR [rsp+0x38]
  4061d9:	85 c0                	test   eax,eax
  4061db:	0f 8f 6f 04 00 00    	jg     406650 <fwrite@plt+0x5500>
  4061e1:	74 2d                	je     406210 <fwrite@plt+0x50c0>
  4061e3:	48 8b 6c 24 60       	mov    rbp,QWORD PTR [rsp+0x60]
  4061e8:	4c 8b 54 24 18       	mov    r10,QWORD PTR [rsp+0x18]
  4061ed:	4c 8b 6c 24 10       	mov    r13,QWORD PTR [rsp+0x10]
  4061f2:	48 8b 8c 24 80 00 00 	mov    rcx,QWORD PTR [rsp+0x80]
  4061f9:	00 
  4061fa:	4d 89 f0             	mov    r8,r14
  4061fd:	4d 89 e1             	mov    r9,r12
  406200:	e9 38 04 00 00       	jmp    40663d <fwrite@plt+0x54ed>
  406205:	66 2e 0f 1f 84 00 00 	cs nop WORD PTR [rax+rax*1+0x0]
  40620c:	00 00 00 
  40620f:	90                   	nop
  406210:	83 7c 24 4c 00       	cmp    DWORD PTR [rsp+0x4c],0x0
  406215:	74 28                	je     40623f <fwrite@plt+0x50ef>
  406217:	83 7c 24 48 00       	cmp    DWORD PTR [rsp+0x48],0x0
  40621c:	74 3b                	je     406259 <fwrite@plt+0x5109>
  40621e:	f6 44 24 0f 01       	test   BYTE PTR [rsp+0xf],0x1
  406223:	74 5a                	je     40627f <fwrite@plt+0x512f>
  406225:	48 83 7c 24 58 08    	cmp    QWORD PTR [rsp+0x58],0x8
  40622b:	73 78                	jae    4062a5 <fwrite@plt+0x5155>
  40622d:	4c 8b 6c 24 10       	mov    r13,QWORD PTR [rsp+0x10]
  406232:	4c 89 e8             	mov    rax,r13
  406235:	48 8b 4c 24 28       	mov    rcx,QWORD PTR [rsp+0x28]
  40623a:	e9 94 00 00 00       	jmp    4062d3 <fwrite@plt+0x5183>
  40623f:	48 8b 54 24 28       	mov    rdx,QWORD PTR [rsp+0x28]
  406244:	48 8b 02             	mov    rax,QWORD PTR [rdx]
  406247:	4c 8b 6c 24 10       	mov    r13,QWORD PTR [rsp+0x10]
  40624c:	49 8b 4d 00          	mov    rcx,QWORD PTR [r13+0x0]
  406250:	48 89 0a             	mov    QWORD PTR [rdx],rcx
  406253:	49 89 45 00          	mov    QWORD PTR [r13+0x0],rax
  406257:	eb 16                	jmp    40626f <fwrite@plt+0x511f>
  406259:	48 8b 54 24 28       	mov    rdx,QWORD PTR [rsp+0x28]
  40625e:	8b 02                	mov    eax,DWORD PTR [rdx]
  406260:	4c 8b 6c 24 10       	mov    r13,QWORD PTR [rsp+0x10]
  406265:	41 8b 4d 00          	mov    ecx,DWORD PTR [r13+0x0]
  406269:	89 0a                	mov    DWORD PTR [rdx],ecx
  40626b:	41 89 45 00          	mov    DWORD PTR [r13+0x0],eax
  40626f:	4c 8b 54 24 18       	mov    r10,QWORD PTR [rsp+0x18]
  406274:	4d 89 f0             	mov    r8,r14
  406277:	4d 89 e1             	mov    r9,r12
  40627a:	e9 a1 03 00 00       	jmp    406620 <fwrite@plt+0x54d0>
  40627f:	f6 44 24 0e 01       	test   BYTE PTR [rsp+0xe],0x1
  406284:	0f 84 89 00 00 00    	je     406313 <fwrite@plt+0x51c3>
  40628a:	48 83 7c 24 78 10    	cmp    QWORD PTR [rsp+0x78],0x10
  406290:	0f 83 22 03 00 00    	jae    4065b8 <fwrite@plt+0x5468>
  406296:	48 8b 44 24 68       	mov    rax,QWORD PTR [rsp+0x68]
  40629b:	48 8b 4c 24 28       	mov    rcx,QWORD PTR [rsp+0x28]
  4062a0:	e9 41 03 00 00       	jmp    4065e6 <fwrite@plt+0x5496>
  4062a5:	48 8b 54 24 28       	mov    rdx,QWORD PTR [rsp+0x28]
  4062aa:	48 39 da             	cmp    rdx,rbx
  4062ad:	48 8b 84 24 98 00 00 	mov    rax,QWORD PTR [rsp+0x98]
  4062b4:	00 
  4062b5:	0f 83 e6 01 00 00    	jae    4064a1 <fwrite@plt+0x5351>
  4062bb:	48 8d 04 02          	lea    rax,[rdx+rax*1]
  4062bf:	49 39 c5             	cmp    r13,rax
  4062c2:	0f 83 d9 01 00 00    	jae    4064a1 <fwrite@plt+0x5351>
  4062c8:	4c 8b 6c 24 10       	mov    r13,QWORD PTR [rsp+0x10]
  4062cd:	4c 89 e8             	mov    rax,r13
  4062d0:	48 89 d1             	mov    rcx,rdx
  4062d3:	48 8b 54 24 50       	mov    rdx,QWORD PTR [rsp+0x50]
  4062d8:	4c 8b 54 24 18       	mov    r10,QWORD PTR [rsp+0x18]
  4062dd:	4d 89 f0             	mov    r8,r14
  4062e0:	4d 89 e1             	mov    r9,r12
  4062e3:	48 83 c2 01          	add    rdx,0x1
  4062e7:	31 f6                	xor    esi,esi
  4062e9:	0f 1f 80 00 00 00 00 	nop    DWORD PTR [rax+0x0]
  4062f0:	48 8b 3c 31          	mov    rdi,QWORD PTR [rcx+rsi*1]
  4062f4:	48 8b 2c 30          	mov    rbp,QWORD PTR [rax+rsi*1]
  4062f8:	48 89 2c 31          	mov    QWORD PTR [rcx+rsi*1],rbp
  4062fc:	48 89 3c 30          	mov    QWORD PTR [rax+rsi*1],rdi
  406300:	48 83 c6 08          	add    rsi,0x8
  406304:	48 83 c2 ff          	add    rdx,0xffffffffffffffff
  406308:	48 83 fa 01          	cmp    rdx,0x1
  40630c:	7f e2                	jg     4062f0 <fwrite@plt+0x51a0>
  40630e:	e9 0d 03 00 00       	jmp    406620 <fwrite@plt+0x54d0>
  406313:	48 8b 44 24 70       	mov    rax,QWORD PTR [rsp+0x70]
  406318:	48 8b 4c 24 28       	mov    rcx,QWORD PTR [rsp+0x28]
  40631d:	48 89 cf             	mov    rdi,rcx
  406320:	48 8b 54 24 10       	mov    rdx,QWORD PTR [rsp+0x10]
  406325:	48 8b 6c 24 30       	mov    rbp,QWORD PTR [rsp+0x30]
  40632a:	48 83 fd 3f          	cmp    rbp,0x3f
  40632e:	4c 8b 54 24 18       	mov    r10,QWORD PTR [rsp+0x18]
  406333:	4d 89 f0             	mov    r8,r14
  406336:	4d 89 e1             	mov    r9,r12
  406339:	0f 86 2d 01 00 00    	jbe    40646c <fwrite@plt+0x531c>
  40633f:	4c 39 f9             	cmp    rcx,r15
  406342:	73 1a                	jae    40635e <fwrite@plt+0x520e>
  406344:	48 8d 34 29          	lea    rsi,[rcx+rbp*1]
  406348:	48 8b 44 24 70       	mov    rax,QWORD PTR [rsp+0x70]
  40634d:	48 89 cf             	mov    rdi,rcx
  406350:	48 8b 54 24 10       	mov    rdx,QWORD PTR [rsp+0x10]
  406355:	49 39 f5             	cmp    r13,rsi
  406358:	0f 82 0e 01 00 00    	jb     40646c <fwrite@plt+0x531c>
  40635e:	48 83 bc 24 f8 00 00 	cmp    QWORD PTR [rsp+0xf8],0x0
  406365:	00 00 
  406367:	0f 84 e5 fd ff ff    	je     406152 <fwrite@plt+0x5002>
  40636d:	48 8b 8c 24 e0 00 00 	mov    rcx,QWORD PTR [rsp+0xe0]
  406374:	00 
  406375:	31 c0                	xor    eax,eax
  406377:	4c 8b 6c 24 10       	mov    r13,QWORD PTR [rsp+0x10]
  40637c:	48 8b 54 24 28       	mov    rdx,QWORD PTR [rsp+0x28]
  406381:	66 2e 0f 1f 84 00 00 	cs nop WORD PTR [rax+rax*1+0x0]
  406388:	00 00 00 
  40638b:	0f 1f 44 00 00       	nop    DWORD PTR [rax+rax*1+0x0]
  406390:	c5 fc 10 04 02       	vmovups ymm0,YMMWORD PTR [rdx+rax*1]
  406395:	c5 fc 10 4c 02 20    	vmovups ymm1,YMMWORD PTR [rdx+rax*1+0x20]
  40639b:	c4 c1 7c 10 54 05 00 	vmovups ymm2,YMMWORD PTR [r13+rax*1+0x0]
  4063a2:	c4 c1 7c 10 5c 05 20 	vmovups ymm3,YMMWORD PTR [r13+rax*1+0x20]
  4063a9:	c5 fc 11 14 02       	vmovups YMMWORD PTR [rdx+rax*1],ymm2
  4063ae:	c5 fc 11 5c 02 20    	vmovups YMMWORD PTR [rdx+rax*1+0x20],ymm3
  4063b4:	c4 c1 7c 11 44 05 00 	vmovups YMMWORD PTR [r13+rax*1+0x0],ymm0
  4063bb:	c4 c1 7c 11 4c 05 20 	vmovups YMMWORD PTR [r13+rax*1+0x20],ymm1
  4063c2:	c5 fe 6f 44 02 40    	vmovdqu ymm0,YMMWORD PTR [rdx+rax*1+0x40]
  4063c8:	c5 fe 6f 4c 02 60    	vmovdqu ymm1,YMMWORD PTR [rdx+rax*1+0x60]
  4063ce:	c4 c1 7e 6f 54 05 40 	vmovdqu ymm2,YMMWORD PTR [r13+rax*1+0x40]
  4063d5:	c4 c1 7e 6f 5c 05 60 	vmovdqu ymm3,YMMWORD PTR [r13+rax*1+0x60]
  4063dc:	c5 fe 7f 54 02 40    	vmovdqu YMMWORD PTR [rdx+rax*1+0x40],ymm2
  4063e2:	c5 fe 7f 5c 02 60    	vmovdqu YMMWORD PTR [rdx+rax*1+0x60],ymm3
  4063e8:	c4 c1 7e 7f 44 05 40 	vmovdqu YMMWORD PTR [r13+rax*1+0x40],ymm0
  4063ef:	c4 c1 7e 7f 4c 05 60 	vmovdqu YMMWORD PTR [r13+rax*1+0x60],ymm1
  4063f6:	48 83 e8 80          	sub    rax,0xffffffffffffff80
  4063fa:	48 83 c1 02          	add    rcx,0x2
  4063fe:	75 90                	jne    406390 <fwrite@plt+0x5240>
  406400:	f6 84 24 20 01 00 00 	test   BYTE PTR [rsp+0x120],0x1
  406407:	01 
  406408:	74 37                	je     406441 <fwrite@plt+0x52f1>
  40640a:	48 8b 4c 24 28       	mov    rcx,QWORD PTR [rsp+0x28]
  40640f:	c5 fe 6f 04 01       	vmovdqu ymm0,YMMWORD PTR [rcx+rax*1]
  406414:	c5 fe 6f 4c 01 20    	vmovdqu ymm1,YMMWORD PTR [rcx+rax*1+0x20]
  40641a:	c4 c1 7e 6f 54 05 00 	vmovdqu ymm2,YMMWORD PTR [r13+rax*1+0x0]
  406421:	c4 c1 7e 6f 5c 05 20 	vmovdqu ymm3,YMMWORD PTR [r13+rax*1+0x20]
  406428:	c5 fe 7f 14 01       	vmovdqu YMMWORD PTR [rcx+rax*1],ymm2
  40642d:	c5 fe 7f 5c 01 20    	vmovdqu YMMWORD PTR [rcx+rax*1+0x20],ymm3
  406433:	c4 c1 7e 7f 44 05 00 	vmovdqu YMMWORD PTR [r13+rax*1+0x0],ymm0
  40643a:	c4 c1 7e 7f 4c 05 20 	vmovdqu YMMWORD PTR [r13+rax*1+0x20],ymm1
  406441:	48 3b ac 24 08 01 00 	cmp    rbp,QWORD PTR [rsp+0x108]
  406448:	00 
  406449:	0f 84 d1 01 00 00    	je     406620 <fwrite@plt+0x54d0>
  40644f:	48 8b 84 24 c8 00 00 	mov    rax,QWORD PTR [rsp+0xc8]
  406456:	00 
  406457:	48 8b 4c 24 28       	mov    rcx,QWORD PTR [rsp+0x28]
  40645c:	48 8d 3c 01          	lea    rdi,[rcx+rax*1]
  406460:	4a 8d 14 28          	lea    rdx,[rax+r13*1]
  406464:	48 8b 84 24 b8 00 00 	mov    rax,QWORD PTR [rsp+0xb8]
  40646b:	00 
  40646c:	48 83 c0 01          	add    rax,0x1
  406470:	31 f6                	xor    esi,esi
  406472:	4c 8b 6c 24 10       	mov    r13,QWORD PTR [rsp+0x10]
  406477:	66 0f 1f 84 00 00 00 	nop    WORD PTR [rax+rax*1+0x0]
  40647e:	00 00 
  406480:	0f b6 1c 37          	movzx  ebx,BYTE PTR [rdi+rsi*1]
  406484:	0f b6 0c 32          	movzx  ecx,BYTE PTR [rdx+rsi*1]
  406488:	88 0c 37             	mov    BYTE PTR [rdi+rsi*1],cl
  40648b:	88 1c 32             	mov    BYTE PTR [rdx+rsi*1],bl
  40648e:	48 83 c0 ff          	add    rax,0xffffffffffffffff
  406492:	48 83 c6 01          	add    rsi,0x1
  406496:	48 83 f8 01          	cmp    rax,0x1
  40649a:	7f e4                	jg     406480 <fwrite@plt+0x5330>
  40649c:	e9 7f 01 00 00       	jmp    406620 <fwrite@plt+0x54d0>
  4064a1:	48 83 bc 24 a8 00 00 	cmp    QWORD PTR [rsp+0xa8],0x0
  4064a8:	00 00 
  4064aa:	4c 8b 54 24 18       	mov    r10,QWORD PTR [rsp+0x18]
  4064af:	4d 89 f0             	mov    r8,r14
  4064b2:	4d 89 e1             	mov    r9,r12
  4064b5:	0f 84 7d fc ff ff    	je     406138 <fwrite@plt+0x4fe8>
  4064bb:	48 8b 8c 24 18 01 00 	mov    rcx,QWORD PTR [rsp+0x118]
  4064c2:	00 
  4064c3:	31 c0                	xor    eax,eax
  4064c5:	4c 8b 6c 24 10       	mov    r13,QWORD PTR [rsp+0x10]
  4064ca:	66 0f 1f 44 00 00    	nop    WORD PTR [rax+rax*1+0x0]
  4064d0:	c5 fc 10 04 c2       	vmovups ymm0,YMMWORD PTR [rdx+rax*8]
  4064d5:	c5 fc 10 4c c2 20    	vmovups ymm1,YMMWORD PTR [rdx+rax*8+0x20]
  4064db:	c4 c1 7c 10 54 c5 00 	vmovups ymm2,YMMWORD PTR [r13+rax*8+0x0]
  4064e2:	c4 c1 7c 10 5c c5 20 	vmovups ymm3,YMMWORD PTR [r13+rax*8+0x20]
  4064e9:	c5 fc 11 14 c2       	vmovups YMMWORD PTR [rdx+rax*8],ymm2
  4064ee:	c5 fc 11 5c c2 20    	vmovups YMMWORD PTR [rdx+rax*8+0x20],ymm3
  4064f4:	c4 c1 7c 11 44 c5 00 	vmovups YMMWORD PTR [r13+rax*8+0x0],ymm0
  4064fb:	c4 c1 7c 11 4c c5 20 	vmovups YMMWORD PTR [r13+rax*8+0x20],ymm1
  406502:	c5 fe 6f 44 c2 40    	vmovdqu ymm0,YMMWORD PTR [rdx+rax*8+0x40]
  406508:	c5 fe 6f 4c c2 60    	vmovdqu ymm1,YMMWORD PTR [rdx+rax*8+0x60]
  40650e:	c4 c1 7e 6f 54 c5 40 	vmovdqu ymm2,YMMWORD PTR [r13+rax*8+0x40]
  406515:	c4 c1 7e 6f 5c c5 60 	vmovdqu ymm3,YMMWORD PTR [r13+rax*8+0x60]
  40651c:	c5 fe 7f 54 c2 40    	vmovdqu YMMWORD PTR [rdx+rax*8+0x40],ymm2
  406522:	c5 fe 7f 5c c2 60    	vmovdqu YMMWORD PTR [rdx+rax*8+0x60],ymm3
  406528:	c4 c1 7e 7f 44 c5 40 	vmovdqu YMMWORD PTR [r13+rax*8+0x40],ymm0
  40652f:	c4 c1 7e 7f 4c c5 60 	vmovdqu YMMWORD PTR [r13+rax*8+0x60],ymm1
  406536:	48 83 c0 10          	add    rax,0x10
  40653a:	48 83 c1 02          	add    rcx,0x2
  40653e:	75 90                	jne    4064d0 <fwrite@plt+0x5380>
  406540:	f6 84 24 30 01 00 00 	test   BYTE PTR [rsp+0x130],0x1
  406547:	01 
  406548:	74 32                	je     40657c <fwrite@plt+0x542c>
  40654a:	c5 fe 6f 04 c2       	vmovdqu ymm0,YMMWORD PTR [rdx+rax*8]
  40654f:	c5 fe 6f 4c c2 20    	vmovdqu ymm1,YMMWORD PTR [rdx+rax*8+0x20]
  406555:	c4 c1 7e 6f 54 c5 00 	vmovdqu ymm2,YMMWORD PTR [r13+rax*8+0x0]
  40655c:	c4 c1 7e 6f 5c c5 20 	vmovdqu ymm3,YMMWORD PTR [r13+rax*8+0x20]
  406563:	c5 fe 7f 14 c2       	vmovdqu YMMWORD PTR [rdx+rax*8],ymm2
  406568:	c5 fe 7f 5c c2 20    	vmovdqu YMMWORD PTR [rdx+rax*8+0x20],ymm3
  40656e:	c4 c1 7e 7f 44 c5 00 	vmovdqu YMMWORD PTR [r13+rax*8+0x0],ymm0
  406575:	c4 c1 7e 7f 4c c5 20 	vmovdqu YMMWORD PTR [r13+rax*8+0x20],ymm1
  40657c:	48 8b 84 24 a0 00 00 	mov    rax,QWORD PTR [rsp+0xa0]
  406583:	00 
  406584:	48 39 44 24 58       	cmp    QWORD PTR [rsp+0x58],rax
  406589:	0f 84 91 00 00 00    	je     406620 <fwrite@plt+0x54d0>
  40658f:	48 8b 8c 24 00 01 00 	mov    rcx,QWORD PTR [rsp+0x100]
  406596:	00 
  406597:	48 8d 04 cd 00 00 00 	lea    rax,[rcx*8+0x0]
  40659e:	00 
  40659f:	4c 01 e8             	add    rax,r13
  4065a2:	48 8b 54 24 28       	mov    rdx,QWORD PTR [rsp+0x28]
  4065a7:	48 8d 0c ca          	lea    rcx,[rdx+rcx*8]
  4065ab:	48 8b 94 24 e8 00 00 	mov    rdx,QWORD PTR [rsp+0xe8]
  4065b2:	00 
  4065b3:	e9 2b fd ff ff       	jmp    4062e3 <fwrite@plt+0x5193>
  4065b8:	48 8b 44 24 28       	mov    rax,QWORD PTR [rsp+0x28]
  4065bd:	48 39 e8             	cmp    rax,rbp
  4065c0:	48 89 c2             	mov    rdx,rax
  4065c3:	48 8b 84 24 90 00 00 	mov    rax,QWORD PTR [rsp+0x90]
  4065ca:	00 
  4065cb:	0f 83 4a fa ff ff    	jae    40601b <fwrite@plt+0x4ecb>
  4065d1:	48 8d 04 02          	lea    rax,[rdx+rax*1]
  4065d5:	49 39 c5             	cmp    r13,rax
  4065d8:	0f 83 3d fa ff ff    	jae    40601b <fwrite@plt+0x4ecb>
  4065de:	48 8b 44 24 68       	mov    rax,QWORD PTR [rsp+0x68]
  4065e3:	48 89 d1             	mov    rcx,rdx
  4065e6:	4c 8b 6c 24 10       	mov    r13,QWORD PTR [rsp+0x10]
  4065eb:	4c 89 ea             	mov    rdx,r13
  4065ee:	4c 8b 54 24 18       	mov    r10,QWORD PTR [rsp+0x18]
  4065f3:	4d 89 f0             	mov    r8,r14
  4065f6:	4d 89 e1             	mov    r9,r12
  4065f9:	48 83 c0 01          	add    rax,0x1
  4065fd:	31 f6                	xor    esi,esi
  4065ff:	90                   	nop
  406600:	8b 3c 31             	mov    edi,DWORD PTR [rcx+rsi*1]
  406603:	8b 2c 32             	mov    ebp,DWORD PTR [rdx+rsi*1]
  406606:	89 2c 31             	mov    DWORD PTR [rcx+rsi*1],ebp
  406609:	89 3c 32             	mov    DWORD PTR [rdx+rsi*1],edi
  40660c:	48 83 c0 ff          	add    rax,0xffffffffffffffff
  406610:	48 83 c6 04          	add    rsi,0x4
  406614:	48 83 f8 01          	cmp    rax,0x1
  406618:	7f e6                	jg     406600 <fwrite@plt+0x54b0>
  40661a:	66 0f 1f 44 00 00    	nop    WORD PTR [rax+rax*1+0x0]
  406620:	48 8b 6c 24 60       	mov    rbp,QWORD PTR [rsp+0x60]
  406625:	48 01 6c 24 28       	add    QWORD PTR [rsp+0x28],rbp
  40662a:	c7 84 24 88 00 00 00 	mov    DWORD PTR [rsp+0x88],0x1
  406631:	01 00 00 00 
  406635:	48 8b 8c 24 80 00 00 	mov    rcx,QWORD PTR [rsp+0x80]
  40663c:	00 
  40663d:	49 01 ed             	add    r13,rbp
  406640:	49 83 c1 01          	add    r9,0x1
  406644:	49 39 cd             	cmp    r13,rcx
  406647:	0f 86 43 fb ff ff    	jbe    406190 <fwrite@plt+0x5040>
  40664d:	eb 13                	jmp    406662 <fwrite@plt+0x5512>
  40664f:	90                   	nop
  406650:	4c 8b 54 24 18       	mov    r10,QWORD PTR [rsp+0x18]
  406655:	4c 8b 6c 24 10       	mov    r13,QWORD PTR [rsp+0x10]
  40665a:	48 8b 8c 24 80 00 00 	mov    rcx,QWORD PTR [rsp+0x80]
  406661:	00 
  406662:	49 39 cd             	cmp    r13,rcx
  406665:	0f 87 c3 0a 00 00    	ja     40712e <fwrite@plt+0x5fde>
  40666b:	45 31 ff             	xor    r15d,r15d
  40666e:	48 89 cf             	mov    rdi,rcx
  406671:	4c 8b 44 24 40       	mov    r8,QWORD PTR [rsp+0x40]
  406676:	eb 58                	jmp    4066d0 <fwrite@plt+0x5580>
  406678:	31 c0                	xor    eax,eax
  40667a:	4d 89 e5             	mov    r13,r12
  40667d:	f6 84 24 30 01 00 00 	test   BYTE PTR [rsp+0x130],0x1
  406684:	01 
  406685:	0f 85 ad 03 00 00    	jne    406a38 <fwrite@plt+0x58e8>
  40668b:	e9 d8 03 00 00       	jmp    406a68 <fwrite@plt+0x5918>
  406690:	31 c0                	xor    eax,eax
  406692:	48 8b 54 24 30       	mov    rdx,QWORD PTR [rsp+0x30]
  406697:	f6 84 24 20 01 00 00 	test   BYTE PTR [rsp+0x120],0x1
  40669e:	01 
  40669f:	0f 85 73 02 00 00    	jne    406918 <fwrite@plt+0x57c8>
  4066a5:	e9 9e 02 00 00       	jmp    406948 <fwrite@plt+0x57f8>
  4066aa:	31 c0                	xor    eax,eax
  4066ac:	4c 8b 4c 24 20       	mov    r9,QWORD PTR [rsp+0x20]
  4066b1:	f6 84 24 28 01 00 00 	test   BYTE PTR [rsp+0x128],0x1
  4066b8:	01 
  4066b9:	0f 85 a9 04 00 00    	jne    406b68 <fwrite@plt+0x5a18>
  4066bf:	e9 d4 04 00 00       	jmp    406b98 <fwrite@plt+0x5a48>
  4066c4:	66 2e 0f 1f 84 00 00 	cs nop WORD PTR [rax+rax*1+0x0]
  4066cb:	00 00 00 
  4066ce:	66 90                	xchg   ax,ax
  4066d0:	4d 89 ec             	mov    r12,r13
  4066d3:	4d 89 fd             	mov    r13,r15
  4066d6:	4d 0f af e8          	imul   r13,r8
  4066da:	4a 8d 2c 29          	lea    rbp,[rcx+r13*1]
  4066de:	48 8b 44 24 30       	mov    rax,QWORD PTR [rsp+0x30]
  4066e3:	4a 8d 1c 28          	lea    rbx,[rax+r13*1]
  4066e7:	48 01 cb             	add    rbx,rcx
  4066ea:	48 8b 84 24 90 00 00 	mov    rax,QWORD PTR [rsp+0x90]
  4066f1:	00 
  4066f2:	4e 8d 34 28          	lea    r14,[rax+r13*1]
  4066f6:	49 01 ce             	add    r14,rcx
  4066f9:	4c 03 ac 24 98 00 00 	add    r13,QWORD PTR [rsp+0x98]
  406700:	00 
  406701:	49 01 cd             	add    r13,rcx
  406704:	48 89 7c 24 10       	mov    QWORD PTR [rsp+0x10],rdi
  406709:	4c 89 d6             	mov    rsi,r10
  40670c:	c5 f8 77             	vzeroupper 
  40670f:	ff 54 24 38          	call   QWORD PTR [rsp+0x38]
  406713:	85 c0                	test   eax,eax
  406715:	0f 88 05 05 00 00    	js     406c20 <fwrite@plt+0x5ad0>
  40671b:	74 23                	je     406740 <fwrite@plt+0x55f0>
  40671d:	4c 8b 44 24 40       	mov    r8,QWORD PTR [rsp+0x40]
  406722:	4c 8b 54 24 18       	mov    r10,QWORD PTR [rsp+0x18]
  406727:	4d 89 e5             	mov    r13,r12
  40672a:	48 8b 7c 24 10       	mov    rdi,QWORD PTR [rsp+0x10]
  40672f:	e9 cf 04 00 00       	jmp    406c03 <fwrite@plt+0x5ab3>
  406734:	66 2e 0f 1f 84 00 00 	cs nop WORD PTR [rax+rax*1+0x0]
  40673b:	00 00 00 
  40673e:	66 90                	xchg   ax,ax
  406740:	83 7c 24 4c 00       	cmp    DWORD PTR [rsp+0x4c],0x0
  406745:	4c 8b 44 24 40       	mov    r8,QWORD PTR [rsp+0x40]
  40674a:	4c 8b 54 24 18       	mov    r10,QWORD PTR [rsp+0x18]
  40674f:	48 8b 7c 24 10       	mov    rdi,QWORD PTR [rsp+0x10]
  406754:	74 20                	je     406776 <fwrite@plt+0x5626>
  406756:	83 7c 24 48 00       	cmp    DWORD PTR [rsp+0x48],0x0
  40675b:	74 32                	je     40678f <fwrite@plt+0x563f>
  40675d:	f6 44 24 0f 01       	test   BYTE PTR [rsp+0xf],0x1
  406762:	74 42                	je     4067a6 <fwrite@plt+0x5656>
  406764:	48 83 7c 24 58 08    	cmp    QWORD PTR [rsp+0x58],0x8
  40676a:	73 69                	jae    4067d5 <fwrite@plt+0x5685>
  40676c:	4c 8b 4c 24 20       	mov    r9,QWORD PTR [rsp+0x20]
  406771:	e9 82 00 00 00       	jmp    4067f8 <fwrite@plt+0x56a8>
  406776:	48 8b 07             	mov    rax,QWORD PTR [rdi]
  406779:	4c 8b 4c 24 20       	mov    r9,QWORD PTR [rsp+0x20]
  40677e:	49 8b 09             	mov    rcx,QWORD PTR [r9]
  406781:	48 89 0f             	mov    QWORD PTR [rdi],rcx
  406784:	49 89 01             	mov    QWORD PTR [r9],rax
  406787:	4d 89 e5             	mov    r13,r12
  40678a:	e9 61 04 00 00       	jmp    406bf0 <fwrite@plt+0x5aa0>
  40678f:	8b 07                	mov    eax,DWORD PTR [rdi]
  406791:	4c 8b 4c 24 20       	mov    r9,QWORD PTR [rsp+0x20]
  406796:	41 8b 09             	mov    ecx,DWORD PTR [r9]
  406799:	89 0f                	mov    DWORD PTR [rdi],ecx
  40679b:	41 89 01             	mov    DWORD PTR [r9],eax
  40679e:	4d 89 e5             	mov    r13,r12
  4067a1:	e9 4a 04 00 00       	jmp    406bf0 <fwrite@plt+0x5aa0>
  4067a6:	f6 44 24 0e 01       	test   BYTE PTR [rsp+0xe],0x1
  4067ab:	0f 84 82 00 00 00    	je     406833 <fwrite@plt+0x56e3>
  4067b1:	48 83 7c 24 78 10    	cmp    QWORD PTR [rsp+0x78],0x10
  4067b7:	0f 83 db 02 00 00    	jae    406a98 <fwrite@plt+0x5948>
  4067bd:	48 8b 44 24 68       	mov    rax,QWORD PTR [rsp+0x68]
  4067c2:	48 89 f9             	mov    rcx,rdi
  4067c5:	4c 8b 4c 24 20       	mov    r9,QWORD PTR [rsp+0x20]
  4067ca:	4c 89 ca             	mov    rdx,r9
  4067cd:	4d 89 e5             	mov    r13,r12
  4067d0:	e9 ea 03 00 00       	jmp    406bbf <fwrite@plt+0x5a6f>
  4067d5:	48 8b 84 24 98 00 00 	mov    rax,QWORD PTR [rsp+0x98]
  4067dc:	00 
  4067dd:	4c 8b 4c 24 20       	mov    r9,QWORD PTR [rsp+0x20]
  4067e2:	49 8d 04 01          	lea    rax,[r9+rax*1]
  4067e6:	48 39 c5             	cmp    rbp,rax
  4067e9:	0f 83 b4 01 00 00    	jae    4069a3 <fwrite@plt+0x5853>
  4067ef:	4d 39 e9             	cmp    r9,r13
  4067f2:	0f 83 ab 01 00 00    	jae    4069a3 <fwrite@plt+0x5853>
  4067f8:	4c 89 c8             	mov    rax,r9
  4067fb:	48 89 f9             	mov    rcx,rdi
  4067fe:	48 8b 54 24 50       	mov    rdx,QWORD PTR [rsp+0x50]
  406803:	4d 89 e5             	mov    r13,r12
  406806:	48 83 c2 01          	add    rdx,0x1
  40680a:	31 f6                	xor    esi,esi
  40680c:	0f 1f 40 00          	nop    DWORD PTR [rax+0x0]
  406810:	48 8b 1c 31          	mov    rbx,QWORD PTR [rcx+rsi*1]
  406814:	48 8b 2c 30          	mov    rbp,QWORD PTR [rax+rsi*1]
  406818:	48 89 2c 31          	mov    QWORD PTR [rcx+rsi*1],rbp
  40681c:	48 89 1c 30          	mov    QWORD PTR [rax+rsi*1],rbx
  406820:	48 83 c6 08          	add    rsi,0x8
  406824:	48 83 c2 ff          	add    rdx,0xffffffffffffffff
  406828:	48 83 fa 01          	cmp    rdx,0x1
  40682c:	7f e2                	jg     406810 <fwrite@plt+0x56c0>
  40682e:	e9 bd 03 00 00       	jmp    406bf0 <fwrite@plt+0x5aa0>
  406833:	48 8b 44 24 70       	mov    rax,QWORD PTR [rsp+0x70]
  406838:	49 89 fb             	mov    r11,rdi
  40683b:	4c 8b 4c 24 20       	mov    r9,QWORD PTR [rsp+0x20]
  406840:	4c 89 ca             	mov    rdx,r9
  406843:	48 83 7c 24 30 3f    	cmp    QWORD PTR [rsp+0x30],0x3f
  406849:	4d 89 e5             	mov    r13,r12
  40684c:	0f 86 1c 01 00 00    	jbe    40696e <fwrite@plt+0x581e>
  406852:	48 8b 44 24 30       	mov    rax,QWORD PTR [rsp+0x30]
  406857:	49 8d 04 01          	lea    rax,[r9+rax*1]
  40685b:	48 39 c5             	cmp    rbp,rax
  40685e:	73 14                	jae    406874 <fwrite@plt+0x5724>
  406860:	48 8b 44 24 70       	mov    rax,QWORD PTR [rsp+0x70]
  406865:	49 89 fb             	mov    r11,rdi
  406868:	4c 89 ca             	mov    rdx,r9
  40686b:	49 39 d9             	cmp    r9,rbx
  40686e:	0f 82 fa 00 00 00    	jb     40696e <fwrite@plt+0x581e>
  406874:	48 83 bc 24 f8 00 00 	cmp    QWORD PTR [rsp+0xf8],0x0
  40687b:	00 00 
  40687d:	0f 84 0d fe ff ff    	je     406690 <fwrite@plt+0x5540>
  406883:	48 8b 8c 24 e0 00 00 	mov    rcx,QWORD PTR [rsp+0xe0]
  40688a:	00 
  40688b:	31 c0                	xor    eax,eax
  40688d:	48 8b 54 24 30       	mov    rdx,QWORD PTR [rsp+0x30]
  406892:	66 2e 0f 1f 84 00 00 	cs nop WORD PTR [rax+rax*1+0x0]
  406899:	00 00 00 
  40689c:	0f 1f 40 00          	nop    DWORD PTR [rax+0x0]
  4068a0:	c5 fc 10 04 07       	vmovups ymm0,YMMWORD PTR [rdi+rax*1]
  4068a5:	c5 fc 10 4c 07 20    	vmovups ymm1,YMMWORD PTR [rdi+rax*1+0x20]
  4068ab:	c4 c1 7c 10 14 01    	vmovups ymm2,YMMWORD PTR [r9+rax*1]
  4068b1:	c4 c1 7c 10 5c 01 20 	vmovups ymm3,YMMWORD PTR [r9+rax*1+0x20]
  4068b8:	c5 fc 11 14 07       	vmovups YMMWORD PTR [rdi+rax*1],ymm2
  4068bd:	c5 fc 11 5c 07 20    	vmovups YMMWORD PTR [rdi+rax*1+0x20],ymm3
  4068c3:	c4 c1 7c 11 04 01    	vmovups YMMWORD PTR [r9+rax*1],ymm0
  4068c9:	c4 c1 7c 11 4c 01 20 	vmovups YMMWORD PTR [r9+rax*1+0x20],ymm1
  4068d0:	c5 fe 6f 44 07 40    	vmovdqu ymm0,YMMWORD PTR [rdi+rax*1+0x40]
  4068d6:	c5 fe 6f 4c 07 60    	vmovdqu ymm1,YMMWORD PTR [rdi+rax*1+0x60]
  4068dc:	c4 c1 7e 6f 54 01 40 	vmovdqu ymm2,YMMWORD PTR [r9+rax*1+0x40]
  4068e3:	c4 c1 7e 6f 5c 01 60 	vmovdqu ymm3,YMMWORD PTR [r9+rax*1+0x60]
  4068ea:	c5 fe 7f 54 07 40    	vmovdqu YMMWORD PTR [rdi+rax*1+0x40],ymm2
  4068f0:	c5 fe 7f 5c 07 60    	vmovdqu YMMWORD PTR [rdi+rax*1+0x60],ymm3
  4068f6:	c4 c1 7e 7f 44 01 40 	vmovdqu YMMWORD PTR [r9+rax*1+0x40],ymm0
  4068fd:	c4 c1 7e 7f 4c 01 60 	vmovdqu YMMWORD PTR [r9+rax*1+0x60],ymm1
  406904:	48 83 e8 80          	sub    rax,0xffffffffffffff80
  406908:	48 83 c1 02          	add    rcx,0x2
  40690c:	75 92                	jne    4068a0 <fwrite@plt+0x5750>
  40690e:	f6 84 24 20 01 00 00 	test   BYTE PTR [rsp+0x120],0x1
  406915:	01 
  406916:	74 30                	je     406948 <fwrite@plt+0x57f8>
  406918:	c5 fe 6f 04 07       	vmovdqu ymm0,YMMWORD PTR [rdi+rax*1]
  40691d:	c5 fe 6f 4c 07 20    	vmovdqu ymm1,YMMWORD PTR [rdi+rax*1+0x20]
  406923:	c4 c1 7e 6f 14 01    	vmovdqu ymm2,YMMWORD PTR [r9+rax*1]
  406929:	c4 c1 7e 6f 5c 01 20 	vmovdqu ymm3,YMMWORD PTR [r9+rax*1+0x20]
  406930:	c5 fe 7f 14 07       	vmovdqu YMMWORD PTR [rdi+rax*1],ymm2
  406935:	c5 fe 7f 5c 07 20    	vmovdqu YMMWORD PTR [rdi+rax*1+0x20],ymm3
  40693b:	c4 c1 7e 7f 04 01    	vmovdqu YMMWORD PTR [r9+rax*1],ymm0
  406941:	c4 c1 7e 7f 4c 01 20 	vmovdqu YMMWORD PTR [r9+rax*1+0x20],ymm1
  406948:	48 3b 94 24 08 01 00 	cmp    rdx,QWORD PTR [rsp+0x108]
  40694f:	00 
  406950:	0f 84 9a 02 00 00    	je     406bf0 <fwrite@plt+0x5aa0>
  406956:	48 8b 84 24 c8 00 00 	mov    rax,QWORD PTR [rsp+0xc8]
  40695d:	00 
  40695e:	4c 8d 1c 07          	lea    r11,[rdi+rax*1]
  406962:	49 8d 14 01          	lea    rdx,[r9+rax*1]
  406966:	48 8b 84 24 b8 00 00 	mov    rax,QWORD PTR [rsp+0xb8]
  40696d:	00 
  40696e:	48 83 c0 01          	add    rax,0x1
  406972:	31 f6                	xor    esi,esi
  406974:	66 2e 0f 1f 84 00 00 	cs nop WORD PTR [rax+rax*1+0x0]
  40697b:	00 00 00 
  40697e:	66 90                	xchg   ax,ax
  406980:	41 0f b6 1c 33       	movzx  ebx,BYTE PTR [r11+rsi*1]
  406985:	0f b6 0c 32          	movzx  ecx,BYTE PTR [rdx+rsi*1]
  406989:	41 88 0c 33          	mov    BYTE PTR [r11+rsi*1],cl
  40698d:	88 1c 32             	mov    BYTE PTR [rdx+rsi*1],bl
  406990:	48 83 c0 ff          	add    rax,0xffffffffffffffff
  406994:	48 83 c6 01          	add    rsi,0x1
  406998:	48 83 f8 01          	cmp    rax,0x1
  40699c:	7f e2                	jg     406980 <fwrite@plt+0x5830>
  40699e:	e9 4d 02 00 00       	jmp    406bf0 <fwrite@plt+0x5aa0>
  4069a3:	48 83 bc 24 a8 00 00 	cmp    QWORD PTR [rsp+0xa8],0x0
  4069aa:	00 00 
  4069ac:	0f 84 c6 fc ff ff    	je     406678 <fwrite@plt+0x5528>
  4069b2:	48 8b 8c 24 18 01 00 	mov    rcx,QWORD PTR [rsp+0x118]
  4069b9:	00 
  4069ba:	31 c0                	xor    eax,eax
  4069bc:	4d 89 e5             	mov    r13,r12
  4069bf:	90                   	nop
  4069c0:	c5 fc 10 04 c7       	vmovups ymm0,YMMWORD PTR [rdi+rax*8]
  4069c5:	c5 fc 10 4c c7 20    	vmovups ymm1,YMMWORD PTR [rdi+rax*8+0x20]
  4069cb:	c4 c1 7c 10 14 c1    	vmovups ymm2,YMMWORD PTR [r9+rax*8]
  4069d1:	c4 c1 7c 10 5c c1 20 	vmovups ymm3,YMMWORD PTR [r9+rax*8+0x20]
  4069d8:	c5 fc 11 14 c7       	vmovups YMMWORD PTR [rdi+rax*8],ymm2
  4069dd:	c5 fc 11 5c c7 20    	vmovups YMMWORD PTR [rdi+rax*8+0x20],ymm3
  4069e3:	c4 c1 7c 11 04 c1    	vmovups YMMWORD PTR [r9+rax*8],ymm0
  4069e9:	c4 c1 7c 11 4c c1 20 	vmovups YMMWORD PTR [r9+rax*8+0x20],ymm1
  4069f0:	c5 fe 6f 44 c7 40    	vmovdqu ymm0,YMMWORD PTR [rdi+rax*8+0x40]
  4069f6:	c5 fe 6f 4c c7 60    	vmovdqu ymm1,YMMWORD PTR [rdi+rax*8+0x60]
  4069fc:	c4 c1 7e 6f 54 c1 40 	vmovdqu ymm2,YMMWORD PTR [r9+rax*8+0x40]
  406a03:	c4 c1 7e 6f 5c c1 60 	vmovdqu ymm3,YMMWORD PTR [r9+rax*8+0x60]
  406a0a:	c5 fe 7f 54 c7 40    	vmovdqu YMMWORD PTR [rdi+rax*8+0x40],ymm2
  406a10:	c5 fe 7f 5c c7 60    	vmovdqu YMMWORD PTR [rdi+rax*8+0x60],ymm3
  406a16:	c4 c1 7e 7f 44 c1 40 	vmovdqu YMMWORD PTR [r9+rax*8+0x40],ymm0
  406a1d:	c4 c1 7e 7f 4c c1 60 	vmovdqu YMMWORD PTR [r9+rax*8+0x60],ymm1
  406a24:	48 83 c0 10          	add    rax,0x10
  406a28:	48 83 c1 02          	add    rcx,0x2
  406a2c:	75 92                	jne    4069c0 <fwrite@plt+0x5870>
  406a2e:	f6 84 24 30 01 00 00 	test   BYTE PTR [rsp+0x130],0x1
  406a35:	01 
  406a36:	74 30                	je     406a68 <fwrite@plt+0x5918>
  406a38:	c5 fe 6f 04 c7       	vmovdqu ymm0,YMMWORD PTR [rdi+rax*8]
  406a3d:	c5 fe 6f 4c c7 20    	vmovdqu ymm1,YMMWORD PTR [rdi+rax*8+0x20]
  406a43:	c4 c1 7e 6f 14 c1    	vmovdqu ymm2,YMMWORD PTR [r9+rax*8]
  406a49:	c4 c1 7e 6f 5c c1 20 	vmovdqu ymm3,YMMWORD PTR [r9+rax*8+0x20]
  406a50:	c5 fe 7f 14 c7       	vmovdqu YMMWORD PTR [rdi+rax*8],ymm2
  406a55:	c5 fe 7f 5c c7 20    	vmovdqu YMMWORD PTR [rdi+rax*8+0x20],ymm3
  406a5b:	c4 c1 7e 7f 04 c1    	vmovdqu YMMWORD PTR [r9+rax*8],ymm0
  406a61:	c4 c1 7e 7f 4c c1 20 	vmovdqu YMMWORD PTR [r9+rax*8+0x20],ymm1
  406a68:	48 8b 84 24 a0 00 00 	mov    rax,QWORD PTR [rsp+0xa0]
  406a6f:	00 
  406a70:	48 39 44 24 58       	cmp    QWORD PTR [rsp+0x58],rax
  406a75:	0f 84 75 01 00 00    	je     406bf0 <fwrite@plt+0x5aa0>
  406a7b:	48 8b 8c 24 00 01 00 	mov    rcx,QWORD PTR [rsp+0x100]
  406a82:	00 
  406a83:	49 8d 04 c9          	lea    rax,[r9+rcx*8]
  406a87:	48 8d 0c cf          	lea    rcx,[rdi+rcx*8]
  406a8b:	48 8b 94 24 e8 00 00 	mov    rdx,QWORD PTR [rsp+0xe8]
  406a92:	00 
  406a93:	e9 6e fd ff ff       	jmp    406806 <fwrite@plt+0x56b6>
  406a98:	48 8b 84 24 90 00 00 	mov    rax,QWORD PTR [rsp+0x90]
  406a9f:	00 
  406aa0:	48 8b 74 24 20       	mov    rsi,QWORD PTR [rsp+0x20]
  406aa5:	48 8d 04 06          	lea    rax,[rsi+rax*1]
  406aa9:	48 39 c5             	cmp    rbp,rax
  406aac:	73 1b                	jae    406ac9 <fwrite@plt+0x5979>
  406aae:	4c 39 f6             	cmp    rsi,r14
  406ab1:	73 16                	jae    406ac9 <fwrite@plt+0x5979>
  406ab3:	48 8b 44 24 68       	mov    rax,QWORD PTR [rsp+0x68]
  406ab8:	48 89 f9             	mov    rcx,rdi
  406abb:	48 89 f2             	mov    rdx,rsi
  406abe:	49 89 f1             	mov    r9,rsi
  406ac1:	4d 89 e5             	mov    r13,r12
  406ac4:	e9 f6 00 00 00       	jmp    406bbf <fwrite@plt+0x5a6f>
  406ac9:	48 83 bc 24 f0 00 00 	cmp    QWORD PTR [rsp+0xf0],0x0
  406ad0:	00 00 
  406ad2:	4d 89 e5             	mov    r13,r12
  406ad5:	0f 84 cf fb ff ff    	je     4066aa <fwrite@plt+0x555a>
  406adb:	48 8b 8c 24 d8 00 00 	mov    rcx,QWORD PTR [rsp+0xd8]
  406ae2:	00 
  406ae3:	31 c0                	xor    eax,eax
  406ae5:	4c 8b 4c 24 20       	mov    r9,QWORD PTR [rsp+0x20]
  406aea:	66 0f 1f 44 00 00    	nop    WORD PTR [rax+rax*1+0x0]
  406af0:	c5 fc 10 04 87       	vmovups ymm0,YMMWORD PTR [rdi+rax*4]
  406af5:	c5 fc 10 4c 87 20    	vmovups ymm1,YMMWORD PTR [rdi+rax*4+0x20]
  406afb:	c4 c1 7c 10 14 81    	vmovups ymm2,YMMWORD PTR [r9+rax*4]
  406b01:	c4 c1 7c 10 5c 81 20 	vmovups ymm3,YMMWORD PTR [r9+rax*4+0x20]
  406b08:	c5 fc 11 14 87       	vmovups YMMWORD PTR [rdi+rax*4],ymm2
  406b0d:	c5 fc 11 5c 87 20    	vmovups YMMWORD PTR [rdi+rax*4+0x20],ymm3
  406b13:	c4 c1 7c 11 04 81    	vmovups YMMWORD PTR [r9+rax*4],ymm0
  406b19:	c4 c1 7c 11 4c 81 20 	vmovups YMMWORD PTR [r9+rax*4+0x20],ymm1
  406b20:	c5 fe 6f 44 87 40    	vmovdqu ymm0,YMMWORD PTR [rdi+rax*4+0x40]
  406b26:	c5 fe 6f 4c 87 60    	vmovdqu ymm1,YMMWORD PTR [rdi+rax*4+0x60]
  406b2c:	c4 c1 7e 6f 54 81 40 	vmovdqu ymm2,YMMWORD PTR [r9+rax*4+0x40]
  406b33:	c4 c1 7e 6f 5c 81 60 	vmovdqu ymm3,YMMWORD PTR [r9+rax*4+0x60]
  406b3a:	c5 fe 7f 54 87 40    	vmovdqu YMMWORD PTR [rdi+rax*4+0x40],ymm2
  406b40:	c5 fe 7f 5c 87 60    	vmovdqu YMMWORD PTR [rdi+rax*4+0x60],ymm3
  406b46:	c4 c1 7e 7f 44 81 40 	vmovdqu YMMWORD PTR [r9+rax*4+0x40],ymm0
  406b4d:	c4 c1 7e 7f 4c 81 60 	vmovdqu YMMWORD PTR [r9+rax*4+0x60],ymm1
  406b54:	48 83 c0 20          	add    rax,0x20
  406b58:	48 83 c1 02          	add    rcx,0x2
  406b5c:	75 92                	jne    406af0 <fwrite@plt+0x59a0>
  406b5e:	f6 84 24 28 01 00 00 	test   BYTE PTR [rsp+0x128],0x1
  406b65:	01 
  406b66:	74 30                	je     406b98 <fwrite@plt+0x5a48>
  406b68:	c5 fe 6f 04 87       	vmovdqu ymm0,YMMWORD PTR [rdi+rax*4]
  406b6d:	c5 fe 6f 4c 87 20    	vmovdqu ymm1,YMMWORD PTR [rdi+rax*4+0x20]
  406b73:	c4 c1 7e 6f 14 81    	vmovdqu ymm2,YMMWORD PTR [r9+rax*4]
  406b79:	c4 c1 7e 6f 5c 81 20 	vmovdqu ymm3,YMMWORD PTR [r9+rax*4+0x20]
  406b80:	c5 fe 7f 14 87       	vmovdqu YMMWORD PTR [rdi+rax*4],ymm2
  406b85:	c5 fe 7f 5c 87 20    	vmovdqu YMMWORD PTR [rdi+rax*4+0x20],ymm3
  406b8b:	c4 c1 7e 7f 04 81    	vmovdqu YMMWORD PTR [r9+rax*4],ymm0
  406b91:	c4 c1 7e 7f 4c 81 20 	vmovdqu YMMWORD PTR [r9+rax*4+0x20],ymm1
  406b98:	48 8b 84 24 10 01 00 	mov    rax,QWORD PTR [rsp+0x110]
  406b9f:	00 
  406ba0:	48 39 44 24 78       	cmp    QWORD PTR [rsp+0x78],rax
  406ba5:	74 49                	je     406bf0 <fwrite@plt+0x5aa0>
  406ba7:	48 8b 84 24 d0 00 00 	mov    rax,QWORD PTR [rsp+0xd0]
  406bae:	00 
  406baf:	48 8d 0c 87          	lea    rcx,[rdi+rax*4]
  406bb3:	49 8d 14 81          	lea    rdx,[r9+rax*4]
  406bb7:	48 8b 84 24 c0 00 00 	mov    rax,QWORD PTR [rsp+0xc0]
  406bbe:	00 
  406bbf:	48 83 c0 01          	add    rax,0x1
  406bc3:	31 f6                	xor    esi,esi
  406bc5:	66 2e 0f 1f 84 00 00 	cs nop WORD PTR [rax+rax*1+0x0]
  406bcc:	00 00 00 
  406bcf:	90                   	nop
  406bd0:	8b 1c 31             	mov    ebx,DWORD PTR [rcx+rsi*1]
  406bd3:	8b 2c 32             	mov    ebp,DWORD PTR [rdx+rsi*1]
  406bd6:	89 2c 31             	mov    DWORD PTR [rcx+rsi*1],ebp
  406bd9:	89 1c 32             	mov    DWORD PTR [rdx+rsi*1],ebx
  406bdc:	48 83 c0 ff          	add    rax,0xffffffffffffffff
  406be0:	48 83 c6 04          	add    rsi,0x4
  406be4:	48 83 f8 01          	cmp    rax,0x1
  406be8:	7f e6                	jg     406bd0 <fwrite@plt+0x5a80>
  406bea:	66 0f 1f 44 00 00    	nop    WORD PTR [rax+rax*1+0x0]
  406bf0:	4d 01 c1             	add    r9,r8
  406bf3:	4c 89 4c 24 20       	mov    QWORD PTR [rsp+0x20],r9
  406bf8:	c7 84 24 88 00 00 00 	mov    DWORD PTR [rsp+0x88],0x1
  406bff:	01 00 00 00 
  406c03:	4c 01 c7             	add    rdi,r8
  406c06:	49 83 c7 01          	add    r15,0x1
  406c0a:	49 39 fd             	cmp    r13,rdi
  406c0d:	48 8b 8c 24 80 00 00 	mov    rcx,QWORD PTR [rsp+0x80]
  406c14:	00 
  406c15:	0f 86 b5 fa ff ff    	jbe    4066d0 <fwrite@plt+0x5580>
  406c1b:	e9 20 05 00 00       	jmp    407140 <fwrite@plt+0x5ff0>
  406c20:	83 7c 24 4c 00       	cmp    DWORD PTR [rsp+0x4c],0x0
  406c25:	74 2f                	je     406c56 <fwrite@plt+0x5b06>
  406c27:	83 7c 24 48 00       	cmp    DWORD PTR [rsp+0x48],0x0
  406c2c:	4c 8b 44 24 40       	mov    r8,QWORD PTR [rsp+0x40]
  406c31:	4c 8b 54 24 18       	mov    r10,QWORD PTR [rsp+0x18]
  406c36:	4c 8b 4c 24 20       	mov    r9,QWORD PTR [rsp+0x20]
  406c3b:	74 40                	je     406c7d <fwrite@plt+0x5b2d>
  406c3d:	f6 44 24 0f 01       	test   BYTE PTR [rsp+0xf],0x1
  406c42:	74 4f                	je     406c93 <fwrite@plt+0x5b43>
  406c44:	48 83 7c 24 58 08    	cmp    QWORD PTR [rsp+0x58],0x8
  406c4a:	73 6c                	jae    406cb8 <fwrite@plt+0x5b68>
  406c4c:	48 8b 44 24 10       	mov    rax,QWORD PTR [rsp+0x10]
  406c51:	e9 8c 00 00 00       	jmp    406ce2 <fwrite@plt+0x5b92>
  406c56:	49 8b 04 24          	mov    rax,QWORD PTR [r12]
  406c5a:	48 8b 54 24 10       	mov    rdx,QWORD PTR [rsp+0x10]
  406c5f:	48 8b 0a             	mov    rcx,QWORD PTR [rdx]
  406c62:	49 89 0c 24          	mov    QWORD PTR [r12],rcx
  406c66:	48 89 02             	mov    QWORD PTR [rdx],rax
  406c69:	4c 8b 44 24 40       	mov    r8,QWORD PTR [rsp+0x40]
  406c6e:	4c 8b 54 24 18       	mov    r10,QWORD PTR [rsp+0x18]
  406c73:	4c 8b 4c 24 20       	mov    r9,QWORD PTR [rsp+0x20]
  406c78:	e9 43 f3 ff ff       	jmp    405fc0 <fwrite@plt+0x4e70>
  406c7d:	41 8b 04 24          	mov    eax,DWORD PTR [r12]
  406c81:	48 8b 54 24 10       	mov    rdx,QWORD PTR [rsp+0x10]
  406c86:	8b 0a                	mov    ecx,DWORD PTR [rdx]
  406c88:	41 89 0c 24          	mov    DWORD PTR [r12],ecx
  406c8c:	89 02                	mov    DWORD PTR [rdx],eax
  406c8e:	e9 2d f3 ff ff       	jmp    405fc0 <fwrite@plt+0x4e70>
  406c93:	f6 44 24 0e 01       	test   BYTE PTR [rsp+0xe],0x1
  406c98:	74 79                	je     406d13 <fwrite@plt+0x5bc3>
  406c9a:	48 83 7c 24 78 10    	cmp    QWORD PTR [rsp+0x78],0x10
  406ca0:	0f 83 db 01 00 00    	jae    406e81 <fwrite@plt+0x5d31>
  406ca6:	48 8b 44 24 68       	mov    rax,QWORD PTR [rsp+0x68]
  406cab:	4c 89 e1             	mov    rcx,r12
  406cae:	48 8b 54 24 10       	mov    rdx,QWORD PTR [rsp+0x10]
  406cb3:	e9 05 04 00 00       	jmp    4070bd <fwrite@plt+0x5f6d>
  406cb8:	48 8b 8c 24 50 01 00 	mov    rcx,QWORD PTR [rsp+0x150]
  406cbf:	00 
  406cc0:	48 8b 54 24 10       	mov    rdx,QWORD PTR [rsp+0x10]
  406cc5:	48 8d 04 0a          	lea    rax,[rdx+rcx*1]
  406cc9:	49 39 c4             	cmp    r12,rax
  406ccc:	0f 83 e3 01 00 00    	jae    406eb5 <fwrite@plt+0x5d65>
  406cd2:	49 8d 04 0c          	lea    rax,[r12+rcx*1]
  406cd6:	48 39 c2             	cmp    rdx,rax
  406cd9:	0f 83 d6 01 00 00    	jae    406eb5 <fwrite@plt+0x5d65>
  406cdf:	48 89 d0             	mov    rax,rdx
  406ce2:	4c 89 e1             	mov    rcx,r12
  406ce5:	48 8b 54 24 50       	mov    rdx,QWORD PTR [rsp+0x50]
  406cea:	48 83 c2 01          	add    rdx,0x1
  406cee:	31 f6                	xor    esi,esi
  406cf0:	48 8b 3c 31          	mov    rdi,QWORD PTR [rcx+rsi*1]
  406cf4:	48 8b 2c 30          	mov    rbp,QWORD PTR [rax+rsi*1]
  406cf8:	48 89 2c 31          	mov    QWORD PTR [rcx+rsi*1],rbp
  406cfc:	48 89 3c 30          	mov    QWORD PTR [rax+rsi*1],rdi
  406d00:	48 83 c6 08          	add    rsi,0x8
  406d04:	48 83 c2 ff          	add    rdx,0xffffffffffffffff
  406d08:	48 83 fa 01          	cmp    rdx,0x1
  406d0c:	7f e2                	jg     406cf0 <fwrite@plt+0x5ba0>
  406d0e:	e9 ad f2 ff ff       	jmp    405fc0 <fwrite@plt+0x4e70>
  406d13:	48 8b 44 24 70       	mov    rax,QWORD PTR [rsp+0x70]
  406d18:	4c 89 e7             	mov    rdi,r12
  406d1b:	48 8b 4c 24 10       	mov    rcx,QWORD PTR [rsp+0x10]
  406d20:	48 89 ca             	mov    rdx,rcx
  406d23:	48 8b 6c 24 30       	mov    rbp,QWORD PTR [rsp+0x30]
  406d28:	48 83 fd 3f          	cmp    rbp,0x3f
  406d2c:	0f 86 26 01 00 00    	jbe    406e58 <fwrite@plt+0x5d08>
  406d32:	48 8d 04 29          	lea    rax,[rcx+rbp*1]
  406d36:	49 39 c4             	cmp    r12,rax
  406d39:	73 18                	jae    406d53 <fwrite@plt+0x5c03>
  406d3b:	49 8d 34 2c          	lea    rsi,[r12+rbp*1]
  406d3f:	48 8b 44 24 70       	mov    rax,QWORD PTR [rsp+0x70]
  406d44:	4c 89 e7             	mov    rdi,r12
  406d47:	48 89 ca             	mov    rdx,rcx
  406d4a:	48 39 f1             	cmp    rcx,rsi
  406d4d:	0f 82 05 01 00 00    	jb     406e58 <fwrite@plt+0x5d08>
  406d53:	48 83 bc 24 f8 00 00 	cmp    QWORD PTR [rsp+0xf8],0x0
  406d5a:	00 00 
  406d5c:	0f 84 a2 03 00 00    	je     407104 <fwrite@plt+0x5fb4>
  406d62:	48 8b 8c 24 e0 00 00 	mov    rcx,QWORD PTR [rsp+0xe0]
  406d69:	00 
  406d6a:	31 c0                	xor    eax,eax
  406d6c:	48 8b 54 24 10       	mov    rdx,QWORD PTR [rsp+0x10]
  406d71:	66 2e 0f 1f 84 00 00 	cs nop WORD PTR [rax+rax*1+0x0]
  406d78:	00 00 00 
  406d7b:	0f 1f 44 00 00       	nop    DWORD PTR [rax+rax*1+0x0]
  406d80:	c4 c1 7c 10 04 04    	vmovups ymm0,YMMWORD PTR [r12+rax*1]
  406d86:	c4 c1 7c 10 4c 04 20 	vmovups ymm1,YMMWORD PTR [r12+rax*1+0x20]
  406d8d:	c5 fc 10 14 02       	vmovups ymm2,YMMWORD PTR [rdx+rax*1]
  406d92:	c5 fc 10 5c 02 20    	vmovups ymm3,YMMWORD PTR [rdx+rax*1+0x20]
  406d98:	c4 c1 7c 11 14 04    	vmovups YMMWORD PTR [r12+rax*1],ymm2
  406d9e:	c4 c1 7c 11 5c 04 20 	vmovups YMMWORD PTR [r12+rax*1+0x20],ymm3
  406da5:	c5 fc 11 04 02       	vmovups YMMWORD PTR [rdx+rax*1],ymm0
  406daa:	c5 fc 11 4c 02 20    	vmovups YMMWORD PTR [rdx+rax*1+0x20],ymm1
  406db0:	c4 c1 7e 6f 44 04 40 	vmovdqu ymm0,YMMWORD PTR [r12+rax*1+0x40]
  406db7:	c4 c1 7e 6f 4c 04 60 	vmovdqu ymm1,YMMWORD PTR [r12+rax*1+0x60]
  406dbe:	c5 fe 6f 54 02 40    	vmovdqu ymm2,YMMWORD PTR [rdx+rax*1+0x40]
  406dc4:	c5 fe 6f 5c 02 60    	vmovdqu ymm3,YMMWORD PTR [rdx+rax*1+0x60]
  406dca:	c4 c1 7e 7f 54 04 40 	vmovdqu YMMWORD PTR [r12+rax*1+0x40],ymm2
  406dd1:	c4 c1 7e 7f 5c 04 60 	vmovdqu YMMWORD PTR [r12+rax*1+0x60],ymm3
  406dd8:	c5 fe 7f 44 02 40    	vmovdqu YMMWORD PTR [rdx+rax*1+0x40],ymm0
  406dde:	c5 fe 7f 4c 02 60    	vmovdqu YMMWORD PTR [rdx+rax*1+0x60],ymm1
  406de4:	48 83 e8 80          	sub    rax,0xffffffffffffff80
  406de8:	48 83 c1 02          	add    rcx,0x2
  406dec:	75 92                	jne    406d80 <fwrite@plt+0x5c30>
  406dee:	f6 84 24 20 01 00 00 	test   BYTE PTR [rsp+0x120],0x1
  406df5:	01 
  406df6:	74 35                	je     406e2d <fwrite@plt+0x5cdd>
  406df8:	c4 c1 7e 6f 04 04    	vmovdqu ymm0,YMMWORD PTR [r12+rax*1]
  406dfe:	c4 c1 7e 6f 4c 04 20 	vmovdqu ymm1,YMMWORD PTR [r12+rax*1+0x20]
  406e05:	48 8b 4c 24 10       	mov    rcx,QWORD PTR [rsp+0x10]
  406e0a:	c5 fe 6f 14 01       	vmovdqu ymm2,YMMWORD PTR [rcx+rax*1]
  406e0f:	c5 fe 6f 5c 01 20    	vmovdqu ymm3,YMMWORD PTR [rcx+rax*1+0x20]
  406e15:	c4 c1 7e 7f 14 04    	vmovdqu YMMWORD PTR [r12+rax*1],ymm2
  406e1b:	c4 c1 7e 7f 5c 04 20 	vmovdqu YMMWORD PTR [r12+rax*1+0x20],ymm3
  406e22:	c5 fe 7f 04 01       	vmovdqu YMMWORD PTR [rcx+rax*1],ymm0
  406e27:	c5 fe 7f 4c 01 20    	vmovdqu YMMWORD PTR [rcx+rax*1+0x20],ymm1
  406e2d:	48 3b ac 24 08 01 00 	cmp    rbp,QWORD PTR [rsp+0x108]
  406e34:	00 
  406e35:	0f 84 85 f1 ff ff    	je     405fc0 <fwrite@plt+0x4e70>
  406e3b:	48 8b 84 24 c8 00 00 	mov    rax,QWORD PTR [rsp+0xc8]
  406e42:	00 
  406e43:	49 8d 3c 04          	lea    rdi,[r12+rax*1]
  406e47:	48 8b 4c 24 10       	mov    rcx,QWORD PTR [rsp+0x10]
  406e4c:	48 8d 14 01          	lea    rdx,[rcx+rax*1]
  406e50:	48 8b 84 24 b8 00 00 	mov    rax,QWORD PTR [rsp+0xb8]
  406e57:	00 
  406e58:	48 83 c0 01          	add    rax,0x1
  406e5c:	31 f6                	xor    esi,esi
  406e5e:	66 90                	xchg   ax,ax
  406e60:	0f b6 1c 37          	movzx  ebx,BYTE PTR [rdi+rsi*1]
  406e64:	0f b6 0c 32          	movzx  ecx,BYTE PTR [rdx+rsi*1]
  406e68:	88 0c 37             	mov    BYTE PTR [rdi+rsi*1],cl
  406e6b:	88 1c 32             	mov    BYTE PTR [rdx+rsi*1],bl
  406e6e:	48 83 c0 ff          	add    rax,0xffffffffffffffff
  406e72:	48 83 c6 01          	add    rsi,0x1
  406e76:	48 83 f8 01          	cmp    rax,0x1
  406e7a:	7f e4                	jg     406e60 <fwrite@plt+0x5d10>
  406e7c:	e9 3f f1 ff ff       	jmp    405fc0 <fwrite@plt+0x4e70>
  406e81:	48 8b 8c 24 78 01 00 	mov    rcx,QWORD PTR [rsp+0x178]
  406e88:	00 
  406e89:	48 8b 54 24 10       	mov    rdx,QWORD PTR [rsp+0x10]
  406e8e:	48 8d 04 0a          	lea    rax,[rdx+rcx*1]
  406e92:	49 39 c4             	cmp    r12,rax
  406e95:	0f 83 27 01 00 00    	jae    406fc2 <fwrite@plt+0x5e72>
  406e9b:	49 8d 04 0c          	lea    rax,[r12+rcx*1]
  406e9f:	48 39 c2             	cmp    rdx,rax
  406ea2:	0f 83 1a 01 00 00    	jae    406fc2 <fwrite@plt+0x5e72>
  406ea8:	48 8b 44 24 68       	mov    rax,QWORD PTR [rsp+0x68]
  406ead:	4c 89 e1             	mov    rcx,r12
  406eb0:	e9 08 02 00 00       	jmp    4070bd <fwrite@plt+0x5f6d>
  406eb5:	48 83 bc 24 a8 00 00 	cmp    QWORD PTR [rsp+0xa8],0x0
  406ebc:	00 00 
  406ebe:	0f 84 2b 02 00 00    	je     4070ef <fwrite@plt+0x5f9f>
  406ec4:	48 8b 8c 24 18 01 00 	mov    rcx,QWORD PTR [rsp+0x118]
  406ecb:	00 
  406ecc:	31 c0                	xor    eax,eax
  406ece:	48 8b 54 24 10       	mov    rdx,QWORD PTR [rsp+0x10]
  406ed3:	66 2e 0f 1f 84 00 00 	cs nop WORD PTR [rax+rax*1+0x0]
  406eda:	00 00 00 
  406edd:	0f 1f 00             	nop    DWORD PTR [rax]
  406ee0:	c4 c1 7c 10 04 c4    	vmovups ymm0,YMMWORD PTR [r12+rax*8]
  406ee6:	c4 c1 7c 10 4c c4 20 	vmovups ymm1,YMMWORD PTR [r12+rax*8+0x20]
  406eed:	c5 fc 10 14 c2       	vmovups ymm2,YMMWORD PTR [rdx+rax*8]
  406ef2:	c5 fc 10 5c c2 20    	vmovups ymm3,YMMWORD PTR [rdx+rax*8+0x20]
  406ef8:	c4 c1 7c 11 14 c4    	vmovups YMMWORD PTR [r12+rax*8],ymm2
  406efe:	c4 c1 7c 11 5c c4 20 	vmovups YMMWORD PTR [r12+rax*8+0x20],ymm3
  406f05:	c5 fc 11 04 c2       	vmovups YMMWORD PTR [rdx+rax*8],ymm0
  406f0a:	c5 fc 11 4c c2 20    	vmovups YMMWORD PTR [rdx+rax*8+0x20],ymm1
  406f10:	c4 c1 7e 6f 44 c4 40 	vmovdqu ymm0,YMMWORD PTR [r12+rax*8+0x40]
  406f17:	c4 c1 7e 6f 4c c4 60 	vmovdqu ymm1,YMMWORD PTR [r12+rax*8+0x60]
  406f1e:	c5 fe 6f 54 c2 40    	vmovdqu ymm2,YMMWORD PTR [rdx+rax*8+0x40]
  406f24:	c5 fe 6f 5c c2 60    	vmovdqu ymm3,YMMWORD PTR [rdx+rax*8+0x60]
  406f2a:	c4 c1 7e 7f 54 c4 40 	vmovdqu YMMWORD PTR [r12+rax*8+0x40],ymm2
  406f31:	c4 c1 7e 7f 5c c4 60 	vmovdqu YMMWORD PTR [r12+rax*8+0x60],ymm3
  406f38:	c5 fe 7f 44 c2 40    	vmovdqu YMMWORD PTR [rdx+rax*8+0x40],ymm0
  406f3e:	c5 fe 7f 4c c2 60    	vmovdqu YMMWORD PTR [rdx+rax*8+0x60],ymm1
  406f44:	48 83 c0 10          	add    rax,0x10
  406f48:	48 83 c1 02          	add    rcx,0x2
  406f4c:	75 92                	jne    406ee0 <fwrite@plt+0x5d90>
  406f4e:	f6 84 24 30 01 00 00 	test   BYTE PTR [rsp+0x130],0x1
  406f55:	01 
  406f56:	74 35                	je     406f8d <fwrite@plt+0x5e3d>
  406f58:	c4 c1 7e 6f 04 c4    	vmovdqu ymm0,YMMWORD PTR [r12+rax*8]
  406f5e:	c4 c1 7e 6f 4c c4 20 	vmovdqu ymm1,YMMWORD PTR [r12+rax*8+0x20]
  406f65:	48 8b 4c 24 10       	mov    rcx,QWORD PTR [rsp+0x10]
  406f6a:	c5 fe 6f 14 c1       	vmovdqu ymm2,YMMWORD PTR [rcx+rax*8]
  406f6f:	c5 fe 6f 5c c1 20    	vmovdqu ymm3,YMMWORD PTR [rcx+rax*8+0x20]
  406f75:	c4 c1 7e 7f 14 c4    	vmovdqu YMMWORD PTR [r12+rax*8],ymm2
  406f7b:	c4 c1 7e 7f 5c c4 20 	vmovdqu YMMWORD PTR [r12+rax*8+0x20],ymm3
  406f82:	c5 fe 7f 04 c1       	vmovdqu YMMWORD PTR [rcx+rax*8],ymm0
  406f87:	c5 fe 7f 4c c1 20    	vmovdqu YMMWORD PTR [rcx+rax*8+0x20],ymm1
  406f8d:	48 8b 84 24 a0 00 00 	mov    rax,QWORD PTR [rsp+0xa0]
  406f94:	00 
  406f95:	48 39 44 24 58       	cmp    QWORD PTR [rsp+0x58],rax
  406f9a:	0f 84 20 f0 ff ff    	je     405fc0 <fwrite@plt+0x4e70>
  406fa0:	48 8b 8c 24 00 01 00 	mov    rcx,QWORD PTR [rsp+0x100]
  406fa7:	00 
  406fa8:	48 8b 44 24 10       	mov    rax,QWORD PTR [rsp+0x10]
  406fad:	48 8d 04 c8          	lea    rax,[rax+rcx*8]
  406fb1:	49 8d 0c cc          	lea    rcx,[r12+rcx*8]
  406fb5:	48 8b 94 24 e8 00 00 	mov    rdx,QWORD PTR [rsp+0xe8]
  406fbc:	00 
  406fbd:	e9 28 fd ff ff       	jmp    406cea <fwrite@plt+0x5b9a>
  406fc2:	48 83 bc 24 f0 00 00 	cmp    QWORD PTR [rsp+0xf0],0x0
  406fc9:	00 00 
  406fcb:	0f 84 48 01 00 00    	je     407119 <fwrite@plt+0x5fc9>
  406fd1:	48 8b 8c 24 d8 00 00 	mov    rcx,QWORD PTR [rsp+0xd8]
  406fd8:	00 
  406fd9:	31 c0                	xor    eax,eax
  406fdb:	48 8b 54 24 10       	mov    rdx,QWORD PTR [rsp+0x10]
  406fe0:	c4 c1 7c 10 04 84    	vmovups ymm0,YMMWORD PTR [r12+rax*4]
  406fe6:	c4 c1 7c 10 4c 84 20 	vmovups ymm1,YMMWORD PTR [r12+rax*4+0x20]
  406fed:	c5 fc 10 14 82       	vmovups ymm2,YMMWORD PTR [rdx+rax*4]
  406ff2:	c5 fc 10 5c 82 20    	vmovups ymm3,YMMWORD PTR [rdx+rax*4+0x20]
  406ff8:	c4 c1 7c 11 14 84    	vmovups YMMWORD PTR [r12+rax*4],ymm2
  406ffe:	c4 c1 7c 11 5c 84 20 	vmovups YMMWORD PTR [r12+rax*4+0x20],ymm3
  407005:	c5 fc 11 04 82       	vmovups YMMWORD PTR [rdx+rax*4],ymm0
  40700a:	c5 fc 11 4c 82 20    	vmovups YMMWORD PTR [rdx+rax*4+0x20],ymm1
  407010:	c4 c1 7e 6f 44 84 40 	vmovdqu ymm0,YMMWORD PTR [r12+rax*4+0x40]
  407017:	c4 c1 7e 6f 4c 84 60 	vmovdqu ymm1,YMMWORD PTR [r12+rax*4+0x60]
  40701e:	c5 fe 6f 54 82 40    	vmovdqu ymm2,YMMWORD PTR [rdx+rax*4+0x40]
  407024:	c5 fe 6f 5c 82 60    	vmovdqu ymm3,YMMWORD PTR [rdx+rax*4+0x60]
  40702a:	c4 c1 7e 7f 54 84 40 	vmovdqu YMMWORD PTR [r12+rax*4+0x40],ymm2
  407031:	c4 c1 7e 7f 5c 84 60 	vmovdqu YMMWORD PTR [r12+rax*4+0x60],ymm3
  407038:	c5 fe 7f 44 82 40    	vmovdqu YMMWORD PTR [rdx+rax*4+0x40],ymm0
  40703e:	c5 fe 7f 4c 82 60    	vmovdqu YMMWORD PTR [rdx+rax*4+0x60],ymm1
  407044:	48 83 c0 20          	add    rax,0x20
  407048:	48 83 c1 02          	add    rcx,0x2
  40704c:	75 92                	jne    406fe0 <fwrite@plt+0x5e90>
  40704e:	f6 84 24 28 01 00 00 	test   BYTE PTR [rsp+0x128],0x1
  407055:	01 
  407056:	74 35                	je     40708d <fwrite@plt+0x5f3d>
  407058:	c4 c1 7e 6f 04 84    	vmovdqu ymm0,YMMWORD PTR [r12+rax*4]
  40705e:	c4 c1 7e 6f 4c 84 20 	vmovdqu ymm1,YMMWORD PTR [r12+rax*4+0x20]
  407065:	48 8b 4c 24 10       	mov    rcx,QWORD PTR [rsp+0x10]
  40706a:	c5 fe 6f 14 81       	vmovdqu ymm2,YMMWORD PTR [rcx+rax*4]
  40706f:	c5 fe 6f 5c 81 20    	vmovdqu ymm3,YMMWORD PTR [rcx+rax*4+0x20]
  407075:	c4 c1 7e 7f 14 84    	vmovdqu YMMWORD PTR [r12+rax*4],ymm2
  40707b:	c4 c1 7e 7f 5c 84 20 	vmovdqu YMMWORD PTR [r12+rax*4+0x20],ymm3
  407082:	c5 fe 7f 04 81       	vmovdqu YMMWORD PTR [rcx+rax*4],ymm0
  407087:	c5 fe 7f 4c 81 20    	vmovdqu YMMWORD PTR [rcx+rax*4+0x20],ymm1
  40708d:	48 8b 84 24 10 01 00 	mov    rax,QWORD PTR [rsp+0x110]
  407094:	00 
  407095:	48 39 44 24 78       	cmp    QWORD PTR [rsp+0x78],rax
  40709a:	0f 84 20 ef ff ff    	je     405fc0 <fwrite@plt+0x4e70>
  4070a0:	48 8b 84 24 d0 00 00 	mov    rax,QWORD PTR [rsp+0xd0]
  4070a7:	00 
  4070a8:	49 8d 0c 84          	lea    rcx,[r12+rax*4]
  4070ac:	48 8b 54 24 10       	mov    rdx,QWORD PTR [rsp+0x10]
  4070b1:	48 8d 14 82          	lea    rdx,[rdx+rax*4]
  4070b5:	48 8b 84 24 c0 00 00 	mov    rax,QWORD PTR [rsp+0xc0]
  4070bc:	00 
  4070bd:	48 83 c0 01          	add    rax,0x1
  4070c1:	31 f6                	xor    esi,esi
  4070c3:	66 2e 0f 1f 84 00 00 	cs nop WORD PTR [rax+rax*1+0x0]
  4070ca:	00 00 00 
  4070cd:	0f 1f 00             	nop    DWORD PTR [rax]
  4070d0:	8b 3c 31             	mov    edi,DWORD PTR [rcx+rsi*1]
  4070d3:	8b 2c 32             	mov    ebp,DWORD PTR [rdx+rsi*1]
  4070d6:	89 2c 31             	mov    DWORD PTR [rcx+rsi*1],ebp
  4070d9:	89 3c 32             	mov    DWORD PTR [rdx+rsi*1],edi
  4070dc:	48 83 c0 ff          	add    rax,0xffffffffffffffff
  4070e0:	48 83 c6 04          	add    rsi,0x4
  4070e4:	48 83 f8 01          	cmp    rax,0x1
  4070e8:	7f e6                	jg     4070d0 <fwrite@plt+0x5f80>
  4070ea:	e9 d1 ee ff ff       	jmp    405fc0 <fwrite@plt+0x4e70>
  4070ef:	31 c0                	xor    eax,eax
  4070f1:	f6 84 24 30 01 00 00 	test   BYTE PTR [rsp+0x130],0x1
  4070f8:	01 
  4070f9:	0f 85 59 fe ff ff    	jne    406f58 <fwrite@plt+0x5e08>
  4070ff:	e9 89 fe ff ff       	jmp    406f8d <fwrite@plt+0x5e3d>
  407104:	31 c0                	xor    eax,eax
  407106:	f6 84 24 20 01 00 00 	test   BYTE PTR [rsp+0x120],0x1
  40710d:	01 
  40710e:	0f 85 e4 fc ff ff    	jne    406df8 <fwrite@plt+0x5ca8>
  407114:	e9 14 fd ff ff       	jmp    406e2d <fwrite@plt+0x5cdd>
  407119:	31 c0                	xor    eax,eax
  40711b:	f6 84 24 28 01 00 00 	test   BYTE PTR [rsp+0x128],0x1
  407122:	01 
  407123:	0f 85 2f ff ff ff    	jne    407058 <fwrite@plt+0x5f08>
  407129:	e9 5f ff ff ff       	jmp    40708d <fwrite@plt+0x5f3d>
  40712e:	48 89 cf             	mov    rdi,rcx
  407131:	4c 8b 44 24 40       	mov    r8,QWORD PTR [rsp+0x40]
  407136:	66 2e 0f 1f 84 00 00 	cs nop WORD PTR [rax+rax*1+0x0]
  40713d:	00 00 00 
  407140:	48 8b 4c 24 60       	mov    rcx,QWORD PTR [rsp+0x60]
  407145:	48 8b 84 24 b0 00 00 	mov    rax,QWORD PTR [rsp+0xb0]
  40714c:	00 
  40714d:	48 0f af c1          	imul   rax,rcx
  407151:	49 89 c6             	mov    r14,rax
  407154:	49 8d 04 02          	lea    rax,[r10+rax*1]
  407158:	48 89 44 24 10       	mov    QWORD PTR [rsp+0x10],rax
  40715d:	83 bc 24 88 00 00 00 	cmp    DWORD PTR [rsp+0x88],0x0
  407164:	00 
  407165:	0f 84 f9 14 00 00    	je     408664 <fwrite@plt+0x7514>
  40716b:	49 89 fc             	mov    r12,rdi
  40716e:	4c 89 e8             	mov    rax,r13
  407171:	48 8b 6c 24 28       	mov    rbp,QWORD PTR [rsp+0x28]
  407176:	48 29 e8             	sub    rax,rbp
  407179:	4c 29 d5             	sub    rbp,r10
  40717c:	48 39 c5             	cmp    rbp,rax
  40717f:	48 0f 4f e8          	cmovg  rbp,rax
  407183:	48 85 ed             	test   rbp,rbp
  407186:	44 8b bc 24 68 01 00 	mov    r15d,DWORD PTR [rsp+0x168]
  40718d:	00 
  40718e:	0f 84 4c 05 00 00    	je     4076e0 <fwrite@plt+0x6590>
  407194:	48 89 ee             	mov    rsi,rbp
  407197:	48 f7 de             	neg    rsi
  40719a:	4d 89 eb             	mov    r11,r13
  40719d:	49 29 eb             	sub    r11,rbp
  4071a0:	48 63 d5             	movsxd rdx,ebp
  4071a3:	f6 44 24 0f 01       	test   BYTE PTR [rsp+0xf],0x1
  4071a8:	0f 84 92 00 00 00    	je     407240 <fwrite@plt+0x60f0>
  4071ae:	48 c1 ea 03          	shr    rdx,0x3
  4071b2:	48 83 fa 01          	cmp    rdx,0x1
  4071b6:	48 89 d7             	mov    rdi,rdx
  4071b9:	48 83 d7 00          	adc    rdi,0x0
  4071bd:	48 83 ff 08          	cmp    rdi,0x8
  4071c1:	72 44                	jb     407207 <fwrite@plt+0x60b7>
  4071c3:	48 85 d2             	test   rdx,rdx
  4071c6:	48 89 e9             	mov    rcx,rbp
  4071c9:	48 bd fe ff ff ff ff 	movabs rbp,0x1ffffffffffffffe
  4071d0:	ff ff 1f 
  4071d3:	48 0f 44 ac 24 40 01 	cmove  rbp,QWORD PTR [rsp+0x140]
  4071da:	00 00 
  4071dc:	48 01 d5             	add    rbp,rdx
  4071df:	48 f7 d1             	not    rcx
  4071e2:	48 8d 1c e9          	lea    rbx,[rcx+rbp*8]
  4071e6:	4c 01 eb             	add    rbx,r13
  4071e9:	48 83 c3 11          	add    rbx,0x11
  4071ed:	49 39 da             	cmp    r10,rbx
  4071f0:	0f 83 1b 01 00 00    	jae    407311 <fwrite@plt+0x61c1>
  4071f6:	49 8d 2c ea          	lea    rbp,[r10+rbp*8]
  4071fa:	48 83 c5 10          	add    rbp,0x10
  4071fe:	49 39 eb             	cmp    r11,rbp
  407201:	0f 83 0a 01 00 00    	jae    407311 <fwrite@plt+0x61c1>
  407207:	4c 89 d6             	mov    rsi,r10
  40720a:	48 83 c2 01          	add    rdx,0x1
  40720e:	31 ff                	xor    edi,edi
  407210:	48 8b 2c 3e          	mov    rbp,QWORD PTR [rsi+rdi*1]
  407214:	49 8b 1c 3b          	mov    rbx,QWORD PTR [r11+rdi*1]
  407218:	48 89 1c 3e          	mov    QWORD PTR [rsi+rdi*1],rbx
  40721c:	49 89 2c 3b          	mov    QWORD PTR [r11+rdi*1],rbp
  407220:	48 83 c7 08          	add    rdi,0x8
  407224:	48 83 c2 ff          	add    rdx,0xffffffffffffffff
  407228:	48 83 fa 01          	cmp    rdx,0x1
  40722c:	7f e2                	jg     407210 <fwrite@plt+0x60c0>
  40722e:	e9 ad 04 00 00       	jmp    4076e0 <fwrite@plt+0x6590>
  407233:	66 2e 0f 1f 84 00 00 	cs nop WORD PTR [rax+rax*1+0x0]
  40723a:	00 00 00 
  40723d:	0f 1f 00             	nop    DWORD PTR [rax]
  407240:	f6 44 24 0e 01       	test   BYTE PTR [rsp+0xe],0x1
  407245:	49 c7 c1 fe ff ff ff 	mov    r9,0xfffffffffffffffe
  40724c:	0f 84 8f 00 00 00    	je     4072e1 <fwrite@plt+0x6191>
  407252:	48 c1 ea 02          	shr    rdx,0x2
  407256:	48 83 fa 01          	cmp    rdx,0x1
  40725a:	48 89 d7             	mov    rdi,rdx
  40725d:	48 83 d7 00          	adc    rdi,0x0
  407261:	48 83 ff 10          	cmp    rdi,0x10
  407265:	72 44                	jb     4072ab <fwrite@plt+0x615b>
  407267:	48 85 d2             	test   rdx,rdx
  40726a:	48 89 e9             	mov    rcx,rbp
  40726d:	48 bd fe ff ff ff ff 	movabs rbp,0x3ffffffffffffffe
  407274:	ff ff 3f 
  407277:	48 0f 44 ac 24 38 01 	cmove  rbp,QWORD PTR [rsp+0x138]
  40727e:	00 00 
  407280:	48 01 d5             	add    rbp,rdx
  407283:	48 f7 d1             	not    rcx
  407286:	48 8d 1c a9          	lea    rbx,[rcx+rbp*4]
  40728a:	4c 01 eb             	add    rbx,r13
  40728d:	48 83 c3 09          	add    rbx,0x9
  407291:	49 39 da             	cmp    r10,rbx
  407294:	0f 83 f4 01 00 00    	jae    40748e <fwrite@plt+0x633e>
  40729a:	49 8d 2c aa          	lea    rbp,[r10+rbp*4]
  40729e:	48 83 c5 08          	add    rbp,0x8
  4072a2:	49 39 eb             	cmp    r11,rbp
  4072a5:	0f 83 e3 01 00 00    	jae    40748e <fwrite@plt+0x633e>
  4072ab:	4c 89 d6             	mov    rsi,r10
  4072ae:	48 83 c2 01          	add    rdx,0x1
  4072b2:	31 ff                	xor    edi,edi
  4072b4:	66 2e 0f 1f 84 00 00 	cs nop WORD PTR [rax+rax*1+0x0]
  4072bb:	00 00 00 
  4072be:	66 90                	xchg   ax,ax
  4072c0:	8b 2c 3e             	mov    ebp,DWORD PTR [rsi+rdi*1]
  4072c3:	41 8b 1c 3b          	mov    ebx,DWORD PTR [r11+rdi*1]
  4072c7:	89 1c 3e             	mov    DWORD PTR [rsi+rdi*1],ebx
  4072ca:	41 89 2c 3b          	mov    DWORD PTR [r11+rdi*1],ebp
  4072ce:	48 83 c2 ff          	add    rdx,0xffffffffffffffff
  4072d2:	48 83 c7 04          	add    rdi,0x4
  4072d6:	48 83 fa 01          	cmp    rdx,0x1
  4072da:	7f e4                	jg     4072c0 <fwrite@plt+0x6170>
  4072dc:	e9 ff 03 00 00       	jmp    4076e0 <fwrite@plt+0x6590>
  4072e1:	48 63 dd             	movsxd rbx,ebp
  4072e4:	48 89 df             	mov    rdi,rbx
  4072e7:	48 f7 d7             	not    rdi
  4072ea:	48 83 ff fd          	cmp    rdi,0xfffffffffffffffd
  4072ee:	49 0f 4e f9          	cmovle rdi,r9
  4072f2:	4c 8d 14 1f          	lea    r10,[rdi+rbx*1]
  4072f6:	49 83 c2 02          	add    r10,0x2
  4072fa:	49 83 fa 3f          	cmp    r10,0x3f
  4072fe:	0f 87 23 01 00 00    	ja     407427 <fwrite@plt+0x62d7>
  407304:	4c 8b 54 24 18       	mov    r10,QWORD PTR [rsp+0x18]
  407309:	4c 89 d6             	mov    rsi,r10
  40730c:	e9 9a 03 00 00       	jmp    4076ab <fwrite@plt+0x655b>
  407311:	48 b9 fe ff ff ff ff 	movabs rcx,0x3ffffffffffffffe
  407318:	ff ff 3f 
  40731b:	4c 8d 49 fa          	lea    r9,[rcx-0x6]
  40731f:	49 21 f9             	and    r9,rdi
  407322:	49 8d 69 f8          	lea    rbp,[r9-0x8]
  407326:	48 89 eb             	mov    rbx,rbp
  407329:	48 c1 eb 03          	shr    rbx,0x3
  40732d:	48 83 c3 01          	add    rbx,0x1
  407331:	41 89 d8             	mov    r8d,ebx
  407334:	41 83 e0 01          	and    r8d,0x1
  407338:	48 85 ed             	test   rbp,rbp
  40733b:	0f 84 bd 09 00 00    	je     407cfe <fwrite@plt+0x6bae>
  407341:	4a 8d 2c 2e          	lea    rbp,[rsi+r13*1]
  407345:	48 83 c5 60          	add    rbp,0x60
  407349:	be 01 00 00 00       	mov    esi,0x1
  40734e:	48 29 de             	sub    rsi,rbx
  407351:	49 8d 1c 30          	lea    rbx,[r8+rsi*1]
  407355:	48 83 c3 ff          	add    rbx,0xffffffffffffffff
  407359:	31 f6                	xor    esi,esi
  40735b:	0f 1f 44 00 00       	nop    DWORD PTR [rax+rax*1+0x0]
  407360:	c4 c1 7c 10 04 f2    	vmovups ymm0,YMMWORD PTR [r10+rsi*8]
  407366:	c4 c1 7c 10 4c f2 20 	vmovups ymm1,YMMWORD PTR [r10+rsi*8+0x20]
  40736d:	c5 fc 10 54 f5 a0    	vmovups ymm2,YMMWORD PTR [rbp+rsi*8-0x60]
  407373:	c5 fc 10 5c f5 c0    	vmovups ymm3,YMMWORD PTR [rbp+rsi*8-0x40]
  407379:	c4 c1 7c 11 14 f2    	vmovups YMMWORD PTR [r10+rsi*8],ymm2
  40737f:	c4 c1 7c 11 5c f2 20 	vmovups YMMWORD PTR [r10+rsi*8+0x20],ymm3
  407386:	c5 fc 11 44 f5 a0    	vmovups YMMWORD PTR [rbp+rsi*8-0x60],ymm0
  40738c:	c5 fc 11 4c f5 c0    	vmovups YMMWORD PTR [rbp+rsi*8-0x40],ymm1
  407392:	c4 c1 7e 6f 44 f2 40 	vmovdqu ymm0,YMMWORD PTR [r10+rsi*8+0x40]
  407399:	c4 c1 7e 6f 4c f2 60 	vmovdqu ymm1,YMMWORD PTR [r10+rsi*8+0x60]
  4073a0:	c5 fe 6f 54 f5 e0    	vmovdqu ymm2,YMMWORD PTR [rbp+rsi*8-0x20]
  4073a6:	c5 fe 6f 5c f5 00    	vmovdqu ymm3,YMMWORD PTR [rbp+rsi*8+0x0]
  4073ac:	c4 c1 7e 7f 54 f2 40 	vmovdqu YMMWORD PTR [r10+rsi*8+0x40],ymm2
  4073b3:	c4 c1 7e 7f 5c f2 60 	vmovdqu YMMWORD PTR [r10+rsi*8+0x60],ymm3
  4073ba:	c5 fe 7f 44 f5 e0    	vmovdqu YMMWORD PTR [rbp+rsi*8-0x20],ymm0
  4073c0:	c5 fe 7f 4c f5 00    	vmovdqu YMMWORD PTR [rbp+rsi*8+0x0],ymm1
  4073c6:	48 83 c6 10          	add    rsi,0x10
  4073ca:	48 83 c3 02          	add    rbx,0x2
  4073ce:	75 90                	jne    407360 <fwrite@plt+0x6210>
  4073d0:	4d 85 c0             	test   r8,r8
  4073d3:	74 34                	je     407409 <fwrite@plt+0x62b9>
  4073d5:	c4 c1 7e 6f 04 f2    	vmovdqu ymm0,YMMWORD PTR [r10+rsi*8]
  4073db:	c4 c1 7e 6f 4c f2 20 	vmovdqu ymm1,YMMWORD PTR [r10+rsi*8+0x20]
  4073e2:	c4 c1 7e 6f 14 f3    	vmovdqu ymm2,YMMWORD PTR [r11+rsi*8]
  4073e8:	c4 c1 7e 6f 5c f3 20 	vmovdqu ymm3,YMMWORD PTR [r11+rsi*8+0x20]
  4073ef:	c4 c1 7e 7f 14 f2    	vmovdqu YMMWORD PTR [r10+rsi*8],ymm2
  4073f5:	c4 c1 7e 7f 5c f2 20 	vmovdqu YMMWORD PTR [r10+rsi*8+0x20],ymm3
  4073fc:	c4 c1 7e 7f 04 f3    	vmovdqu YMMWORD PTR [r11+rsi*8],ymm0
  407402:	c4 c1 7e 7f 4c f3 20 	vmovdqu YMMWORD PTR [r11+rsi*8+0x20],ymm1
  407409:	4c 39 cf             	cmp    rdi,r9
  40740c:	4c 8b 44 24 40       	mov    r8,QWORD PTR [rsp+0x40]
  407411:	0f 84 c9 02 00 00    	je     4076e0 <fwrite@plt+0x6590>
  407417:	4f 8d 1c cb          	lea    r11,[r11+r9*8]
  40741b:	4b 8d 34 ca          	lea    rsi,[r10+r9*8]
  40741f:	4c 29 ca             	sub    rdx,r9
  407422:	e9 e3 fd ff ff       	jmp    40720a <fwrite@plt+0x60ba>
  407427:	48 f7 d5             	not    rbp
  40742a:	48 89 e9             	mov    rcx,rbp
  40742d:	48 c1 e1 20          	shl    rcx,0x20
  407431:	48 bf 00 00 00 00 ff 	movabs rdi,0xffffffff00000000
  407438:	ff ff ff 
  40743b:	48 31 f9             	xor    rcx,rdi
  40743e:	48 c1 f9 20          	sar    rcx,0x20
  407442:	48 89 cb             	mov    rbx,rcx
  407445:	48 f7 d3             	not    rbx
  407448:	48 83 fb fd          	cmp    rbx,0xfffffffffffffffd
  40744c:	49 0f 4e d9          	cmovle rbx,r9
  407450:	48 01 dd             	add    rbp,rbx
  407453:	48 01 cd             	add    rbp,rcx
  407456:	48 8d 3c 2d 03 00 00 	lea    rdi,[rbp*1+0x3]
  40745d:	00 
  40745e:	4c 01 ef             	add    rdi,r13
  407461:	48 8b 6c 24 18       	mov    rbp,QWORD PTR [rsp+0x18]
  407466:	48 39 fd             	cmp    rbp,rdi
  407469:	0f 83 38 01 00 00    	jae    4075a7 <fwrite@plt+0x6457>
  40746f:	48 01 cb             	add    rbx,rcx
  407472:	48 8d 3c 2b          	lea    rdi,[rbx+rbp*1]
  407476:	48 83 c7 02          	add    rdi,0x2
  40747a:	49 39 fb             	cmp    r11,rdi
  40747d:	0f 83 24 01 00 00    	jae    4075a7 <fwrite@plt+0x6457>
  407483:	48 89 ee             	mov    rsi,rbp
  407486:	49 89 ea             	mov    r10,rbp
  407489:	e9 1d 02 00 00       	jmp    4076ab <fwrite@plt+0x655b>
  40748e:	49 89 f9             	mov    r9,rdi
  407491:	48 b9 f0 ff ff ff ff 	movabs rcx,0x7ffffffffffffff0
  407498:	ff ff 7f 
  40749b:	49 21 c9             	and    r9,rcx
  40749e:	49 8d 69 f0          	lea    rbp,[r9-0x10]
  4074a2:	48 89 eb             	mov    rbx,rbp
  4074a5:	48 c1 eb 04          	shr    rbx,0x4
  4074a9:	48 83 c3 01          	add    rbx,0x1
  4074ad:	41 89 d8             	mov    r8d,ebx
  4074b0:	41 83 e0 01          	and    r8d,0x1
  4074b4:	48 85 ed             	test   rbp,rbp
  4074b7:	0f 84 77 08 00 00    	je     407d34 <fwrite@plt+0x6be4>
  4074bd:	4a 8d 2c 2e          	lea    rbp,[rsi+r13*1]
  4074c1:	48 83 c5 60          	add    rbp,0x60
  4074c5:	be 01 00 00 00       	mov    esi,0x1
  4074ca:	48 29 de             	sub    rsi,rbx
  4074cd:	49 8d 1c 30          	lea    rbx,[r8+rsi*1]
  4074d1:	48 83 c3 ff          	add    rbx,0xffffffffffffffff
  4074d5:	31 f6                	xor    esi,esi
  4074d7:	66 0f 1f 84 00 00 00 	nop    WORD PTR [rax+rax*1+0x0]
  4074de:	00 00 
  4074e0:	c4 c1 7c 10 04 b2    	vmovups ymm0,YMMWORD PTR [r10+rsi*4]
  4074e6:	c4 c1 7c 10 4c b2 20 	vmovups ymm1,YMMWORD PTR [r10+rsi*4+0x20]
  4074ed:	c5 fc 10 54 b5 a0    	vmovups ymm2,YMMWORD PTR [rbp+rsi*4-0x60]
  4074f3:	c5 fc 10 5c b5 c0    	vmovups ymm3,YMMWORD PTR [rbp+rsi*4-0x40]
  4074f9:	c4 c1 7c 11 14 b2    	vmovups YMMWORD PTR [r10+rsi*4],ymm2
  4074ff:	c4 c1 7c 11 5c b2 20 	vmovups YMMWORD PTR [r10+rsi*4+0x20],ymm3
  407506:	c5 fc 11 44 b5 a0    	vmovups YMMWORD PTR [rbp+rsi*4-0x60],ymm0
  40750c:	c5 fc 11 4c b5 c0    	vmovups YMMWORD PTR [rbp+rsi*4-0x40],ymm1
  407512:	c4 c1 7e 6f 44 b2 40 	vmovdqu ymm0,YMMWORD PTR [r10+rsi*4+0x40]
  407519:	c4 c1 7e 6f 4c b2 60 	vmovdqu ymm1,YMMWORD PTR [r10+rsi*4+0x60]
  407520:	c5 fe 6f 54 b5 e0    	vmovdqu ymm2,YMMWORD PTR [rbp+rsi*4-0x20]
  407526:	c5 fe 6f 5c b5 00    	vmovdqu ymm3,YMMWORD PTR [rbp+rsi*4+0x0]
  40752c:	c4 c1 7e 7f 54 b2 40 	vmovdqu YMMWORD PTR [r10+rsi*4+0x40],ymm2
  407533:	c4 c1 7e 7f 5c b2 60 	vmovdqu YMMWORD PTR [r10+rsi*4+0x60],ymm3
  40753a:	c5 fe 7f 44 b5 e0    	vmovdqu YMMWORD PTR [rbp+rsi*4-0x20],ymm0
  407540:	c5 fe 7f 4c b5 00    	vmovdqu YMMWORD PTR [rbp+rsi*4+0x0],ymm1
  407546:	48 83 c6 20          	add    rsi,0x20
  40754a:	48 83 c3 02          	add    rbx,0x2
  40754e:	75 90                	jne    4074e0 <fwrite@plt+0x6390>
  407550:	4d 85 c0             	test   r8,r8
  407553:	74 34                	je     407589 <fwrite@plt+0x6439>
  407555:	c4 c1 7e 6f 04 b2    	vmovdqu ymm0,YMMWORD PTR [r10+rsi*4]
  40755b:	c4 c1 7e 6f 4c b2 20 	vmovdqu ymm1,YMMWORD PTR [r10+rsi*4+0x20]
  407562:	c4 c1 7e 6f 14 b3    	vmovdqu ymm2,YMMWORD PTR [r11+rsi*4]
  407568:	c4 c1 7e 6f 5c b3 20 	vmovdqu ymm3,YMMWORD PTR [r11+rsi*4+0x20]
  40756f:	c4 c1 7e 7f 14 b2    	vmovdqu YMMWORD PTR [r10+rsi*4],ymm2
  407575:	c4 c1 7e 7f 5c b2 20 	vmovdqu YMMWORD PTR [r10+rsi*4+0x20],ymm3
  40757c:	c4 c1 7e 7f 04 b3    	vmovdqu YMMWORD PTR [r11+rsi*4],ymm0
  407582:	c4 c1 7e 7f 4c b3 20 	vmovdqu YMMWORD PTR [r11+rsi*4+0x20],ymm1
  407589:	4c 39 cf             	cmp    rdi,r9
  40758c:	4c 8b 44 24 40       	mov    r8,QWORD PTR [rsp+0x40]
  407591:	0f 84 49 01 00 00    	je     4076e0 <fwrite@plt+0x6590>
  407597:	4c 29 ca             	sub    rdx,r9
  40759a:	4b 8d 34 8a          	lea    rsi,[r10+r9*4]
  40759e:	4f 8d 1c 8b          	lea    r11,[r11+r9*4]
  4075a2:	e9 07 fd ff ff       	jmp    4072ae <fwrite@plt+0x615e>
  4075a7:	4d 89 d1             	mov    r9,r10
  4075aa:	49 83 e1 c0          	and    r9,0xffffffffffffffc0
  4075ae:	49 8d 79 c0          	lea    rdi,[r9-0x40]
  4075b2:	48 89 fb             	mov    rbx,rdi
  4075b5:	48 c1 eb 06          	shr    rbx,0x6
  4075b9:	48 83 c3 01          	add    rbx,0x1
  4075bd:	41 89 d8             	mov    r8d,ebx
  4075c0:	41 83 e0 01          	and    r8d,0x1
  4075c4:	48 85 ff             	test   rdi,rdi
  4075c7:	0f 84 77 07 00 00    	je     407d44 <fwrite@plt+0x6bf4>
  4075cd:	4a 8d 2c 2e          	lea    rbp,[rsi+r13*1]
  4075d1:	48 83 c5 60          	add    rbp,0x60
  4075d5:	be 01 00 00 00       	mov    esi,0x1
  4075da:	48 29 de             	sub    rsi,rbx
  4075dd:	49 8d 1c 30          	lea    rbx,[r8+rsi*1]
  4075e1:	48 83 c3 ff          	add    rbx,0xffffffffffffffff
  4075e5:	31 f6                	xor    esi,esi
  4075e7:	48 8b 4c 24 18       	mov    rcx,QWORD PTR [rsp+0x18]
  4075ec:	0f 1f 40 00          	nop    DWORD PTR [rax+0x0]
  4075f0:	c5 fc 10 04 31       	vmovups ymm0,YMMWORD PTR [rcx+rsi*1]
  4075f5:	c5 fc 10 4c 31 20    	vmovups ymm1,YMMWORD PTR [rcx+rsi*1+0x20]
  4075fb:	c5 fc 10 54 35 a0    	vmovups ymm2,YMMWORD PTR [rbp+rsi*1-0x60]
  407601:	c5 fc 10 5c 35 c0    	vmovups ymm3,YMMWORD PTR [rbp+rsi*1-0x40]
  407607:	c5 fc 11 14 31       	vmovups YMMWORD PTR [rcx+rsi*1],ymm2
  40760c:	c5 fc 11 5c 31 20    	vmovups YMMWORD PTR [rcx+rsi*1+0x20],ymm3
  407612:	c5 fc 11 44 35 a0    	vmovups YMMWORD PTR [rbp+rsi*1-0x60],ymm0
  407618:	c5 fc 11 4c 35 c0    	vmovups YMMWORD PTR [rbp+rsi*1-0x40],ymm1
  40761e:	c5 fe 6f 44 31 40    	vmovdqu ymm0,YMMWORD PTR [rcx+rsi*1+0x40]
  407624:	c5 fe 6f 4c 31 60    	vmovdqu ymm1,YMMWORD PTR [rcx+rsi*1+0x60]
  40762a:	c5 fe 6f 54 35 e0    	vmovdqu ymm2,YMMWORD PTR [rbp+rsi*1-0x20]
  407630:	c5 fe 6f 5c 35 00    	vmovdqu ymm3,YMMWORD PTR [rbp+rsi*1+0x0]
  407636:	c5 fe 7f 54 31 40    	vmovdqu YMMWORD PTR [rcx+rsi*1+0x40],ymm2
  40763c:	c5 fe 7f 5c 31 60    	vmovdqu YMMWORD PTR [rcx+rsi*1+0x60],ymm3
  407642:	c5 fe 7f 44 35 e0    	vmovdqu YMMWORD PTR [rbp+rsi*1-0x20],ymm0
  407648:	c5 fe 7f 4c 35 00    	vmovdqu YMMWORD PTR [rbp+rsi*1+0x0],ymm1
  40764e:	48 83 ee 80          	sub    rsi,0xffffffffffffff80
  407652:	48 83 c3 02          	add    rbx,0x2
  407656:	75 98                	jne    4075f0 <fwrite@plt+0x64a0>
  407658:	4d 85 c0             	test   r8,r8
  40765b:	74 35                	je     407692 <fwrite@plt+0x6542>
  40765d:	48 8b 4c 24 18       	mov    rcx,QWORD PTR [rsp+0x18]
  407662:	c5 fe 6f 04 31       	vmovdqu ymm0,YMMWORD PTR [rcx+rsi*1]
  407667:	c5 fe 6f 4c 31 20    	vmovdqu ymm1,YMMWORD PTR [rcx+rsi*1+0x20]
  40766d:	c4 c1 7e 6f 14 33    	vmovdqu ymm2,YMMWORD PTR [r11+rsi*1]
  407673:	c4 c1 7e 6f 5c 33 20 	vmovdqu ymm3,YMMWORD PTR [r11+rsi*1+0x20]
  40767a:	c5 fe 7f 14 31       	vmovdqu YMMWORD PTR [rcx+rsi*1],ymm2
  40767f:	c5 fe 7f 5c 31 20    	vmovdqu YMMWORD PTR [rcx+rsi*1+0x20],ymm3
  407685:	c4 c1 7e 7f 04 33    	vmovdqu YMMWORD PTR [r11+rsi*1],ymm0
  40768b:	c4 c1 7e 7f 4c 33 20 	vmovdqu YMMWORD PTR [r11+rsi*1+0x20],ymm1
  407692:	4d 39 ca             	cmp    r10,r9
  407695:	4c 8b 44 24 40       	mov    r8,QWORD PTR [rsp+0x40]
  40769a:	4c 8b 54 24 18       	mov    r10,QWORD PTR [rsp+0x18]
  40769f:	74 3f                	je     4076e0 <fwrite@plt+0x6590>
  4076a1:	4c 29 ca             	sub    rdx,r9
  4076a4:	4b 8d 34 0a          	lea    rsi,[r10+r9*1]
  4076a8:	4d 01 cb             	add    r11,r9
  4076ab:	48 83 c2 01          	add    rdx,0x1
  4076af:	31 ff                	xor    edi,edi
  4076b1:	66 2e 0f 1f 84 00 00 	cs nop WORD PTR [rax+rax*1+0x0]
  4076b8:	00 00 00 
  4076bb:	0f 1f 44 00 00       	nop    DWORD PTR [rax+rax*1+0x0]
  4076c0:	0f b6 1c 3e          	movzx  ebx,BYTE PTR [rsi+rdi*1]
  4076c4:	41 0f b6 0c 3b       	movzx  ecx,BYTE PTR [r11+rdi*1]
  4076c9:	88 0c 3e             	mov    BYTE PTR [rsi+rdi*1],cl
  4076cc:	41 88 1c 3b          	mov    BYTE PTR [r11+rdi*1],bl
  4076d0:	48 83 c2 ff          	add    rdx,0xffffffffffffffff
  4076d4:	48 83 c7 01          	add    rdi,0x1
  4076d8:	48 83 fa 01          	cmp    rdx,0x1
  4076dc:	7f e2                	jg     4076c0 <fwrite@plt+0x6570>
  4076de:	66 90                	xchg   ax,ax
  4076e0:	48 8b 5c 24 10       	mov    rbx,QWORD PTR [rsp+0x10]
  4076e5:	48 8b 4c 24 20       	mov    rcx,QWORD PTR [rsp+0x20]
  4076ea:	48 29 cb             	sub    rbx,rcx
  4076ed:	4c 29 e1             	sub    rcx,r12
  4076f0:	48 2b 5c 24 60       	sub    rbx,QWORD PTR [rsp+0x60]
  4076f5:	48 39 d9             	cmp    rcx,rbx
  4076f8:	49 89 cc             	mov    r12,rcx
  4076fb:	48 0f 4e d9          	cmovle rbx,rcx
  4076ff:	48 85 db             	test   rbx,rbx
  407702:	0f 84 48 04 00 00    	je     407b50 <fwrite@plt+0x6a00>
  407708:	48 89 de             	mov    rsi,rbx
  40770b:	48 f7 de             	neg    rsi
  40770e:	4c 8b 5c 24 10       	mov    r11,QWORD PTR [rsp+0x10]
  407713:	49 29 db             	sub    r11,rbx
  407716:	48 63 d3             	movsxd rdx,ebx
  407719:	f6 44 24 0f 01       	test   BYTE PTR [rsp+0xf],0x1
  40771e:	0f 84 bc 01 00 00    	je     4078e0 <fwrite@plt+0x6790>
  407724:	48 c1 ea 03          	shr    rdx,0x3
  407728:	48 83 fa 01          	cmp    rdx,0x1
  40772c:	48 89 d7             	mov    rdi,rdx
  40772f:	48 83 d7 00          	adc    rdi,0x0
  407733:	48 83 ff 08          	cmp    rdi,0x8
  407737:	0f 82 63 01 00 00    	jb     4078a0 <fwrite@plt+0x6750>
  40773d:	48 85 d2             	test   rdx,rdx
  407740:	48 bd fe ff ff ff ff 	movabs rbp,0x1ffffffffffffffe
  407747:	ff ff 1f 
  40774a:	48 0f 44 ac 24 40 01 	cmove  rbp,QWORD PTR [rsp+0x140]
  407751:	00 00 
  407753:	48 01 d5             	add    rbp,rdx
  407756:	48 f7 d3             	not    rbx
  407759:	4c 01 f3             	add    rbx,r14
  40775c:	48 8d 1c eb          	lea    rbx,[rbx+rbp*8]
  407760:	4c 01 d3             	add    rbx,r10
  407763:	48 83 c3 11          	add    rbx,0x11
  407767:	49 39 dd             	cmp    r13,rbx
  40776a:	73 14                	jae    407780 <fwrite@plt+0x6630>
  40776c:	48 8d 2c ed 10 00 00 	lea    rbp,[rbp*8+0x10]
  407773:	00 
  407774:	4c 01 ed             	add    rbp,r13
  407777:	49 39 eb             	cmp    r11,rbp
  40777a:	0f 82 20 01 00 00    	jb     4078a0 <fwrite@plt+0x6750>
  407780:	48 b9 fe ff ff ff ff 	movabs rcx,0x3ffffffffffffffe
  407787:	ff ff 3f 
  40778a:	4c 8d 49 fa          	lea    r9,[rcx-0x6]
  40778e:	49 21 f9             	and    r9,rdi
  407791:	49 8d 69 f8          	lea    rbp,[r9-0x8]
  407795:	48 89 eb             	mov    rbx,rbp
  407798:	48 c1 eb 03          	shr    rbx,0x3
  40779c:	48 83 c3 01          	add    rbx,0x1
  4077a0:	41 89 d8             	mov    r8d,ebx
  4077a3:	41 83 e0 01          	and    r8d,0x1
  4077a7:	48 85 ed             	test   rbp,rbp
  4077aa:	0f 84 5e 05 00 00    	je     407d0e <fwrite@plt+0x6bbe>
  4077b0:	4c 01 f6             	add    rsi,r14
  4077b3:	49 8d 2c 32          	lea    rbp,[r10+rsi*1]
  4077b7:	48 83 c5 60          	add    rbp,0x60
  4077bb:	be 01 00 00 00       	mov    esi,0x1
  4077c0:	48 29 de             	sub    rsi,rbx
  4077c3:	49 8d 1c 30          	lea    rbx,[r8+rsi*1]
  4077c7:	48 83 c3 ff          	add    rbx,0xffffffffffffffff
  4077cb:	31 f6                	xor    esi,esi
  4077cd:	0f 1f 00             	nop    DWORD PTR [rax]
  4077d0:	c4 c1 7c 10 44 f5 00 	vmovups ymm0,YMMWORD PTR [r13+rsi*8+0x0]
  4077d7:	c4 c1 7c 10 4c f5 20 	vmovups ymm1,YMMWORD PTR [r13+rsi*8+0x20]
  4077de:	c5 fc 10 54 f5 a0    	vmovups ymm2,YMMWORD PTR [rbp+rsi*8-0x60]
  4077e4:	c5 fc 10 5c f5 c0    	vmovups ymm3,YMMWORD PTR [rbp+rsi*8-0x40]
  4077ea:	c4 c1 7c 11 54 f5 00 	vmovups YMMWORD PTR [r13+rsi*8+0x0],ymm2
  4077f1:	c4 c1 7c 11 5c f5 20 	vmovups YMMWORD PTR [r13+rsi*8+0x20],ymm3
  4077f8:	c5 fc 11 44 f5 a0    	vmovups YMMWORD PTR [rbp+rsi*8-0x60],ymm0
  4077fe:	c5 fc 11 4c f5 c0    	vmovups YMMWORD PTR [rbp+rsi*8-0x40],ymm1
  407804:	c4 c1 7e 6f 44 f5 40 	vmovdqu ymm0,YMMWORD PTR [r13+rsi*8+0x40]
  40780b:	c4 c1 7e 6f 4c f5 60 	vmovdqu ymm1,YMMWORD PTR [r13+rsi*8+0x60]
  407812:	c5 fe 6f 54 f5 e0    	vmovdqu ymm2,YMMWORD PTR [rbp+rsi*8-0x20]
  407818:	c5 fe 6f 5c f5 00    	vmovdqu ymm3,YMMWORD PTR [rbp+rsi*8+0x0]
  40781e:	c4 c1 7e 7f 54 f5 40 	vmovdqu YMMWORD PTR [r13+rsi*8+0x40],ymm2
  407825:	c4 c1 7e 7f 5c f5 60 	vmovdqu YMMWORD PTR [r13+rsi*8+0x60],ymm3
  40782c:	c5 fe 7f 44 f5 e0    	vmovdqu YMMWORD PTR [rbp+rsi*8-0x20],ymm0
  407832:	c5 fe 7f 4c f5 00    	vmovdqu YMMWORD PTR [rbp+rsi*8+0x0],ymm1
  407838:	48 83 c6 10          	add    rsi,0x10
  40783c:	48 83 c3 02          	add    rbx,0x2
  407840:	75 8e                	jne    4077d0 <fwrite@plt+0x6680>
  407842:	4d 85 c0             	test   r8,r8
  407845:	74 36                	je     40787d <fwrite@plt+0x672d>
  407847:	c4 c1 7e 6f 44 f5 00 	vmovdqu ymm0,YMMWORD PTR [r13+rsi*8+0x0]
  40784e:	c4 c1 7e 6f 4c f5 20 	vmovdqu ymm1,YMMWORD PTR [r13+rsi*8+0x20]
  407855:	c4 c1 7e 6f 14 f3    	vmovdqu ymm2,YMMWORD PTR [r11+rsi*8]
  40785b:	c4 c1 7e 6f 5c f3 20 	vmovdqu ymm3,YMMWORD PTR [r11+rsi*8+0x20]
  407862:	c4 c1 7e 7f 54 f5 00 	vmovdqu YMMWORD PTR [r13+rsi*8+0x0],ymm2
  407869:	c4 c1 7e 7f 5c f5 20 	vmovdqu YMMWORD PTR [r13+rsi*8+0x20],ymm3
  407870:	c4 c1 7e 7f 04 f3    	vmovdqu YMMWORD PTR [r11+rsi*8],ymm0
  407876:	c4 c1 7e 7f 4c f3 20 	vmovdqu YMMWORD PTR [r11+rsi*8+0x20],ymm1
  40787d:	4c 39 cf             	cmp    rdi,r9
  407880:	4c 8b 44 24 40       	mov    r8,QWORD PTR [rsp+0x40]
  407885:	0f 84 c5 02 00 00    	je     407b50 <fwrite@plt+0x6a00>
  40788b:	4f 8d 1c cb          	lea    r11,[r11+r9*8]
  40788f:	4f 8d 6c cd 00       	lea    r13,[r13+r9*8+0x0]
  407894:	4c 29 ca             	sub    rdx,r9
  407897:	66 0f 1f 84 00 00 00 	nop    WORD PTR [rax+rax*1+0x0]
  40789e:	00 00 
  4078a0:	48 83 c2 01          	add    rdx,0x1
  4078a4:	31 f6                	xor    esi,esi
  4078a6:	66 2e 0f 1f 84 00 00 	cs nop WORD PTR [rax+rax*1+0x0]
  4078ad:	00 00 00 
  4078b0:	49 8b 7c 35 00       	mov    rdi,QWORD PTR [r13+rsi*1+0x0]
  4078b5:	49 8b 2c 33          	mov    rbp,QWORD PTR [r11+rsi*1]
  4078b9:	49 89 6c 35 00       	mov    QWORD PTR [r13+rsi*1+0x0],rbp
  4078be:	49 89 3c 33          	mov    QWORD PTR [r11+rsi*1],rdi
  4078c2:	48 83 c6 08          	add    rsi,0x8
  4078c6:	48 83 c2 ff          	add    rdx,0xffffffffffffffff
  4078ca:	48 83 fa 01          	cmp    rdx,0x1
  4078ce:	7f e0                	jg     4078b0 <fwrite@plt+0x6760>
  4078d0:	e9 7b 02 00 00       	jmp    407b50 <fwrite@plt+0x6a00>
  4078d5:	66 2e 0f 1f 84 00 00 	cs nop WORD PTR [rax+rax*1+0x0]
  4078dc:	00 00 00 
  4078df:	90                   	nop
  4078e0:	f6 44 24 0e 01       	test   BYTE PTR [rsp+0xe],0x1
  4078e5:	48 c7 c1 fe ff ff ff 	mov    rcx,0xfffffffffffffffe
  4078ec:	0f 84 a3 01 00 00    	je     407a95 <fwrite@plt+0x6945>
  4078f2:	48 c1 ea 02          	shr    rdx,0x2
  4078f6:	48 83 fa 01          	cmp    rdx,0x1
  4078fa:	48 89 d7             	mov    rdi,rdx
  4078fd:	48 83 d7 00          	adc    rdi,0x0
  407901:	48 83 ff 10          	cmp    rdi,0x10
  407905:	0f 82 5c 01 00 00    	jb     407a67 <fwrite@plt+0x6917>
  40790b:	48 85 d2             	test   rdx,rdx
  40790e:	48 bd fe ff ff ff ff 	movabs rbp,0x3ffffffffffffffe
  407915:	ff ff 3f 
  407918:	48 0f 44 ac 24 38 01 	cmove  rbp,QWORD PTR [rsp+0x138]
  40791f:	00 00 
  407921:	48 01 d5             	add    rbp,rdx
  407924:	48 f7 d3             	not    rbx
  407927:	4c 01 f3             	add    rbx,r14
  40792a:	48 8d 1c ab          	lea    rbx,[rbx+rbp*4]
  40792e:	4c 01 d3             	add    rbx,r10
  407931:	48 83 c3 09          	add    rbx,0x9
  407935:	49 39 dd             	cmp    r13,rbx
  407938:	73 14                	jae    40794e <fwrite@plt+0x67fe>
  40793a:	48 8d 2c ad 08 00 00 	lea    rbp,[rbp*4+0x8]
  407941:	00 
  407942:	4c 01 ed             	add    rbp,r13
  407945:	49 39 eb             	cmp    r11,rbp
  407948:	0f 82 19 01 00 00    	jb     407a67 <fwrite@plt+0x6917>
  40794e:	49 89 f9             	mov    r9,rdi
  407951:	48 b9 f0 ff ff ff ff 	movabs rcx,0x7ffffffffffffff0
  407958:	ff ff 7f 
  40795b:	49 21 c9             	and    r9,rcx
  40795e:	49 8d 69 f0          	lea    rbp,[r9-0x10]
  407962:	48 89 eb             	mov    rbx,rbp
  407965:	48 c1 eb 04          	shr    rbx,0x4
  407969:	48 83 c3 01          	add    rbx,0x1
  40796d:	41 89 d8             	mov    r8d,ebx
  407970:	41 83 e0 01          	and    r8d,0x1
  407974:	48 85 ed             	test   rbp,rbp
  407977:	0f 84 d7 03 00 00    	je     407d54 <fwrite@plt+0x6c04>
  40797d:	4c 01 f6             	add    rsi,r14
  407980:	49 8d 2c 32          	lea    rbp,[r10+rsi*1]
  407984:	48 83 c5 60          	add    rbp,0x60
  407988:	be 01 00 00 00       	mov    esi,0x1
  40798d:	48 29 de             	sub    rsi,rbx
  407990:	49 8d 1c 30          	lea    rbx,[r8+rsi*1]
  407994:	48 83 c3 ff          	add    rbx,0xffffffffffffffff
  407998:	31 f6                	xor    esi,esi
  40799a:	66 0f 1f 44 00 00    	nop    WORD PTR [rax+rax*1+0x0]
  4079a0:	c4 c1 7c 10 44 b5 00 	vmovups ymm0,YMMWORD PTR [r13+rsi*4+0x0]
  4079a7:	c4 c1 7c 10 4c b5 20 	vmovups ymm1,YMMWORD PTR [r13+rsi*4+0x20]
  4079ae:	c5 fc 10 54 b5 a0    	vmovups ymm2,YMMWORD PTR [rbp+rsi*4-0x60]
  4079b4:	c5 fc 10 5c b5 c0    	vmovups ymm3,YMMWORD PTR [rbp+rsi*4-0x40]
  4079ba:	c4 c1 7c 11 54 b5 00 	vmovups YMMWORD PTR [r13+rsi*4+0x0],ymm2
  4079c1:	c4 c1 7c 11 5c b5 20 	vmovups YMMWORD PTR [r13+rsi*4+0x20],ymm3
  4079c8:	c5 fc 11 44 b5 a0    	vmovups YMMWORD PTR [rbp+rsi*4-0x60],ymm0
  4079ce:	c5 fc 11 4c b5 c0    	vmovups YMMWORD PTR [rbp+rsi*4-0x40],ymm1
  4079d4:	c4 c1 7e 6f 44 b5 40 	vmovdqu ymm0,YMMWORD PTR [r13+rsi*4+0x40]
  4079db:	c4 c1 7e 6f 4c b5 60 	vmovdqu ymm1,YMMWORD PTR [r13+rsi*4+0x60]
  4079e2:	c5 fe 6f 54 b5 e0    	vmovdqu ymm2,YMMWORD PTR [rbp+rsi*4-0x20]
  4079e8:	c5 fe 6f 5c b5 00    	vmovdqu ymm3,YMMWORD PTR [rbp+rsi*4+0x0]
  4079ee:	c4 c1 7e 7f 54 b5 40 	vmovdqu YMMWORD PTR [r13+rsi*4+0x40],ymm2
  4079f5:	c4 c1 7e 7f 5c b5 60 	vmovdqu YMMWORD PTR [r13+rsi*4+0x60],ymm3
  4079fc:	c5 fe 7f 44 b5 e0    	vmovdqu YMMWORD PTR [rbp+rsi*4-0x20],ymm0
  407a02:	c5 fe 7f 4c b5 00    	vmovdqu YMMWORD PTR [rbp+rsi*4+0x0],ymm1
  407a08:	48 83 c6 20          	add    rsi,0x20
  407a0c:	48 83 c3 02          	add    rbx,0x2
  407a10:	75 8e                	jne    4079a0 <fwrite@plt+0x6850>
  407a12:	4d 85 c0             	test   r8,r8
  407a15:	74 36                	je     407a4d <fwrite@plt+0x68fd>
  407a17:	c4 c1 7e 6f 44 b5 00 	vmovdqu ymm0,YMMWORD PTR [r13+rsi*4+0x0]
  407a1e:	c4 c1 7e 6f 4c b5 20 	vmovdqu ymm1,YMMWORD PTR [r13+rsi*4+0x20]
  407a25:	c4 c1 7e 6f 14 b3    	vmovdqu ymm2,YMMWORD PTR [r11+rsi*4]
  407a2b:	c4 c1 7e 6f 5c b3 20 	vmovdqu ymm3,YMMWORD PTR [r11+rsi*4+0x20]
  407a32:	c4 c1 7e 7f 54 b5 00 	vmovdqu YMMWORD PTR [r13+rsi*4+0x0],ymm2
  407a39:	c4 c1 7e 7f 5c b5 20 	vmovdqu YMMWORD PTR [r13+rsi*4+0x20],ymm3
  407a40:	c4 c1 7e 7f 04 b3    	vmovdqu YMMWORD PTR [r11+rsi*4],ymm0
  407a46:	c4 c1 7e 7f 4c b3 20 	vmovdqu YMMWORD PTR [r11+rsi*4+0x20],ymm1
  407a4d:	4c 39 cf             	cmp    rdi,r9
  407a50:	4c 8b 44 24 40       	mov    r8,QWORD PTR [rsp+0x40]
  407a55:	0f 84 f5 00 00 00    	je     407b50 <fwrite@plt+0x6a00>
  407a5b:	4c 29 ca             	sub    rdx,r9
  407a5e:	4f 8d 6c 8d 00       	lea    r13,[r13+r9*4+0x0]
  407a63:	4f 8d 1c 8b          	lea    r11,[r11+r9*4]
  407a67:	48 83 c2 01          	add    rdx,0x1
  407a6b:	31 f6                	xor    esi,esi
  407a6d:	0f 1f 00             	nop    DWORD PTR [rax]
  407a70:	41 8b 7c 35 00       	mov    edi,DWORD PTR [r13+rsi*1+0x0]
  407a75:	41 8b 2c 33          	mov    ebp,DWORD PTR [r11+rsi*1]
  407a79:	41 89 6c 35 00       	mov    DWORD PTR [r13+rsi*1+0x0],ebp
  407a7e:	41 89 3c 33          	mov    DWORD PTR [r11+rsi*1],edi
  407a82:	48 83 c2 ff          	add    rdx,0xffffffffffffffff
  407a86:	48 83 c6 04          	add    rsi,0x4
  407a8a:	48 83 fa 01          	cmp    rdx,0x1
  407a8e:	7f e0                	jg     407a70 <fwrite@plt+0x6920>
  407a90:	e9 bb 00 00 00       	jmp    407b50 <fwrite@plt+0x6a00>
  407a95:	48 63 eb             	movsxd rbp,ebx
  407a98:	48 89 ef             	mov    rdi,rbp
  407a9b:	48 f7 d7             	not    rdi
  407a9e:	48 83 ff fd          	cmp    rdi,0xfffffffffffffffd
  407aa2:	48 0f 4e f9          	cmovle rdi,rcx
  407aa6:	4c 8d 14 2f          	lea    r10,[rdi+rbp*1]
  407aaa:	49 83 c2 02          	add    r10,0x2
  407aae:	49 83 fa 3f          	cmp    r10,0x3f
  407ab2:	76 5e                	jbe    407b12 <fwrite@plt+0x69c2>
  407ab4:	48 f7 d3             	not    rbx
  407ab7:	48 89 df             	mov    rdi,rbx
  407aba:	48 c1 e7 20          	shl    rdi,0x20
  407abe:	48 bd 00 00 00 00 ff 	movabs rbp,0xffffffff00000000
  407ac5:	ff ff ff 
  407ac8:	48 31 ef             	xor    rdi,rbp
  407acb:	48 c1 ff 20          	sar    rdi,0x20
  407acf:	48 89 fd             	mov    rbp,rdi
  407ad2:	48 f7 d5             	not    rbp
  407ad5:	48 83 fd fd          	cmp    rbp,0xfffffffffffffffd
  407ad9:	48 0f 4e e9          	cmovle rbp,rcx
  407add:	48 01 eb             	add    rbx,rbp
  407ae0:	4c 01 f3             	add    rbx,r14
  407ae3:	48 01 fb             	add    rbx,rdi
  407ae6:	48 8b 4c 24 18       	mov    rcx,QWORD PTR [rsp+0x18]
  407aeb:	48 01 cb             	add    rbx,rcx
  407aee:	48 83 c3 03          	add    rbx,0x3
  407af2:	49 39 dd             	cmp    r13,rbx
  407af5:	0f 83 df 00 00 00    	jae    407bda <fwrite@plt+0x6a8a>
  407afb:	48 01 fd             	add    rbp,rdi
  407afe:	48 8d 3c 2d 02 00 00 	lea    rdi,[rbp*1+0x2]
  407b05:	00 
  407b06:	4c 01 ef             	add    rdi,r13
  407b09:	49 39 fb             	cmp    r11,rdi
  407b0c:	0f 83 c8 00 00 00    	jae    407bda <fwrite@plt+0x6a8a>
  407b12:	4c 8b 54 24 18       	mov    r10,QWORD PTR [rsp+0x18]
  407b17:	48 83 c2 01          	add    rdx,0x1
  407b1b:	31 f6                	xor    esi,esi
  407b1d:	0f 1f 00             	nop    DWORD PTR [rax]
  407b20:	41 0f b6 5c 35 00    	movzx  ebx,BYTE PTR [r13+rsi*1+0x0]
  407b26:	41 0f b6 0c 33       	movzx  ecx,BYTE PTR [r11+rsi*1]
  407b2b:	41 88 4c 35 00       	mov    BYTE PTR [r13+rsi*1+0x0],cl
  407b30:	41 88 1c 33          	mov    BYTE PTR [r11+rsi*1],bl
  407b34:	48 83 c2 ff          	add    rdx,0xffffffffffffffff
  407b38:	48 83 c6 01          	add    rsi,0x1
  407b3c:	48 83 fa 01          	cmp    rdx,0x1
  407b40:	7f de                	jg     407b20 <fwrite@plt+0x69d0>
  407b42:	66 2e 0f 1f 84 00 00 	cs nop WORD PTR [rax+rax*1+0x0]
  407b49:	00 00 00 
  407b4c:	0f 1f 40 00          	nop    DWORD PTR [rax+0x0]
  407b50:	48 8b 6c 24 60       	mov    rbp,QWORD PTR [rsp+0x60]
  407b55:	48 39 e8             	cmp    rax,rbp
  407b58:	76 20                	jbe    407b7a <fwrite@plt+0x6a2a>
  407b5a:	31 d2                	xor    edx,edx
  407b5c:	48 f7 f5             	div    rbp
  407b5f:	4c 89 d7             	mov    rdi,r10
  407b62:	48 89 c6             	mov    rsi,rax
  407b65:	48 89 ea             	mov    rdx,rbp
  407b68:	48 8b 4c 24 38       	mov    rcx,QWORD PTR [rsp+0x38]
  407b6d:	c5 f8 77             	vzeroupper 
  407b70:	e8 8b da ff ff       	call   405600 <fwrite@plt+0x44b0>
  407b75:	4c 8b 44 24 40       	mov    r8,QWORD PTR [rsp+0x40]
  407b7a:	49 39 ec             	cmp    r12,rbp
  407b7d:	0f 86 9e 12 00 00    	jbe    408e21 <fwrite@plt+0x7cd1>
  407b83:	4c 89 e0             	mov    rax,r12
  407b86:	48 8b 74 24 10       	mov    rsi,QWORD PTR [rsp+0x10]
  407b8b:	4c 29 e6             	sub    rsi,r12
  407b8e:	31 d2                	xor    edx,edx
  407b90:	48 f7 f5             	div    rbp
  407b93:	49 89 c4             	mov    r12,rax
  407b96:	48 89 f0             	mov    rax,rsi
  407b99:	48 09 e8             	or     rax,rbp
  407b9c:	a8 07                	test   al,0x7
  407b9e:	0f 94 44 24 0f       	sete   BYTE PTR [rsp+0xf]
  407ba3:	b9 02 00 00 00       	mov    ecx,0x2
  407ba8:	41 0f 44 cf          	cmove  ecx,r15d
  407bac:	89 4c 24 4c          	mov    DWORD PTR [rsp+0x4c],ecx
  407bb0:	a8 03                	test   al,0x3
  407bb2:	0f 94 44 24 0e       	sete   BYTE PTR [rsp+0xe]
  407bb7:	b8 02 00 00 00       	mov    eax,0x2
  407bbc:	0f 44 84 24 60 01 00 	cmove  eax,DWORD PTR [rsp+0x160]
  407bc3:	00 
  407bc4:	89 44 24 48          	mov    DWORD PTR [rsp+0x48],eax
  407bc8:	49 89 f2             	mov    r10,rsi
  407bcb:	49 83 fc 07          	cmp    r12,0x7
  407bcf:	0f 83 0b dd ff ff    	jae    4058e0 <fwrite@plt+0x4790>
  407bd5:	e9 e2 01 00 00       	jmp    407dbc <fwrite@plt+0x6c6c>
  407bda:	4d 89 d1             	mov    r9,r10
  407bdd:	49 83 e1 c0          	and    r9,0xffffffffffffffc0
  407be1:	49 8d 69 c0          	lea    rbp,[r9-0x40]
  407be5:	48 89 ef             	mov    rdi,rbp
  407be8:	48 c1 ef 06          	shr    rdi,0x6
  407bec:	48 83 c7 01          	add    rdi,0x1
  407bf0:	41 89 f8             	mov    r8d,edi
  407bf3:	41 83 e0 01          	and    r8d,0x1
  407bf7:	48 85 ed             	test   rbp,rbp
  407bfa:	0f 84 64 01 00 00    	je     407d64 <fwrite@plt+0x6c14>
  407c00:	4c 01 f6             	add    rsi,r14
  407c03:	48 8b 4c 24 18       	mov    rcx,QWORD PTR [rsp+0x18]
  407c08:	48 8d 2c 31          	lea    rbp,[rcx+rsi*1]
  407c0c:	48 83 c5 60          	add    rbp,0x60
  407c10:	be 01 00 00 00       	mov    esi,0x1
  407c15:	48 29 fe             	sub    rsi,rdi
  407c18:	49 8d 1c 30          	lea    rbx,[r8+rsi*1]
  407c1c:	48 83 c3 ff          	add    rbx,0xffffffffffffffff
  407c20:	31 f6                	xor    esi,esi
  407c22:	66 2e 0f 1f 84 00 00 	cs nop WORD PTR [rax+rax*1+0x0]
  407c29:	00 00 00 
  407c2c:	0f 1f 40 00          	nop    DWORD PTR [rax+0x0]
  407c30:	c4 c1 7c 10 44 35 00 	vmovups ymm0,YMMWORD PTR [r13+rsi*1+0x0]
  407c37:	c4 c1 7c 10 4c 35 20 	vmovups ymm1,YMMWORD PTR [r13+rsi*1+0x20]
  407c3e:	c5 fc 10 54 35 a0    	vmovups ymm2,YMMWORD PTR [rbp+rsi*1-0x60]
  407c44:	c5 fc 10 5c 35 c0    	vmovups ymm3,YMMWORD PTR [rbp+rsi*1-0x40]
  407c4a:	c4 c1 7c 11 54 35 00 	vmovups YMMWORD PTR [r13+rsi*1+0x0],ymm2
  407c51:	c4 c1 7c 11 5c 35 20 	vmovups YMMWORD PTR [r13+rsi*1+0x20],ymm3
  407c58:	c5 fc 11 44 35 a0    	vmovups YMMWORD PTR [rbp+rsi*1-0x60],ymm0
  407c5e:	c5 fc 11 4c 35 c0    	vmovups YMMWORD PTR [rbp+rsi*1-0x40],ymm1
  407c64:	c4 c1 7e 6f 44 35 40 	vmovdqu ymm0,YMMWORD PTR [r13+rsi*1+0x40]
  407c6b:	c4 c1 7e 6f 4c 35 60 	vmovdqu ymm1,YMMWORD PTR [r13+rsi*1+0x60]
  407c72:	c5 fe 6f 54 35 e0    	vmovdqu ymm2,YMMWORD PTR [rbp+rsi*1-0x20]
  407c78:	c5 fe 6f 5c 35 00    	vmovdqu ymm3,YMMWORD PTR [rbp+rsi*1+0x0]
  407c7e:	c4 c1 7e 7f 54 35 40 	vmovdqu YMMWORD PTR [r13+rsi*1+0x40],ymm2
  407c85:	c4 c1 7e 7f 5c 35 60 	vmovdqu YMMWORD PTR [r13+rsi*1+0x60],ymm3
  407c8c:	c5 fe 7f 44 35 e0    	vmovdqu YMMWORD PTR [rbp+rsi*1-0x20],ymm0
  407c92:	c5 fe 7f 4c 35 00    	vmovdqu YMMWORD PTR [rbp+rsi*1+0x0],ymm1
  407c98:	48 83 ee 80          	sub    rsi,0xffffffffffffff80
  407c9c:	48 83 c3 02          	add    rbx,0x2
  407ca0:	75 8e                	jne    407c30 <fwrite@plt+0x6ae0>
  407ca2:	4d 85 c0             	test   r8,r8
  407ca5:	74 36                	je     407cdd <fwrite@plt+0x6b8d>
  407ca7:	c4 c1 7e 6f 44 35 00 	vmovdqu ymm0,YMMWORD PTR [r13+rsi*1+0x0]
  407cae:	c4 c1 7e 6f 4c 35 20 	vmovdqu ymm1,YMMWORD PTR [r13+rsi*1+0x20]
  407cb5:	c4 c1 7e 6f 14 33    	vmovdqu ymm2,YMMWORD PTR [r11+rsi*1]
  407cbb:	c4 c1 7e 6f 5c 33 20 	vmovdqu ymm3,YMMWORD PTR [r11+rsi*1+0x20]
  407cc2:	c4 c1 7e 7f 54 35 00 	vmovdqu YMMWORD PTR [r13+rsi*1+0x0],ymm2
  407cc9:	c4 c1 7e 7f 5c 35 20 	vmovdqu YMMWORD PTR [r13+rsi*1+0x20],ymm3
  407cd0:	c4 c1 7e 7f 04 33    	vmovdqu YMMWORD PTR [r11+rsi*1],ymm0
  407cd6:	c4 c1 7e 7f 4c 33 20 	vmovdqu YMMWORD PTR [r11+rsi*1+0x20],ymm1
  407cdd:	4d 39 ca             	cmp    r10,r9
  407ce0:	4c 8b 44 24 40       	mov    r8,QWORD PTR [rsp+0x40]
  407ce5:	4c 8b 54 24 18       	mov    r10,QWORD PTR [rsp+0x18]
  407cea:	0f 84 60 fe ff ff    	je     407b50 <fwrite@plt+0x6a00>
  407cf0:	4c 29 ca             	sub    rdx,r9
  407cf3:	4d 01 cd             	add    r13,r9
  407cf6:	4d 01 cb             	add    r11,r9
  407cf9:	e9 19 fe ff ff       	jmp    407b17 <fwrite@plt+0x69c7>
  407cfe:	31 f6                	xor    esi,esi
  407d00:	4d 85 c0             	test   r8,r8
  407d03:	0f 85 cc f6 ff ff    	jne    4073d5 <fwrite@plt+0x6285>
  407d09:	e9 fb f6 ff ff       	jmp    407409 <fwrite@plt+0x62b9>
  407d0e:	31 f6                	xor    esi,esi
  407d10:	4d 85 c0             	test   r8,r8
  407d13:	0f 85 2e fb ff ff    	jne    407847 <fwrite@plt+0x66f7>
  407d19:	e9 5f fb ff ff       	jmp    40787d <fwrite@plt+0x672d>
  407d1e:	31 c0                	xor    eax,eax
  407d20:	48 83 bc 24 48 01 00 	cmp    QWORD PTR [rsp+0x148],0x0
  407d27:	00 00 
  407d29:	0f 85 f4 df ff ff    	jne    405d23 <fwrite@plt+0x4bd3>
  407d2f:	e9 25 e0 ff ff       	jmp    405d59 <fwrite@plt+0x4c09>
  407d34:	31 f6                	xor    esi,esi
  407d36:	4d 85 c0             	test   r8,r8
  407d39:	0f 85 16 f8 ff ff    	jne    407555 <fwrite@plt+0x6405>
  407d3f:	e9 45 f8 ff ff       	jmp    407589 <fwrite@plt+0x6439>
  407d44:	31 f6                	xor    esi,esi
  407d46:	4d 85 c0             	test   r8,r8
  407d49:	0f 85 0e f9 ff ff    	jne    40765d <fwrite@plt+0x650d>
  407d4f:	e9 3e f9 ff ff       	jmp    407692 <fwrite@plt+0x6542>
  407d54:	31 f6                	xor    esi,esi
  407d56:	4d 85 c0             	test   r8,r8
  407d59:	0f 85 b8 fc ff ff    	jne    407a17 <fwrite@plt+0x68c7>
  407d5f:	e9 e9 fc ff ff       	jmp    407a4d <fwrite@plt+0x68fd>
  407d64:	31 f6                	xor    esi,esi
  407d66:	4d 85 c0             	test   r8,r8
  407d69:	0f 85 38 ff ff ff    	jne    407ca7 <fwrite@plt+0x6b57>
  407d6f:	e9 69 ff ff ff       	jmp    407cdd <fwrite@plt+0x6b8d>
  407d74:	48 8b 84 24 c8 00 00 	mov    rax,QWORD PTR [rsp+0xc8]
  407d7b:	00 
  407d7c:	49 8d 34 02          	lea    rsi,[r10+rax*1]
  407d80:	49 01 c5             	add    r13,rax
  407d83:	48 8b 8c 24 b8 00 00 	mov    rcx,QWORD PTR [rsp+0xb8]
  407d8a:	00 
  407d8b:	e9 c0 de ff ff       	jmp    405c50 <fwrite@plt+0x4b00>
  407d90:	31 c0                	xor    eax,eax
  407d92:	48 83 bc 24 90 01 00 	cmp    QWORD PTR [rsp+0x190],0x0
  407d99:	00 00 
  407d9b:	0f 85 92 e0 ff ff    	jne    405e33 <fwrite@plt+0x4ce3>
  407da1:	e9 c3 e0 ff ff       	jmp    405e69 <fwrite@plt+0x4d19>
  407da6:	31 c0                	xor    eax,eax
  407da8:	48 83 bc 24 88 01 00 	cmp    QWORD PTR [rsp+0x188],0x0
  407daf:	00 00 
  407db1:	0f 85 8c e1 ff ff    	jne    405f43 <fwrite@plt+0x4df3>
  407db7:	e9 bd e1 ff ff       	jmp    405f79 <fwrite@plt+0x4e29>
  407dbc:	48 89 74 24 10       	mov    QWORD PTR [rsp+0x10],rsi
  407dc1:	4c 0f af e5          	imul   r12,rbp
  407dc5:	49 39 ec             	cmp    r12,rbp
  407dc8:	0f 8e 53 10 00 00    	jle    408e21 <fwrite@plt+0x7cd1>
  407dce:	4c 8b 4c 24 10       	mov    r9,QWORD PTR [rsp+0x10]
  407dd3:	4d 01 cc             	add    r12,r9
  407dd6:	48 63 fd             	movsxd rdi,ebp
  407dd9:	48 89 fb             	mov    rbx,rdi
  407ddc:	48 c1 eb 03          	shr    rbx,0x3
  407de0:	48 89 f8             	mov    rax,rdi
  407de3:	48 c1 e8 02          	shr    rax,0x2
  407de7:	48 b9 fe ff ff ff ff 	movabs rcx,0x1ffffffffffffffe
  407dee:	ff ff 1f 
  407df1:	48 8d 51 01          	lea    rdx,[rcx+0x1]
  407df5:	45 31 d2             	xor    r10d,r10d
  407df8:	48 85 db             	test   rbx,rbx
  407dfb:	41 0f 94 c2          	sete   r10b
  407dff:	48 0f 45 d1          	cmovne rdx,rcx
  407e03:	4d 8d 1c 1a          	lea    r11,[r10+rbx*1]
  407e07:	48 01 da             	add    rdx,rbx
  407e0a:	48 8d 0c d5 10 00 00 	lea    rcx,[rdx*8+0x10]
  407e11:	00 
  407e12:	48 01 e9             	add    rcx,rbp
  407e15:	48 89 8c 24 68 01 00 	mov    QWORD PTR [rsp+0x168],rcx
  407e1c:	00 
  407e1d:	48 8d 0c d5 10 00 00 	lea    rcx,[rdx*8+0x10]
  407e24:	00 
  407e25:	48 89 8c 24 60 01 00 	mov    QWORD PTR [rsp+0x160],rcx
  407e2c:	00 
  407e2d:	44 89 d9             	mov    ecx,r11d
  407e30:	83 e1 07             	and    ecx,0x7
  407e33:	4c 89 da             	mov    rdx,r11
  407e36:	48 29 ca             	sub    rdx,rcx
  407e39:	48 89 94 24 e8 00 00 	mov    QWORD PTR [rsp+0xe8],rdx
  407e40:	00 
  407e41:	48 ba fe ff ff ff ff 	movabs rdx,0x3ffffffffffffffe
  407e48:	ff ff 3f 
  407e4b:	48 8d 72 01          	lea    rsi,[rdx+0x1]
  407e4f:	31 c9                	xor    ecx,ecx
  407e51:	48 85 c0             	test   rax,rax
  407e54:	48 0f 45 f2          	cmovne rsi,rdx
  407e58:	0f 94 c1             	sete   cl
  407e5b:	4c 8d 34 01          	lea    r14,[rcx+rax*1]
  407e5f:	48 01 c6             	add    rsi,rax
  407e62:	48 8d 14 b5 08 00 00 	lea    rdx,[rsi*4+0x8]
  407e69:	00 
  407e6a:	48 01 ea             	add    rdx,rbp
  407e6d:	48 89 94 24 30 01 00 	mov    QWORD PTR [rsp+0x130],rdx
  407e74:	00 
  407e75:	48 8d 14 b5 08 00 00 	lea    rdx,[rsi*4+0x8]
  407e7c:	00 
  407e7d:	48 89 94 24 18 01 00 	mov    QWORD PTR [rsp+0x118],rdx
  407e84:	00 
  407e85:	44 89 f2             	mov    edx,r14d
  407e88:	83 e2 0f             	and    edx,0xf
  407e8b:	4c 89 f6             	mov    rsi,r14
  407e8e:	48 29 d6             	sub    rsi,rdx
  407e91:	48 89 b4 24 38 01 00 	mov    QWORD PTR [rsp+0x138],rsi
  407e98:	00 
  407e99:	48 89 fa             	mov    rdx,rdi
  407e9c:	48 f7 d2             	not    rdx
  407e9f:	48 83 fa fd          	cmp    rdx,0xfffffffffffffffd
  407ea3:	48 c7 c6 fe ff ff ff 	mov    rsi,0xfffffffffffffffe
  407eaa:	48 0f 4f f2          	cmovg  rsi,rdx
  407eae:	ba 02 00 00 00       	mov    edx,0x2
  407eb3:	c4 e1 f9 6e c2       	vmovq  xmm0,rdx
  407eb8:	ba 3f 00 00 00       	mov    edx,0x3f
  407ebd:	c4 e1 f9 6e ca       	vmovq  xmm1,rdx
  407ec2:	48 8d 14 2e          	lea    rdx,[rsi+rbp*1]
  407ec6:	48 8d 54 17 02       	lea    rdx,[rdi+rdx*1+0x2]
  407ecb:	48 89 94 24 10 01 00 	mov    QWORD PTR [rsp+0x110],rdx
  407ed2:	00 
  407ed3:	c4 e1 f9 6e d7       	vmovq  xmm2,rdi
  407ed8:	c5 e9 d4 d0          	vpaddq xmm2,xmm2,xmm0
  407edc:	c4 e1 f9 6e dd       	vmovq  xmm3,rbp
  407ee1:	c5 e1 d4 c0          	vpaddq xmm0,xmm3,xmm0
  407ee5:	c4 e1 f9 6e de       	vmovq  xmm3,rsi
  407eea:	c5 e1 d4 d2          	vpaddq xmm2,xmm3,xmm2
  407eee:	c5 e1 d4 c0          	vpaddq xmm0,xmm3,xmm0
  407ef2:	c5 f9 db c1          	vpand  xmm0,xmm0,xmm1
  407ef6:	c5 e9 fb c0          	vpsubq xmm0,xmm2,xmm0
  407efa:	4c 8d 3c 3e          	lea    r15,[rsi+rdi*1]
  407efe:	49 83 c7 02          	add    r15,0x2
  407f02:	48 01 fe             	add    rsi,rdi
  407f05:	48 83 c6 c2          	add    rsi,0xffffffffffffffc2
  407f09:	48 c1 ee 06          	shr    rsi,0x6
  407f0d:	48 01 c1             	add    rcx,rax
  407f10:	48 83 c1 f0          	add    rcx,0xfffffffffffffff0
  407f14:	48 c1 e9 04          	shr    rcx,0x4
  407f18:	49 8d 14 1a          	lea    rdx,[r10+rbx*1]
  407f1c:	48 83 c2 f8          	add    rdx,0xfffffffffffffff8
  407f20:	48 c1 ea 03          	shr    rdx,0x3
  407f24:	4c 89 9c 24 98 00 00 	mov    QWORD PTR [rsp+0x98],r11
  407f2b:	00 
  407f2c:	49 83 e3 f8          	and    r11,0xfffffffffffffff8
  407f30:	48 89 5c 24 28       	mov    QWORD PTR [rsp+0x28],rbx
  407f35:	4c 89 9c 24 00 01 00 	mov    QWORD PTR [rsp+0x100],r11
  407f3c:	00 
  407f3d:	4c 29 db             	sub    rbx,r11
  407f40:	48 89 9c 24 40 01 00 	mov    QWORD PTR [rsp+0x140],rbx
  407f47:	00 
  407f48:	8d 5a 01             	lea    ebx,[rdx+0x1]
  407f4b:	83 e3 01             	and    ebx,0x1
  407f4e:	4c 89 74 24 50       	mov    QWORD PTR [rsp+0x50],r14
  407f53:	49 83 e6 f0          	and    r14,0xfffffffffffffff0
  407f57:	48 89 84 24 a0 00 00 	mov    QWORD PTR [rsp+0xa0],rax
  407f5e:	00 
  407f5f:	4c 89 b4 24 e0 00 00 	mov    QWORD PTR [rsp+0xe0],r14
  407f66:	00 
  407f67:	4c 29 f0             	sub    rax,r14
  407f6a:	48 89 84 24 58 01 00 	mov    QWORD PTR [rsp+0x158],rax
  407f71:	00 
  407f72:	8d 41 01             	lea    eax,[rcx+0x1]
  407f75:	83 e0 01             	and    eax,0x1
  407f78:	4c 89 7c 24 20       	mov    QWORD PTR [rsp+0x20],r15
  407f7d:	49 83 e7 c0          	and    r15,0xffffffffffffffc0
  407f81:	48 89 bc 24 a8 00 00 	mov    QWORD PTR [rsp+0xa8],rdi
  407f88:	00 
  407f89:	4c 89 bc 24 d0 00 00 	mov    QWORD PTR [rsp+0xd0],r15
  407f90:	00 
  407f91:	4c 29 ff             	sub    rdi,r15
  407f94:	48 89 bc 24 50 01 00 	mov    QWORD PTR [rsp+0x150],rdi
  407f9b:	00 
  407f9c:	8d 7e 01             	lea    edi,[rsi+0x1]
  407f9f:	83 e7 01             	and    edi,0x1
  407fa2:	48 89 bc 24 c8 00 00 	mov    QWORD PTR [rsp+0xc8],rdi
  407fa9:	00 
  407faa:	48 8d 7f ff          	lea    rdi,[rdi-0x1]
  407fae:	48 89 b4 24 28 01 00 	mov    QWORD PTR [rsp+0x128],rsi
  407fb5:	00 
  407fb6:	48 29 f7             	sub    rdi,rsi
  407fb9:	48 89 bc 24 c0 00 00 	mov    QWORD PTR [rsp+0xc0],rdi
  407fc0:	00 
  407fc1:	48 89 84 24 d8 00 00 	mov    QWORD PTR [rsp+0xd8],rax
  407fc8:	00 
  407fc9:	48 8d 40 ff          	lea    rax,[rax-0x1]
  407fcd:	48 89 8c 24 20 01 00 	mov    QWORD PTR [rsp+0x120],rcx
  407fd4:	00 
  407fd5:	48 29 c8             	sub    rax,rcx
  407fd8:	48 89 84 24 b8 00 00 	mov    QWORD PTR [rsp+0xb8],rax
  407fdf:	00 
  407fe0:	48 89 9c 24 f8 00 00 	mov    QWORD PTR [rsp+0xf8],rbx
  407fe7:	00 
  407fe8:	48 8d 43 ff          	lea    rax,[rbx-0x1]
  407fec:	48 89 94 24 08 01 00 	mov    QWORD PTR [rsp+0x108],rdx
  407ff3:	00 
  407ff4:	48 29 d0             	sub    rax,rdx
  407ff7:	48 89 84 24 f0 00 00 	mov    QWORD PTR [rsp+0xf0],rax
  407ffe:	00 
  407fff:	49 8d 0c 29          	lea    rcx,[r9+rbp*1]
  408003:	c5 f9 d6 84 24 48 01 	vmovq  QWORD PTR [rsp+0x148],xmm0
  40800a:	00 00 
  40800c:	49 8d 41 60          	lea    rax,[r9+0x60]
  408010:	48 89 84 24 90 00 00 	mov    QWORD PTR [rsp+0x90],rax
  408017:	00 
  408018:	31 c0                	xor    eax,eax
  40801a:	48 89 84 24 80 00 00 	mov    QWORD PTR [rsp+0x80],rax
  408021:	00 
  408022:	4c 89 a4 24 b0 00 00 	mov    QWORD PTR [rsp+0xb0],r12
  408029:	00 
  40802a:	66 0f 1f 44 00 00    	nop    WORD PTR [rax+rax*1+0x0]
  408030:	48 89 4c 24 30       	mov    QWORD PTR [rsp+0x30],rcx
  408035:	48 3b 4c 24 10       	cmp    rcx,QWORD PTR [rsp+0x10]
  40803a:	0f 86 f0 05 00 00    	jbe    408630 <fwrite@plt+0x74e0>
  408040:	4c 8b b4 24 80 00 00 	mov    r14,QWORD PTR [rsp+0x80]
  408047:	00 
  408048:	48 8b 44 24 60       	mov    rax,QWORD PTR [rsp+0x60]
  40804d:	4c 0f af f0          	imul   r14,rax
  408051:	49 8d 04 06          	lea    rax,[r14+rax*1]
  408055:	48 89 44 24 18       	mov    QWORD PTR [rsp+0x18],rax
  40805a:	48 8b 84 24 10 01 00 	mov    rax,QWORD PTR [rsp+0x110]
  408061:	00 
  408062:	4a 8d 04 30          	lea    rax,[rax+r14*1]
  408066:	48 89 84 24 70 01 00 	mov    QWORD PTR [rsp+0x170],rax
  40806d:	00 
  40806e:	48 8b 44 24 20       	mov    rax,QWORD PTR [rsp+0x20]
  408073:	4a 8d 04 30          	lea    rax,[rax+r14*1]
  408077:	48 89 44 24 78       	mov    QWORD PTR [rsp+0x78],rax
  40807c:	48 8b 84 24 30 01 00 	mov    rax,QWORD PTR [rsp+0x130]
  408083:	00 
  408084:	4a 8d 04 30          	lea    rax,[rax+r14*1]
  408088:	48 89 44 24 68       	mov    QWORD PTR [rsp+0x68],rax
  40808d:	48 8b 84 24 18 01 00 	mov    rax,QWORD PTR [rsp+0x118]
  408094:	00 
  408095:	4a 8d 04 30          	lea    rax,[rax+r14*1]
  408099:	48 89 44 24 70       	mov    QWORD PTR [rsp+0x70],rax
  40809e:	48 8b 84 24 68 01 00 	mov    rax,QWORD PTR [rsp+0x168]
  4080a5:	00 
  4080a6:	4a 8d 04 30          	lea    rax,[rax+r14*1]
  4080aa:	48 89 44 24 58       	mov    QWORD PTR [rsp+0x58],rax
  4080af:	48 8b 84 24 60 01 00 	mov    rax,QWORD PTR [rsp+0x160]
  4080b6:	00 
  4080b7:	4a 8d 04 30          	lea    rax,[rax+r14*1]
  4080bb:	48 89 84 24 88 00 00 	mov    QWORD PTR [rsp+0x88],rax
  4080c2:	00 
  4080c3:	4c 8b bc 24 90 00 00 	mov    r15,QWORD PTR [rsp+0x90]
  4080ca:	00 
  4080cb:	45 31 ed             	xor    r13d,r13d
  4080ce:	4c 8b 64 24 30       	mov    r12,QWORD PTR [rsp+0x30]
  4080d3:	eb 6b                	jmp    408140 <fwrite@plt+0x6ff0>
  4080d5:	31 c0                	xor    eax,eax
  4080d7:	48 83 bc 24 f8 00 00 	cmp    QWORD PTR [rsp+0xf8],0x0
  4080de:	00 00 
  4080e0:	0f 85 f3 02 00 00    	jne    4083d9 <fwrite@plt+0x7289>
  4080e6:	e9 20 03 00 00       	jmp    40840b <fwrite@plt+0x72bb>
  4080eb:	48 8b 84 24 48 01 00 	mov    rax,QWORD PTR [rsp+0x148]
  4080f2:	00 
  4080f3:	48 01 c5             	add    rbp,rax
  4080f6:	49 8d 34 04          	lea    rsi,[r12+rax*1]
  4080fa:	48 8b 84 24 50 01 00 	mov    rax,QWORD PTR [rsp+0x150]
  408101:	00 
  408102:	e9 f6 01 00 00       	jmp    4082fd <fwrite@plt+0x71ad>
  408107:	31 c0                	xor    eax,eax
  408109:	48 83 bc 24 d8 00 00 	cmp    QWORD PTR [rsp+0xd8],0x0
  408110:	00 00 
  408112:	0f 85 c3 03 00 00    	jne    4084db <fwrite@plt+0x738b>
  408118:	e9 f0 03 00 00       	jmp    40850d <fwrite@plt+0x73bd>
  40811d:	31 c0                	xor    eax,eax
  40811f:	48 83 bc 24 c8 00 00 	cmp    QWORD PTR [rsp+0xc8],0x0
  408126:	00 00 
  408128:	0f 85 ad 04 00 00    	jne    4085db <fwrite@plt+0x748b>
  40812e:	e9 da 04 00 00       	jmp    40860d <fwrite@plt+0x74bd>
  408133:	66 2e 0f 1f 84 00 00 	cs nop WORD PTR [rax+rax*1+0x0]
  40813a:	00 00 00 
  40813d:	0f 1f 00             	nop    DWORD PTR [rax]
  408140:	4c 89 e5             	mov    rbp,r12
  408143:	4f 8d 24 04          	lea    r12,[r12+r8*1]
  408147:	4c 89 e7             	mov    rdi,r12
  40814a:	48 89 ee             	mov    rsi,rbp
  40814d:	c5 f8 77             	vzeroupper 
  408150:	ff 54 24 38          	call   QWORD PTR [rsp+0x38]
  408154:	4c 8b 44 24 40       	mov    r8,QWORD PTR [rsp+0x40]
  408159:	85 c0                	test   eax,eax
  40815b:	0f 8e cf 04 00 00    	jle    408630 <fwrite@plt+0x74e0>
  408161:	83 7c 24 4c 00       	cmp    DWORD PTR [rsp+0x4c],0x0
  408166:	0f 84 b4 00 00 00    	je     408220 <fwrite@plt+0x70d0>
  40816c:	83 7c 24 48 00       	cmp    DWORD PTR [rsp+0x48],0x0
  408171:	0f 84 c9 00 00 00    	je     408240 <fwrite@plt+0x70f0>
  408177:	4c 89 e8             	mov    rax,r13
  40817a:	49 0f af c0          	imul   rax,r8
  40817e:	48 8b 4c 24 18       	mov    rcx,QWORD PTR [rsp+0x18]
  408183:	48 8d 14 01          	lea    rdx,[rcx+rax*1]
  408187:	4c 8b 4c 24 10       	mov    r9,QWORD PTR [rsp+0x10]
  40818c:	4c 01 ca             	add    rdx,r9
  40818f:	49 8d 0c 06          	lea    rcx,[r14+rax*1]
  408193:	4c 01 c9             	add    rcx,r9
  408196:	80 7c 24 0f 00       	cmp    BYTE PTR [rsp+0xf],0x0
  40819b:	0f 84 b7 00 00 00    	je     408258 <fwrite@plt+0x7108>
  4081a1:	48 83 bc 24 98 00 00 	cmp    QWORD PTR [rsp+0x98],0x8
  4081a8:	00 08 
  4081aa:	72 29                	jb     4081d5 <fwrite@plt+0x7085>
  4081ac:	48 8b b4 24 88 00 00 	mov    rsi,QWORD PTR [rsp+0x88]
  4081b3:	00 
  4081b4:	48 8d 34 06          	lea    rsi,[rsi+rax*1]
  4081b8:	4c 01 ce             	add    rsi,r9
  4081bb:	48 39 f2             	cmp    rdx,rsi
  4081be:	0f 83 6f 01 00 00    	jae    408333 <fwrite@plt+0x71e3>
  4081c4:	48 03 44 24 58       	add    rax,QWORD PTR [rsp+0x58]
  4081c9:	4c 01 c8             	add    rax,r9
  4081cc:	48 39 c1             	cmp    rcx,rax
  4081cf:	0f 83 5e 01 00 00    	jae    408333 <fwrite@plt+0x71e3>
  4081d5:	4c 89 e0             	mov    rax,r12
  4081d8:	48 8b 4c 24 28       	mov    rcx,QWORD PTR [rsp+0x28]
  4081dd:	48 83 c1 01          	add    rcx,0x1
  4081e1:	31 d2                	xor    edx,edx
  4081e3:	66 2e 0f 1f 84 00 00 	cs nop WORD PTR [rax+rax*1+0x0]
  4081ea:	00 00 00 
  4081ed:	0f 1f 00             	nop    DWORD PTR [rax]
  4081f0:	48 8b 74 15 00       	mov    rsi,QWORD PTR [rbp+rdx*1+0x0]
  4081f5:	48 8b 3c 10          	mov    rdi,QWORD PTR [rax+rdx*1]
  4081f9:	48 89 7c 15 00       	mov    QWORD PTR [rbp+rdx*1+0x0],rdi
  4081fe:	48 89 34 10          	mov    QWORD PTR [rax+rdx*1],rsi
  408202:	48 83 c2 08          	add    rdx,0x8
  408206:	48 83 c1 ff          	add    rcx,0xffffffffffffffff
  40820a:	48 83 f9 01          	cmp    rcx,0x1
  40820e:	7f e0                	jg     4081f0 <fwrite@plt+0x70a0>
  408210:	e9 0b 04 00 00       	jmp    408620 <fwrite@plt+0x74d0>
  408215:	66 2e 0f 1f 84 00 00 	cs nop WORD PTR [rax+rax*1+0x0]
  40821c:	00 00 00 
  40821f:	90                   	nop
  408220:	48 8b 45 00          	mov    rax,QWORD PTR [rbp+0x0]
  408224:	49 8b 0c 24          	mov    rcx,QWORD PTR [r12]
  408228:	48 89 4d 00          	mov    QWORD PTR [rbp+0x0],rcx
  40822c:	49 89 04 24          	mov    QWORD PTR [r12],rax
  408230:	4c 8b 4c 24 10       	mov    r9,QWORD PTR [rsp+0x10]
  408235:	e9 e6 03 00 00       	jmp    408620 <fwrite@plt+0x74d0>
  40823a:	66 0f 1f 44 00 00    	nop    WORD PTR [rax+rax*1+0x0]
  408240:	8b 45 00             	mov    eax,DWORD PTR [rbp+0x0]
  408243:	41 8b 0c 24          	mov    ecx,DWORD PTR [r12]
  408247:	89 4d 00             	mov    DWORD PTR [rbp+0x0],ecx
  40824a:	41 89 04 24          	mov    DWORD PTR [r12],eax
  40824e:	4c 8b 4c 24 10       	mov    r9,QWORD PTR [rsp+0x10]
  408253:	e9 c8 03 00 00       	jmp    408620 <fwrite@plt+0x74d0>
  408258:	80 7c 24 0e 00       	cmp    BYTE PTR [rsp+0xe],0x0
  40825d:	74 62                	je     4082c1 <fwrite@plt+0x7171>
  40825f:	48 83 7c 24 50 10    	cmp    QWORD PTR [rsp+0x50],0x10
  408265:	72 26                	jb     40828d <fwrite@plt+0x713d>
  408267:	48 8b 74 24 70       	mov    rsi,QWORD PTR [rsp+0x70]
  40826c:	48 8d 34 06          	lea    rsi,[rsi+rax*1]
  408270:	4c 01 ce             	add    rsi,r9
  408273:	48 39 f2             	cmp    rdx,rsi
  408276:	0f 83 c3 01 00 00    	jae    40843f <fwrite@plt+0x72ef>
  40827c:	48 03 44 24 68       	add    rax,QWORD PTR [rsp+0x68]
  408281:	4c 01 c8             	add    rax,r9
  408284:	48 39 c1             	cmp    rcx,rax
  408287:	0f 83 b2 01 00 00    	jae    40843f <fwrite@plt+0x72ef>
  40828d:	48 8b 84 24 a0 00 00 	mov    rax,QWORD PTR [rsp+0xa0]
  408294:	00 
  408295:	4c 89 e1             	mov    rcx,r12
  408298:	48 83 c0 01          	add    rax,0x1
  40829c:	31 d2                	xor    edx,edx
  40829e:	66 90                	xchg   ax,ax
  4082a0:	8b 74 15 00          	mov    esi,DWORD PTR [rbp+rdx*1+0x0]
  4082a4:	8b 3c 11             	mov    edi,DWORD PTR [rcx+rdx*1]
  4082a7:	89 7c 15 00          	mov    DWORD PTR [rbp+rdx*1+0x0],edi
  4082ab:	89 34 11             	mov    DWORD PTR [rcx+rdx*1],esi
  4082ae:	48 83 c0 ff          	add    rax,0xffffffffffffffff
  4082b2:	48 83 c2 04          	add    rdx,0x4
  4082b6:	48 83 f8 01          	cmp    rax,0x1
  4082ba:	7f e4                	jg     4082a0 <fwrite@plt+0x7150>
  4082bc:	e9 5f 03 00 00       	jmp    408620 <fwrite@plt+0x74d0>
  4082c1:	48 83 7c 24 20 3f    	cmp    QWORD PTR [rsp+0x20],0x3f
  4082c7:	76 29                	jbe    4082f2 <fwrite@plt+0x71a2>
  4082c9:	48 8b 74 24 78       	mov    rsi,QWORD PTR [rsp+0x78]
  4082ce:	48 8d 34 06          	lea    rsi,[rsi+rax*1]
  4082d2:	4c 01 ce             	add    rsi,r9
  4082d5:	48 39 f2             	cmp    rdx,rsi
  4082d8:	0f 83 60 02 00 00    	jae    40853e <fwrite@plt+0x73ee>
  4082de:	48 03 84 24 70 01 00 	add    rax,QWORD PTR [rsp+0x170]
  4082e5:	00 
  4082e6:	4c 01 c8             	add    rax,r9
  4082e9:	48 39 c1             	cmp    rcx,rax
  4082ec:	0f 83 4c 02 00 00    	jae    40853e <fwrite@plt+0x73ee>
  4082f2:	48 8b 84 24 a8 00 00 	mov    rax,QWORD PTR [rsp+0xa8]
  4082f9:	00 
  4082fa:	4c 89 e6             	mov    rsi,r12
  4082fd:	48 83 c0 01          	add    rax,0x1
  408301:	31 d2                	xor    edx,edx
  408303:	66 2e 0f 1f 84 00 00 	cs nop WORD PTR [rax+rax*1+0x0]
  40830a:	00 00 00 
  40830d:	0f 1f 00             	nop    DWORD PTR [rax]
  408310:	0f b6 5c 15 00       	movzx  ebx,BYTE PTR [rbp+rdx*1+0x0]
  408315:	0f b6 0c 16          	movzx  ecx,BYTE PTR [rsi+rdx*1]
  408319:	88 4c 15 00          	mov    BYTE PTR [rbp+rdx*1+0x0],cl
  40831d:	88 1c 16             	mov    BYTE PTR [rsi+rdx*1],bl
  408320:	48 83 c0 ff          	add    rax,0xffffffffffffffff
  408324:	48 83 c2 01          	add    rdx,0x1
  408328:	48 83 f8 01          	cmp    rax,0x1
  40832c:	7f e2                	jg     408310 <fwrite@plt+0x71c0>
  40832e:	e9 ed 02 00 00       	jmp    408620 <fwrite@plt+0x74d0>
  408333:	48 83 bc 24 08 01 00 	cmp    QWORD PTR [rsp+0x108],0x0
  40833a:	00 00 
  40833c:	0f 84 93 fd ff ff    	je     4080d5 <fwrite@plt+0x6f85>
  408342:	48 8b 44 24 60       	mov    rax,QWORD PTR [rsp+0x60]
  408347:	49 8d 0c 07          	lea    rcx,[r15+rax*1]
  40834b:	48 8b 94 24 f0 00 00 	mov    rdx,QWORD PTR [rsp+0xf0]
  408352:	00 
  408353:	31 c0                	xor    eax,eax
  408355:	66 2e 0f 1f 84 00 00 	cs nop WORD PTR [rax+rax*1+0x0]
  40835c:	00 00 00 
  40835f:	90                   	nop
  408360:	c5 fc 10 44 c1 a0    	vmovups ymm0,YMMWORD PTR [rcx+rax*8-0x60]
  408366:	c5 fc 10 4c c1 c0    	vmovups ymm1,YMMWORD PTR [rcx+rax*8-0x40]
  40836c:	c4 c1 7c 10 54 c7 a0 	vmovups ymm2,YMMWORD PTR [r15+rax*8-0x60]
  408373:	c4 c1 7c 10 5c c7 c0 	vmovups ymm3,YMMWORD PTR [r15+rax*8-0x40]
  40837a:	c5 fc 11 54 c1 a0    	vmovups YMMWORD PTR [rcx+rax*8-0x60],ymm2
  408380:	c5 fc 11 5c c1 c0    	vmovups YMMWORD PTR [rcx+rax*8-0x40],ymm3
  408386:	c4 c1 7c 11 44 c7 a0 	vmovups YMMWORD PTR [r15+rax*8-0x60],ymm0
  40838d:	c4 c1 7c 11 4c c7 c0 	vmovups YMMWORD PTR [r15+rax*8-0x40],ymm1
  408394:	c5 fe 6f 44 c1 e0    	vmovdqu ymm0,YMMWORD PTR [rcx+rax*8-0x20]
  40839a:	c5 fe 6f 0c c1       	vmovdqu ymm1,YMMWORD PTR [rcx+rax*8]
  40839f:	c4 c1 7e 6f 54 c7 e0 	vmovdqu ymm2,YMMWORD PTR [r15+rax*8-0x20]
  4083a6:	c4 c1 7e 6f 1c c7    	vmovdqu ymm3,YMMWORD PTR [r15+rax*8]
  4083ac:	c5 fe 7f 54 c1 e0    	vmovdqu YMMWORD PTR [rcx+rax*8-0x20],ymm2
  4083b2:	c5 fe 7f 1c c1       	vmovdqu YMMWORD PTR [rcx+rax*8],ymm3
  4083b7:	c4 c1 7e 7f 44 c7 e0 	vmovdqu YMMWORD PTR [r15+rax*8-0x20],ymm0
  4083be:	c4 c1 7e 7f 0c c7    	vmovdqu YMMWORD PTR [r15+rax*8],ymm1
  4083c4:	48 83 c0 10          	add    rax,0x10
  4083c8:	48 83 c2 02          	add    rdx,0x2
  4083cc:	75 92                	jne    408360 <fwrite@plt+0x7210>
  4083ce:	48 83 bc 24 f8 00 00 	cmp    QWORD PTR [rsp+0xf8],0x0
  4083d5:	00 00 
  4083d7:	74 32                	je     40840b <fwrite@plt+0x72bb>
  4083d9:	c5 fe 6f 44 c5 00    	vmovdqu ymm0,YMMWORD PTR [rbp+rax*8+0x0]
  4083df:	c5 fe 6f 4c c5 20    	vmovdqu ymm1,YMMWORD PTR [rbp+rax*8+0x20]
  4083e5:	c4 c1 7e 6f 14 c4    	vmovdqu ymm2,YMMWORD PTR [r12+rax*8]
  4083eb:	c4 c1 7e 6f 5c c4 20 	vmovdqu ymm3,YMMWORD PTR [r12+rax*8+0x20]
  4083f2:	c5 fe 7f 54 c5 00    	vmovdqu YMMWORD PTR [rbp+rax*8+0x0],ymm2
  4083f8:	c5 fe 7f 5c c5 20    	vmovdqu YMMWORD PTR [rbp+rax*8+0x20],ymm3
  4083fe:	c4 c1 7e 7f 04 c4    	vmovdqu YMMWORD PTR [r12+rax*8],ymm0
  408404:	c4 c1 7e 7f 4c c4 20 	vmovdqu YMMWORD PTR [r12+rax*8+0x20],ymm1
  40840b:	48 8b 84 24 00 01 00 	mov    rax,QWORD PTR [rsp+0x100]
  408412:	00 
  408413:	48 39 84 24 98 00 00 	cmp    QWORD PTR [rsp+0x98],rax
  40841a:	00 
  40841b:	0f 84 ff 01 00 00    	je     408620 <fwrite@plt+0x74d0>
  408421:	48 8b 8c 24 e8 00 00 	mov    rcx,QWORD PTR [rsp+0xe8]
  408428:	00 
  408429:	49 8d 04 cc          	lea    rax,[r12+rcx*8]
  40842d:	48 8d 6c cd 00       	lea    rbp,[rbp+rcx*8+0x0]
  408432:	48 8b 8c 24 40 01 00 	mov    rcx,QWORD PTR [rsp+0x140]
  408439:	00 
  40843a:	e9 9e fd ff ff       	jmp    4081dd <fwrite@plt+0x708d>
  40843f:	48 83 bc 24 20 01 00 	cmp    QWORD PTR [rsp+0x120],0x0
  408446:	00 00 
  408448:	0f 84 b9 fc ff ff    	je     408107 <fwrite@plt+0x6fb7>
  40844e:	48 8b 8c 24 b8 00 00 	mov    rcx,QWORD PTR [rsp+0xb8]
  408455:	00 
  408456:	31 c0                	xor    eax,eax
  408458:	0f 1f 84 00 00 00 00 	nop    DWORD PTR [rax+rax*1+0x0]
  40845f:	00 
  408460:	c5 fc 10 44 85 00    	vmovups ymm0,YMMWORD PTR [rbp+rax*4+0x0]
  408466:	c5 fc 10 4c 85 20    	vmovups ymm1,YMMWORD PTR [rbp+rax*4+0x20]
  40846c:	c4 c1 7c 10 54 87 a0 	vmovups ymm2,YMMWORD PTR [r15+rax*4-0x60]
  408473:	c4 c1 7c 10 5c 87 c0 	vmovups ymm3,YMMWORD PTR [r15+rax*4-0x40]
  40847a:	c5 fc 11 54 85 00    	vmovups YMMWORD PTR [rbp+rax*4+0x0],ymm2
  408480:	c5 fc 11 5c 85 20    	vmovups YMMWORD PTR [rbp+rax*4+0x20],ymm3
  408486:	c4 c1 7c 11 44 87 a0 	vmovups YMMWORD PTR [r15+rax*4-0x60],ymm0
  40848d:	c4 c1 7c 11 4c 87 c0 	vmovups YMMWORD PTR [r15+rax*4-0x40],ymm1
  408494:	c5 fe 6f 44 85 40    	vmovdqu ymm0,YMMWORD PTR [rbp+rax*4+0x40]
  40849a:	c5 fe 6f 4c 85 60    	vmovdqu ymm1,YMMWORD PTR [rbp+rax*4+0x60]
  4084a0:	c4 c1 7e 6f 54 87 e0 	vmovdqu ymm2,YMMWORD PTR [r15+rax*4-0x20]
  4084a7:	c4 c1 7e 6f 1c 87    	vmovdqu ymm3,YMMWORD PTR [r15+rax*4]
  4084ad:	c5 fe 7f 54 85 40    	vmovdqu YMMWORD PTR [rbp+rax*4+0x40],ymm2
  4084b3:	c5 fe 7f 5c 85 60    	vmovdqu YMMWORD PTR [rbp+rax*4+0x60],ymm3
  4084b9:	c4 c1 7e 7f 44 87 e0 	vmovdqu YMMWORD PTR [r15+rax*4-0x20],ymm0
  4084c0:	c4 c1 7e 7f 0c 87    	vmovdqu YMMWORD PTR [r15+rax*4],ymm1
  4084c6:	48 83 c0 20          	add    rax,0x20
  4084ca:	48 83 c1 02          	add    rcx,0x2
  4084ce:	75 90                	jne    408460 <fwrite@plt+0x7310>
  4084d0:	48 83 bc 24 d8 00 00 	cmp    QWORD PTR [rsp+0xd8],0x0
  4084d7:	00 00 
  4084d9:	74 32                	je     40850d <fwrite@plt+0x73bd>
  4084db:	c5 fe 6f 44 85 00    	vmovdqu ymm0,YMMWORD PTR [rbp+rax*4+0x0]
  4084e1:	c5 fe 6f 4c 85 20    	vmovdqu ymm1,YMMWORD PTR [rbp+rax*4+0x20]
  4084e7:	c4 c1 7e 6f 14 84    	vmovdqu ymm2,YMMWORD PTR [r12+rax*4]
  4084ed:	c4 c1 7e 6f 5c 84 20 	vmovdqu ymm3,YMMWORD PTR [r12+rax*4+0x20]
  4084f4:	c5 fe 7f 54 85 00    	vmovdqu YMMWORD PTR [rbp+rax*4+0x0],ymm2
  4084fa:	c5 fe 7f 5c 85 20    	vmovdqu YMMWORD PTR [rbp+rax*4+0x20],ymm3
  408500:	c4 c1 7e 7f 04 84    	vmovdqu YMMWORD PTR [r12+rax*4],ymm0
  408506:	c4 c1 7e 7f 4c 84 20 	vmovdqu YMMWORD PTR [r12+rax*4+0x20],ymm1
  40850d:	48 8b 84 24 e0 00 00 	mov    rax,QWORD PTR [rsp+0xe0]
  408514:	00 
  408515:	48 39 44 24 50       	cmp    QWORD PTR [rsp+0x50],rax
  40851a:	0f 84 00 01 00 00    	je     408620 <fwrite@plt+0x74d0>
  408520:	48 8b 84 24 38 01 00 	mov    rax,QWORD PTR [rsp+0x138]
  408527:	00 
  408528:	48 8d 6c 85 00       	lea    rbp,[rbp+rax*4+0x0]
  40852d:	49 8d 0c 84          	lea    rcx,[r12+rax*4]
  408531:	48 8b 84 24 58 01 00 	mov    rax,QWORD PTR [rsp+0x158]
  408538:	00 
  408539:	e9 5a fd ff ff       	jmp    408298 <fwrite@plt+0x7148>
  40853e:	48 83 bc 24 28 01 00 	cmp    QWORD PTR [rsp+0x128],0x0
  408545:	00 00 
  408547:	0f 84 d0 fb ff ff    	je     40811d <fwrite@plt+0x6fcd>
  40854d:	48 8b 8c 24 c0 00 00 	mov    rcx,QWORD PTR [rsp+0xc0]
  408554:	00 
  408555:	31 c0                	xor    eax,eax
  408557:	66 0f 1f 84 00 00 00 	nop    WORD PTR [rax+rax*1+0x0]
  40855e:	00 00 
  408560:	c5 fc 10 44 05 00    	vmovups ymm0,YMMWORD PTR [rbp+rax*1+0x0]
  408566:	c5 fc 10 4c 05 20    	vmovups ymm1,YMMWORD PTR [rbp+rax*1+0x20]
  40856c:	c4 c1 7c 10 54 07 a0 	vmovups ymm2,YMMWORD PTR [r15+rax*1-0x60]
  408573:	c4 c1 7c 10 5c 07 c0 	vmovups ymm3,YMMWORD PTR [r15+rax*1-0x40]
  40857a:	c5 fc 11 54 05 00    	vmovups YMMWORD PTR [rbp+rax*1+0x0],ymm2
  408580:	c5 fc 11 5c 05 20    	vmovups YMMWORD PTR [rbp+rax*1+0x20],ymm3
  408586:	c4 c1 7c 11 44 07 a0 	vmovups YMMWORD PTR [r15+rax*1-0x60],ymm0
  40858d:	c4 c1 7c 11 4c 07 c0 	vmovups YMMWORD PTR [r15+rax*1-0x40],ymm1
  408594:	c5 fe 6f 44 05 40    	vmovdqu ymm0,YMMWORD PTR [rbp+rax*1+0x40]
  40859a:	c5 fe 6f 4c 05 60    	vmovdqu ymm1,YMMWORD PTR [rbp+rax*1+0x60]
  4085a0:	c4 c1 7e 6f 54 07 e0 	vmovdqu ymm2,YMMWORD PTR [r15+rax*1-0x20]
  4085a7:	c4 c1 7e 6f 1c 07    	vmovdqu ymm3,YMMWORD PTR [r15+rax*1]
  4085ad:	c5 fe 7f 54 05 40    	vmovdqu YMMWORD PTR [rbp+rax*1+0x40],ymm2
  4085b3:	c5 fe 7f 5c 05 60    	vmovdqu YMMWORD PTR [rbp+rax*1+0x60],ymm3
  4085b9:	c4 c1 7e 7f 44 07 e0 	vmovdqu YMMWORD PTR [r15+rax*1-0x20],ymm0
  4085c0:	c4 c1 7e 7f 0c 07    	vmovdqu YMMWORD PTR [r15+rax*1],ymm1
  4085c6:	48 83 e8 80          	sub    rax,0xffffffffffffff80
  4085ca:	48 83 c1 02          	add    rcx,0x2
  4085ce:	75 90                	jne    408560 <fwrite@plt+0x7410>
  4085d0:	48 83 bc 24 c8 00 00 	cmp    QWORD PTR [rsp+0xc8],0x0
  4085d7:	00 00 
  4085d9:	74 32                	je     40860d <fwrite@plt+0x74bd>
  4085db:	c5 fe 6f 44 05 00    	vmovdqu ymm0,YMMWORD PTR [rbp+rax*1+0x0]
  4085e1:	c5 fe 6f 4c 05 20    	vmovdqu ymm1,YMMWORD PTR [rbp+rax*1+0x20]
  4085e7:	c4 c1 7e 6f 14 04    	vmovdqu ymm2,YMMWORD PTR [r12+rax*1]
  4085ed:	c4 c1 7e 6f 5c 04 20 	vmovdqu ymm3,YMMWORD PTR [r12+rax*1+0x20]
  4085f4:	c5 fe 7f 54 05 00    	vmovdqu YMMWORD PTR [rbp+rax*1+0x0],ymm2
  4085fa:	c5 fe 7f 5c 05 20    	vmovdqu YMMWORD PTR [rbp+rax*1+0x20],ymm3
  408600:	c4 c1 7e 7f 04 04    	vmovdqu YMMWORD PTR [r12+rax*1],ymm0
  408606:	c4 c1 7e 7f 4c 04 20 	vmovdqu YMMWORD PTR [r12+rax*1+0x20],ymm1
  40860d:	48 8b 84 24 d0 00 00 	mov    rax,QWORD PTR [rsp+0xd0]
  408614:	00 
  408615:	48 39 44 24 20       	cmp    QWORD PTR [rsp+0x20],rax
  40861a:	0f 85 cb fa ff ff    	jne    4080eb <fwrite@plt+0x6f9b>
  408620:	49 83 c5 01          	add    r13,0x1
  408624:	4d 01 c7             	add    r15,r8
  408627:	4d 39 cc             	cmp    r12,r9
  40862a:	0f 87 10 fb ff ff    	ja     408140 <fwrite@plt+0x6ff0>
  408630:	48 8b 44 24 60       	mov    rax,QWORD PTR [rsp+0x60]
  408635:	48 8b 4c 24 30       	mov    rcx,QWORD PTR [rsp+0x30]
  40863a:	48 01 c1             	add    rcx,rax
  40863d:	48 83 84 24 80 00 00 	add    QWORD PTR [rsp+0x80],0x1
  408644:	00 01 
  408646:	48 01 84 24 90 00 00 	add    QWORD PTR [rsp+0x90],rax
  40864d:	00 
  40864e:	4c 8b a4 24 b0 00 00 	mov    r12,QWORD PTR [rsp+0xb0]
  408655:	00 
  408656:	4c 39 e1             	cmp    rcx,r12
  408659:	0f 82 d1 f9 ff ff    	jb     408030 <fwrite@plt+0x6ee0>
  40865f:	e9 bd 07 00 00       	jmp    408e21 <fwrite@plt+0x7cd1>
  408664:	49 39 ce             	cmp    r14,rcx
  408667:	0f 8e b4 07 00 00    	jle    408e21 <fwrite@plt+0x7cd1>
  40866d:	48 8b 84 24 98 00 00 	mov    rax,QWORD PTR [rsp+0x98]
  408674:	00 
  408675:	48 29 c8             	sub    rax,rcx
  408678:	48 89 84 24 f8 00 00 	mov    QWORD PTR [rsp+0xf8],rax
  40867f:	00 
  408680:	48 8b 54 24 58       	mov    rdx,QWORD PTR [rsp+0x58]
  408685:	89 d0                	mov    eax,edx
  408687:	83 e0 07             	and    eax,0x7
  40868a:	48 29 c2             	sub    rdx,rax
  40868d:	48 89 94 24 40 01 00 	mov    QWORD PTR [rsp+0x140],rdx
  408694:	00 
  408695:	48 8b 84 24 90 00 00 	mov    rax,QWORD PTR [rsp+0x90]
  40869c:	00 
  40869d:	48 29 c8             	sub    rax,rcx
  4086a0:	48 89 84 24 f0 00 00 	mov    QWORD PTR [rsp+0xf0],rax
  4086a7:	00 
  4086a8:	48 8b 54 24 78       	mov    rdx,QWORD PTR [rsp+0x78]
  4086ad:	89 d0                	mov    eax,edx
  4086af:	83 e0 0f             	and    eax,0xf
  4086b2:	48 29 c2             	sub    rdx,rax
  4086b5:	48 89 94 24 38 01 00 	mov    QWORD PTR [rsp+0x138],rdx
  4086bc:	00 
  4086bd:	48 8b 44 24 30       	mov    rax,QWORD PTR [rsp+0x30]
  4086c2:	48 89 c2             	mov    rdx,rax
  4086c5:	48 29 c8             	sub    rax,rcx
  4086c8:	48 89 84 24 e8 00 00 	mov    QWORD PTR [rsp+0xe8],rax
  4086cf:	00 
  4086d0:	48 8b b4 24 80 01 00 	mov    rsi,QWORD PTR [rsp+0x180]
  4086d7:	00 
  4086d8:	8d 04 0e             	lea    eax,[rsi+rcx*1]
  4086db:	83 c0 02             	add    eax,0x2
  4086de:	83 e0 3f             	and    eax,0x3f
  4086e1:	48 29 c2             	sub    rdx,rax
  4086e4:	48 89 94 24 50 01 00 	mov    QWORD PTR [rsp+0x150],rdx
  4086eb:	00 
  4086ec:	48 63 c1             	movsxd rax,ecx
  4086ef:	48 8d 14 06          	lea    rdx,[rsi+rax*1]
  4086f3:	48 83 c2 c2          	add    rdx,0xffffffffffffffc2
  4086f7:	48 c1 ea 06          	shr    rdx,0x6
  4086fb:	8d 72 01             	lea    esi,[rdx+0x1]
  4086fe:	48 8b 84 24 58 01 00 	mov    rax,QWORD PTR [rsp+0x158]
  408705:	00 
  408706:	48 83 c0 f2          	add    rax,0xfffffffffffffff2
  40870a:	48 c1 e8 04          	shr    rax,0x4
  40870e:	8d 78 01             	lea    edi,[rax+0x1]
  408711:	48 8b 8c 24 a8 00 00 	mov    rcx,QWORD PTR [rsp+0xa8]
  408718:	00 
  408719:	8d 69 01             	lea    ebp,[rcx+0x1]
  40871c:	48 8b 5c 24 50       	mov    rbx,QWORD PTR [rsp+0x50]
  408721:	48 2b 9c 24 a0 00 00 	sub    rbx,QWORD PTR [rsp+0xa0]
  408728:	00 
  408729:	48 89 9c 24 c8 00 00 	mov    QWORD PTR [rsp+0xc8],rbx
  408730:	00 
  408731:	83 e5 01             	and    ebp,0x1
  408734:	48 8b 5c 24 68       	mov    rbx,QWORD PTR [rsp+0x68]
  408739:	48 2b 9c 24 10 01 00 	sub    rbx,QWORD PTR [rsp+0x110]
  408740:	00 
  408741:	48 89 9c 24 48 01 00 	mov    QWORD PTR [rsp+0x148],rbx
  408748:	00 
  408749:	83 e7 01             	and    edi,0x1
  40874c:	48 8b 5c 24 70       	mov    rbx,QWORD PTR [rsp+0x70]
  408751:	48 2b 9c 24 08 01 00 	sub    rbx,QWORD PTR [rsp+0x108]
  408758:	00 
  408759:	48 89 9c 24 78 01 00 	mov    QWORD PTR [rsp+0x178],rbx
  408760:	00 
  408761:	83 e6 01             	and    esi,0x1
  408764:	48 89 b4 24 d8 00 00 	mov    QWORD PTR [rsp+0xd8],rsi
  40876b:	00 
  40876c:	48 8d 76 ff          	lea    rsi,[rsi-0x1]
  408770:	48 89 94 24 e0 00 00 	mov    QWORD PTR [rsp+0xe0],rdx
  408777:	00 
  408778:	48 29 d6             	sub    rsi,rdx
  40877b:	48 89 b4 24 c0 00 00 	mov    QWORD PTR [rsp+0xc0],rsi
  408782:	00 
  408783:	48 89 bc 24 d0 00 00 	mov    QWORD PTR [rsp+0xd0],rdi
  40878a:	00 
  40878b:	48 8d 57 ff          	lea    rdx,[rdi-0x1]
  40878f:	48 89 84 24 58 01 00 	mov    QWORD PTR [rsp+0x158],rax
  408796:	00 
  408797:	48 29 c2             	sub    rdx,rax
  40879a:	48 89 94 24 b8 00 00 	mov    QWORD PTR [rsp+0xb8],rdx
  4087a1:	00 
  4087a2:	48 89 ac 24 28 01 00 	mov    QWORD PTR [rsp+0x128],rbp
  4087a9:	00 
  4087aa:	48 8d 45 ff          	lea    rax,[rbp-0x1]
  4087ae:	48 29 c8             	sub    rax,rcx
  4087b1:	48 89 84 24 20 01 00 	mov    QWORD PTR [rsp+0x120],rax
  4087b8:	00 
  4087b9:	49 8d 42 60          	lea    rax,[r10+0x60]
  4087bd:	48 89 84 24 88 00 00 	mov    QWORD PTR [rsp+0x88],rax
  4087c4:	00 
  4087c5:	31 c0                	xor    eax,eax
  4087c7:	48 89 44 24 28       	mov    QWORD PTR [rsp+0x28],rax
  4087cc:	4c 8b bc 24 70 01 00 	mov    r15,QWORD PTR [rsp+0x170]
  4087d3:	00 
  4087d4:	66 2e 0f 1f 84 00 00 	cs nop WORD PTR [rax+rax*1+0x0]
  4087db:	00 00 00 
  4087de:	66 90                	xchg   ax,ax
  4087e0:	4d 39 d7             	cmp    r15,r10
  4087e3:	0f 86 17 06 00 00    	jbe    408e00 <fwrite@plt+0x7cb0>
  4087e9:	48 8b 54 24 28       	mov    rdx,QWORD PTR [rsp+0x28]
  4087ee:	48 8b 44 24 60       	mov    rax,QWORD PTR [rsp+0x60]
  4087f3:	48 0f af d0          	imul   rdx,rax
  4087f7:	48 8b 4c 24 30       	mov    rcx,QWORD PTR [rsp+0x30]
  4087fc:	48 8d 0c 11          	lea    rcx,[rcx+rdx*1]
  408800:	48 89 8c 24 18 01 00 	mov    QWORD PTR [rsp+0x118],rcx
  408807:	00 
  408808:	48 89 d1             	mov    rcx,rdx
  40880b:	48 29 c1             	sub    rcx,rax
  40880e:	48 89 4c 24 20       	mov    QWORD PTR [rsp+0x20],rcx
  408813:	48 8b 84 24 e8 00 00 	mov    rax,QWORD PTR [rsp+0xe8]
  40881a:	00 
  40881b:	48 8d 04 10          	lea    rax,[rax+rdx*1]
  40881f:	48 89 84 24 60 01 00 	mov    QWORD PTR [rsp+0x160],rax
  408826:	00 
  408827:	48 8b 84 24 90 00 00 	mov    rax,QWORD PTR [rsp+0x90]
  40882e:	00 
  40882f:	48 8d 04 10          	lea    rax,[rax+rdx*1]
  408833:	48 89 84 24 00 01 00 	mov    QWORD PTR [rsp+0x100],rax
  40883a:	00 
  40883b:	48 8b 84 24 f0 00 00 	mov    rax,QWORD PTR [rsp+0xf0]
  408842:	00 
  408843:	48 8d 04 10          	lea    rax,[rax+rdx*1]
  408847:	48 89 84 24 30 01 00 	mov    QWORD PTR [rsp+0x130],rax
  40884e:	00 
  40884f:	48 8b 84 24 98 00 00 	mov    rax,QWORD PTR [rsp+0x98]
  408856:	00 
  408857:	48 8d 04 10          	lea    rax,[rax+rdx*1]
  40885b:	48 89 84 24 68 01 00 	mov    QWORD PTR [rsp+0x168],rax
  408862:	00 
  408863:	48 8b 84 24 f8 00 00 	mov    rax,QWORD PTR [rsp+0xf8]
  40886a:	00 
  40886b:	48 89 94 24 80 00 00 	mov    QWORD PTR [rsp+0x80],rdx
  408872:	00 
  408873:	48 8d 04 10          	lea    rax,[rax+rdx*1]
  408877:	48 89 84 24 b0 00 00 	mov    QWORD PTR [rsp+0xb0],rax
  40887e:	00 
  40887f:	4c 8b b4 24 88 00 00 	mov    r14,QWORD PTR [rsp+0x88]
  408886:	00 
  408887:	45 31 e4             	xor    r12d,r12d
  40888a:	4d 89 fd             	mov    r13,r15
  40888d:	eb 61                	jmp    4088f0 <fwrite@plt+0x77a0>
  40888f:	31 c0                	xor    eax,eax
  408891:	48 83 bc 24 28 01 00 	cmp    QWORD PTR [rsp+0x128],0x0
  408898:	00 00 
  40889a:	0f 85 f9 02 00 00    	jne    408b99 <fwrite@plt+0x7a49>
  4088a0:	e9 28 03 00 00       	jmp    408bcd <fwrite@plt+0x7a7d>
  4088a5:	48 8b 84 24 50 01 00 	mov    rax,QWORD PTR [rsp+0x150]
  4088ac:	00 
  4088ad:	48 01 c5             	add    rbp,rax
  4088b0:	4a 8d 34 28          	lea    rsi,[rax+r13*1]
  4088b4:	48 8b 84 24 78 01 00 	mov    rax,QWORD PTR [rsp+0x178]
  4088bb:	00 
  4088bc:	e9 fc 01 00 00       	jmp    408abd <fwrite@plt+0x796d>
  4088c1:	31 c0                	xor    eax,eax
  4088c3:	48 83 bc 24 d0 00 00 	cmp    QWORD PTR [rsp+0xd0],0x0
  4088ca:	00 00 
  4088cc:	0f 85 c9 03 00 00    	jne    408c9b <fwrite@plt+0x7b4b>
  4088d2:	e9 f8 03 00 00       	jmp    408ccf <fwrite@plt+0x7b7f>
  4088d7:	31 c0                	xor    eax,eax
  4088d9:	48 83 bc 24 d8 00 00 	cmp    QWORD PTR [rsp+0xd8],0x0
  4088e0:	00 00 
  4088e2:	0f 85 b3 04 00 00    	jne    408d9b <fwrite@plt+0x7c4b>
  4088e8:	e9 e2 04 00 00       	jmp    408dcf <fwrite@plt+0x7c7f>
  4088ed:	0f 1f 00             	nop    DWORD PTR [rax]
  4088f0:	4c 89 ed             	mov    rbp,r13
  4088f3:	4d 01 c5             	add    r13,r8
  4088f6:	4c 89 ef             	mov    rdi,r13
  4088f9:	48 89 ee             	mov    rsi,rbp
  4088fc:	c5 f8 77             	vzeroupper 
  4088ff:	ff 54 24 38          	call   QWORD PTR [rsp+0x38]
  408903:	4c 8b 54 24 18       	mov    r10,QWORD PTR [rsp+0x18]
  408908:	4c 8b 44 24 40       	mov    r8,QWORD PTR [rsp+0x40]
  40890d:	85 c0                	test   eax,eax
  40890f:	0f 8e eb 04 00 00    	jle    408e00 <fwrite@plt+0x7cb0>
  408915:	83 7c 24 4c 00       	cmp    DWORD PTR [rsp+0x4c],0x0
  40891a:	0f 84 c0 00 00 00    	je     4089e0 <fwrite@plt+0x7890>
  408920:	83 7c 24 48 00       	cmp    DWORD PTR [rsp+0x48],0x0
  408925:	0f 84 d5 00 00 00    	je     408a00 <fwrite@plt+0x78b0>
  40892b:	4c 89 e0             	mov    rax,r12
  40892e:	49 0f af c0          	imul   rax,r8
  408932:	48 8b 8c 24 80 00 00 	mov    rcx,QWORD PTR [rsp+0x80]
  408939:	00 
  40893a:	48 8d 14 01          	lea    rdx,[rcx+rax*1]
  40893e:	48 8b bc 24 70 01 00 	mov    rdi,QWORD PTR [rsp+0x170]
  408945:	00 
  408946:	48 01 fa             	add    rdx,rdi
  408949:	48 8b 4c 24 20       	mov    rcx,QWORD PTR [rsp+0x20]
  40894e:	48 8d 0c 01          	lea    rcx,[rcx+rax*1]
  408952:	48 01 f9             	add    rcx,rdi
  408955:	f6 44 24 0f 01       	test   BYTE PTR [rsp+0xf],0x1
  40895a:	0f 84 b3 00 00 00    	je     408a13 <fwrite@plt+0x78c3>
  408960:	48 83 7c 24 58 08    	cmp    QWORD PTR [rsp+0x58],0x8
  408966:	72 2c                	jb     408994 <fwrite@plt+0x7844>
  408968:	48 8b b4 24 b0 00 00 	mov    rsi,QWORD PTR [rsp+0xb0]
  40896f:	00 
  408970:	48 8d 34 06          	lea    rsi,[rsi+rax*1]
  408974:	48 01 fe             	add    rsi,rdi
  408977:	48 39 f2             	cmp    rdx,rsi
  40897a:	0f 83 73 01 00 00    	jae    408af3 <fwrite@plt+0x79a3>
  408980:	48 03 84 24 68 01 00 	add    rax,QWORD PTR [rsp+0x168]
  408987:	00 
  408988:	48 01 f8             	add    rax,rdi
  40898b:	48 39 c1             	cmp    rcx,rax
  40898e:	0f 83 5f 01 00 00    	jae    408af3 <fwrite@plt+0x79a3>
  408994:	4c 89 e8             	mov    rax,r13
  408997:	48 8b 4c 24 50       	mov    rcx,QWORD PTR [rsp+0x50]
  40899c:	48 83 c1 01          	add    rcx,0x1
  4089a0:	31 d2                	xor    edx,edx
  4089a2:	66 2e 0f 1f 84 00 00 	cs nop WORD PTR [rax+rax*1+0x0]
  4089a9:	00 00 00 
  4089ac:	0f 1f 40 00          	nop    DWORD PTR [rax+0x0]
  4089b0:	48 8b 74 15 00       	mov    rsi,QWORD PTR [rbp+rdx*1+0x0]
  4089b5:	48 8b 3c 10          	mov    rdi,QWORD PTR [rax+rdx*1]
  4089b9:	48 89 7c 15 00       	mov    QWORD PTR [rbp+rdx*1+0x0],rdi
  4089be:	48 89 34 10          	mov    QWORD PTR [rax+rdx*1],rsi
  4089c2:	48 83 c2 08          	add    rdx,0x8
  4089c6:	48 83 c1 ff          	add    rcx,0xffffffffffffffff
  4089ca:	48 83 f9 01          	cmp    rcx,0x1
  4089ce:	7f e0                	jg     4089b0 <fwrite@plt+0x7860>
  4089d0:	e9 1b 04 00 00       	jmp    408df0 <fwrite@plt+0x7ca0>
  4089d5:	66 2e 0f 1f 84 00 00 	cs nop WORD PTR [rax+rax*1+0x0]
  4089dc:	00 00 00 
  4089df:	90                   	nop
  4089e0:	48 8b 45 00          	mov    rax,QWORD PTR [rbp+0x0]
  4089e4:	49 8b 4d 00          	mov    rcx,QWORD PTR [r13+0x0]
  4089e8:	48 89 4d 00          	mov    QWORD PTR [rbp+0x0],rcx
  4089ec:	49 89 45 00          	mov    QWORD PTR [r13+0x0],rax
  4089f0:	e9 fb 03 00 00       	jmp    408df0 <fwrite@plt+0x7ca0>
  4089f5:	66 2e 0f 1f 84 00 00 	cs nop WORD PTR [rax+rax*1+0x0]
  4089fc:	00 00 00 
  4089ff:	90                   	nop
  408a00:	8b 45 00             	mov    eax,DWORD PTR [rbp+0x0]
  408a03:	41 8b 4d 00          	mov    ecx,DWORD PTR [r13+0x0]
  408a07:	89 4d 00             	mov    DWORD PTR [rbp+0x0],ecx
  408a0a:	41 89 45 00          	mov    DWORD PTR [r13+0x0],eax
  408a0e:	e9 dd 03 00 00       	jmp    408df0 <fwrite@plt+0x7ca0>
  408a13:	f6 44 24 0e 01       	test   BYTE PTR [rsp+0xe],0x1
  408a18:	74 67                	je     408a81 <fwrite@plt+0x7931>
  408a1a:	48 83 7c 24 78 10    	cmp    QWORD PTR [rsp+0x78],0x10
  408a20:	72 2c                	jb     408a4e <fwrite@plt+0x78fe>
  408a22:	48 8b b4 24 30 01 00 	mov    rsi,QWORD PTR [rsp+0x130]
  408a29:	00 
  408a2a:	48 8d 34 06          	lea    rsi,[rsi+rax*1]
  408a2e:	48 01 fe             	add    rsi,rdi
  408a31:	48 39 f2             	cmp    rdx,rsi
  408a34:	0f 83 cb 01 00 00    	jae    408c05 <fwrite@plt+0x7ab5>
  408a3a:	48 03 84 24 00 01 00 	add    rax,QWORD PTR [rsp+0x100]
  408a41:	00 
  408a42:	48 01 f8             	add    rax,rdi
  408a45:	48 39 c1             	cmp    rcx,rax
  408a48:	0f 83 b7 01 00 00    	jae    408c05 <fwrite@plt+0x7ab5>
  408a4e:	48 8b 44 24 68       	mov    rax,QWORD PTR [rsp+0x68]
  408a53:	4c 89 e9             	mov    rcx,r13
  408a56:	48 83 c0 01          	add    rax,0x1
  408a5a:	31 d2                	xor    edx,edx
  408a5c:	0f 1f 40 00          	nop    DWORD PTR [rax+0x0]
  408a60:	8b 74 15 00          	mov    esi,DWORD PTR [rbp+rdx*1+0x0]
  408a64:	8b 3c 11             	mov    edi,DWORD PTR [rcx+rdx*1]
  408a67:	89 7c 15 00          	mov    DWORD PTR [rbp+rdx*1+0x0],edi
  408a6b:	89 34 11             	mov    DWORD PTR [rcx+rdx*1],esi
  408a6e:	48 83 c0 ff          	add    rax,0xffffffffffffffff
  408a72:	48 83 c2 04          	add    rdx,0x4
  408a76:	48 83 f8 01          	cmp    rax,0x1
  408a7a:	7f e4                	jg     408a60 <fwrite@plt+0x7910>
  408a7c:	e9 6f 03 00 00       	jmp    408df0 <fwrite@plt+0x7ca0>
  408a81:	48 83 7c 24 30 3f    	cmp    QWORD PTR [rsp+0x30],0x3f
  408a87:	76 2c                	jbe    408ab5 <fwrite@plt+0x7965>
  408a89:	48 8b b4 24 60 01 00 	mov    rsi,QWORD PTR [rsp+0x160]
  408a90:	00 
  408a91:	48 8d 34 06          	lea    rsi,[rsi+rax*1]
  408a95:	48 01 fe             	add    rsi,rdi
  408a98:	48 39 f2             	cmp    rdx,rsi
  408a9b:	0f 83 66 02 00 00    	jae    408d07 <fwrite@plt+0x7bb7>
  408aa1:	48 03 84 24 18 01 00 	add    rax,QWORD PTR [rsp+0x118]
  408aa8:	00 
  408aa9:	48 01 f8             	add    rax,rdi
  408aac:	48 39 c1             	cmp    rcx,rax
  408aaf:	0f 83 52 02 00 00    	jae    408d07 <fwrite@plt+0x7bb7>
  408ab5:	48 8b 44 24 70       	mov    rax,QWORD PTR [rsp+0x70]
  408aba:	4c 89 ee             	mov    rsi,r13
  408abd:	48 83 c0 01          	add    rax,0x1
  408ac1:	31 d2                	xor    edx,edx
  408ac3:	66 2e 0f 1f 84 00 00 	cs nop WORD PTR [rax+rax*1+0x0]
  408aca:	00 00 00 
  408acd:	0f 1f 00             	nop    DWORD PTR [rax]
  408ad0:	0f b6 5c 15 00       	movzx  ebx,BYTE PTR [rbp+rdx*1+0x0]
  408ad5:	0f b6 0c 16          	movzx  ecx,BYTE PTR [rsi+rdx*1]
  408ad9:	88 4c 15 00          	mov    BYTE PTR [rbp+rdx*1+0x0],cl
  408add:	88 1c 16             	mov    BYTE PTR [rsi+rdx*1],bl
  408ae0:	48 83 c0 ff          	add    rax,0xffffffffffffffff
  408ae4:	48 83 c2 01          	add    rdx,0x1
  408ae8:	48 83 f8 01          	cmp    rax,0x1
  408aec:	7f e2                	jg     408ad0 <fwrite@plt+0x7980>
  408aee:	e9 fd 02 00 00       	jmp    408df0 <fwrite@plt+0x7ca0>
  408af3:	48 83 bc 24 a8 00 00 	cmp    QWORD PTR [rsp+0xa8],0x0
  408afa:	00 00 
  408afc:	0f 84 8d fd ff ff    	je     40888f <fwrite@plt+0x773f>
  408b02:	48 8b 44 24 60       	mov    rax,QWORD PTR [rsp+0x60]
  408b07:	49 8d 0c 06          	lea    rcx,[r14+rax*1]
  408b0b:	48 8b 94 24 20 01 00 	mov    rdx,QWORD PTR [rsp+0x120]
  408b12:	00 
  408b13:	31 c0                	xor    eax,eax
  408b15:	66 2e 0f 1f 84 00 00 	cs nop WORD PTR [rax+rax*1+0x0]
  408b1c:	00 00 00 
  408b1f:	90                   	nop
  408b20:	c5 fc 10 44 c1 a0    	vmovups ymm0,YMMWORD PTR [rcx+rax*8-0x60]
  408b26:	c5 fc 10 4c c1 c0    	vmovups ymm1,YMMWORD PTR [rcx+rax*8-0x40]
  408b2c:	c4 c1 7c 10 54 c6 a0 	vmovups ymm2,YMMWORD PTR [r14+rax*8-0x60]
  408b33:	c4 c1 7c 10 5c c6 c0 	vmovups ymm3,YMMWORD PTR [r14+rax*8-0x40]
  408b3a:	c5 fc 11 54 c1 a0    	vmovups YMMWORD PTR [rcx+rax*8-0x60],ymm2
  408b40:	c5 fc 11 5c c1 c0    	vmovups YMMWORD PTR [rcx+rax*8-0x40],ymm3
  408b46:	c4 c1 7c 11 44 c6 a0 	vmovups YMMWORD PTR [r14+rax*8-0x60],ymm0
  408b4d:	c4 c1 7c 11 4c c6 c0 	vmovups YMMWORD PTR [r14+rax*8-0x40],ymm1
  408b54:	c5 fe 6f 44 c1 e0    	vmovdqu ymm0,YMMWORD PTR [rcx+rax*8-0x20]
  408b5a:	c5 fe 6f 0c c1       	vmovdqu ymm1,YMMWORD PTR [rcx+rax*8]
  408b5f:	c4 c1 7e 6f 54 c6 e0 	vmovdqu ymm2,YMMWORD PTR [r14+rax*8-0x20]
  408b66:	c4 c1 7e 6f 1c c6    	vmovdqu ymm3,YMMWORD PTR [r14+rax*8]
  408b6c:	c5 fe 7f 54 c1 e0    	vmovdqu YMMWORD PTR [rcx+rax*8-0x20],ymm2
  408b72:	c5 fe 7f 1c c1       	vmovdqu YMMWORD PTR [rcx+rax*8],ymm3
  408b77:	c4 c1 7e 7f 44 c6 e0 	vmovdqu YMMWORD PTR [r14+rax*8-0x20],ymm0
  408b7e:	c4 c1 7e 7f 0c c6    	vmovdqu YMMWORD PTR [r14+rax*8],ymm1
  408b84:	48 83 c0 10          	add    rax,0x10
  408b88:	48 83 c2 02          	add    rdx,0x2
  408b8c:	75 92                	jne    408b20 <fwrite@plt+0x79d0>
  408b8e:	48 83 bc 24 28 01 00 	cmp    QWORD PTR [rsp+0x128],0x0
  408b95:	00 00 
  408b97:	74 34                	je     408bcd <fwrite@plt+0x7a7d>
  408b99:	c5 fe 6f 44 c5 00    	vmovdqu ymm0,YMMWORD PTR [rbp+rax*8+0x0]
  408b9f:	c5 fe 6f 4c c5 20    	vmovdqu ymm1,YMMWORD PTR [rbp+rax*8+0x20]
  408ba5:	c4 c1 7e 6f 54 c5 00 	vmovdqu ymm2,YMMWORD PTR [r13+rax*8+0x0]
  408bac:	c4 c1 7e 6f 5c c5 20 	vmovdqu ymm3,YMMWORD PTR [r13+rax*8+0x20]
  408bb3:	c5 fe 7f 54 c5 00    	vmovdqu YMMWORD PTR [rbp+rax*8+0x0],ymm2
  408bb9:	c5 fe 7f 5c c5 20    	vmovdqu YMMWORD PTR [rbp+rax*8+0x20],ymm3
  408bbf:	c4 c1 7e 7f 44 c5 00 	vmovdqu YMMWORD PTR [r13+rax*8+0x0],ymm0
  408bc6:	c4 c1 7e 7f 4c c5 20 	vmovdqu YMMWORD PTR [r13+rax*8+0x20],ymm1
  408bcd:	48 8b 84 24 a0 00 00 	mov    rax,QWORD PTR [rsp+0xa0]
  408bd4:	00 
  408bd5:	48 39 44 24 58       	cmp    QWORD PTR [rsp+0x58],rax
  408bda:	0f 84 10 02 00 00    	je     408df0 <fwrite@plt+0x7ca0>
  408be0:	48 8b 8c 24 40 01 00 	mov    rcx,QWORD PTR [rsp+0x140]
  408be7:	00 
  408be8:	48 8d 04 cd 00 00 00 	lea    rax,[rcx*8+0x0]
  408bef:	00 
  408bf0:	4c 01 e8             	add    rax,r13
  408bf3:	48 8d 6c cd 00       	lea    rbp,[rbp+rcx*8+0x0]
  408bf8:	48 8b 8c 24 c8 00 00 	mov    rcx,QWORD PTR [rsp+0xc8]
  408bff:	00 
  408c00:	e9 97 fd ff ff       	jmp    40899c <fwrite@plt+0x784c>
  408c05:	48 83 bc 24 58 01 00 	cmp    QWORD PTR [rsp+0x158],0x0
  408c0c:	00 00 
  408c0e:	0f 84 ad fc ff ff    	je     4088c1 <fwrite@plt+0x7771>
  408c14:	48 8b 8c 24 b8 00 00 	mov    rcx,QWORD PTR [rsp+0xb8]
  408c1b:	00 
  408c1c:	31 c0                	xor    eax,eax
  408c1e:	66 90                	xchg   ax,ax
  408c20:	c5 fc 10 44 85 00    	vmovups ymm0,YMMWORD PTR [rbp+rax*4+0x0]
  408c26:	c5 fc 10 4c 85 20    	vmovups ymm1,YMMWORD PTR [rbp+rax*4+0x20]
  408c2c:	c4 c1 7c 10 54 86 a0 	vmovups ymm2,YMMWORD PTR [r14+rax*4-0x60]
  408c33:	c4 c1 7c 10 5c 86 c0 	vmovups ymm3,YMMWORD PTR [r14+rax*4-0x40]
  408c3a:	c5 fc 11 54 85 00    	vmovups YMMWORD PTR [rbp+rax*4+0x0],ymm2
  408c40:	c5 fc 11 5c 85 20    	vmovups YMMWORD PTR [rbp+rax*4+0x20],ymm3
  408c46:	c4 c1 7c 11 44 86 a0 	vmovups YMMWORD PTR [r14+rax*4-0x60],ymm0
  408c4d:	c4 c1 7c 11 4c 86 c0 	vmovups YMMWORD PTR [r14+rax*4-0x40],ymm1
  408c54:	c5 fe 6f 44 85 40    	vmovdqu ymm0,YMMWORD PTR [rbp+rax*4+0x40]
  408c5a:	c5 fe 6f 4c 85 60    	vmovdqu ymm1,YMMWORD PTR [rbp+rax*4+0x60]
  408c60:	c4 c1 7e 6f 54 86 e0 	vmovdqu ymm2,YMMWORD PTR [r14+rax*4-0x20]
  408c67:	c4 c1 7e 6f 1c 86    	vmovdqu ymm3,YMMWORD PTR [r14+rax*4]
  408c6d:	c5 fe 7f 54 85 40    	vmovdqu YMMWORD PTR [rbp+rax*4+0x40],ymm2
  408c73:	c5 fe 7f 5c 85 60    	vmovdqu YMMWORD PTR [rbp+rax*4+0x60],ymm3
  408c79:	c4 c1 7e 7f 44 86 e0 	vmovdqu YMMWORD PTR [r14+rax*4-0x20],ymm0
  408c80:	c4 c1 7e 7f 0c 86    	vmovdqu YMMWORD PTR [r14+rax*4],ymm1
  408c86:	48 83 c0 20          	add    rax,0x20
  408c8a:	48 83 c1 02          	add    rcx,0x2
  408c8e:	75 90                	jne    408c20 <fwrite@plt+0x7ad0>
  408c90:	48 83 bc 24 d0 00 00 	cmp    QWORD PTR [rsp+0xd0],0x0
  408c97:	00 00 
  408c99:	74 34                	je     408ccf <fwrite@plt+0x7b7f>
  408c9b:	c5 fe 6f 44 85 00    	vmovdqu ymm0,YMMWORD PTR [rbp+rax*4+0x0]
  408ca1:	c5 fe 6f 4c 85 20    	vmovdqu ymm1,YMMWORD PTR [rbp+rax*4+0x20]
  408ca7:	c4 c1 7e 6f 54 85 00 	vmovdqu ymm2,YMMWORD PTR [r13+rax*4+0x0]
  408cae:	c4 c1 7e 6f 5c 85 20 	vmovdqu ymm3,YMMWORD PTR [r13+rax*4+0x20]
  408cb5:	c5 fe 7f 54 85 00    	vmovdqu YMMWORD PTR [rbp+rax*4+0x0],ymm2
  408cbb:	c5 fe 7f 5c 85 20    	vmovdqu YMMWORD PTR [rbp+rax*4+0x20],ymm3
  408cc1:	c4 c1 7e 7f 44 85 00 	vmovdqu YMMWORD PTR [r13+rax*4+0x0],ymm0
  408cc8:	c4 c1 7e 7f 4c 85 20 	vmovdqu YMMWORD PTR [r13+rax*4+0x20],ymm1
  408ccf:	48 8b 84 24 10 01 00 	mov    rax,QWORD PTR [rsp+0x110]
  408cd6:	00 
  408cd7:	48 39 44 24 78       	cmp    QWORD PTR [rsp+0x78],rax
  408cdc:	0f 84 0e 01 00 00    	je     408df0 <fwrite@plt+0x7ca0>
  408ce2:	48 8b 84 24 38 01 00 	mov    rax,QWORD PTR [rsp+0x138]
  408ce9:	00 
  408cea:	48 8d 6c 85 00       	lea    rbp,[rbp+rax*4+0x0]
  408cef:	48 8d 0c 85 00 00 00 	lea    rcx,[rax*4+0x0]
  408cf6:	00 
  408cf7:	4c 01 e9             	add    rcx,r13
  408cfa:	48 8b 84 24 48 01 00 	mov    rax,QWORD PTR [rsp+0x148]
  408d01:	00 
  408d02:	e9 4f fd ff ff       	jmp    408a56 <fwrite@plt+0x7906>
  408d07:	48 83 bc 24 e0 00 00 	cmp    QWORD PTR [rsp+0xe0],0x0
  408d0e:	00 00 
  408d10:	0f 84 c1 fb ff ff    	je     4088d7 <fwrite@plt+0x7787>
  408d16:	48 8b 8c 24 c0 00 00 	mov    rcx,QWORD PTR [rsp+0xc0]
  408d1d:	00 
  408d1e:	31 c0                	xor    eax,eax
  408d20:	c5 fc 10 44 05 00    	vmovups ymm0,YMMWORD PTR [rbp+rax*1+0x0]
  408d26:	c5 fc 10 4c 05 20    	vmovups ymm1,YMMWORD PTR [rbp+rax*1+0x20]
  408d2c:	c4 c1 7c 10 54 06 a0 	vmovups ymm2,YMMWORD PTR [r14+rax*1-0x60]
  408d33:	c4 c1 7c 10 5c 06 c0 	vmovups ymm3,YMMWORD PTR [r14+rax*1-0x40]
  408d3a:	c5 fc 11 54 05 00    	vmovups YMMWORD PTR [rbp+rax*1+0x0],ymm2
  408d40:	c5 fc 11 5c 05 20    	vmovups YMMWORD PTR [rbp+rax*1+0x20],ymm3
  408d46:	c4 c1 7c 11 44 06 a0 	vmovups YMMWORD PTR [r14+rax*1-0x60],ymm0
  408d4d:	c4 c1 7c 11 4c 06 c0 	vmovups YMMWORD PTR [r14+rax*1-0x40],ymm1
  408d54:	c5 fe 6f 44 05 40    	vmovdqu ymm0,YMMWORD PTR [rbp+rax*1+0x40]
  408d5a:	c5 fe 6f 4c 05 60    	vmovdqu ymm1,YMMWORD PTR [rbp+rax*1+0x60]
  408d60:	c4 c1 7e 6f 54 06 e0 	vmovdqu ymm2,YMMWORD PTR [r14+rax*1-0x20]
  408d67:	c4 c1 7e 6f 1c 06    	vmovdqu ymm3,YMMWORD PTR [r14+rax*1]
  408d6d:	c5 fe 7f 54 05 40    	vmovdqu YMMWORD PTR [rbp+rax*1+0x40],ymm2
  408d73:	c5 fe 7f 5c 05 60    	vmovdqu YMMWORD PTR [rbp+rax*1+0x60],ymm3
  408d79:	c4 c1 7e 7f 44 06 e0 	vmovdqu YMMWORD PTR [r14+rax*1-0x20],ymm0
  408d80:	c4 c1 7e 7f 0c 06    	vmovdqu YMMWORD PTR [r14+rax*1],ymm1
  408d86:	48 83 e8 80          	sub    rax,0xffffffffffffff80
  408d8a:	48 83 c1 02          	add    rcx,0x2
  408d8e:	75 90                	jne    408d20 <fwrite@plt+0x7bd0>
  408d90:	48 83 bc 24 d8 00 00 	cmp    QWORD PTR [rsp+0xd8],0x0
  408d97:	00 00 
  408d99:	74 34                	je     408dcf <fwrite@plt+0x7c7f>
  408d9b:	c5 fe 6f 44 05 00    	vmovdqu ymm0,YMMWORD PTR [rbp+rax*1+0x0]
  408da1:	c5 fe 6f 4c 05 20    	vmovdqu ymm1,YMMWORD PTR [rbp+rax*1+0x20]
  408da7:	c4 c1 7e 6f 54 05 00 	vmovdqu ymm2,YMMWORD PTR [r13+rax*1+0x0]
  408dae:	c4 c1 7e 6f 5c 05 20 	vmovdqu ymm3,YMMWORD PTR [r13+rax*1+0x20]
  408db5:	c5 fe 7f 54 05 00    	vmovdqu YMMWORD PTR [rbp+rax*1+0x0],ymm2
  408dbb:	c5 fe 7f 5c 05 20    	vmovdqu YMMWORD PTR [rbp+rax*1+0x20],ymm3
  408dc1:	c4 c1 7e 7f 44 05 00 	vmovdqu YMMWORD PTR [r13+rax*1+0x0],ymm0
  408dc8:	c4 c1 7e 7f 4c 05 20 	vmovdqu YMMWORD PTR [r13+rax*1+0x20],ymm1
  408dcf:	48 8b 84 24 08 01 00 	mov    rax,QWORD PTR [rsp+0x108]
  408dd6:	00 
  408dd7:	48 39 44 24 30       	cmp    QWORD PTR [rsp+0x30],rax
  408ddc:	0f 85 c3 fa ff ff    	jne    4088a5 <fwrite@plt+0x7755>
  408de2:	66 2e 0f 1f 84 00 00 	cs nop WORD PTR [rax+rax*1+0x0]
  408de9:	00 00 00 
  408dec:	0f 1f 40 00          	nop    DWORD PTR [rax+0x0]
  408df0:	49 83 c4 01          	add    r12,0x1
  408df4:	4d 01 c6             	add    r14,r8
  408df7:	4d 39 d5             	cmp    r13,r10
  408dfa:	0f 87 f0 fa ff ff    	ja     4088f0 <fwrite@plt+0x77a0>
  408e00:	48 8b 44 24 60       	mov    rax,QWORD PTR [rsp+0x60]
  408e05:	49 01 c7             	add    r15,rax
  408e08:	48 83 44 24 28 01    	add    QWORD PTR [rsp+0x28],0x1
  408e0e:	48 01 84 24 88 00 00 	add    QWORD PTR [rsp+0x88],rax
  408e15:	00 
  408e16:	4c 3b 7c 24 10       	cmp    r15,QWORD PTR [rsp+0x10]
  408e1b:	0f 82 bf f9 ff ff    	jb     4087e0 <fwrite@plt+0x7690>
  408e21:	48 81 c4 98 01 00 00 	add    rsp,0x198
  408e28:	5b                   	pop    rbx
  408e29:	41 5c                	pop    r12
  408e2b:	41 5d                	pop    r13
  408e2d:	41 5e                	pop    r14
  408e2f:	41 5f                	pop    r15
  408e31:	5d                   	pop    rbp
  408e32:	c5 f8 77             	vzeroupper 
  408e35:	c3                   	ret    
  408e36:	66 2e 0f 1f 84 00 00 	cs nop WORD PTR [rax+rax*1+0x0]
  408e3d:	00 00 00 
  408e40:	f3 0f 1e fa          	endbr64 
  408e44:	41 57                	push   r15
  408e46:	4c 8d 3d a3 2f 00 00 	lea    r15,[rip+0x2fa3]        # 40bdf0 <fwrite@plt+0xaca0>
  408e4d:	41 56                	push   r14
  408e4f:	49 89 d6             	mov    r14,rdx
  408e52:	41 55                	push   r13
  408e54:	49 89 f5             	mov    r13,rsi
  408e57:	41 54                	push   r12
  408e59:	41 89 fc             	mov    r12d,edi
  408e5c:	55                   	push   rbp
  408e5d:	48 8d 2d 94 2f 00 00 	lea    rbp,[rip+0x2f94]        # 40bdf8 <fwrite@plt+0xaca8>
  408e64:	53                   	push   rbx
  408e65:	4c 29 fd             	sub    rbp,r15
  408e68:	48 83 ec 08          	sub    rsp,0x8
  408e6c:	e8 8f 81 ff ff       	call   401000 <free@plt-0x30>
  408e71:	48 c1 fd 03          	sar    rbp,0x3
  408e75:	74 1f                	je     408e96 <fwrite@plt+0x7d46>
  408e77:	31 db                	xor    ebx,ebx
  408e79:	0f 1f 80 00 00 00 00 	nop    DWORD PTR [rax+0x0]
  408e80:	4c 89 f2             	mov    rdx,r14
  408e83:	4c 89 ee             	mov    rsi,r13
  408e86:	44 89 e7             	mov    edi,r12d
  408e89:	41 ff 14 df          	call   QWORD PTR [r15+rbx*8]
  408e8d:	48 83 c3 01          	add    rbx,0x1
  408e91:	48 39 dd             	cmp    rbp,rbx
  408e94:	75 ea                	jne    408e80 <fwrite@plt+0x7d30>
  408e96:	48 83 c4 08          	add    rsp,0x8
  408e9a:	5b                   	pop    rbx
  408e9b:	5d                   	pop    rbp
  408e9c:	41 5c                	pop    r12
  408e9e:	41 5d                	pop    r13
  408ea0:	41 5e                	pop    r14
  408ea2:	41 5f                	pop    r15
  408ea4:	c3                   	ret    
  408ea5:	66 66 2e 0f 1f 84 00 	data16 cs nop WORD PTR [rax+rax*1+0x0]
  408eac:	00 00 00 00 
  408eb0:	f3 0f 1e fa          	endbr64 
  408eb4:	c3                   	ret    

Disassembly of section .fini:

0000000000408eb8 <.fini>:
  408eb8:	f3 0f 1e fa          	endbr64 
  408ebc:	48 83 ec 08          	sub    rsp,0x8
  408ec0:	48 83 c4 08          	add    rsp,0x8
  408ec4:	c3                   	ret    
