
/home/jjang/Desktop/sample/llvm/505/strip/mcf_r_op3:     file format elf64-x86-64


Disassembly of section .init:

0000000000401000 <.init>:
  401000:	f3 0f 1e fa          	endbr64 
  401004:	48 83 ec 08          	sub    rsp,0x8
  401008:	48 8b 05 e9 bf 00 00 	mov    rax,QWORD PTR [rip+0xbfe9]        # 40cff8 <fwrite@plt+0xbe98>
  40100f:	48 85 c0             	test   rax,rax
  401012:	74 02                	je     401016 <free@plt-0x1a>
  401014:	ff d0                	call   rax
  401016:	48 83 c4 08          	add    rsp,0x8
  40101a:	c3                   	ret    

Disassembly of section .plt:

0000000000401020 <free@plt-0x10>:
  401020:	ff 35 e2 bf 00 00    	push   QWORD PTR [rip+0xbfe2]        # 40d008 <fwrite@plt+0xbea8>
  401026:	ff 25 e4 bf 00 00    	jmp    QWORD PTR [rip+0xbfe4]        # 40d010 <fwrite@plt+0xbeb0>
  40102c:	0f 1f 40 00          	nop    DWORD PTR [rax+0x0]

0000000000401030 <free@plt>:
  401030:	ff 25 e2 bf 00 00    	jmp    QWORD PTR [rip+0xbfe2]        # 40d018 <fwrite@plt+0xbeb8>
  401036:	68 00 00 00 00       	push   0x0
  40103b:	e9 e0 ff ff ff       	jmp    401020 <free@plt-0x10>

0000000000401040 <putchar@plt>:
  401040:	ff 25 da bf 00 00    	jmp    QWORD PTR [rip+0xbfda]        # 40d020 <fwrite@plt+0xbec0>
  401046:	68 01 00 00 00       	push   0x1
  40104b:	e9 d0 ff ff ff       	jmp    401020 <free@plt-0x10>

0000000000401050 <strcpy@plt>:
  401050:	ff 25 d2 bf 00 00    	jmp    QWORD PTR [rip+0xbfd2]        # 40d028 <fwrite@plt+0xbec8>
  401056:	68 02 00 00 00       	push   0x2
  40105b:	e9 c0 ff ff ff       	jmp    401020 <free@plt-0x10>

0000000000401060 <puts@plt>:
  401060:	ff 25 ca bf 00 00    	jmp    QWORD PTR [rip+0xbfca]        # 40d030 <fwrite@plt+0xbed0>
  401066:	68 03 00 00 00       	push   0x3
  40106b:	e9 b0 ff ff ff       	jmp    401020 <free@plt-0x10>

0000000000401070 <fclose@plt>:
  401070:	ff 25 c2 bf 00 00    	jmp    QWORD PTR [rip+0xbfc2]        # 40d038 <fwrite@plt+0xbed8>
  401076:	68 04 00 00 00       	push   0x4
  40107b:	e9 a0 ff ff ff       	jmp    401020 <free@plt-0x10>

0000000000401080 <printf@plt>:
  401080:	ff 25 ba bf 00 00    	jmp    QWORD PTR [rip+0xbfba]        # 40d040 <fwrite@plt+0xbee0>
  401086:	68 05 00 00 00       	push   0x5
  40108b:	e9 90 ff ff ff       	jmp    401020 <free@plt-0x10>

0000000000401090 <memset@plt>:
  401090:	ff 25 b2 bf 00 00    	jmp    QWORD PTR [rip+0xbfb2]        # 40d048 <fwrite@plt+0xbee8>
  401096:	68 06 00 00 00       	push   0x6
  40109b:	e9 80 ff ff ff       	jmp    401020 <free@plt-0x10>

00000000004010a0 <calloc@plt>:
  4010a0:	ff 25 aa bf 00 00    	jmp    QWORD PTR [rip+0xbfaa]        # 40d050 <fwrite@plt+0xbef0>
  4010a6:	68 07 00 00 00       	push   0x7
  4010ab:	e9 70 ff ff ff       	jmp    401020 <free@plt-0x10>

00000000004010b0 <fprintf@plt>:
  4010b0:	ff 25 a2 bf 00 00    	jmp    QWORD PTR [rip+0xbfa2]        # 40d058 <fwrite@plt+0xbef8>
  4010b6:	68 08 00 00 00       	push   0x8
  4010bb:	e9 60 ff ff ff       	jmp    401020 <free@plt-0x10>

00000000004010c0 <strtol@plt>:
  4010c0:	ff 25 9a bf 00 00    	jmp    QWORD PTR [rip+0xbf9a]        # 40d060 <fwrite@plt+0xbf00>
  4010c6:	68 09 00 00 00       	push   0x9
  4010cb:	e9 50 ff ff ff       	jmp    401020 <free@plt-0x10>

00000000004010d0 <fgets_unlocked@plt>:
  4010d0:	ff 25 92 bf 00 00    	jmp    QWORD PTR [rip+0xbf92]        # 40d068 <fwrite@plt+0xbf08>
  4010d6:	68 0a 00 00 00       	push   0xa
  4010db:	e9 40 ff ff ff       	jmp    401020 <free@plt-0x10>

00000000004010e0 <malloc@plt>:
  4010e0:	ff 25 8a bf 00 00    	jmp    QWORD PTR [rip+0xbf8a]        # 40d070 <fwrite@plt+0xbf10>
  4010e6:	68 0b 00 00 00       	push   0xb
  4010eb:	e9 30 ff ff ff       	jmp    401020 <free@plt-0x10>

00000000004010f0 <fflush@plt>:
  4010f0:	ff 25 82 bf 00 00    	jmp    QWORD PTR [rip+0xbf82]        # 40d078 <fwrite@plt+0xbf18>
  4010f6:	68 0c 00 00 00       	push   0xc
  4010fb:	e9 20 ff ff ff       	jmp    401020 <free@plt-0x10>

0000000000401100 <__isoc99_sscanf@plt>:
  401100:	ff 25 7a bf 00 00    	jmp    QWORD PTR [rip+0xbf7a]        # 40d080 <fwrite@plt+0xbf20>
  401106:	68 0d 00 00 00       	push   0xd
  40110b:	e9 10 ff ff ff       	jmp    401020 <free@plt-0x10>

0000000000401110 <fwrite_unlocked@plt>:
  401110:	ff 25 72 bf 00 00    	jmp    QWORD PTR [rip+0xbf72]        # 40d088 <fwrite@plt+0xbf28>
  401116:	68 0e 00 00 00       	push   0xe
  40111b:	e9 00 ff ff ff       	jmp    401020 <free@plt-0x10>

0000000000401120 <realloc@plt>:
  401120:	ff 25 6a bf 00 00    	jmp    QWORD PTR [rip+0xbf6a]        # 40d090 <fwrite@plt+0xbf30>
  401126:	68 0f 00 00 00       	push   0xf
  40112b:	e9 f0 fe ff ff       	jmp    401020 <free@plt-0x10>

0000000000401130 <fopen@plt>:
  401130:	ff 25 62 bf 00 00    	jmp    QWORD PTR [rip+0xbf62]        # 40d098 <fwrite@plt+0xbf38>
  401136:	68 10 00 00 00       	push   0x10
  40113b:	e9 e0 fe ff ff       	jmp    401020 <free@plt-0x10>

0000000000401140 <sprintf@plt>:
  401140:	ff 25 5a bf 00 00    	jmp    QWORD PTR [rip+0xbf5a]        # 40d0a0 <fwrite@plt+0xbf40>
  401146:	68 11 00 00 00       	push   0x11
  40114b:	e9 d0 fe ff ff       	jmp    401020 <free@plt-0x10>

0000000000401150 <exit@plt>:
  401150:	ff 25 52 bf 00 00    	jmp    QWORD PTR [rip+0xbf52]        # 40d0a8 <fwrite@plt+0xbf48>
  401156:	68 12 00 00 00       	push   0x12
  40115b:	e9 c0 fe ff ff       	jmp    401020 <free@plt-0x10>

0000000000401160 <fwrite@plt>:
  401160:	ff 25 4a bf 00 00    	jmp    QWORD PTR [rip+0xbf4a]        # 40d0b0 <fwrite@plt+0xbf50>
  401166:	68 13 00 00 00       	push   0x13
  40116b:	e9 b0 fe ff ff       	jmp    401020 <free@plt-0x10>

Disassembly of section .text:

0000000000401170 <.text>:
  401170:	f3 0f 1e fa          	endbr64 
  401174:	31 ed                	xor    ebp,ebp
  401176:	49 89 d1             	mov    r9,rdx
  401179:	5e                   	pop    rsi
  40117a:	48 89 e2             	mov    rdx,rsp
  40117d:	48 83 e4 f0          	and    rsp,0xfffffffffffffff0
  401181:	50                   	push   rax
  401182:	54                   	push   rsp
  401183:	49 c7 c0 30 93 40 00 	mov    r8,0x409330
  40118a:	48 c7 c1 c0 92 40 00 	mov    rcx,0x4092c0
  401191:	48 c7 c7 80 13 40 00 	mov    rdi,0x401380
  401198:	ff 15 52 be 00 00    	call   QWORD PTR [rip+0xbe52]        # 40cff0 <fwrite@plt+0xbe90>
  40119e:	f4                   	hlt    
  40119f:	90                   	nop
  4011a0:	f3 0f 1e fa          	endbr64 
  4011a4:	c3                   	ret    
  4011a5:	66 2e 0f 1f 84 00 00 	cs nop WORD PTR [rax+rax*1+0x0]
  4011ac:	00 00 00 
  4011af:	90                   	nop
  4011b0:	b8 c8 d0 40 00       	mov    eax,0x40d0c8
  4011b5:	48 3d c8 d0 40 00    	cmp    rax,0x40d0c8
  4011bb:	74 13                	je     4011d0 <fwrite@plt+0x70>
  4011bd:	b8 00 00 00 00       	mov    eax,0x0
  4011c2:	48 85 c0             	test   rax,rax
  4011c5:	74 09                	je     4011d0 <fwrite@plt+0x70>
  4011c7:	bf c8 d0 40 00       	mov    edi,0x40d0c8
  4011cc:	ff e0                	jmp    rax
  4011ce:	66 90                	xchg   ax,ax
  4011d0:	c3                   	ret    
  4011d1:	66 66 2e 0f 1f 84 00 	data16 cs nop WORD PTR [rax+rax*1+0x0]
  4011d8:	00 00 00 00 
  4011dc:	0f 1f 40 00          	nop    DWORD PTR [rax+0x0]
  4011e0:	be c8 d0 40 00       	mov    esi,0x40d0c8
  4011e5:	48 81 ee c8 d0 40 00 	sub    rsi,0x40d0c8
  4011ec:	48 89 f0             	mov    rax,rsi
  4011ef:	48 c1 ee 3f          	shr    rsi,0x3f
  4011f3:	48 c1 f8 03          	sar    rax,0x3
  4011f7:	48 01 c6             	add    rsi,rax
  4011fa:	48 d1 fe             	sar    rsi,1
  4011fd:	74 11                	je     401210 <fwrite@plt+0xb0>
  4011ff:	b8 00 00 00 00       	mov    eax,0x0
  401204:	48 85 c0             	test   rax,rax
  401207:	74 07                	je     401210 <fwrite@plt+0xb0>
  401209:	bf c8 d0 40 00       	mov    edi,0x40d0c8
  40120e:	ff e0                	jmp    rax
  401210:	c3                   	ret    
  401211:	66 66 2e 0f 1f 84 00 	data16 cs nop WORD PTR [rax+rax*1+0x0]
  401218:	00 00 00 00 
  40121c:	0f 1f 40 00          	nop    DWORD PTR [rax+0x0]
  401220:	f3 0f 1e fa          	endbr64 
  401224:	80 3d dd be 00 00 00 	cmp    BYTE PTR [rip+0xbedd],0x0        # 40d108 <stderr@@GLIBC_2.2.5+0x8>
  40122b:	75 13                	jne    401240 <fwrite@plt+0xe0>
  40122d:	55                   	push   rbp
  40122e:	48 89 e5             	mov    rbp,rsp
  401231:	e8 7a ff ff ff       	call   4011b0 <fwrite@plt+0x50>
  401236:	c6 05 cb be 00 00 01 	mov    BYTE PTR [rip+0xbecb],0x1        # 40d108 <stderr@@GLIBC_2.2.5+0x8>
  40123d:	5d                   	pop    rbp
  40123e:	c3                   	ret    
  40123f:	90                   	nop
  401240:	c3                   	ret    
  401241:	66 66 2e 0f 1f 84 00 	data16 cs nop WORD PTR [rax+rax*1+0x0]
  401248:	00 00 00 00 
  40124c:	0f 1f 40 00          	nop    DWORD PTR [rax+0x0]
  401250:	f3 0f 1e fa          	endbr64 
  401254:	eb 8a                	jmp    4011e0 <fwrite@plt+0x80>
  401256:	66 2e 0f 1f 84 00 00 	cs nop WORD PTR [rax+rax*1+0x0]
  40125d:	00 00 00 
  401260:	53                   	push   rbx
  401261:	48 c7 c3 ff ff ff ff 	mov    rbx,0xffffffffffffffff
  401268:	0f 1f 84 00 00 00 00 	nop    DWORD PTR [rax+rax*1+0x0]
  40126f:	00 
  401270:	48 85 db             	test   rbx,rbx
  401273:	0f 84 db 00 00 00    	je     401354 <fwrite@plt+0x1f4>
  401279:	48 8b 35 68 c0 00 00 	mov    rsi,QWORD PTR [rip+0xc068]        # 40d2e8 <stderr@@GLIBC_2.2.5+0x1e8>
  401280:	bf 04 a0 40 00       	mov    edi,0x40a004
  401285:	31 c0                	xor    eax,eax
  401287:	e8 f4 fd ff ff       	call   401080 <printf@plt>
  40128c:	bf 40 d1 40 00       	mov    edi,0x40d140
  401291:	e8 ca 3e 00 00       	call   405160 <fwrite@plt+0x4000>
  401296:	48 8b 35 03 c1 00 00 	mov    rsi,QWORD PTR [rip+0xc103]        # 40d3a0 <stderr@@GLIBC_2.2.5+0x2a0>
  40129d:	bf 26 a0 40 00       	mov    edi,0x40a026
  4012a2:	31 c0                	xor    eax,eax
  4012a4:	e8 d7 fd ff ff       	call   401080 <printf@plt>
  4012a9:	bf 40 d1 40 00       	mov    edi,0x40d140
  4012ae:	e8 1d 03 00 00       	call   4015d0 <fwrite@plt+0x470>
  4012b3:	bf 48 a0 40 00       	mov    edi,0x40a048
  4012b8:	b0 01                	mov    al,0x1
  4012ba:	e8 c1 fd ff ff       	call   401080 <printf@plt>
  4012bf:	48 83 3d 31 c0 00 00 	cmp    QWORD PTR [rip+0xc031],0x0        # 40d2f8 <stderr@@GLIBC_2.2.5+0x1f8>
  4012c6:	00 
  4012c7:	74 37                	je     401300 <fwrite@plt+0x1a0>
  4012c9:	bf 40 d1 40 00       	mov    edi,0x40d140
  4012ce:	48 c7 c6 ff ff ff ff 	mov    rsi,0xffffffffffffffff
  4012d5:	31 d2                	xor    edx,edx
  4012d7:	e8 f4 29 00 00       	call   403cd0 <fwrite@plt+0x2b70>
  4012dc:	48 85 c0             	test   rax,rax
  4012df:	78 5f                	js     401340 <fwrite@plt+0x1e0>
  4012e1:	74 33                	je     401316 <fwrite@plt+0x1b6>
  4012e3:	48 89 c1             	mov    rcx,rax
  4012e6:	bf 6c a0 40 00       	mov    edi,0x40a06c
  4012eb:	31 c0                	xor    eax,eax
  4012ed:	48 89 ce             	mov    rsi,rcx
  4012f0:	e8 8b fd ff ff       	call   401080 <printf@plt>
  4012f5:	eb 1f                	jmp    401316 <fwrite@plt+0x1b6>
  4012f7:	66 0f 1f 84 00 00 00 	nop    WORD PTR [rax+rax*1+0x0]
  4012fe:	00 00 
  401300:	48 8b 15 e1 bf 00 00 	mov    rdx,QWORD PTR [rip+0xbfe1]        # 40d2e8 <stderr@@GLIBC_2.2.5+0x1e8>
  401307:	bf 40 d1 40 00       	mov    edi,0x40d140
  40130c:	be a0 17 40 00       	mov    esi,0x4017a0
  401311:	e8 da 11 00 00       	call   4024f0 <fwrite@plt+0x1390>
  401316:	bf 40 d1 40 00       	mov    edi,0x40d140
  40131b:	e8 f0 1a 00 00       	call   402e10 <fwrite@plt+0x1cb0>
  401320:	48 89 c3             	mov    rbx,rax
  401323:	48 85 c0             	test   rax,rax
  401326:	74 0f                	je     401337 <fwrite@plt+0x1d7>
  401328:	bf 8e a0 40 00       	mov    edi,0x40a08e
  40132d:	31 c0                	xor    eax,eax
  40132f:	48 89 de             	mov    rsi,rbx
  401332:	e8 49 fd ff ff       	call   401080 <printf@plt>
  401337:	48 85 db             	test   rbx,rbx
  40133a:	0f 89 30 ff ff ff    	jns    401270 <fwrite@plt+0x110>
  401340:	bf 10 a1 40 00       	mov    edi,0x40a110
  401345:	e8 16 fd ff ff       	call   401060 <puts@plt>
  40134a:	bf ff ff ff ff       	mov    edi,0xffffffff
  40134f:	e8 fc fd ff ff       	call   401150 <exit@plt>
  401354:	bf 40 d1 40 00       	mov    edi,0x40d140
  401359:	e8 72 02 00 00       	call   4015d0 <fwrite@plt+0x470>
  40135e:	c5 fb 11 05 f2 bf 00 	vmovsd QWORD PTR [rip+0xbff2],xmm0        # 40d358 <stderr@@GLIBC_2.2.5+0x258>
  401365:	00 
  401366:	bf b0 a0 40 00       	mov    edi,0x40a0b0
  40136b:	b0 01                	mov    al,0x1
  40136d:	e8 0e fd ff ff       	call   401080 <printf@plt>
  401372:	31 c0                	xor    eax,eax
  401374:	5b                   	pop    rbx
  401375:	c3                   	ret    
  401376:	66 2e 0f 1f 84 00 00 	cs nop WORD PTR [rax+rax*1+0x0]
  40137d:	00 00 00 
  401380:	55                   	push   rbp
  401381:	41 56                	push   r14
  401383:	53                   	push   rbx
  401384:	48 83 ec 50          	sub    rsp,0x50
  401388:	41 be ff ff ff ff    	mov    r14d,0xffffffff
  40138e:	83 ff 02             	cmp    edi,0x2
  401391:	0f 8c 24 01 00 00    	jl     4014bb <fwrite@plt+0x35b>
  401397:	48 89 f3             	mov    rbx,rsi
  40139a:	89 fd                	mov    ebp,edi
  40139c:	bf 30 a1 40 00       	mov    edi,0x40a130
  4013a1:	e8 ba fc ff ff       	call   401060 <puts@plt>
  4013a6:	bf 50 a1 40 00       	mov    edi,0x40a150
  4013ab:	e8 b0 fc ff ff       	call   401060 <puts@plt>
  4013b0:	bf 90 a1 40 00       	mov    edi,0x40a190
  4013b5:	e8 a6 fc ff ff       	call   401060 <puts@plt>
  4013ba:	bf c0 a1 40 00       	mov    edi,0x40a1c0
  4013bf:	e8 9c fc ff ff       	call   401060 <puts@plt>
  4013c4:	bf f0 a1 40 00       	mov    edi,0x40a1f0
  4013c9:	e8 92 fc ff ff       	call   401060 <puts@plt>
  4013ce:	bf 0a 00 00 00       	mov    edi,0xa
  4013d3:	e8 68 fc ff ff       	call   401040 <putchar@plt>
  4013d8:	bf 40 d1 40 00       	mov    edi,0x40d140
  4013dd:	31 f6                	xor    esi,esi
  4013df:	ba 88 02 00 00       	mov    edx,0x288
  4013e4:	e8 a7 fc ff ff       	call   401090 <memset@plt>
  4013e9:	48 c7 05 5c bf 00 00 	mov    QWORD PTR [rip+0xbf5c],0x989680        # 40d350 <stderr@@GLIBC_2.2.5+0x250>
  4013f0:	80 96 98 00 
  4013f4:	48 8b 73 08          	mov    rsi,QWORD PTR [rbx+0x8]
  4013f8:	bf 40 d1 40 00       	mov    edi,0x40d140
  4013fd:	e8 4e fc ff ff       	call   401050 <strcpy@plt>
  401402:	83 fd 03             	cmp    ebp,0x3
  401405:	75 49                	jne    401450 <fwrite@plt+0x2f0>
  401407:	48 8b 7b 10          	mov    rdi,QWORD PTR [rbx+0x10]
  40140b:	31 f6                	xor    esi,esi
  40140d:	ba 0a 00 00 00       	mov    edx,0xa
  401412:	e8 a9 fc ff ff       	call   4010c0 <strtol@plt>
  401417:	48 89 c1             	mov    rcx,rax
  40141a:	48 89 e7             	mov    rdi,rsp
  40141d:	be d4 a0 40 00       	mov    esi,0x40a0d4
  401422:	31 c0                	xor    eax,eax
  401424:	89 ca                	mov    edx,ecx
  401426:	e8 15 fd ff ff       	call   401140 <sprintf@plt>
  40142b:	bf 40 d1 40 00       	mov    edi,0x40d140
  401430:	e8 eb 07 00 00       	call   401c20 <fwrite@plt+0xac0>
  401435:	48 85 c0             	test   rax,rax
  401438:	74 33                	je     40146d <fwrite@plt+0x30d>
  40143a:	bf 40 a2 40 00       	mov    edi,0x40a240
  40143f:	e8 1c fc ff ff       	call   401060 <puts@plt>
  401444:	bf 40 d1 40 00       	mov    edi,0x40d140
  401449:	e8 62 07 00 00       	call   401bb0 <fwrite@plt+0xa50>
  40144e:	eb 6b                	jmp    4014bb <fwrite@plt+0x35b>
  401450:	48 b8 6d 63 66 2e 6f 	movabs rax,0x74756f2e66636d
  401457:	75 74 00 
  40145a:	48 89 04 24          	mov    QWORD PTR [rsp],rax
  40145e:	bf 40 d1 40 00       	mov    edi,0x40d140
  401463:	e8 b8 07 00 00       	call   401c20 <fwrite@plt+0xac0>
  401468:	48 85 c0             	test   rax,rax
  40146b:	75 cd                	jne    40143a <fwrite@plt+0x2da>
  40146d:	48 8b 35 64 be 00 00 	mov    rsi,QWORD PTR [rip+0xbe64]        # 40d2d8 <stderr@@GLIBC_2.2.5+0x1d8>
  401474:	bf df a0 40 00       	mov    edi,0x40a0df
  401479:	31 c0                	xor    eax,eax
  40147b:	e8 00 fc ff ff       	call   401080 <printf@plt>
  401480:	bf 40 d1 40 00       	mov    edi,0x40d140
  401485:	e8 36 2e 00 00       	call   4042c0 <fwrite@plt+0x3160>
  40148a:	e8 d1 fd ff ff       	call   401260 <fwrite@plt+0x100>
  40148f:	48 89 e7             	mov    rdi,rsp
  401492:	be 40 d1 40 00       	mov    esi,0x40d140
  401497:	e8 14 31 00 00       	call   4045b0 <fwrite@plt+0x3450>
  40149c:	48 89 c3             	mov    rbx,rax
  40149f:	bf 40 d1 40 00       	mov    edi,0x40d140
  4014a4:	e8 07 07 00 00       	call   401bb0 <fwrite@plt+0xa50>
  4014a9:	48 85 db             	test   rbx,rbx
  4014ac:	75 0d                	jne    4014bb <fwrite@plt+0x35b>
  4014ae:	bf 01 a1 40 00       	mov    edi,0x40a101
  4014b3:	e8 a8 fb ff ff       	call   401060 <puts@plt>
  4014b8:	45 31 f6             	xor    r14d,r14d
  4014bb:	44 89 f0             	mov    eax,r14d
  4014be:	48 83 c4 50          	add    rsp,0x50
  4014c2:	5b                   	pop    rbx
  4014c3:	41 5e                	pop    r14
  4014c5:	5d                   	pop    rbp
  4014c6:	c3                   	ret    
  4014c7:	66 0f 1f 84 00 00 00 	nop    WORD PTR [rax+rax*1+0x0]
  4014ce:	00 00 
  4014d0:	41 57                	push   r15
  4014d2:	41 56                	push   r14
  4014d4:	41 55                	push   r13
  4014d6:	41 54                	push   r12
  4014d8:	53                   	push   rbx
  4014d9:	49 89 f6             	mov    r14,rsi
  4014dc:	49 89 ff             	mov    r15,rdi
  4014df:	48 8b 87 28 02 00 00 	mov    rax,QWORD PTR [rdi+0x228]
  4014e6:	48 8b 8f 30 02 00 00 	mov    rcx,QWORD PTR [rdi+0x230]
  4014ed:	48 39 c8             	cmp    rax,rcx
  4014f0:	73 1c                	jae    40150e <fwrite@plt+0x3ae>
  4014f2:	c5 f8 57 c0          	vxorps xmm0,xmm0,xmm0
  4014f6:	66 2e 0f 1f 84 00 00 	cs nop WORD PTR [rax+rax*1+0x0]
  4014fd:	00 00 00 
  401500:	c5 f8 11 40 38       	vmovups XMMWORD PTR [rax+0x38],xmm0
  401505:	48 83 c0 68          	add    rax,0x68
  401509:	48 39 c8             	cmp    rax,rcx
  40150c:	72 f2                	jb     401500 <fwrite@plt+0x3a0>
  40150e:	49 83 bf a8 01 00 00 	cmp    QWORD PTR [r15+0x1a8],0x0
  401515:	00 
  401516:	0f 8e a0 00 00 00    	jle    4015bc <fwrite@plt+0x45c>
  40151c:	4d 8b a7 38 02 00 00 	mov    r12,QWORD PTR [r15+0x238]
  401523:	49 8b 44 24 10       	mov    rax,QWORD PTR [r12+0x10]
  401528:	48 8b 48 38          	mov    rcx,QWORD PTR [rax+0x38]
  40152c:	49 89 4c 24 28       	mov    QWORD PTR [r12+0x28],rcx
  401531:	4c 89 60 38          	mov    QWORD PTR [rax+0x38],r12
  401535:	49 8b 44 24 18       	mov    rax,QWORD PTR [r12+0x18]
  40153a:	48 8b 48 40          	mov    rcx,QWORD PTR [rax+0x40]
  40153e:	49 89 4c 24 30       	mov    QWORD PTR [r12+0x30],rcx
  401543:	4c 89 60 40          	mov    QWORD PTR [rax+0x40],r12
  401547:	be 01 00 00 00       	mov    esi,0x1
  40154c:	4c 89 ff             	mov    rdi,r15
  40154f:	41 ff d6             	call   r14
  401552:	49 83 bf a8 01 00 00 	cmp    QWORD PTR [r15+0x1a8],0x2
  401559:	02 
  40155a:	7c 60                	jl     4015bc <fwrite@plt+0x45c>
  40155c:	bb 01 00 00 00       	mov    ebx,0x1
  401561:	66 2e 0f 1f 84 00 00 	cs nop WORD PTR [rax+rax*1+0x0]
  401568:	00 00 00 
  40156b:	0f 1f 44 00 00       	nop    DWORD PTR [rax+rax*1+0x0]
  401570:	48 8d 04 c0          	lea    rax,[rax+rax*8]
  401574:	49 8d 0c c4          	lea    rcx,[r12+rax*8]
  401578:	4d 8b af 38 02 00 00 	mov    r13,QWORD PTR [r15+0x238]
  40157f:	49 8b 54 c4 10       	mov    rdx,QWORD PTR [r12+rax*8+0x10]
  401584:	48 8b 72 38          	mov    rsi,QWORD PTR [rdx+0x38]
  401588:	49 89 74 c4 28       	mov    QWORD PTR [r12+rax*8+0x28],rsi
  40158d:	48 89 4a 38          	mov    QWORD PTR [rdx+0x38],rcx
  401591:	49 8b 54 c4 18       	mov    rdx,QWORD PTR [r12+rax*8+0x18]
  401596:	48 8b 72 40          	mov    rsi,QWORD PTR [rdx+0x40]
  40159a:	49 89 74 c4 30       	mov    QWORD PTR [r12+rax*8+0x30],rsi
  40159f:	48 89 4a 40          	mov    QWORD PTR [rdx+0x40],rcx
  4015a3:	48 83 c3 01          	add    rbx,0x1
  4015a7:	4c 89 ff             	mov    rdi,r15
  4015aa:	48 89 de             	mov    rsi,rbx
  4015ad:	41 ff d6             	call   r14
  4015b0:	49 39 9f a8 01 00 00 	cmp    QWORD PTR [r15+0x1a8],rbx
  4015b7:	4d 89 ec             	mov    r12,r13
  4015ba:	7f b4                	jg     401570 <fwrite@plt+0x410>
  4015bc:	5b                   	pop    rbx
  4015bd:	41 5c                	pop    r12
  4015bf:	41 5d                	pop    r13
  4015c1:	41 5e                	pop    r14
  4015c3:	41 5f                	pop    r15
  4015c5:	c3                   	ret    
  4015c6:	66 2e 0f 1f 84 00 00 	cs nop WORD PTR [rax+rax*1+0x0]
  4015cd:	00 00 00 
  4015d0:	53                   	push   rbx
  4015d1:	4c 8b 97 a8 01 00 00 	mov    r10,QWORD PTR [rdi+0x1a8]
  4015d8:	48 8b 9f 38 02 00 00 	mov    rbx,QWORD PTR [rdi+0x238]
  4015df:	4d 85 d2             	test   r10,r10
  4015e2:	7e 7b                	jle    40165f <fwrite@plt+0x4ff>
  4015e4:	45 89 d0             	mov    r8d,r10d
  4015e7:	41 83 e0 01          	and    r8d,0x1
  4015eb:	49 83 fa 01          	cmp    r10,0x1
  4015ef:	75 09                	jne    4015fa <fwrite@plt+0x49a>
  4015f1:	31 f6                	xor    esi,esi
  4015f3:	4d 85 c0             	test   r8,r8
  4015f6:	75 50                	jne    401648 <fwrite@plt+0x4e8>
  4015f8:	eb 65                	jmp    40165f <fwrite@plt+0x4ff>
  4015fa:	4d 89 d1             	mov    r9,r10
  4015fd:	4d 29 c1             	sub    r9,r8
  401600:	48 89 d9             	mov    rcx,rbx
  401603:	48 83 e9 80          	sub    rcx,0xffffffffffffff80
  401607:	31 f6                	xor    esi,esi
  401609:	0f 1f 80 00 00 00 00 	nop    DWORD PTR [rax+0x0]
  401610:	44 0f b7 59 a0       	movzx  r11d,WORD PTR [rcx-0x60]
  401615:	31 c0                	xor    eax,eax
  401617:	41 83 fb 02          	cmp    r11d,0x2
  40161b:	0f 94 c0             	sete   al
  40161e:	48 89 41 b8          	mov    QWORD PTR [rcx-0x48],rax
  401622:	44 0f b7 59 e8       	movzx  r11d,WORD PTR [rcx-0x18]
  401627:	31 c0                	xor    eax,eax
  401629:	41 83 fb 02          	cmp    r11d,0x2
  40162d:	0f 94 c0             	sete   al
  401630:	48 89 01             	mov    QWORD PTR [rcx],rax
  401633:	48 83 c6 02          	add    rsi,0x2
  401637:	48 81 c1 90 00 00 00 	add    rcx,0x90
  40163e:	49 39 f1             	cmp    r9,rsi
  401641:	75 cd                	jne    401610 <fwrite@plt+0x4b0>
  401643:	4d 85 c0             	test   r8,r8
  401646:	74 17                	je     40165f <fwrite@plt+0x4ff>
  401648:	48 8d 04 f6          	lea    rax,[rsi+rsi*8]
  40164c:	0f b7 4c c3 20       	movzx  ecx,WORD PTR [rbx+rax*8+0x20]
  401651:	31 f6                	xor    esi,esi
  401653:	83 f9 02             	cmp    ecx,0x2
  401656:	40 0f 94 c6          	sete   sil
  40165a:	48 89 74 c3 38       	mov    QWORD PTR [rbx+rax*8+0x38],rsi
  40165f:	4c 8b 87 90 01 00 00 	mov    r8,QWORD PTR [rdi+0x190]
  401666:	4d 85 c0             	test   r8,r8
  401669:	7e 2d                	jle    401698 <fwrite@plt+0x538>
  40166b:	48 8b b7 28 02 00 00 	mov    rsi,QWORD PTR [rdi+0x228]
  401672:	48 81 c6 b8 00 00 00 	add    rsi,0xb8
  401679:	b9 01 00 00 00       	mov    ecx,0x1
  40167e:	66 90                	xchg   ax,ax
  401680:	48 8b 46 e0          	mov    rax,QWORD PTR [rsi-0x20]
  401684:	48 8b 16             	mov    rdx,QWORD PTR [rsi]
  401687:	48 89 50 38          	mov    QWORD PTR [rax+0x38],rdx
  40168b:	48 83 c1 01          	add    rcx,0x1
  40168f:	48 83 c6 68          	add    rsi,0x68
  401693:	49 39 c8             	cmp    r8,rcx
  401696:	7d e8                	jge    401680 <fwrite@plt+0x520>
  401698:	4d 85 d2             	test   r10,r10
  40169b:	0f 8e 7d 00 00 00    	jle    40171e <fwrite@plt+0x5be>
  4016a1:	48 83 c3 08          	add    rbx,0x8
  4016a5:	31 c9                	xor    ecx,ecx
  4016a7:	45 31 c0             	xor    r8d,r8d
  4016aa:	66 0f 1f 44 00 00    	nop    WORD PTR [rax+rax*1+0x0]
  4016b0:	48 83 7b 30 00       	cmp    QWORD PTR [rbx+0x30],0x0
  4016b5:	74 49                	je     401700 <fwrite@plt+0x5a0>
  4016b7:	48 8b 43 08          	mov    rax,QWORD PTR [rbx+0x8]
  4016bb:	8b 40 60             	mov    eax,DWORD PTR [rax+0x60]
  4016be:	85 c0                	test   eax,eax
  4016c0:	78 2e                	js     4016f0 <fwrite@plt+0x590>
  4016c2:	48 8b 33             	mov    rsi,QWORD PTR [rbx]
  4016c5:	75 48                	jne    40170f <fwrite@plt+0x5af>
  4016c7:	48 01 ce             	add    rsi,rcx
  4016ca:	48 2b b7 10 02 00 00 	sub    rsi,QWORD PTR [rdi+0x210]
  4016d1:	49 83 c0 01          	add    r8,0x1
  4016d5:	48 89 f1             	mov    rcx,rsi
  4016d8:	48 83 c3 48          	add    rbx,0x48
  4016dc:	49 83 c2 ff          	add    r10,0xffffffffffffffff
  4016e0:	75 ce                	jne    4016b0 <fwrite@plt+0x550>
  4016e2:	eb 3f                	jmp    401723 <fwrite@plt+0x5c3>
  4016e4:	66 2e 0f 1f 84 00 00 	cs nop WORD PTR [rax+rax*1+0x0]
  4016eb:	00 00 00 
  4016ee:	66 90                	xchg   ax,ax
  4016f0:	48 8b 43 10          	mov    rax,QWORD PTR [rbx+0x10]
  4016f4:	83 78 60 00          	cmp    DWORD PTR [rax+0x60],0x0
  4016f8:	7e 12                	jle    40170c <fwrite@plt+0x5ac>
  4016fa:	66 0f 1f 44 00 00    	nop    WORD PTR [rax+rax*1+0x0]
  401700:	48 83 c3 48          	add    rbx,0x48
  401704:	49 83 c2 ff          	add    r10,0xffffffffffffffff
  401708:	75 a6                	jne    4016b0 <fwrite@plt+0x550>
  40170a:	eb 17                	jmp    401723 <fwrite@plt+0x5c3>
  40170c:	48 8b 33             	mov    rsi,QWORD PTR [rbx]
  40170f:	48 01 f1             	add    rcx,rsi
  401712:	48 83 c3 48          	add    rbx,0x48
  401716:	49 83 c2 ff          	add    r10,0xffffffffffffffff
  40171a:	75 94                	jne    4016b0 <fwrite@plt+0x550>
  40171c:	eb 05                	jmp    401723 <fwrite@plt+0x5c3>
  40171e:	45 31 c0             	xor    r8d,r8d
  401721:	31 c9                	xor    ecx,ecx
  401723:	c4 c1 fb 2a c0       	vcvtsi2sd xmm0,xmm0,r8
  401728:	c4 e1 f3 2a 8f 10 02 	vcvtsi2sd xmm1,xmm1,QWORD PTR [rdi+0x210]
  40172f:	00 00 
  401731:	c5 fb 59 c1          	vmulsd xmm0,xmm0,xmm1
  401735:	c4 e1 eb 2a c9       	vcvtsi2sd xmm1,xmm2,rcx
  40173a:	c5 fb 58 c1          	vaddsd xmm0,xmm0,xmm1
  40173e:	5b                   	pop    rbx
  40173f:	c3                   	ret    
  401740:	31 c0                	xor    eax,eax
  401742:	c3                   	ret    
  401743:	66 2e 0f 1f 84 00 00 	cs nop WORD PTR [rax+rax*1+0x0]
  40174a:	00 00 00 
  40174d:	0f 1f 00             	nop    DWORD PTR [rax]
  401750:	48 89 f0             	mov    rax,rsi
  401753:	48 99                	cqo    
  401755:	48 f7 bf 70 02 00 00 	idiv   QWORD PTR [rdi+0x270]
  40175c:	48 8b b7 78 02 00 00 	mov    rsi,QWORD PTR [rdi+0x278]
  401763:	48 8b 8f 80 02 00 00 	mov    rcx,QWORD PTR [rdi+0x280]
  40176a:	48 89 d7             	mov    rdi,rdx
  40176d:	48 29 f7             	sub    rdi,rsi
  401770:	7e 16                	jle    401788 <fwrite@plt+0x628>
  401772:	48 0f af f1          	imul   rsi,rcx
  401776:	48 83 c1 ff          	add    rcx,0xffffffffffffffff
  40177a:	48 0f af cf          	imul   rcx,rdi
  40177e:	48 01 f1             	add    rcx,rsi
  401781:	48 01 c1             	add    rcx,rax
  401784:	48 89 c8             	mov    rax,rcx
  401787:	c3                   	ret    
  401788:	48 0f af ca          	imul   rcx,rdx
  40178c:	48 01 c1             	add    rcx,rax
  40178f:	48 89 c8             	mov    rax,rcx
  401792:	c3                   	ret    
  401793:	66 2e 0f 1f 84 00 00 	cs nop WORD PTR [rax+rax*1+0x0]
  40179a:	00 00 00 
  40179d:	0f 1f 00             	nop    DWORD PTR [rax]
  4017a0:	48 89 f0             	mov    rax,rsi
  4017a3:	c3                   	ret    
  4017a4:	66 2e 0f 1f 84 00 00 	cs nop WORD PTR [rax+rax*1+0x0]
  4017ab:	00 00 00 
  4017ae:	66 90                	xchg   ax,ax
  4017b0:	41 56                	push   r14
  4017b2:	53                   	push   rbx
  4017b3:	48 83 ec 18          	sub    rsp,0x18
  4017b7:	49 89 fe             	mov    r14,rdi
  4017ba:	4c 8b 97 a8 01 00 00 	mov    r10,QWORD PTR [rdi+0x1a8]
  4017c1:	48 8b 9f 38 02 00 00 	mov    rbx,QWORD PTR [rdi+0x238]
  4017c8:	4d 85 d2             	test   r10,r10
  4017cb:	0f 8e 7c 00 00 00    	jle    40184d <fwrite@plt+0x6ed>
  4017d1:	45 89 d0             	mov    r8d,r10d
  4017d4:	41 83 e0 01          	and    r8d,0x1
  4017d8:	49 83 fa 01          	cmp    r10,0x1
  4017dc:	75 09                	jne    4017e7 <fwrite@plt+0x687>
  4017de:	31 f6                	xor    esi,esi
  4017e0:	4d 85 c0             	test   r8,r8
  4017e3:	75 51                	jne    401836 <fwrite@plt+0x6d6>
  4017e5:	eb 66                	jmp    40184d <fwrite@plt+0x6ed>
  4017e7:	4d 89 d1             	mov    r9,r10
  4017ea:	4d 29 c1             	sub    r9,r8
  4017ed:	48 89 d9             	mov    rcx,rbx
  4017f0:	48 83 e9 80          	sub    rcx,0xffffffffffffff80
  4017f4:	31 f6                	xor    esi,esi
  4017f6:	66 2e 0f 1f 84 00 00 	cs nop WORD PTR [rax+rax*1+0x0]
  4017fd:	00 00 00 
  401800:	0f b7 51 a0          	movzx  edx,WORD PTR [rcx-0x60]
  401804:	31 ff                	xor    edi,edi
  401806:	83 fa 02             	cmp    edx,0x2
  401809:	40 0f 94 c7          	sete   dil
  40180d:	48 89 79 b8          	mov    QWORD PTR [rcx-0x48],rdi
  401811:	0f b7 51 e8          	movzx  edx,WORD PTR [rcx-0x18]
  401815:	31 ff                	xor    edi,edi
  401817:	83 fa 02             	cmp    edx,0x2
  40181a:	40 0f 94 c7          	sete   dil
  40181e:	48 89 39             	mov    QWORD PTR [rcx],rdi
  401821:	48 83 c6 02          	add    rsi,0x2
  401825:	48 81 c1 90 00 00 00 	add    rcx,0x90
  40182c:	49 39 f1             	cmp    r9,rsi
  40182f:	75 cf                	jne    401800 <fwrite@plt+0x6a0>
  401831:	4d 85 c0             	test   r8,r8
  401834:	74 17                	je     40184d <fwrite@plt+0x6ed>
  401836:	48 8d 0c f6          	lea    rcx,[rsi+rsi*8]
  40183a:	0f b7 54 cb 20       	movzx  edx,WORD PTR [rbx+rcx*8+0x20]
  40183f:	31 f6                	xor    esi,esi
  401841:	83 fa 02             	cmp    edx,0x2
  401844:	40 0f 94 c6          	sete   sil
  401848:	48 89 74 cb 38       	mov    QWORD PTR [rbx+rcx*8+0x38],rsi
  40184d:	4d 8b 8e 90 01 00 00 	mov    r9,QWORD PTR [r14+0x190]
  401854:	4d 85 c9             	test   r9,r9
  401857:	0f 8e b8 00 00 00    	jle    401915 <fwrite@plt+0x7b5>
  40185d:	4d 8b 86 28 02 00 00 	mov    r8,QWORD PTR [r14+0x228]
  401864:	49 8d 49 ff          	lea    rcx,[r9-0x1]
  401868:	44 89 ca             	mov    edx,r9d
  40186b:	83 e2 03             	and    edx,0x3
  40186e:	48 83 f9 03          	cmp    rcx,0x3
  401872:	73 0c                	jae    401880 <fwrite@plt+0x720>
  401874:	31 f6                	xor    esi,esi
  401876:	48 85 d2             	test   rdx,rdx
  401879:	75 68                	jne    4018e3 <fwrite@plt+0x783>
  40187b:	e9 95 00 00 00       	jmp    401915 <fwrite@plt+0x7b5>
  401880:	49 29 d1             	sub    r9,rdx
  401883:	49 8d 88 88 01 00 00 	lea    rcx,[r8+0x188]
  40188a:	31 f6                	xor    esi,esi
  40188c:	0f 1f 40 00          	nop    DWORD PTR [rax+0x0]
  401890:	48 8b b9 a8 fe ff ff 	mov    rdi,QWORD PTR [rcx-0x158]
  401897:	48 8b 81 c8 fe ff ff 	mov    rax,QWORD PTR [rcx-0x138]
  40189e:	48 89 47 38          	mov    QWORD PTR [rdi+0x38],rax
  4018a2:	48 8b 81 10 ff ff ff 	mov    rax,QWORD PTR [rcx-0xf0]
  4018a9:	48 8b b9 30 ff ff ff 	mov    rdi,QWORD PTR [rcx-0xd0]
  4018b0:	48 89 78 38          	mov    QWORD PTR [rax+0x38],rdi
  4018b4:	48 8b 81 78 ff ff ff 	mov    rax,QWORD PTR [rcx-0x88]
  4018bb:	48 8b 79 98          	mov    rdi,QWORD PTR [rcx-0x68]
  4018bf:	48 89 78 38          	mov    QWORD PTR [rax+0x38],rdi
  4018c3:	48 8b 41 e0          	mov    rax,QWORD PTR [rcx-0x20]
  4018c7:	48 8b 39             	mov    rdi,QWORD PTR [rcx]
  4018ca:	48 89 78 38          	mov    QWORD PTR [rax+0x38],rdi
  4018ce:	48 83 c6 04          	add    rsi,0x4
  4018d2:	48 81 c1 a0 01 00 00 	add    rcx,0x1a0
  4018d9:	49 39 f1             	cmp    r9,rsi
  4018dc:	75 b2                	jne    401890 <fwrite@plt+0x730>
  4018de:	48 85 d2             	test   rdx,rdx
  4018e1:	74 32                	je     401915 <fwrite@plt+0x7b5>
  4018e3:	48 6b ce 68          	imul   rcx,rsi,0x68
  4018e7:	4c 01 c1             	add    rcx,r8
  4018ea:	48 83 c1 50          	add    rcx,0x50
  4018ee:	48 f7 da             	neg    rdx
  4018f1:	66 2e 0f 1f 84 00 00 	cs nop WORD PTR [rax+rax*1+0x0]
  4018f8:	00 00 00 
  4018fb:	0f 1f 44 00 00       	nop    DWORD PTR [rax+rax*1+0x0]
  401900:	48 8b 71 e0          	mov    rsi,QWORD PTR [rcx-0x20]
  401904:	48 8b 39             	mov    rdi,QWORD PTR [rcx]
  401907:	48 89 7e 38          	mov    QWORD PTR [rsi+0x38],rdi
  40190b:	48 83 c1 68          	add    rcx,0x68
  40190f:	48 83 c2 01          	add    rdx,0x1
  401913:	75 eb                	jne    401900 <fwrite@plt+0x7a0>
  401915:	4d 85 d2             	test   r10,r10
  401918:	0f 8e 80 00 00 00    	jle    40199e <fwrite@plt+0x83e>
  40191e:	48 83 c3 40          	add    rbx,0x40
  401922:	31 f6                	xor    esi,esi
  401924:	31 d2                	xor    edx,edx
  401926:	66 2e 0f 1f 84 00 00 	cs nop WORD PTR [rax+rax*1+0x0]
  40192d:	00 00 00 
  401930:	48 83 7b f8 00       	cmp    QWORD PTR [rbx-0x8],0x0
  401935:	74 49                	je     401980 <fwrite@plt+0x820>
  401937:	48 8b 43 d0          	mov    rax,QWORD PTR [rbx-0x30]
  40193b:	8b 40 60             	mov    eax,DWORD PTR [rax+0x60]
  40193e:	85 c0                	test   eax,eax
  401940:	78 2e                	js     401970 <fwrite@plt+0x810>
  401942:	48 8b 0b             	mov    rcx,QWORD PTR [rbx]
  401945:	75 48                	jne    40198f <fwrite@plt+0x82f>
  401947:	48 01 f1             	add    rcx,rsi
  40194a:	49 2b 8e 10 02 00 00 	sub    rcx,QWORD PTR [r14+0x210]
  401951:	48 83 c2 01          	add    rdx,0x1
  401955:	48 89 ce             	mov    rsi,rcx
  401958:	48 83 c3 48          	add    rbx,0x48
  40195c:	49 83 c2 ff          	add    r10,0xffffffffffffffff
  401960:	75 ce                	jne    401930 <fwrite@plt+0x7d0>
  401962:	eb 3e                	jmp    4019a2 <fwrite@plt+0x842>
  401964:	66 2e 0f 1f 84 00 00 	cs nop WORD PTR [rax+rax*1+0x0]
  40196b:	00 00 00 
  40196e:	66 90                	xchg   ax,ax
  401970:	48 8b 43 d8          	mov    rax,QWORD PTR [rbx-0x28]
  401974:	83 78 60 00          	cmp    DWORD PTR [rax+0x60],0x0
  401978:	7e 12                	jle    40198c <fwrite@plt+0x82c>
  40197a:	66 0f 1f 44 00 00    	nop    WORD PTR [rax+rax*1+0x0]
  401980:	48 83 c3 48          	add    rbx,0x48
  401984:	49 83 c2 ff          	add    r10,0xffffffffffffffff
  401988:	75 a6                	jne    401930 <fwrite@plt+0x7d0>
  40198a:	eb 16                	jmp    4019a2 <fwrite@plt+0x842>
  40198c:	48 8b 0b             	mov    rcx,QWORD PTR [rbx]
  40198f:	48 01 ce             	add    rsi,rcx
  401992:	48 83 c3 48          	add    rbx,0x48
  401996:	49 83 c2 ff          	add    r10,0xffffffffffffffff
  40199a:	75 94                	jne    401930 <fwrite@plt+0x7d0>
  40199c:	eb 04                	jmp    4019a2 <fwrite@plt+0x842>
  40199e:	31 d2                	xor    edx,edx
  4019a0:	31 f6                	xor    esi,esi
  4019a2:	c4 e1 fb 2a ca       	vcvtsi2sd xmm1,xmm0,rdx
  4019a7:	c5 fb 11 4c 24 10    	vmovsd QWORD PTR [rsp+0x10],xmm1
  4019ad:	c4 c1 fb 2a 86 10 02 	vcvtsi2sd xmm0,xmm0,QWORD PTR [r14+0x210]
  4019b4:	00 00 
  4019b6:	c5 f3 59 c0          	vmulsd xmm0,xmm1,xmm0
  4019ba:	c4 e1 eb 2a ce       	vcvtsi2sd xmm1,xmm2,rsi
  4019bf:	c5 fb 11 4c 24 08    	vmovsd QWORD PTR [rsp+0x8],xmm1
  4019c5:	c5 fb 58 c1          	vaddsd xmm0,xmm0,xmm1
  4019c9:	bf 51 a2 40 00       	mov    edi,0x40a251
  4019ce:	b0 01                	mov    al,0x1
  4019d0:	e8 ab f6 ff ff       	call   401080 <printf@plt>
  4019d5:	c4 c1 eb 2a 86 10 02 	vcvtsi2sd xmm0,xmm2,QWORD PTR [r14+0x210]
  4019dc:	00 00 
  4019de:	c5 fb 59 44 24 10    	vmulsd xmm0,xmm0,QWORD PTR [rsp+0x10]
  4019e4:	c5 fb 58 44 24 08    	vaddsd xmm0,xmm0,QWORD PTR [rsp+0x8]
  4019ea:	48 83 c4 18          	add    rsp,0x18
  4019ee:	5b                   	pop    rbx
  4019ef:	41 5e                	pop    r14
  4019f1:	c3                   	ret    
  4019f2:	66 2e 0f 1f 84 00 00 	cs nop WORD PTR [rax+rax*1+0x0]
  4019f9:	00 00 00 
  4019fc:	0f 1f 40 00          	nop    DWORD PTR [rax+0x0]
  401a00:	55                   	push   rbp
  401a01:	41 57                	push   r15
  401a03:	41 56                	push   r14
  401a05:	41 55                	push   r13
  401a07:	41 54                	push   r12
  401a09:	53                   	push   rbx
  401a0a:	50                   	push   rax
  401a0b:	49 89 ff             	mov    r15,rdi
  401a0e:	48 8b 9f 28 02 00 00 	mov    rbx,QWORD PTR [rdi+0x228]
  401a15:	48 8b af 30 02 00 00 	mov    rbp,QWORD PTR [rdi+0x230]
  401a1c:	48 83 c3 68          	add    rbx,0x68
  401a20:	48 39 eb             	cmp    rbx,rbp
  401a23:	0f 83 94 00 00 00    	jae    401abd <fwrite@plt+0x95d>
  401a29:	4d 8b a7 50 02 00 00 	mov    r12,QWORD PTR [r15+0x250]
  401a30:	4d 8b b7 58 02 00 00 	mov    r14,QWORD PTR [r15+0x258]
  401a37:	66 0f 1f 84 00 00 00 	nop    WORD PTR [rax+rax*1+0x0]
  401a3e:	00 00 
  401a40:	48 8b 43 30          	mov    rax,QWORD PTR [rbx+0x30]
  401a44:	4c 8b 6b 50          	mov    r13,QWORD PTR [rbx+0x50]
  401a48:	4c 39 e0             	cmp    rax,r12
  401a4b:	72 43                	jb     401a90 <fwrite@plt+0x930>
  401a4d:	4c 39 f0             	cmp    rax,r14
  401a50:	73 3e                	jae    401a90 <fwrite@plt+0x930>
  401a52:	4c 89 e8             	mov    rax,r13
  401a55:	48 f7 d8             	neg    rax
  401a58:	49 0f 4c c5          	cmovl  rax,r13
  401a5c:	49 3b 87 00 02 00 00 	cmp    rax,QWORD PTR [r15+0x200]
  401a63:	7e 46                	jle    401aab <fwrite@plt+0x94b>
  401a65:	bf 5e a2 40 00       	mov    edi,0x40a25e
  401a6a:	31 c0                	xor    eax,eax
  401a6c:	e8 0f f6 ff ff       	call   401080 <printf@plt>
  401a71:	8b 73 60             	mov    esi,DWORD PTR [rbx+0x60]
  401a74:	bf 77 a2 40 00       	mov    edi,0x40a277
  401a79:	31 c0                	xor    eax,eax
  401a7b:	4c 89 ea             	mov    rdx,r13
  401a7e:	e8 fd f5 ff ff       	call   401080 <printf@plt>
  401a83:	48 83 c3 68          	add    rbx,0x68
  401a87:	48 39 eb             	cmp    rbx,rbp
  401a8a:	72 b4                	jb     401a40 <fwrite@plt+0x8e0>
  401a8c:	eb 26                	jmp    401ab4 <fwrite@plt+0x954>
  401a8e:	66 90                	xchg   ax,ax
  401a90:	49 8b 87 00 02 00 00 	mov    rax,QWORD PTR [r15+0x200]
  401a97:	48 89 c1             	mov    rcx,rax
  401a9a:	48 f7 d9             	neg    rcx
  401a9d:	49 39 cd             	cmp    r13,rcx
  401aa0:	7c 24                	jl     401ac6 <fwrite@plt+0x966>
  401aa2:	49 8d 4d ff          	lea    rcx,[r13-0x1]
  401aa6:	48 39 c1             	cmp    rcx,rax
  401aa9:	7f 1b                	jg     401ac6 <fwrite@plt+0x966>
  401aab:	48 83 c3 68          	add    rbx,0x68
  401aaf:	48 39 eb             	cmp    rbx,rbp
  401ab2:	72 8c                	jb     401a40 <fwrite@plt+0x8e0>
  401ab4:	bb 01 00 00 00       	mov    ebx,0x1
  401ab9:	31 c0                	xor    eax,eax
  401abb:	eb 2b                	jmp    401ae8 <fwrite@plt+0x988>
  401abd:	31 c0                	xor    eax,eax
  401abf:	bb 01 00 00 00       	mov    ebx,0x1
  401ac4:	eb 22                	jmp    401ae8 <fwrite@plt+0x988>
  401ac6:	31 db                	xor    ebx,ebx
  401ac8:	bf 5e a2 40 00       	mov    edi,0x40a25e
  401acd:	31 c0                	xor    eax,eax
  401acf:	e8 ac f5 ff ff       	call   401080 <printf@plt>
  401ad4:	bf a8 a2 40 00       	mov    edi,0x40a2a8
  401ad9:	31 c0                	xor    eax,eax
  401adb:	4c 89 ee             	mov    rsi,r13
  401ade:	e8 9d f5 ff ff       	call   401080 <printf@plt>
  401ae3:	b8 01 00 00 00       	mov    eax,0x1
  401ae8:	49 89 9f e8 01 00 00 	mov    QWORD PTR [r15+0x1e8],rbx
  401aef:	48 83 c4 08          	add    rsp,0x8
  401af3:	5b                   	pop    rbx
  401af4:	41 5c                	pop    r12
  401af6:	41 5d                	pop    r13
  401af8:	41 5e                	pop    r14
  401afa:	41 5f                	pop    r15
  401afc:	5d                   	pop    rbp
  401afd:	c3                   	ret    
  401afe:	66 90                	xchg   ax,ax
  401b00:	53                   	push   rbx
  401b01:	48 8b 87 38 02 00 00 	mov    rax,QWORD PTR [rdi+0x238]
  401b08:	48 8b 8f 40 02 00 00 	mov    rcx,QWORD PTR [rdi+0x240]
  401b0f:	31 db                	xor    ebx,ebx
  401b11:	48 39 c8             	cmp    rax,rcx
  401b14:	72 13                	jb     401b29 <fwrite@plt+0x9c9>
  401b16:	48 89 d8             	mov    rax,rbx
  401b19:	5b                   	pop    rbx
  401b1a:	c3                   	ret    
  401b1b:	0f 1f 44 00 00       	nop    DWORD PTR [rax+rax*1+0x0]
  401b20:	48 83 c0 48          	add    rax,0x48
  401b24:	48 39 c8             	cmp    rax,rcx
  401b27:	73 ed                	jae    401b16 <fwrite@plt+0x9b6>
  401b29:	48 8b 50 08          	mov    rdx,QWORD PTR [rax+0x8]
  401b2d:	48 8b 70 10          	mov    rsi,QWORD PTR [rax+0x10]
  401b31:	48 2b 16             	sub    rdx,QWORD PTR [rsi]
  401b34:	48 8b 70 18          	mov    rsi,QWORD PTR [rax+0x18]
  401b38:	48 03 16             	add    rdx,QWORD PTR [rsi]
  401b3b:	0f bf 70 20          	movsx  esi,WORD PTR [rax+0x20]
  401b3f:	83 fe 02             	cmp    esi,0x2
  401b42:	73 1c                	jae    401b60 <fwrite@plt+0xa00>
  401b44:	31 f6                	xor    esi,esi
  401b46:	48 2b b7 00 02 00 00 	sub    rsi,QWORD PTR [rdi+0x200]
  401b4d:	48 39 f2             	cmp    rdx,rsi
  401b50:	7d ce                	jge    401b20 <fwrite@plt+0x9c0>
  401b52:	eb 17                	jmp    401b6b <fwrite@plt+0xa0b>
  401b54:	66 2e 0f 1f 84 00 00 	cs nop WORD PTR [rax+rax*1+0x0]
  401b5b:	00 00 00 
  401b5e:	66 90                	xchg   ax,ax
  401b60:	75 be                	jne    401b20 <fwrite@plt+0x9c0>
  401b62:	48 3b 97 00 02 00 00 	cmp    rdx,QWORD PTR [rdi+0x200]
  401b69:	7e b5                	jle    401b20 <fwrite@plt+0x9c0>
  401b6b:	48 8b 0d 8e b5 00 00 	mov    rcx,QWORD PTR [rip+0xb58e]        # 40d100 <stderr@@GLIBC_2.2.5>
  401b72:	bb 01 00 00 00       	mov    ebx,0x1
  401b77:	bf c7 a2 40 00       	mov    edi,0x40a2c7
  401b7c:	be 16 00 00 00       	mov    esi,0x16
  401b81:	ba 01 00 00 00       	mov    edx,0x1
  401b86:	e8 d5 f5 ff ff       	call   401160 <fwrite@plt>
  401b8b:	48 8b 0d 6e b5 00 00 	mov    rcx,QWORD PTR [rip+0xb56e]        # 40d100 <stderr@@GLIBC_2.2.5>
  401b92:	bf de a2 40 00       	mov    edi,0x40a2de
  401b97:	be 16 00 00 00       	mov    esi,0x16
  401b9c:	ba 01 00 00 00       	mov    edx,0x1
  401ba1:	e8 ba f5 ff ff       	call   401160 <fwrite@plt>
  401ba6:	48 89 d8             	mov    rax,rbx
  401ba9:	5b                   	pop    rbx
  401baa:	c3                   	ret    
  401bab:	0f 1f 44 00 00       	nop    DWORD PTR [rax+rax*1+0x0]
  401bb0:	53                   	push   rbx
  401bb1:	48 89 fb             	mov    rbx,rdi
  401bb4:	48 8b bf 28 02 00 00 	mov    rdi,QWORD PTR [rdi+0x228]
  401bbb:	48 85 ff             	test   rdi,rdi
  401bbe:	74 05                	je     401bc5 <fwrite@plt+0xa65>
  401bc0:	e8 6b f4 ff ff       	call   401030 <free@plt>
  401bc5:	48 8b bb 38 02 00 00 	mov    rdi,QWORD PTR [rbx+0x238]
  401bcc:	48 85 ff             	test   rdi,rdi
  401bcf:	74 05                	je     401bd6 <fwrite@plt+0xa76>
  401bd1:	e8 5a f4 ff ff       	call   401030 <free@plt>
  401bd6:	48 8b bb 50 02 00 00 	mov    rdi,QWORD PTR [rbx+0x250]
  401bdd:	48 85 ff             	test   rdi,rdi
  401be0:	74 05                	je     401be7 <fwrite@plt+0xa87>
  401be2:	e8 49 f4 ff ff       	call   401030 <free@plt>
  401be7:	48 8b bb 48 02 00 00 	mov    rdi,QWORD PTR [rbx+0x248]
  401bee:	48 81 c3 28 02 00 00 	add    rbx,0x228
  401bf5:	48 85 ff             	test   rdi,rdi
  401bf8:	74 05                	je     401bff <fwrite@plt+0xa9f>
  401bfa:	e8 31 f4 ff ff       	call   401030 <free@plt>
  401bff:	c5 f8 57 c0          	vxorps xmm0,xmm0,xmm0
  401c03:	c5 fc 11 43 18       	vmovups YMMWORD PTR [rbx+0x18],ymm0
  401c08:	c5 fc 11 03          	vmovups YMMWORD PTR [rbx],ymm0
  401c0c:	31 c0                	xor    eax,eax
  401c0e:	5b                   	pop    rbx
  401c0f:	c5 f8 77             	vzeroupper 
  401c12:	c3                   	ret    
  401c13:	66 2e 0f 1f 84 00 00 	cs nop WORD PTR [rax+rax*1+0x0]
  401c1a:	00 00 00 
  401c1d:	0f 1f 00             	nop    DWORD PTR [rax]
  401c20:	55                   	push   rbp
  401c21:	41 57                	push   r15
  401c23:	41 56                	push   r14
  401c25:	41 55                	push   r13
  401c27:	41 54                	push   r12
  401c29:	53                   	push   rbx
  401c2a:	48 81 ec 28 01 00 00 	sub    rsp,0x128
  401c31:	49 89 fe             	mov    r14,rdi
  401c34:	be 18 a3 40 00       	mov    esi,0x40a318
  401c39:	e8 f2 f4 ff ff       	call   401130 <fopen@plt>
  401c3e:	49 c7 c4 ff ff ff ff 	mov    r12,0xffffffffffffffff
  401c45:	48 85 c0             	test   rax,rax
  401c48:	0f 84 b0 07 00 00    	je     4023fe <fwrite@plt+0x129e>
  401c4e:	49 89 c7             	mov    r15,rax
  401c51:	48 8d 5c 24 50       	lea    rbx,[rsp+0x50]
  401c56:	be c8 00 00 00       	mov    esi,0xc8
  401c5b:	48 89 df             	mov    rdi,rbx
  401c5e:	48 89 c2             	mov    rdx,rax
  401c61:	e8 6a f4 ff ff       	call   4010d0 <fgets_unlocked@plt>
  401c66:	48 8d 54 24 28       	lea    rdx,[rsp+0x28]
  401c6b:	48 8d 4c 24 20       	lea    rcx,[rsp+0x20]
  401c70:	be 1e a3 40 00       	mov    esi,0x40a31e
  401c75:	31 c0                	xor    eax,eax
  401c77:	48 89 df             	mov    rdi,rbx
  401c7a:	e8 81 f4 ff ff       	call   401100 <__isoc99_sscanf@plt>
  401c7f:	83 f8 02             	cmp    eax,0x2
  401c82:	0f 85 76 07 00 00    	jne    4023fe <fwrite@plt+0x129e>
  401c88:	4c 8b 44 24 28       	mov    r8,QWORD PTR [rsp+0x28]
  401c8d:	4d 89 86 98 01 00 00 	mov    QWORD PTR [r14+0x198],r8
  401c94:	48 8b 44 24 20       	mov    rax,QWORD PTR [rsp+0x20]
  401c99:	49 89 86 b0 01 00 00 	mov    QWORD PTR [r14+0x1b0],rax
  401ca0:	4f 8d 6c 00 01       	lea    r13,[r8+r8*1+0x1]
  401ca5:	4d 89 ae 90 01 00 00 	mov    QWORD PTR [r14+0x190],r13
  401cac:	4b 8d 0c 40          	lea    rcx,[r8+r8*2]
  401cb0:	4c 8d 0c 08          	lea    r9,[rax+rcx*1]
  401cb4:	4d 89 8e a8 01 00 00 	mov    QWORD PTR [r14+0x1a8],r9
  401cbb:	49 c7 86 80 02 00 00 	mov    QWORD PTR [r14+0x280],0xfa0
  401cc2:	a0 0f 00 00 
  401cc6:	48 01 c8             	add    rax,rcx
  401cc9:	48 83 c0 ff          	add    rax,0xffffffffffffffff
  401ccd:	48 be cf f7 53 e3 a5 	movabs rsi,0x20c49ba5e353f7cf
  401cd4:	9b c4 20 
  401cd7:	48 f7 ee             	imul   rsi
  401cda:	48 89 d1             	mov    rcx,rdx
  401cdd:	48 89 d3             	mov    rbx,rdx
  401ce0:	48 c1 eb 3f          	shr    rbx,0x3f
  401ce4:	48 c1 f9 09          	sar    rcx,0x9
  401ce8:	48 8d 2c 19          	lea    rbp,[rcx+rbx*1]
  401cec:	48 83 c5 01          	add    rbp,0x1
  401cf0:	4c 89 c8             	mov    rax,r9
  401cf3:	48 f7 ee             	imul   rsi
  401cf6:	49 89 ae 70 02 00 00 	mov    QWORD PTR [r14+0x270],rbp
  401cfd:	48 89 d0             	mov    rax,rdx
  401d00:	48 c1 e8 3f          	shr    rax,0x3f
  401d04:	48 c1 fa 09          	sar    rdx,0x9
  401d08:	48 01 c2             	add    rdx,rax
  401d0b:	48 69 c2 a0 0f 00 00 	imul   rax,rdx,0xfa0
  401d12:	4c 89 ca             	mov    rdx,r9
  401d15:	48 29 c2             	sub    rdx,rax
  401d18:	48 8d ba 60 f0 ff ff 	lea    rdi,[rdx-0xfa0]
  401d1f:	48 85 d2             	test   rdx,rdx
  401d22:	48 0f 44 fa          	cmove  rdi,rdx
  401d26:	48 89 ee             	mov    rsi,rbp
  401d29:	48 01 fe             	add    rsi,rdi
  401d2c:	49 89 b6 78 02 00 00 	mov    QWORD PTR [r14+0x278],rsi
  401d33:	0f 89 1e 01 00 00    	jns    401e57 <fwrite@plt+0xcf7>
  401d39:	48 01 d9             	add    rcx,rbx
  401d3c:	48 01 cf             	add    rdi,rcx
  401d3f:	48 c7 c0 fe ff ff ff 	mov    rax,0xfffffffffffffffe
  401d46:	48 29 f8             	sub    rax,rdi
  401d49:	31 d2                	xor    edx,edx
  401d4b:	48 f7 f5             	div    rbp
  401d4e:	48 83 c0 01          	add    rax,0x1
  401d52:	48 83 f8 08          	cmp    rax,0x8
  401d56:	73 0a                	jae    401d62 <fwrite@plt+0xc02>
  401d58:	ba a0 0f 00 00       	mov    edx,0xfa0
  401d5d:	e9 de 00 00 00       	jmp    401e40 <fwrite@plt+0xce0>
  401d62:	48 89 c1             	mov    rcx,rax
  401d65:	48 83 e1 f8          	and    rcx,0xfffffffffffffff8
  401d69:	48 8d 59 f8          	lea    rbx,[rcx-0x8]
  401d6d:	48 89 de             	mov    rsi,rbx
  401d70:	48 c1 ee 03          	shr    rsi,0x3
  401d74:	48 83 c6 01          	add    rsi,0x1
  401d78:	89 f2                	mov    edx,esi
  401d7a:	83 e2 03             	and    edx,0x3
  401d7d:	48 83 fb 18          	cmp    rbx,0x18
  401d81:	73 24                	jae    401da7 <fwrite@plt+0xc47>
  401d83:	be a0 0f 00 00       	mov    esi,0xfa0
  401d88:	c4 e1 f9 6e c6       	vmovq  xmm0,rsi
  401d8d:	c5 f1 ef c9          	vpxor  xmm1,xmm1,xmm1
  401d91:	c5 e9 ef d2          	vpxor  xmm2,xmm2,xmm2
  401d95:	c5 e1 ef db          	vpxor  xmm3,xmm3,xmm3
  401d99:	48 89 ce             	mov    rsi,rcx
  401d9c:	48 0f af f5          	imul   rsi,rbp
  401da0:	48 85 d2             	test   rdx,rdx
  401da3:	75 4d                	jne    401df2 <fwrite@plt+0xc92>
  401da5:	eb 6f                	jmp    401e16 <fwrite@plt+0xcb6>
  401da7:	48 29 d6             	sub    rsi,rdx
  401daa:	bb a0 0f 00 00       	mov    ebx,0xfa0
  401daf:	c4 e1 f9 6e c3       	vmovq  xmm0,rbx
  401db4:	c5 f1 ef c9          	vpxor  xmm1,xmm1,xmm1
  401db8:	c5 f9 6f 25 40 85 00 	vmovdqa xmm4,XMMWORD PTR [rip+0x8540]        # 40a300 <fwrite@plt+0x91a0>
  401dbf:	00 
  401dc0:	c5 e9 ef d2          	vpxor  xmm2,xmm2,xmm2
  401dc4:	c5 e1 ef db          	vpxor  xmm3,xmm3,xmm3
  401dc8:	0f 1f 84 00 00 00 00 	nop    DWORD PTR [rax+rax*1+0x0]
  401dcf:	00 
  401dd0:	c5 f9 d4 c4          	vpaddq xmm0,xmm0,xmm4
  401dd4:	c5 f1 d4 cc          	vpaddq xmm1,xmm1,xmm4
  401dd8:	c5 e9 d4 d4          	vpaddq xmm2,xmm2,xmm4
  401ddc:	c5 e1 d4 dc          	vpaddq xmm3,xmm3,xmm4
  401de0:	48 83 c6 fc          	add    rsi,0xfffffffffffffffc
  401de4:	75 ea                	jne    401dd0 <fwrite@plt+0xc70>
  401de6:	48 89 ce             	mov    rsi,rcx
  401de9:	48 0f af f5          	imul   rsi,rbp
  401ded:	48 85 d2             	test   rdx,rdx
  401df0:	74 24                	je     401e16 <fwrite@plt+0xcb6>
  401df2:	c5 d9 76 e4          	vpcmpeqd xmm4,xmm4,xmm4
  401df6:	66 2e 0f 1f 84 00 00 	cs nop WORD PTR [rax+rax*1+0x0]
  401dfd:	00 00 00 
  401e00:	c5 f9 d4 c4          	vpaddq xmm0,xmm0,xmm4
  401e04:	c5 f1 d4 cc          	vpaddq xmm1,xmm1,xmm4
  401e08:	c5 e9 d4 d4          	vpaddq xmm2,xmm2,xmm4
  401e0c:	c5 e1 d4 dc          	vpaddq xmm3,xmm3,xmm4
  401e10:	48 83 c2 ff          	add    rdx,0xffffffffffffffff
  401e14:	75 ea                	jne    401e00 <fwrite@plt+0xca0>
  401e16:	c5 f1 d4 cb          	vpaddq xmm1,xmm1,xmm3
  401e1a:	c5 f9 d4 c2          	vpaddq xmm0,xmm0,xmm2
  401e1e:	c5 f9 d4 c1          	vpaddq xmm0,xmm0,xmm1
  401e22:	48 01 fe             	add    rsi,rdi
  401e25:	48 83 c6 01          	add    rsi,0x1
  401e29:	c5 f9 70 c8 4e       	vpshufd xmm1,xmm0,0x4e
  401e2e:	c5 f9 d4 c1          	vpaddq xmm0,xmm0,xmm1
  401e32:	c4 e1 f9 7e c2       	vmovq  rdx,xmm0
  401e37:	48 39 c8             	cmp    rax,rcx
  401e3a:	74 0d                	je     401e49 <fwrite@plt+0xce9>
  401e3c:	0f 1f 40 00          	nop    DWORD PTR [rax+0x0]
  401e40:	48 83 c2 ff          	add    rdx,0xffffffffffffffff
  401e44:	48 01 ee             	add    rsi,rbp
  401e47:	78 f7                	js     401e40 <fwrite@plt+0xce0>
  401e49:	49 89 b6 78 02 00 00 	mov    QWORD PTR [r14+0x278],rsi
  401e50:	49 89 96 80 02 00 00 	mov    QWORD PTR [r14+0x280],rdx
  401e57:	49 81 f8 98 3a 00 00 	cmp    r8,0x3a98
  401e5e:	4c 89 7c 24 30       	mov    QWORD PTR [rsp+0x30],r15
  401e63:	4c 89 44 24 38       	mov    QWORD PTR [rsp+0x38],r8
  401e68:	4c 89 4c 24 10       	mov    QWORD PTR [rsp+0x10],r9
  401e6d:	7f 15                	jg     401e84 <fwrite@plt+0xd24>
  401e6f:	49 c7 86 c0 01 00 00 	mov    QWORD PTR [r14+0x1c0],0x0
  401e76:	00 00 00 00 
  401e7a:	b8 80 84 1e 00       	mov    eax,0x1e8480
  401e7f:	4c 89 cd             	mov    rbp,r9
  401e82:	eb 37                	jmp    401ebb <fwrite@plt+0xd5b>
  401e84:	c4 c1 d3 2a c1       	vcvtsi2sd xmm0,xmm5,r9
  401e89:	c5 fb 10 0d 7f 84 00 	vmovsd xmm1,QWORD PTR [rip+0x847f]        # 40a310 <fwrite@plt+0x91b0>
  401e90:	00 
  401e91:	c5 fb 59 c1          	vmulsd xmm0,xmm0,xmm1
  401e95:	c4 e1 fb 2c c0       	vcvttsd2si rax,xmm0
  401e9a:	c4 e1 d3 2a c0       	vcvtsi2sd xmm0,xmm5,rax
  401e9f:	49 8d 81 40 4b 4c 00 	lea    rax,[r9+0x4c4b40]
  401ea6:	c5 fb 59 c1          	vmulsd xmm0,xmm0,xmm1
  401eaa:	c4 e1 fb 2c e8       	vcvttsd2si rbp,xmm0
  401eaf:	48 39 e8             	cmp    rax,rbp
  401eb2:	48 0f 4d e8          	cmovge rbp,rax
  401eb6:	b8 a0 fa b8 01       	mov    eax,0x1b8faa0
  401ebb:	49 89 ae a0 01 00 00 	mov    QWORD PTR [r14+0x1a0],rbp
  401ec2:	49 89 86 c8 01 00 00 	mov    QWORD PTR [r14+0x1c8],rax
  401ec9:	49 8d 7d 01          	lea    rdi,[r13+0x1]
  401ecd:	be 68 00 00 00       	mov    esi,0x68
  401ed2:	e8 c9 f1 ff ff       	call   4010a0 <calloc@plt>
  401ed7:	49 89 c4             	mov    r12,rax
  401eda:	49 89 86 28 02 00 00 	mov    QWORD PTR [r14+0x228],rax
  401ee1:	be 48 00 00 00       	mov    esi,0x48
  401ee6:	4c 89 6c 24 08       	mov    QWORD PTR [rsp+0x8],r13
  401eeb:	4c 89 ef             	mov    rdi,r13
  401eee:	e8 ad f1 ff ff       	call   4010a0 <calloc@plt>
  401ef3:	4c 89 f3             	mov    rbx,r14
  401ef6:	49 89 c5             	mov    r13,rax
  401ef9:	49 89 86 50 02 00 00 	mov    QWORD PTR [r14+0x250],rax
  401f00:	be 48 00 00 00       	mov    esi,0x48
  401f05:	48 89 ef             	mov    rdi,rbp
  401f08:	e8 93 f1 ff ff       	call   4010a0 <calloc@plt>
  401f0d:	49 89 c7             	mov    r15,rax
  401f10:	49 89 86 48 02 00 00 	mov    QWORD PTR [r14+0x248],rax
  401f17:	be 48 00 00 00       	mov    esi,0x48
  401f1c:	48 89 ef             	mov    rdi,rbp
  401f1f:	4c 89 e5             	mov    rbp,r12
  401f22:	e8 79 f1 ff ff       	call   4010a0 <calloc@plt>
  401f27:	4c 89 74 24 18       	mov    QWORD PTR [rsp+0x18],r14
  401f2c:	49 89 86 38 02 00 00 	mov    QWORD PTR [r14+0x238],rax
  401f33:	48 85 c0             	test   rax,rax
  401f36:	0f 84 0c 03 00 00    	je     402248 <fwrite@plt+0x10e8>
  401f3c:	48 85 ed             	test   rbp,rbp
  401f3f:	0f 84 03 03 00 00    	je     402248 <fwrite@plt+0x10e8>
  401f45:	4d 85 ed             	test   r13,r13
  401f48:	0f 84 fa 02 00 00    	je     402248 <fwrite@plt+0x10e8>
  401f4e:	4d 85 ff             	test   r15,r15
  401f51:	0f 84 f1 02 00 00    	je     402248 <fwrite@plt+0x10e8>
  401f57:	49 89 c6             	mov    r14,rax
  401f5a:	48 8b 54 24 08       	mov    rdx,QWORD PTR [rsp+0x8]
  401f5f:	48 6b c2 68          	imul   rax,rdx,0x68
  401f63:	48 01 e8             	add    rax,rbp
  401f66:	48 83 c0 68          	add    rax,0x68
  401f6a:	48 8b 4c 24 18       	mov    rcx,QWORD PTR [rsp+0x18]
  401f6f:	48 89 81 30 02 00 00 	mov    QWORD PTR [rcx+0x230],rax
  401f76:	48 8b 44 24 10       	mov    rax,QWORD PTR [rsp+0x10]
  401f7b:	48 8d 04 c0          	lea    rax,[rax+rax*8]
  401f7f:	49 8d 04 c6          	lea    rax,[r14+rax*8]
  401f83:	48 89 81 40 02 00 00 	mov    QWORD PTR [rcx+0x240],rax
  401f8a:	48 8d 04 d2          	lea    rax,[rdx+rdx*8]
  401f8e:	48 8d 04 c5 00 00 00 	lea    rax,[rax*8+0x0]
  401f95:	00 
  401f96:	4c 01 e8             	add    rax,r13
  401f99:	48 89 81 58 02 00 00 	mov    QWORD PTR [rcx+0x258],rax
  401fa0:	48 8b 44 24 38       	mov    rax,QWORD PTR [rsp+0x38]
  401fa5:	48 85 c0             	test   rax,rax
  401fa8:	48 89 6c 24 08       	mov    QWORD PTR [rsp+0x8],rbp
  401fad:	0f 8e c1 02 00 00    	jle    402274 <fwrite@plt+0x1114>
  401fb3:	4c 8d 6d 68          	lea    r13,[rbp+0x68]
  401fb7:	bb ff ff ff ff       	mov    ebx,0xffffffff
  401fbc:	45 31 e4             	xor    r12d,r12d
  401fbf:	31 c0                	xor    eax,eax
  401fc1:	48 89 44 24 10       	mov    QWORD PTR [rsp+0x10],rax
  401fc6:	66 2e 0f 1f 84 00 00 	cs nop WORD PTR [rax+rax*1+0x0]
  401fcd:	00 00 00 
  401fd0:	be c8 00 00 00       	mov    esi,0xc8
  401fd5:	4c 8d 7c 24 50       	lea    r15,[rsp+0x50]
  401fda:	4c 89 ff             	mov    rdi,r15
  401fdd:	48 8b 54 24 30       	mov    rdx,QWORD PTR [rsp+0x30]
  401fe2:	e8 e9 f0 ff ff       	call   4010d0 <fgets_unlocked@plt>
  401fe7:	be 1e a3 40 00       	mov    esi,0x40a31e
  401fec:	31 c0                	xor    eax,eax
  401fee:	4c 89 ff             	mov    rdi,r15
  401ff1:	48 8d 54 24 28       	lea    rdx,[rsp+0x28]
  401ff6:	48 8d 4c 24 20       	lea    rcx,[rsp+0x20]
  401ffb:	e8 00 f1 ff ff       	call   401100 <__isoc99_sscanf@plt>
  402000:	83 f8 02             	cmp    eax,0x2
  402003:	0f 85 5f 02 00 00    	jne    402268 <fwrite@plt+0x1108>
  402009:	48 8b 4c 24 28       	mov    rcx,QWORD PTR [rsp+0x28]
  40200e:	48 8b 44 24 20       	mov    rax,QWORD PTR [rsp+0x20]
  402013:	48 39 c1             	cmp    rcx,rax
  402016:	0f 8f 4c 02 00 00    	jg     402268 <fwrite@plt+0x1108>
  40201c:	49 8d 74 24 01       	lea    rsi,[r12+0x1]
  402021:	48 89 74 24 40       	mov    QWORD PTR [rsp+0x40],rsi
  402026:	41 89 5d 60          	mov    DWORD PTR [r13+0x60],ebx
  40202a:	49 c7 45 50 ff ff ff 	mov    QWORD PTR [r13+0x50],0xffffffffffffffff
  402031:	ff 
  402032:	4c 8b 7c 24 18       	mov    r15,QWORD PTR [rsp+0x18]
  402037:	49 8b 97 98 01 00 00 	mov    rdx,QWORD PTR [r15+0x198]
  40203e:	4c 01 e2             	add    rdx,r12
  402041:	48 6b d2 68          	imul   rdx,rdx,0x68
  402045:	89 b4 15 c8 00 00 00 	mov    DWORD PTR [rbp+rdx*1+0xc8],esi
  40204c:	48 c7 84 15 b8 00 00 	mov    QWORD PTR [rbp+rdx*1+0xb8],0x1
  402053:	00 01 00 00 00 
  402058:	41 89 4d 64          	mov    DWORD PTR [r13+0x64],ecx
  40205c:	89 84 15 cc 00 00 00 	mov    DWORD PTR [rbp+rdx*1+0xcc],eax
  402063:	48 8b 44 24 10       	mov    rax,QWORD PTR [rsp+0x10]
  402068:	41 89 06             	mov    DWORD PTR [r14],eax
  40206b:	48 89 c2             	mov    rdx,rax
  40206e:	49 6b 87 90 01 00 00 	imul   rax,QWORD PTR [r15+0x190],0x68
  402075:	68 
  402076:	48 8d 0c 28          	lea    rcx,[rax+rbp*1]
  40207a:	49 89 4e 10          	mov    QWORD PTR [r14+0x10],rcx
  40207e:	4d 89 6e 18          	mov    QWORD PTR [r14+0x18],r13
  402082:	49 8b 8f 10 02 00 00 	mov    rcx,QWORD PTR [r15+0x210]
  402089:	48 83 c1 0f          	add    rcx,0xf
  40208d:	49 89 4e 08          	mov    QWORD PTR [r14+0x8],rcx
  402091:	49 89 4e 40          	mov    QWORD PTR [r14+0x40],rcx
  402095:	48 8b 4c 05 38       	mov    rcx,QWORD PTR [rbp+rax*1+0x38]
  40209a:	49 89 4e 28          	mov    QWORD PTR [r14+0x28],rcx
  40209e:	4c 89 74 05 38       	mov    QWORD PTR [rbp+rax*1+0x38],r14
  4020a3:	49 8b 45 40          	mov    rax,QWORD PTR [r13+0x40]
  4020a7:	49 89 46 30          	mov    QWORD PTR [r14+0x30],rax
  4020ab:	4d 89 75 40          	mov    QWORD PTR [r13+0x40],r14
  4020af:	89 5c 24 38          	mov    DWORD PTR [rsp+0x38],ebx
  4020b3:	49 8b 9f 38 02 00 00 	mov    rbx,QWORD PTR [r15+0x238]
  4020ba:	49 89 d6             	mov    r14,rdx
  4020bd:	48 8d 6a 01          	lea    rbp,[rdx+0x1]
  4020c1:	4c 89 ff             	mov    rdi,r15
  4020c4:	48 89 ee             	mov    rsi,rbp
  4020c7:	e8 84 f6 ff ff       	call   401750 <fwrite@plt+0x5f0>
  4020cc:	48 8d 04 c0          	lea    rax,[rax+rax*8]
  4020d0:	48 8d 0c c3          	lea    rcx,[rbx+rax*8]
  4020d4:	89 2c c3             	mov    DWORD PTR [rbx+rax*8],ebp
  4020d7:	49 8b 97 98 01 00 00 	mov    rdx,QWORD PTR [r15+0x198]
  4020de:	4c 01 e2             	add    rdx,r12
  4020e1:	48 6b d2 68          	imul   rdx,rdx,0x68
  4020e5:	48 8b 74 24 08       	mov    rsi,QWORD PTR [rsp+0x8]
  4020ea:	48 01 d6             	add    rsi,rdx
  4020ed:	48 83 c6 68          	add    rsi,0x68
  4020f1:	48 89 74 c3 10       	mov    QWORD PTR [rbx+rax*8+0x10],rsi
  4020f6:	49 6b b7 90 01 00 00 	imul   rsi,QWORD PTR [r15+0x190],0x68
  4020fd:	68 
  4020fe:	48 8b 7c 24 08       	mov    rdi,QWORD PTR [rsp+0x8]
  402103:	48 8d 3c 37          	lea    rdi,[rdi+rsi*1]
  402107:	48 89 7c c3 18       	mov    QWORD PTR [rbx+rax*8+0x18],rdi
  40210c:	48 c7 44 c3 08 0f 00 	mov    QWORD PTR [rbx+rax*8+0x8],0xf
  402113:	00 00 
  402115:	48 c7 44 c3 40 0f 00 	mov    QWORD PTR [rbx+rax*8+0x40],0xf
  40211c:	00 00 
  40211e:	48 8b 7c 24 08       	mov    rdi,QWORD PTR [rsp+0x8]
  402123:	48 8b bc 17 a0 00 00 	mov    rdi,QWORD PTR [rdi+rdx*1+0xa0]
  40212a:	00 
  40212b:	48 89 7c c3 28       	mov    QWORD PTR [rbx+rax*8+0x28],rdi
  402130:	48 8b 7c 24 08       	mov    rdi,QWORD PTR [rsp+0x8]
  402135:	48 89 8c 17 a0 00 00 	mov    QWORD PTR [rdi+rdx*1+0xa0],rcx
  40213c:	00 
  40213d:	48 8b 54 24 08       	mov    rdx,QWORD PTR [rsp+0x8]
  402142:	48 8b 54 32 40       	mov    rdx,QWORD PTR [rdx+rsi*1+0x40]
  402147:	48 89 54 c3 30       	mov    QWORD PTR [rbx+rax*8+0x30],rdx
  40214c:	48 8b 44 24 08       	mov    rax,QWORD PTR [rsp+0x8]
  402151:	48 89 4c 30 40       	mov    QWORD PTR [rax+rsi*1+0x40],rcx
  402156:	49 8b 9f 38 02 00 00 	mov    rbx,QWORD PTR [r15+0x238]
  40215d:	49 8d 6e 02          	lea    rbp,[r14+0x2]
  402161:	4c 89 ff             	mov    rdi,r15
  402164:	48 89 ee             	mov    rsi,rbp
  402167:	e8 e4 f5 ff ff       	call   401750 <fwrite@plt+0x5f0>
  40216c:	48 8d 04 c0          	lea    rax,[rax+rax*8]
  402170:	89 2c c3             	mov    DWORD PTR [rbx+rax*8],ebp
  402173:	48 8b 6c 24 08       	mov    rbp,QWORD PTR [rsp+0x8]
  402178:	4c 89 6c c3 10       	mov    QWORD PTR [rbx+rax*8+0x10],r13
  40217d:	4d 03 a7 98 01 00 00 	add    r12,QWORD PTR [r15+0x198]
  402184:	49 6b cc 68          	imul   rcx,r12,0x68
  402188:	48 8d 14 29          	lea    rdx,[rcx+rbp*1]
  40218c:	48 83 c2 68          	add    rdx,0x68
  402190:	48 89 54 c3 18       	mov    QWORD PTR [rbx+rax*8+0x18],rdx
  402195:	49 8b 97 10 02 00 00 	mov    rdx,QWORD PTR [r15+0x210]
  40219c:	48 81 fa 7f 96 98 00 	cmp    rdx,0x98967f
  4021a3:	be 80 96 98 00       	mov    esi,0x989680
  4021a8:	48 0f 4e d6          	cmovle rdx,rsi
  4021ac:	48 8d 34 c3          	lea    rsi,[rbx+rax*8]
  4021b0:	48 01 d2             	add    rdx,rdx
  4021b3:	48 89 54 c3 08       	mov    QWORD PTR [rbx+rax*8+0x8],rdx
  4021b8:	48 89 54 c3 40       	mov    QWORD PTR [rbx+rax*8+0x40],rdx
  4021bd:	49 8b 55 38          	mov    rdx,QWORD PTR [r13+0x38]
  4021c1:	48 89 54 c3 28       	mov    QWORD PTR [rbx+rax*8+0x28],rdx
  4021c6:	49 89 75 38          	mov    QWORD PTR [r13+0x38],rsi
  4021ca:	48 8b 94 0d a8 00 00 	mov    rdx,QWORD PTR [rbp+rcx*1+0xa8]
  4021d1:	00 
  4021d2:	48 89 54 c3 30       	mov    QWORD PTR [rbx+rax*8+0x30],rdx
  4021d7:	48 89 b4 0d a8 00 00 	mov    QWORD PTR [rbp+rcx*1+0xa8],rsi
  4021de:	00 
  4021df:	49 8b 9f 38 02 00 00 	mov    rbx,QWORD PTR [r15+0x238]
  4021e6:	4c 89 f6             	mov    rsi,r14
  4021e9:	48 83 c6 03          	add    rsi,0x3
  4021ed:	4c 89 ff             	mov    rdi,r15
  4021f0:	48 89 74 24 10       	mov    QWORD PTR [rsp+0x10],rsi
  4021f5:	e8 56 f5 ff ff       	call   401750 <fwrite@plt+0x5f0>
  4021fa:	48 8b 54 24 40       	mov    rdx,QWORD PTR [rsp+0x40]
  4021ff:	48 8d 04 c0          	lea    rax,[rax+rax*8]
  402203:	4c 8d 34 c3          	lea    r14,[rbx+rax*8]
  402207:	8b 5c 24 38          	mov    ebx,DWORD PTR [rsp+0x38]
  40220b:	49 8b 87 98 01 00 00 	mov    rax,QWORD PTR [r15+0x198]
  402212:	49 83 c5 68          	add    r13,0x68
  402216:	83 c3 ff             	add    ebx,0xffffffff
  402219:	49 89 d4             	mov    r12,rdx
  40221c:	48 39 c2             	cmp    rdx,rax
  40221f:	0f 8c ab fd ff ff    	jl     401fd0 <fwrite@plt+0xe70>
  402225:	48 83 c2 01          	add    rdx,0x1
  402229:	49 c7 c4 ff ff ff ff 	mov    r12,0xffffffffffffffff
  402230:	48 8b 4c 24 18       	mov    rcx,QWORD PTR [rsp+0x18]
  402235:	4c 8b 7c 24 30       	mov    r15,QWORD PTR [rsp+0x30]
  40223a:	48 83 c0 01          	add    rax,0x1
  40223e:	48 39 c2             	cmp    rdx,rax
  402241:	74 56                	je     402299 <fwrite@plt+0x1139>
  402243:	e9 b6 01 00 00       	jmp    4023fe <fwrite@plt+0x129e>
  402248:	bf 30 a3 40 00       	mov    edi,0x40a330
  40224d:	e8 0e ee ff ff       	call   401060 <puts@plt>
  402252:	48 8b 7c 24 18       	mov    rdi,QWORD PTR [rsp+0x18]
  402257:	e8 54 f9 ff ff       	call   401bb0 <fwrite@plt+0xa50>
  40225c:	49 c7 c4 ff ff ff ff 	mov    r12,0xffffffffffffffff
  402263:	e9 96 01 00 00       	jmp    4023fe <fwrite@plt+0x129e>
  402268:	49 c7 c4 ff ff ff ff 	mov    r12,0xffffffffffffffff
  40226f:	e9 8a 01 00 00       	jmp    4023fe <fwrite@plt+0x129e>
  402274:	31 d2                	xor    edx,edx
  402276:	48 89 54 24 10       	mov    QWORD PTR [rsp+0x10],rdx
  40227b:	ba 01 00 00 00       	mov    edx,0x1
  402280:	4c 8b 7c 24 30       	mov    r15,QWORD PTR [rsp+0x30]
  402285:	49 c7 c4 ff ff ff ff 	mov    r12,0xffffffffffffffff
  40228c:	48 83 c0 01          	add    rax,0x1
  402290:	48 39 c2             	cmp    rdx,rax
  402293:	0f 85 65 01 00 00    	jne    4023fe <fwrite@plt+0x129e>
  402299:	48 83 b9 b0 01 00 00 	cmp    QWORD PTR [rcx+0x1b0],0x0
  4022a0:	00 
  4022a1:	0f 8e d2 00 00 00    	jle    402379 <fwrite@plt+0x1219>
  4022a7:	4c 8d 6c 24 50       	lea    r13,[rsp+0x50]
  4022ac:	31 ed                	xor    ebp,ebp
  4022ae:	66 90                	xchg   ax,ax
  4022b0:	be c8 00 00 00       	mov    esi,0xc8
  4022b5:	4c 89 ef             	mov    rdi,r13
  4022b8:	4c 89 fa             	mov    rdx,r15
  4022bb:	e8 10 ee ff ff       	call   4010d0 <fgets_unlocked@plt>
  4022c0:	be 1a a3 40 00       	mov    esi,0x40a31a
  4022c5:	31 c0                	xor    eax,eax
  4022c7:	4c 89 ef             	mov    rdi,r13
  4022ca:	48 8d 54 24 28       	lea    rdx,[rsp+0x28]
  4022cf:	48 8d 4c 24 20       	lea    rcx,[rsp+0x20]
  4022d4:	4c 8d 44 24 48       	lea    r8,[rsp+0x48]
  4022d9:	e8 22 ee ff ff       	call   401100 <__isoc99_sscanf@plt>
  4022de:	83 f8 03             	cmp    eax,0x3
  4022e1:	0f 85 17 01 00 00    	jne    4023fe <fwrite@plt+0x129e>
  4022e7:	48 8b 74 24 10       	mov    rsi,QWORD PTR [rsp+0x10]
  4022ec:	41 89 36             	mov    DWORD PTR [r14],esi
  4022ef:	48 8b 5c 24 18       	mov    rbx,QWORD PTR [rsp+0x18]
  4022f4:	48 8b 83 98 01 00 00 	mov    rax,QWORD PTR [rbx+0x198]
  4022fb:	48 03 44 24 28       	add    rax,QWORD PTR [rsp+0x28]
  402300:	48 6b c0 68          	imul   rax,rax,0x68
  402304:	48 8b 7c 24 08       	mov    rdi,QWORD PTR [rsp+0x8]
  402309:	48 8d 0c 07          	lea    rcx,[rdi+rax*1]
  40230d:	49 89 4e 10          	mov    QWORD PTR [r14+0x10],rcx
  402311:	48 6b 4c 24 20 68    	imul   rcx,QWORD PTR [rsp+0x20],0x68
  402317:	48 8d 14 0f          	lea    rdx,[rdi+rcx*1]
  40231b:	49 89 56 18          	mov    QWORD PTR [r14+0x18],rdx
  40231f:	48 8b 54 24 48       	mov    rdx,QWORD PTR [rsp+0x48]
  402324:	49 89 56 40          	mov    QWORD PTR [r14+0x40],rdx
  402328:	49 89 56 08          	mov    QWORD PTR [r14+0x8],rdx
  40232c:	48 8b 54 07 38       	mov    rdx,QWORD PTR [rdi+rax*1+0x38]
  402331:	49 89 56 28          	mov    QWORD PTR [r14+0x28],rdx
  402335:	4c 89 74 07 38       	mov    QWORD PTR [rdi+rax*1+0x38],r14
  40233a:	48 8b 44 0f 40       	mov    rax,QWORD PTR [rdi+rcx*1+0x40]
  40233f:	49 89 46 30          	mov    QWORD PTR [r14+0x30],rax
  402343:	4c 89 74 0f 40       	mov    QWORD PTR [rdi+rcx*1+0x40],r14
  402348:	48 83 c5 01          	add    rbp,0x1
  40234c:	4c 8b b3 38 02 00 00 	mov    r14,QWORD PTR [rbx+0x238]
  402353:	48 83 c6 01          	add    rsi,0x1
  402357:	48 89 df             	mov    rdi,rbx
  40235a:	48 89 74 24 10       	mov    QWORD PTR [rsp+0x10],rsi
  40235f:	e8 ec f3 ff ff       	call   401750 <fwrite@plt+0x5f0>
  402364:	48 8d 04 c0          	lea    rax,[rax+rax*8]
  402368:	4d 8d 34 c6          	lea    r14,[r14+rax*8]
  40236c:	48 3b ab b0 01 00 00 	cmp    rbp,QWORD PTR [rbx+0x1b0]
  402373:	0f 8c 37 ff ff ff    	jl     4022b0 <fwrite@plt+0x1150>
  402379:	4c 89 ff             	mov    rdi,r15
  40237c:	e8 ef ec ff ff       	call   401070 <fclose@plt>
  402381:	4c 8b 6c 24 18       	mov    r13,QWORD PTR [rsp+0x18]
  402386:	41 c6 85 c8 00 00 00 	mov    BYTE PTR [r13+0xc8],0x0
  40238d:	00 
  40238e:	49 83 bd 98 01 00 00 	cmp    QWORD PTR [r13+0x198],0x0
  402395:	00 
  402396:	7e 63                	jle    4023fb <fwrite@plt+0x129b>
  402398:	45 31 e4             	xor    r12d,r12d
  40239b:	bb 02 00 00 00       	mov    ebx,0x2
  4023a0:	41 be 80 96 98 00    	mov    r14d,0x989680
  4023a6:	31 ed                	xor    ebp,ebp
  4023a8:	0f 1f 84 00 00 00 00 	nop    DWORD PTR [rax+rax*1+0x0]
  4023af:	00 
  4023b0:	4d 8b bd 38 02 00 00 	mov    r15,QWORD PTR [r13+0x238]
  4023b7:	4c 89 ef             	mov    rdi,r13
  4023ba:	48 89 de             	mov    rsi,rbx
  4023bd:	e8 8e f3 ff ff       	call   401750 <fwrite@plt+0x5f0>
  4023c2:	49 8b 8d 10 02 00 00 	mov    rcx,QWORD PTR [r13+0x210]
  4023c9:	48 81 f9 7f 96 98 00 	cmp    rcx,0x98967f
  4023d0:	49 0f 4e ce          	cmovle rcx,r14
  4023d4:	48 01 c9             	add    rcx,rcx
  4023d7:	48 f7 d9             	neg    rcx
  4023da:	48 8d 04 c0          	lea    rax,[rax+rax*8]
  4023de:	49 89 4c c7 08       	mov    QWORD PTR [r15+rax*8+0x8],rcx
  4023e3:	49 89 4c c7 40       	mov    QWORD PTR [r15+rax*8+0x40],rcx
  4023e8:	48 83 c5 01          	add    rbp,0x1
  4023ec:	48 83 c3 03          	add    rbx,0x3
  4023f0:	49 3b ad 98 01 00 00 	cmp    rbp,QWORD PTR [r13+0x198]
  4023f7:	7c b7                	jl     4023b0 <fwrite@plt+0x1250>
  4023f9:	eb 03                	jmp    4023fe <fwrite@plt+0x129e>
  4023fb:	45 31 e4             	xor    r12d,r12d
  4023fe:	4c 89 e0             	mov    rax,r12
  402401:	48 81 c4 28 01 00 00 	add    rsp,0x128
  402408:	5b                   	pop    rbx
  402409:	41 5c                	pop    r12
  40240b:	41 5d                	pop    r13
  40240d:	41 5e                	pop    r14
  40240f:	41 5f                	pop    r15
  402411:	5d                   	pop    rbp
  402412:	c3                   	ret    
  402413:	66 2e 0f 1f 84 00 00 	cs nop WORD PTR [rax+rax*1+0x0]
  40241a:	00 00 00 
  40241d:	0f 1f 00             	nop    DWORD PTR [rax]
  402420:	55                   	push   rbp
  402421:	41 57                	push   r15
  402423:	41 56                	push   r14
  402425:	41 55                	push   r13
  402427:	41 54                	push   r12
  402429:	53                   	push   rbx
  40242a:	50                   	push   rax
  40242b:	48 83 bf 90 01 00 00 	cmp    QWORD PTR [rdi+0x190],0x0
  402432:	00 
  402433:	0f 88 a4 00 00 00    	js     4024dd <fwrite@plt+0x137d>
  402439:	49 89 d6             	mov    r14,rdx
  40243c:	49 89 f7             	mov    r15,rsi
  40243f:	49 89 fc             	mov    r12,rdi
  402442:	49 c7 c5 ff ff ff ff 	mov    r13,0xffffffffffffffff
  402449:	bb 40 00 00 00       	mov    ebx,0x40
  40244e:	66 90                	xchg   ax,ax
  402450:	49 8b ac 24 28 02 00 	mov    rbp,QWORD PTR [r12+0x228]
  402457:	00 
  402458:	48 8b 44 1d f0       	mov    rax,QWORD PTR [rbp+rbx*1-0x10]
  40245d:	48 85 c0             	test   rax,rax
  402460:	74 1b                	je     40247d <fwrite@plt+0x131d>
  402462:	48 63 30             	movsxd rsi,DWORD PTR [rax]
  402465:	48 85 f6             	test   rsi,rsi
  402468:	78 13                	js     40247d <fwrite@plt+0x131d>
  40246a:	4c 89 e7             	mov    rdi,r12
  40246d:	41 ff d7             	call   r15
  402470:	48 8d 04 c0          	lea    rax,[rax+rax*8]
  402474:	49 8d 04 c6          	lea    rax,[r14+rax*8]
  402478:	48 89 44 1d f0       	mov    QWORD PTR [rbp+rbx*1-0x10],rax
  40247d:	48 8b 44 1d 00       	mov    rax,QWORD PTR [rbp+rbx*1+0x0]
  402482:	48 85 c0             	test   rax,rax
  402485:	74 1b                	je     4024a2 <fwrite@plt+0x1342>
  402487:	48 63 30             	movsxd rsi,DWORD PTR [rax]
  40248a:	48 85 f6             	test   rsi,rsi
  40248d:	78 13                	js     4024a2 <fwrite@plt+0x1342>
  40248f:	4c 89 e7             	mov    rdi,r12
  402492:	41 ff d7             	call   r15
  402495:	48 8d 04 c0          	lea    rax,[rax+rax*8]
  402499:	49 8d 04 c6          	lea    rax,[r14+rax*8]
  40249d:	48 89 44 1d 00       	mov    QWORD PTR [rbp+rbx*1+0x0],rax
  4024a2:	48 8b 44 1d f8       	mov    rax,QWORD PTR [rbp+rbx*1-0x8]
  4024a7:	48 85 c0             	test   rax,rax
  4024aa:	74 1b                	je     4024c7 <fwrite@plt+0x1367>
  4024ac:	48 63 30             	movsxd rsi,DWORD PTR [rax]
  4024af:	48 85 f6             	test   rsi,rsi
  4024b2:	78 13                	js     4024c7 <fwrite@plt+0x1367>
  4024b4:	4c 89 e7             	mov    rdi,r12
  4024b7:	41 ff d7             	call   r15
  4024ba:	48 8d 04 c0          	lea    rax,[rax+rax*8]
  4024be:	49 8d 04 c6          	lea    rax,[r14+rax*8]
  4024c2:	48 89 44 1d f8       	mov    QWORD PTR [rbp+rbx*1-0x8],rax
  4024c7:	49 83 c5 01          	add    r13,0x1
  4024cb:	48 83 c3 68          	add    rbx,0x68
  4024cf:	4d 3b ac 24 90 01 00 	cmp    r13,QWORD PTR [r12+0x190]
  4024d6:	00 
  4024d7:	0f 8c 73 ff ff ff    	jl     402450 <fwrite@plt+0x12f0>
  4024dd:	31 c0                	xor    eax,eax
  4024df:	48 83 c4 08          	add    rsp,0x8
  4024e3:	5b                   	pop    rbx
  4024e4:	41 5c                	pop    r12
  4024e6:	41 5d                	pop    r13
  4024e8:	41 5e                	pop    r14
  4024ea:	41 5f                	pop    r15
  4024ec:	5d                   	pop    rbp
  4024ed:	c3                   	ret    
  4024ee:	66 90                	xchg   ax,ax
  4024f0:	55                   	push   rbp
  4024f1:	41 57                	push   r15
  4024f3:	41 56                	push   r14
  4024f5:	41 55                	push   r13
  4024f7:	41 54                	push   r12
  4024f9:	53                   	push   rbx
  4024fa:	50                   	push   rax
  4024fb:	48 89 14 24          	mov    QWORD PTR [rsp],rdx
  4024ff:	49 89 f7             	mov    r15,rsi
  402502:	49 89 fd             	mov    r13,rdi
  402505:	4c 8b a7 48 02 00 00 	mov    r12,QWORD PTR [rdi+0x248]
  40250c:	48 83 bf 90 01 00 00 	cmp    QWORD PTR [rdi+0x190],0x0
  402513:	00 
  402514:	0f 88 9f 00 00 00    	js     4025b9 <fwrite@plt+0x1459>
  40251a:	48 c7 c3 ff ff ff ff 	mov    rbx,0xffffffffffffffff
  402521:	bd 40 00 00 00       	mov    ebp,0x40
  402526:	66 2e 0f 1f 84 00 00 	cs nop WORD PTR [rax+rax*1+0x0]
  40252d:	00 00 00 
  402530:	4d 8b b5 28 02 00 00 	mov    r14,QWORD PTR [r13+0x228]
  402537:	49 8b 44 2e f0       	mov    rax,QWORD PTR [r14+rbp*1-0x10]
  40253c:	48 85 c0             	test   rax,rax
  40253f:	74 1b                	je     40255c <fwrite@plt+0x13fc>
  402541:	48 63 30             	movsxd rsi,DWORD PTR [rax]
  402544:	48 85 f6             	test   rsi,rsi
  402547:	78 13                	js     40255c <fwrite@plt+0x13fc>
  402549:	4c 89 ef             	mov    rdi,r13
  40254c:	41 ff d7             	call   r15
  40254f:	48 8d 04 c0          	lea    rax,[rax+rax*8]
  402553:	49 8d 04 c4          	lea    rax,[r12+rax*8]
  402557:	49 89 44 2e f0       	mov    QWORD PTR [r14+rbp*1-0x10],rax
  40255c:	49 8b 04 2e          	mov    rax,QWORD PTR [r14+rbp*1]
  402560:	48 85 c0             	test   rax,rax
  402563:	74 1a                	je     40257f <fwrite@plt+0x141f>
  402565:	48 63 30             	movsxd rsi,DWORD PTR [rax]
  402568:	48 85 f6             	test   rsi,rsi
  40256b:	78 12                	js     40257f <fwrite@plt+0x141f>
  40256d:	4c 89 ef             	mov    rdi,r13
  402570:	41 ff d7             	call   r15
  402573:	48 8d 04 c0          	lea    rax,[rax+rax*8]
  402577:	49 8d 04 c4          	lea    rax,[r12+rax*8]
  40257b:	49 89 04 2e          	mov    QWORD PTR [r14+rbp*1],rax
  40257f:	49 8b 44 2e f8       	mov    rax,QWORD PTR [r14+rbp*1-0x8]
  402584:	48 85 c0             	test   rax,rax
  402587:	74 1b                	je     4025a4 <fwrite@plt+0x1444>
  402589:	48 63 30             	movsxd rsi,DWORD PTR [rax]
  40258c:	48 85 f6             	test   rsi,rsi
  40258f:	78 13                	js     4025a4 <fwrite@plt+0x1444>
  402591:	4c 89 ef             	mov    rdi,r13
  402594:	41 ff d7             	call   r15
  402597:	48 8d 04 c0          	lea    rax,[rax+rax*8]
  40259b:	49 8d 04 c4          	lea    rax,[r12+rax*8]
  40259f:	49 89 44 2e f8       	mov    QWORD PTR [r14+rbp*1-0x8],rax
  4025a4:	48 83 c3 01          	add    rbx,0x1
  4025a8:	48 83 c5 68          	add    rbp,0x68
  4025ac:	49 3b 9d 90 01 00 00 	cmp    rbx,QWORD PTR [r13+0x190]
  4025b3:	0f 8c 77 ff ff ff    	jl     402530 <fwrite@plt+0x13d0>
  4025b9:	4d 8b b5 38 02 00 00 	mov    r14,QWORD PTR [r13+0x238]
  4025c0:	48 8b 04 24          	mov    rax,QWORD PTR [rsp]
  4025c4:	48 85 c0             	test   rax,rax
  4025c7:	7e 52                	jle    40261b <fwrite@plt+0x14bb>
  4025c9:	31 ed                	xor    ebp,ebp
  4025cb:	48 89 c3             	mov    rbx,rax
  4025ce:	66 90                	xchg   ax,ax
  4025d0:	49 63 34 2e          	movsxd rsi,DWORD PTR [r14+rbp*1]
  4025d4:	48 85 f6             	test   rsi,rsi
  4025d7:	78 38                	js     402611 <fwrite@plt+0x14b1>
  4025d9:	4c 89 ef             	mov    rdi,r13
  4025dc:	c5 f8 77             	vzeroupper 
  4025df:	41 ff d7             	call   r15
  4025e2:	48 8d 04 c0          	lea    rax,[rax+rax*8]
  4025e6:	49 8b 4c 2e 40       	mov    rcx,QWORD PTR [r14+rbp*1+0x40]
  4025eb:	49 89 4c c4 40       	mov    QWORD PTR [r12+rax*8+0x40],rcx
  4025f0:	c4 c1 7c 10 04 2e    	vmovups ymm0,YMMWORD PTR [r14+rbp*1]
  4025f6:	c4 c1 7c 10 4c 2e 20 	vmovups ymm1,YMMWORD PTR [r14+rbp*1+0x20]
  4025fd:	c4 c1 7c 11 4c c4 20 	vmovups YMMWORD PTR [r12+rax*8+0x20],ymm1
  402604:	c4 c1 7c 11 04 c4    	vmovups YMMWORD PTR [r12+rax*8],ymm0
  40260a:	4d 8b b5 38 02 00 00 	mov    r14,QWORD PTR [r13+0x238]
  402611:	48 83 c5 48          	add    rbp,0x48
  402615:	48 83 c3 ff          	add    rbx,0xffffffffffffffff
  402619:	75 b5                	jne    4025d0 <fwrite@plt+0x1470>
  40261b:	4d 89 a5 38 02 00 00 	mov    QWORD PTR [r13+0x238],r12
  402622:	4d 89 b5 48 02 00 00 	mov    QWORD PTR [r13+0x248],r14
  402629:	48 8b 04 24          	mov    rax,QWORD PTR [rsp]
  40262d:	48 8d 04 c0          	lea    rax,[rax+rax*8]
  402631:	49 8d 04 c4          	lea    rax,[r12+rax*8]
  402635:	49 89 85 40 02 00 00 	mov    QWORD PTR [r13+0x240],rax
  40263c:	31 c0                	xor    eax,eax
  40263e:	48 83 c4 08          	add    rsp,0x8
  402642:	5b                   	pop    rbx
  402643:	41 5c                	pop    r12
  402645:	41 5d                	pop    r13
  402647:	41 5e                	pop    r14
  402649:	41 5f                	pop    r15
  40264b:	5d                   	pop    rbp
  40264c:	c5 f8 77             	vzeroupper 
  40264f:	c3                   	ret    
  402650:	48 81 bf 98 01 00 00 	cmp    QWORD PTR [rdi+0x198],0x3a99
  402657:	99 3a 00 00 
  40265b:	48 c7 c0 c0 bd f0 ff 	mov    rax,0xfffffffffff0bdc0
  402662:	49 c7 c0 00 f7 c2 ff 	mov    r8,0xffffffffffc2f700
  402669:	4c 0f 4c c0          	cmovl  r8,rax
  40266d:	4c 03 87 c0 01 00 00 	add    r8,QWORD PTR [rdi+0x1c0]
  402674:	48 c7 06 00 00 00 00 	mov    QWORD PTR [rsi],0x0
  40267b:	4c 8b 0a             	mov    r9,QWORD PTR [rdx]
  40267e:	4c 89 0e             	mov    QWORD PTR [rsi],r9
  402681:	31 c0                	xor    eax,eax
  402683:	4d 85 c0             	test   r8,r8
  402686:	7e 48                	jle    4026d0 <fwrite@plt+0x1570>
  402688:	4d 85 c9             	test   r9,r9
  40268b:	7e 43                	jle    4026d0 <fwrite@plt+0x1570>
  40268d:	4c 8b 09             	mov    r9,QWORD PTR [rcx]
  402690:	4c 8b 97 a8 01 00 00 	mov    r10,QWORD PTR [rdi+0x1a8]
  402697:	31 c0                	xor    eax,eax
  402699:	0f 1f 80 00 00 00 00 	nop    DWORD PTR [rax+0x0]
  4026a0:	48 3b 02             	cmp    rax,QWORD PTR [rdx]
  4026a3:	7d 0b                	jge    4026b0 <fwrite@plt+0x1550>
  4026a5:	4d 8b 1c c1          	mov    r11,QWORD PTR [r9+rax*8]
  4026a9:	eb 08                	jmp    4026b3 <fwrite@plt+0x1553>
  4026ab:	0f 1f 44 00 00       	nop    DWORD PTR [rax+rax*1+0x0]
  4026b0:	45 31 db             	xor    r11d,r11d
  4026b3:	41 8d 0c 02          	lea    ecx,[r10+rax*1]
  4026b7:	41 89 0b             	mov    DWORD PTR [r11],ecx
  4026ba:	49 c7 43 38 01 00 00 	mov    QWORD PTR [r11+0x38],0x1
  4026c1:	00 
  4026c2:	48 83 c0 01          	add    rax,0x1
  4026c6:	4c 39 c0             	cmp    rax,r8
  4026c9:	7d 05                	jge    4026d0 <fwrite@plt+0x1570>
  4026cb:	48 3b 06             	cmp    rax,QWORD PTR [rsi]
  4026ce:	7c d0                	jl     4026a0 <fwrite@plt+0x1540>
  4026d0:	48 89 06             	mov    QWORD PTR [rsi],rax
  4026d3:	48 c7 87 80 02 00 00 	mov    QWORD PTR [rdi+0x280],0xfa0
  4026da:	a0 0f 00 00 
  4026de:	48 8b 06             	mov    rax,QWORD PTR [rsi]
  4026e1:	48 8b 8f a8 01 00 00 	mov    rcx,QWORD PTR [rdi+0x1a8]
  4026e8:	48 01 c8             	add    rax,rcx
  4026eb:	48 83 c0 ff          	add    rax,0xffffffffffffffff
  4026ef:	49 b9 cf f7 53 e3 a5 	movabs r9,0x20c49ba5e353f7cf
  4026f6:	9b c4 20 
  4026f9:	49 f7 e9             	imul   r9
  4026fc:	48 89 d0             	mov    rax,rdx
  4026ff:	48 c1 e8 3f          	shr    rax,0x3f
  402703:	48 c1 fa 09          	sar    rdx,0x9
  402707:	4c 8d 14 02          	lea    r10,[rdx+rax*1]
  40270b:	4c 8d 04 02          	lea    r8,[rdx+rax*1]
  40270f:	49 83 c0 01          	add    r8,0x1
  402713:	4c 89 87 70 02 00 00 	mov    QWORD PTR [rdi+0x270],r8
  40271a:	48 03 0e             	add    rcx,QWORD PTR [rsi]
  40271d:	48 89 c8             	mov    rax,rcx
  402720:	49 f7 e9             	imul   r9
  402723:	48 89 d0             	mov    rax,rdx
  402726:	48 c1 e8 3f          	shr    rax,0x3f
  40272a:	48 c1 fa 09          	sar    rdx,0x9
  40272e:	48 01 c2             	add    rdx,rax
  402731:	48 69 c2 a0 0f 00 00 	imul   rax,rdx,0xfa0
  402738:	48 29 c1             	sub    rcx,rax
  40273b:	4a 8d 8c 11 61 f0 ff 	lea    rcx,[rcx+r10*1-0xf9f]
  402742:	ff 
  402743:	49 0f 44 c8          	cmove  rcx,r8
  402747:	48 89 8f 78 02 00 00 	mov    QWORD PTR [rdi+0x278],rcx
  40274e:	48 85 c9             	test   rcx,rcx
  402751:	78 01                	js     402754 <fwrite@plt+0x15f4>
  402753:	c3                   	ret    
  402754:	48 89 c8             	mov    rax,rcx
  402757:	48 f7 d0             	not    rax
  40275a:	31 d2                	xor    edx,edx
  40275c:	49 f7 f0             	div    r8
  40275f:	48 83 c0 01          	add    rax,0x1
  402763:	48 83 f8 07          	cmp    rax,0x7
  402767:	77 0a                	ja     402773 <fwrite@plt+0x1613>
  402769:	ba a0 0f 00 00       	mov    edx,0xfa0
  40276e:	e9 dd 00 00 00       	jmp    402850 <fwrite@plt+0x16f0>
  402773:	49 89 c1             	mov    r9,rax
  402776:	49 83 e1 f8          	and    r9,0xfffffffffffffff8
  40277a:	4d 8d 51 f8          	lea    r10,[r9-0x8]
  40277e:	4c 89 d2             	mov    rdx,r10
  402781:	48 c1 ea 03          	shr    rdx,0x3
  402785:	48 83 c2 01          	add    rdx,0x1
  402789:	41 89 d3             	mov    r11d,edx
  40278c:	41 83 e3 03          	and    r11d,0x3
  402790:	49 83 fa 18          	cmp    r10,0x18
  402794:	73 24                	jae    4027ba <fwrite@plt+0x165a>
  402796:	ba a0 0f 00 00       	mov    edx,0xfa0
  40279b:	c4 e1 f9 6e c2       	vmovq  xmm0,rdx
  4027a0:	c5 f1 ef c9          	vpxor  xmm1,xmm1,xmm1
  4027a4:	c5 e9 ef d2          	vpxor  xmm2,xmm2,xmm2
  4027a8:	c5 e1 ef db          	vpxor  xmm3,xmm3,xmm3
  4027ac:	4c 89 ca             	mov    rdx,r9
  4027af:	49 0f af d0          	imul   rdx,r8
  4027b3:	4d 85 db             	test   r11,r11
  4027b6:	75 4a                	jne    402802 <fwrite@plt+0x16a2>
  4027b8:	eb 6c                	jmp    402826 <fwrite@plt+0x16c6>
  4027ba:	4c 29 da             	sub    rdx,r11
  4027bd:	be a0 0f 00 00       	mov    esi,0xfa0
  4027c2:	c4 e1 f9 6e c6       	vmovq  xmm0,rsi
  4027c7:	c5 f1 ef c9          	vpxor  xmm1,xmm1,xmm1
  4027cb:	c5 f9 6f 25 2d 7b 00 	vmovdqa xmm4,XMMWORD PTR [rip+0x7b2d]        # 40a300 <fwrite@plt+0x91a0>
  4027d2:	00 
  4027d3:	c5 e9 ef d2          	vpxor  xmm2,xmm2,xmm2
  4027d7:	c5 e1 ef db          	vpxor  xmm3,xmm3,xmm3
  4027db:	0f 1f 44 00 00       	nop    DWORD PTR [rax+rax*1+0x0]
  4027e0:	c5 f9 d4 c4          	vpaddq xmm0,xmm0,xmm4
  4027e4:	c5 f1 d4 cc          	vpaddq xmm1,xmm1,xmm4
  4027e8:	c5 e9 d4 d4          	vpaddq xmm2,xmm2,xmm4
  4027ec:	c5 e1 d4 dc          	vpaddq xmm3,xmm3,xmm4
  4027f0:	48 83 c2 fc          	add    rdx,0xfffffffffffffffc
  4027f4:	75 ea                	jne    4027e0 <fwrite@plt+0x1680>
  4027f6:	4c 89 ca             	mov    rdx,r9
  4027f9:	49 0f af d0          	imul   rdx,r8
  4027fd:	4d 85 db             	test   r11,r11
  402800:	74 24                	je     402826 <fwrite@plt+0x16c6>
  402802:	c5 d9 76 e4          	vpcmpeqd xmm4,xmm4,xmm4
  402806:	66 2e 0f 1f 84 00 00 	cs nop WORD PTR [rax+rax*1+0x0]
  40280d:	00 00 00 
  402810:	c5 f9 d4 c4          	vpaddq xmm0,xmm0,xmm4
  402814:	c5 f1 d4 cc          	vpaddq xmm1,xmm1,xmm4
  402818:	c5 e9 d4 d4          	vpaddq xmm2,xmm2,xmm4
  40281c:	c5 e1 d4 dc          	vpaddq xmm3,xmm3,xmm4
  402820:	49 83 c3 ff          	add    r11,0xffffffffffffffff
  402824:	75 ea                	jne    402810 <fwrite@plt+0x16b0>
  402826:	c5 f1 d4 cb          	vpaddq xmm1,xmm1,xmm3
  40282a:	c5 f9 d4 c2          	vpaddq xmm0,xmm0,xmm2
  40282e:	c5 f9 d4 c1          	vpaddq xmm0,xmm0,xmm1
  402832:	48 01 d1             	add    rcx,rdx
  402835:	c5 f9 70 c8 4e       	vpshufd xmm1,xmm0,0x4e
  40283a:	c5 f9 d4 c1          	vpaddq xmm0,xmm0,xmm1
  40283e:	c4 e1 f9 7e c2       	vmovq  rdx,xmm0
  402843:	4c 39 c8             	cmp    rax,r9
  402846:	74 11                	je     402859 <fwrite@plt+0x16f9>
  402848:	0f 1f 84 00 00 00 00 	nop    DWORD PTR [rax+rax*1+0x0]
  40284f:	00 
  402850:	48 83 c2 ff          	add    rdx,0xffffffffffffffff
  402854:	4c 01 c1             	add    rcx,r8
  402857:	78 f7                	js     402850 <fwrite@plt+0x16f0>
  402859:	48 89 8f 78 02 00 00 	mov    QWORD PTR [rdi+0x278],rcx
  402860:	48 89 97 80 02 00 00 	mov    QWORD PTR [rdi+0x280],rdx
  402867:	c3                   	ret    
  402868:	0f 1f 84 00 00 00 00 	nop    DWORD PTR [rax+rax*1+0x0]
  40286f:	00 
  402870:	48 8b 17             	mov    rdx,QWORD PTR [rdi]
  402873:	48 8b 0e             	mov    rcx,QWORD PTR [rsi]
  402876:	48 8b 71 38          	mov    rsi,QWORD PTR [rcx+0x38]
  40287a:	b8 01 00 00 00       	mov    eax,0x1
  40287f:	48 39 72 38          	cmp    QWORD PTR [rdx+0x38],rsi
  402883:	7f 16                	jg     40289b <fwrite@plt+0x173b>
  402885:	b8 ff ff ff ff       	mov    eax,0xffffffff
  40288a:	7c 0f                	jl     40289b <fwrite@plt+0x173b>
  40288c:	8b 02                	mov    eax,DWORD PTR [rdx]
  40288e:	31 d2                	xor    edx,edx
  402890:	3b 01                	cmp    eax,DWORD PTR [rcx]
  402892:	0f 9d c2             	setge  dl
  402895:	8d 04 12             	lea    eax,[rdx+rdx*1]
  402898:	83 c0 ff             	add    eax,0xffffffff
  40289b:	c3                   	ret    
  40289c:	0f 1f 40 00          	nop    DWORD PTR [rax+0x0]
  4028a0:	53                   	push   rbx
  4028a1:	48 89 fb             	mov    rbx,rdi
  4028a4:	48 8b 87 c8 01 00 00 	mov    rax,QWORD PTR [rdi+0x1c8]
  4028ab:	48 8b bf 38 02 00 00 	mov    rdi,QWORD PTR [rdi+0x238]
  4028b2:	48 8b 8b a0 01 00 00 	mov    rcx,QWORD PTR [rbx+0x1a0]
  4028b9:	48 01 c1             	add    rcx,rax
  4028bc:	48 89 8b a0 01 00 00 	mov    QWORD PTR [rbx+0x1a0],rcx
  4028c3:	48 01 83 c0 01 00 00 	add    QWORD PTR [rbx+0x1c0],rax
  4028ca:	48 c1 e1 03          	shl    rcx,0x3
  4028ce:	48 8d 34 c9          	lea    rsi,[rcx+rcx*8]
  4028d2:	e8 49 e8 ff ff       	call   401120 <realloc@plt>
  4028d7:	48 85 c0             	test   rax,rax
  4028da:	0f 84 8a 00 00 00    	je     40296a <fwrite@plt+0x180a>
  4028e0:	4c 8b 83 38 02 00 00 	mov    r8,QWORD PTR [rbx+0x238]
  4028e7:	48 89 83 38 02 00 00 	mov    QWORD PTR [rbx+0x238],rax
  4028ee:	48 8b 8b a8 01 00 00 	mov    rcx,QWORD PTR [rbx+0x1a8]
  4028f5:	48 8b 93 28 02 00 00 	mov    rdx,QWORD PTR [rbx+0x228]
  4028fc:	48 8d 0c c9          	lea    rcx,[rcx+rcx*8]
  402900:	48 8d 0c c8          	lea    rcx,[rax+rcx*8]
  402904:	48 89 8b 40 02 00 00 	mov    QWORD PTR [rbx+0x240],rcx
  40290b:	48 8b b3 30 02 00 00 	mov    rsi,QWORD PTR [rbx+0x230]
  402912:	48 8d 7a 68          	lea    rdi,[rdx+0x68]
  402916:	48 39 f7             	cmp    rdi,rsi
  402919:	72 0e                	jb     402929 <fwrite@plt+0x17c9>
  40291b:	eb 27                	jmp    402944 <fwrite@plt+0x17e4>
  40291d:	0f 1f 00             	nop    DWORD PTR [rax]
  402920:	48 83 c7 68          	add    rdi,0x68
  402924:	48 39 f7             	cmp    rdi,rsi
  402927:	73 1b                	jae    402944 <fwrite@plt+0x17e4>
  402929:	48 8b 4f 30          	mov    rcx,QWORD PTR [rdi+0x30]
  40292d:	48 85 c9             	test   rcx,rcx
  402930:	74 ee                	je     402920 <fwrite@plt+0x17c0>
  402932:	48 39 57 18          	cmp    QWORD PTR [rdi+0x18],rdx
  402936:	74 e8                	je     402920 <fwrite@plt+0x17c0>
  402938:	4c 29 c1             	sub    rcx,r8
  40293b:	48 01 c1             	add    rcx,rax
  40293e:	48 89 4f 30          	mov    QWORD PTR [rdi+0x30],rcx
  402942:	eb dc                	jmp    402920 <fwrite@plt+0x17c0>
  402944:	48 8b 83 a0 01 00 00 	mov    rax,QWORD PTR [rbx+0x1a0]
  40294b:	48 8b bb 48 02 00 00 	mov    rdi,QWORD PTR [rbx+0x248]
  402952:	48 c1 e0 03          	shl    rax,0x3
  402956:	48 8d 34 c0          	lea    rsi,[rax+rax*8]
  40295a:	e8 c1 e7 ff ff       	call   401120 <realloc@plt>
  40295f:	48 89 83 48 02 00 00 	mov    QWORD PTR [rbx+0x248],rax
  402966:	31 c0                	xor    eax,eax
  402968:	5b                   	pop    rbx
  402969:	c3                   	ret    
  40296a:	bf e0 a3 40 00       	mov    edi,0x40a3e0
  40296f:	31 c0                	xor    eax,eax
  402971:	48 89 de             	mov    rsi,rbx
  402974:	e8 07 e7 ff ff       	call   401080 <printf@plt>
  402979:	48 8b 3d 60 a7 00 00 	mov    rdi,QWORD PTR [rip+0xa760]        # 40d0e0 <stdout@@GLIBC_2.2.5>
  402980:	e8 6b e7 ff ff       	call   4010f0 <fflush@plt>
  402985:	48 c7 c0 ff ff ff ff 	mov    rax,0xffffffffffffffff
  40298c:	5b                   	pop    rbx
  40298d:	c3                   	ret    
  40298e:	66 90                	xchg   ax,ax
  402990:	41 57                	push   r15
  402992:	41 56                	push   r14
  402994:	41 54                	push   r12
  402996:	53                   	push   rbx
  402997:	44 8b 54 24 30       	mov    r10d,DWORD PTR [rsp+0x30]
  40299c:	48 8d 04 f6          	lea    rax,[rsi+rsi*8]
  4029a0:	48 89 54 c7 10       	mov    QWORD PTR [rdi+rax*8+0x10],rdx
  4029a5:	48 89 4c c7 18       	mov    QWORD PTR [rdi+rax*8+0x18],rcx
  4029aa:	4c 89 44 c7 40       	mov    QWORD PTR [rdi+rax*8+0x40],r8
  4029af:	4c 89 44 c7 08       	mov    QWORD PTR [rdi+rax*8+0x8],r8
  4029b4:	4c 89 4c c7 38       	mov    QWORD PTR [rdi+rax*8+0x38],r9
  4029b9:	44 89 14 c7          	mov    DWORD PTR [rdi+rax*8],r10d
  4029bd:	48 85 f6             	test   rsi,rsi
  4029c0:	0f 84 84 00 00 00    	je     402a4a <fwrite@plt+0x18ea>
  4029c6:	4c 8d 7e 01          	lea    r15,[rsi+0x1]
  4029ca:	66 0f 1f 44 00 00    	nop    WORD PTR [rax+rax*1+0x0]
  4029d0:	4c 89 f8             	mov    rax,r15
  4029d3:	48 c1 e8 3f          	shr    rax,0x3f
  4029d7:	49 01 c7             	add    r15,rax
  4029da:	49 d1 ff             	sar    r15,1
  4029dd:	4d 8d 5f ff          	lea    r11,[r15-0x1]
  4029e1:	4b 8d 1c db          	lea    rbx,[r11+r11*8]
  4029e5:	4c 8b 74 df 38       	mov    r14,QWORD PTR [rdi+rbx*8+0x38]
  4029ea:	4d 39 ce             	cmp    r14,r9
  4029ed:	7d 5b                	jge    402a4a <fwrite@plt+0x18ea>
  4029ef:	4c 8d 24 df          	lea    r12,[rdi+rbx*8]
  4029f3:	49 83 c4 38          	add    r12,0x38
  4029f7:	48 8b 44 df 18       	mov    rax,QWORD PTR [rdi+rbx*8+0x18]
  4029fc:	48 8d 34 f6          	lea    rsi,[rsi+rsi*8]
  402a00:	48 89 44 f7 18       	mov    QWORD PTR [rdi+rsi*8+0x18],rax
  402a05:	c5 f8 10 44 df 08    	vmovups xmm0,XMMWORD PTR [rdi+rbx*8+0x8]
  402a0b:	c5 f8 11 44 f7 08    	vmovups XMMWORD PTR [rdi+rsi*8+0x8],xmm0
  402a11:	48 8b 44 df 08       	mov    rax,QWORD PTR [rdi+rbx*8+0x8]
  402a16:	48 89 44 f7 40       	mov    QWORD PTR [rdi+rsi*8+0x40],rax
  402a1b:	4c 89 74 f7 38       	mov    QWORD PTR [rdi+rsi*8+0x38],r14
  402a20:	8b 04 df             	mov    eax,DWORD PTR [rdi+rbx*8]
  402a23:	89 04 f7             	mov    DWORD PTR [rdi+rsi*8],eax
  402a26:	48 89 54 df 10       	mov    QWORD PTR [rdi+rbx*8+0x10],rdx
  402a2b:	48 89 4c df 18       	mov    QWORD PTR [rdi+rbx*8+0x18],rcx
  402a30:	4c 89 44 df 08       	mov    QWORD PTR [rdi+rbx*8+0x8],r8
  402a35:	4c 89 44 df 40       	mov    QWORD PTR [rdi+rbx*8+0x40],r8
  402a3a:	4d 89 0c 24          	mov    QWORD PTR [r12],r9
  402a3e:	44 89 14 df          	mov    DWORD PTR [rdi+rbx*8],r10d
  402a42:	4c 89 de             	mov    rsi,r11
  402a45:	4d 85 db             	test   r11,r11
  402a48:	75 86                	jne    4029d0 <fwrite@plt+0x1870>
  402a4a:	5b                   	pop    rbx
  402a4b:	41 5c                	pop    r12
  402a4d:	41 5e                	pop    r14
  402a4f:	41 5f                	pop    r15
  402a51:	c3                   	ret    
  402a52:	66 2e 0f 1f 84 00 00 	cs nop WORD PTR [rax+rax*1+0x0]
  402a59:	00 00 00 
  402a5c:	0f 1f 40 00          	nop    DWORD PTR [rax+0x0]
  402a60:	41 57                	push   r15
  402a62:	41 56                	push   r14
  402a64:	41 54                	push   r12
  402a66:	53                   	push   rbx
  402a67:	44 8b 54 24 28       	mov    r10d,DWORD PTR [rsp+0x28]
  402a6c:	48 89 77 10          	mov    QWORD PTR [rdi+0x10],rsi
  402a70:	48 89 57 18          	mov    QWORD PTR [rdi+0x18],rdx
  402a74:	48 89 4f 40          	mov    QWORD PTR [rdi+0x40],rcx
  402a78:	48 89 4f 08          	mov    QWORD PTR [rdi+0x8],rcx
  402a7c:	4c 89 47 38          	mov    QWORD PTR [rdi+0x38],r8
  402a80:	44 89 17             	mov    DWORD PTR [rdi],r10d
  402a83:	48 8b 87 80 00 00 00 	mov    rax,QWORD PTR [rdi+0x80]
  402a8a:	45 31 db             	xor    r11d,r11d
  402a8d:	48 3b 87 c8 00 00 00 	cmp    rax,QWORD PTR [rdi+0xc8]
  402a94:	41 0f 9f c3          	setg   r11b
  402a98:	49 83 f3 03          	xor    r11,0x3
  402a9c:	4d 39 cb             	cmp    r11,r9
  402a9f:	0f 8f ac 00 00 00    	jg     402b51 <fwrite@plt+0x19f1>
  402aa5:	41 be 01 00 00 00    	mov    r14d,0x1
  402aab:	0f 1f 44 00 00       	nop    DWORD PTR [rax+rax*1+0x0]
  402ab0:	49 8d 43 ff          	lea    rax,[r11-0x1]
  402ab4:	48 8d 04 c0          	lea    rax,[rax+rax*8]
  402ab8:	4c 8b 64 c7 38       	mov    r12,QWORD PTR [rdi+rax*8+0x38]
  402abd:	4d 39 c4             	cmp    r12,r8
  402ac0:	0f 8e 8b 00 00 00    	jle    402b51 <fwrite@plt+0x19f1>
  402ac6:	4d 89 df             	mov    r15,r11
  402ac9:	4c 8d 1c c7          	lea    r11,[rdi+rax*8]
  402acd:	49 83 c3 38          	add    r11,0x38
  402ad1:	4f 8d 34 f6          	lea    r14,[r14+r14*8]
  402ad5:	48 8b 5c c7 18       	mov    rbx,QWORD PTR [rdi+rax*8+0x18]
  402ada:	4a 89 5c f7 d0       	mov    QWORD PTR [rdi+r14*8-0x30],rbx
  402adf:	c5 f8 10 44 c7 08    	vmovups xmm0,XMMWORD PTR [rdi+rax*8+0x8]
  402ae5:	c4 a1 78 11 44 f7 c0 	vmovups XMMWORD PTR [rdi+r14*8-0x40],xmm0
  402aec:	48 8b 5c c7 08       	mov    rbx,QWORD PTR [rdi+rax*8+0x8]
  402af1:	4a 89 5c f7 f8       	mov    QWORD PTR [rdi+r14*8-0x8],rbx
  402af6:	4e 89 64 f7 f0       	mov    QWORD PTR [rdi+r14*8-0x10],r12
  402afb:	8b 1c c7             	mov    ebx,DWORD PTR [rdi+rax*8]
  402afe:	42 89 5c f7 b8       	mov    DWORD PTR [rdi+r14*8-0x48],ebx
  402b03:	48 89 74 c7 10       	mov    QWORD PTR [rdi+rax*8+0x10],rsi
  402b08:	48 89 54 c7 18       	mov    QWORD PTR [rdi+rax*8+0x18],rdx
  402b0d:	48 89 4c c7 08       	mov    QWORD PTR [rdi+rax*8+0x8],rcx
  402b12:	48 89 4c c7 40       	mov    QWORD PTR [rdi+rax*8+0x40],rcx
  402b17:	4d 89 03             	mov    QWORD PTR [r11],r8
  402b1a:	44 89 14 c7          	mov    DWORD PTR [rdi+rax*8],r10d
  402b1e:	4f 8d 1c 3f          	lea    r11,[r15+r15*1]
  402b22:	4b 8d 04 3f          	lea    rax,[r15+r15*1]
  402b26:	48 83 c0 01          	add    rax,0x1
  402b2a:	4c 39 c8             	cmp    rax,r9
  402b2d:	7f 16                	jg     402b45 <fwrite@plt+0x19e5>
  402b2f:	4f 8d 34 db          	lea    r14,[r11+r11*8]
  402b33:	4a 8b 5c f7 f0       	mov    rbx,QWORD PTR [rdi+r14*8-0x10]
  402b38:	4a 3b 5c f7 38       	cmp    rbx,QWORD PTR [rdi+r14*8+0x38]
  402b3d:	7c 03                	jl     402b42 <fwrite@plt+0x19e2>
  402b3f:	4c 89 d8             	mov    rax,r11
  402b42:	49 89 c3             	mov    r11,rax
  402b45:	4d 89 fe             	mov    r14,r15
  402b48:	4d 39 cb             	cmp    r11,r9
  402b4b:	0f 8e 5f ff ff ff    	jle    402ab0 <fwrite@plt+0x1950>
  402b51:	5b                   	pop    rbx
  402b52:	41 5c                	pop    r12
  402b54:	41 5e                	pop    r14
  402b56:	41 5f                	pop    r15
  402b58:	c3                   	ret    
  402b59:	0f 1f 80 00 00 00 00 	nop    DWORD PTR [rax+0x0]
  402b60:	48 c7 06 00 00 00 00 	mov    QWORD PTR [rsi],0x0
  402b67:	48 85 c9             	test   rcx,rcx
  402b6a:	7e 72                	jle    402bde <fwrite@plt+0x1a7e>
  402b6c:	41 89 c8             	mov    r8d,ecx
  402b6f:	41 83 e0 01          	and    r8d,0x1
  402b73:	48 83 f9 01          	cmp    rcx,0x1
  402b77:	75 0c                	jne    402b85 <fwrite@plt+0x1a25>
  402b79:	45 31 c9             	xor    r9d,r9d
  402b7c:	31 c0                	xor    eax,eax
  402b7e:	4d 85 c0             	test   r8,r8
  402b81:	75 48                	jne    402bcb <fwrite@plt+0x1a6b>
  402b83:	eb 59                	jmp    402bde <fwrite@plt+0x1a7e>
  402b85:	4c 29 c1             	sub    rcx,r8
  402b88:	45 31 c9             	xor    r9d,r9d
  402b8b:	31 c0                	xor    eax,eax
  402b8d:	0f 1f 00             	nop    DWORD PTR [rax]
  402b90:	48 8b 3c c2          	mov    rdi,QWORD PTR [rdx+rax*8]
  402b94:	48 8b 3f             	mov    rdi,QWORD PTR [rdi]
  402b97:	48 8b 7f 38          	mov    rdi,QWORD PTR [rdi+0x38]
  402b9b:	4c 39 cf             	cmp    rdi,r9
  402b9e:	7e 06                	jle    402ba6 <fwrite@plt+0x1a46>
  402ba0:	48 89 3e             	mov    QWORD PTR [rsi],rdi
  402ba3:	49 89 f9             	mov    r9,rdi
  402ba6:	48 8b 7c c2 08       	mov    rdi,QWORD PTR [rdx+rax*8+0x8]
  402bab:	48 8b 3f             	mov    rdi,QWORD PTR [rdi]
  402bae:	48 8b 7f 38          	mov    rdi,QWORD PTR [rdi+0x38]
  402bb2:	4c 39 cf             	cmp    rdi,r9
  402bb5:	7e 06                	jle    402bbd <fwrite@plt+0x1a5d>
  402bb7:	48 89 3e             	mov    QWORD PTR [rsi],rdi
  402bba:	49 89 f9             	mov    r9,rdi
  402bbd:	48 83 c0 02          	add    rax,0x2
  402bc1:	48 39 c1             	cmp    rcx,rax
  402bc4:	75 ca                	jne    402b90 <fwrite@plt+0x1a30>
  402bc6:	4d 85 c0             	test   r8,r8
  402bc9:	74 13                	je     402bde <fwrite@plt+0x1a7e>
  402bcb:	48 8b 04 c2          	mov    rax,QWORD PTR [rdx+rax*8]
  402bcf:	48 8b 00             	mov    rax,QWORD PTR [rax]
  402bd2:	48 8b 40 38          	mov    rax,QWORD PTR [rax+0x38]
  402bd6:	4c 39 c8             	cmp    rax,r9
  402bd9:	7e 03                	jle    402bde <fwrite@plt+0x1a7e>
  402bdb:	48 89 06             	mov    QWORD PTR [rsi],rax
  402bde:	c3                   	ret    
  402bdf:	90                   	nop
  402be0:	55                   	push   rbp
  402be1:	41 57                	push   r15
  402be3:	41 56                	push   r14
  402be5:	41 55                	push   r13
  402be7:	41 54                	push   r12
  402be9:	53                   	push   rbx
  402bea:	4c 89 4c 24 e8       	mov    QWORD PTR [rsp-0x18],r9
  402bef:	48 89 74 24 f0       	mov    QWORD PTR [rsp-0x10],rsi
  402bf4:	48 83 7c 24 40 00    	cmp    QWORD PTR [rsp+0x40],0x0
  402bfa:	0f 8e f5 01 00 00    	jle    402df5 <fwrite@plt+0x1c95>
  402c00:	48 89 d7             	mov    rdi,rdx
  402c03:	49 63 d0             	movsxd rdx,r8d
  402c06:	31 ed                	xor    ebp,ebp
  402c08:	45 31 f6             	xor    r14d,r14d
  402c0b:	48 89 7c 24 d0       	mov    QWORD PTR [rsp-0x30],rdi
  402c10:	48 8b 44 24 f0       	mov    rax,QWORD PTR [rsp-0x10]
  402c15:	48 8b 1c d0          	mov    rbx,QWORD PTR [rax+rdx*8]
  402c19:	48 8b 44 24 38       	mov    rax,QWORD PTR [rsp+0x38]
  402c1e:	48 39 c3             	cmp    rbx,rax
  402c21:	48 0f 4f d8          	cmovg  rbx,rax
  402c25:	48 85 db             	test   rbx,rbx
  402c28:	48 89 6c 24 f8       	mov    QWORD PTR [rsp-0x8],rbp
  402c2d:	0f 8e 9d 01 00 00    	jle    402dd0 <fwrite@plt+0x1c70>
  402c33:	45 31 ed             	xor    r13d,r13d
  402c36:	48 89 5c 24 d8       	mov    QWORD PTR [rsp-0x28],rbx
  402c3b:	0f 1f 44 00 00       	nop    DWORD PTR [rax+rax*1+0x0]
  402c40:	48 8b 2c d7          	mov    rbp,QWORD PTR [rdi+rdx*8]
  402c44:	4a 8d 34 ed 00 00 00 	lea    rsi,[r13*8+0x0]
  402c4b:	00 
  402c4c:	4c 01 ee             	add    rsi,r13
  402c4f:	66 83 7c f5 20 00    	cmp    WORD PTR [rbp+rsi*8+0x20],0x0
  402c55:	0f 85 68 01 00 00    	jne    402dc3 <fwrite@plt+0x1c63>
  402c5b:	4c 8d 14 f5 00 00 00 	lea    r10,[rsi*8+0x0]
  402c62:	00 
  402c63:	49 01 ea             	add    r10,rbp
  402c66:	4c 8b 7c f5 38       	mov    r15,QWORD PTR [rbp+rsi*8+0x38]
  402c6b:	4c 3b 79 38          	cmp    r15,QWORD PTR [rcx+0x38]
  402c6f:	7d 05                	jge    402c76 <fwrite@plt+0x1b16>
  402c71:	45 8b 0a             	mov    r9d,DWORD PTR [r10]
  402c74:	eb 1a                	jmp    402c90 <fwrite@plt+0x1b30>
  402c76:	0f 85 47 01 00 00    	jne    402dc3 <fwrite@plt+0x1c63>
  402c7c:	45 8b 0a             	mov    r9d,DWORD PTR [r10]
  402c7f:	44 3b 09             	cmp    r9d,DWORD PTR [rcx]
  402c82:	0f 8d 3b 01 00 00    	jge    402dc3 <fwrite@plt+0x1c63>
  402c88:	0f 1f 84 00 00 00 00 	nop    DWORD PTR [rax+rax*1+0x0]
  402c8f:	00 
  402c90:	4c 8b 64 f5 08       	mov    r12,QWORD PTR [rbp+rsi*8+0x8]
  402c95:	4c 8b 44 f5 10       	mov    r8,QWORD PTR [rbp+rsi*8+0x10]
  402c9a:	4c 8b 5c f5 18       	mov    r11,QWORD PTR [rbp+rsi*8+0x18]
  402c9f:	49 83 c6 01          	add    r14,0x1
  402ca3:	4c 89 74 24 e0       	mov    QWORD PTR [rsp-0x20],r14
  402ca8:	48 8b 71 40          	mov    rsi,QWORD PTR [rcx+0x40]
  402cac:	49 89 72 40          	mov    QWORD PTR [r10+0x40],rsi
  402cb0:	c5 fc 10 01          	vmovups ymm0,YMMWORD PTR [rcx]
  402cb4:	c5 fc 10 49 20       	vmovups ymm1,YMMWORD PTR [rcx+0x20]
  402cb9:	c4 c1 7c 11 4a 20    	vmovups YMMWORD PTR [r10+0x20],ymm1
  402cbf:	c4 c1 7c 11 02       	vmovups YMMWORD PTR [r10],ymm0
  402cc4:	4c 89 41 10          	mov    QWORD PTR [rcx+0x10],r8
  402cc8:	4c 89 59 18          	mov    QWORD PTR [rcx+0x18],r11
  402ccc:	4c 89 61 40          	mov    QWORD PTR [rcx+0x40],r12
  402cd0:	4c 89 61 08          	mov    QWORD PTR [rcx+0x8],r12
  402cd4:	4c 89 79 38          	mov    QWORD PTR [rcx+0x38],r15
  402cd8:	44 89 09             	mov    DWORD PTR [rcx],r9d
  402cdb:	48 8b b1 80 00 00 00 	mov    rsi,QWORD PTR [rcx+0x80]
  402ce2:	45 31 f6             	xor    r14d,r14d
  402ce5:	48 3b b1 c8 00 00 00 	cmp    rsi,QWORD PTR [rcx+0xc8]
  402cec:	41 0f 9f c6          	setg   r14b
  402cf0:	49 83 f6 03          	xor    r14,0x3
  402cf4:	4c 3b 74 24 e8       	cmp    r14,QWORD PTR [rsp-0x18]
  402cf9:	0f 8f b5 00 00 00    	jg     402db4 <fwrite@plt+0x1c54>
  402cff:	bd 01 00 00 00       	mov    ebp,0x1
  402d04:	66 2e 0f 1f 84 00 00 	cs nop WORD PTR [rax+rax*1+0x0]
  402d0b:	00 00 00 
  402d0e:	66 90                	xchg   ax,ax
  402d10:	49 8d 76 ff          	lea    rsi,[r14-0x1]
  402d14:	48 8d 34 f6          	lea    rsi,[rsi+rsi*8]
  402d18:	48 8b 7c f1 38       	mov    rdi,QWORD PTR [rcx+rsi*8+0x38]
  402d1d:	4c 39 ff             	cmp    rdi,r15
  402d20:	0f 8e 8e 00 00 00    	jle    402db4 <fwrite@plt+0x1c54>
  402d26:	4d 89 f2             	mov    r10,r14
  402d29:	48 8d 04 f1          	lea    rax,[rcx+rsi*8]
  402d2d:	48 83 c0 38          	add    rax,0x38
  402d31:	48 8d 6c ed 00       	lea    rbp,[rbp+rbp*8+0x0]
  402d36:	48 8b 5c f1 18       	mov    rbx,QWORD PTR [rcx+rsi*8+0x18]
  402d3b:	48 89 5c e9 d0       	mov    QWORD PTR [rcx+rbp*8-0x30],rbx
  402d40:	c5 f8 10 44 f1 08    	vmovups xmm0,XMMWORD PTR [rcx+rsi*8+0x8]
  402d46:	c5 f8 11 44 e9 c0    	vmovups XMMWORD PTR [rcx+rbp*8-0x40],xmm0
  402d4c:	48 8b 5c f1 08       	mov    rbx,QWORD PTR [rcx+rsi*8+0x8]
  402d51:	48 89 5c e9 f8       	mov    QWORD PTR [rcx+rbp*8-0x8],rbx
  402d56:	48 89 7c e9 f0       	mov    QWORD PTR [rcx+rbp*8-0x10],rdi
  402d5b:	8b 3c f1             	mov    edi,DWORD PTR [rcx+rsi*8]
  402d5e:	89 7c e9 b8          	mov    DWORD PTR [rcx+rbp*8-0x48],edi
  402d62:	4c 89 44 f1 10       	mov    QWORD PTR [rcx+rsi*8+0x10],r8
  402d67:	4c 89 5c f1 18       	mov    QWORD PTR [rcx+rsi*8+0x18],r11
  402d6c:	4c 89 64 f1 08       	mov    QWORD PTR [rcx+rsi*8+0x8],r12
  402d71:	4c 89 64 f1 40       	mov    QWORD PTR [rcx+rsi*8+0x40],r12
  402d76:	4c 89 38             	mov    QWORD PTR [rax],r15
  402d79:	44 89 0c f1          	mov    DWORD PTR [rcx+rsi*8],r9d
  402d7d:	4f 8d 34 36          	lea    r14,[r14+r14*1]
  402d81:	4b 8d 34 12          	lea    rsi,[r10+r10*1]
  402d85:	48 83 c6 01          	add    rsi,0x1
  402d89:	48 3b 74 24 e8       	cmp    rsi,QWORD PTR [rsp-0x18]
  402d8e:	7f 16                	jg     402da6 <fwrite@plt+0x1c46>
  402d90:	4b 8d 04 f6          	lea    rax,[r14+r14*8]
  402d94:	48 8b 7c c1 f0       	mov    rdi,QWORD PTR [rcx+rax*8-0x10]
  402d99:	48 3b 7c c1 38       	cmp    rdi,QWORD PTR [rcx+rax*8+0x38]
  402d9e:	7c 03                	jl     402da3 <fwrite@plt+0x1c43>
  402da0:	4c 89 f6             	mov    rsi,r14
  402da3:	49 89 f6             	mov    r14,rsi
  402da6:	4c 89 d5             	mov    rbp,r10
  402da9:	4c 3b 74 24 e8       	cmp    r14,QWORD PTR [rsp-0x18]
  402dae:	0f 8e 5c ff ff ff    	jle    402d10 <fwrite@plt+0x1bb0>
  402db4:	48 8b 7c 24 d0       	mov    rdi,QWORD PTR [rsp-0x30]
  402db9:	4c 8b 74 24 e0       	mov    r14,QWORD PTR [rsp-0x20]
  402dbe:	48 8b 5c 24 d8       	mov    rbx,QWORD PTR [rsp-0x28]
  402dc3:	49 83 c5 01          	add    r13,0x1
  402dc7:	49 39 dd             	cmp    r13,rbx
  402dca:	0f 8c 70 fe ff ff    	jl     402c40 <fwrite@plt+0x1ae0>
  402dd0:	48 8b 6c 24 f8       	mov    rbp,QWORD PTR [rsp-0x8]
  402dd5:	48 83 c5 01          	add    rbp,0x1
  402dd9:	48 83 c2 01          	add    rdx,0x1
  402ddd:	48 89 d0             	mov    rax,rdx
  402de0:	48 99                	cqo    
  402de2:	48 8b 74 24 40       	mov    rsi,QWORD PTR [rsp+0x40]
  402de7:	48 f7 fe             	idiv   rsi
  402dea:	48 39 f5             	cmp    rbp,rsi
  402ded:	0f 85 1d fe ff ff    	jne    402c10 <fwrite@plt+0x1ab0>
  402df3:	eb 03                	jmp    402df8 <fwrite@plt+0x1c98>
  402df5:	45 31 f6             	xor    r14d,r14d
  402df8:	4c 89 f0             	mov    rax,r14
  402dfb:	5b                   	pop    rbx
  402dfc:	41 5c                	pop    r12
  402dfe:	41 5d                	pop    r13
  402e00:	41 5e                	pop    r14
  402e02:	41 5f                	pop    r15
  402e04:	5d                   	pop    rbp
  402e05:	c5 f8 77             	vzeroupper 
  402e08:	c3                   	ret    
  402e09:	0f 1f 80 00 00 00 00 	nop    DWORD PTR [rax+0x0]
  402e10:	55                   	push   rbp
  402e11:	41 57                	push   r15
  402e13:	41 56                	push   r14
  402e15:	41 55                	push   r13
  402e17:	41 54                	push   r12
  402e19:	53                   	push   rbx
  402e1a:	48 81 ec b8 00 00 00 	sub    rsp,0xb8
  402e21:	48 89 fb             	mov    rbx,rdi
  402e24:	48 8b 87 10 02 00 00 	mov    rax,QWORD PTR [rdi+0x210]
  402e2b:	48 89 84 24 90 00 00 	mov    QWORD PTR [rsp+0x90],rax
  402e32:	00 
  402e33:	bf 08 00 00 00       	mov    edi,0x8
  402e38:	e8 a3 e2 ff ff       	call   4010e0 <malloc@plt>
  402e3d:	48 89 c5             	mov    rbp,rax
  402e40:	bf 08 00 00 00       	mov    edi,0x8
  402e45:	e8 96 e2 ff ff       	call   4010e0 <malloc@plt>
  402e4a:	48 89 44 24 70       	mov    QWORD PTR [rsp+0x70],rax
  402e4f:	48 8b 83 98 01 00 00 	mov    rax,QWORD PTR [rbx+0x198]
  402e56:	48 8b 8b a0 01 00 00 	mov    rcx,QWORD PTR [rbx+0x1a0]
  402e5d:	48 8b 93 a8 01 00 00 	mov    rdx,QWORD PTR [rbx+0x1a8]
  402e64:	48 8b b3 c8 01 00 00 	mov    rsi,QWORD PTR [rbx+0x1c8]
  402e6b:	48 01 d6             	add    rsi,rdx
  402e6e:	48 3d 98 3a 00 00    	cmp    rax,0x3a98
  402e74:	48 39 ce             	cmp    rsi,rcx
  402e77:	7e 3b                	jle    402eb4 <fwrite@plt+0x1d54>
  402e79:	48 0f af c0          	imul   rax,rax
  402e7d:	48 d1 e8             	shr    rax,1
  402e80:	48 01 d0             	add    rax,rdx
  402e83:	48 39 c8             	cmp    rax,rcx
  402e86:	7e 2c                	jle    402eb4 <fwrite@plt+0x1d54>
  402e88:	48 89 df             	mov    rdi,rbx
  402e8b:	e8 10 fa ff ff       	call   4028a0 <fwrite@plt+0x1740>
  402e90:	49 c7 c6 ff ff ff ff 	mov    r14,0xffffffffffffffff
  402e97:	48 85 c0             	test   rax,rax
  402e9a:	0f 85 10 0e 00 00    	jne    403cb0 <fwrite@plt+0x2b50>
  402ea0:	be a0 17 40 00       	mov    esi,0x4017a0
  402ea5:	48 89 df             	mov    rdi,rbx
  402ea8:	e8 23 e6 ff ff       	call   4014d0 <fwrite@plt+0x370>
  402ead:	ba 01 00 00 00       	mov    edx,0x1
  402eb2:	eb 02                	jmp    402eb6 <fwrite@plt+0x1d56>
  402eb4:	31 d2                	xor    edx,edx
  402eb6:	48 8b 83 98 01 00 00 	mov    rax,QWORD PTR [rbx+0x198]
  402ebd:	48 8b 8b 48 02 00 00 	mov    rcx,QWORD PTR [rbx+0x248]
  402ec4:	48 89 84 24 a0 00 00 	mov    QWORD PTR [rsp+0xa0],rax
  402ecb:	00 
  402ecc:	48 3d 99 3a 00 00    	cmp    rax,0x3a99
  402ed2:	b8 e8 03 00 00       	mov    eax,0x3e8
  402ed7:	be d0 07 00 00       	mov    esi,0x7d0
  402edc:	48 0f 4c f0          	cmovl  rsi,rax
  402ee0:	48 89 b4 24 b0 00 00 	mov    QWORD PTR [rsp+0xb0],rsi
  402ee7:	00 
  402ee8:	48 85 c9             	test   rcx,rcx
  402eeb:	74 62                	je     402f4f <fwrite@plt+0x1def>
  402eed:	48 89 94 24 a8 00 00 	mov    QWORD PTR [rsp+0xa8],rdx
  402ef4:	00 
  402ef5:	48 89 ea             	mov    rdx,rbp
  402ef8:	4c 8b b3 a0 01 00 00 	mov    r14,QWORD PTR [rbx+0x1a0]
  402eff:	48 8b ab c0 01 00 00 	mov    rbp,QWORD PTR [rbx+0x1c0]
  402f06:	48 8b 44 24 70       	mov    rax,QWORD PTR [rsp+0x70]
  402f0b:	48 89 4c 24 78       	mov    QWORD PTR [rsp+0x78],rcx
  402f10:	48 89 08             	mov    QWORD PTR [rax],rcx
  402f13:	49 89 d4             	mov    r12,rdx
  402f16:	48 c7 02 00 00 00 00 	mov    QWORD PTR [rdx],0x0
  402f1d:	4c 8b bb 40 02 00 00 	mov    r15,QWORD PTR [rbx+0x240]
  402f24:	be 08 00 00 00       	mov    esi,0x8
  402f29:	48 89 ef             	mov    rdi,rbp
  402f2c:	e8 6f e1 ff ff       	call   4010a0 <calloc@plt>
  402f31:	49 89 c0             	mov    r8,rax
  402f34:	48 85 ed             	test   rbp,rbp
  402f37:	48 89 6c 24 50       	mov    QWORD PTR [rsp+0x50],rbp
  402f3c:	0f 8e bf 01 00 00    	jle    403101 <fwrite@plt+0x1fa1>
  402f42:	48 83 fd 08          	cmp    rbp,0x8
  402f46:	73 13                	jae    402f5b <fwrite@plt+0x1dfb>
  402f48:	31 c0                	xor    eax,eax
  402f4a:	e9 95 01 00 00       	jmp    4030e4 <fwrite@plt+0x1f84>
  402f4f:	49 c7 c6 ff ff ff ff 	mov    r14,0xffffffffffffffff
  402f56:	e9 55 0d 00 00       	jmp    403cb0 <fwrite@plt+0x2b50>
  402f5b:	48 89 e8             	mov    rax,rbp
  402f5e:	48 83 e0 f8          	and    rax,0xfffffffffffffff8
  402f62:	48 8d 70 f8          	lea    rsi,[rax-0x8]
  402f66:	48 89 f1             	mov    rcx,rsi
  402f69:	48 c1 e9 03          	shr    rcx,0x3
  402f6d:	48 83 c1 01          	add    rcx,0x1
  402f71:	89 ca                	mov    edx,ecx
  402f73:	83 e2 01             	and    edx,0x1
  402f76:	48 85 f6             	test   rsi,rsi
  402f79:	0f 84 bf 09 00 00    	je     40393e <fwrite@plt+0x27de>
  402f7f:	be 01 00 00 00       	mov    esi,0x1
  402f84:	c4 e1 f9 6e c6       	vmovq  xmm0,rsi
  402f89:	48 29 ce             	sub    rsi,rcx
  402f8c:	48 01 d6             	add    rsi,rdx
  402f8f:	48 83 c6 ff          	add    rsi,0xffffffffffffffff
  402f93:	c5 f9 73 f8 08       	vpslldq xmm0,xmm0,0x8
  402f98:	31 c9                	xor    ecx,ecx
  402f9a:	c5 f9 6f 0d ae 73 00 	vmovdqa xmm1,XMMWORD PTR [rip+0x73ae]        # 40a350 <fwrite@plt+0x91f0>
  402fa1:	00 
  402fa2:	c4 c1 f9 6e d7       	vmovq  xmm2,r15
  402fa7:	c5 f9 70 d2 44       	vpshufd xmm2,xmm2,0x44
  402fac:	c5 79 6f 05 ac 73 00 	vmovdqa xmm8,XMMWORD PTR [rip+0x73ac]        # 40a360 <fwrite@plt+0x9200>
  402fb3:	00 
  402fb4:	c5 79 6f 0d b4 73 00 	vmovdqa xmm9,XMMWORD PTR [rip+0x73b4]        # 40a370 <fwrite@plt+0x9210>
  402fbb:	00 
  402fbc:	c5 79 6f 15 bc 73 00 	vmovdqa xmm10,XMMWORD PTR [rip+0x73bc]        # 40a380 <fwrite@plt+0x9220>
  402fc3:	00 
  402fc4:	c5 79 6f 1d c4 73 00 	vmovdqa xmm11,XMMWORD PTR [rip+0x73c4]        # 40a390 <fwrite@plt+0x9230>
  402fcb:	00 
  402fcc:	c5 79 6f 25 cc 73 00 	vmovdqa xmm12,XMMWORD PTR [rip+0x73cc]        # 40a3a0 <fwrite@plt+0x9240>
  402fd3:	00 
  402fd4:	c5 79 6f 2d d4 73 00 	vmovdqa xmm13,XMMWORD PTR [rip+0x73d4]        # 40a3b0 <fwrite@plt+0x9250>
  402fdb:	00 
  402fdc:	c5 79 6f 35 dc 73 00 	vmovdqa xmm14,XMMWORD PTR [rip+0x73dc]        # 40a3c0 <fwrite@plt+0x9260>
  402fe3:	00 
  402fe4:	c5 f9 6f 2d e4 73 00 	vmovdqa xmm5,XMMWORD PTR [rip+0x73e4]        # 40a3d0 <fwrite@plt+0x9270>
  402feb:	00 
  402fec:	0f 1f 40 00          	nop    DWORD PTR [rax+0x0]
  402ff0:	c5 f9 f4 f1          	vpmuludq xmm6,xmm0,xmm1
  402ff4:	c5 c9 d4 f2          	vpaddq xmm6,xmm6,xmm2
  402ff8:	c5 c1 73 d0 20       	vpsrlq xmm7,xmm0,0x20
  402ffd:	c5 c1 f4 f9          	vpmuludq xmm7,xmm7,xmm1
  403001:	c5 c1 73 f7 20       	vpsllq xmm7,xmm7,0x20
  403006:	c5 c1 d4 f6          	vpaddq xmm6,xmm7,xmm6
  40300a:	c4 c1 49 d4 f8       	vpaddq xmm7,xmm6,xmm8
  40300f:	c4 c1 49 d4 d9       	vpaddq xmm3,xmm6,xmm9
  403014:	c4 c1 49 d4 e2       	vpaddq xmm4,xmm6,xmm10
  403019:	c4 c1 7a 7f 34 c8    	vmovdqu XMMWORD PTR [r8+rcx*8],xmm6
  40301f:	c4 c1 7a 7f 7c c8 10 	vmovdqu XMMWORD PTR [r8+rcx*8+0x10],xmm7
  403026:	c4 c1 7a 7f 5c c8 20 	vmovdqu XMMWORD PTR [r8+rcx*8+0x20],xmm3
  40302d:	c4 c1 7a 7f 64 c8 30 	vmovdqu XMMWORD PTR [r8+rcx*8+0x30],xmm4
  403034:	c4 c1 49 d4 db       	vpaddq xmm3,xmm6,xmm11
  403039:	c4 c1 49 d4 e4       	vpaddq xmm4,xmm6,xmm12
  40303e:	c4 c1 49 d4 fd       	vpaddq xmm7,xmm6,xmm13
  403043:	c4 c1 49 d4 f6       	vpaddq xmm6,xmm6,xmm14
  403048:	c4 c1 7a 7f 5c c8 40 	vmovdqu XMMWORD PTR [r8+rcx*8+0x40],xmm3
  40304f:	c4 c1 7a 7f 64 c8 50 	vmovdqu XMMWORD PTR [r8+rcx*8+0x50],xmm4
  403056:	c4 c1 7a 7f 7c c8 60 	vmovdqu XMMWORD PTR [r8+rcx*8+0x60],xmm7
  40305d:	c4 c1 7a 7f 74 c8 70 	vmovdqu XMMWORD PTR [r8+rcx*8+0x70],xmm6
  403064:	48 83 c1 10          	add    rcx,0x10
  403068:	c5 f9 d4 c5          	vpaddq xmm0,xmm0,xmm5
  40306c:	48 83 c6 02          	add    rsi,0x2
  403070:	0f 85 7a ff ff ff    	jne    402ff0 <fwrite@plt+0x1e90>
  403076:	48 85 d2             	test   rdx,rdx
  403079:	74 5f                	je     4030da <fwrite@plt+0x1f7a>
  40307b:	c5 f9 6f 0d cd 72 00 	vmovdqa xmm1,XMMWORD PTR [rip+0x72cd]        # 40a350 <fwrite@plt+0x91f0>
  403082:	00 
  403083:	c5 f9 f4 d1          	vpmuludq xmm2,xmm0,xmm1
  403087:	c5 f9 73 d0 20       	vpsrlq xmm0,xmm0,0x20
  40308c:	c5 f9 f4 c1          	vpmuludq xmm0,xmm0,xmm1
  403090:	c5 f9 73 f0 20       	vpsllq xmm0,xmm0,0x20
  403095:	c4 c1 f9 6e cf       	vmovq  xmm1,r15
  40309a:	c5 f9 70 c9 44       	vpshufd xmm1,xmm1,0x44
  40309f:	c5 e9 d4 c9          	vpaddq xmm1,xmm2,xmm1
  4030a3:	c5 f9 d4 c1          	vpaddq xmm0,xmm0,xmm1
  4030a7:	c5 f9 d4 0d b1 72 00 	vpaddq xmm1,xmm0,XMMWORD PTR [rip+0x72b1]        # 40a360 <fwrite@plt+0x9200>
  4030ae:	00 
  4030af:	c5 f9 d4 15 b9 72 00 	vpaddq xmm2,xmm0,XMMWORD PTR [rip+0x72b9]        # 40a370 <fwrite@plt+0x9210>
  4030b6:	00 
  4030b7:	c5 f9 d4 1d c1 72 00 	vpaddq xmm3,xmm0,XMMWORD PTR [rip+0x72c1]        # 40a380 <fwrite@plt+0x9220>
  4030be:	00 
  4030bf:	c4 c1 7a 7f 04 c8    	vmovdqu XMMWORD PTR [r8+rcx*8],xmm0
  4030c5:	c4 c1 7a 7f 4c c8 10 	vmovdqu XMMWORD PTR [r8+rcx*8+0x10],xmm1
  4030cc:	c4 c1 7a 7f 54 c8 20 	vmovdqu XMMWORD PTR [r8+rcx*8+0x20],xmm2
  4030d3:	c4 c1 7a 7f 5c c8 30 	vmovdqu XMMWORD PTR [r8+rcx*8+0x30],xmm3
  4030da:	48 8b 6c 24 50       	mov    rbp,QWORD PTR [rsp+0x50]
  4030df:	48 39 c5             	cmp    rbp,rax
  4030e2:	74 1d                	je     403101 <fwrite@plt+0x1fa1>
  4030e4:	48 8d 0c c0          	lea    rcx,[rax+rax*8]
  4030e8:	49 8d 0c cf          	lea    rcx,[r15+rcx*8]
  4030ec:	0f 1f 40 00          	nop    DWORD PTR [rax+0x0]
  4030f0:	49 89 0c c0          	mov    QWORD PTR [r8+rax*8],rcx
  4030f4:	48 83 c0 01          	add    rax,0x1
  4030f8:	48 83 c1 48          	add    rcx,0x48
  4030fc:	48 39 c5             	cmp    rbp,rax
  4030ff:	75 ef                	jne    4030f0 <fwrite@plt+0x1f90>
  403101:	48 89 5c 24 58       	mov    QWORD PTR [rsp+0x58],rbx
  403106:	4c 8b ab 38 02 00 00 	mov    r13,QWORD PTR [rbx+0x238]
  40310d:	48 8b 8c 24 a0 00 00 	mov    rcx,QWORD PTR [rsp+0xa0]
  403114:	00 
  403115:	31 db                	xor    ebx,ebx
  403117:	48 85 c9             	test   rcx,rcx
  40311a:	7e 20                	jle    40313c <fwrite@plt+0x1fdc>
  40311c:	0f 1f 40 00          	nop    DWORD PTR [rax+0x0]
  403120:	41 0f b7 45 68       	movzx  eax,WORD PTR [r13+0x68]
  403125:	3d ff ff 00 00       	cmp    eax,0xffff
  40312a:	75 10                	jne    40313c <fwrite@plt+0x1fdc>
  40312c:	48 83 c3 01          	add    rbx,0x1
  403130:	49 81 c5 d8 00 00 00 	add    r13,0xd8
  403137:	48 39 cb             	cmp    rbx,rcx
  40313a:	7c e4                	jl     403120 <fwrite@plt+0x1fc0>
  40313c:	48 39 cb             	cmp    rbx,rcx
  40313f:	4c 89 44 24 08       	mov    QWORD PTR [rsp+0x8],r8
  403144:	4c 89 64 24 48       	mov    QWORD PTR [rsp+0x48],r12
  403149:	0f 8d f4 05 00 00    	jge    403743 <fwrite@plt+0x25e3>
  40314f:	4c 89 b4 24 80 00 00 	mov    QWORD PTR [rsp+0x80],r14
  403156:	00 
  403157:	48 83 84 24 90 00 00 	add    QWORD PTR [rsp+0x90],0xfffffffffffffff1
  40315e:	00 f1 
  403160:	66 b8 01 00          	mov    ax,0x1
  403164:	89 44 24 24          	mov    DWORD PTR [rsp+0x24],eax
  403168:	48 c7 84 24 98 00 00 	mov    QWORD PTR [rsp+0x98],0xffffffffffffffff
  40316f:	00 ff ff ff ff 
  403174:	31 f6                	xor    esi,esi
  403176:	31 c0                	xor    eax,eax
  403178:	48 89 44 24 38       	mov    QWORD PTR [rsp+0x38],rax
  40317d:	45 31 f6             	xor    r14d,r14d
  403180:	66 b8 01 00          	mov    ax,0x1
  403184:	89 44 24 34          	mov    DWORD PTR [rsp+0x34],eax
  403188:	31 c0                	xor    eax,eax
  40318a:	48 89 44 24 68       	mov    QWORD PTR [rsp+0x68],rax
  40318f:	31 ed                	xor    ebp,ebp
  403191:	31 c0                	xor    eax,eax
  403193:	48 89 84 24 88 00 00 	mov    QWORD PTR [rsp+0x88],rax
  40319a:	00 
  40319b:	31 c0                	xor    eax,eax
  40319d:	48 89 44 24 40       	mov    QWORD PTR [rsp+0x40],rax
  4031a2:	eb 7c                	jmp    403220 <fwrite@plt+0x20c0>
  4031a4:	48 8b 44 24 68       	mov    rax,QWORD PTR [rsp+0x68]
  4031a9:	4c 8b 64 24 48       	mov    r12,QWORD PTR [rsp+0x48]
  4031ae:	49 89 04 24          	mov    QWORD PTR [r12],rax
  4031b2:	41 b8 00 00 00 00    	mov    r8d,0x0
  4031b8:	4c 89 e6             	mov    rsi,r12
  4031bb:	48 8b 54 24 70       	mov    rdx,QWORD PTR [rsp+0x70]
  4031c0:	4c 89 f9             	mov    rcx,r15
  4031c3:	4c 8b 4c 24 50       	mov    r9,QWORD PTR [rsp+0x50]
  4031c8:	6a 01                	push   0x1
  4031ca:	ff b4 24 88 00 00 00 	push   QWORD PTR [rsp+0x88]
  4031d1:	c5 f8 77             	vzeroupper 
  4031d4:	e8 07 fa ff ff       	call   402be0 <fwrite@plt+0x1a80>
  4031d9:	48 8b 5c 24 28       	mov    rbx,QWORD PTR [rsp+0x28]
  4031de:	4c 8b 44 24 18       	mov    r8,QWORD PTR [rsp+0x18]
  4031e3:	48 83 c4 10          	add    rsp,0x10
  4031e7:	49 c7 04 24 00 00 00 	mov    QWORD PTR [r12],0x0
  4031ee:	00 
  4031ef:	31 f6                	xor    esi,esi
  4031f1:	31 c0                	xor    eax,eax
  4031f3:	48 89 44 24 38       	mov    QWORD PTR [rsp+0x38],rax
  4031f8:	31 c0                	xor    eax,eax
  4031fa:	48 89 44 24 68       	mov    QWORD PTR [rsp+0x68],rax
  4031ff:	41 0f b7 45 68       	movzx  eax,WORD PTR [r13+0x68]
  403204:	3d ff ff 00 00       	cmp    eax,0xffff
  403209:	48 89 74 24 28       	mov    QWORD PTR [rsp+0x28],rsi
  40320e:	0f 85 7e 00 00 00    	jne    403292 <fwrite@plt+0x2132>
  403214:	e9 ac 00 00 00       	jmp    4032c5 <fwrite@plt+0x2165>
  403219:	0f 1f 80 00 00 00 00 	nop    DWORD PTR [rax+0x0]
  403220:	66 83 7c 24 24 00    	cmp    WORD PTR [rsp+0x24],0x0
  403226:	75 1b                	jne    403243 <fwrite@plt+0x20e3>
  403228:	49 8b 00             	mov    rax,QWORD PTR [r8]
  40322b:	48 8b 48 38          	mov    rcx,QWORD PTR [rax+0x38]
  40322f:	48 85 c9             	test   rcx,rcx
  403232:	b8 00 00 00 00       	mov    eax,0x0
  403237:	48 0f 48 c8          	cmovs  rcx,rax
  40323b:	48 89 8c 24 88 00 00 	mov    QWORD PTR [rsp+0x88],rcx
  403242:	00 
  403243:	31 d2                	xor    edx,edx
  403245:	48 89 d8             	mov    rax,rbx
  403248:	48 f7 b4 24 b0 00 00 	div    QWORD PTR [rsp+0xb0]
  40324f:	00 
  403250:	48 85 d2             	test   rdx,rdx
  403253:	48 89 5c 24 18       	mov    QWORD PTR [rsp+0x18],rbx
  403258:	75 27                	jne    403281 <fwrite@plt+0x2121>
  40325a:	49 8b 00             	mov    rax,QWORD PTR [r8]
  40325d:	48 8b 48 38          	mov    rcx,QWORD PTR [rax+0x38]
  403261:	48 85 c9             	test   rcx,rcx
  403264:	b8 00 00 00 00       	mov    eax,0x0
  403269:	48 0f 48 c8          	cmovs  rcx,rax
  40326d:	48 89 8c 24 88 00 00 	mov    QWORD PTR [rsp+0x88],rcx
  403274:	00 
  403275:	66 83 7c 24 24 00    	cmp    WORD PTR [rsp+0x24],0x0
  40327b:	0f 84 23 ff ff ff    	je     4031a4 <fwrite@plt+0x2044>
  403281:	41 0f b7 45 68       	movzx  eax,WORD PTR [r13+0x68]
  403286:	3d ff ff 00 00       	cmp    eax,0xffff
  40328b:	48 89 74 24 28       	mov    QWORD PTR [rsp+0x28],rsi
  403290:	74 33                	je     4032c5 <fwrite@plt+0x2165>
  403292:	4d 8d 65 48          	lea    r12,[r13+0x48]
  403296:	bf 01 00 00 00       	mov    edi,0x1
  40329b:	be 10 00 00 00       	mov    esi,0x10
  4032a0:	c5 f8 77             	vzeroupper 
  4032a3:	e8 f8 dd ff ff       	call   4010a0 <calloc@plt>
  4032a8:	48 8b 5c 24 18       	mov    rbx,QWORD PTR [rsp+0x18]
  4032ad:	4c 8b 44 24 08       	mov    r8,QWORD PTR [rsp+0x8]
  4032b2:	48 89 68 08          	mov    QWORD PTR [rax+0x8],rbp
  4032b6:	4c 89 20             	mov    QWORD PTR [rax],r12
  4032b9:	48 83 84 24 98 00 00 	add    QWORD PTR [rsp+0x98],0x1
  4032c0:	00 01 
  4032c2:	48 89 c5             	mov    rbp,rax
  4032c5:	41 0f b7 45 20       	movzx  eax,WORD PTR [r13+0x20]
  4032ca:	3d ff ff 00 00       	cmp    eax,0xffff
  4032cf:	0f 84 2b 04 00 00    	je     403700 <fwrite@plt+0x25a0>
  4032d5:	48 8b 45 08          	mov    rax,QWORD PTR [rbp+0x8]
  4032d9:	48 85 c0             	test   rax,rax
  4032dc:	0f 84 26 04 00 00    	je     403708 <fwrite@plt+0x25a8>
  4032e2:	49 8b 4d 18          	mov    rcx,QWORD PTR [r13+0x18]
  4032e6:	48 89 4c 24 60       	mov    QWORD PTR [rsp+0x60],rcx
  4032eb:	48 63 49 64          	movsxd rcx,DWORD PTR [rcx+0x64]
  4032ef:	4c 8b 9c 24 90 00 00 	mov    r11,QWORD PTR [rsp+0x90]
  4032f6:	00 
  4032f7:	4d 2b 5d 40          	sub    r11,QWORD PTR [r13+0x40]
  4032fb:	49 01 cb             	add    r11,rcx
  4032fe:	4c 89 f6             	mov    rsi,r14
  403301:	66 2e 0f 1f 84 00 00 	cs nop WORD PTR [rax+rax*1+0x0]
  403308:	00 00 00 
  40330b:	0f 1f 44 00 00       	nop    DWORD PTR [rax+rax*1+0x0]
  403310:	48 8b 08             	mov    rcx,QWORD PTR [rax]
  403313:	48 8b 79 10          	mov    rdi,QWORD PTR [rcx+0x10]
  403317:	48 63 57 64          	movsxd rdx,DWORD PTR [rdi+0x64]
  40331b:	48 03 51 40          	add    rdx,QWORD PTR [rcx+0x40]
  40331f:	4c 39 da             	cmp    rdx,r11
  403322:	7e 1c                	jle    403340 <fwrite@plt+0x21e0>
  403324:	48 83 c6 01          	add    rsi,0x1
  403328:	48 8b 40 08          	mov    rax,QWORD PTR [rax+0x8]
  40332c:	48 85 c0             	test   rax,rax
  40332f:	75 df                	jne    403310 <fwrite@plt+0x21b0>
  403331:	e9 ba 03 00 00       	jmp    4036f0 <fwrite@plt+0x2590>
  403336:	66 2e 0f 1f 84 00 00 	cs nop WORD PTR [rax+rax*1+0x0]
  40333d:	00 00 00 
  403340:	48 89 6c 24 10       	mov    QWORD PTR [rsp+0x10],rbp
  403345:	41 ba 1e 00 00 00    	mov    r10d,0x1e
  40334b:	4c 2b 17             	sub    r10,QWORD PTR [rdi]
  40334e:	48 8b 4c 24 60       	mov    rcx,QWORD PTR [rsp+0x60]
  403353:	4c 03 11             	add    r10,QWORD PTR [rcx]
  403356:	78 21                	js     403379 <fwrite@plt+0x2219>
  403358:	4c 8b 44 24 08       	mov    r8,QWORD PTR [rsp+0x8]
  40335d:	48 8b 5c 24 18       	mov    rbx,QWORD PTR [rsp+0x18]
  403362:	48 8b 6c 24 10       	mov    rbp,QWORD PTR [rsp+0x10]
  403367:	4c 8d 76 01          	lea    r14,[rsi+0x1]
  40336b:	48 8b 40 08          	mov    rax,QWORD PTR [rax+0x8]
  40336f:	48 85 c0             	test   rax,rax
  403372:	75 8a                	jne    4032fe <fwrite@plt+0x219e>
  403374:	e9 67 03 00 00       	jmp    4036e0 <fwrite@plt+0x2580>
  403379:	48 8b 6c 24 40       	mov    rbp,QWORD PTR [rsp+0x40]
  40337e:	48 3b 6c 24 50       	cmp    rbp,QWORD PTR [rsp+0x50]
  403383:	0f 8d fa 00 00 00    	jge    403483 <fwrite@plt+0x2323>
  403389:	48 8d 0c ed 00 00 00 	lea    rcx,[rbp*8+0x0]
  403390:	00 
  403391:	48 01 e9             	add    rcx,rbp
  403394:	49 89 7c cf 10       	mov    QWORD PTR [r15+rcx*8+0x10],rdi
  403399:	48 8b 54 24 60       	mov    rdx,QWORD PTR [rsp+0x60]
  40339e:	49 89 54 cf 18       	mov    QWORD PTR [r15+rcx*8+0x18],rdx
  4033a3:	49 c7 44 cf 40 1e 00 	mov    QWORD PTR [r15+rcx*8+0x40],0x1e
  4033aa:	00 00 
  4033ac:	49 c7 44 cf 08 1e 00 	mov    QWORD PTR [r15+rcx*8+0x8],0x1e
  4033b3:	00 00 
  4033b5:	4d 89 54 cf 38       	mov    QWORD PTR [r15+rcx*8+0x38],r10
  4033ba:	41 89 34 cf          	mov    DWORD PTR [r15+rcx*8],esi
  4033be:	48 85 ed             	test   rbp,rbp
  4033c1:	4c 8b 74 24 48       	mov    r14,QWORD PTR [rsp+0x48]
  4033c6:	0f 84 c6 02 00 00    	je     403692 <fwrite@plt+0x2532>
  4033cc:	48 8d 4d 01          	lea    rcx,[rbp+0x1]
  4033d0:	48 89 4c 24 38       	mov    QWORD PTR [rsp+0x38],rcx
  4033d5:	66 2e 0f 1f 84 00 00 	cs nop WORD PTR [rax+rax*1+0x0]
  4033dc:	00 00 00 
  4033df:	90                   	nop
  4033e0:	48 89 ca             	mov    rdx,rcx
  4033e3:	48 c1 ea 3f          	shr    rdx,0x3f
  4033e7:	48 01 d1             	add    rcx,rdx
  4033ea:	48 d1 f9             	sar    rcx,1
  4033ed:	4c 8d 71 ff          	lea    r14,[rcx-0x1]
  4033f1:	4b 8d 1c f6          	lea    rbx,[r14+r14*8]
  4033f5:	49 8b 54 df 38       	mov    rdx,QWORD PTR [r15+rbx*8+0x38]
  4033fa:	4c 39 d2             	cmp    rdx,r10
  4033fd:	7d 70                	jge    40346f <fwrite@plt+0x230f>
  4033ff:	4d 8d 0c df          	lea    r9,[r15+rbx*8]
  403403:	49 83 c1 38          	add    r9,0x38
  403407:	4d 8b 44 df 18       	mov    r8,QWORD PTR [r15+rbx*8+0x18]
  40340c:	4c 8d 64 ed 00       	lea    r12,[rbp+rbp*8+0x0]
  403411:	4f 89 44 e7 18       	mov    QWORD PTR [r15+r12*8+0x18],r8
  403416:	c4 c1 7a 6f 44 df 08 	vmovdqu xmm0,XMMWORD PTR [r15+rbx*8+0x8]
  40341d:	c4 81 7a 7f 44 e7 08 	vmovdqu XMMWORD PTR [r15+r12*8+0x8],xmm0
  403424:	49 8b 6c df 08       	mov    rbp,QWORD PTR [r15+rbx*8+0x8]
  403429:	4b 89 6c e7 40       	mov    QWORD PTR [r15+r12*8+0x40],rbp
  40342e:	4b 89 54 e7 38       	mov    QWORD PTR [r15+r12*8+0x38],rdx
  403433:	41 8b 14 df          	mov    edx,DWORD PTR [r15+rbx*8]
  403437:	43 89 14 e7          	mov    DWORD PTR [r15+r12*8],edx
  40343b:	49 89 7c df 10       	mov    QWORD PTR [r15+rbx*8+0x10],rdi
  403440:	48 8b 54 24 60       	mov    rdx,QWORD PTR [rsp+0x60]
  403445:	49 89 54 df 18       	mov    QWORD PTR [r15+rbx*8+0x18],rdx
  40344a:	49 c7 44 df 08 1e 00 	mov    QWORD PTR [r15+rbx*8+0x8],0x1e
  403451:	00 00 
  403453:	49 c7 44 df 40 1e 00 	mov    QWORD PTR [r15+rbx*8+0x40],0x1e
  40345a:	00 00 
  40345c:	4d 89 11             	mov    QWORD PTR [r9],r10
  40345f:	41 89 34 df          	mov    DWORD PTR [r15+rbx*8],esi
  403463:	4c 89 f5             	mov    rbp,r14
  403466:	4d 85 f6             	test   r14,r14
  403469:	0f 85 71 ff ff ff    	jne    4033e0 <fwrite@plt+0x2280>
  40346f:	48 8b 4c 24 38       	mov    rcx,QWORD PTR [rsp+0x38]
  403474:	48 89 4c 24 40       	mov    QWORD PTR [rsp+0x40],rcx
  403479:	4c 8b 74 24 48       	mov    r14,QWORD PTR [rsp+0x48]
  40347e:	e9 19 02 00 00       	jmp    40369c <fwrite@plt+0x253c>
  403483:	4d 39 57 38          	cmp    QWORD PTR [r15+0x38],r10
  403487:	4c 8b 74 24 48       	mov    r14,QWORD PTR [rsp+0x48]
  40348c:	0f 8e 72 01 00 00    	jle    403604 <fwrite@plt+0x24a4>
  403492:	31 c9                	xor    ecx,ecx
  403494:	66 83 7c 24 34 00    	cmp    WORD PTR [rsp+0x34],0x0
  40349a:	8b 54 24 24          	mov    edx,DWORD PTR [rsp+0x24]
  40349e:	0f 45 d1             	cmovne edx,ecx
  4034a1:	89 54 24 24          	mov    DWORD PTR [rsp+0x24],edx
  4034a5:	48 8b 5c 24 38       	mov    rbx,QWORD PTR [rsp+0x38]
  4034aa:	48 8d 0c db          	lea    rcx,[rbx+rbx*8]
  4034ae:	49 8b 57 40          	mov    rdx,QWORD PTR [r15+0x40]
  4034b2:	48 8b 6c 24 78       	mov    rbp,QWORD PTR [rsp+0x78]
  4034b7:	48 89 54 cd 40       	mov    QWORD PTR [rbp+rcx*8+0x40],rdx
  4034bc:	c4 c1 7e 6f 07       	vmovdqu ymm0,YMMWORD PTR [r15]
  4034c1:	c4 c1 7e 6f 4f 20    	vmovdqu ymm1,YMMWORD PTR [r15+0x20]
  4034c7:	c5 fe 7f 4c cd 20    	vmovdqu YMMWORD PTR [rbp+rcx*8+0x20],ymm1
  4034cd:	c5 fe 7f 44 cd 00    	vmovdqu YMMWORD PTR [rbp+rcx*8+0x0],ymm0
  4034d3:	48 83 c3 01          	add    rbx,0x1
  4034d7:	49 89 1e             	mov    QWORD PTR [r14],rbx
  4034da:	48 83 44 24 68 01    	add    QWORD PTR [rsp+0x68],0x1
  4034e0:	49 89 7f 10          	mov    QWORD PTR [r15+0x10],rdi
  4034e4:	48 8b 4c 24 60       	mov    rcx,QWORD PTR [rsp+0x60]
  4034e9:	49 89 4f 18          	mov    QWORD PTR [r15+0x18],rcx
  4034ed:	49 c7 47 40 1e 00 00 	mov    QWORD PTR [r15+0x40],0x1e
  4034f4:	00 
  4034f5:	49 c7 47 08 1e 00 00 	mov    QWORD PTR [r15+0x8],0x1e
  4034fc:	00 
  4034fd:	4d 89 57 38          	mov    QWORD PTR [r15+0x38],r10
  403501:	41 89 37             	mov    DWORD PTR [r15],esi
  403504:	49 8b 8f 80 00 00 00 	mov    rcx,QWORD PTR [r15+0x80]
  40350b:	31 ed                	xor    ebp,ebp
  40350d:	49 3b 8f c8 00 00 00 	cmp    rcx,QWORD PTR [r15+0xc8]
  403514:	40 0f 9f c5          	setg   bpl
  403518:	48 83 f5 03          	xor    rbp,0x3
  40351c:	48 3b 6c 24 50       	cmp    rbp,QWORD PTR [rsp+0x50]
  403521:	0f 8f d0 00 00 00    	jg     4035f7 <fwrite@plt+0x2497>
  403527:	b9 01 00 00 00       	mov    ecx,0x1
  40352c:	0f 1f 40 00          	nop    DWORD PTR [rax+0x0]
  403530:	49 89 e9             	mov    r9,rbp
  403533:	48 8d 55 ff          	lea    rdx,[rbp-0x1]
  403537:	48 8d 2c d2          	lea    rbp,[rdx+rdx*8]
  40353b:	49 8b 54 ef 38       	mov    rdx,QWORD PTR [r15+rbp*8+0x38]
  403540:	4c 39 d2             	cmp    rdx,r10
  403543:	0f 8e ae 00 00 00    	jle    4035f7 <fwrite@plt+0x2497>
  403549:	49 89 dc             	mov    r12,rbx
  40354c:	4d 8d 04 ef          	lea    r8,[r15+rbp*8]
  403550:	49 83 c0 38          	add    r8,0x38
  403554:	48 8d 0c c9          	lea    rcx,[rcx+rcx*8]
  403558:	49 8b 5c ef 18       	mov    rbx,QWORD PTR [r15+rbp*8+0x18]
  40355d:	49 89 5c cf d0       	mov    QWORD PTR [r15+rcx*8-0x30],rbx
  403562:	c4 c1 7a 6f 44 ef 08 	vmovdqu xmm0,XMMWORD PTR [r15+rbp*8+0x8]
  403569:	c4 c1 7a 7f 44 cf c0 	vmovdqu XMMWORD PTR [r15+rcx*8-0x40],xmm0
  403570:	49 8b 5c ef 08       	mov    rbx,QWORD PTR [r15+rbp*8+0x8]
  403575:	49 89 5c cf f8       	mov    QWORD PTR [r15+rcx*8-0x8],rbx
  40357a:	49 89 54 cf f0       	mov    QWORD PTR [r15+rcx*8-0x10],rdx
  40357f:	41 8b 14 ef          	mov    edx,DWORD PTR [r15+rbp*8]
  403583:	41 89 54 cf b8       	mov    DWORD PTR [r15+rcx*8-0x48],edx
  403588:	49 89 7c ef 10       	mov    QWORD PTR [r15+rbp*8+0x10],rdi
  40358d:	48 8b 4c 24 60       	mov    rcx,QWORD PTR [rsp+0x60]
  403592:	49 89 4c ef 18       	mov    QWORD PTR [r15+rbp*8+0x18],rcx
  403597:	49 c7 44 ef 08 1e 00 	mov    QWORD PTR [r15+rbp*8+0x8],0x1e
  40359e:	00 00 
  4035a0:	49 c7 44 ef 40 1e 00 	mov    QWORD PTR [r15+rbp*8+0x40],0x1e
  4035a7:	00 00 
  4035a9:	4d 89 10             	mov    QWORD PTR [r8],r10
  4035ac:	41 89 34 ef          	mov    DWORD PTR [r15+rbp*8],esi
  4035b0:	4b 8d 2c 09          	lea    rbp,[r9+r9*1]
  4035b4:	4b 8d 0c 09          	lea    rcx,[r9+r9*1]
  4035b8:	48 83 c1 01          	add    rcx,0x1
  4035bc:	48 8b 54 24 50       	mov    rdx,QWORD PTR [rsp+0x50]
  4035c1:	48 39 d1             	cmp    rcx,rdx
  4035c4:	7f 22                	jg     4035e8 <fwrite@plt+0x2488>
  4035c6:	48 8d 14 ed 00 00 00 	lea    rdx,[rbp*8+0x0]
  4035cd:	00 
  4035ce:	48 01 ea             	add    rdx,rbp
  4035d1:	49 8b 5c d7 f0       	mov    rbx,QWORD PTR [r15+rdx*8-0x10]
  4035d6:	49 3b 5c d7 38       	cmp    rbx,QWORD PTR [r15+rdx*8+0x38]
  4035db:	7c 03                	jl     4035e0 <fwrite@plt+0x2480>
  4035dd:	48 89 e9             	mov    rcx,rbp
  4035e0:	48 89 cd             	mov    rbp,rcx
  4035e3:	48 8b 54 24 50       	mov    rdx,QWORD PTR [rsp+0x50]
  4035e8:	4c 89 e3             	mov    rbx,r12
  4035eb:	4c 89 c9             	mov    rcx,r9
  4035ee:	48 39 d5             	cmp    rbp,rdx
  4035f1:	0f 8e 39 ff ff ff    	jle    403530 <fwrite@plt+0x23d0>
  4035f7:	c7 44 24 34 00 00 00 	mov    DWORD PTR [rsp+0x34],0x0
  4035fe:	00 
  4035ff:	48 89 df             	mov    rdi,rbx
  403602:	eb 55                	jmp    403659 <fwrite@plt+0x24f9>
  403604:	4c 3b 94 24 88 00 00 	cmp    r10,QWORD PTR [rsp+0x88]
  40360b:	00 
  40360c:	0f 8d 8a 00 00 00    	jge    40369c <fwrite@plt+0x253c>
  403612:	48 8b 4c 24 38       	mov    rcx,QWORD PTR [rsp+0x38]
  403617:	48 8d 69 01          	lea    rbp,[rcx+0x1]
  40361b:	49 89 2e             	mov    QWORD PTR [r14],rbp
  40361e:	48 8d 0c c9          	lea    rcx,[rcx+rcx*8]
  403622:	48 8b 54 24 78       	mov    rdx,QWORD PTR [rsp+0x78]
  403627:	48 89 7c ca 10       	mov    QWORD PTR [rdx+rcx*8+0x10],rdi
  40362c:	48 89 ef             	mov    rdi,rbp
  40362f:	48 8b 6c 24 60       	mov    rbp,QWORD PTR [rsp+0x60]
  403634:	48 89 6c ca 18       	mov    QWORD PTR [rdx+rcx*8+0x18],rbp
  403639:	48 c7 44 ca 40 1e 00 	mov    QWORD PTR [rdx+rcx*8+0x40],0x1e
  403640:	00 00 
  403642:	48 c7 44 ca 08 1e 00 	mov    QWORD PTR [rdx+rcx*8+0x8],0x1e
  403649:	00 00 
  40364b:	4c 89 54 ca 38       	mov    QWORD PTR [rdx+rcx*8+0x38],r10
  403650:	89 34 ca             	mov    DWORD PTR [rdx+rcx*8],esi
  403653:	48 83 44 24 68 01    	add    QWORD PTR [rsp+0x68],0x1
  403659:	4c 8b 44 24 08       	mov    r8,QWORD PTR [rsp+0x8]
  40365e:	48 8b 5c 24 18       	mov    rbx,QWORD PTR [rsp+0x18]
  403663:	48 8b 6c 24 10       	mov    rbp,QWORD PTR [rsp+0x10]
  403668:	48 3b bc 24 80 00 00 	cmp    rdi,QWORD PTR [rsp+0x80]
  40366f:	00 
  403670:	74 48                	je     4036ba <fwrite@plt+0x255a>
  403672:	48 89 f9             	mov    rcx,rdi
  403675:	48 89 7c 24 28       	mov    QWORD PTR [rsp+0x28],rdi
  40367a:	48 89 7c 24 38       	mov    QWORD PTR [rsp+0x38],rdi
  40367f:	4c 8d 76 01          	lea    r14,[rsi+0x1]
  403683:	48 8b 40 08          	mov    rax,QWORD PTR [rax+0x8]
  403687:	48 85 c0             	test   rax,rax
  40368a:	0f 85 6e fc ff ff    	jne    4032fe <fwrite@plt+0x219e>
  403690:	eb 4e                	jmp    4036e0 <fwrite@plt+0x2580>
  403692:	b9 01 00 00 00       	mov    ecx,0x1
  403697:	48 89 4c 24 40       	mov    QWORD PTR [rsp+0x40],rcx
  40369c:	4c 8b 44 24 08       	mov    r8,QWORD PTR [rsp+0x8]
  4036a1:	48 8b 5c 24 18       	mov    rbx,QWORD PTR [rsp+0x18]
  4036a6:	48 8b 6c 24 10       	mov    rbp,QWORD PTR [rsp+0x10]
  4036ab:	48 8b 7c 24 28       	mov    rdi,QWORD PTR [rsp+0x28]
  4036b0:	48 3b bc 24 80 00 00 	cmp    rdi,QWORD PTR [rsp+0x80]
  4036b7:	00 
  4036b8:	75 b8                	jne    403672 <fwrite@plt+0x2512>
  4036ba:	49 c7 06 00 00 00 00 	mov    QWORD PTR [r14],0x0
  4036c1:	31 c9                	xor    ecx,ecx
  4036c3:	48 89 4c 24 28       	mov    QWORD PTR [rsp+0x28],rcx
  4036c8:	31 c9                	xor    ecx,ecx
  4036ca:	48 89 4c 24 38       	mov    QWORD PTR [rsp+0x38],rcx
  4036cf:	4c 8d 76 01          	lea    r14,[rsi+0x1]
  4036d3:	48 8b 40 08          	mov    rax,QWORD PTR [rax+0x8]
  4036d7:	48 85 c0             	test   rax,rax
  4036da:	0f 85 1e fc ff ff    	jne    4032fe <fwrite@plt+0x219e>
  4036e0:	48 83 c6 01          	add    rsi,0x1
  4036e4:	66 2e 0f 1f 84 00 00 	cs nop WORD PTR [rax+rax*1+0x0]
  4036eb:	00 00 00 
  4036ee:	66 90                	xchg   ax,ax
  4036f0:	49 89 f6             	mov    r14,rsi
  4036f3:	eb 13                	jmp    403708 <fwrite@plt+0x25a8>
  4036f5:	66 2e 0f 1f 84 00 00 	cs nop WORD PTR [rax+rax*1+0x0]
  4036fc:	00 00 00 
  4036ff:	90                   	nop
  403700:	4c 03 b4 24 98 00 00 	add    r14,QWORD PTR [rsp+0x98]
  403707:	00 
  403708:	48 8b 74 24 28       	mov    rsi,QWORD PTR [rsp+0x28]
  40370d:	48 83 c3 01          	add    rbx,0x1
  403711:	49 81 c5 d8 00 00 00 	add    r13,0xd8
  403718:	48 3b 9c 24 a0 00 00 	cmp    rbx,QWORD PTR [rsp+0xa0]
  40371f:	00 
  403720:	0f 85 fa fa ff ff    	jne    403220 <fwrite@plt+0x20c0>
  403726:	48 8b 44 24 68       	mov    rax,QWORD PTR [rsp+0x68]
  40372b:	4c 8b 64 24 48       	mov    r12,QWORD PTR [rsp+0x48]
  403730:	49 89 04 24          	mov    QWORD PTR [r12],rax
  403734:	66 83 7c 24 24 00    	cmp    WORD PTR [rsp+0x24],0x0
  40373a:	74 1f                	je     40375b <fwrite@plt+0x25fb>
  40373c:	4c 8b 6c 24 58       	mov    r13,QWORD PTR [rsp+0x58]
  403741:	eb 6d                	jmp    4037b0 <fwrite@plt+0x2650>
  403743:	49 c7 04 24 00 00 00 	mov    QWORD PTR [r12],0x0
  40374a:	00 
  40374b:	31 ed                	xor    ebp,ebp
  40374d:	31 c0                	xor    eax,eax
  40374f:	48 89 44 24 40       	mov    QWORD PTR [rsp+0x40],rax
  403754:	4c 8b 6c 24 58       	mov    r13,QWORD PTR [rsp+0x58]
  403759:	eb 55                	jmp    4037b0 <fwrite@plt+0x2650>
  40375b:	48 89 6c 24 10       	mov    QWORD PTR [rsp+0x10],rbp
  403760:	4c 8b 6c 24 58       	mov    r13,QWORD PTR [rsp+0x58]
  403765:	48 8b 5c 24 70       	mov    rbx,QWORD PTR [rsp+0x70]
  40376a:	48 8b ac 24 80 00 00 	mov    rbp,QWORD PTR [rsp+0x80]
  403771:	00 
  403772:	4c 8b 74 24 50       	mov    r14,QWORD PTR [rsp+0x50]
  403777:	66 0f 1f 84 00 00 00 	nop    WORD PTR [rax+rax*1+0x0]
  40377e:	00 00 
  403780:	41 b8 00 00 00 00    	mov    r8d,0x0
  403786:	4c 89 e6             	mov    rsi,r12
  403789:	48 89 da             	mov    rdx,rbx
  40378c:	4c 89 f9             	mov    rcx,r15
  40378f:	4d 89 f1             	mov    r9,r14
  403792:	6a 01                	push   0x1
  403794:	55                   	push   rbp
  403795:	c5 f8 77             	vzeroupper 
  403798:	e8 43 f4 ff ff       	call   402be0 <fwrite@plt+0x1a80>
  40379d:	48 83 c4 10          	add    rsp,0x10
  4037a1:	48 85 c0             	test   rax,rax
  4037a4:	75 da                	jne    403780 <fwrite@plt+0x2620>
  4037a6:	48 8b 6c 24 10       	mov    rbp,QWORD PTR [rsp+0x10]
  4037ab:	0f 1f 44 00 00       	nop    DWORD PTR [rax+rax*1+0x0]
  4037b0:	48 8b 5d 08          	mov    rbx,QWORD PTR [rbp+0x8]
  4037b4:	48 89 ef             	mov    rdi,rbp
  4037b7:	c5 f8 77             	vzeroupper 
  4037ba:	e8 71 d8 ff ff       	call   401030 <free@plt>
  4037bf:	48 89 dd             	mov    rbp,rbx
  4037c2:	48 85 db             	test   rbx,rbx
  4037c5:	75 e9                	jne    4037b0 <fwrite@plt+0x2650>
  4037c7:	ba 08 00 00 00       	mov    edx,0x8
  4037cc:	b9 70 28 40 00       	mov    ecx,0x402870
  4037d1:	48 8b 7c 24 08       	mov    rdi,QWORD PTR [rsp+0x8]
  4037d6:	48 8b 5c 24 40       	mov    rbx,QWORD PTR [rsp+0x40]
  4037db:	48 89 de             	mov    rsi,rbx
  4037de:	e8 9d 20 00 00       	call   405880 <fwrite@plt+0x4720>
  4037e3:	49 8b 8d a8 01 00 00 	mov    rcx,QWORD PTR [r13+0x1a8]
  4037ea:	49 81 bd 98 01 00 00 	cmp    QWORD PTR [r13+0x198],0x3a99
  4037f1:	99 3a 00 00 
  4037f5:	48 c7 c2 c0 bd f0 ff 	mov    rdx,0xfffffffffff0bdc0
  4037fc:	48 c7 c0 00 f7 c2 ff 	mov    rax,0xffffffffffc2f700
  403803:	48 0f 4c c2          	cmovl  rax,rdx
  403807:	45 31 f6             	xor    r14d,r14d
  40380a:	48 85 db             	test   rbx,rbx
  40380d:	7e 43                	jle    403852 <fwrite@plt+0x26f2>
  40380f:	49 03 85 c0 01 00 00 	add    rax,QWORD PTR [r13+0x1c0]
  403816:	48 85 c0             	test   rax,rax
  403819:	48 8b 7c 24 08       	mov    rdi,QWORD PTR [rsp+0x8]
  40381e:	7e 37                	jle    403857 <fwrite@plt+0x26f7>
  403820:	45 31 f6             	xor    r14d,r14d
  403823:	66 2e 0f 1f 84 00 00 	cs nop WORD PTR [rax+rax*1+0x0]
  40382a:	00 00 00 
  40382d:	0f 1f 00             	nop    DWORD PTR [rax]
  403830:	4a 8b 14 f7          	mov    rdx,QWORD PTR [rdi+r14*8]
  403834:	42 8d 34 31          	lea    esi,[rcx+r14*1]
  403838:	89 32                	mov    DWORD PTR [rdx],esi
  40383a:	48 c7 42 38 01 00 00 	mov    QWORD PTR [rdx+0x38],0x1
  403841:	00 
  403842:	49 83 c6 01          	add    r14,0x1
  403846:	49 39 c6             	cmp    r14,rax
  403849:	7d 0c                	jge    403857 <fwrite@plt+0x26f7>
  40384b:	49 39 de             	cmp    r14,rbx
  40384e:	7c e0                	jl     403830 <fwrite@plt+0x26d0>
  403850:	eb 05                	jmp    403857 <fwrite@plt+0x26f7>
  403852:	48 8b 7c 24 08       	mov    rdi,QWORD PTR [rsp+0x8]
  403857:	49 c7 85 80 02 00 00 	mov    QWORD PTR [r13+0x280],0xfa0
  40385e:	a0 0f 00 00 
  403862:	4a 8d 04 31          	lea    rax,[rcx+r14*1]
  403866:	48 83 c0 ff          	add    rax,0xffffffffffffffff
  40386a:	4c 01 f1             	add    rcx,r14
  40386d:	48 bb cf f7 53 e3 a5 	movabs rbx,0x20c49ba5e353f7cf
  403874:	9b c4 20 
  403877:	48 f7 eb             	imul   rbx
  40387a:	48 89 d0             	mov    rax,rdx
  40387d:	48 c1 e8 3f          	shr    rax,0x3f
  403881:	48 c1 fa 09          	sar    rdx,0x9
  403885:	48 8d 2c 02          	lea    rbp,[rdx+rax*1]
  403889:	48 8d 34 02          	lea    rsi,[rdx+rax*1]
  40388d:	48 83 c6 01          	add    rsi,0x1
  403891:	49 89 b5 70 02 00 00 	mov    QWORD PTR [r13+0x270],rsi
  403898:	48 89 c8             	mov    rax,rcx
  40389b:	48 f7 eb             	imul   rbx
  40389e:	48 89 d0             	mov    rax,rdx
  4038a1:	48 c1 e8 3f          	shr    rax,0x3f
  4038a5:	48 c1 fa 09          	sar    rdx,0x9
  4038a9:	48 01 c2             	add    rdx,rax
  4038ac:	48 69 c2 a0 0f 00 00 	imul   rax,rdx,0xfa0
  4038b3:	48 29 c1             	sub    rcx,rax
  4038b6:	48 8d 8c 29 61 f0 ff 	lea    rcx,[rcx+rbp*1-0xf9f]
  4038bd:	ff 
  4038be:	48 8b 6c 24 40       	mov    rbp,QWORD PTR [rsp+0x40]
  4038c3:	48 0f 44 ce          	cmove  rcx,rsi
  4038c7:	49 89 8d 78 02 00 00 	mov    QWORD PTR [r13+0x278],rcx
  4038ce:	48 85 c9             	test   rcx,rcx
  4038d1:	0f 89 30 01 00 00    	jns    403a07 <fwrite@plt+0x28a7>
  4038d7:	48 89 c8             	mov    rax,rcx
  4038da:	48 f7 d0             	not    rax
  4038dd:	31 d2                	xor    edx,edx
  4038df:	48 f7 f6             	div    rsi
  4038e2:	48 83 c0 01          	add    rax,0x1
  4038e6:	48 83 f8 07          	cmp    rax,0x7
  4038ea:	77 0a                	ja     4038f6 <fwrite@plt+0x2796>
  4038ec:	ba a0 0f 00 00       	mov    edx,0xfa0
  4038f1:	e9 fa 00 00 00       	jmp    4039f0 <fwrite@plt+0x2890>
  4038f6:	49 89 c0             	mov    r8,rax
  4038f9:	49 83 e0 f8          	and    r8,0xfffffffffffffff8
  4038fd:	49 8d 50 f8          	lea    rdx,[r8-0x8]
  403901:	48 89 d5             	mov    rbp,rdx
  403904:	48 c1 ed 03          	shr    rbp,0x3
  403908:	48 83 c5 01          	add    rbp,0x1
  40390c:	89 eb                	mov    ebx,ebp
  40390e:	83 e3 03             	and    ebx,0x3
  403911:	48 83 fa 18          	cmp    rdx,0x18
  403915:	73 46                	jae    40395d <fwrite@plt+0x27fd>
  403917:	ba a0 0f 00 00       	mov    edx,0xfa0
  40391c:	c4 e1 f9 6e c2       	vmovq  xmm0,rdx
  403921:	c5 f1 ef c9          	vpxor  xmm1,xmm1,xmm1
  403925:	c5 e9 ef d2          	vpxor  xmm2,xmm2,xmm2
  403929:	c5 e1 ef db          	vpxor  xmm3,xmm3,xmm3
  40392d:	4c 89 c2             	mov    rdx,r8
  403930:	48 0f af d6          	imul   rdx,rsi
  403934:	48 85 db             	test   rbx,rbx
  403937:	75 69                	jne    4039a2 <fwrite@plt+0x2842>
  403939:	e9 88 00 00 00       	jmp    4039c6 <fwrite@plt+0x2866>
  40393e:	b9 01 00 00 00       	mov    ecx,0x1
  403943:	c4 e1 f9 6e c1       	vmovq  xmm0,rcx
  403948:	c5 f9 73 f8 08       	vpslldq xmm0,xmm0,0x8
  40394d:	31 c9                	xor    ecx,ecx
  40394f:	48 85 d2             	test   rdx,rdx
  403952:	0f 85 23 f7 ff ff    	jne    40307b <fwrite@plt+0x1f1b>
  403958:	e9 7d f7 ff ff       	jmp    4030da <fwrite@plt+0x1f7a>
  40395d:	48 29 dd             	sub    rbp,rbx
  403960:	ba a0 0f 00 00       	mov    edx,0xfa0
  403965:	c4 e1 f9 6e c2       	vmovq  xmm0,rdx
  40396a:	c5 f1 ef c9          	vpxor  xmm1,xmm1,xmm1
  40396e:	c5 f9 6f 25 8a 69 00 	vmovdqa xmm4,XMMWORD PTR [rip+0x698a]        # 40a300 <fwrite@plt+0x91a0>
  403975:	00 
  403976:	c5 e9 ef d2          	vpxor  xmm2,xmm2,xmm2
  40397a:	c5 e1 ef db          	vpxor  xmm3,xmm3,xmm3
  40397e:	66 90                	xchg   ax,ax
  403980:	c5 f9 d4 c4          	vpaddq xmm0,xmm0,xmm4
  403984:	c5 f1 d4 cc          	vpaddq xmm1,xmm1,xmm4
  403988:	c5 e9 d4 d4          	vpaddq xmm2,xmm2,xmm4
  40398c:	c5 e1 d4 dc          	vpaddq xmm3,xmm3,xmm4
  403990:	48 83 c5 fc          	add    rbp,0xfffffffffffffffc
  403994:	75 ea                	jne    403980 <fwrite@plt+0x2820>
  403996:	4c 89 c2             	mov    rdx,r8
  403999:	48 0f af d6          	imul   rdx,rsi
  40399d:	48 85 db             	test   rbx,rbx
  4039a0:	74 24                	je     4039c6 <fwrite@plt+0x2866>
  4039a2:	c5 d9 76 e4          	vpcmpeqd xmm4,xmm4,xmm4
  4039a6:	66 2e 0f 1f 84 00 00 	cs nop WORD PTR [rax+rax*1+0x0]
  4039ad:	00 00 00 
  4039b0:	c5 f9 d4 c4          	vpaddq xmm0,xmm0,xmm4
  4039b4:	c5 f1 d4 cc          	vpaddq xmm1,xmm1,xmm4
  4039b8:	c5 e9 d4 d4          	vpaddq xmm2,xmm2,xmm4
  4039bc:	c5 e1 d4 dc          	vpaddq xmm3,xmm3,xmm4
  4039c0:	48 83 c3 ff          	add    rbx,0xffffffffffffffff
  4039c4:	75 ea                	jne    4039b0 <fwrite@plt+0x2850>
  4039c6:	c5 f1 d4 cb          	vpaddq xmm1,xmm1,xmm3
  4039ca:	c5 f9 d4 c2          	vpaddq xmm0,xmm0,xmm2
  4039ce:	c5 f9 d4 c1          	vpaddq xmm0,xmm0,xmm1
  4039d2:	48 01 d1             	add    rcx,rdx
  4039d5:	c5 f9 70 c8 4e       	vpshufd xmm1,xmm0,0x4e
  4039da:	c5 f9 d4 c1          	vpaddq xmm0,xmm0,xmm1
  4039de:	c4 e1 f9 7e c2       	vmovq  rdx,xmm0
  4039e3:	4c 39 c0             	cmp    rax,r8
  4039e6:	48 8b 6c 24 40       	mov    rbp,QWORD PTR [rsp+0x40]
  4039eb:	74 0c                	je     4039f9 <fwrite@plt+0x2899>
  4039ed:	0f 1f 00             	nop    DWORD PTR [rax]
  4039f0:	48 83 c2 ff          	add    rdx,0xffffffffffffffff
  4039f4:	48 01 f1             	add    rcx,rsi
  4039f7:	78 f7                	js     4039f0 <fwrite@plt+0x2890>
  4039f9:	49 89 8d 78 02 00 00 	mov    QWORD PTR [r13+0x278],rcx
  403a00:	49 89 95 80 02 00 00 	mov    QWORD PTR [r13+0x280],rdx
  403a07:	e8 24 d6 ff ff       	call   401030 <free@plt>
  403a0c:	48 85 ed             	test   rbp,rbp
  403a0f:	0f 84 0e 01 00 00    	je     403b23 <fwrite@plt+0x29c3>
  403a15:	49 8b 9d 40 02 00 00 	mov    rbx,QWORD PTR [r13+0x240]
  403a1c:	48 83 bc 24 a8 00 00 	cmp    QWORD PTR [rsp+0xa8],0x0
  403a23:	00 00 
  403a25:	74 77                	je     403a9e <fwrite@plt+0x293e>
  403a27:	48 83 c3 38          	add    rbx,0x38
  403a2b:	48 c1 e5 03          	shl    rbp,0x3
  403a2f:	4c 8d 3c ed 00 00 00 	lea    r15,[rbp*8+0x0]
  403a36:	00 
  403a37:	49 01 ef             	add    r15,rbp
  403a3a:	31 ed                	xor    ebp,ebp
  403a3c:	0f 1f 40 00          	nop    DWORD PTR [rax+0x0]
  403a40:	48 83 3c 2b 01       	cmp    QWORD PTR [rbx+rbp*1],0x1
  403a45:	75 49                	jne    403a90 <fwrite@plt+0x2930>
  403a47:	48 c7 04 2b 00 00 00 	mov    QWORD PTR [rbx+rbp*1],0x0
  403a4e:	00 
  403a4f:	66 c7 44 2b e8 01 00 	mov    WORD PTR [rbx+rbp*1-0x18],0x1
  403a56:	48 63 74 2b c8       	movsxd rsi,DWORD PTR [rbx+rbp*1-0x38]
  403a5b:	4c 89 ef             	mov    rdi,r13
  403a5e:	c5 f8 77             	vzeroupper 
  403a61:	e8 ea dc ff ff       	call   401750 <fwrite@plt+0x5f0>
  403a66:	48 8d 04 c0          	lea    rax,[rax+rax*8]
  403a6a:	c5 fe 6f 44 2b c8    	vmovdqu ymm0,YMMWORD PTR [rbx+rbp*1-0x38]
  403a70:	c5 fe 6f 4c 2b e8    	vmovdqu ymm1,YMMWORD PTR [rbx+rbp*1-0x18]
  403a76:	48 8b 54 24 78       	mov    rdx,QWORD PTR [rsp+0x78]
  403a7b:	c5 fe 7f 04 c2       	vmovdqu YMMWORD PTR [rdx+rax*8],ymm0
  403a80:	c5 fe 7f 4c c2 20    	vmovdqu YMMWORD PTR [rdx+rax*8+0x20],ymm1
  403a86:	48 8b 4c 2b 08       	mov    rcx,QWORD PTR [rbx+rbp*1+0x8]
  403a8b:	48 89 4c c2 40       	mov    QWORD PTR [rdx+rax*8+0x40],rcx
  403a90:	48 83 c5 48          	add    rbp,0x48
  403a94:	49 39 ef             	cmp    r15,rbp
  403a97:	75 a7                	jne    403a40 <fwrite@plt+0x28e0>
  403a99:	e9 85 00 00 00       	jmp    403b23 <fwrite@plt+0x29c3>
  403a9e:	48 c1 e5 03          	shl    rbp,0x3
  403aa2:	48 8d 6c ed 00       	lea    rbp,[rbp+rbp*8+0x0]
  403aa7:	66 0f 1f 84 00 00 00 	nop    WORD PTR [rax+rax*1+0x0]
  403aae:	00 00 
  403ab0:	48 83 7b 38 01       	cmp    QWORD PTR [rbx+0x38],0x1
  403ab5:	75 62                	jne    403b19 <fwrite@plt+0x29b9>
  403ab7:	48 c7 43 38 00 00 00 	mov    QWORD PTR [rbx+0x38],0x0
  403abe:	00 
  403abf:	66 c7 43 20 01 00    	mov    WORD PTR [rbx+0x20],0x1
  403ac5:	48 8b 43 10          	mov    rax,QWORD PTR [rbx+0x10]
  403ac9:	48 8b 48 38          	mov    rcx,QWORD PTR [rax+0x38]
  403acd:	48 89 4b 28          	mov    QWORD PTR [rbx+0x28],rcx
  403ad1:	48 89 58 38          	mov    QWORD PTR [rax+0x38],rbx
  403ad5:	48 8b 43 18          	mov    rax,QWORD PTR [rbx+0x18]
  403ad9:	48 8b 48 40          	mov    rcx,QWORD PTR [rax+0x40]
  403add:	48 89 4b 30          	mov    QWORD PTR [rbx+0x30],rcx
  403ae1:	48 89 58 40          	mov    QWORD PTR [rax+0x40],rbx
  403ae5:	48 63 33             	movsxd rsi,DWORD PTR [rbx]
  403ae8:	4c 89 ef             	mov    rdi,r13
  403aeb:	c5 f8 77             	vzeroupper 
  403aee:	e8 5d dc ff ff       	call   401750 <fwrite@plt+0x5f0>
  403af3:	48 8d 04 c0          	lea    rax,[rax+rax*8]
  403af7:	c5 fe 6f 03          	vmovdqu ymm0,YMMWORD PTR [rbx]
  403afb:	c5 fe 6f 4b 20       	vmovdqu ymm1,YMMWORD PTR [rbx+0x20]
  403b00:	48 8b 54 24 78       	mov    rdx,QWORD PTR [rsp+0x78]
  403b05:	c5 fe 7f 04 c2       	vmovdqu YMMWORD PTR [rdx+rax*8],ymm0
  403b0a:	c5 fe 7f 4c c2 20    	vmovdqu YMMWORD PTR [rdx+rax*8+0x20],ymm1
  403b10:	48 8b 4b 40          	mov    rcx,QWORD PTR [rbx+0x40]
  403b14:	48 89 4c c2 40       	mov    QWORD PTR [rdx+rax*8+0x40],rcx
  403b19:	48 83 c3 48          	add    rbx,0x48
  403b1d:	48 83 c5 b8          	add    rbp,0xffffffffffffffb8
  403b21:	75 8d                	jne    403ab0 <fwrite@plt+0x2950>
  403b23:	4d 01 b5 b8 01 00 00 	add    QWORD PTR [r13+0x1b8],r14
  403b2a:	4d 29 b5 c0 01 00 00 	sub    QWORD PTR [r13+0x1c0],r14
  403b31:	4d 8b a5 a8 01 00 00 	mov    r12,QWORD PTR [r13+0x1a8]
  403b38:	4d 8b bd 48 02 00 00 	mov    r15,QWORD PTR [r13+0x248]
  403b3f:	49 83 bd 90 01 00 00 	cmp    QWORD PTR [r13+0x190],0x0
  403b46:	00 
  403b47:	0f 88 b8 00 00 00    	js     403c05 <fwrite@plt+0x2aa5>
  403b4d:	48 c7 c3 ff ff ff ff 	mov    rbx,0xffffffffffffffff
  403b54:	bd 40 00 00 00       	mov    ebp,0x40
  403b59:	0f 1f 80 00 00 00 00 	nop    DWORD PTR [rax+0x0]
  403b60:	4d 8b ad 28 02 00 00 	mov    r13,QWORD PTR [r13+0x228]
  403b67:	49 8b 44 2d f0       	mov    rax,QWORD PTR [r13+rbp*1-0x10]
  403b6c:	48 85 c0             	test   rax,rax
  403b6f:	74 22                	je     403b93 <fwrite@plt+0x2a33>
  403b71:	48 63 30             	movsxd rsi,DWORD PTR [rax]
  403b74:	48 85 f6             	test   rsi,rsi
  403b77:	78 1a                	js     403b93 <fwrite@plt+0x2a33>
  403b79:	48 8b 7c 24 58       	mov    rdi,QWORD PTR [rsp+0x58]
  403b7e:	c5 f8 77             	vzeroupper 
  403b81:	e8 ca db ff ff       	call   401750 <fwrite@plt+0x5f0>
  403b86:	48 8d 04 c0          	lea    rax,[rax+rax*8]
  403b8a:	49 8d 04 c7          	lea    rax,[r15+rax*8]
  403b8e:	49 89 44 2d f0       	mov    QWORD PTR [r13+rbp*1-0x10],rax
  403b93:	49 8b 44 2d 00       	mov    rax,QWORD PTR [r13+rbp*1+0x0]
  403b98:	48 85 c0             	test   rax,rax
  403b9b:	74 22                	je     403bbf <fwrite@plt+0x2a5f>
  403b9d:	48 63 30             	movsxd rsi,DWORD PTR [rax]
  403ba0:	48 85 f6             	test   rsi,rsi
  403ba3:	78 1a                	js     403bbf <fwrite@plt+0x2a5f>
  403ba5:	48 8b 7c 24 58       	mov    rdi,QWORD PTR [rsp+0x58]
  403baa:	c5 f8 77             	vzeroupper 
  403bad:	e8 9e db ff ff       	call   401750 <fwrite@plt+0x5f0>
  403bb2:	48 8d 04 c0          	lea    rax,[rax+rax*8]
  403bb6:	49 8d 04 c7          	lea    rax,[r15+rax*8]
  403bba:	49 89 44 2d 00       	mov    QWORD PTR [r13+rbp*1+0x0],rax
  403bbf:	49 8b 44 2d f8       	mov    rax,QWORD PTR [r13+rbp*1-0x8]
  403bc4:	48 85 c0             	test   rax,rax
  403bc7:	74 22                	je     403beb <fwrite@plt+0x2a8b>
  403bc9:	48 63 30             	movsxd rsi,DWORD PTR [rax]
  403bcc:	48 85 f6             	test   rsi,rsi
  403bcf:	78 1a                	js     403beb <fwrite@plt+0x2a8b>
  403bd1:	48 8b 7c 24 58       	mov    rdi,QWORD PTR [rsp+0x58]
  403bd6:	c5 f8 77             	vzeroupper 
  403bd9:	e8 72 db ff ff       	call   401750 <fwrite@plt+0x5f0>
  403bde:	48 8d 04 c0          	lea    rax,[rax+rax*8]
  403be2:	49 8d 04 c7          	lea    rax,[r15+rax*8]
  403be6:	49 89 44 2d f8       	mov    QWORD PTR [r13+rbp*1-0x8],rax
  403beb:	48 83 c3 01          	add    rbx,0x1
  403bef:	48 83 c5 68          	add    rbp,0x68
  403bf3:	4c 8b 6c 24 58       	mov    r13,QWORD PTR [rsp+0x58]
  403bf8:	49 3b 9d 90 01 00 00 	cmp    rbx,QWORD PTR [r13+0x190]
  403bff:	0f 8c 5b ff ff ff    	jl     403b60 <fwrite@plt+0x2a00>
  403c05:	49 8b 9d 38 02 00 00 	mov    rbx,QWORD PTR [r13+0x238]
  403c0c:	4d 85 e4             	test   r12,r12
  403c0f:	7e 5a                	jle    403c6b <fwrite@plt+0x2b0b>
  403c11:	31 ed                	xor    ebp,ebp
  403c13:	66 2e 0f 1f 84 00 00 	cs nop WORD PTR [rax+rax*1+0x0]
  403c1a:	00 00 00 
  403c1d:	0f 1f 00             	nop    DWORD PTR [rax]
  403c20:	48 63 34 2b          	movsxd rsi,DWORD PTR [rbx+rbp*1]
  403c24:	48 85 f6             	test   rsi,rsi
  403c27:	78 38                	js     403c61 <fwrite@plt+0x2b01>
  403c29:	4c 89 ef             	mov    rdi,r13
  403c2c:	c5 f8 77             	vzeroupper 
  403c2f:	e8 1c db ff ff       	call   401750 <fwrite@plt+0x5f0>
  403c34:	48 8d 04 c0          	lea    rax,[rax+rax*8]
  403c38:	48 8b 4c 2b 40       	mov    rcx,QWORD PTR [rbx+rbp*1+0x40]
  403c3d:	49 89 4c c7 40       	mov    QWORD PTR [r15+rax*8+0x40],rcx
  403c42:	c5 fe 6f 04 2b       	vmovdqu ymm0,YMMWORD PTR [rbx+rbp*1]
  403c47:	c5 fe 6f 4c 2b 20    	vmovdqu ymm1,YMMWORD PTR [rbx+rbp*1+0x20]
  403c4d:	c4 c1 7e 7f 4c c7 20 	vmovdqu YMMWORD PTR [r15+rax*8+0x20],ymm1
  403c54:	c4 c1 7e 7f 04 c7    	vmovdqu YMMWORD PTR [r15+rax*8],ymm0
  403c5a:	49 8b 9d 38 02 00 00 	mov    rbx,QWORD PTR [r13+0x238]
  403c61:	48 83 c5 48          	add    rbp,0x48
  403c65:	49 83 c4 ff          	add    r12,0xffffffffffffffff
  403c69:	75 b5                	jne    403c20 <fwrite@plt+0x2ac0>
  403c6b:	4d 89 bd 38 02 00 00 	mov    QWORD PTR [r13+0x238],r15
  403c72:	49 89 9d 48 02 00 00 	mov    QWORD PTR [r13+0x248],rbx
  403c79:	49 8b 85 a8 01 00 00 	mov    rax,QWORD PTR [r13+0x1a8]
  403c80:	4c 01 f0             	add    rax,r14
  403c83:	49 89 85 a8 01 00 00 	mov    QWORD PTR [r13+0x1a8],rax
  403c8a:	48 8d 04 c0          	lea    rax,[rax+rax*8]
  403c8e:	49 8d 04 c7          	lea    rax,[r15+rax*8]
  403c92:	49 89 85 40 02 00 00 	mov    QWORD PTR [r13+0x240],rax
  403c99:	48 8b 7c 24 48       	mov    rdi,QWORD PTR [rsp+0x48]
  403c9e:	c5 f8 77             	vzeroupper 
  403ca1:	e8 8a d3 ff ff       	call   401030 <free@plt>
  403ca6:	48 8b 7c 24 70       	mov    rdi,QWORD PTR [rsp+0x70]
  403cab:	e8 80 d3 ff ff       	call   401030 <free@plt>
  403cb0:	4c 89 f0             	mov    rax,r14
  403cb3:	48 81 c4 b8 00 00 00 	add    rsp,0xb8
  403cba:	5b                   	pop    rbx
  403cbb:	41 5c                	pop    r12
  403cbd:	41 5d                	pop    r13
  403cbf:	41 5e                	pop    r14
  403cc1:	41 5f                	pop    r15
  403cc3:	5d                   	pop    rbp
  403cc4:	c3                   	ret    
  403cc5:	66 2e 0f 1f 84 00 00 	cs nop WORD PTR [rax+rax*1+0x0]
  403ccc:	00 00 00 
  403ccf:	90                   	nop
  403cd0:	55                   	push   rbp
  403cd1:	41 57                	push   r15
  403cd3:	41 56                	push   r14
  403cd5:	41 55                	push   r13
  403cd7:	41 54                	push   r12
  403cd9:	53                   	push   rbx
  403cda:	50                   	push   rax
  403cdb:	49 89 d1             	mov    r9,rdx
  403cde:	48 89 34 24          	mov    QWORD PTR [rsp],rsi
  403ce2:	49 89 fd             	mov    r13,rdi
  403ce5:	48 c7 87 80 02 00 00 	mov    QWORD PTR [rdi+0x280],0xfa0
  403cec:	a0 0f 00 00 
  403cf0:	48 8b af a8 01 00 00 	mov    rbp,QWORD PTR [rdi+0x1a8]
  403cf7:	48 8d 45 ff          	lea    rax,[rbp-0x1]
  403cfb:	48 bb cf f7 53 e3 a5 	movabs rbx,0x20c49ba5e353f7cf
  403d02:	9b c4 20 
  403d05:	48 f7 eb             	imul   rbx
  403d08:	48 89 d6             	mov    rsi,rdx
  403d0b:	48 89 d1             	mov    rcx,rdx
  403d0e:	48 c1 e9 3f          	shr    rcx,0x3f
  403d12:	48 c1 fe 09          	sar    rsi,0x9
  403d16:	48 8d 3c 0e          	lea    rdi,[rsi+rcx*1]
  403d1a:	48 83 c7 01          	add    rdi,0x1
  403d1e:	49 89 bd 70 02 00 00 	mov    QWORD PTR [r13+0x270],rdi
  403d25:	48 89 e8             	mov    rax,rbp
  403d28:	48 f7 eb             	imul   rbx
  403d2b:	48 89 d0             	mov    rax,rdx
  403d2e:	48 c1 e8 3f          	shr    rax,0x3f
  403d32:	48 c1 fa 09          	sar    rdx,0x9
  403d36:	48 01 c2             	add    rdx,rax
  403d39:	48 69 c2 a0 0f 00 00 	imul   rax,rdx,0xfa0
  403d40:	49 89 ea             	mov    r10,rbp
  403d43:	48 89 eb             	mov    rbx,rbp
  403d46:	48 29 c3             	sub    rbx,rax
  403d49:	48 8d 2c 3b          	lea    rbp,[rbx+rdi*1]
  403d4d:	48 81 c5 60 f0 ff ff 	add    rbp,0xfffffffffffff060
  403d54:	49 89 ad 78 02 00 00 	mov    QWORD PTR [r13+0x278],rbp
  403d5b:	0f 88 da 00 00 00    	js     403e3b <fwrite@plt+0x2cdb>
  403d61:	4d 8b bd b8 01 00 00 	mov    r15,QWORD PTR [r13+0x1b8]
  403d68:	4d 85 c9             	test   r9,r9
  403d6b:	0f 85 f6 01 00 00    	jne    403f67 <fwrite@plt+0x2e07>
  403d71:	4d 85 ff             	test   r15,r15
  403d74:	0f 8e bd 02 00 00    	jle    404037 <fwrite@plt+0x2ed7>
  403d7a:	4d 29 fa             	sub    r10,r15
  403d7d:	45 31 ff             	xor    r15d,r15d
  403d80:	41 bc ff ff ff ff    	mov    r12d,0xffffffff
  403d86:	4d 89 d6             	mov    r14,r10
  403d89:	4c 89 d3             	mov    rbx,r10
  403d8c:	0f 1f 40 00          	nop    DWORD PTR [rax+0x0]
  403d90:	49 8b ad 38 02 00 00 	mov    rbp,QWORD PTR [r13+0x238]
  403d97:	4c 89 ef             	mov    rdi,r13
  403d9a:	48 89 de             	mov    rsi,rbx
  403d9d:	e8 ae d9 ff ff       	call   401750 <fwrite@plt+0x5f0>
  403da2:	48 8d 14 c0          	lea    rdx,[rax+rax*8]
  403da6:	48 8d 04 d5 00 00 00 	lea    rax,[rdx*8+0x0]
  403dad:	00 
  403dae:	48 01 e8             	add    rax,rbp
  403db1:	0f b7 74 d5 20       	movzx  esi,WORD PTR [rbp+rdx*8+0x20]
  403db6:	48 c7 c1 fe ff ff ff 	mov    rcx,0xfffffffffffffffe
  403dbd:	66 85 f6             	test   si,si
  403dc0:	74 2e                	je     403df0 <fwrite@plt+0x2c90>
  403dc2:	0f b7 f6             	movzx  esi,si
  403dc5:	83 fe 01             	cmp    esi,0x1
  403dc8:	75 3a                	jne    403e04 <fwrite@plt+0x2ca4>
  403dca:	48 8b 4c d5 08       	mov    rcx,QWORD PTR [rbp+rdx*8+0x8]
  403dcf:	48 8b 74 d5 10       	mov    rsi,QWORD PTR [rbp+rdx*8+0x10]
  403dd4:	48 2b 0e             	sub    rcx,QWORD PTR [rsi]
  403dd7:	48 8b 54 d5 18       	mov    rdx,QWORD PTR [rbp+rdx*8+0x18]
  403ddc:	48 03 0a             	add    rcx,QWORD PTR [rdx]
  403ddf:	eb 23                	jmp    403e04 <fwrite@plt+0x2ca4>
  403de1:	66 2e 0f 1f 84 00 00 	cs nop WORD PTR [rax+rax*1+0x0]
  403de8:	00 00 00 
  403deb:	0f 1f 44 00 00       	nop    DWORD PTR [rax+rax*1+0x0]
  403df0:	48 8b 74 d5 10       	mov    rsi,QWORD PTR [rbp+rdx*8+0x10]
  403df5:	48 39 46 30          	cmp    QWORD PTR [rsi+0x30],rax
  403df9:	74 09                	je     403e04 <fwrite@plt+0x2ca4>
  403dfb:	48 8b 54 d5 18       	mov    rdx,QWORD PTR [rbp+rdx*8+0x18]
  403e00:	48 89 42 30          	mov    QWORD PTR [rdx+0x30],rax
  403e04:	31 d2                	xor    edx,edx
  403e06:	31 f6                	xor    esi,esi
  403e08:	48 3b 0c 24          	cmp    rcx,QWORD PTR [rsp]
  403e0c:	0f 9e c2             	setle  dl
  403e0f:	40 0f 9f c6          	setg   sil
  403e13:	44 89 f1             	mov    ecx,r14d
  403e16:	41 0f 4f cc          	cmovg  ecx,r12d
  403e1a:	49 01 f7             	add    r15,rsi
  403e1d:	49 01 d6             	add    r14,rdx
  403e20:	89 08                	mov    DWORD PTR [rax],ecx
  403e22:	48 83 c3 01          	add    rbx,0x1
  403e26:	4d 8b 95 a8 01 00 00 	mov    r10,QWORD PTR [r13+0x1a8]
  403e2d:	4c 39 d3             	cmp    rbx,r10
  403e30:	0f 8c 5a ff ff ff    	jl     403d90 <fwrite@plt+0x2c30>
  403e36:	e9 2c 01 00 00       	jmp    403f67 <fwrite@plt+0x2e07>
  403e3b:	48 01 ce             	add    rsi,rcx
  403e3e:	48 01 f3             	add    rbx,rsi
  403e41:	b8 9e 0f 00 00       	mov    eax,0xf9e
  403e46:	48 29 d8             	sub    rax,rbx
  403e49:	31 d2                	xor    edx,edx
  403e4b:	48 f7 f7             	div    rdi
  403e4e:	48 83 c0 01          	add    rax,0x1
  403e52:	48 83 f8 08          	cmp    rax,0x8
  403e56:	73 0a                	jae    403e62 <fwrite@plt+0x2d02>
  403e58:	ba a0 0f 00 00       	mov    edx,0xfa0
  403e5d:	e9 de 00 00 00       	jmp    403f40 <fwrite@plt+0x2de0>
  403e62:	49 89 c0             	mov    r8,rax
  403e65:	49 83 e0 f8          	and    r8,0xfffffffffffffff8
  403e69:	49 8d 48 f8          	lea    rcx,[r8-0x8]
  403e6d:	48 89 cd             	mov    rbp,rcx
  403e70:	48 c1 ed 03          	shr    rbp,0x3
  403e74:	48 83 c5 01          	add    rbp,0x1
  403e78:	89 ee                	mov    esi,ebp
  403e7a:	83 e6 03             	and    esi,0x3
  403e7d:	48 83 f9 18          	cmp    rcx,0x18
  403e81:	73 24                	jae    403ea7 <fwrite@plt+0x2d47>
  403e83:	b9 a0 0f 00 00       	mov    ecx,0xfa0
  403e88:	c4 e1 f9 6e c1       	vmovq  xmm0,rcx
  403e8d:	c5 f1 ef c9          	vpxor  xmm1,xmm1,xmm1
  403e91:	c5 e9 ef d2          	vpxor  xmm2,xmm2,xmm2
  403e95:	c5 e1 ef db          	vpxor  xmm3,xmm3,xmm3
  403e99:	4c 89 c2             	mov    rdx,r8
  403e9c:	48 0f af d7          	imul   rdx,rdi
  403ea0:	48 85 f6             	test   rsi,rsi
  403ea3:	75 4d                	jne    403ef2 <fwrite@plt+0x2d92>
  403ea5:	eb 6f                	jmp    403f16 <fwrite@plt+0x2db6>
  403ea7:	48 29 f5             	sub    rbp,rsi
  403eaa:	b9 a0 0f 00 00       	mov    ecx,0xfa0
  403eaf:	c4 e1 f9 6e c1       	vmovq  xmm0,rcx
  403eb4:	c5 f1 ef c9          	vpxor  xmm1,xmm1,xmm1
  403eb8:	c5 f9 6f 25 40 64 00 	vmovdqa xmm4,XMMWORD PTR [rip+0x6440]        # 40a300 <fwrite@plt+0x91a0>
  403ebf:	00 
  403ec0:	c5 e9 ef d2          	vpxor  xmm2,xmm2,xmm2
  403ec4:	c5 e1 ef db          	vpxor  xmm3,xmm3,xmm3
  403ec8:	0f 1f 84 00 00 00 00 	nop    DWORD PTR [rax+rax*1+0x0]
  403ecf:	00 
  403ed0:	c5 f9 d4 c4          	vpaddq xmm0,xmm0,xmm4
  403ed4:	c5 f1 d4 cc          	vpaddq xmm1,xmm1,xmm4
  403ed8:	c5 e9 d4 d4          	vpaddq xmm2,xmm2,xmm4
  403edc:	c5 e1 d4 dc          	vpaddq xmm3,xmm3,xmm4
  403ee0:	48 83 c5 fc          	add    rbp,0xfffffffffffffffc
  403ee4:	75 ea                	jne    403ed0 <fwrite@plt+0x2d70>
  403ee6:	4c 89 c2             	mov    rdx,r8
  403ee9:	48 0f af d7          	imul   rdx,rdi
  403eed:	48 85 f6             	test   rsi,rsi
  403ef0:	74 24                	je     403f16 <fwrite@plt+0x2db6>
  403ef2:	c5 d9 76 e4          	vpcmpeqd xmm4,xmm4,xmm4
  403ef6:	66 2e 0f 1f 84 00 00 	cs nop WORD PTR [rax+rax*1+0x0]
  403efd:	00 00 00 
  403f00:	c5 f9 d4 c4          	vpaddq xmm0,xmm0,xmm4
  403f04:	c5 f1 d4 cc          	vpaddq xmm1,xmm1,xmm4
  403f08:	c5 e9 d4 d4          	vpaddq xmm2,xmm2,xmm4
  403f0c:	c5 e1 d4 dc          	vpaddq xmm3,xmm3,xmm4
  403f10:	48 83 c6 ff          	add    rsi,0xffffffffffffffff
  403f14:	75 ea                	jne    403f00 <fwrite@plt+0x2da0>
  403f16:	c5 f1 d4 cb          	vpaddq xmm1,xmm1,xmm3
  403f1a:	c5 f9 d4 c2          	vpaddq xmm0,xmm0,xmm2
  403f1e:	c5 f9 d4 c1          	vpaddq xmm0,xmm0,xmm1
  403f22:	48 8d 2c 1a          	lea    rbp,[rdx+rbx*1]
  403f26:	48 81 c5 61 f0 ff ff 	add    rbp,0xfffffffffffff061
  403f2d:	c5 f9 70 c8 4e       	vpshufd xmm1,xmm0,0x4e
  403f32:	c5 f9 d4 c1          	vpaddq xmm0,xmm0,xmm1
  403f36:	c4 e1 f9 7e c2       	vmovq  rdx,xmm0
  403f3b:	4c 39 c0             	cmp    rax,r8
  403f3e:	74 09                	je     403f49 <fwrite@plt+0x2de9>
  403f40:	48 83 c2 ff          	add    rdx,0xffffffffffffffff
  403f44:	48 01 fd             	add    rbp,rdi
  403f47:	78 f7                	js     403f40 <fwrite@plt+0x2de0>
  403f49:	49 89 ad 78 02 00 00 	mov    QWORD PTR [r13+0x278],rbp
  403f50:	49 89 95 80 02 00 00 	mov    QWORD PTR [r13+0x280],rdx
  403f57:	4d 8b bd b8 01 00 00 	mov    r15,QWORD PTR [r13+0x1b8]
  403f5e:	4d 85 c9             	test   r9,r9
  403f61:	0f 84 0a fe ff ff    	je     403d71 <fwrite@plt+0x2c11>
  403f67:	4d 85 ff             	test   r15,r15
  403f6a:	0f 84 c7 00 00 00    	je     404037 <fwrite@plt+0x2ed7>
  403f70:	4d 29 bd b8 01 00 00 	sub    QWORD PTR [r13+0x1b8],r15
  403f77:	4d 01 bd c0 01 00 00 	add    QWORD PTR [r13+0x1c0],r15
  403f7e:	49 c7 85 80 02 00 00 	mov    QWORD PTR [r13+0x280],0xfa0
  403f85:	a0 0f 00 00 
  403f89:	4c 89 f8             	mov    rax,r15
  403f8c:	48 f7 d0             	not    rax
  403f8f:	4c 01 d0             	add    rax,r10
  403f92:	48 b9 cf f7 53 e3 a5 	movabs rcx,0x20c49ba5e353f7cf
  403f99:	9b c4 20 
  403f9c:	48 f7 e9             	imul   rcx
  403f9f:	48 89 d6             	mov    rsi,rdx
  403fa2:	48 89 d3             	mov    rbx,rdx
  403fa5:	48 c1 eb 3f          	shr    rbx,0x3f
  403fa9:	48 c1 fe 09          	sar    rsi,0x9
  403fad:	48 8d 3c 1e          	lea    rdi,[rsi+rbx*1]
  403fb1:	48 83 c7 01          	add    rdi,0x1
  403fb5:	4c 89 d0             	mov    rax,r10
  403fb8:	4c 89 14 24          	mov    QWORD PTR [rsp],r10
  403fbc:	4c 89 d5             	mov    rbp,r10
  403fbf:	4c 29 fd             	sub    rbp,r15
  403fc2:	48 89 e8             	mov    rax,rbp
  403fc5:	48 f7 e9             	imul   rcx
  403fc8:	49 89 bd 70 02 00 00 	mov    QWORD PTR [r13+0x270],rdi
  403fcf:	48 89 d0             	mov    rax,rdx
  403fd2:	48 c1 e8 3f          	shr    rax,0x3f
  403fd6:	48 c1 fa 09          	sar    rdx,0x9
  403fda:	48 01 c2             	add    rdx,rax
  403fdd:	48 69 c2 a0 0f 00 00 	imul   rax,rdx,0xfa0
  403fe4:	48 89 c1             	mov    rcx,rax
  403fe7:	48 f7 d9             	neg    rcx
  403fea:	48 01 e9             	add    rcx,rbp
  403fed:	48 81 c1 60 f0 ff ff 	add    rcx,0xfffffffffffff060
  403ff4:	48 29 c5             	sub    rbp,rax
  403ff7:	48 0f 45 e9          	cmovne rbp,rcx
  403ffb:	48 89 e9             	mov    rcx,rbp
  403ffe:	48 01 f9             	add    rcx,rdi
  404001:	49 89 8d 78 02 00 00 	mov    QWORD PTR [r13+0x278],rcx
  404008:	0f 89 29 01 00 00    	jns    404137 <fwrite@plt+0x2fd7>
  40400e:	48 01 de             	add    rsi,rbx
  404011:	48 01 f5             	add    rbp,rsi
  404014:	48 c7 c0 fe ff ff ff 	mov    rax,0xfffffffffffffffe
  40401b:	48 29 e8             	sub    rax,rbp
  40401e:	31 d2                	xor    edx,edx
  404020:	48 f7 f7             	div    rdi
  404023:	48 83 c0 01          	add    rax,0x1
  404027:	48 83 f8 08          	cmp    rax,0x8
  40402b:	73 12                	jae    40403f <fwrite@plt+0x2edf>
  40402d:	be a0 0f 00 00       	mov    esi,0xfa0
  404032:	e9 e9 00 00 00       	jmp    404120 <fwrite@plt+0x2fc0>
  404037:	45 31 ff             	xor    r15d,r15d
  40403a:	e9 64 02 00 00       	jmp    4042a3 <fwrite@plt+0x3143>
  40403f:	48 89 c2             	mov    rdx,rax
  404042:	48 83 e2 f8          	and    rdx,0xfffffffffffffff8
  404046:	48 8d 5a f8          	lea    rbx,[rdx-0x8]
  40404a:	48 89 d9             	mov    rcx,rbx
  40404d:	48 c1 e9 03          	shr    rcx,0x3
  404051:	48 83 c1 01          	add    rcx,0x1
  404055:	89 ce                	mov    esi,ecx
  404057:	83 e6 03             	and    esi,0x3
  40405a:	48 83 fb 18          	cmp    rbx,0x18
  40405e:	73 24                	jae    404084 <fwrite@plt+0x2f24>
  404060:	b9 a0 0f 00 00       	mov    ecx,0xfa0
  404065:	c4 e1 f9 6e c1       	vmovq  xmm0,rcx
  40406a:	c5 f1 ef c9          	vpxor  xmm1,xmm1,xmm1
  40406e:	c5 e9 ef d2          	vpxor  xmm2,xmm2,xmm2
  404072:	c5 e1 ef db          	vpxor  xmm3,xmm3,xmm3
  404076:	48 89 d1             	mov    rcx,rdx
  404079:	48 0f af cf          	imul   rcx,rdi
  40407d:	48 85 f6             	test   rsi,rsi
  404080:	75 50                	jne    4040d2 <fwrite@plt+0x2f72>
  404082:	eb 72                	jmp    4040f6 <fwrite@plt+0x2f96>
  404084:	48 29 f1             	sub    rcx,rsi
  404087:	bb a0 0f 00 00       	mov    ebx,0xfa0
  40408c:	c4 e1 f9 6e c3       	vmovq  xmm0,rbx
  404091:	c5 f1 ef c9          	vpxor  xmm1,xmm1,xmm1
  404095:	c5 f9 6f 25 63 62 00 	vmovdqa xmm4,XMMWORD PTR [rip+0x6263]        # 40a300 <fwrite@plt+0x91a0>
  40409c:	00 
  40409d:	c5 e9 ef d2          	vpxor  xmm2,xmm2,xmm2
  4040a1:	c5 e1 ef db          	vpxor  xmm3,xmm3,xmm3
  4040a5:	66 2e 0f 1f 84 00 00 	cs nop WORD PTR [rax+rax*1+0x0]
  4040ac:	00 00 00 
  4040af:	90                   	nop
  4040b0:	c5 f9 d4 c4          	vpaddq xmm0,xmm0,xmm4
  4040b4:	c5 f1 d4 cc          	vpaddq xmm1,xmm1,xmm4
  4040b8:	c5 e9 d4 d4          	vpaddq xmm2,xmm2,xmm4
  4040bc:	c5 e1 d4 dc          	vpaddq xmm3,xmm3,xmm4
  4040c0:	48 83 c1 fc          	add    rcx,0xfffffffffffffffc
  4040c4:	75 ea                	jne    4040b0 <fwrite@plt+0x2f50>
  4040c6:	48 89 d1             	mov    rcx,rdx
  4040c9:	48 0f af cf          	imul   rcx,rdi
  4040cd:	48 85 f6             	test   rsi,rsi
  4040d0:	74 24                	je     4040f6 <fwrite@plt+0x2f96>
  4040d2:	c5 d9 76 e4          	vpcmpeqd xmm4,xmm4,xmm4
  4040d6:	66 2e 0f 1f 84 00 00 	cs nop WORD PTR [rax+rax*1+0x0]
  4040dd:	00 00 00 
  4040e0:	c5 f9 d4 c4          	vpaddq xmm0,xmm0,xmm4
  4040e4:	c5 f1 d4 cc          	vpaddq xmm1,xmm1,xmm4
  4040e8:	c5 e9 d4 d4          	vpaddq xmm2,xmm2,xmm4
  4040ec:	c5 e1 d4 dc          	vpaddq xmm3,xmm3,xmm4
  4040f0:	48 83 c6 ff          	add    rsi,0xffffffffffffffff
  4040f4:	75 ea                	jne    4040e0 <fwrite@plt+0x2f80>
  4040f6:	c5 f1 d4 cb          	vpaddq xmm1,xmm1,xmm3
  4040fa:	c5 f9 d4 c2          	vpaddq xmm0,xmm0,xmm2
  4040fe:	c5 f9 d4 c1          	vpaddq xmm0,xmm0,xmm1
  404102:	48 01 e9             	add    rcx,rbp
  404105:	48 83 c1 01          	add    rcx,0x1
  404109:	c5 f9 70 c8 4e       	vpshufd xmm1,xmm0,0x4e
  40410e:	c5 f9 d4 c1          	vpaddq xmm0,xmm0,xmm1
  404112:	c4 e1 f9 7e c6       	vmovq  rsi,xmm0
  404117:	48 39 d0             	cmp    rax,rdx
  40411a:	74 0d                	je     404129 <fwrite@plt+0x2fc9>
  40411c:	0f 1f 40 00          	nop    DWORD PTR [rax+0x0]
  404120:	48 83 c6 ff          	add    rsi,0xffffffffffffffff
  404124:	48 01 f9             	add    rcx,rdi
  404127:	78 f7                	js     404120 <fwrite@plt+0x2fc0>
  404129:	49 89 8d 78 02 00 00 	mov    QWORD PTR [r13+0x278],rcx
  404130:	49 89 b5 80 02 00 00 	mov    QWORD PTR [r13+0x280],rsi
  404137:	4d 8b b5 48 02 00 00 	mov    r14,QWORD PTR [r13+0x248]
  40413e:	49 83 bd 90 01 00 00 	cmp    QWORD PTR [r13+0x190],0x0
  404145:	00 
  404146:	0f 88 a3 00 00 00    	js     4041ef <fwrite@plt+0x308f>
  40414c:	48 c7 c5 ff ff ff ff 	mov    rbp,0xffffffffffffffff
  404153:	bb 40 00 00 00       	mov    ebx,0x40
  404158:	0f 1f 84 00 00 00 00 	nop    DWORD PTR [rax+rax*1+0x0]
  40415f:	00 
  404160:	4d 8b a5 28 02 00 00 	mov    r12,QWORD PTR [r13+0x228]
  404167:	49 8b 44 1c f0       	mov    rax,QWORD PTR [r12+rbx*1-0x10]
  40416c:	48 85 c0             	test   rax,rax
  40416f:	74 1d                	je     40418e <fwrite@plt+0x302e>
  404171:	48 63 30             	movsxd rsi,DWORD PTR [rax]
  404174:	48 85 f6             	test   rsi,rsi
  404177:	78 15                	js     40418e <fwrite@plt+0x302e>
  404179:	4c 89 ef             	mov    rdi,r13
  40417c:	e8 1f d6 ff ff       	call   4017a0 <fwrite@plt+0x640>
  404181:	48 8d 04 c0          	lea    rax,[rax+rax*8]
  404185:	49 8d 04 c6          	lea    rax,[r14+rax*8]
  404189:	49 89 44 1c f0       	mov    QWORD PTR [r12+rbx*1-0x10],rax
  40418e:	49 8b 04 1c          	mov    rax,QWORD PTR [r12+rbx*1]
  404192:	48 85 c0             	test   rax,rax
  404195:	74 1c                	je     4041b3 <fwrite@plt+0x3053>
  404197:	48 63 30             	movsxd rsi,DWORD PTR [rax]
  40419a:	48 85 f6             	test   rsi,rsi
  40419d:	78 14                	js     4041b3 <fwrite@plt+0x3053>
  40419f:	4c 89 ef             	mov    rdi,r13
  4041a2:	e8 f9 d5 ff ff       	call   4017a0 <fwrite@plt+0x640>
  4041a7:	48 8d 04 c0          	lea    rax,[rax+rax*8]
  4041ab:	49 8d 04 c6          	lea    rax,[r14+rax*8]
  4041af:	49 89 04 1c          	mov    QWORD PTR [r12+rbx*1],rax
  4041b3:	49 8b 44 1c f8       	mov    rax,QWORD PTR [r12+rbx*1-0x8]
  4041b8:	48 85 c0             	test   rax,rax
  4041bb:	74 1d                	je     4041da <fwrite@plt+0x307a>
  4041bd:	48 63 30             	movsxd rsi,DWORD PTR [rax]
  4041c0:	48 85 f6             	test   rsi,rsi
  4041c3:	78 15                	js     4041da <fwrite@plt+0x307a>
  4041c5:	4c 89 ef             	mov    rdi,r13
  4041c8:	e8 d3 d5 ff ff       	call   4017a0 <fwrite@plt+0x640>
  4041cd:	48 8d 04 c0          	lea    rax,[rax+rax*8]
  4041d1:	49 8d 04 c6          	lea    rax,[r14+rax*8]
  4041d5:	49 89 44 1c f8       	mov    QWORD PTR [r12+rbx*1-0x8],rax
  4041da:	48 83 c5 01          	add    rbp,0x1
  4041de:	48 83 c3 68          	add    rbx,0x68
  4041e2:	49 3b ad 90 01 00 00 	cmp    rbp,QWORD PTR [r13+0x190]
  4041e9:	0f 8c 71 ff ff ff    	jl     404160 <fwrite@plt+0x3000>
  4041ef:	4d 8b a5 38 02 00 00 	mov    r12,QWORD PTR [r13+0x238]
  4041f6:	48 8b 04 24          	mov    rax,QWORD PTR [rsp]
  4041fa:	48 85 c0             	test   rax,rax
  4041fd:	7e 5e                	jle    40425d <fwrite@plt+0x30fd>
  4041ff:	31 ed                	xor    ebp,ebp
  404201:	48 89 c3             	mov    rbx,rax
  404204:	66 2e 0f 1f 84 00 00 	cs nop WORD PTR [rax+rax*1+0x0]
  40420b:	00 00 00 
  40420e:	66 90                	xchg   ax,ax
  404210:	49 63 34 2c          	movsxd rsi,DWORD PTR [r12+rbp*1]
  404214:	48 85 f6             	test   rsi,rsi
  404217:	78 3a                	js     404253 <fwrite@plt+0x30f3>
  404219:	4c 89 ef             	mov    rdi,r13
  40421c:	c5 f8 77             	vzeroupper 
  40421f:	e8 7c d5 ff ff       	call   4017a0 <fwrite@plt+0x640>
  404224:	48 8d 04 c0          	lea    rax,[rax+rax*8]
  404228:	49 8b 4c 2c 40       	mov    rcx,QWORD PTR [r12+rbp*1+0x40]
  40422d:	49 89 4c c6 40       	mov    QWORD PTR [r14+rax*8+0x40],rcx
  404232:	c4 c1 7e 6f 04 2c    	vmovdqu ymm0,YMMWORD PTR [r12+rbp*1]
  404238:	c4 c1 7e 6f 4c 2c 20 	vmovdqu ymm1,YMMWORD PTR [r12+rbp*1+0x20]
  40423f:	c4 c1 7e 7f 4c c6 20 	vmovdqu YMMWORD PTR [r14+rax*8+0x20],ymm1
  404246:	c4 c1 7e 7f 04 c6    	vmovdqu YMMWORD PTR [r14+rax*8],ymm0
  40424c:	4d 8b a5 38 02 00 00 	mov    r12,QWORD PTR [r13+0x238]
  404253:	48 83 c5 48          	add    rbp,0x48
  404257:	48 83 c3 ff          	add    rbx,0xffffffffffffffff
  40425b:	75 b3                	jne    404210 <fwrite@plt+0x30b0>
  40425d:	4d 89 b5 38 02 00 00 	mov    QWORD PTR [r13+0x238],r14
  404264:	4d 89 a5 48 02 00 00 	mov    QWORD PTR [r13+0x248],r12
  40426b:	48 8b 04 24          	mov    rax,QWORD PTR [rsp]
  40426f:	48 8d 04 c0          	lea    rax,[rax+rax*8]
  404273:	49 8d 04 c6          	lea    rax,[r14+rax*8]
  404277:	4d 29 bd a8 01 00 00 	sub    QWORD PTR [r13+0x1a8],r15
  40427e:	4c 89 f9             	mov    rcx,r15
  404281:	48 f7 d9             	neg    rcx
  404284:	48 8d 0c c9          	lea    rcx,[rcx+rcx*8]
  404288:	48 8d 04 c8          	lea    rax,[rax+rcx*8]
  40428c:	49 89 85 40 02 00 00 	mov    QWORD PTR [r13+0x240],rax
  404293:	be a0 17 40 00       	mov    esi,0x4017a0
  404298:	4c 89 ef             	mov    rdi,r13
  40429b:	c5 f8 77             	vzeroupper 
  40429e:	e8 2d d2 ff ff       	call   4014d0 <fwrite@plt+0x370>
  4042a3:	4c 89 f8             	mov    rax,r15
  4042a6:	48 83 c4 08          	add    rsp,0x8
  4042aa:	5b                   	pop    rbx
  4042ab:	41 5c                	pop    r12
  4042ad:	41 5d                	pop    r13
  4042af:	41 5e                	pop    r14
  4042b1:	41 5f                	pop    r15
  4042b3:	5d                   	pop    rbp
  4042b4:	c3                   	ret    
  4042b5:	66 2e 0f 1f 84 00 00 	cs nop WORD PTR [rax+rax*1+0x0]
  4042bc:	00 00 00 
  4042bf:	90                   	nop
  4042c0:	53                   	push   rbx
  4042c1:	48 8b 87 28 02 00 00 	mov    rax,QWORD PTR [rdi+0x228]
  4042c8:	4c 8d 50 68          	lea    r10,[rax+0x68]
  4042cc:	48 c7 40 30 00 00 00 	mov    QWORD PTR [rax+0x30],0x0
  4042d3:	00 
  4042d4:	48 c7 40 18 00 00 00 	mov    QWORD PTR [rax+0x18],0x0
  4042db:	00 
  4042dc:	4c 89 50 10          	mov    QWORD PTR [rax+0x10],r10
  4042e0:	c5 f9 ef c0          	vpxor  xmm0,xmm0,xmm0
  4042e4:	c5 fa 7f 40 20       	vmovdqu XMMWORD PTR [rax+0x20],xmm0
  4042e9:	4c 8b 8f 90 01 00 00 	mov    r9,QWORD PTR [rdi+0x190]
  4042f0:	49 8d 49 01          	lea    rcx,[r9+0x1]
  4042f4:	48 89 48 58          	mov    QWORD PTR [rax+0x58],rcx
  4042f8:	c7 40 08 00 00 00 00 	mov    DWORD PTR [rax+0x8],0x0
  4042ff:	48 c7 00 00 1f 0a fa 	mov    QWORD PTR [rax],0xfffffffffa0a1f00
  404306:	48 c7 40 50 00 00 00 	mov    QWORD PTR [rax+0x50],0x0
  40430d:	00 
  40430e:	48 8b b7 a8 01 00 00 	mov    rsi,QWORD PTR [rdi+0x1a8]
  404315:	48 85 f6             	test   rsi,rsi
  404318:	7e 7c                	jle    404396 <fwrite@plt+0x3236>
  40431a:	4c 8b 87 38 02 00 00 	mov    r8,QWORD PTR [rdi+0x238]
  404321:	41 89 f3             	mov    r11d,esi
  404324:	41 83 e3 01          	and    r11d,0x1
  404328:	48 83 fe 01          	cmp    rsi,0x1
  40432c:	75 09                	jne    404337 <fwrite@plt+0x31d7>
  40432e:	31 c9                	xor    ecx,ecx
  404330:	4d 85 db             	test   r11,r11
  404333:	75 42                	jne    404377 <fwrite@plt+0x3217>
  404335:	eb 5f                	jmp    404396 <fwrite@plt+0x3236>
  404337:	4c 29 de             	sub    rsi,r11
  40433a:	49 8d 50 68          	lea    rdx,[r8+0x68]
  40433e:	31 c9                	xor    ecx,ecx
  404340:	0f b7 5a b8          	movzx  ebx,WORD PTR [rdx-0x48]
  404344:	81 fb ff ff 00 00    	cmp    ebx,0xffff
  40434a:	74 06                	je     404352 <fwrite@plt+0x31f2>
  40434c:	66 c7 42 b8 01 00    	mov    WORD PTR [rdx-0x48],0x1
  404352:	0f b7 1a             	movzx  ebx,WORD PTR [rdx]
  404355:	81 fb ff ff 00 00    	cmp    ebx,0xffff
  40435b:	74 05                	je     404362 <fwrite@plt+0x3202>
  40435d:	66 c7 02 01 00       	mov    WORD PTR [rdx],0x1
  404362:	48 83 c1 02          	add    rcx,0x2
  404366:	48 81 c2 90 00 00 00 	add    rdx,0x90
  40436d:	48 39 ce             	cmp    rsi,rcx
  404370:	75 ce                	jne    404340 <fwrite@plt+0x31e0>
  404372:	4d 85 db             	test   r11,r11
  404375:	74 1f                	je     404396 <fwrite@plt+0x3236>
  404377:	48 8d 0c c9          	lea    rcx,[rcx+rcx*8]
  40437b:	41 0f b7 54 c8 20    	movzx  edx,WORD PTR [r8+rcx*8+0x20]
  404381:	81 fa ff ff 00 00    	cmp    edx,0xffff
  404387:	74 0d                	je     404396 <fwrite@plt+0x3236>
  404389:	49 8d 0c c8          	lea    rcx,[r8+rcx*8]
  40438d:	48 83 c1 20          	add    rcx,0x20
  404391:	66 c7 01 01 00       	mov    WORD PTR [rcx],0x1
  404396:	4d 85 c9             	test   r9,r9
  404399:	0f 8e 99 00 00 00    	jle    404438 <fwrite@plt+0x32d8>
  40439f:	48 8b b7 50 02 00 00 	mov    rsi,QWORD PTR [rdi+0x250]
  4043a6:	4c 89 ca             	mov    rdx,r9
  4043a9:	48 f7 da             	neg    rdx
  4043ac:	41 b8 01 00 00 00    	mov    r8d,0x1
  4043b2:	b9 01 00 00 00       	mov    ecx,0x1
  4043b7:	4c 89 d7             	mov    rdi,r10
  4043ba:	66 0f 1f 44 00 00    	nop    WORD PTR [rax+rax*1+0x0]
  4043c0:	48 89 77 30          	mov    QWORD PTR [rdi+0x30],rsi
  4043c4:	48 89 47 18          	mov    QWORD PTR [rdi+0x18],rax
  4043c8:	48 c7 47 10 00 00 00 	mov    QWORD PTR [rdi+0x10],0x0
  4043cf:	00 
  4043d0:	89 cb                	mov    ebx,ecx
  4043d2:	48 6b db 68          	imul   rbx,rbx,0x68
  4043d6:	4c 01 d3             	add    rbx,r10
  4043d9:	48 89 5f 20          	mov    QWORD PTR [rdi+0x20],rbx
  4043dd:	48 8d 5f 98          	lea    rbx,[rdi-0x68]
  4043e1:	48 89 5f 28          	mov    QWORD PTR [rdi+0x28],rbx
  4043e5:	48 c7 46 08 00 e1 f5 	mov    QWORD PTR [rsi+0x8],0x5f5e100
  4043ec:	05 
  4043ed:	66 c7 46 20 00 00    	mov    WORD PTR [rsi+0x20],0x0
  4043f3:	c7 47 08 01 00 00 00 	mov    DWORD PTR [rdi+0x8],0x1
  4043fa:	48 c7 07 00 00 00 00 	mov    QWORD PTR [rdi],0x0
  404401:	48 89 7e 10          	mov    QWORD PTR [rsi+0x10],rdi
  404405:	48 89 46 18          	mov    QWORD PTR [rsi+0x18],rax
  404409:	c7 06 fe ff ff ff    	mov    DWORD PTR [rsi],0xfffffffe
  40440f:	c4 c1 f9 6e c0       	vmovq  xmm0,r8
  404414:	c5 f9 73 f8 08       	vpslldq xmm0,xmm0,0x8
  404419:	c5 fa 7f 47 50       	vmovdqu XMMWORD PTR [rdi+0x50],xmm0
  40441e:	48 83 c7 68          	add    rdi,0x68
  404422:	48 83 c6 48          	add    rsi,0x48
  404426:	48 8d 1c 0a          	lea    rbx,[rdx+rcx*1]
  40442a:	48 83 c3 01          	add    rbx,0x1
  40442e:	48 83 c1 01          	add    rcx,0x1
  404432:	48 83 fb 01          	cmp    rbx,0x1
  404436:	75 88                	jne    4043c0 <fwrite@plt+0x3260>
  404438:	49 6b c9 68          	imul   rcx,r9,0x68
  40443c:	48 c7 44 08 20 00 00 	mov    QWORD PTR [rax+rcx*1+0x20],0x0
  404443:	00 00 
  404445:	48 c7 80 90 00 00 00 	mov    QWORD PTR [rax+0x90],0x0
  40444c:	00 00 00 00 
  404450:	31 c0                	xor    eax,eax
  404452:	5b                   	pop    rbx
  404453:	c3                   	ret    
  404454:	66 2e 0f 1f 84 00 00 	cs nop WORD PTR [rax+rax*1+0x0]
  40445b:	00 00 00 
  40445e:	66 90                	xchg   ax,ax
  404460:	55                   	push   rbp
  404461:	41 57                	push   r15
  404463:	41 56                	push   r14
  404465:	41 55                	push   r13
  404467:	41 54                	push   r12
  404469:	53                   	push   rbx
  40446a:	50                   	push   rax
  40446b:	49 89 f4             	mov    r12,rsi
  40446e:	31 c0                	xor    eax,eax
  404470:	48 2b 86 b8 01 00 00 	sub    rax,QWORD PTR [rsi+0x1b8]
  404477:	48 8d 1c c0          	lea    rbx,[rax+rax*8]
  40447b:	48 c1 e3 03          	shl    rbx,0x3
  40447f:	48 03 9e 40 02 00 00 	add    rbx,QWORD PTR [rsi+0x240]
  404486:	be ff a3 40 00       	mov    esi,0x40a3ff
  40448b:	e8 a0 cc ff ff       	call   401130 <fopen@plt>
  404490:	49 c7 c6 ff ff ff ff 	mov    r14,0xffffffffffffffff
  404497:	48 85 c0             	test   rax,rax
  40449a:	0f 84 f0 00 00 00    	je     404590 <fwrite@plt+0x3430>
  4044a0:	49 89 c7             	mov    r15,rax
  4044a3:	be 50 17 40 00       	mov    esi,0x401750
  4044a8:	4c 89 e7             	mov    rdi,r12
  4044ab:	e8 20 d0 ff ff       	call   4014d0 <fwrite@plt+0x370>
  4044b0:	49 8b 84 24 28 02 00 	mov    rax,QWORD PTR [r12+0x228]
  4044b7:	00 
  4044b8:	49 6b 8c 24 90 01 00 	imul   rcx,QWORD PTR [r12+0x190],0x68
  4044bf:	00 68 
  4044c1:	4c 8b 6c 08 38       	mov    r13,QWORD PTR [rax+rcx*1+0x38]
  4044c6:	4d 85 ed             	test   r13,r13
  4044c9:	75 12                	jne    4044dd <fwrite@plt+0x337d>
  4044cb:	e9 b5 00 00 00       	jmp    404585 <fwrite@plt+0x3425>
  4044d0:	4d 8b 6d 28          	mov    r13,QWORD PTR [r13+0x28]
  4044d4:	4d 85 ed             	test   r13,r13
  4044d7:	0f 84 a8 00 00 00    	je     404585 <fwrite@plt+0x3425>
  4044dd:	49 83 7d 38 00       	cmp    QWORD PTR [r13+0x38],0x0
  4044e2:	74 ec                	je     4044d0 <fwrite@plt+0x3370>
  4044e4:	bf 01 a4 40 00       	mov    edi,0x40a401
  4044e9:	be 03 00 00 00       	mov    esi,0x3
  4044ee:	ba 01 00 00 00       	mov    edx,0x1
  4044f3:	4c 89 f9             	mov    rcx,r15
  4044f6:	e8 15 cc ff ff       	call   401110 <fwrite_unlocked@plt>
  4044fb:	4c 89 ed             	mov    rbp,r13
  4044fe:	48 39 dd             	cmp    rbp,rbx
  404501:	72 17                	jb     40451a <fwrite@plt+0x33ba>
  404503:	bf 05 a4 40 00       	mov    edi,0x40a405
  404508:	be 04 00 00 00       	mov    esi,0x4
  40450d:	ba 01 00 00 00       	mov    edx,0x1
  404512:	4c 89 f9             	mov    rcx,r15
  404515:	e8 f6 cb ff ff       	call   401110 <fwrite_unlocked@plt>
  40451a:	48 8b 45 18          	mov    rax,QWORD PTR [rbp+0x18]
  40451e:	31 d2                	xor    edx,edx
  404520:	2b 50 60             	sub    edx,DWORD PTR [rax+0x60]
  404523:	be 0a a4 40 00       	mov    esi,0x40a40a
  404528:	31 c0                	xor    eax,eax
  40452a:	4c 89 ff             	mov    rdi,r15
  40452d:	e8 7e cb ff ff       	call   4010b0 <fprintf@plt>
  404532:	48 8b 45 18          	mov    rax,QWORD PTR [rbp+0x18]
  404536:	49 6b 8c 24 98 01 00 	imul   rcx,QWORD PTR [r12+0x198],0x68
  40453d:	00 68 
  40453f:	48 8b 44 08 38       	mov    rax,QWORD PTR [rax+rcx*1+0x38]
  404544:	48 85 c0             	test   rax,rax
  404547:	75 10                	jne    404559 <fwrite@plt+0x33f9>
  404549:	eb 30                	jmp    40457b <fwrite@plt+0x341b>
  40454b:	0f 1f 44 00 00       	nop    DWORD PTR [rax+rax*1+0x0]
  404550:	48 8b 40 28          	mov    rax,QWORD PTR [rax+0x28]
  404554:	48 85 c0             	test   rax,rax
  404557:	74 22                	je     40457b <fwrite@plt+0x341b>
  404559:	48 83 78 38 00       	cmp    QWORD PTR [rax+0x38],0x0
  40455e:	74 f0                	je     404550 <fwrite@plt+0x33f0>
  404560:	48 8b 48 18          	mov    rcx,QWORD PTR [rax+0x18]
  404564:	83 79 60 00          	cmp    DWORD PTR [rcx+0x60],0x0
  404568:	bd 00 00 00 00       	mov    ebp,0x0
  40456d:	48 0f 45 e8          	cmovne rbp,rax
  404571:	48 85 ed             	test   rbp,rbp
  404574:	75 88                	jne    4044fe <fwrite@plt+0x339e>
  404576:	e9 55 ff ff ff       	jmp    4044d0 <fwrite@plt+0x3370>
  40457b:	4c 89 ff             	mov    rdi,r15
  40457e:	e8 ed ca ff ff       	call   401070 <fclose@plt>
  404583:	eb 0b                	jmp    404590 <fwrite@plt+0x3430>
  404585:	4c 89 ff             	mov    rdi,r15
  404588:	e8 e3 ca ff ff       	call   401070 <fclose@plt>
  40458d:	45 31 f6             	xor    r14d,r14d
  404590:	4c 89 f0             	mov    rax,r14
  404593:	48 83 c4 08          	add    rsp,0x8
  404597:	5b                   	pop    rbx
  404598:	41 5c                	pop    r12
  40459a:	41 5d                	pop    r13
  40459c:	41 5e                	pop    r14
  40459e:	41 5f                	pop    r15
  4045a0:	5d                   	pop    rbp
  4045a1:	c3                   	ret    
  4045a2:	66 2e 0f 1f 84 00 00 	cs nop WORD PTR [rax+rax*1+0x0]
  4045a9:	00 00 00 
  4045ac:	0f 1f 40 00          	nop    DWORD PTR [rax+0x0]
  4045b0:	41 56                	push   r14
  4045b2:	53                   	push   rbx
  4045b3:	50                   	push   rax
  4045b4:	49 89 f6             	mov    r14,rsi
  4045b7:	be ff a3 40 00       	mov    esi,0x40a3ff
  4045bc:	e8 6f cb ff ff       	call   401130 <fopen@plt>
  4045c1:	48 85 c0             	test   rax,rax
  4045c4:	74 2c                	je     4045f2 <fwrite@plt+0x3492>
  4045c6:	48 89 c3             	mov    rbx,rax
  4045c9:	4c 89 f7             	mov    rdi,r14
  4045cc:	e8 ff cf ff ff       	call   4015d0 <fwrite@plt+0x470>
  4045d1:	be 0e a4 40 00       	mov    esi,0x40a40e
  4045d6:	b0 01                	mov    al,0x1
  4045d8:	48 89 df             	mov    rdi,rbx
  4045db:	e8 d0 ca ff ff       	call   4010b0 <fprintf@plt>
  4045e0:	48 89 df             	mov    rdi,rbx
  4045e3:	e8 88 ca ff ff       	call   401070 <fclose@plt>
  4045e8:	31 c0                	xor    eax,eax
  4045ea:	48 83 c4 08          	add    rsp,0x8
  4045ee:	5b                   	pop    rbx
  4045ef:	41 5e                	pop    r14
  4045f1:	c3                   	ret    
  4045f2:	48 c7 c0 ff ff ff ff 	mov    rax,0xffffffffffffffff
  4045f9:	48 83 c4 08          	add    rsp,0x8
  4045fd:	5b                   	pop    rbx
  4045fe:	41 5e                	pop    r14
  404600:	c3                   	ret    
  404601:	66 2e 0f 1f 84 00 00 	cs nop WORD PTR [rax+rax*1+0x0]
  404608:	00 00 00 
  40460b:	0f 1f 44 00 00       	nop    DWORD PTR [rax+rax*1+0x0]
  404610:	55                   	push   rbp
  404611:	41 57                	push   r15
  404613:	41 56                	push   r14
  404615:	41 55                	push   r13
  404617:	41 54                	push   r12
  404619:	53                   	push   rbx
  40461a:	49 89 d6             	mov    r14,rdx
  40461d:	4c 8b 5c 24 58       	mov    r11,QWORD PTR [rsp+0x58]
  404622:	4c 8b 64 24 50       	mov    r12,QWORD PTR [rsp+0x50]
  404627:	49 8b 44 24 10       	mov    rax,QWORD PTR [r12+0x10]
  40462c:	4d 85 db             	test   r11,r11
  40462f:	79 05                	jns    404636 <fwrite@plt+0x34d6>
  404631:	4c 39 c8             	cmp    rax,r9
  404634:	74 0a                	je     404640 <fwrite@plt+0x34e0>
  404636:	4d 85 db             	test   r11,r11
  404639:	7e 10                	jle    40464b <fwrite@plt+0x34eb>
  40463b:	4c 39 c0             	cmp    rax,r8
  40463e:	75 0b                	jne    40464b <fwrite@plt+0x34eb>
  404640:	4c 89 da             	mov    rdx,r11
  404643:	48 f7 da             	neg    rdx
  404646:	4c 89 d8             	mov    rax,r11
  404649:	eb 09                	jmp    404654 <fwrite@plt+0x34f4>
  40464b:	4c 89 d8             	mov    rax,r11
  40464e:	48 f7 d8             	neg    rax
  404651:	4c 89 da             	mov    rdx,r11
  404654:	4c 8b 7c 24 40       	mov    r15,QWORD PTR [rsp+0x40]
  404659:	48 8b 6c 24 38       	mov    rbp,QWORD PTR [rsp+0x38]
  40465e:	4d 85 db             	test   r11,r11
  404661:	48 0f 48 c2          	cmovs  rax,rdx
  404665:	48 89 ea             	mov    rdx,rbp
  404668:	48 89 d3             	mov    rbx,rdx
  40466b:	48 01 02             	add    QWORD PTR [rdx],rax
  40466e:	48 8b 52 10          	mov    rdx,QWORD PTR [rdx+0x10]
  404672:	48 85 d2             	test   rdx,rdx
  404675:	75 f1                	jne    404668 <fwrite@plt+0x3508>
  404677:	eb 0b                	jmp    404684 <fwrite@plt+0x3524>
  404679:	0f 1f 80 00 00 00 00 	nop    DWORD PTR [rax+0x0]
  404680:	48 8b 5b 18          	mov    rbx,QWORD PTR [rbx+0x18]
  404684:	48 39 eb             	cmp    rbx,rbp
  404687:	74 0b                	je     404694 <fwrite@plt+0x3534>
  404689:	48 8b 53 20          	mov    rdx,QWORD PTR [rbx+0x20]
  40468d:	48 85 d2             	test   rdx,rdx
  404690:	74 ee                	je     404680 <fwrite@plt+0x3520>
  404692:	eb d4                	jmp    404668 <fwrite@plt+0x3508>
  404694:	4c 8b 5d 58          	mov    r11,QWORD PTR [rbp+0x58]
  404698:	4d 39 f8             	cmp    r8,r15
  40469b:	0f 84 bb 00 00 00    	je     40475c <fwrite@plt+0x35fc>
  4046a1:	4c 89 f0             	mov    rax,r14
  4046a4:	48 f7 d8             	neg    rax
  4046a7:	48 89 44 24 f8       	mov    QWORD PTR [rsp-0x8],rax
  4046ac:	4d 89 dd             	mov    r13,r11
  4046af:	4c 89 cd             	mov    rbp,r9
  4046b2:	66 2e 0f 1f 84 00 00 	cs nop WORD PTR [rax+rax*1+0x0]
  4046b9:	00 00 00 
  4046bc:	0f 1f 40 00          	nop    DWORD PTR [rax+0x0]
  4046c0:	4c 89 c3             	mov    rbx,r8
  4046c3:	4d 8b 40 18          	mov    r8,QWORD PTR [r8+0x18]
  4046c7:	48 8b 53 20          	mov    rdx,QWORD PTR [rbx+0x20]
  4046cb:	48 85 d2             	test   rdx,rdx
  4046ce:	74 08                	je     4046d8 <fwrite@plt+0x3578>
  4046d0:	4c 8b 53 28          	mov    r10,QWORD PTR [rbx+0x28]
  4046d4:	4c 89 52 28          	mov    QWORD PTR [rdx+0x28],r10
  4046d8:	48 8b 43 28          	mov    rax,QWORD PTR [rbx+0x28]
  4046dc:	4d 8d 50 10          	lea    r10,[r8+0x10]
  4046e0:	48 85 c0             	test   rax,rax
  4046e3:	48 8d 40 20          	lea    rax,[rax+0x20]
  4046e7:	49 0f 44 c2          	cmove  rax,r10
  4046eb:	48 89 10             	mov    QWORD PTR [rax],rdx
  4046ee:	48 89 6b 18          	mov    QWORD PTR [rbx+0x18],rbp
  4046f2:	48 8b 55 10          	mov    rdx,QWORD PTR [rbp+0x10]
  4046f6:	48 89 53 20          	mov    QWORD PTR [rbx+0x20],rdx
  4046fa:	48 85 d2             	test   rdx,rdx
  4046fd:	74 04                	je     404703 <fwrite@plt+0x35a3>
  4046ff:	48 89 5a 28          	mov    QWORD PTR [rdx+0x28],rbx
  404703:	48 89 5d 10          	mov    QWORD PTR [rbp+0x10],rbx
  404707:	48 c7 43 28 00 00 00 	mov    QWORD PTR [rbx+0x28],0x0
  40470e:	00 
  40470f:	31 ed                	xor    ebp,ebp
  404711:	83 7b 08 00          	cmp    DWORD PTR [rbx+0x8],0x0
  404715:	40 0f 94 c5          	sete   bpl
  404719:	4c 89 f2             	mov    rdx,r14
  40471c:	48 39 fd             	cmp    rbp,rdi
  40471f:	74 05                	je     404726 <fwrite@plt+0x35c6>
  404721:	48 8b 54 24 f8       	mov    rdx,QWORD PTR [rsp-0x8]
  404726:	48 03 53 50          	add    rdx,QWORD PTR [rbx+0x50]
  40472a:	48 8b 43 30          	mov    rax,QWORD PTR [rbx+0x30]
  40472e:	89 73 08             	mov    DWORD PTR [rbx+0x8],esi
  404731:	48 89 4b 50          	mov    QWORD PTR [rbx+0x50],rcx
  404735:	4c 89 63 30          	mov    QWORD PTR [rbx+0x30],r12
  404739:	4c 89 d9             	mov    rcx,r11
  40473c:	48 2b 4b 58          	sub    rcx,QWORD PTR [rbx+0x58]
  404740:	4c 89 6b 58          	mov    QWORD PTR [rbx+0x58],r13
  404744:	49 89 cd             	mov    r13,rcx
  404747:	48 89 ee             	mov    rsi,rbp
  40474a:	48 89 d1             	mov    rcx,rdx
  40474d:	48 89 dd             	mov    rbp,rbx
  404750:	49 89 c4             	mov    r12,rax
  404753:	4d 39 f8             	cmp    r8,r15
  404756:	0f 85 64 ff ff ff    	jne    4046c0 <fwrite@plt+0x3560>
  40475c:	4c 3b 74 24 60       	cmp    r14,QWORD PTR [rsp+0x60]
  404761:	7e 7c                	jle    4047df <fwrite@plt+0x367f>
  404763:	48 8b 74 24 48       	mov    rsi,QWORD PTR [rsp+0x48]
  404768:	49 39 f7             	cmp    r15,rsi
  40476b:	74 32                	je     40479f <fwrite@plt+0x363f>
  40476d:	4c 89 f1             	mov    rcx,r14
  404770:	48 f7 d9             	neg    rcx
  404773:	66 2e 0f 1f 84 00 00 	cs nop WORD PTR [rax+rax*1+0x0]
  40477a:	00 00 00 
  40477d:	0f 1f 00             	nop    DWORD PTR [rax]
  404780:	4d 29 5f 58          	sub    QWORD PTR [r15+0x58],r11
  404784:	49 63 47 08          	movsxd rax,DWORD PTR [r15+0x8]
  404788:	48 39 f8             	cmp    rax,rdi
  40478b:	4c 89 f0             	mov    rax,r14
  40478e:	48 0f 44 c1          	cmove  rax,rcx
  404792:	49 01 47 50          	add    QWORD PTR [r15+0x50],rax
  404796:	4d 8b 7f 18          	mov    r15,QWORD PTR [r15+0x18]
  40479a:	49 39 f7             	cmp    r15,rsi
  40479d:	75 e1                	jne    404780 <fwrite@plt+0x3620>
  40479f:	49 39 f1             	cmp    r9,rsi
  4047a2:	74 69                	je     40480d <fwrite@plt+0x36ad>
  4047a4:	4c 89 f0             	mov    rax,r14
  4047a7:	48 f7 d8             	neg    rax
  4047aa:	c4 c1 f9 6e c3       	vmovq  xmm0,r11
  4047af:	90                   	nop
  4047b0:	49 63 51 08          	movsxd rdx,DWORD PTR [r9+0x8]
  4047b4:	4c 89 f1             	mov    rcx,r14
  4047b7:	48 39 fa             	cmp    rdx,rdi
  4047ba:	74 03                	je     4047bf <fwrite@plt+0x365f>
  4047bc:	48 89 c1             	mov    rcx,rax
  4047bf:	c4 e1 f9 6e c9       	vmovq  xmm1,rcx
  4047c4:	c5 f1 6c c8          	vpunpcklqdq xmm1,xmm1,xmm0
  4047c8:	c4 c1 71 d4 49 50    	vpaddq xmm1,xmm1,XMMWORD PTR [r9+0x50]
  4047ce:	c4 c1 7a 7f 49 50    	vmovdqu XMMWORD PTR [r9+0x50],xmm1
  4047d4:	4d 8b 49 18          	mov    r9,QWORD PTR [r9+0x18]
  4047d8:	49 39 f1             	cmp    r9,rsi
  4047db:	75 d3                	jne    4047b0 <fwrite@plt+0x3650>
  4047dd:	eb 2e                	jmp    40480d <fwrite@plt+0x36ad>
  4047df:	48 8b 44 24 48       	mov    rax,QWORD PTR [rsp+0x48]
  4047e4:	49 39 c7             	cmp    r15,rax
  4047e7:	74 1f                	je     404808 <fwrite@plt+0x36a8>
  4047e9:	0f 1f 80 00 00 00 00 	nop    DWORD PTR [rax+0x0]
  4047f0:	4d 29 5f 58          	sub    QWORD PTR [r15+0x58],r11
  4047f4:	4d 8b 7f 18          	mov    r15,QWORD PTR [r15+0x18]
  4047f8:	49 39 c7             	cmp    r15,rax
  4047fb:	75 f3                	jne    4047f0 <fwrite@plt+0x3690>
  4047fd:	eb 09                	jmp    404808 <fwrite@plt+0x36a8>
  4047ff:	90                   	nop
  404800:	4d 01 59 58          	add    QWORD PTR [r9+0x58],r11
  404804:	4d 8b 49 18          	mov    r9,QWORD PTR [r9+0x18]
  404808:	49 39 c1             	cmp    r9,rax
  40480b:	75 f3                	jne    404800 <fwrite@plt+0x36a0>
  40480d:	5b                   	pop    rbx
  40480e:	41 5c                	pop    r12
  404810:	41 5d                	pop    r13
  404812:	41 5e                	pop    r14
  404814:	41 5f                	pop    r15
  404816:	5d                   	pop    rbp
  404817:	c3                   	ret    
  404818:	0f 1f 84 00 00 00 00 	nop    DWORD PTR [rax+rax*1+0x0]
  40481f:	00 
  404820:	31 c0                	xor    eax,eax
  404822:	48 39 ca             	cmp    rdx,rcx
  404825:	0f 84 af 00 00 00    	je     4048da <fwrite@plt+0x377a>
  40482b:	49 89 d1             	mov    r9,rdx
  40482e:	48 89 ca             	mov    rdx,rcx
  404831:	66 2e 0f 1f 84 00 00 	cs nop WORD PTR [rax+rax*1+0x0]
  404838:	00 00 00 
  40483b:	0f 1f 44 00 00       	nop    DWORD PTR [rax+rax*1+0x0]
  404840:	49 8b 49 58          	mov    rcx,QWORD PTR [r9+0x58]
  404844:	48 3b 4a 58          	cmp    rcx,QWORD PTR [rdx+0x58]
  404848:	7d 16                	jge    404860 <fwrite@plt+0x3700>
  40484a:	41 83 79 08 00       	cmp    DWORD PTR [r9+0x8],0x0
  40484f:	74 49                	je     40489a <fwrite@plt+0x373a>
  404851:	49 8b 49 50          	mov    rcx,QWORD PTR [r9+0x50]
  404855:	48 39 0f             	cmp    QWORD PTR [rdi],rcx
  404858:	7f 59                	jg     4048b3 <fwrite@plt+0x3753>
  40485a:	eb 64                	jmp    4048c0 <fwrite@plt+0x3760>
  40485c:	0f 1f 40 00          	nop    DWORD PTR [rax+0x0]
  404860:	83 7a 08 00          	cmp    DWORD PTR [rdx+0x8],0x0
  404864:	74 69                	je     4048cf <fwrite@plt+0x376f>
  404866:	48 8b 4a 18          	mov    rcx,QWORD PTR [rdx+0x18]
  40486a:	48 83 79 18 00       	cmp    QWORD PTR [rcx+0x18],0x0
  40486f:	74 1e                	je     40488f <fwrite@plt+0x372f>
  404871:	4c 8b 52 50          	mov    r10,QWORD PTR [rdx+0x50]
  404875:	b9 01 00 00 00       	mov    ecx,0x1
  40487a:	4c 29 d1             	sub    rcx,r10
  40487d:	48 39 0f             	cmp    QWORD PTR [rdi],rcx
  404880:	7c 0d                	jl     40488f <fwrite@plt+0x372f>
  404882:	48 89 0f             	mov    QWORD PTR [rdi],rcx
  404885:	48 c7 06 01 00 00 00 	mov    QWORD PTR [rsi],0x1
  40488c:	48 89 d0             	mov    rax,rdx
  40488f:	48 8b 52 18          	mov    rdx,QWORD PTR [rdx+0x18]
  404893:	49 39 d1             	cmp    r9,rdx
  404896:	75 a8                	jne    404840 <fwrite@plt+0x36e0>
  404898:	eb 40                	jmp    4048da <fwrite@plt+0x377a>
  40489a:	49 8b 49 18          	mov    rcx,QWORD PTR [r9+0x18]
  40489e:	48 83 79 18 00       	cmp    QWORD PTR [rcx+0x18],0x0
  4048a3:	74 1b                	je     4048c0 <fwrite@plt+0x3760>
  4048a5:	b9 01 00 00 00       	mov    ecx,0x1
  4048aa:	49 2b 49 50          	sub    rcx,QWORD PTR [r9+0x50]
  4048ae:	48 39 0f             	cmp    QWORD PTR [rdi],rcx
  4048b1:	7e 0d                	jle    4048c0 <fwrite@plt+0x3760>
  4048b3:	48 89 0f             	mov    QWORD PTR [rdi],rcx
  4048b6:	48 c7 06 00 00 00 00 	mov    QWORD PTR [rsi],0x0
  4048bd:	4c 89 c8             	mov    rax,r9
  4048c0:	4d 8b 49 18          	mov    r9,QWORD PTR [r9+0x18]
  4048c4:	49 39 d1             	cmp    r9,rdx
  4048c7:	0f 85 73 ff ff ff    	jne    404840 <fwrite@plt+0x36e0>
  4048cd:	eb 0b                	jmp    4048da <fwrite@plt+0x377a>
  4048cf:	48 8b 4a 50          	mov    rcx,QWORD PTR [rdx+0x50]
  4048d3:	48 39 0f             	cmp    QWORD PTR [rdi],rcx
  4048d6:	7d aa                	jge    404882 <fwrite@plt+0x3722>
  4048d8:	eb b5                	jmp    40488f <fwrite@plt+0x372f>
  4048da:	49 89 10             	mov    QWORD PTR [r8],rdx
  4048dd:	c3                   	ret    
  4048de:	66 90                	xchg   ax,ax
  4048e0:	48 39 d7             	cmp    rdi,rdx
  4048e3:	74 3c                	je     404921 <fwrite@plt+0x37c1>
  4048e5:	66 2e 0f 1f 84 00 00 	cs nop WORD PTR [rax+rax*1+0x0]
  4048ec:	00 00 00 
  4048ef:	90                   	nop
  4048f0:	31 c0                	xor    eax,eax
  4048f2:	83 7f 08 00          	cmp    DWORD PTR [rdi+0x8],0x0
  4048f6:	0f 94 c0             	sete   al
  4048f9:	48 89 47 50          	mov    QWORD PTR [rdi+0x50],rax
  4048fd:	48 8b 7f 18          	mov    rdi,QWORD PTR [rdi+0x18]
  404901:	48 39 d7             	cmp    rdi,rdx
  404904:	75 ea                	jne    4048f0 <fwrite@plt+0x3790>
  404906:	eb 19                	jmp    404921 <fwrite@plt+0x37c1>
  404908:	0f 1f 84 00 00 00 00 	nop    DWORD PTR [rax+rax*1+0x0]
  40490f:	00 
  404910:	31 c0                	xor    eax,eax
  404912:	83 7e 08 00          	cmp    DWORD PTR [rsi+0x8],0x0
  404916:	0f 95 c0             	setne  al
  404919:	48 89 46 50          	mov    QWORD PTR [rsi+0x50],rax
  40491d:	48 8b 76 18          	mov    rsi,QWORD PTR [rsi+0x18]
  404921:	48 39 d6             	cmp    rsi,rdx
  404924:	75 ea                	jne    404910 <fwrite@plt+0x37b0>
  404926:	c3                   	ret    
  404927:	66 0f 1f 84 00 00 00 	nop    WORD PTR [rax+rax*1+0x0]
  40492e:	00 00 
  404930:	55                   	push   rbp
  404931:	41 57                	push   r15
  404933:	41 56                	push   r14
  404935:	41 55                	push   r13
  404937:	41 54                	push   r12
  404939:	53                   	push   rbx
  40493a:	48 83 ec 18          	sub    rsp,0x18
  40493e:	48 8b 05 cb 87 00 00 	mov    rax,QWORD PTR [rip+0x87cb]        # 40d110 <stderr@@GLIBC_2.2.5+0x10>
  404945:	48 83 ff 01          	cmp    rdi,0x1
  404949:	0f 8e d7 00 00 00    	jle    404a26 <fwrite@plt+0x38c6>
  40494f:	bb 02 00 00 00       	mov    ebx,0x2
  404954:	48 29 fb             	sub    rbx,rdi
  404957:	41 bc 01 00 00 00    	mov    r12d,0x1
  40495d:	4c 8d 74 24 10       	lea    r14,[rsp+0x10]
  404962:	4c 8d 7c 24 08       	lea    r15,[rsp+0x8]
  404967:	45 31 ed             	xor    r13d,r13d
  40496a:	66 0f 1f 44 00 00    	nop    WORD PTR [rax+rax*1+0x0]
  404970:	48 8b 08             	mov    rcx,QWORD PTR [rax]
  404973:	48 8b 09             	mov    rcx,QWORD PTR [rcx]
  404976:	48 83 79 18 00       	cmp    QWORD PTR [rcx+0x18],0x0
  40497b:	ba 00 00 00 00       	mov    edx,0x0
  404980:	48 0f 48 ca          	cmovs  rcx,rdx
  404984:	4c 0f 49 ea          	cmovns r13,rdx
  404988:	48 89 4c 24 08       	mov    QWORD PTR [rsp+0x8],rcx
  40498d:	bd 01 00 00 00       	mov    ebp,0x1
  404992:	eb 17                	jmp    4049ab <fwrite@plt+0x384b>
  404994:	66 2e 0f 1f 84 00 00 	cs nop WORD PTR [rax+rax*1+0x0]
  40499b:	00 00 00 
  40499e:	66 90                	xchg   ax,ax
  4049a0:	48 83 c5 01          	add    rbp,0x1
  4049a4:	48 8b 05 65 87 00 00 	mov    rax,QWORD PTR [rip+0x8765]        # 40d110 <stderr@@GLIBC_2.2.5+0x10>
  4049ab:	48 8b 04 e8          	mov    rax,QWORD PTR [rax+rbp*8]
  4049af:	48 8b 00             	mov    rax,QWORD PTR [rax]
  4049b2:	48 89 44 24 10       	mov    QWORD PTR [rsp+0x10],rax
  4049b7:	48 83 78 18 00       	cmp    QWORD PTR [rax+0x18],0x0
  4049bc:	78 17                	js     4049d5 <fwrite@plt+0x3875>
  4049be:	48 83 7c 24 08 00    	cmp    QWORD PTR [rsp+0x8],0x0
  4049c4:	74 20                	je     4049e6 <fwrite@plt+0x3886>
  4049c6:	4c 89 f7             	mov    rdi,r14
  4049c9:	4c 89 fe             	mov    rsi,r15
  4049cc:	e8 af 08 00 00       	call   405280 <fwrite@plt+0x4120>
  4049d1:	85 c0                	test   eax,eax
  4049d3:	78 0c                	js     4049e1 <fwrite@plt+0x3881>
  4049d5:	48 8d 04 2b          	lea    rax,[rbx+rbp*1]
  4049d9:	48 83 f8 01          	cmp    rax,0x1
  4049dd:	75 c1                	jne    4049a0 <fwrite@plt+0x3840>
  4049df:	eb 17                	jmp    4049f8 <fwrite@plt+0x3898>
  4049e1:	48 8b 44 24 10       	mov    rax,QWORD PTR [rsp+0x10]
  4049e6:	48 89 44 24 08       	mov    QWORD PTR [rsp+0x8],rax
  4049eb:	49 89 ed             	mov    r13,rbp
  4049ee:	48 8d 04 2b          	lea    rax,[rbx+rbp*1]
  4049f2:	48 83 f8 01          	cmp    rax,0x1
  4049f6:	75 a8                	jne    4049a0 <fwrite@plt+0x3840>
  4049f8:	48 8b 44 24 08       	mov    rax,QWORD PTR [rsp+0x8]
  4049fd:	48 85 c0             	test   rax,rax
  404a00:	0f 84 7e 00 00 00    	je     404a84 <fwrite@plt+0x3924>
  404a06:	4c 89 60 18          	mov    QWORD PTR [rax+0x18],r12
  404a0a:	48 8b 05 ff 86 00 00 	mov    rax,QWORD PTR [rip+0x86ff]        # 40d110 <stderr@@GLIBC_2.2.5+0x10>
  404a11:	4a 83 04 e8 08       	add    QWORD PTR [rax+r13*8],0x8
  404a16:	49 83 c4 01          	add    r12,0x1
  404a1a:	49 83 fc 3d          	cmp    r12,0x3d
  404a1e:	0f 82 4c ff ff ff    	jb     404970 <fwrite@plt+0x3810>
  404a24:	eb 5e                	jmp    404a84 <fwrite@plt+0x3924>
  404a26:	b9 01 00 00 00       	mov    ecx,0x1
  404a2b:	0f 1f 44 00 00       	nop    DWORD PTR [rax+rax*1+0x0]
  404a30:	48 8b 10             	mov    rdx,QWORD PTR [rax]
  404a33:	48 8b 12             	mov    rdx,QWORD PTR [rdx]
  404a36:	48 83 7a 18 00       	cmp    QWORD PTR [rdx+0x18],0x0
  404a3b:	79 02                	jns    404a3f <fwrite@plt+0x38df>
  404a3d:	31 d2                	xor    edx,edx
  404a3f:	48 89 54 24 08       	mov    QWORD PTR [rsp+0x8],rdx
  404a44:	48 85 d2             	test   rdx,rdx
  404a47:	74 3b                	je     404a84 <fwrite@plt+0x3924>
  404a49:	48 89 4a 18          	mov    QWORD PTR [rdx+0x18],rcx
  404a4d:	48 8b 10             	mov    rdx,QWORD PTR [rax]
  404a50:	48 8d 72 08          	lea    rsi,[rdx+0x8]
  404a54:	48 89 30             	mov    QWORD PTR [rax],rsi
  404a57:	48 8b 52 08          	mov    rdx,QWORD PTR [rdx+0x8]
  404a5b:	48 83 7a 18 00       	cmp    QWORD PTR [rdx+0x18],0x0
  404a60:	79 02                	jns    404a64 <fwrite@plt+0x3904>
  404a62:	31 d2                	xor    edx,edx
  404a64:	48 89 54 24 08       	mov    QWORD PTR [rsp+0x8],rdx
  404a69:	48 85 d2             	test   rdx,rdx
  404a6c:	74 16                	je     404a84 <fwrite@plt+0x3924>
  404a6e:	48 8d 71 01          	lea    rsi,[rcx+0x1]
  404a72:	48 89 72 18          	mov    QWORD PTR [rdx+0x18],rsi
  404a76:	48 83 00 08          	add    QWORD PTR [rax],0x8
  404a7a:	48 83 c1 02          	add    rcx,0x2
  404a7e:	48 83 f9 3d          	cmp    rcx,0x3d
  404a82:	72 ac                	jb     404a30 <fwrite@plt+0x38d0>
  404a84:	48 83 c4 18          	add    rsp,0x18
  404a88:	5b                   	pop    rbx
  404a89:	41 5c                	pop    r12
  404a8b:	41 5d                	pop    r13
  404a8d:	41 5e                	pop    r14
  404a8f:	41 5f                	pop    r15
  404a91:	5d                   	pop    rbp
  404a92:	c3                   	ret    
  404a93:	66 2e 0f 1f 84 00 00 	cs nop WORD PTR [rax+rax*1+0x0]
  404a9a:	00 00 00 
  404a9d:	0f 1f 00             	nop    DWORD PTR [rax]
  404aa0:	55                   	push   rbp
  404aa1:	41 57                	push   r15
  404aa3:	41 56                	push   r14
  404aa5:	41 55                	push   r13
  404aa7:	41 54                	push   r12
  404aa9:	53                   	push   rbx
  404aaa:	48 81 ec 08 7f 00 00 	sub    rsp,0x7f08
  404ab1:	41 89 d0             	mov    r8d,edx
  404ab4:	48 89 fb             	mov    rbx,rdi
  404ab7:	48 8b 87 a8 01 00 00 	mov    rax,QWORD PTR [rdi+0x1a8]
  404abe:	48 89 44 24 10       	mov    QWORD PTR [rsp+0x10],rax
  404ac3:	4c 8b bf 38 02 00 00 	mov    r15,QWORD PTR [rdi+0x238]
  404aca:	4c 8b a7 40 02 00 00 	mov    r12,QWORD PTR [rdi+0x240]
  404ad1:	4c 89 7c 24 18       	mov    QWORD PTR [rsp+0x18],r15
  404ad6:	48 8b 0d 3b 86 00 00 	mov    rcx,QWORD PTR [rip+0x863b]        # 40d118 <stderr@@GLIBC_2.2.5+0x18>
  404add:	89 74 24 0c          	mov    DWORD PTR [rsp+0xc],esi
  404ae1:	4c 63 ee             	movsxd r13,esi
  404ae4:	4a c7 04 e9 00 00 00 	mov    QWORD PTR [rcx+r13*8],0x0
  404aeb:	00 
  404aec:	b8 a0 0f 00 00       	mov    eax,0xfa0
  404af1:	31 d2                	xor    edx,edx
  404af3:	41 f7 f8             	idiv   r8d
  404af6:	83 f8 c5             	cmp    eax,0xffffffc5
  404af9:	0f 8c 53 01 00 00    	jl     404c52 <fwrite@plt+0x3af2>
  404aff:	8d 50 3d             	lea    edx,[rax+0x3d]
  404b02:	48 63 d2             	movsxd rdx,edx
  404b05:	05 05 01 00 00       	add    eax,0x105
  404b0a:	0f af 44 24 0c       	imul   eax,DWORD PTR [rsp+0xc]
  404b0f:	83 c0 01             	add    eax,0x1
  404b12:	48 63 f8             	movsxd rdi,eax
  404b15:	48 8b 05 04 86 00 00 	mov    rax,QWORD PTR [rip+0x8604]        # 40d120 <stderr@@GLIBC_2.2.5+0x20>
  404b1c:	48 83 fa 01          	cmp    rdx,0x1
  404b20:	41 ba 02 00 00 00    	mov    r10d,0x2
  404b26:	4c 0f 4f d2          	cmovg  r10,rdx
  404b2a:	49 83 c2 ff          	add    r10,0xffffffffffffffff
  404b2e:	49 83 fa 0f          	cmp    r10,0xf
  404b32:	77 0d                	ja     404b41 <fwrite@plt+0x39e1>
  404b34:	be 01 00 00 00       	mov    esi,0x1
  404b39:	49 89 f9             	mov    r9,rdi
  404b3c:	e9 f4 00 00 00       	jmp    404c35 <fwrite@plt+0x3ad5>
  404b41:	4c 89 d5             	mov    rbp,r10
  404b44:	48 83 e5 f0          	and    rbp,0xfffffffffffffff0
  404b48:	4c 8d 0c 2f          	lea    r9,[rdi+rbp*1]
  404b4c:	48 8d 75 01          	lea    rsi,[rbp+0x1]
  404b50:	c4 e1 f9 6e c7       	vmovq  xmm0,rdi
  404b55:	c5 f9 70 c0 44       	vpshufd xmm0,xmm0,0x44
  404b5a:	bf 01 00 00 00       	mov    edi,0x1
  404b5f:	c4 e1 f9 6e cf       	vmovq  xmm1,rdi
  404b64:	c5 f1 73 f9 08       	vpslldq xmm1,xmm1,0x8
  404b69:	c5 f9 d4 c9          	vpaddq xmm1,xmm0,xmm1
  404b6d:	c5 f9 d4 05 ab 58 00 	vpaddq xmm0,xmm0,XMMWORD PTR [rip+0x58ab]        # 40a420 <fwrite@plt+0x92c0>
  404b74:	00 
  404b75:	c4 e3 75 18 c0 01    	vinsertf128 ymm0,ymm1,xmm0,0x1
  404b7b:	31 ff                	xor    edi,edi
  404b7d:	c4 e1 f9 6e c8       	vmovq  xmm1,rax
  404b82:	c5 f9 70 c9 44       	vpshufd xmm1,xmm1,0x44
  404b87:	c5 79 6f 05 a1 58 00 	vmovdqa xmm8,XMMWORD PTR [rip+0x58a1]        # 40a430 <fwrite@plt+0x92d0>
  404b8e:	00 
  404b8f:	c5 79 6f 15 a9 58 00 	vmovdqa xmm10,XMMWORD PTR [rip+0x58a9]        # 40a440 <fwrite@plt+0x92e0>
  404b96:	00 
  404b97:	c5 79 6f 25 b1 58 00 	vmovdqa xmm12,XMMWORD PTR [rip+0x58b1]        # 40a450 <fwrite@plt+0x92f0>
  404b9e:	00 
  404b9f:	c5 f9 6f 2d 29 58 00 	vmovdqa xmm5,XMMWORD PTR [rip+0x5829]        # 40a3d0 <fwrite@plt+0x9270>
  404ba6:	00 
  404ba7:	66 0f 1f 84 00 00 00 	nop    WORD PTR [rax+rax*1+0x0]
  404bae:	00 00 
  404bb0:	c4 e3 7d 19 c6 01    	vextractf128 xmm6,ymm0,0x1
  404bb6:	c5 c1 73 f6 05       	vpsllq xmm7,xmm6,0x5
  404bbb:	c5 f1 d4 ff          	vpaddq xmm7,xmm1,xmm7
  404bbf:	c5 e9 73 f0 05       	vpsllq xmm2,xmm0,0x5
  404bc4:	c5 f1 d4 d2          	vpaddq xmm2,xmm1,xmm2
  404bc8:	c4 63 6d 18 cf 01    	vinsertf128 ymm9,ymm2,xmm7,0x1
  404bce:	c4 c1 41 d4 d8       	vpaddq xmm3,xmm7,xmm8
  404bd3:	c4 41 69 d4 d8       	vpaddq xmm11,xmm2,xmm8
  404bd8:	c4 e3 25 18 db 01    	vinsertf128 ymm3,ymm11,xmm3,0x1
  404bde:	c4 c1 41 d4 e2       	vpaddq xmm4,xmm7,xmm10
  404be3:	c4 41 69 d4 da       	vpaddq xmm11,xmm2,xmm10
  404be8:	c4 e3 25 18 e4 01    	vinsertf128 ymm4,ymm11,xmm4,0x1
  404bee:	c4 c1 41 d4 fc       	vpaddq xmm7,xmm7,xmm12
  404bf3:	c4 c1 69 d4 d4       	vpaddq xmm2,xmm2,xmm12
  404bf8:	c4 e3 6d 18 d7 01    	vinsertf128 ymm2,ymm2,xmm7,0x1
  404bfe:	c5 7c 11 4c fc 28    	vmovups YMMWORD PTR [rsp+rdi*8+0x28],ymm9
  404c04:	c5 fc 11 5c fc 48    	vmovups YMMWORD PTR [rsp+rdi*8+0x48],ymm3
  404c0a:	c5 fc 11 64 fc 68    	vmovups YMMWORD PTR [rsp+rdi*8+0x68],ymm4
  404c10:	c5 fc 11 94 fc 88 00 	vmovups YMMWORD PTR [rsp+rdi*8+0x88],ymm2
  404c17:	00 00 
  404c19:	48 83 c7 10          	add    rdi,0x10
  404c1d:	c5 c9 d4 d5          	vpaddq xmm2,xmm6,xmm5
  404c21:	c5 f9 d4 c5          	vpaddq xmm0,xmm0,xmm5
  404c25:	c4 e3 7d 18 c2 01    	vinsertf128 ymm0,ymm0,xmm2,0x1
  404c2b:	48 39 fd             	cmp    rbp,rdi
  404c2e:	75 80                	jne    404bb0 <fwrite@plt+0x3a50>
  404c30:	49 39 ea             	cmp    r10,rbp
  404c33:	74 1d                	je     404c52 <fwrite@plt+0x3af2>
  404c35:	49 c1 e1 05          	shl    r9,0x5
  404c39:	4c 01 c8             	add    rax,r9
  404c3c:	0f 1f 40 00          	nop    DWORD PTR [rax+0x0]
  404c40:	48 89 44 f4 20       	mov    QWORD PTR [rsp+rsi*8+0x20],rax
  404c45:	48 83 c6 01          	add    rsi,0x1
  404c49:	48 83 c0 20          	add    rax,0x20
  404c4d:	48 39 d6             	cmp    rsi,rdx
  404c50:	7c ee                	jl     404c40 <fwrite@plt+0x3ae0>
  404c52:	80 3d cf 84 00 00 00 	cmp    BYTE PTR [rip+0x84cf],0x0        # 40d128 <stderr@@GLIBC_2.2.5+0x28>
  404c59:	0f 85 08 01 00 00    	jne    404d67 <fwrite@plt+0x3c07>
  404c5f:	49 63 e8             	movsxd rbp,r8d
  404c62:	4c 8d 74 24 28       	lea    r14,[rsp+0x28]
  404c67:	83 7c 24 0c 01       	cmp    DWORD PTR [rsp+0xc],0x1
  404c6c:	0f 85 95 00 00 00    	jne    404d07 <fwrite@plt+0x3ba7>
  404c72:	eb 13                	jmp    404c87 <fwrite@plt+0x3b27>
  404c74:	66 2e 0f 1f 84 00 00 	cs nop WORD PTR [rax+rax*1+0x0]
  404c7b:	00 00 00 
  404c7e:	66 90                	xchg   ax,ax
  404c80:	48 8b 0d 91 84 00 00 	mov    rcx,QWORD PTR [rip+0x8491]        # 40d118 <stderr@@GLIBC_2.2.5+0x18>
  404c87:	48 8b 83 60 02 00 00 	mov    rax,QWORD PTR [rbx+0x260]
  404c8e:	4c 01 e8             	add    rax,r13
  404c91:	48 99                	cqo    
  404c93:	48 f7 fd             	idiv   rbp
  404c96:	48 89 d0             	mov    rax,rdx
  404c99:	41 b9 01 00 00 00    	mov    r9d,0x1
  404c9f:	48 8b 7c 24 10       	mov    rdi,QWORD PTR [rsp+0x10]
  404ca4:	4c 89 fe             	mov    rsi,r15
  404ca7:	4c 89 e2             	mov    rdx,r12
  404caa:	4c 8d 44 24 20       	lea    r8,[rsp+0x20]
  404caf:	ff b3 80 02 00 00    	push   QWORD PTR [rbx+0x280]
  404cb5:	55                   	push   rbp
  404cb6:	50                   	push   rax
  404cb7:	48 8d 44 24 30       	lea    rax,[rsp+0x30]
  404cbc:	50                   	push   rax
  404cbd:	c5 f8 77             	vzeroupper 
  404cc0:	e8 fb 05 00 00       	call   4052c0 <fwrite@plt+0x4160>
  404cc5:	48 83 c4 20          	add    rsp,0x20
  404cc9:	48 8b 0d 60 84 00 00 	mov    rcx,QWORD PTR [rip+0x8460]        # 40d130 <stderr@@GLIBC_2.2.5+0x30>
  404cd0:	4a 89 04 e9          	mov    QWORD PTR [rcx+r13*8],rax
  404cd4:	48 8b 05 35 84 00 00 	mov    rax,QWORD PTR [rip+0x8435]        # 40d110 <stderr@@GLIBC_2.2.5+0x10>
  404cdb:	4e 89 34 e8          	mov    QWORD PTR [rax+r13*8],r14
  404cdf:	48 89 ef             	mov    rdi,rbp
  404ce2:	e8 49 fc ff ff       	call   404930 <fwrite@plt+0x37d0>
  404ce7:	80 3d 3a 84 00 00 00 	cmp    BYTE PTR [rip+0x843a],0x0        # 40d128 <stderr@@GLIBC_2.2.5+0x28>
  404cee:	74 90                	je     404c80 <fwrite@plt+0x3b20>
  404cf0:	eb 75                	jmp    404d67 <fwrite@plt+0x3c07>
  404cf2:	66 2e 0f 1f 84 00 00 	cs nop WORD PTR [rax+rax*1+0x0]
  404cf9:	00 00 00 
  404cfc:	0f 1f 40 00          	nop    DWORD PTR [rax+0x0]
  404d00:	48 8b 0d 11 84 00 00 	mov    rcx,QWORD PTR [rip+0x8411]        # 40d118 <stderr@@GLIBC_2.2.5+0x18>
  404d07:	48 8b 83 60 02 00 00 	mov    rax,QWORD PTR [rbx+0x260]
  404d0e:	4c 01 e8             	add    rax,r13
  404d11:	48 99                	cqo    
  404d13:	48 f7 fd             	idiv   rbp
  404d16:	48 89 d0             	mov    rax,rdx
  404d19:	48 8b 7c 24 10       	mov    rdi,QWORD PTR [rsp+0x10]
  404d1e:	4c 89 fe             	mov    rsi,r15
  404d21:	4c 89 e2             	mov    rdx,r12
  404d24:	4c 8d 44 24 20       	lea    r8,[rsp+0x20]
  404d29:	44 8b 4c 24 0c       	mov    r9d,DWORD PTR [rsp+0xc]
  404d2e:	ff b3 80 02 00 00    	push   QWORD PTR [rbx+0x280]
  404d34:	55                   	push   rbp
  404d35:	50                   	push   rax
  404d36:	48 8d 44 24 30       	lea    rax,[rsp+0x30]
  404d3b:	50                   	push   rax
  404d3c:	c5 f8 77             	vzeroupper 
  404d3f:	e8 7c 05 00 00       	call   4052c0 <fwrite@plt+0x4160>
  404d44:	48 83 c4 20          	add    rsp,0x20
  404d48:	48 8b 0d e1 83 00 00 	mov    rcx,QWORD PTR [rip+0x83e1]        # 40d130 <stderr@@GLIBC_2.2.5+0x30>
  404d4f:	4a 89 04 e9          	mov    QWORD PTR [rcx+r13*8],rax
  404d53:	48 8b 05 b6 83 00 00 	mov    rax,QWORD PTR [rip+0x83b6]        # 40d110 <stderr@@GLIBC_2.2.5+0x10>
  404d5a:	4e 89 34 e8          	mov    QWORD PTR [rax+r13*8],r14
  404d5e:	80 3d c3 83 00 00 00 	cmp    BYTE PTR [rip+0x83c3],0x0        # 40d128 <stderr@@GLIBC_2.2.5+0x28>
  404d65:	74 99                	je     404d00 <fwrite@plt+0x3ba0>
  404d67:	48 81 c4 08 7f 00 00 	add    rsp,0x7f08
  404d6e:	5b                   	pop    rbx
  404d6f:	41 5c                	pop    r12
  404d71:	41 5d                	pop    r13
  404d73:	41 5e                	pop    r14
  404d75:	41 5f                	pop    r15
  404d77:	5d                   	pop    rbp
  404d78:	c5 f8 77             	vzeroupper 
  404d7b:	c3                   	ret    
  404d7c:	0f 1f 40 00          	nop    DWORD PTR [rax+0x0]
  404d80:	55                   	push   rbp
  404d81:	41 57                	push   r15
  404d83:	41 56                	push   r14
  404d85:	41 55                	push   r13
  404d87:	41 54                	push   r12
  404d89:	53                   	push   rbx
  404d8a:	48 81 ec 48 7f 00 00 	sub    rsp,0x7f48
  404d91:	41 89 f4             	mov    r12d,esi
  404d94:	48 89 fd             	mov    rbp,rdi
  404d97:	48 8b 87 a8 01 00 00 	mov    rax,QWORD PTR [rdi+0x1a8]
  404d9e:	48 89 44 24 48       	mov    QWORD PTR [rsp+0x48],rax
  404da3:	48 8b 87 38 02 00 00 	mov    rax,QWORD PTR [rdi+0x238]
  404daa:	48 8b 8f 40 02 00 00 	mov    rcx,QWORD PTR [rdi+0x240]
  404db1:	48 89 4c 24 38       	mov    QWORD PTR [rsp+0x38],rcx
  404db6:	48 89 44 24 40       	mov    QWORD PTR [rsp+0x40],rax
  404dbb:	48 89 44 24 50       	mov    QWORD PTR [rsp+0x50],rax
  404dc0:	48 8b 0d 51 83 00 00 	mov    rcx,QWORD PTR [rip+0x8351]        # 40d118 <stderr@@GLIBC_2.2.5+0x18>
  404dc7:	48 c7 01 00 00 00 00 	mov    QWORD PTR [rcx],0x0
  404dce:	b8 a0 0f 00 00       	mov    eax,0xfa0
  404dd3:	31 d2                	xor    edx,edx
  404dd5:	f7 fe                	idiv   esi
  404dd7:	83 f8 c5             	cmp    eax,0xffffffc5
  404dda:	48 89 7c 24 08       	mov    QWORD PTR [rsp+0x8],rdi
  404ddf:	0f 8c ed 00 00 00    	jl     404ed2 <fwrite@plt+0x3d72>
  404de5:	83 c0 3d             	add    eax,0x3d
  404de8:	48 98                	cdqe   
  404dea:	48 8b 15 2f 83 00 00 	mov    rdx,QWORD PTR [rip+0x832f]        # 40d120 <stderr@@GLIBC_2.2.5+0x20>
  404df1:	48 83 f8 01          	cmp    rax,0x1
  404df5:	bd 02 00 00 00       	mov    ebp,0x2
  404dfa:	48 0f 4f e8          	cmovg  rbp,rax
  404dfe:	48 83 c5 ff          	add    rbp,0xffffffffffffffff
  404e02:	48 83 fd 07          	cmp    rbp,0x7
  404e06:	77 0f                	ja     404e17 <fwrite@plt+0x3cb7>
  404e08:	be 01 00 00 00       	mov    esi,0x1
  404e0d:	48 8b 6c 24 08       	mov    rbp,QWORD PTR [rsp+0x8]
  404e12:	e9 95 00 00 00       	jmp    404eac <fwrite@plt+0x3d4c>
  404e17:	48 89 ef             	mov    rdi,rbp
  404e1a:	48 83 e7 f8          	and    rdi,0xfffffffffffffff8
  404e1e:	48 8d 77 01          	lea    rsi,[rdi+0x1]
  404e22:	c5 f9 6f 05 36 56 00 	vmovdqa xmm0,XMMWORD PTR [rip+0x5636]        # 40a460 <fwrite@plt+0x9300>
  404e29:	00 
  404e2a:	31 db                	xor    ebx,ebx
  404e2c:	c4 e1 f9 6e ca       	vmovq  xmm1,rdx
  404e31:	c5 f9 70 c9 44       	vpshufd xmm1,xmm1,0x44
  404e36:	c5 79 6f 05 32 56 00 	vmovdqa xmm8,XMMWORD PTR [rip+0x5632]        # 40a470 <fwrite@plt+0x9310>
  404e3d:	00 
  404e3e:	c5 79 6f 0d ea 55 00 	vmovdqa xmm9,XMMWORD PTR [rip+0x55ea]        # 40a430 <fwrite@plt+0x92d0>
  404e45:	00 
  404e46:	c5 f9 6f 25 32 56 00 	vmovdqa xmm4,XMMWORD PTR [rip+0x5632]        # 40a480 <fwrite@plt+0x9320>
  404e4d:	00 
  404e4e:	c5 f9 6f 2d 3a 56 00 	vmovdqa xmm5,XMMWORD PTR [rip+0x563a]        # 40a490 <fwrite@plt+0x9330>
  404e55:	00 
  404e56:	66 2e 0f 1f 84 00 00 	cs nop WORD PTR [rax+rax*1+0x0]
  404e5d:	00 00 00 
  404e60:	c5 c9 73 f0 05       	vpsllq xmm6,xmm0,0x5
  404e65:	c5 f1 d4 f6          	vpaddq xmm6,xmm1,xmm6
  404e69:	c4 c1 49 d4 f8       	vpaddq xmm7,xmm6,xmm8
  404e6e:	c4 c1 49 d4 d1       	vpaddq xmm2,xmm6,xmm9
  404e73:	c5 c9 d4 dc          	vpaddq xmm3,xmm6,xmm4
  404e77:	c5 fa 7f 74 dc 68    	vmovdqu XMMWORD PTR [rsp+rbx*8+0x68],xmm6
  404e7d:	c5 fa 7f 7c dc 78    	vmovdqu XMMWORD PTR [rsp+rbx*8+0x78],xmm7
  404e83:	c5 fa 7f 94 dc 88 00 	vmovdqu XMMWORD PTR [rsp+rbx*8+0x88],xmm2
  404e8a:	00 00 
  404e8c:	c5 fa 7f 9c dc 98 00 	vmovdqu XMMWORD PTR [rsp+rbx*8+0x98],xmm3
  404e93:	00 00 
  404e95:	48 83 c3 08          	add    rbx,0x8
  404e99:	c5 f9 d4 c5          	vpaddq xmm0,xmm0,xmm5
  404e9d:	48 39 df             	cmp    rdi,rbx
  404ea0:	75 be                	jne    404e60 <fwrite@plt+0x3d00>
  404ea2:	48 39 fd             	cmp    rbp,rdi
  404ea5:	48 8b 6c 24 08       	mov    rbp,QWORD PTR [rsp+0x8]
  404eaa:	74 26                	je     404ed2 <fwrite@plt+0x3d72>
  404eac:	48 89 f7             	mov    rdi,rsi
  404eaf:	48 c1 e7 05          	shl    rdi,0x5
  404eb3:	48 01 fa             	add    rdx,rdi
  404eb6:	66 2e 0f 1f 84 00 00 	cs nop WORD PTR [rax+rax*1+0x0]
  404ebd:	00 00 00 
  404ec0:	48 89 54 f4 60       	mov    QWORD PTR [rsp+rsi*8+0x60],rdx
  404ec5:	48 83 c6 01          	add    rsi,0x1
  404ec9:	48 83 c2 20          	add    rdx,0x20
  404ecd:	48 39 c6             	cmp    rsi,rax
  404ed0:	7c ee                	jl     404ec0 <fwrite@plt+0x3d60>
  404ed2:	80 3d 4f 82 00 00 00 	cmp    BYTE PTR [rip+0x824f],0x0        # 40d128 <stderr@@GLIBC_2.2.5+0x28>
  404ed9:	0f 85 65 02 00 00    	jne    405144 <fwrite@plt+0x3fe4>
  404edf:	49 63 c4             	movsxd rax,r12d
  404ee2:	48 89 44 24 10       	mov    QWORD PTR [rsp+0x10],rax
  404ee7:	44 89 64 24 2c       	mov    DWORD PTR [rsp+0x2c],r12d
  404eec:	eb 09                	jmp    404ef7 <fwrite@plt+0x3d97>
  404eee:	66 90                	xchg   ax,ax
  404ef0:	48 8b 0d 21 82 00 00 	mov    rcx,QWORD PTR [rip+0x8221]        # 40d118 <stderr@@GLIBC_2.2.5+0x18>
  404ef7:	48 8b 85 60 02 00 00 	mov    rax,QWORD PTR [rbp+0x260]
  404efe:	48 8b ad 80 02 00 00 	mov    rbp,QWORD PTR [rbp+0x280]
  404f05:	48 99                	cqo    
  404f07:	48 8b 5c 24 10       	mov    rbx,QWORD PTR [rsp+0x10]
  404f0c:	48 f7 fb             	idiv   rbx
  404f0f:	48 89 d0             	mov    rax,rdx
  404f12:	41 b9 00 00 00 00    	mov    r9d,0x0
  404f18:	48 8b 7c 24 48       	mov    rdi,QWORD PTR [rsp+0x48]
  404f1d:	48 8b 74 24 40       	mov    rsi,QWORD PTR [rsp+0x40]
  404f22:	48 8b 54 24 38       	mov    rdx,QWORD PTR [rsp+0x38]
  404f27:	4c 8d 44 24 60       	lea    r8,[rsp+0x60]
  404f2c:	55                   	push   rbp
  404f2d:	53                   	push   rbx
  404f2e:	50                   	push   rax
  404f2f:	48 8d 44 24 68       	lea    rax,[rsp+0x68]
  404f34:	50                   	push   rax
  404f35:	e8 86 03 00 00       	call   4052c0 <fwrite@plt+0x4160>
  404f3a:	48 83 c4 20          	add    rsp,0x20
  404f3e:	48 8b 0d eb 81 00 00 	mov    rcx,QWORD PTR [rip+0x81eb]        # 40d130 <stderr@@GLIBC_2.2.5+0x30>
  404f45:	48 89 01             	mov    QWORD PTR [rcx],rax
  404f48:	48 8b 05 c1 81 00 00 	mov    rax,QWORD PTR [rip+0x81c1]        # 40d110 <stderr@@GLIBC_2.2.5+0x10>
  404f4f:	48 8d 4c 24 68       	lea    rcx,[rsp+0x68]
  404f54:	48 89 08             	mov    QWORD PTR [rax],rcx
  404f57:	48 c7 44 24 18 00 00 	mov    QWORD PTR [rsp+0x18],0x0
  404f5e:	00 00 
  404f60:	45 85 e4             	test   r12d,r12d
  404f63:	0f 8e d4 01 00 00    	jle    40513d <fwrite@plt+0x3fdd>
  404f69:	31 db                	xor    ebx,ebx
  404f6b:	4c 8b 7c 24 10       	mov    r15,QWORD PTR [rsp+0x10]
  404f70:	31 c0                	xor    eax,eax
  404f72:	31 c9                	xor    ecx,ecx
  404f74:	31 ed                	xor    ebp,ebp
  404f76:	4c 8d 74 24 18       	lea    r14,[rsp+0x18]
  404f7b:	0f 1f 44 00 00       	nop    DWORD PTR [rax+rax*1+0x0]
  404f80:	48 8b 3d a9 81 00 00 	mov    rdi,QWORD PTR [rip+0x81a9]        # 40d130 <stderr@@GLIBC_2.2.5+0x30>
  404f87:	48 8b 14 1f          	mov    rdx,QWORD PTR [rdi+rbx*1]
  404f8b:	f6 c1 01             	test   cl,0x1
  404f8e:	74 20                	je     404fb0 <fwrite@plt+0x3e50>
  404f90:	48 85 d2             	test   rdx,rdx
  404f93:	74 38                	je     404fcd <fwrite@plt+0x3e6d>
  404f95:	48 01 df             	add    rdi,rbx
  404f98:	4c 89 f6             	mov    rsi,r14
  404f9b:	e8 e0 02 00 00       	call   405280 <fwrite@plt+0x4120>
  404fa0:	85 c0                	test   eax,eax
  404fa2:	78 17                	js     404fbb <fwrite@plt+0x3e5b>
  404fa4:	48 8b 44 24 18       	mov    rax,QWORD PTR [rsp+0x18]
  404fa9:	eb 22                	jmp    404fcd <fwrite@plt+0x3e6d>
  404fab:	0f 1f 44 00 00       	nop    DWORD PTR [rax+rax*1+0x0]
  404fb0:	48 85 d2             	test   rdx,rdx
  404fb3:	74 18                	je     404fcd <fwrite@plt+0x3e6d>
  404fb5:	48 8d 04 ef          	lea    rax,[rdi+rbp*8]
  404fb9:	eb 0a                	jmp    404fc5 <fwrite@plt+0x3e65>
  404fbb:	48 8b 05 6e 81 00 00 	mov    rax,QWORD PTR [rip+0x816e]        # 40d130 <stderr@@GLIBC_2.2.5+0x30>
  404fc2:	48 01 d8             	add    rax,rbx
  404fc5:	48 8b 00             	mov    rax,QWORD PTR [rax]
  404fc8:	48 89 44 24 18       	mov    QWORD PTR [rsp+0x18],rax
  404fcd:	48 83 c5 01          	add    rbp,0x1
  404fd1:	48 85 c0             	test   rax,rax
  404fd4:	0f 95 c1             	setne  cl
  404fd7:	48 83 c3 08          	add    rbx,0x8
  404fdb:	49 83 c7 ff          	add    r15,0xffffffffffffffff
  404fdf:	75 9f                	jne    404f80 <fwrite@plt+0x3e20>
  404fe1:	48 85 c0             	test   rax,rax
  404fe4:	0f 84 53 01 00 00    	je     40513d <fwrite@plt+0x3fdd>
  404fea:	4c 8b 28             	mov    r13,QWORD PTR [rax]
  404fed:	4c 8b 70 08          	mov    r14,QWORD PTR [rax+0x8]
  404ff1:	41 83 fc 01          	cmp    r12d,0x1
  404ff5:	75 0a                	jne    405001 <fwrite@plt+0x3ea1>
  404ff7:	48 8b 7c 24 10       	mov    rdi,QWORD PTR [rsp+0x10]
  404ffc:	e8 2f f9 ff ff       	call   404930 <fwrite@plt+0x37d0>
  405001:	4d 85 f6             	test   r14,r14
  405004:	0f 84 33 01 00 00    	je     40513d <fwrite@plt+0x3fdd>
  40500a:	48 8b 6c 24 08       	mov    rbp,QWORD PTR [rsp+0x8]
  40500f:	48 83 85 60 02 00 00 	add    QWORD PTR [rbp+0x260],0x1
  405016:	01 
  405017:	31 c0                	xor    eax,eax
  405019:	31 c9                	xor    ecx,ecx
  40501b:	4d 85 f6             	test   r14,r14
  40501e:	0f 9f c0             	setg   al
  405021:	0f 9e c1             	setle  cl
  405024:	4d 8b 7c c5 10       	mov    r15,QWORD PTR [r13+rax*8+0x10]
  405029:	4d 8b 64 cd 10       	mov    r12,QWORD PTR [r13+rcx*8+0x10]
  40502e:	48 c7 44 24 20 01 00 	mov    QWORD PTR [rsp+0x20],0x1
  405035:	00 00 
  405037:	48 8d 7c 24 20       	lea    rdi,[rsp+0x20]
  40503c:	48 8d 74 24 58       	lea    rsi,[rsp+0x58]
  405041:	4c 89 fa             	mov    rdx,r15
  405044:	4c 89 e1             	mov    rcx,r12
  405047:	4c 8d 44 24 30       	lea    r8,[rsp+0x30]
  40504c:	e8 cf f7 ff ff       	call   404820 <fwrite@plt+0x36c0>
  405051:	48 85 c0             	test   rax,rax
  405054:	0f 84 96 00 00 00    	je     4050f0 <fwrite@plt+0x3f90>
  40505a:	48 8b 4c 24 58       	mov    rcx,QWORD PTR [rsp+0x58]
  40505f:	31 ff                	xor    edi,edi
  405061:	48 85 c9             	test   rcx,rcx
  405064:	40 0f 94 c7          	sete   dil
  405068:	4d 89 f9             	mov    r9,r15
  40506b:	4d 0f 44 cc          	cmove  r9,r12
  40506f:	4d 0f 44 e7          	cmove  r12,r15
  405073:	48 63 50 08          	movsxd rdx,DWORD PTR [rax+0x8]
  405077:	31 ed                	xor    ebp,ebp
  405079:	48 39 d1             	cmp    rcx,rdx
  40507c:	40 0f 94 c5          	sete   bpl
  405080:	83 c5 01             	add    ebp,0x1
  405083:	48 8b 54 24 20       	mov    rdx,QWORD PTR [rsp+0x20]
  405088:	b9 01 00 00 00       	mov    ecx,0x1
  40508d:	48 29 d1             	sub    rcx,rdx
  405090:	4d 85 f6             	test   r14,r14
  405093:	4c 8b 78 30          	mov    r15,QWORD PTR [rax+0x30]
  405097:	48 0f 4e ca          	cmovle rcx,rdx
  40509b:	31 f6                	xor    esi,esi
  40509d:	4d 39 65 10          	cmp    QWORD PTR [r13+0x10],r12
  4050a1:	40 0f 94 c6          	sete   sil
  4050a5:	4d 89 e0             	mov    r8,r12
  4050a8:	48 8b 5c 24 08       	mov    rbx,QWORD PTR [rsp+0x8]
  4050ad:	ff b3 00 02 00 00    	push   QWORD PTR [rbx+0x200]
  4050b3:	41 56                	push   r14
  4050b5:	41 55                	push   r13
  4050b7:	ff 74 24 48          	push   QWORD PTR [rsp+0x48]
  4050bb:	ff 70 18             	push   QWORD PTR [rax+0x18]
  4050be:	50                   	push   rax
  4050bf:	e8 4c f5 ff ff       	call   404610 <fwrite@plt+0x34b0>
  4050c4:	48 83 c4 30          	add    rsp,0x30
  4050c8:	66 41 c7 45 20 00 00 	mov    WORD PTR [r13+0x20],0x0
  4050cf:	66 41 89 6f 20       	mov    WORD PTR [r15+0x20],bp
  4050d4:	48 8b 6c 24 08       	mov    rbp,QWORD PTR [rsp+0x8]
  4050d9:	80 3d 48 80 00 00 00 	cmp    BYTE PTR [rip+0x8048],0x0        # 40d128 <stderr@@GLIBC_2.2.5+0x28>
  4050e0:	44 8b 64 24 2c       	mov    r12d,DWORD PTR [rsp+0x2c]
  4050e5:	0f 84 05 fe ff ff    	je     404ef0 <fwrite@plt+0x3d90>
  4050eb:	eb 57                	jmp    405144 <fwrite@plt+0x3fe4>
  4050ed:	0f 1f 00             	nop    DWORD PTR [rax]
  4050f0:	48 83 85 68 02 00 00 	add    QWORD PTR [rbp+0x268],0x1
  4050f7:	01 
  4050f8:	41 0f b7 45 20       	movzx  eax,WORD PTR [r13+0x20]
  4050fd:	31 c9                	xor    ecx,ecx
  4050ff:	83 f8 02             	cmp    eax,0x2
  405102:	0f 94 c1             	sete   cl
  405105:	b8 02 00 00 00       	mov    eax,0x2
  40510a:	29 c8                	sub    eax,ecx
  40510c:	66 41 89 45 20       	mov    WORD PTR [r13+0x20],ax
  405111:	48 83 7c 24 20 00    	cmp    QWORD PTR [rsp+0x20],0x0
  405117:	74 10                	je     405129 <fwrite@plt+0x3fc9>
  405119:	48 8b 54 24 30       	mov    rdx,QWORD PTR [rsp+0x30]
  40511e:	4c 89 ff             	mov    rdi,r15
  405121:	4c 89 e6             	mov    rsi,r12
  405124:	e8 b7 f7 ff ff       	call   4048e0 <fwrite@plt+0x3780>
  405129:	80 3d f8 7f 00 00 00 	cmp    BYTE PTR [rip+0x7ff8],0x0        # 40d128 <stderr@@GLIBC_2.2.5+0x28>
  405130:	44 8b 64 24 2c       	mov    r12d,DWORD PTR [rsp+0x2c]
  405135:	0f 84 b5 fd ff ff    	je     404ef0 <fwrite@plt+0x3d90>
  40513b:	eb 07                	jmp    405144 <fwrite@plt+0x3fe4>
  40513d:	c6 05 e4 7f 00 00 01 	mov    BYTE PTR [rip+0x7fe4],0x1        # 40d128 <stderr@@GLIBC_2.2.5+0x28>
  405144:	48 81 c4 48 7f 00 00 	add    rsp,0x7f48
  40514b:	5b                   	pop    rbx
  40514c:	41 5c                	pop    r12
  40514e:	41 5d                	pop    r13
  405150:	41 5e                	pop    r14
  405152:	41 5f                	pop    r15
  405154:	5d                   	pop    rbp
  405155:	c3                   	ret    
  405156:	66 2e 0f 1f 84 00 00 	cs nop WORD PTR [rax+rax*1+0x0]
  40515d:	00 00 00 
  405160:	53                   	push   rbx
  405161:	48 89 fb             	mov    rbx,rdi
  405164:	bf 01 00 00 00       	mov    edi,0x1
  405169:	be 08 00 00 00       	mov    esi,0x8
  40516e:	e8 2d bf ff ff       	call   4010a0 <calloc@plt>
  405173:	48 89 05 96 7f 00 00 	mov    QWORD PTR [rip+0x7f96],rax        # 40d110 <stderr@@GLIBC_2.2.5+0x10>
  40517a:	bf 01 00 00 00       	mov    edi,0x1
  40517f:	be 08 00 00 00       	mov    esi,0x8
  405184:	e8 17 bf ff ff       	call   4010a0 <calloc@plt>
  405189:	48 89 05 a0 7f 00 00 	mov    QWORD PTR [rip+0x7fa0],rax        # 40d130 <stderr@@GLIBC_2.2.5+0x30>
  405190:	bf 01 00 00 00       	mov    edi,0x1
  405195:	be 08 00 00 00       	mov    esi,0x8
  40519a:	e8 01 bf ff ff       	call   4010a0 <calloc@plt>
  40519f:	48 89 05 72 7f 00 00 	mov    QWORD PTR [rip+0x7f72],rax        # 40d118 <stderr@@GLIBC_2.2.5+0x18>
  4051a6:	bf a5 10 00 00       	mov    edi,0x10a5
  4051ab:	be 20 00 00 00       	mov    esi,0x20
  4051b0:	e8 eb be ff ff       	call   4010a0 <calloc@plt>
  4051b5:	48 89 05 64 7f 00 00 	mov    QWORD PTR [rip+0x7f64],rax        # 40d120 <stderr@@GLIBC_2.2.5+0x20>
  4051bc:	48 8b b3 38 02 00 00 	mov    rsi,QWORD PTR [rbx+0x238]
  4051c3:	48 89 df             	mov    rdi,rbx
  4051c6:	e8 65 00 00 00       	call   405230 <fwrite@plt+0x40d0>
  4051cb:	be 01 00 00 00       	mov    esi,0x1
  4051d0:	48 89 df             	mov    rdi,rbx
  4051d3:	e8 a8 fb ff ff       	call   404d80 <fwrite@plt+0x3c20>
  4051d8:	48 89 df             	mov    rdi,rbx
  4051db:	e8 20 c8 ff ff       	call   401a00 <fwrite@plt+0x8a0>
  4051e0:	48 89 df             	mov    rdi,rbx
  4051e3:	e8 18 c9 ff ff       	call   401b00 <fwrite@plt+0x9a0>
  4051e8:	c6 05 39 7f 00 00 00 	mov    BYTE PTR [rip+0x7f39],0x0        # 40d128 <stderr@@GLIBC_2.2.5+0x28>
  4051ef:	48 8b 3d 1a 7f 00 00 	mov    rdi,QWORD PTR [rip+0x7f1a]        # 40d110 <stderr@@GLIBC_2.2.5+0x10>
  4051f6:	e8 35 be ff ff       	call   401030 <free@plt>
  4051fb:	48 8b 3d 2e 7f 00 00 	mov    rdi,QWORD PTR [rip+0x7f2e]        # 40d130 <stderr@@GLIBC_2.2.5+0x30>
  405202:	e8 29 be ff ff       	call   401030 <free@plt>
  405207:	48 8b 3d 0a 7f 00 00 	mov    rdi,QWORD PTR [rip+0x7f0a]        # 40d118 <stderr@@GLIBC_2.2.5+0x18>
  40520e:	e8 1d be ff ff       	call   401030 <free@plt>
  405213:	48 8b 3d 06 7f 00 00 	mov    rdi,QWORD PTR [rip+0x7f06]        # 40d120 <stderr@@GLIBC_2.2.5+0x20>
  40521a:	e8 11 be ff ff       	call   401030 <free@plt>
  40521f:	31 c0                	xor    eax,eax
  405221:	5b                   	pop    rbx
  405222:	c3                   	ret    
  405223:	66 2e 0f 1f 84 00 00 	cs nop WORD PTR [rax+rax*1+0x0]
  40522a:	00 00 00 
  40522d:	0f 1f 00             	nop    DWORD PTR [rax]
  405230:	48 8b 87 80 02 00 00 	mov    rax,QWORD PTR [rdi+0x280]
  405237:	48 0f af 87 78 02 00 	imul   rax,QWORD PTR [rdi+0x278]
  40523e:	00 
  40523f:	48 8d 04 c0          	lea    rax,[rax+rax*8]
  405243:	48 8d 04 c6          	lea    rax,[rsi+rax*8]
  405247:	48 89 05 ea 7e 00 00 	mov    QWORD PTR [rip+0x7eea],rax        # 40d138 <stderr@@GLIBC_2.2.5+0x38>
  40524e:	c3                   	ret    
  40524f:	90                   	nop
  405250:	48 85 f6             	test   rsi,rsi
  405253:	78 12                	js     405267 <fwrite@plt+0x4107>
  405255:	48 85 f6             	test   rsi,rsi
  405258:	74 1a                	je     405274 <fwrite@plt+0x4114>
  40525a:	0f b7 4f 20          	movzx  ecx,WORD PTR [rdi+0x20]
  40525e:	31 c0                	xor    eax,eax
  405260:	83 f9 02             	cmp    ecx,0x2
  405263:	0f 94 c0             	sete   al
  405266:	c3                   	ret    
  405267:	0f b7 4f 20          	movzx  ecx,WORD PTR [rdi+0x20]
  40526b:	31 c0                	xor    eax,eax
  40526d:	83 f9 01             	cmp    ecx,0x1
  405270:	0f 94 c0             	sete   al
  405273:	c3                   	ret    
  405274:	31 c0                	xor    eax,eax
  405276:	c3                   	ret    
  405277:	66 0f 1f 84 00 00 00 	nop    WORD PTR [rax+rax*1+0x0]
  40527e:	00 00 
  405280:	48 8b 17             	mov    rdx,QWORD PTR [rdi]
  405283:	48 8b 0e             	mov    rcx,QWORD PTR [rsi]
  405286:	48 8b 71 10          	mov    rsi,QWORD PTR [rcx+0x10]
  40528a:	b8 01 00 00 00       	mov    eax,0x1
  40528f:	48 39 72 10          	cmp    QWORD PTR [rdx+0x10],rsi
  405293:	7c 1c                	jl     4052b1 <fwrite@plt+0x4151>
  405295:	b8 ff ff ff ff       	mov    eax,0xffffffff
  40529a:	7f 15                	jg     4052b1 <fwrite@plt+0x4151>
  40529c:	48 8b 02             	mov    rax,QWORD PTR [rdx]
  40529f:	8b 00                	mov    eax,DWORD PTR [rax]
  4052a1:	48 8b 09             	mov    rcx,QWORD PTR [rcx]
  4052a4:	31 d2                	xor    edx,edx
  4052a6:	3b 01                	cmp    eax,DWORD PTR [rcx]
  4052a8:	0f 9f c2             	setg   dl
  4052ab:	8d 04 12             	lea    eax,[rdx+rdx*1]
  4052ae:	83 c0 ff             	add    eax,0xffffffff
  4052b1:	c3                   	ret    
  4052b2:	66 2e 0f 1f 84 00 00 	cs nop WORD PTR [rax+rax*1+0x0]
  4052b9:	00 00 00 
  4052bc:	0f 1f 40 00          	nop    DWORD PTR [rax+0x0]
  4052c0:	55                   	push   rbp
  4052c1:	41 57                	push   r15
  4052c3:	41 56                	push   r14
  4052c5:	41 55                	push   r13
  4052c7:	41 54                	push   r12
  4052c9:	53                   	push   rbx
  4052ca:	48 83 ec 38          	sub    rsp,0x38
  4052ce:	4d 89 c6             	mov    r14,r8
  4052d1:	48 89 54 24 10       	mov    QWORD PTR [rsp+0x10],rdx
  4052d6:	48 89 34 24          	mov    QWORD PTR [rsp],rsi
  4052da:	4c 8b ac 24 88 00 00 	mov    r13,QWORD PTR [rsp+0x88]
  4052e1:	00 
  4052e2:	4c 8b bc 24 80 00 00 	mov    r15,QWORD PTR [rsp+0x80]
  4052e9:	00 
  4052ea:	4c 8b 5c 24 78       	mov    r11,QWORD PTR [rsp+0x78]
  4052ef:	4c 8b 54 24 70       	mov    r10,QWORD PTR [rsp+0x70]
  4052f4:	4d 63 c9             	movsxd r9,r9d
  4052f7:	bd 01 00 00 00       	mov    ebp,0x1
  4052fc:	31 f6                	xor    esi,esi
  4052fe:	eb 10                	jmp    405310 <fwrite@plt+0x41b0>
  405300:	0f b7 43 20          	movzx  eax,WORD PTR [rbx+0x20]
  405304:	83 f8 01             	cmp    eax,0x1
  405307:	74 3d                	je     405346 <fwrite@plt+0x41e6>
  405309:	eb 66                	jmp    405371 <fwrite@plt+0x4211>
  40530b:	0f 1f 44 00 00       	nop    DWORD PTR [rax+rax*1+0x0]
  405310:	4a 3b 2c c9          	cmp    rbp,QWORD PTR [rcx+r9*8]
  405314:	7f 65                	jg     40537b <fwrite@plt+0x421b>
  405316:	49 8b 04 ee          	mov    rax,QWORD PTR [r14+rbp*8]
  40531a:	48 83 78 18 00       	cmp    QWORD PTR [rax+0x18],0x0
  40531f:	7e 50                	jle    405371 <fwrite@plt+0x4211>
  405321:	48 8b 18             	mov    rbx,QWORD PTR [rax]
  405324:	48 8b 7b 08          	mov    rdi,QWORD PTR [rbx+0x8]
  405328:	48 8b 43 10          	mov    rax,QWORD PTR [rbx+0x10]
  40532c:	48 2b 38             	sub    rdi,QWORD PTR [rax]
  40532f:	48 8b 43 18          	mov    rax,QWORD PTR [rbx+0x18]
  405333:	48 03 38             	add    rdi,QWORD PTR [rax]
  405336:	48 85 ff             	test   rdi,rdi
  405339:	78 c5                	js     405300 <fwrite@plt+0x41a0>
  40533b:	74 34                	je     405371 <fwrite@plt+0x4211>
  40533d:	0f b7 43 20          	movzx  eax,WORD PTR [rbx+0x20]
  405341:	83 f8 02             	cmp    eax,0x2
  405344:	75 2b                	jne    405371 <fwrite@plt+0x4211>
  405346:	48 89 f8             	mov    rax,rdi
  405349:	48 f7 d8             	neg    rax
  40534c:	48 0f 4c c7          	cmovl  rax,rdi
  405350:	49 8b 54 f6 08       	mov    rdx,QWORD PTR [r14+rsi*8+0x8]
  405355:	48 89 1a             	mov    QWORD PTR [rdx],rbx
  405358:	49 8b 54 f6 08       	mov    rdx,QWORD PTR [r14+rsi*8+0x8]
  40535d:	48 8d 76 01          	lea    rsi,[rsi+0x1]
  405361:	48 89 7a 08          	mov    QWORD PTR [rdx+0x8],rdi
  405365:	48 89 42 10          	mov    QWORD PTR [rdx+0x10],rax
  405369:	48 c7 42 18 00 00 00 	mov    QWORD PTR [rdx+0x18],0x0
  405370:	00 
  405371:	48 83 c5 01          	add    rbp,0x1
  405375:	48 83 fd 3d          	cmp    rbp,0x3d
  405379:	72 95                	jb     405310 <fwrite@plt+0x41b0>
  40537b:	4a 89 34 c9          	mov    QWORD PTR [rcx+r9*8],rsi
  40537f:	4d 8b 02             	mov    r8,QWORD PTR [r10]
  405382:	48 8b 05 af 7d 00 00 	mov    rax,QWORD PTR [rip+0x7daf]        # 40d138 <stderr@@GLIBC_2.2.5+0x38>
  405389:	48 89 44 24 08       	mov    QWORD PTR [rsp+0x8],rax
  40538e:	4d 85 ff             	test   r15,r15
  405391:	0f 8e 8c 03 00 00    	jle    405723 <fwrite@plt+0x45c3>
  405397:	49 8d 57 f0          	lea    rdx,[r15-0x10]
  40539b:	48 c1 ea 04          	shr    rdx,0x4
  40539f:	8d 72 01             	lea    esi,[rdx+0x1]
  4053a2:	4c 89 f8             	mov    rax,r15
  4053a5:	48 83 e0 f0          	and    rax,0xfffffffffffffff0
  4053a9:	48 89 44 24 28       	mov    QWORD PTR [rsp+0x28],rax
  4053ae:	83 e6 01             	and    esi,0x1
  4053b1:	4a 8d 04 fd 00 00 00 	lea    rax,[r15*8+0x0]
  4053b8:	00 
  4053b9:	4c 8d 24 c0          	lea    r12,[rax+rax*8]
  4053bd:	48 89 74 24 30       	mov    QWORD PTR [rsp+0x30],rsi
  4053c2:	48 8d 46 ff          	lea    rax,[rsi-0x1]
  4053c6:	48 89 54 24 20       	mov    QWORD PTR [rsp+0x20],rdx
  4053cb:	48 29 d0             	sub    rax,rdx
  4053ce:	48 89 44 24 18       	mov    QWORD PTR [rsp+0x18],rax
  4053d3:	4b 8d 14 db          	lea    rdx,[r11+r11*8]
  4053d7:	4f 8d 6c ed 00       	lea    r13,[r13+r13*8+0x0]
  4053dc:	4c 89 c6             	mov    rsi,r8
  4053df:	90                   	nop
  4053e0:	48 8d 2c d6          	lea    rbp,[rsi+rdx*8]
  4053e4:	48 3b 74 24 08       	cmp    rsi,QWORD PTR [rsp+0x8]
  4053e9:	4a 8d 04 ee          	lea    rax,[rsi+r13*8]
  4053ed:	4a 8d 74 ee b8       	lea    rsi,[rsi+r13*8-0x48]
  4053f2:	48 0f 42 f0          	cmovb  rsi,rax
  4053f6:	49 89 32             	mov    QWORD PTR [r10],rsi
  4053f9:	48 39 f5             	cmp    rbp,rsi
  4053fc:	72 3a                	jb     405438 <fwrite@plt+0x42d8>
  4053fe:	66 90                	xchg   ax,ax
  405400:	48 3b 74 24 10       	cmp    rsi,QWORD PTR [rsp+0x10]
  405405:	72 07                	jb     40540e <fwrite@plt+0x42ae>
  405407:	48 8b 34 24          	mov    rsi,QWORD PTR [rsp]
  40540b:	49 89 32             	mov    QWORD PTR [r10],rsi
  40540e:	4c 39 c6             	cmp    rsi,r8
  405411:	0f 84 1f 04 00 00    	je     405836 <fwrite@plt+0x46d6>
  405417:	49 83 ff 10          	cmp    r15,0x10
  40541b:	0f 83 af 00 00 00    	jae    4054d0 <fwrite@plt+0x4370>
  405421:	31 ff                	xor    edi,edi
  405423:	31 ed                	xor    ebp,ebp
  405425:	e9 b6 02 00 00       	jmp    4056e0 <fwrite@plt+0x4580>
  40542a:	66 0f 1f 44 00 00    	nop    WORD PTR [rax+rax*1+0x0]
  405430:	4c 01 e5             	add    rbp,r12
  405433:	48 39 f5             	cmp    rbp,rsi
  405436:	73 c8                	jae    405400 <fwrite@plt+0x42a0>
  405438:	0f b7 5d 20          	movzx  ebx,WORD PTR [rbp+0x20]
  40543c:	66 85 db             	test   bx,bx
  40543f:	7e ef                	jle    405430 <fwrite@plt+0x42d0>
  405441:	48 8b 7d 08          	mov    rdi,QWORD PTR [rbp+0x8]
  405445:	48 8b 45 10          	mov    rax,QWORD PTR [rbp+0x10]
  405449:	48 2b 38             	sub    rdi,QWORD PTR [rax]
  40544c:	48 8b 45 18          	mov    rax,QWORD PTR [rbp+0x18]
  405450:	48 03 38             	add    rdi,QWORD PTR [rax]
  405453:	78 1b                	js     405470 <fwrite@plt+0x4310>
  405455:	48 85 ff             	test   rdi,rdi
  405458:	74 d6                	je     405430 <fwrite@plt+0x42d0>
  40545a:	0f b7 c3             	movzx  eax,bx
  40545d:	83 f8 02             	cmp    eax,0x2
  405460:	74 16                	je     405478 <fwrite@plt+0x4318>
  405462:	eb cc                	jmp    405430 <fwrite@plt+0x42d0>
  405464:	66 2e 0f 1f 84 00 00 	cs nop WORD PTR [rax+rax*1+0x0]
  40546b:	00 00 00 
  40546e:	66 90                	xchg   ax,ax
  405470:	0f b7 c3             	movzx  eax,bx
  405473:	83 f8 01             	cmp    eax,0x1
  405476:	75 b8                	jne    405430 <fwrite@plt+0x42d0>
  405478:	48 89 f8             	mov    rax,rdi
  40547b:	48 f7 d8             	neg    rax
  40547e:	48 0f 4c c7          	cmovl  rax,rdi
  405482:	4a 8b 34 c9          	mov    rsi,QWORD PTR [rcx+r9*8]
  405486:	48 8d 5e 01          	lea    rbx,[rsi+0x1]
  40548a:	4a 89 1c c9          	mov    QWORD PTR [rcx+r9*8],rbx
  40548e:	49 8b 5c f6 08       	mov    rbx,QWORD PTR [r14+rsi*8+0x8]
  405493:	48 89 2b             	mov    QWORD PTR [rbx],rbp
  405496:	49 8b 74 f6 08       	mov    rsi,QWORD PTR [r14+rsi*8+0x8]
  40549b:	48 89 7e 08          	mov    QWORD PTR [rsi+0x8],rdi
  40549f:	4a 8b 34 c9          	mov    rsi,QWORD PTR [rcx+r9*8]
  4054a3:	49 8b 34 f6          	mov    rsi,QWORD PTR [r14+rsi*8]
  4054a7:	48 89 46 10          	mov    QWORD PTR [rsi+0x10],rax
  4054ab:	4a 8b 04 c9          	mov    rax,QWORD PTR [rcx+r9*8]
  4054af:	49 8b 04 c6          	mov    rax,QWORD PTR [r14+rax*8]
  4054b3:	48 c7 40 18 00 00 00 	mov    QWORD PTR [rax+0x18],0x0
  4054ba:	00 
  4054bb:	49 8b 32             	mov    rsi,QWORD PTR [r10]
  4054be:	e9 6d ff ff ff       	jmp    405430 <fwrite@plt+0x42d0>
  4054c3:	66 2e 0f 1f 84 00 00 	cs nop WORD PTR [rax+rax*1+0x0]
  4054ca:	00 00 00 
  4054cd:	0f 1f 00             	nop    DWORD PTR [rax]
  4054d0:	48 89 d3             	mov    rbx,rdx
  4054d3:	48 83 7c 24 20 00    	cmp    QWORD PTR [rsp+0x20],0x0
  4054d9:	0f 84 1d 02 00 00    	je     4056fc <fwrite@plt+0x459c>
  4054df:	c4 41 39 ef c0       	vpxor  xmm8,xmm8,xmm8
  4054e4:	48 8b 6c 24 18       	mov    rbp,QWORD PTR [rsp+0x18]
  4054e9:	45 31 db             	xor    r11d,r11d
  4054ec:	c5 e1 ef db          	vpxor  xmm3,xmm3,xmm3
  4054f0:	c4 41 31 ef c9       	vpxor  xmm9,xmm9,xmm9
  4054f5:	c4 41 29 ef d2       	vpxor  xmm10,xmm10,xmm10
  4054fa:	66 0f 1f 44 00 00    	nop    WORD PTR [rax+rax*1+0x0]
  405500:	c4 a1 7e 6f 24 d9    	vmovdqu ymm4,YMMWORD PTR [rcx+r11*8]
  405506:	c4 a1 7e 6f 6c d9 20 	vmovdqu ymm5,YMMWORD PTR [rcx+r11*8+0x20]
  40550d:	c4 a1 7e 6f 74 d9 40 	vmovdqu ymm6,YMMWORD PTR [rcx+r11*8+0x40]
  405514:	c4 a1 7e 6f 7c d9 60 	vmovdqu ymm7,YMMWORD PTR [rcx+r11*8+0x60]
  40551b:	c4 41 59 d4 d8       	vpaddq xmm11,xmm4,xmm8
  405520:	c4 e3 7d 19 e4 01    	vextractf128 xmm4,ymm4,0x1
  405526:	c4 63 7d 19 c1 01    	vextractf128 xmm1,ymm8,0x1
  40552c:	c5 d9 d4 c9          	vpaddq xmm1,xmm4,xmm1
  405530:	c5 51 d4 eb          	vpaddq xmm13,xmm5,xmm3
  405534:	c4 e3 7d 19 ed 01    	vextractf128 xmm5,ymm5,0x1
  40553a:	c4 e3 7d 19 db 01    	vextractf128 xmm3,ymm3,0x1
  405540:	c5 d1 d4 db          	vpaddq xmm3,xmm5,xmm3
  405544:	c4 c1 49 d4 e9       	vpaddq xmm5,xmm6,xmm9
  405549:	c4 e3 7d 19 f6 01    	vextractf128 xmm6,ymm6,0x1
  40554f:	c4 63 7d 19 ca 01    	vextractf128 xmm2,ymm9,0x1
  405555:	c5 c9 d4 d2          	vpaddq xmm2,xmm6,xmm2
  405559:	c4 c1 41 d4 f2       	vpaddq xmm6,xmm7,xmm10
  40555e:	c4 e3 7d 19 ff 01    	vextractf128 xmm7,ymm7,0x1
  405564:	c4 63 7d 19 d0 01    	vextractf128 xmm0,ymm10,0x1
  40556a:	c5 c1 d4 c0          	vpaddq xmm0,xmm7,xmm0
  40556e:	c4 a1 7e 6f bc d9 80 	vmovdqu ymm7,YMMWORD PTR [rcx+r11*8+0x80]
  405575:	00 00 00 
  405578:	c4 21 7e 6f 8c d9 a0 	vmovdqu ymm9,YMMWORD PTR [rcx+r11*8+0xa0]
  40557f:	00 00 00 
  405582:	c4 21 7e 6f 94 d9 c0 	vmovdqu ymm10,YMMWORD PTR [rcx+r11*8+0xc0]
  405589:	00 00 00 
  40558c:	c4 21 7e 6f a4 d9 e0 	vmovdqu ymm12,YMMWORD PTR [rcx+r11*8+0xe0]
  405593:	00 00 00 
  405596:	c4 e3 7d 19 fc 01    	vextractf128 xmm4,ymm7,0x1
  40559c:	c5 d9 d4 c9          	vpaddq xmm1,xmm4,xmm1
  4055a0:	c4 c1 41 d4 e3       	vpaddq xmm4,xmm7,xmm11
  4055a5:	c4 63 5d 18 c1 01    	vinsertf128 ymm8,ymm4,xmm1,0x1
  4055ab:	c4 63 7d 19 c9 01    	vextractf128 xmm1,ymm9,0x1
  4055b1:	c5 f1 d4 cb          	vpaddq xmm1,xmm1,xmm3
  4055b5:	c4 c1 31 d4 dd       	vpaddq xmm3,xmm9,xmm13
  4055ba:	c4 e3 65 18 d9 01    	vinsertf128 ymm3,ymm3,xmm1,0x1
  4055c0:	c4 63 7d 19 d1 01    	vextractf128 xmm1,ymm10,0x1
  4055c6:	c5 f1 d4 ca          	vpaddq xmm1,xmm1,xmm2
  4055ca:	c5 a9 d4 d5          	vpaddq xmm2,xmm10,xmm5
  4055ce:	c4 63 6d 18 c9 01    	vinsertf128 ymm9,ymm2,xmm1,0x1
  4055d4:	c4 63 7d 19 e1 01    	vextractf128 xmm1,ymm12,0x1
  4055da:	c5 f1 d4 c0          	vpaddq xmm0,xmm1,xmm0
  4055de:	c5 99 d4 ce          	vpaddq xmm1,xmm12,xmm6
  4055e2:	c4 63 75 18 d0 01    	vinsertf128 ymm10,ymm1,xmm0,0x1
  4055e8:	49 83 c3 20          	add    r11,0x20
  4055ec:	48 83 c5 02          	add    rbp,0x2
  4055f0:	0f 85 0a ff ff ff    	jne    405500 <fwrite@plt+0x43a0>
  4055f6:	48 83 7c 24 30 00    	cmp    QWORD PTR [rsp+0x30],0x0
  4055fc:	0f 84 86 00 00 00    	je     405688 <fwrite@plt+0x4528>
  405602:	c4 a1 7e 6f 24 d9    	vmovdqu ymm4,YMMWORD PTR [rcx+r11*8]
  405608:	c4 a1 7e 6f 44 d9 20 	vmovdqu ymm0,YMMWORD PTR [rcx+r11*8+0x20]
  40560f:	c4 a1 7e 6f 4c d9 40 	vmovdqu ymm1,YMMWORD PTR [rcx+r11*8+0x40]
  405616:	c4 a1 7e 6f 54 d9 60 	vmovdqu ymm2,YMMWORD PTR [rcx+r11*8+0x60]
  40561d:	c4 e3 7d 19 d5 01    	vextractf128 xmm5,ymm2,0x1
  405623:	c4 63 7d 19 d6 01    	vextractf128 xmm6,ymm10,0x1
  405629:	c5 d1 d4 ee          	vpaddq xmm5,xmm5,xmm6
  40562d:	c4 c1 69 d4 d2       	vpaddq xmm2,xmm2,xmm10
  405632:	c4 63 6d 18 d5 01    	vinsertf128 ymm10,ymm2,xmm5,0x1
  405638:	c4 e3 7d 19 ca 01    	vextractf128 xmm2,ymm1,0x1
  40563e:	c4 63 7d 19 cd 01    	vextractf128 xmm5,ymm9,0x1
  405644:	c5 e9 d4 d5          	vpaddq xmm2,xmm2,xmm5
  405648:	c4 c1 71 d4 c9       	vpaddq xmm1,xmm1,xmm9
  40564d:	c4 63 75 18 ca 01    	vinsertf128 ymm9,ymm1,xmm2,0x1
  405653:	c4 e3 7d 19 c1 01    	vextractf128 xmm1,ymm0,0x1
  405659:	c4 e3 7d 19 da 01    	vextractf128 xmm2,ymm3,0x1
  40565f:	c5 f1 d4 ca          	vpaddq xmm1,xmm1,xmm2
  405663:	c5 f9 d4 c3          	vpaddq xmm0,xmm0,xmm3
  405667:	c4 e3 7d 18 d9 01    	vinsertf128 ymm3,ymm0,xmm1,0x1
  40566d:	c4 e3 7d 19 e0 01    	vextractf128 xmm0,ymm4,0x1
  405673:	c4 63 7d 19 c1 01    	vextractf128 xmm1,ymm8,0x1
  405679:	c5 f9 d4 c1          	vpaddq xmm0,xmm0,xmm1
  40567d:	c4 c1 59 d4 c8       	vpaddq xmm1,xmm4,xmm8
  405682:	c4 63 75 18 c0 01    	vinsertf128 ymm8,ymm1,xmm0,0x1
  405688:	c4 63 7d 19 c0 01    	vextractf128 xmm0,ymm8,0x1
  40568e:	c4 e3 7d 19 d9 01    	vextractf128 xmm1,ymm3,0x1
  405694:	c5 f1 d4 c0          	vpaddq xmm0,xmm1,xmm0
  405698:	c4 c1 61 d4 c8       	vpaddq xmm1,xmm3,xmm8
  40569d:	c4 63 7d 19 ca 01    	vextractf128 xmm2,ymm9,0x1
  4056a3:	c4 63 7d 19 d3 01    	vextractf128 xmm3,ymm10,0x1
  4056a9:	c5 e9 d4 d3          	vpaddq xmm2,xmm2,xmm3
  4056ad:	c5 f9 d4 c2          	vpaddq xmm0,xmm0,xmm2
  4056b1:	c4 c1 31 d4 d2       	vpaddq xmm2,xmm9,xmm10
  4056b6:	c5 f1 d4 ca          	vpaddq xmm1,xmm1,xmm2
  4056ba:	c5 f1 d4 c0          	vpaddq xmm0,xmm1,xmm0
  4056be:	c5 f9 70 c8 4e       	vpshufd xmm1,xmm0,0x4e
  4056c3:	c5 f9 d4 c1          	vpaddq xmm0,xmm0,xmm1
  4056c7:	c4 e1 f9 7e c7       	vmovq  rdi,xmm0
  4056cc:	48 8b 44 24 28       	mov    rax,QWORD PTR [rsp+0x28]
  4056d1:	48 89 c5             	mov    rbp,rax
  4056d4:	4c 39 f8             	cmp    rax,r15
  4056d7:	48 89 da             	mov    rdx,rbx
  4056da:	74 11                	je     4056ed <fwrite@plt+0x458d>
  4056dc:	0f 1f 40 00          	nop    DWORD PTR [rax+0x0]
  4056e0:	48 03 3c e9          	add    rdi,QWORD PTR [rcx+rbp*8]
  4056e4:	48 83 c5 01          	add    rbp,0x1
  4056e8:	49 39 ef             	cmp    r15,rbp
  4056eb:	75 f3                	jne    4056e0 <fwrite@plt+0x4580>
  4056ed:	48 83 ff 3b          	cmp    rdi,0x3b
  4056f1:	0f 8e e9 fc ff ff    	jle    4053e0 <fwrite@plt+0x4280>
  4056f7:	e9 3a 01 00 00       	jmp    405836 <fwrite@plt+0x46d6>
  4056fc:	c4 41 39 ef c0       	vpxor  xmm8,xmm8,xmm8
  405701:	45 31 db             	xor    r11d,r11d
  405704:	c5 e1 ef db          	vpxor  xmm3,xmm3,xmm3
  405708:	c4 41 31 ef c9       	vpxor  xmm9,xmm9,xmm9
  40570d:	c4 41 29 ef d2       	vpxor  xmm10,xmm10,xmm10
  405712:	48 83 7c 24 30 00    	cmp    QWORD PTR [rsp+0x30],0x0
  405718:	0f 85 e4 fe ff ff    	jne    405602 <fwrite@plt+0x44a2>
  40571e:	e9 65 ff ff ff       	jmp    405688 <fwrite@plt+0x4528>
  405723:	49 c1 e7 03          	shl    r15,0x3
  405727:	4b 8d 3c ff          	lea    rdi,[r15+r15*8]
  40572b:	4f 8d 1c db          	lea    r11,[r11+r11*8]
  40572f:	4e 8d 3c ed 00 00 00 	lea    r15,[r13*8+0x0]
  405736:	00 
  405737:	4d 01 ef             	add    r15,r13
  40573a:	4c 89 c5             	mov    rbp,r8
  40573d:	e9 ae 00 00 00       	jmp    4057f0 <fwrite@plt+0x4690>
  405742:	66 2e 0f 1f 84 00 00 	cs nop WORD PTR [rax+rax*1+0x0]
  405749:	00 00 00 
  40574c:	0f 1f 40 00          	nop    DWORD PTR [rax+0x0]
  405750:	48 01 fe             	add    rsi,rdi
  405753:	48 39 ee             	cmp    rsi,rbp
  405756:	0f 83 c4 00 00 00    	jae    405820 <fwrite@plt+0x46c0>
  40575c:	0f b7 46 20          	movzx  eax,WORD PTR [rsi+0x20]
  405760:	66 85 c0             	test   ax,ax
  405763:	7e eb                	jle    405750 <fwrite@plt+0x45f0>
  405765:	48 8b 5e 08          	mov    rbx,QWORD PTR [rsi+0x8]
  405769:	48 8b 56 10          	mov    rdx,QWORD PTR [rsi+0x10]
  40576d:	48 2b 1a             	sub    rbx,QWORD PTR [rdx]
  405770:	48 8b 56 18          	mov    rdx,QWORD PTR [rsi+0x18]
  405774:	48 03 1a             	add    rbx,QWORD PTR [rdx]
  405777:	78 17                	js     405790 <fwrite@plt+0x4630>
  405779:	48 85 db             	test   rbx,rbx
  40577c:	74 d2                	je     405750 <fwrite@plt+0x45f0>
  40577e:	0f b7 c0             	movzx  eax,ax
  405781:	83 f8 02             	cmp    eax,0x2
  405784:	74 12                	je     405798 <fwrite@plt+0x4638>
  405786:	eb c8                	jmp    405750 <fwrite@plt+0x45f0>
  405788:	0f 1f 84 00 00 00 00 	nop    DWORD PTR [rax+rax*1+0x0]
  40578f:	00 
  405790:	0f b7 c0             	movzx  eax,ax
  405793:	83 f8 01             	cmp    eax,0x1
  405796:	75 b8                	jne    405750 <fwrite@plt+0x45f0>
  405798:	48 89 d8             	mov    rax,rbx
  40579b:	48 f7 d8             	neg    rax
  40579e:	48 0f 4c c3          	cmovl  rax,rbx
  4057a2:	4a 8b 14 c9          	mov    rdx,QWORD PTR [rcx+r9*8]
  4057a6:	48 8d 6a 01          	lea    rbp,[rdx+0x1]
  4057aa:	4a 89 2c c9          	mov    QWORD PTR [rcx+r9*8],rbp
  4057ae:	49 8b 6c d6 08       	mov    rbp,QWORD PTR [r14+rdx*8+0x8]
  4057b3:	48 89 75 00          	mov    QWORD PTR [rbp+0x0],rsi
  4057b7:	49 8b 54 d6 08       	mov    rdx,QWORD PTR [r14+rdx*8+0x8]
  4057bc:	48 89 5a 08          	mov    QWORD PTR [rdx+0x8],rbx
  4057c0:	4a 8b 14 c9          	mov    rdx,QWORD PTR [rcx+r9*8]
  4057c4:	49 8b 14 d6          	mov    rdx,QWORD PTR [r14+rdx*8]
  4057c8:	48 89 42 10          	mov    QWORD PTR [rdx+0x10],rax
  4057cc:	4a 8b 04 c9          	mov    rax,QWORD PTR [rcx+r9*8]
  4057d0:	49 8b 04 c6          	mov    rax,QWORD PTR [r14+rax*8]
  4057d4:	48 c7 40 18 00 00 00 	mov    QWORD PTR [rax+0x18],0x0
  4057db:	00 
  4057dc:	49 8b 2a             	mov    rbp,QWORD PTR [r10]
  4057df:	e9 6c ff ff ff       	jmp    405750 <fwrite@plt+0x45f0>
  4057e4:	66 2e 0f 1f 84 00 00 	cs nop WORD PTR [rax+rax*1+0x0]
  4057eb:	00 00 00 
  4057ee:	66 90                	xchg   ax,ax
  4057f0:	4a 8d 34 dd 00 00 00 	lea    rsi,[r11*8+0x0]
  4057f7:	00 
  4057f8:	48 01 ee             	add    rsi,rbp
  4057fb:	48 3b 6c 24 08       	cmp    rbp,QWORD PTR [rsp+0x8]
  405800:	4a 8d 44 fd 00       	lea    rax,[rbp+r15*8+0x0]
  405805:	4a 8d 6c fd b8       	lea    rbp,[rbp+r15*8-0x48]
  40580a:	48 0f 42 e8          	cmovb  rbp,rax
  40580e:	49 89 2a             	mov    QWORD PTR [r10],rbp
  405811:	48 39 ee             	cmp    rsi,rbp
  405814:	0f 82 42 ff ff ff    	jb     40575c <fwrite@plt+0x45fc>
  40581a:	66 0f 1f 44 00 00    	nop    WORD PTR [rax+rax*1+0x0]
  405820:	48 3b 6c 24 10       	cmp    rbp,QWORD PTR [rsp+0x10]
  405825:	72 0a                	jb     405831 <fwrite@plt+0x46d1>
  405827:	48 8b 04 24          	mov    rax,QWORD PTR [rsp]
  40582b:	49 89 02             	mov    QWORD PTR [r10],rax
  40582e:	48 89 c5             	mov    rbp,rax
  405831:	4c 39 c5             	cmp    rbp,r8
  405834:	75 ba                	jne    4057f0 <fwrite@plt+0x4690>
  405836:	4a 8b 04 c9          	mov    rax,QWORD PTR [rcx+r9*8]
  40583a:	49 8b 44 c6 08       	mov    rax,QWORD PTR [r14+rax*8+0x8]
  40583f:	48 c7 40 18 ff ff ff 	mov    QWORD PTR [rax+0x18],0xffffffffffffffff
  405846:	ff 
  405847:	4a 8b 34 c9          	mov    rsi,QWORD PTR [rcx+r9*8]
  40584b:	48 85 f6             	test   rsi,rsi
  40584e:	74 1c                	je     40586c <fwrite@plt+0x470c>
  405850:	49 8d 7e 08          	lea    rdi,[r14+0x8]
  405854:	ba 08 00 00 00       	mov    edx,0x8
  405859:	b9 80 52 40 00       	mov    ecx,0x405280
  40585e:	c5 f8 77             	vzeroupper 
  405861:	e8 1a 00 00 00       	call   405880 <fwrite@plt+0x4720>
  405866:	49 8b 46 08          	mov    rax,QWORD PTR [r14+0x8]
  40586a:	eb 02                	jmp    40586e <fwrite@plt+0x470e>
  40586c:	31 c0                	xor    eax,eax
  40586e:	48 83 c4 38          	add    rsp,0x38
  405872:	5b                   	pop    rbx
  405873:	41 5c                	pop    r12
  405875:	41 5d                	pop    r13
  405877:	41 5e                	pop    r14
  405879:	41 5f                	pop    r15
  40587b:	5d                   	pop    rbp
  40587c:	c5 f8 77             	vzeroupper 
  40587f:	c3                   	ret    
  405880:	55                   	push   rbp
  405881:	41 57                	push   r15
  405883:	41 56                	push   r14
  405885:	41 55                	push   r13
  405887:	41 54                	push   r12
  405889:	53                   	push   rbx
  40588a:	48 81 ec 98 01 00 00 	sub    rsp,0x198
  405891:	48 89 4c 24 30       	mov    QWORD PTR [rsp+0x30],rcx
  405896:	49 89 d5             	mov    r13,rdx
  405899:	49 89 f7             	mov    r15,rsi
  40589c:	49 89 fa             	mov    r10,rdi
  40589f:	48 89 d0             	mov    rax,rdx
  4058a2:	48 f7 d8             	neg    rax
  4058a5:	48 89 44 24 50       	mov    QWORD PTR [rsp+0x50],rax
  4058aa:	48 89 f8             	mov    rax,rdi
  4058ad:	48 09 d0             	or     rax,rdx
  4058b0:	31 ff                	xor    edi,edi
  4058b2:	48 83 fa 08          	cmp    rdx,0x8
  4058b6:	40 0f 95 c7          	setne  dil
  4058ba:	a8 07                	test   al,0x7
  4058bc:	0f 94 44 24 0f       	sete   BYTE PTR [rsp+0xf]
  4058c1:	ba 02 00 00 00       	mov    edx,0x2
  4058c6:	b9 02 00 00 00       	mov    ecx,0x2
  4058cb:	0f 44 cf             	cmove  ecx,edi
  4058ce:	89 4c 24 68          	mov    DWORD PTR [rsp+0x68],ecx
  4058d2:	31 c9                	xor    ecx,ecx
  4058d4:	49 83 fd 04          	cmp    r13,0x4
  4058d8:	0f 95 c1             	setne  cl
  4058db:	a8 03                	test   al,0x3
  4058dd:	0f 94 44 24 0e       	sete   BYTE PTR [rsp+0xe]
  4058e2:	0f 44 d1             	cmove  edx,ecx
  4058e5:	89 54 24 6c          	mov    DWORD PTR [rsp+0x6c],edx
  4058e9:	48 83 fe 07          	cmp    rsi,0x7
  4058ed:	4c 89 6c 24 20       	mov    QWORD PTR [rsp+0x20],r13
  4058f2:	73 08                	jae    4058fc <fwrite@plt+0x479c>
  4058f4:	4d 89 d0             	mov    r8,r10
  4058f7:	e9 5a 28 00 00       	jmp    408156 <fwrite@plt+0x6ff6>
  4058fc:	89 8c 24 68 01 00 00 	mov    DWORD PTR [rsp+0x168],ecx
  405903:	48 be fe ff ff ff ff 	movabs rsi,0x3ffffffffffffffe
  40590a:	ff ff 3f 
  40590d:	49 b9 fe ff ff ff ff 	movabs r9,0x1ffffffffffffffe
  405914:	ff ff 1f 
  405917:	89 bc 24 70 01 00 00 	mov    DWORD PTR [rsp+0x170],edi
  40591e:	4d 63 e5             	movsxd r12,r13d
  405921:	4c 89 e5             	mov    rbp,r12
  405924:	48 c1 ed 03          	shr    rbp,0x3
  405928:	4c 89 e3             	mov    rbx,r12
  40592b:	48 c1 eb 02          	shr    rbx,0x2
  40592f:	49 8d 51 01          	lea    rdx,[r9+0x1]
  405933:	31 c0                	xor    eax,eax
  405935:	48 85 ed             	test   rbp,rbp
  405938:	0f 94 c0             	sete   al
  40593b:	48 89 94 24 40 01 00 	mov    QWORD PTR [rsp+0x140],rdx
  405942:	00 
  405943:	4c 0f 44 ca          	cmove  r9,rdx
  405947:	48 83 c8 fe          	or     rax,0xfffffffffffffffe
  40594b:	48 8d 3c 28          	lea    rdi,[rax+rbp*1]
  40594f:	48 83 c7 02          	add    rdi,0x2
  405953:	48 89 7c 24 58       	mov    QWORD PTR [rsp+0x58],rdi
  405958:	49 01 e9             	add    r9,rbp
  40595b:	89 fa                	mov    edx,edi
  40595d:	83 e2 07             	and    edx,0x7
  405960:	48 29 d7             	sub    rdi,rdx
  405963:	48 89 bc 24 f0 00 00 	mov    QWORD PTR [rsp+0xf0],rdi
  40596a:	00 
  40596b:	48 8d 7e 01          	lea    rdi,[rsi+0x1]
  40596f:	31 d2                	xor    edx,edx
  405971:	48 85 db             	test   rbx,rbx
  405974:	0f 94 c2             	sete   dl
  405977:	48 89 bc 24 38 01 00 	mov    QWORD PTR [rsp+0x138],rdi
  40597e:	00 
  40597f:	48 0f 44 f7          	cmove  rsi,rdi
  405983:	48 83 ca fe          	or     rdx,0xfffffffffffffffe
  405987:	4c 8d 1c 1a          	lea    r11,[rdx+rbx*1]
  40598b:	49 83 c3 02          	add    r11,0x2
  40598f:	44 89 df             	mov    edi,r11d
  405992:	83 e7 0f             	and    edi,0xf
  405995:	4c 89 d9             	mov    rcx,r11
  405998:	48 29 f9             	sub    rcx,rdi
  40599b:	48 89 8c 24 c0 00 00 	mov    QWORD PTR [rsp+0xc0],rcx
  4059a2:	00 
  4059a3:	48 01 de             	add    rsi,rbx
  4059a6:	4d 89 e0             	mov    r8,r12
  4059a9:	49 f7 d0             	not    r8
  4059ac:	49 83 f8 fd          	cmp    r8,0xfffffffffffffffd
  4059b0:	48 c7 c1 fe ff ff ff 	mov    rcx,0xfffffffffffffffe
  4059b7:	4c 0f 4e c1          	cmovle r8,rcx
  4059bb:	43 8d 3c 28          	lea    edi,[r8+r13*1]
  4059bf:	83 c7 02             	add    edi,0x2
  4059c2:	83 e7 3f             	and    edi,0x3f
  4059c5:	4f 8d 34 20          	lea    r14,[r8+r12*1]
  4059c9:	49 83 c6 02          	add    r14,0x2
  4059cd:	4c 89 f1             	mov    rcx,r14
  4059d0:	48 29 f9             	sub    rcx,rdi
  4059d3:	48 89 8c 24 b8 00 00 	mov    QWORD PTR [rsp+0xb8],rcx
  4059da:	00 
  4059db:	4a 8d 0c cd 10 00 00 	lea    rcx,[r9*8+0x10]
  4059e2:	00 
  4059e3:	48 89 8c 24 48 01 00 	mov    QWORD PTR [rsp+0x148],rcx
  4059ea:	00 
  4059eb:	48 8d 0c b5 08 00 00 	lea    rcx,[rsi*4+0x8]
  4059f2:	00 
  4059f3:	48 89 8c 24 50 01 00 	mov    QWORD PTR [rsp+0x150],rcx
  4059fa:	00 
  4059fb:	48 8d 0c 28          	lea    rcx,[rax+rbp*1]
  4059ff:	48 8d 0c cd 10 00 00 	lea    rcx,[rcx*8+0x10]
  405a06:	00 
  405a07:	48 89 8c 24 a0 00 00 	mov    QWORD PTR [rsp+0xa0],rcx
  405a0e:	00 
  405a0f:	4c 89 84 24 88 01 00 	mov    QWORD PTR [rsp+0x188],r8
  405a16:	00 
  405a17:	4b 8d 34 20          	lea    rsi,[r8+r12*1]
  405a1b:	48 83 c6 c2          	add    rsi,0xffffffffffffffc2
  405a1f:	48 c1 ee 06          	shr    rsi,0x6
  405a23:	4c 8d 04 1a          	lea    r8,[rdx+rbx*1]
  405a27:	48 01 da             	add    rdx,rbx
  405a2a:	48 83 c2 f2          	add    rdx,0xfffffffffffffff2
  405a2e:	48 c1 ea 04          	shr    rdx,0x4
  405a32:	48 01 e8             	add    rax,rbp
  405a35:	48 83 c0 fa          	add    rax,0xfffffffffffffffa
  405a39:	48 c1 e8 03          	shr    rax,0x3
  405a3d:	4c 8b 4c 24 58       	mov    r9,QWORD PTR [rsp+0x58]
  405a42:	49 83 e1 f8          	and    r9,0xfffffffffffffff8
  405a46:	48 89 ac 24 88 00 00 	mov    QWORD PTR [rsp+0x88],rbp
  405a4d:	00 
  405a4e:	4c 89 8c 24 10 01 00 	mov    QWORD PTR [rsp+0x110],r9
  405a55:	00 
  405a56:	4c 29 cd             	sub    rbp,r9
  405a59:	48 89 ac 24 d8 00 00 	mov    QWORD PTR [rsp+0xd8],rbp
  405a60:	00 
  405a61:	4c 89 9c 24 80 00 00 	mov    QWORD PTR [rsp+0x80],r11
  405a68:	00 
  405a69:	49 83 e3 f0          	and    r11,0xfffffffffffffff0
  405a6d:	48 89 5c 24 78       	mov    QWORD PTR [rsp+0x78],rbx
  405a72:	4c 89 74 24 60       	mov    QWORD PTR [rsp+0x60],r14
  405a77:	4c 89 9c 24 00 01 00 	mov    QWORD PTR [rsp+0x100],r11
  405a7e:	00 
  405a7f:	4c 29 db             	sub    rbx,r11
  405a82:	48 89 9c 24 b0 00 00 	mov    QWORD PTR [rsp+0xb0],rbx
  405a89:	00 
  405a8a:	49 83 e6 c0          	and    r14,0xffffffffffffffc0
  405a8e:	4c 89 64 24 70       	mov    QWORD PTR [rsp+0x70],r12
  405a93:	4c 89 b4 24 f8 00 00 	mov    QWORD PTR [rsp+0xf8],r14
  405a9a:	00 
  405a9b:	4d 29 f4             	sub    r12,r14
  405a9e:	4c 89 a4 24 a8 00 00 	mov    QWORD PTR [rsp+0xa8],r12
  405aa5:	00 
  405aa6:	48 8d 68 01          	lea    rbp,[rax+0x1]
  405aaa:	48 89 ef             	mov    rdi,rbp
  405aad:	48 89 ac 24 30 01 00 	mov    QWORD PTR [rsp+0x130],rbp
  405ab4:	00 
  405ab5:	83 e5 01             	and    ebp,0x1
  405ab8:	48 8d 5a 01          	lea    rbx,[rdx+0x1]
  405abc:	48 89 df             	mov    rdi,rbx
  405abf:	48 89 9c 24 28 01 00 	mov    QWORD PTR [rsp+0x128],rbx
  405ac6:	00 
  405ac7:	83 e3 01             	and    ebx,0x1
  405aca:	48 8d 4e 01          	lea    rcx,[rsi+0x1]
  405ace:	48 89 cf             	mov    rdi,rcx
  405ad1:	48 89 8c 24 20 01 00 	mov    QWORD PTR [rsp+0x120],rcx
  405ad8:	00 
  405ad9:	83 e1 01             	and    ecx,0x1
  405adc:	48 89 8c 24 90 01 00 	mov    QWORD PTR [rsp+0x190],rcx
  405ae3:	00 
  405ae4:	48 8d 49 ff          	lea    rcx,[rcx-0x1]
  405ae8:	48 89 b4 24 e8 00 00 	mov    QWORD PTR [rsp+0xe8],rsi
  405aef:	00 
  405af0:	48 29 f1             	sub    rcx,rsi
  405af3:	48 89 8c 24 d0 00 00 	mov    QWORD PTR [rsp+0xd0],rcx
  405afa:	00 
  405afb:	48 89 9c 24 80 01 00 	mov    QWORD PTR [rsp+0x180],rbx
  405b02:	00 
  405b03:	48 8d 4b ff          	lea    rcx,[rbx-0x1]
  405b07:	48 89 94 24 e0 00 00 	mov    QWORD PTR [rsp+0xe0],rdx
  405b0e:	00 
  405b0f:	48 29 d1             	sub    rcx,rdx
  405b12:	48 89 8c 24 c8 00 00 	mov    QWORD PTR [rsp+0xc8],rcx
  405b19:	00 
  405b1a:	48 89 ac 24 58 01 00 	mov    QWORD PTR [rsp+0x158],rbp
  405b21:	00 
  405b22:	48 8d 4d ff          	lea    rcx,[rbp-0x1]
  405b26:	48 89 84 24 18 01 00 	mov    QWORD PTR [rsp+0x118],rax
  405b2d:	00 
  405b2e:	48 29 c1             	sub    rcx,rax
  405b31:	48 89 8c 24 08 01 00 	mov    QWORD PTR [rsp+0x108],rcx
  405b38:	00 
  405b39:	4c 89 84 24 60 01 00 	mov    QWORD PTR [rsp+0x160],r8
  405b40:	00 
  405b41:	4a 8d 1c 85 08 00 00 	lea    rbx,[r8*4+0x8]
  405b48:	00 
  405b49:	48 89 9c 24 90 00 00 	mov    QWORD PTR [rsp+0x90],rbx
  405b50:	00 
  405b51:	66 2e 0f 1f 84 00 00 	cs nop WORD PTR [rax+rax*1+0x0]
  405b58:	00 00 00 
  405b5b:	0f 1f 44 00 00       	nop    DWORD PTR [rax+rax*1+0x0]
  405b60:	4c 89 fd             	mov    rbp,r15
  405b63:	48 d1 ed             	shr    rbp,1
  405b66:	49 0f af ed          	imul   rbp,r13
  405b6a:	4c 01 d5             	add    rbp,r10
  405b6d:	49 83 ff 07          	cmp    r15,0x7
  405b71:	4c 89 54 24 18       	mov    QWORD PTR [rsp+0x18],r10
  405b76:	4c 89 bc 24 98 00 00 	mov    QWORD PTR [rsp+0x98],r15
  405b7d:	00 
  405b7e:	0f 84 2c 02 00 00    	je     405db0 <fwrite@plt+0x4c50>
  405b84:	4d 8d 67 ff          	lea    r12,[r15-0x1]
  405b88:	4d 0f af e5          	imul   r12,r13
  405b8c:	4d 01 d4             	add    r12,r10
  405b8f:	49 83 ff 29          	cmp    r15,0x29
  405b93:	72 6b                	jb     405c00 <fwrite@plt+0x4aa0>
  405b95:	4c 89 64 24 48       	mov    QWORD PTR [rsp+0x48],r12
  405b9a:	4c 89 fb             	mov    rbx,r15
  405b9d:	48 c1 eb 03          	shr    rbx,0x3
  405ba1:	49 0f af dd          	imul   rbx,r13
  405ba5:	4d 8d 34 1a          	lea    r14,[r10+rbx*1]
  405ba9:	4d 8d 24 5a          	lea    r12,[r10+rbx*2]
  405bad:	4c 89 d7             	mov    rdi,r10
  405bb0:	4c 89 f6             	mov    rsi,r14
  405bb3:	4c 8b 7c 24 30       	mov    r15,QWORD PTR [rsp+0x30]
  405bb8:	c5 f8 77             	vzeroupper 
  405bbb:	41 ff d7             	call   r15
  405bbe:	89 44 24 28          	mov    DWORD PTR [rsp+0x28],eax
  405bc2:	4c 89 74 24 10       	mov    QWORD PTR [rsp+0x10],r14
  405bc7:	4c 89 f7             	mov    rdi,r14
  405bca:	4d 89 e6             	mov    r14,r12
  405bcd:	4c 89 e6             	mov    rsi,r12
  405bd0:	41 ff d7             	call   r15
  405bd3:	83 7c 24 28 00       	cmp    DWORD PTR [rsp+0x28],0x0
  405bd8:	78 2e                	js     405c08 <fwrite@plt+0x4aa8>
  405bda:	85 c0                	test   eax,eax
  405bdc:	7f 48                	jg     405c26 <fwrite@plt+0x4ac6>
  405bde:	4c 8b 64 24 18       	mov    r12,QWORD PTR [rsp+0x18]
  405be3:	4c 89 e7             	mov    rdi,r12
  405be6:	4c 89 f6             	mov    rsi,r14
  405be9:	ff 54 24 30          	call   QWORD PTR [rsp+0x30]
  405bed:	85 c0                	test   eax,eax
  405bef:	4d 0f 48 f4          	cmovs  r14,r12
  405bf3:	eb 2c                	jmp    405c21 <fwrite@plt+0x4ac1>
  405bf5:	66 2e 0f 1f 84 00 00 	cs nop WORD PTR [rax+rax*1+0x0]
  405bfc:	00 00 00 
  405bff:	90                   	nop
  405c00:	4c 89 d7             	mov    rdi,r10
  405c03:	e9 03 01 00 00       	jmp    405d0b <fwrite@plt+0x4bab>
  405c08:	85 c0                	test   eax,eax
  405c0a:	78 1a                	js     405c26 <fwrite@plt+0x4ac6>
  405c0c:	4c 8b 64 24 18       	mov    r12,QWORD PTR [rsp+0x18]
  405c11:	4c 89 e7             	mov    rdi,r12
  405c14:	4c 89 f6             	mov    rsi,r14
  405c17:	ff 54 24 30          	call   QWORD PTR [rsp+0x30]
  405c1b:	85 c0                	test   eax,eax
  405c1d:	4d 0f 49 f4          	cmovns r14,r12
  405c21:	4c 89 74 24 10       	mov    QWORD PTR [rsp+0x10],r14
  405c26:	48 89 d8             	mov    rax,rbx
  405c29:	48 f7 d8             	neg    rax
  405c2c:	48 89 44 24 28       	mov    QWORD PTR [rsp+0x28],rax
  405c31:	49 89 ee             	mov    r14,rbp
  405c34:	49 29 de             	sub    r14,rbx
  405c37:	4c 8d 24 2b          	lea    r12,[rbx+rbp*1]
  405c3b:	4c 8d 3c 1b          	lea    r15,[rbx+rbx*1]
  405c3f:	4c 89 f7             	mov    rdi,r14
  405c42:	48 89 ee             	mov    rsi,rbp
  405c45:	48 8b 5c 24 30       	mov    rbx,QWORD PTR [rsp+0x30]
  405c4a:	ff d3                	call   rbx
  405c4c:	89 44 24 38          	mov    DWORD PTR [rsp+0x38],eax
  405c50:	48 89 ef             	mov    rdi,rbp
  405c53:	4c 89 e6             	mov    rsi,r12
  405c56:	ff d3                	call   rbx
  405c58:	83 7c 24 38 00       	cmp    DWORD PTR [rsp+0x38],0x0
  405c5d:	78 21                	js     405c80 <fwrite@plt+0x4b20>
  405c5f:	4c 89 e1             	mov    rcx,r12
  405c62:	85 c0                	test   eax,eax
  405c64:	4c 8b 64 24 48       	mov    r12,QWORD PTR [rsp+0x48]
  405c69:	7f 34                	jg     405c9f <fwrite@plt+0x4b3f>
  405c6b:	4c 89 f7             	mov    rdi,r14
  405c6e:	48 89 cd             	mov    rbp,rcx
  405c71:	48 89 ce             	mov    rsi,rcx
  405c74:	ff 54 24 30          	call   QWORD PTR [rsp+0x30]
  405c78:	85 c0                	test   eax,eax
  405c7a:	49 0f 48 ee          	cmovs  rbp,r14
  405c7e:	eb 1f                	jmp    405c9f <fwrite@plt+0x4b3f>
  405c80:	4c 89 e3             	mov    rbx,r12
  405c83:	85 c0                	test   eax,eax
  405c85:	4c 8b 64 24 48       	mov    r12,QWORD PTR [rsp+0x48]
  405c8a:	78 13                	js     405c9f <fwrite@plt+0x4b3f>
  405c8c:	4c 89 f7             	mov    rdi,r14
  405c8f:	48 89 de             	mov    rsi,rbx
  405c92:	ff 54 24 30          	call   QWORD PTR [rsp+0x30]
  405c96:	85 c0                	test   eax,eax
  405c98:	4c 0f 48 f3          	cmovs  r14,rbx
  405c9c:	4c 89 f5             	mov    rbp,r14
  405c9f:	4d 89 e6             	mov    r14,r12
  405ca2:	4d 29 fe             	sub    r14,r15
  405ca5:	48 8b 5c 24 28       	mov    rbx,QWORD PTR [rsp+0x28]
  405caa:	4c 01 e3             	add    rbx,r12
  405cad:	4c 89 f7             	mov    rdi,r14
  405cb0:	48 89 de             	mov    rsi,rbx
  405cb3:	4c 8b 7c 24 30       	mov    r15,QWORD PTR [rsp+0x30]
  405cb8:	41 ff d7             	call   r15
  405cbb:	89 44 24 28          	mov    DWORD PTR [rsp+0x28],eax
  405cbf:	48 89 df             	mov    rdi,rbx
  405cc2:	4c 89 e6             	mov    rsi,r12
  405cc5:	41 ff d7             	call   r15
  405cc8:	83 7c 24 28 00       	cmp    DWORD PTR [rsp+0x28],0x0
  405ccd:	78 16                	js     405ce5 <fwrite@plt+0x4b85>
  405ccf:	85 c0                	test   eax,eax
  405cd1:	7f 28                	jg     405cfb <fwrite@plt+0x4b9b>
  405cd3:	4c 89 f7             	mov    rdi,r14
  405cd6:	4c 89 e6             	mov    rsi,r12
  405cd9:	ff 54 24 30          	call   QWORD PTR [rsp+0x30]
  405cdd:	85 c0                	test   eax,eax
  405cdf:	4d 0f 48 e6          	cmovs  r12,r14
  405ce3:	eb 19                	jmp    405cfe <fwrite@plt+0x4b9e>
  405ce5:	85 c0                	test   eax,eax
  405ce7:	78 12                	js     405cfb <fwrite@plt+0x4b9b>
  405ce9:	4c 89 f7             	mov    rdi,r14
  405cec:	4c 89 e6             	mov    rsi,r12
  405cef:	ff 54 24 30          	call   QWORD PTR [rsp+0x30]
  405cf3:	85 c0                	test   eax,eax
  405cf5:	4d 0f 49 e6          	cmovns r12,r14
  405cf9:	eb 03                	jmp    405cfe <fwrite@plt+0x4b9e>
  405cfb:	49 89 dc             	mov    r12,rbx
  405cfe:	4c 8b bc 24 98 00 00 	mov    r15,QWORD PTR [rsp+0x98]
  405d05:	00 
  405d06:	48 8b 7c 24 10       	mov    rdi,QWORD PTR [rsp+0x10]
  405d0b:	48 89 7c 24 10       	mov    QWORD PTR [rsp+0x10],rdi
  405d10:	48 89 ee             	mov    rsi,rbp
  405d13:	48 8b 5c 24 30       	mov    rbx,QWORD PTR [rsp+0x30]
  405d18:	c5 f8 77             	vzeroupper 
  405d1b:	ff d3                	call   rbx
  405d1d:	41 89 c6             	mov    r14d,eax
  405d20:	48 89 ef             	mov    rdi,rbp
  405d23:	4c 89 e6             	mov    rsi,r12
  405d26:	ff d3                	call   rbx
  405d28:	45 85 f6             	test   r14d,r14d
  405d2b:	78 56                	js     405d83 <fwrite@plt+0x4c23>
  405d2d:	85 c0                	test   eax,eax
  405d2f:	4c 8b 54 24 18       	mov    r10,QWORD PTR [rsp+0x18]
  405d34:	48 8b 9c 24 90 00 00 	mov    rbx,QWORD PTR [rsp+0x90]
  405d3b:	00 
  405d3c:	7f 72                	jg     405db0 <fwrite@plt+0x4c50>
  405d3e:	48 8b 6c 24 10       	mov    rbp,QWORD PTR [rsp+0x10]
  405d43:	48 89 ef             	mov    rdi,rbp
  405d46:	4c 89 e6             	mov    rsi,r12
  405d49:	ff 54 24 30          	call   QWORD PTR [rsp+0x30]
  405d4d:	4c 8b 54 24 18       	mov    r10,QWORD PTR [rsp+0x18]
  405d52:	85 c0                	test   eax,eax
  405d54:	4c 0f 48 e5          	cmovs  r12,rbp
  405d58:	4c 89 e5             	mov    rbp,r12
  405d5b:	83 7c 24 68 00       	cmp    DWORD PTR [rsp+0x68],0x0
  405d60:	75 55                	jne    405db7 <fwrite@plt+0x4c57>
  405d62:	66 2e 0f 1f 84 00 00 	cs nop WORD PTR [rax+rax*1+0x0]
  405d69:	00 00 00 
  405d6c:	0f 1f 40 00          	nop    DWORD PTR [rax+0x0]
  405d70:	49 8b 02             	mov    rax,QWORD PTR [r10]
  405d73:	48 8b 4d 00          	mov    rcx,QWORD PTR [rbp+0x0]
  405d77:	49 89 0a             	mov    QWORD PTR [r10],rcx
  405d7a:	48 89 45 00          	mov    QWORD PTR [rbp+0x0],rax
  405d7e:	e9 5d 04 00 00       	jmp    4061e0 <fwrite@plt+0x5080>
  405d83:	85 c0                	test   eax,eax
  405d85:	4c 8b 54 24 18       	mov    r10,QWORD PTR [rsp+0x18]
  405d8a:	48 8b 9c 24 90 00 00 	mov    rbx,QWORD PTR [rsp+0x90]
  405d91:	00 
  405d92:	78 1c                	js     405db0 <fwrite@plt+0x4c50>
  405d94:	48 8b 6c 24 10       	mov    rbp,QWORD PTR [rsp+0x10]
  405d99:	48 89 ef             	mov    rdi,rbp
  405d9c:	4c 89 e6             	mov    rsi,r12
  405d9f:	ff 54 24 30          	call   QWORD PTR [rsp+0x30]
  405da3:	4c 8b 54 24 18       	mov    r10,QWORD PTR [rsp+0x18]
  405da8:	85 c0                	test   eax,eax
  405daa:	49 0f 48 ec          	cmovs  rbp,r12
  405dae:	66 90                	xchg   ax,ax
  405db0:	83 7c 24 68 00       	cmp    DWORD PTR [rsp+0x68],0x0
  405db5:	74 b9                	je     405d70 <fwrite@plt+0x4c10>
  405db7:	83 7c 24 6c 00       	cmp    DWORD PTR [rsp+0x6c],0x0
  405dbc:	74 72                	je     405e30 <fwrite@plt+0x4cd0>
  405dbe:	f6 44 24 0f 01       	test   BYTE PTR [rsp+0xf],0x1
  405dc3:	74 7c                	je     405e41 <fwrite@plt+0x4ce1>
  405dc5:	48 83 7c 24 58 08    	cmp    QWORD PTR [rsp+0x58],0x8
  405dcb:	72 22                	jb     405def <fwrite@plt+0x4c8f>
  405dcd:	48 8b 8c 24 a0 00 00 	mov    rcx,QWORD PTR [rsp+0xa0]
  405dd4:	00 
  405dd5:	48 8d 04 29          	lea    rax,[rcx+rbp*1]
  405dd9:	49 39 c2             	cmp    r10,rax
  405ddc:	0f 83 21 01 00 00    	jae    405f03 <fwrite@plt+0x4da3>
  405de2:	49 8d 04 0a          	lea    rax,[r10+rcx*1]
  405de6:	48 39 c5             	cmp    rbp,rax
  405de9:	0f 83 14 01 00 00    	jae    405f03 <fwrite@plt+0x4da3>
  405def:	4c 89 d0             	mov    rax,r10
  405df2:	48 8b 8c 24 88 00 00 	mov    rcx,QWORD PTR [rsp+0x88]
  405df9:	00 
  405dfa:	48 83 c1 01          	add    rcx,0x1
  405dfe:	31 d2                	xor    edx,edx
  405e00:	48 8b 34 10          	mov    rsi,QWORD PTR [rax+rdx*1]
  405e04:	48 8b 7c 15 00       	mov    rdi,QWORD PTR [rbp+rdx*1+0x0]
  405e09:	48 89 3c 10          	mov    QWORD PTR [rax+rdx*1],rdi
  405e0d:	48 89 74 15 00       	mov    QWORD PTR [rbp+rdx*1+0x0],rsi
  405e12:	48 83 c2 08          	add    rdx,0x8
  405e16:	48 83 c1 ff          	add    rcx,0xffffffffffffffff
  405e1a:	48 83 f9 01          	cmp    rcx,0x1
  405e1e:	7f e0                	jg     405e00 <fwrite@plt+0x4ca0>
  405e20:	e9 bb 03 00 00       	jmp    4061e0 <fwrite@plt+0x5080>
  405e25:	66 2e 0f 1f 84 00 00 	cs nop WORD PTR [rax+rax*1+0x0]
  405e2c:	00 00 00 
  405e2f:	90                   	nop
  405e30:	41 8b 02             	mov    eax,DWORD PTR [r10]
  405e33:	8b 4d 00             	mov    ecx,DWORD PTR [rbp+0x0]
  405e36:	41 89 0a             	mov    DWORD PTR [r10],ecx
  405e39:	89 45 00             	mov    DWORD PTR [rbp+0x0],eax
  405e3c:	e9 9f 03 00 00       	jmp    4061e0 <fwrite@plt+0x5080>
  405e41:	f6 44 24 0e 01       	test   BYTE PTR [rsp+0xe],0x1
  405e46:	74 59                	je     405ea1 <fwrite@plt+0x4d41>
  405e48:	48 83 bc 24 80 00 00 	cmp    QWORD PTR [rsp+0x80],0x10
  405e4f:	00 10 
  405e51:	72 1a                	jb     405e6d <fwrite@plt+0x4d0d>
  405e53:	48 8d 04 2b          	lea    rax,[rbx+rbp*1]
  405e57:	49 39 c2             	cmp    r10,rax
  405e5a:	0f 83 9e 01 00 00    	jae    405ffe <fwrite@plt+0x4e9e>
  405e60:	49 8d 04 1a          	lea    rax,[r10+rbx*1]
  405e64:	48 39 c5             	cmp    rbp,rax
  405e67:	0f 83 91 01 00 00    	jae    405ffe <fwrite@plt+0x4e9e>
  405e6d:	48 8b 44 24 78       	mov    rax,QWORD PTR [rsp+0x78]
  405e72:	4c 89 d1             	mov    rcx,r10
  405e75:	48 83 c0 01          	add    rax,0x1
  405e79:	31 d2                	xor    edx,edx
  405e7b:	0f 1f 44 00 00       	nop    DWORD PTR [rax+rax*1+0x0]
  405e80:	8b 34 11             	mov    esi,DWORD PTR [rcx+rdx*1]
  405e83:	8b 7c 15 00          	mov    edi,DWORD PTR [rbp+rdx*1+0x0]
  405e87:	89 3c 11             	mov    DWORD PTR [rcx+rdx*1],edi
  405e8a:	89 74 15 00          	mov    DWORD PTR [rbp+rdx*1+0x0],esi
  405e8e:	48 83 c0 ff          	add    rax,0xffffffffffffffff
  405e92:	48 83 c2 04          	add    rdx,0x4
  405e96:	48 83 f8 01          	cmp    rax,0x1
  405e9a:	7f e4                	jg     405e80 <fwrite@plt+0x4d20>
  405e9c:	e9 3f 03 00 00       	jmp    4061e0 <fwrite@plt+0x5080>
  405ea1:	48 8b 54 24 60       	mov    rdx,QWORD PTR [rsp+0x60]
  405ea6:	48 83 fa 3f          	cmp    rdx,0x3f
  405eaa:	76 1a                	jbe    405ec6 <fwrite@plt+0x4d66>
  405eac:	48 8d 04 2a          	lea    rax,[rdx+rbp*1]
  405eb0:	49 39 c2             	cmp    r10,rax
  405eb3:	0f 83 48 02 00 00    	jae    406101 <fwrite@plt+0x4fa1>
  405eb9:	49 8d 04 12          	lea    rax,[r10+rdx*1]
  405ebd:	48 39 c5             	cmp    rbp,rax
  405ec0:	0f 83 3b 02 00 00    	jae    406101 <fwrite@plt+0x4fa1>
  405ec6:	48 8b 4c 24 70       	mov    rcx,QWORD PTR [rsp+0x70]
  405ecb:	4c 89 d6             	mov    rsi,r10
  405ece:	48 83 c1 01          	add    rcx,0x1
  405ed2:	31 d2                	xor    edx,edx
  405ed4:	66 2e 0f 1f 84 00 00 	cs nop WORD PTR [rax+rax*1+0x0]
  405edb:	00 00 00 
  405ede:	66 90                	xchg   ax,ax
  405ee0:	0f b6 1c 16          	movzx  ebx,BYTE PTR [rsi+rdx*1]
  405ee4:	0f b6 44 15 00       	movzx  eax,BYTE PTR [rbp+rdx*1+0x0]
  405ee9:	88 04 16             	mov    BYTE PTR [rsi+rdx*1],al
  405eec:	88 5c 15 00          	mov    BYTE PTR [rbp+rdx*1+0x0],bl
  405ef0:	48 83 c1 ff          	add    rcx,0xffffffffffffffff
  405ef4:	48 83 c2 01          	add    rdx,0x1
  405ef8:	48 83 f9 01          	cmp    rcx,0x1
  405efc:	7f e2                	jg     405ee0 <fwrite@plt+0x4d80>
  405efe:	e9 dd 02 00 00       	jmp    4061e0 <fwrite@plt+0x5080>
  405f03:	48 83 bc 24 18 01 00 	cmp    QWORD PTR [rsp+0x118],0x0
  405f0a:	00 00 
  405f0c:	0f 84 96 21 00 00    	je     4080a8 <fwrite@plt+0x6f48>
  405f12:	48 8b 8c 24 08 01 00 	mov    rcx,QWORD PTR [rsp+0x108]
  405f19:	00 
  405f1a:	31 c0                	xor    eax,eax
  405f1c:	0f 1f 40 00          	nop    DWORD PTR [rax+0x0]
  405f20:	c4 c1 7c 10 04 c2    	vmovups ymm0,YMMWORD PTR [r10+rax*8]
  405f26:	c4 c1 7c 10 4c c2 20 	vmovups ymm1,YMMWORD PTR [r10+rax*8+0x20]
  405f2d:	c5 fc 10 54 c5 00    	vmovups ymm2,YMMWORD PTR [rbp+rax*8+0x0]
  405f33:	c5 fc 10 5c c5 20    	vmovups ymm3,YMMWORD PTR [rbp+rax*8+0x20]
  405f39:	c4 c1 7c 11 14 c2    	vmovups YMMWORD PTR [r10+rax*8],ymm2
  405f3f:	c4 c1 7c 11 5c c2 20 	vmovups YMMWORD PTR [r10+rax*8+0x20],ymm3
  405f46:	c5 fc 11 44 c5 00    	vmovups YMMWORD PTR [rbp+rax*8+0x0],ymm0
  405f4c:	c5 fc 11 4c c5 20    	vmovups YMMWORD PTR [rbp+rax*8+0x20],ymm1
  405f52:	c4 c1 7e 6f 44 c2 40 	vmovdqu ymm0,YMMWORD PTR [r10+rax*8+0x40]
  405f59:	c4 c1 7e 6f 4c c2 60 	vmovdqu ymm1,YMMWORD PTR [r10+rax*8+0x60]
  405f60:	c5 fe 6f 54 c5 40    	vmovdqu ymm2,YMMWORD PTR [rbp+rax*8+0x40]
  405f66:	c5 fe 6f 5c c5 60    	vmovdqu ymm3,YMMWORD PTR [rbp+rax*8+0x60]
  405f6c:	c4 c1 7e 7f 54 c2 40 	vmovdqu YMMWORD PTR [r10+rax*8+0x40],ymm2
  405f73:	c4 c1 7e 7f 5c c2 60 	vmovdqu YMMWORD PTR [r10+rax*8+0x60],ymm3
  405f7a:	c5 fe 7f 44 c5 40    	vmovdqu YMMWORD PTR [rbp+rax*8+0x40],ymm0
  405f80:	c5 fe 7f 4c c5 60    	vmovdqu YMMWORD PTR [rbp+rax*8+0x60],ymm1
  405f86:	48 83 c0 10          	add    rax,0x10
  405f8a:	48 83 c1 02          	add    rcx,0x2
  405f8e:	75 90                	jne    405f20 <fwrite@plt+0x4dc0>
  405f90:	48 83 bc 24 58 01 00 	cmp    QWORD PTR [rsp+0x158],0x0
  405f97:	00 00 
  405f99:	74 32                	je     405fcd <fwrite@plt+0x4e6d>
  405f9b:	c4 c1 7e 6f 04 c2    	vmovdqu ymm0,YMMWORD PTR [r10+rax*8]
  405fa1:	c4 c1 7e 6f 4c c2 20 	vmovdqu ymm1,YMMWORD PTR [r10+rax*8+0x20]
  405fa8:	c5 fe 6f 54 c5 00    	vmovdqu ymm2,YMMWORD PTR [rbp+rax*8+0x0]
  405fae:	c5 fe 6f 5c c5 20    	vmovdqu ymm3,YMMWORD PTR [rbp+rax*8+0x20]
  405fb4:	c4 c1 7e 7f 14 c2    	vmovdqu YMMWORD PTR [r10+rax*8],ymm2
  405fba:	c4 c1 7e 7f 5c c2 20 	vmovdqu YMMWORD PTR [r10+rax*8+0x20],ymm3
  405fc1:	c5 fe 7f 44 c5 00    	vmovdqu YMMWORD PTR [rbp+rax*8+0x0],ymm0
  405fc7:	c5 fe 7f 4c c5 20    	vmovdqu YMMWORD PTR [rbp+rax*8+0x20],ymm1
  405fcd:	48 8b 84 24 10 01 00 	mov    rax,QWORD PTR [rsp+0x110]
  405fd4:	00 
  405fd5:	48 39 44 24 58       	cmp    QWORD PTR [rsp+0x58],rax
  405fda:	0f 84 00 02 00 00    	je     4061e0 <fwrite@plt+0x5080>
  405fe0:	48 8b 84 24 f0 00 00 	mov    rax,QWORD PTR [rsp+0xf0]
  405fe7:	00 
  405fe8:	48 8d 6c c5 00       	lea    rbp,[rbp+rax*8+0x0]
  405fed:	49 8d 04 c2          	lea    rax,[r10+rax*8]
  405ff1:	48 8b 8c 24 d8 00 00 	mov    rcx,QWORD PTR [rsp+0xd8]
  405ff8:	00 
  405ff9:	e9 fc fd ff ff       	jmp    405dfa <fwrite@plt+0x4c9a>
  405ffe:	48 83 bc 24 e0 00 00 	cmp    QWORD PTR [rsp+0xe0],0x0
  406005:	00 00 
  406007:	0f 84 1d 21 00 00    	je     40812a <fwrite@plt+0x6fca>
  40600d:	48 8b 8c 24 c8 00 00 	mov    rcx,QWORD PTR [rsp+0xc8]
  406014:	00 
  406015:	31 c0                	xor    eax,eax
  406017:	66 0f 1f 84 00 00 00 	nop    WORD PTR [rax+rax*1+0x0]
  40601e:	00 00 
  406020:	c4 c1 7c 10 04 82    	vmovups ymm0,YMMWORD PTR [r10+rax*4]
  406026:	c4 c1 7c 10 4c 82 20 	vmovups ymm1,YMMWORD PTR [r10+rax*4+0x20]
  40602d:	c5 fc 10 54 85 00    	vmovups ymm2,YMMWORD PTR [rbp+rax*4+0x0]
  406033:	c5 fc 10 5c 85 20    	vmovups ymm3,YMMWORD PTR [rbp+rax*4+0x20]
  406039:	c4 c1 7c 11 14 82    	vmovups YMMWORD PTR [r10+rax*4],ymm2
  40603f:	c4 c1 7c 11 5c 82 20 	vmovups YMMWORD PTR [r10+rax*4+0x20],ymm3
  406046:	c5 fc 11 44 85 00    	vmovups YMMWORD PTR [rbp+rax*4+0x0],ymm0
  40604c:	c5 fc 11 4c 85 20    	vmovups YMMWORD PTR [rbp+rax*4+0x20],ymm1
  406052:	c4 c1 7e 6f 44 82 40 	vmovdqu ymm0,YMMWORD PTR [r10+rax*4+0x40]
  406059:	c4 c1 7e 6f 4c 82 60 	vmovdqu ymm1,YMMWORD PTR [r10+rax*4+0x60]
  406060:	c5 fe 6f 54 85 40    	vmovdqu ymm2,YMMWORD PTR [rbp+rax*4+0x40]
  406066:	c5 fe 6f 5c 85 60    	vmovdqu ymm3,YMMWORD PTR [rbp+rax*4+0x60]
  40606c:	c4 c1 7e 7f 54 82 40 	vmovdqu YMMWORD PTR [r10+rax*4+0x40],ymm2
  406073:	c4 c1 7e 7f 5c 82 60 	vmovdqu YMMWORD PTR [r10+rax*4+0x60],ymm3
  40607a:	c5 fe 7f 44 85 40    	vmovdqu YMMWORD PTR [rbp+rax*4+0x40],ymm0
  406080:	c5 fe 7f 4c 85 60    	vmovdqu YMMWORD PTR [rbp+rax*4+0x60],ymm1
  406086:	48 83 c0 20          	add    rax,0x20
  40608a:	48 83 c1 02          	add    rcx,0x2
  40608e:	75 90                	jne    406020 <fwrite@plt+0x4ec0>
  406090:	48 83 bc 24 80 01 00 	cmp    QWORD PTR [rsp+0x180],0x0
  406097:	00 00 
  406099:	74 32                	je     4060cd <fwrite@plt+0x4f6d>
  40609b:	c4 c1 7e 6f 04 82    	vmovdqu ymm0,YMMWORD PTR [r10+rax*4]
  4060a1:	c4 c1 7e 6f 4c 82 20 	vmovdqu ymm1,YMMWORD PTR [r10+rax*4+0x20]
  4060a8:	c5 fe 6f 54 85 00    	vmovdqu ymm2,YMMWORD PTR [rbp+rax*4+0x0]
  4060ae:	c5 fe 6f 5c 85 20    	vmovdqu ymm3,YMMWORD PTR [rbp+rax*4+0x20]
  4060b4:	c4 c1 7e 7f 14 82    	vmovdqu YMMWORD PTR [r10+rax*4],ymm2
  4060ba:	c4 c1 7e 7f 5c 82 20 	vmovdqu YMMWORD PTR [r10+rax*4+0x20],ymm3
  4060c1:	c5 fe 7f 44 85 00    	vmovdqu YMMWORD PTR [rbp+rax*4+0x0],ymm0
  4060c7:	c5 fe 7f 4c 85 20    	vmovdqu YMMWORD PTR [rbp+rax*4+0x20],ymm1
  4060cd:	48 8b 84 24 00 01 00 	mov    rax,QWORD PTR [rsp+0x100]
  4060d4:	00 
  4060d5:	48 39 84 24 80 00 00 	cmp    QWORD PTR [rsp+0x80],rax
  4060dc:	00 
  4060dd:	0f 84 fd 00 00 00    	je     4061e0 <fwrite@plt+0x5080>
  4060e3:	48 8b 84 24 c0 00 00 	mov    rax,QWORD PTR [rsp+0xc0]
  4060ea:	00 
  4060eb:	49 8d 0c 82          	lea    rcx,[r10+rax*4]
  4060ef:	48 8d 6c 85 00       	lea    rbp,[rbp+rax*4+0x0]
  4060f4:	48 8b 84 24 b0 00 00 	mov    rax,QWORD PTR [rsp+0xb0]
  4060fb:	00 
  4060fc:	e9 74 fd ff ff       	jmp    405e75 <fwrite@plt+0x4d15>
  406101:	48 83 bc 24 e8 00 00 	cmp    QWORD PTR [rsp+0xe8],0x0
  406108:	00 00 
  40610a:	0f 84 30 20 00 00    	je     408140 <fwrite@plt+0x6fe0>
  406110:	48 8b 8c 24 d0 00 00 	mov    rcx,QWORD PTR [rsp+0xd0]
  406117:	00 
  406118:	31 c0                	xor    eax,eax
  40611a:	66 0f 1f 44 00 00    	nop    WORD PTR [rax+rax*1+0x0]
  406120:	c4 c1 7c 10 04 02    	vmovups ymm0,YMMWORD PTR [r10+rax*1]
  406126:	c4 c1 7c 10 4c 02 20 	vmovups ymm1,YMMWORD PTR [r10+rax*1+0x20]
  40612d:	c5 fc 10 54 05 00    	vmovups ymm2,YMMWORD PTR [rbp+rax*1+0x0]
  406133:	c5 fc 10 5c 05 20    	vmovups ymm3,YMMWORD PTR [rbp+rax*1+0x20]
  406139:	c4 c1 7c 11 14 02    	vmovups YMMWORD PTR [r10+rax*1],ymm2
  40613f:	c4 c1 7c 11 5c 02 20 	vmovups YMMWORD PTR [r10+rax*1+0x20],ymm3
  406146:	c5 fc 11 44 05 00    	vmovups YMMWORD PTR [rbp+rax*1+0x0],ymm0
  40614c:	c5 fc 11 4c 05 20    	vmovups YMMWORD PTR [rbp+rax*1+0x20],ymm1
  406152:	c4 c1 7e 6f 44 02 40 	vmovdqu ymm0,YMMWORD PTR [r10+rax*1+0x40]
  406159:	c4 c1 7e 6f 4c 02 60 	vmovdqu ymm1,YMMWORD PTR [r10+rax*1+0x60]
  406160:	c5 fe 6f 54 05 40    	vmovdqu ymm2,YMMWORD PTR [rbp+rax*1+0x40]
  406166:	c5 fe 6f 5c 05 60    	vmovdqu ymm3,YMMWORD PTR [rbp+rax*1+0x60]
  40616c:	c4 c1 7e 7f 54 02 40 	vmovdqu YMMWORD PTR [r10+rax*1+0x40],ymm2
  406173:	c4 c1 7e 7f 5c 02 60 	vmovdqu YMMWORD PTR [r10+rax*1+0x60],ymm3
  40617a:	c5 fe 7f 44 05 40    	vmovdqu YMMWORD PTR [rbp+rax*1+0x40],ymm0
  406180:	c5 fe 7f 4c 05 60    	vmovdqu YMMWORD PTR [rbp+rax*1+0x60],ymm1
  406186:	48 83 e8 80          	sub    rax,0xffffffffffffff80
  40618a:	48 83 c1 02          	add    rcx,0x2
  40618e:	75 90                	jne    406120 <fwrite@plt+0x4fc0>
  406190:	48 83 bc 24 90 01 00 	cmp    QWORD PTR [rsp+0x190],0x0
  406197:	00 00 
  406199:	74 32                	je     4061cd <fwrite@plt+0x506d>
  40619b:	c4 c1 7e 6f 04 02    	vmovdqu ymm0,YMMWORD PTR [r10+rax*1]
  4061a1:	c4 c1 7e 6f 4c 02 20 	vmovdqu ymm1,YMMWORD PTR [r10+rax*1+0x20]
  4061a8:	c5 fe 6f 54 05 00    	vmovdqu ymm2,YMMWORD PTR [rbp+rax*1+0x0]
  4061ae:	c5 fe 6f 5c 05 20    	vmovdqu ymm3,YMMWORD PTR [rbp+rax*1+0x20]
  4061b4:	c4 c1 7e 7f 14 02    	vmovdqu YMMWORD PTR [r10+rax*1],ymm2
  4061ba:	c4 c1 7e 7f 5c 02 20 	vmovdqu YMMWORD PTR [r10+rax*1+0x20],ymm3
  4061c1:	c5 fe 7f 44 05 00    	vmovdqu YMMWORD PTR [rbp+rax*1+0x0],ymm0
  4061c7:	c5 fe 7f 4c 05 20    	vmovdqu YMMWORD PTR [rbp+rax*1+0x20],ymm1
  4061cd:	48 3b 94 24 f8 00 00 	cmp    rdx,QWORD PTR [rsp+0xf8]
  4061d4:	00 
  4061d5:	0f 85 33 1f 00 00    	jne    40810e <fwrite@plt+0x6fae>
  4061db:	0f 1f 44 00 00       	nop    DWORD PTR [rax+rax*1+0x0]
  4061e0:	4b 8d 0c 2a          	lea    rcx,[r10+r13*1]
  4061e4:	4d 8d 67 ff          	lea    r12,[r15-0x1]
  4061e8:	4d 0f af e5          	imul   r12,r13
  4061ec:	4d 01 d4             	add    r12,r10
  4061ef:	c7 44 24 48 00 00 00 	mov    DWORD PTR [rsp+0x48],0x0
  4061f6:	00 
  4061f7:	4c 89 64 24 38       	mov    QWORD PTR [rsp+0x38],r12
  4061fc:	49 89 c9             	mov    r9,rcx
  4061ff:	48 89 8c 24 78 01 00 	mov    QWORD PTR [rsp+0x178],rcx
  406206:	00 
  406207:	48 89 4c 24 40       	mov    QWORD PTR [rsp+0x40],rcx
  40620c:	48 8b 5c 24 50       	mov    rbx,QWORD PTR [rsp+0x50]
  406211:	4d 39 e1             	cmp    r9,r12
  406214:	4c 89 64 24 28       	mov    QWORD PTR [rsp+0x28],r12
  406219:	0f 87 a5 03 00 00    	ja     4065c4 <fwrite@plt+0x5464>
  40621f:	e9 1c 04 00 00       	jmp    406640 <fwrite@plt+0x54e0>
  406224:	66 2e 0f 1f 84 00 00 	cs nop WORD PTR [rax+rax*1+0x0]
  40622b:	00 00 00 
  40622e:	66 90                	xchg   ax,ax
  406230:	4c 8b 6c 24 20       	mov    r13,QWORD PTR [rsp+0x20]
  406235:	48 8b 5c 24 50       	mov    rbx,QWORD PTR [rsp+0x50]
  40623a:	4c 8b 54 24 18       	mov    r10,QWORD PTR [rsp+0x18]
  40623f:	4d 89 e0             	mov    r8,r12
  406242:	4c 8b 64 24 28       	mov    r12,QWORD PTR [rsp+0x28]
  406247:	4d 39 e0             	cmp    r8,r12
  40624a:	4c 89 44 24 10       	mov    QWORD PTR [rsp+0x10],r8
  40624f:	0f 86 9b 04 00 00    	jbe    4066f0 <fwrite@plt+0x5590>
  406255:	e9 96 12 00 00       	jmp    4074f0 <fwrite@plt+0x6390>
  40625a:	48 8b 44 24 70       	mov    rax,QWORD PTR [rsp+0x70]
  40625f:	4c 89 c7             	mov    rdi,r8
  406262:	4c 89 e2             	mov    rdx,r12
  406265:	48 8b 6c 24 60       	mov    rbp,QWORD PTR [rsp+0x60]
  40626a:	48 83 fd 3f          	cmp    rbp,0x3f
  40626e:	0f 86 16 01 00 00    	jbe    40638a <fwrite@plt+0x522a>
  406274:	49 8d 04 2c          	lea    rax,[r12+rbp*1]
  406278:	49 39 c0             	cmp    r8,rax
  40627b:	73 18                	jae    406295 <fwrite@plt+0x5135>
  40627d:	49 8d 34 28          	lea    rsi,[r8+rbp*1]
  406281:	48 8b 44 24 70       	mov    rax,QWORD PTR [rsp+0x70]
  406286:	4c 89 c7             	mov    rdi,r8
  406289:	4c 89 e2             	mov    rdx,r12
  40628c:	49 39 f4             	cmp    r12,rsi
  40628f:	0f 82 f5 00 00 00    	jb     40638a <fwrite@plt+0x522a>
  406295:	48 83 bc 24 e8 00 00 	cmp    QWORD PTR [rsp+0xe8],0x0
  40629c:	00 00 
  40629e:	0f 84 68 03 00 00    	je     40660c <fwrite@plt+0x54ac>
  4062a4:	48 8b 8c 24 d0 00 00 	mov    rcx,QWORD PTR [rsp+0xd0]
  4062ab:	00 
  4062ac:	31 c0                	xor    eax,eax
  4062ae:	66 90                	xchg   ax,ax
  4062b0:	c4 c1 7c 10 04 00    	vmovups ymm0,YMMWORD PTR [r8+rax*1]
  4062b6:	c4 c1 7c 10 4c 00 20 	vmovups ymm1,YMMWORD PTR [r8+rax*1+0x20]
  4062bd:	c4 c1 7c 10 14 04    	vmovups ymm2,YMMWORD PTR [r12+rax*1]
  4062c3:	c4 c1 7c 10 5c 04 20 	vmovups ymm3,YMMWORD PTR [r12+rax*1+0x20]
  4062ca:	c4 c1 7c 11 14 00    	vmovups YMMWORD PTR [r8+rax*1],ymm2
  4062d0:	c4 c1 7c 11 5c 00 20 	vmovups YMMWORD PTR [r8+rax*1+0x20],ymm3
  4062d7:	c4 c1 7c 11 04 04    	vmovups YMMWORD PTR [r12+rax*1],ymm0
  4062dd:	c4 c1 7c 11 4c 04 20 	vmovups YMMWORD PTR [r12+rax*1+0x20],ymm1
  4062e4:	c4 c1 7e 6f 44 00 40 	vmovdqu ymm0,YMMWORD PTR [r8+rax*1+0x40]
  4062eb:	c4 c1 7e 6f 4c 00 60 	vmovdqu ymm1,YMMWORD PTR [r8+rax*1+0x60]
  4062f2:	c4 c1 7e 6f 54 04 40 	vmovdqu ymm2,YMMWORD PTR [r12+rax*1+0x40]
  4062f9:	c4 c1 7e 6f 5c 04 60 	vmovdqu ymm3,YMMWORD PTR [r12+rax*1+0x60]
  406300:	c4 c1 7e 7f 54 00 40 	vmovdqu YMMWORD PTR [r8+rax*1+0x40],ymm2
  406307:	c4 c1 7e 7f 5c 00 60 	vmovdqu YMMWORD PTR [r8+rax*1+0x60],ymm3
  40630e:	c4 c1 7e 7f 44 04 40 	vmovdqu YMMWORD PTR [r12+rax*1+0x40],ymm0
  406315:	c4 c1 7e 7f 4c 04 60 	vmovdqu YMMWORD PTR [r12+rax*1+0x60],ymm1
  40631c:	48 83 e8 80          	sub    rax,0xffffffffffffff80
  406320:	48 83 c1 02          	add    rcx,0x2
  406324:	75 8a                	jne    4062b0 <fwrite@plt+0x5150>
  406326:	f6 84 24 20 01 00 00 	test   BYTE PTR [rsp+0x120],0x1
  40632d:	01 
  40632e:	74 34                	je     406364 <fwrite@plt+0x5204>
  406330:	c4 c1 7e 6f 04 00    	vmovdqu ymm0,YMMWORD PTR [r8+rax*1]
  406336:	c4 c1 7e 6f 4c 00 20 	vmovdqu ymm1,YMMWORD PTR [r8+rax*1+0x20]
  40633d:	c4 c1 7e 6f 14 04    	vmovdqu ymm2,YMMWORD PTR [r12+rax*1]
  406343:	c4 c1 7e 6f 5c 04 20 	vmovdqu ymm3,YMMWORD PTR [r12+rax*1+0x20]
  40634a:	c4 c1 7e 7f 14 00    	vmovdqu YMMWORD PTR [r8+rax*1],ymm2
  406350:	c4 c1 7e 7f 5c 00 20 	vmovdqu YMMWORD PTR [r8+rax*1+0x20],ymm3
  406357:	c4 c1 7e 7f 04 04    	vmovdqu YMMWORD PTR [r12+rax*1],ymm0
  40635d:	c4 c1 7e 7f 4c 04 20 	vmovdqu YMMWORD PTR [r12+rax*1+0x20],ymm1
  406364:	48 3b ac 24 f8 00 00 	cmp    rbp,QWORD PTR [rsp+0xf8]
  40636b:	00 
  40636c:	0f 84 2e 02 00 00    	je     4065a0 <fwrite@plt+0x5440>
  406372:	48 8b 84 24 b8 00 00 	mov    rax,QWORD PTR [rsp+0xb8]
  406379:	00 
  40637a:	49 8d 3c 00          	lea    rdi,[r8+rax*1]
  40637e:	49 8d 14 04          	lea    rdx,[r12+rax*1]
  406382:	48 8b 84 24 a8 00 00 	mov    rax,QWORD PTR [rsp+0xa8]
  406389:	00 
  40638a:	48 83 c0 01          	add    rax,0x1
  40638e:	31 f6                	xor    esi,esi
  406390:	0f b6 1c 37          	movzx  ebx,BYTE PTR [rdi+rsi*1]
  406394:	0f b6 0c 32          	movzx  ecx,BYTE PTR [rdx+rsi*1]
  406398:	88 0c 37             	mov    BYTE PTR [rdi+rsi*1],cl
  40639b:	88 1c 32             	mov    BYTE PTR [rdx+rsi*1],bl
  40639e:	48 83 c0 ff          	add    rax,0xffffffffffffffff
  4063a2:	48 83 c6 01          	add    rsi,0x1
  4063a6:	48 83 f8 01          	cmp    rax,0x1
  4063aa:	7f e4                	jg     406390 <fwrite@plt+0x5230>
  4063ac:	e9 ef 01 00 00       	jmp    4065a0 <fwrite@plt+0x5440>
  4063b1:	48 83 bc 24 18 01 00 	cmp    QWORD PTR [rsp+0x118],0x0
  4063b8:	00 00 
  4063ba:	0f 84 1a 02 00 00    	je     4065da <fwrite@plt+0x547a>
  4063c0:	48 8b 8c 24 08 01 00 	mov    rcx,QWORD PTR [rsp+0x108]
  4063c7:	00 
  4063c8:	31 c0                	xor    eax,eax
  4063ca:	66 0f 1f 44 00 00    	nop    WORD PTR [rax+rax*1+0x0]
  4063d0:	c4 c1 7c 10 04 c0    	vmovups ymm0,YMMWORD PTR [r8+rax*8]
  4063d6:	c4 c1 7c 10 4c c0 20 	vmovups ymm1,YMMWORD PTR [r8+rax*8+0x20]
  4063dd:	c4 c1 7c 10 14 c4    	vmovups ymm2,YMMWORD PTR [r12+rax*8]
  4063e3:	c4 c1 7c 10 5c c4 20 	vmovups ymm3,YMMWORD PTR [r12+rax*8+0x20]
  4063ea:	c4 c1 7c 11 14 c0    	vmovups YMMWORD PTR [r8+rax*8],ymm2
  4063f0:	c4 c1 7c 11 5c c0 20 	vmovups YMMWORD PTR [r8+rax*8+0x20],ymm3
  4063f7:	c4 c1 7c 11 04 c4    	vmovups YMMWORD PTR [r12+rax*8],ymm0
  4063fd:	c4 c1 7c 11 4c c4 20 	vmovups YMMWORD PTR [r12+rax*8+0x20],ymm1
  406404:	c4 c1 7e 6f 44 c0 40 	vmovdqu ymm0,YMMWORD PTR [r8+rax*8+0x40]
  40640b:	c4 c1 7e 6f 4c c0 60 	vmovdqu ymm1,YMMWORD PTR [r8+rax*8+0x60]
  406412:	c4 c1 7e 6f 54 c4 40 	vmovdqu ymm2,YMMWORD PTR [r12+rax*8+0x40]
  406419:	c4 c1 7e 6f 5c c4 60 	vmovdqu ymm3,YMMWORD PTR [r12+rax*8+0x60]
  406420:	c4 c1 7e 7f 54 c0 40 	vmovdqu YMMWORD PTR [r8+rax*8+0x40],ymm2
  406427:	c4 c1 7e 7f 5c c0 60 	vmovdqu YMMWORD PTR [r8+rax*8+0x60],ymm3
  40642e:	c4 c1 7e 7f 44 c4 40 	vmovdqu YMMWORD PTR [r12+rax*8+0x40],ymm0
  406435:	c4 c1 7e 7f 4c c4 60 	vmovdqu YMMWORD PTR [r12+rax*8+0x60],ymm1
  40643c:	48 83 c0 10          	add    rax,0x10
  406440:	48 83 c1 02          	add    rcx,0x2
  406444:	75 8a                	jne    4063d0 <fwrite@plt+0x5270>
  406446:	f6 84 24 30 01 00 00 	test   BYTE PTR [rsp+0x130],0x1
  40644d:	01 
  40644e:	74 34                	je     406484 <fwrite@plt+0x5324>
  406450:	c4 c1 7e 6f 04 c0    	vmovdqu ymm0,YMMWORD PTR [r8+rax*8]
  406456:	c4 c1 7e 6f 4c c0 20 	vmovdqu ymm1,YMMWORD PTR [r8+rax*8+0x20]
  40645d:	c4 c1 7e 6f 14 c4    	vmovdqu ymm2,YMMWORD PTR [r12+rax*8]
  406463:	c4 c1 7e 6f 5c c4 20 	vmovdqu ymm3,YMMWORD PTR [r12+rax*8+0x20]
  40646a:	c4 c1 7e 7f 14 c0    	vmovdqu YMMWORD PTR [r8+rax*8],ymm2
  406470:	c4 c1 7e 7f 5c c0 20 	vmovdqu YMMWORD PTR [r8+rax*8+0x20],ymm3
  406477:	c4 c1 7e 7f 04 c4    	vmovdqu YMMWORD PTR [r12+rax*8],ymm0
  40647d:	c4 c1 7e 7f 4c c4 20 	vmovdqu YMMWORD PTR [r12+rax*8+0x20],ymm1
  406484:	48 8b 84 24 10 01 00 	mov    rax,QWORD PTR [rsp+0x110]
  40648b:	00 
  40648c:	48 39 44 24 58       	cmp    QWORD PTR [rsp+0x58],rax
  406491:	0f 84 09 01 00 00    	je     4065a0 <fwrite@plt+0x5440>
  406497:	48 8b 8c 24 f0 00 00 	mov    rcx,QWORD PTR [rsp+0xf0]
  40649e:	00 
  40649f:	49 8d 04 cc          	lea    rax,[r12+rcx*8]
  4064a3:	49 8d 0c c8          	lea    rcx,[r8+rcx*8]
  4064a7:	48 8b 94 24 d8 00 00 	mov    rdx,QWORD PTR [rsp+0xd8]
  4064ae:	00 
  4064af:	e9 f4 08 00 00       	jmp    406da8 <fwrite@plt+0x5c48>
  4064b4:	48 83 bc 24 e0 00 00 	cmp    QWORD PTR [rsp+0xe0],0x0
  4064bb:	00 00 
  4064bd:	0f 84 5e 01 00 00    	je     406621 <fwrite@plt+0x54c1>
  4064c3:	48 8b 8c 24 c8 00 00 	mov    rcx,QWORD PTR [rsp+0xc8]
  4064ca:	00 
  4064cb:	31 c0                	xor    eax,eax
  4064cd:	0f 1f 00             	nop    DWORD PTR [rax]
  4064d0:	c4 c1 7c 10 04 80    	vmovups ymm0,YMMWORD PTR [r8+rax*4]
  4064d6:	c4 c1 7c 10 4c 80 20 	vmovups ymm1,YMMWORD PTR [r8+rax*4+0x20]
  4064dd:	c4 c1 7c 10 14 84    	vmovups ymm2,YMMWORD PTR [r12+rax*4]
  4064e3:	c4 c1 7c 10 5c 84 20 	vmovups ymm3,YMMWORD PTR [r12+rax*4+0x20]
  4064ea:	c4 c1 7c 11 14 80    	vmovups YMMWORD PTR [r8+rax*4],ymm2
  4064f0:	c4 c1 7c 11 5c 80 20 	vmovups YMMWORD PTR [r8+rax*4+0x20],ymm3
  4064f7:	c4 c1 7c 11 04 84    	vmovups YMMWORD PTR [r12+rax*4],ymm0
  4064fd:	c4 c1 7c 11 4c 84 20 	vmovups YMMWORD PTR [r12+rax*4+0x20],ymm1
  406504:	c4 c1 7e 6f 44 80 40 	vmovdqu ymm0,YMMWORD PTR [r8+rax*4+0x40]
  40650b:	c4 c1 7e 6f 4c 80 60 	vmovdqu ymm1,YMMWORD PTR [r8+rax*4+0x60]
  406512:	c4 c1 7e 6f 54 84 40 	vmovdqu ymm2,YMMWORD PTR [r12+rax*4+0x40]
  406519:	c4 c1 7e 6f 5c 84 60 	vmovdqu ymm3,YMMWORD PTR [r12+rax*4+0x60]
  406520:	c4 c1 7e 7f 54 80 40 	vmovdqu YMMWORD PTR [r8+rax*4+0x40],ymm2
  406527:	c4 c1 7e 7f 5c 80 60 	vmovdqu YMMWORD PTR [r8+rax*4+0x60],ymm3
  40652e:	c4 c1 7e 7f 44 84 40 	vmovdqu YMMWORD PTR [r12+rax*4+0x40],ymm0
  406535:	c4 c1 7e 7f 4c 84 60 	vmovdqu YMMWORD PTR [r12+rax*4+0x60],ymm1
  40653c:	48 83 c0 20          	add    rax,0x20
  406540:	48 83 c1 02          	add    rcx,0x2
  406544:	75 8a                	jne    4064d0 <fwrite@plt+0x5370>
  406546:	f6 84 24 28 01 00 00 	test   BYTE PTR [rsp+0x128],0x1
  40654d:	01 
  40654e:	74 34                	je     406584 <fwrite@plt+0x5424>
  406550:	c4 c1 7e 6f 04 80    	vmovdqu ymm0,YMMWORD PTR [r8+rax*4]
  406556:	c4 c1 7e 6f 4c 80 20 	vmovdqu ymm1,YMMWORD PTR [r8+rax*4+0x20]
  40655d:	c4 c1 7e 6f 14 84    	vmovdqu ymm2,YMMWORD PTR [r12+rax*4]
  406563:	c4 c1 7e 6f 5c 84 20 	vmovdqu ymm3,YMMWORD PTR [r12+rax*4+0x20]
  40656a:	c4 c1 7e 7f 14 80    	vmovdqu YMMWORD PTR [r8+rax*4],ymm2
  406570:	c4 c1 7e 7f 5c 80 20 	vmovdqu YMMWORD PTR [r8+rax*4+0x20],ymm3
  406577:	c4 c1 7e 7f 04 84    	vmovdqu YMMWORD PTR [r12+rax*4],ymm0
  40657d:	c4 c1 7e 7f 4c 84 20 	vmovdqu YMMWORD PTR [r12+rax*4+0x20],ymm1
  406584:	48 8b 84 24 00 01 00 	mov    rax,QWORD PTR [rsp+0x100]
  40658b:	00 
  40658c:	48 39 84 24 80 00 00 	cmp    QWORD PTR [rsp+0x80],rax
  406593:	00 
  406594:	75 59                	jne    4065ef <fwrite@plt+0x548f>
  406596:	66 2e 0f 1f 84 00 00 	cs nop WORD PTR [rax+rax*1+0x0]
  40659d:	00 00 00 
  4065a0:	4d 01 e8             	add    r8,r13
  4065a3:	48 8b 5c 24 50       	mov    rbx,QWORD PTR [rsp+0x50]
  4065a8:	49 01 dc             	add    r12,rbx
  4065ab:	c7 44 24 48 01 00 00 	mov    DWORD PTR [rsp+0x48],0x1
  4065b2:	00 
  4065b3:	4d 89 c1             	mov    r9,r8
  4065b6:	4d 39 e1             	cmp    r9,r12
  4065b9:	4c 89 64 24 28       	mov    QWORD PTR [rsp+0x28],r12
  4065be:	0f 86 7c 00 00 00    	jbe    406640 <fwrite@plt+0x54e0>
  4065c4:	4d 89 c8             	mov    r8,r9
  4065c7:	4d 39 e0             	cmp    r8,r12
  4065ca:	4c 89 44 24 10       	mov    QWORD PTR [rsp+0x10],r8
  4065cf:	0f 86 1b 01 00 00    	jbe    4066f0 <fwrite@plt+0x5590>
  4065d5:	e9 16 0f 00 00       	jmp    4074f0 <fwrite@plt+0x6390>
  4065da:	31 c0                	xor    eax,eax
  4065dc:	f6 84 24 30 01 00 00 	test   BYTE PTR [rsp+0x130],0x1
  4065e3:	01 
  4065e4:	0f 85 66 fe ff ff    	jne    406450 <fwrite@plt+0x52f0>
  4065ea:	e9 95 fe ff ff       	jmp    406484 <fwrite@plt+0x5324>
  4065ef:	48 8b 84 24 c0 00 00 	mov    rax,QWORD PTR [rsp+0xc0]
  4065f6:	00 
  4065f7:	49 8d 0c 80          	lea    rcx,[r8+rax*4]
  4065fb:	49 8d 14 84          	lea    rdx,[r12+rax*4]
  4065ff:	48 8b 84 24 b0 00 00 	mov    rax,QWORD PTR [rsp+0xb0]
  406606:	00 
  406607:	e9 4a 08 00 00       	jmp    406e56 <fwrite@plt+0x5cf6>
  40660c:	31 c0                	xor    eax,eax
  40660e:	f6 84 24 20 01 00 00 	test   BYTE PTR [rsp+0x120],0x1
  406615:	01 
  406616:	0f 85 14 fd ff ff    	jne    406330 <fwrite@plt+0x51d0>
  40661c:	e9 43 fd ff ff       	jmp    406364 <fwrite@plt+0x5204>
  406621:	31 c0                	xor    eax,eax
  406623:	f6 84 24 28 01 00 00 	test   BYTE PTR [rsp+0x128],0x1
  40662a:	01 
  40662b:	0f 85 1f ff ff ff    	jne    406550 <fwrite@plt+0x53f0>
  406631:	e9 4e ff ff ff       	jmp    406584 <fwrite@plt+0x5424>
  406636:	66 2e 0f 1f 84 00 00 	cs nop WORD PTR [rax+rax*1+0x0]
  40663d:	00 00 00 
  406640:	83 7c 24 68 00       	cmp    DWORD PTR [rsp+0x68],0x0
  406645:	74 19                	je     406660 <fwrite@plt+0x5500>
  406647:	45 31 db             	xor    r11d,r11d
  40664a:	4d 89 c8             	mov    r8,r9
  40664d:	e9 be 09 00 00       	jmp    407010 <fwrite@plt+0x5eb0>
  406652:	66 2e 0f 1f 84 00 00 	cs nop WORD PTR [rax+rax*1+0x0]
  406659:	00 00 00 
  40665c:	0f 1f 40 00          	nop    DWORD PTR [rax+0x0]
  406660:	4d 89 c8             	mov    r8,r9
  406663:	66 2e 0f 1f 84 00 00 	cs nop WORD PTR [rax+rax*1+0x0]
  40666a:	00 00 00 
  40666d:	0f 1f 00             	nop    DWORD PTR [rax]
  406670:	4c 89 c5             	mov    rbp,r8
  406673:	4c 89 c7             	mov    rdi,r8
  406676:	4c 89 d6             	mov    rsi,r10
  406679:	c5 f8 77             	vzeroupper 
  40667c:	ff 54 24 30          	call   QWORD PTR [rsp+0x30]
  406680:	85 c0                	test   eax,eax
  406682:	7f 54                	jg     4066d8 <fwrite@plt+0x5578>
  406684:	74 1a                	je     4066a0 <fwrite@plt+0x5540>
  406686:	4c 8b 54 24 18       	mov    r10,QWORD PTR [rsp+0x18]
  40668b:	49 89 e8             	mov    r8,rbp
  40668e:	4d 01 e8             	add    r8,r13
  406691:	4d 39 e0             	cmp    r8,r12
  406694:	76 da                	jbe    406670 <fwrite@plt+0x5510>
  406696:	e9 45 0e 00 00       	jmp    4074e0 <fwrite@plt+0x6380>
  40669b:	0f 1f 44 00 00       	nop    DWORD PTR [rax+rax*1+0x0]
  4066a0:	48 8b 54 24 40       	mov    rdx,QWORD PTR [rsp+0x40]
  4066a5:	48 8b 02             	mov    rax,QWORD PTR [rdx]
  4066a8:	49 89 e8             	mov    r8,rbp
  4066ab:	48 8b 4d 00          	mov    rcx,QWORD PTR [rbp+0x0]
  4066af:	48 89 0a             	mov    QWORD PTR [rdx],rcx
  4066b2:	48 89 45 00          	mov    QWORD PTR [rbp+0x0],rax
  4066b6:	4c 01 ea             	add    rdx,r13
  4066b9:	48 89 54 24 40       	mov    QWORD PTR [rsp+0x40],rdx
  4066be:	c7 44 24 48 01 00 00 	mov    DWORD PTR [rsp+0x48],0x1
  4066c5:	00 
  4066c6:	4c 8b 54 24 18       	mov    r10,QWORD PTR [rsp+0x18]
  4066cb:	4d 01 e8             	add    r8,r13
  4066ce:	4d 39 e0             	cmp    r8,r12
  4066d1:	76 9d                	jbe    406670 <fwrite@plt+0x5510>
  4066d3:	e9 08 0e 00 00       	jmp    4074e0 <fwrite@plt+0x6380>
  4066d8:	4c 8b 54 24 18       	mov    r10,QWORD PTR [rsp+0x18]
  4066dd:	49 89 e8             	mov    r8,rbp
  4066e0:	4d 39 e0             	cmp    r8,r12
  4066e3:	4c 89 44 24 10       	mov    QWORD PTR [rsp+0x10],r8
  4066e8:	0f 87 02 0e 00 00    	ja     4074f0 <fwrite@plt+0x6390>
  4066ee:	66 90                	xchg   ax,ax
  4066f0:	83 7c 24 68 00       	cmp    DWORD PTR [rsp+0x68],0x0
  4066f5:	74 09                	je     406700 <fwrite@plt+0x55a0>
  4066f7:	45 31 ff             	xor    r15d,r15d
  4066fa:	e9 c1 01 00 00       	jmp    4068c0 <fwrite@plt+0x5760>
  4066ff:	90                   	nop
  406700:	4c 89 e7             	mov    rdi,r12
  406703:	4c 89 d6             	mov    rsi,r10
  406706:	c5 f8 77             	vzeroupper 
  406709:	ff 54 24 30          	call   QWORD PTR [rsp+0x30]
  40670d:	85 c0                	test   eax,eax
  40670f:	0f 88 30 06 00 00    	js     406d45 <fwrite@plt+0x5be5>
  406715:	75 23                	jne    40673a <fwrite@plt+0x55da>
  406717:	49 8b 04 24          	mov    rax,QWORD PTR [r12]
  40671b:	48 8b 54 24 38       	mov    rdx,QWORD PTR [rsp+0x38]
  406720:	48 8b 0a             	mov    rcx,QWORD PTR [rdx]
  406723:	49 89 0c 24          	mov    QWORD PTR [r12],rcx
  406727:	48 89 02             	mov    QWORD PTR [rdx],rax
  40672a:	48 01 da             	add    rdx,rbx
  40672d:	48 89 54 24 38       	mov    QWORD PTR [rsp+0x38],rdx
  406732:	c7 44 24 48 01 00 00 	mov    DWORD PTR [rsp+0x48],0x1
  406739:	00 
  40673a:	4c 8b 54 24 18       	mov    r10,QWORD PTR [rsp+0x18]
  40673f:	4c 8b 44 24 10       	mov    r8,QWORD PTR [rsp+0x10]
  406744:	49 01 dc             	add    r12,rbx
  406747:	4d 39 e0             	cmp    r8,r12
  40674a:	76 b4                	jbe    406700 <fwrite@plt+0x55a0>
  40674c:	e9 9f 0d 00 00       	jmp    4074f0 <fwrite@plt+0x6390>
  406751:	48 83 bc 24 e0 00 00 	cmp    QWORD PTR [rsp+0xe0],0x0
  406758:	00 00 
  40675a:	4c 8b 54 24 18       	mov    r10,QWORD PTR [rsp+0x18]
  40675f:	4c 8b 44 24 10       	mov    r8,QWORD PTR [rsp+0x10]
  406764:	0f 84 39 01 00 00    	je     4068a3 <fwrite@plt+0x5743>
  40676a:	48 8b 8c 24 c8 00 00 	mov    rcx,QWORD PTR [rsp+0xc8]
  406771:	00 
  406772:	31 c0                	xor    eax,eax
  406774:	4c 8b 6c 24 20       	mov    r13,QWORD PTR [rsp+0x20]
  406779:	0f 1f 80 00 00 00 00 	nop    DWORD PTR [rax+0x0]
  406780:	c4 c1 7c 10 04 84    	vmovups ymm0,YMMWORD PTR [r12+rax*4]
  406786:	c4 c1 7c 10 4c 84 20 	vmovups ymm1,YMMWORD PTR [r12+rax*4+0x20]
  40678d:	c5 fc 10 14 82       	vmovups ymm2,YMMWORD PTR [rdx+rax*4]
  406792:	c5 fc 10 5c 82 20    	vmovups ymm3,YMMWORD PTR [rdx+rax*4+0x20]
  406798:	c4 c1 7c 11 14 84    	vmovups YMMWORD PTR [r12+rax*4],ymm2
  40679e:	c4 c1 7c 11 5c 84 20 	vmovups YMMWORD PTR [r12+rax*4+0x20],ymm3
  4067a5:	c5 fc 11 04 82       	vmovups YMMWORD PTR [rdx+rax*4],ymm0
  4067aa:	c5 fc 11 4c 82 20    	vmovups YMMWORD PTR [rdx+rax*4+0x20],ymm1
  4067b0:	c4 c1 7e 6f 44 84 40 	vmovdqu ymm0,YMMWORD PTR [r12+rax*4+0x40]
  4067b7:	c4 c1 7e 6f 4c 84 60 	vmovdqu ymm1,YMMWORD PTR [r12+rax*4+0x60]
  4067be:	c5 fe 6f 54 82 40    	vmovdqu ymm2,YMMWORD PTR [rdx+rax*4+0x40]
  4067c4:	c5 fe 6f 5c 82 60    	vmovdqu ymm3,YMMWORD PTR [rdx+rax*4+0x60]
  4067ca:	c4 c1 7e 7f 54 84 40 	vmovdqu YMMWORD PTR [r12+rax*4+0x40],ymm2
  4067d1:	c4 c1 7e 7f 5c 84 60 	vmovdqu YMMWORD PTR [r12+rax*4+0x60],ymm3
  4067d8:	c5 fe 7f 44 82 40    	vmovdqu YMMWORD PTR [rdx+rax*4+0x40],ymm0
  4067de:	c5 fe 7f 4c 82 60    	vmovdqu YMMWORD PTR [rdx+rax*4+0x60],ymm1
  4067e4:	48 83 c0 20          	add    rax,0x20
  4067e8:	48 83 c1 02          	add    rcx,0x2
  4067ec:	75 92                	jne    406780 <fwrite@plt+0x5620>
  4067ee:	f6 84 24 28 01 00 00 	test   BYTE PTR [rsp+0x128],0x1
  4067f5:	01 
  4067f6:	74 30                	je     406828 <fwrite@plt+0x56c8>
  4067f8:	c4 c1 7e 6f 04 84    	vmovdqu ymm0,YMMWORD PTR [r12+rax*4]
  4067fe:	c4 c1 7e 6f 4c 84 20 	vmovdqu ymm1,YMMWORD PTR [r12+rax*4+0x20]
  406805:	c5 fe 6f 14 82       	vmovdqu ymm2,YMMWORD PTR [rdx+rax*4]
  40680a:	c5 fe 6f 5c 82 20    	vmovdqu ymm3,YMMWORD PTR [rdx+rax*4+0x20]
  406810:	c4 c1 7e 7f 14 84    	vmovdqu YMMWORD PTR [r12+rax*4],ymm2
  406816:	c4 c1 7e 7f 5c 84 20 	vmovdqu YMMWORD PTR [r12+rax*4+0x20],ymm3
  40681d:	c5 fe 7f 04 82       	vmovdqu YMMWORD PTR [rdx+rax*4],ymm0
  406822:	c5 fe 7f 4c 82 20    	vmovdqu YMMWORD PTR [rdx+rax*4+0x20],ymm1
  406828:	48 8b 84 24 00 01 00 	mov    rax,QWORD PTR [rsp+0x100]
  40682f:	00 
  406830:	48 39 84 24 80 00 00 	cmp    QWORD PTR [rsp+0x80],rax
  406837:	00 
  406838:	0f 84 d2 04 00 00    	je     406d10 <fwrite@plt+0x5bb0>
  40683e:	48 8b 84 24 c0 00 00 	mov    rax,QWORD PTR [rsp+0xc0]
  406845:	00 
  406846:	49 8d 0c 84          	lea    rcx,[r12+rax*4]
  40684a:	48 8b 54 24 38       	mov    rdx,QWORD PTR [rsp+0x38]
  40684f:	48 8d 14 82          	lea    rdx,[rdx+rax*4]
  406853:	48 8b 84 24 b0 00 00 	mov    rax,QWORD PTR [rsp+0xb0]
  40685a:	00 
  40685b:	e9 87 04 00 00       	jmp    406ce7 <fwrite@plt+0x5b87>
  406860:	31 c0                	xor    eax,eax
  406862:	4c 8b 6c 24 20       	mov    r13,QWORD PTR [rsp+0x20]
  406867:	4c 8b 54 24 18       	mov    r10,QWORD PTR [rsp+0x18]
  40686c:	4c 8b 44 24 10       	mov    r8,QWORD PTR [rsp+0x10]
  406871:	f6 84 24 30 01 00 00 	test   BYTE PTR [rsp+0x130],0x1
  406878:	01 
  406879:	0f 85 c9 03 00 00    	jne    406c48 <fwrite@plt+0x5ae8>
  40687f:	e9 f4 03 00 00       	jmp    406c78 <fwrite@plt+0x5b18>
  406884:	31 c0                	xor    eax,eax
  406886:	48 8b 54 24 60       	mov    rdx,QWORD PTR [rsp+0x60]
  40688b:	48 8b 74 24 38       	mov    rsi,QWORD PTR [rsp+0x38]
  406890:	f6 84 24 20 01 00 00 	test   BYTE PTR [rsp+0x120],0x1
  406897:	01 
  406898:	0f 85 7a 02 00 00    	jne    406b18 <fwrite@plt+0x59b8>
  40689e:	e9 a5 02 00 00       	jmp    406b48 <fwrite@plt+0x59e8>
  4068a3:	31 c0                	xor    eax,eax
  4068a5:	4c 8b 6c 24 20       	mov    r13,QWORD PTR [rsp+0x20]
  4068aa:	f6 84 24 28 01 00 00 	test   BYTE PTR [rsp+0x128],0x1
  4068b1:	01 
  4068b2:	0f 85 40 ff ff ff    	jne    4067f8 <fwrite@plt+0x5698>
  4068b8:	e9 6b ff ff ff       	jmp    406828 <fwrite@plt+0x56c8>
  4068bd:	0f 1f 00             	nop    DWORD PTR [rax]
  4068c0:	4d 89 fe             	mov    r14,r15
  4068c3:	4c 0f af f3          	imul   r14,rbx
  4068c7:	48 8b 4c 24 28       	mov    rcx,QWORD PTR [rsp+0x28]
  4068cc:	4a 8d 2c 31          	lea    rbp,[rcx+r14*1]
  4068d0:	48 8b 44 24 60       	mov    rax,QWORD PTR [rsp+0x60]
  4068d5:	4a 8d 1c 30          	lea    rbx,[rax+r14*1]
  4068d9:	48 01 cb             	add    rbx,rcx
  4068dc:	48 8b 84 24 90 00 00 	mov    rax,QWORD PTR [rsp+0x90]
  4068e3:	00 
  4068e4:	4e 8d 2c 30          	lea    r13,[rax+r14*1]
  4068e8:	49 01 cd             	add    r13,rcx
  4068eb:	4c 03 b4 24 a0 00 00 	add    r14,QWORD PTR [rsp+0xa0]
  4068f2:	00 
  4068f3:	49 01 ce             	add    r14,rcx
  4068f6:	4c 89 e7             	mov    rdi,r12
  4068f9:	4c 89 d6             	mov    rsi,r10
  4068fc:	c5 f8 77             	vzeroupper 
  4068ff:	ff 54 24 30          	call   QWORD PTR [rsp+0x30]
  406903:	85 c0                	test   eax,eax
  406905:	0f 88 35 04 00 00    	js     406d40 <fwrite@plt+0x5be0>
  40690b:	74 33                	je     406940 <fwrite@plt+0x57e0>
  40690d:	4c 8b 6c 24 20       	mov    r13,QWORD PTR [rsp+0x20]
  406912:	48 8b 5c 24 50       	mov    rbx,QWORD PTR [rsp+0x50]
  406917:	4c 8b 54 24 18       	mov    r10,QWORD PTR [rsp+0x18]
  40691c:	4c 8b 44 24 10       	mov    r8,QWORD PTR [rsp+0x10]
  406921:	49 01 dc             	add    r12,rbx
  406924:	49 83 c7 01          	add    r15,0x1
  406928:	4d 39 e0             	cmp    r8,r12
  40692b:	76 93                	jbe    4068c0 <fwrite@plt+0x5760>
  40692d:	e9 be 0b 00 00       	jmp    4074f0 <fwrite@plt+0x6390>
  406932:	66 2e 0f 1f 84 00 00 	cs nop WORD PTR [rax+rax*1+0x0]
  406939:	00 00 00 
  40693c:	0f 1f 40 00          	nop    DWORD PTR [rax+0x0]
  406940:	83 7c 24 6c 00       	cmp    DWORD PTR [rsp+0x6c],0x0
  406945:	74 16                	je     40695d <fwrite@plt+0x57fd>
  406947:	f6 44 24 0f 01       	test   BYTE PTR [rsp+0xf],0x1
  40694c:	74 34                	je     406982 <fwrite@plt+0x5822>
  40694e:	48 83 7c 24 58 08    	cmp    QWORD PTR [rsp+0x58],0x8
  406954:	73 58                	jae    4069ae <fwrite@plt+0x584e>
  406956:	48 8b 44 24 38       	mov    rax,QWORD PTR [rsp+0x38]
  40695b:	eb 77                	jmp    4069d4 <fwrite@plt+0x5874>
  40695d:	41 8b 04 24          	mov    eax,DWORD PTR [r12]
  406961:	48 8b 54 24 38       	mov    rdx,QWORD PTR [rsp+0x38]
  406966:	8b 0a                	mov    ecx,DWORD PTR [rdx]
  406968:	41 89 0c 24          	mov    DWORD PTR [r12],ecx
  40696c:	89 02                	mov    DWORD PTR [rdx],eax
  40696e:	4c 8b 6c 24 20       	mov    r13,QWORD PTR [rsp+0x20]
  406973:	4c 8b 54 24 18       	mov    r10,QWORD PTR [rsp+0x18]
  406978:	4c 8b 44 24 10       	mov    r8,QWORD PTR [rsp+0x10]
  40697d:	e9 8e 03 00 00       	jmp    406d10 <fwrite@plt+0x5bb0>
  406982:	f6 44 24 0e 01       	test   BYTE PTR [rsp+0xe],0x1
  406987:	0f 84 96 00 00 00    	je     406a23 <fwrite@plt+0x58c3>
  40698d:	48 83 bc 24 80 00 00 	cmp    QWORD PTR [rsp+0x80],0x10
  406994:	00 10 
  406996:	0f 83 11 03 00 00    	jae    406cad <fwrite@plt+0x5b4d>
  40699c:	48 8b 44 24 78       	mov    rax,QWORD PTR [rsp+0x78]
  4069a1:	4c 89 e1             	mov    rcx,r12
  4069a4:	48 8b 54 24 38       	mov    rdx,QWORD PTR [rsp+0x38]
  4069a9:	e9 2a 03 00 00       	jmp    406cd8 <fwrite@plt+0x5b78>
  4069ae:	48 8b 84 24 a0 00 00 	mov    rax,QWORD PTR [rsp+0xa0]
  4069b5:	00 
  4069b6:	48 8b 54 24 38       	mov    rdx,QWORD PTR [rsp+0x38]
  4069bb:	48 8d 04 02          	lea    rax,[rdx+rax*1]
  4069bf:	48 39 c5             	cmp    rbp,rax
  4069c2:	0f 83 d9 01 00 00    	jae    406ba1 <fwrite@plt+0x5a41>
  4069c8:	4c 39 f2             	cmp    rdx,r14
  4069cb:	0f 83 d0 01 00 00    	jae    406ba1 <fwrite@plt+0x5a41>
  4069d1:	48 89 d0             	mov    rax,rdx
  4069d4:	4c 89 e1             	mov    rcx,r12
  4069d7:	48 8b 94 24 88 00 00 	mov    rdx,QWORD PTR [rsp+0x88]
  4069de:	00 
  4069df:	4c 8b 6c 24 20       	mov    r13,QWORD PTR [rsp+0x20]
  4069e4:	4c 8b 54 24 18       	mov    r10,QWORD PTR [rsp+0x18]
  4069e9:	4c 8b 44 24 10       	mov    r8,QWORD PTR [rsp+0x10]
  4069ee:	48 83 c2 01          	add    rdx,0x1
  4069f2:	31 f6                	xor    esi,esi
  4069f4:	66 2e 0f 1f 84 00 00 	cs nop WORD PTR [rax+rax*1+0x0]
  4069fb:	00 00 00 
  4069fe:	66 90                	xchg   ax,ax
  406a00:	48 8b 3c 31          	mov    rdi,QWORD PTR [rcx+rsi*1]
  406a04:	48 8b 2c 30          	mov    rbp,QWORD PTR [rax+rsi*1]
  406a08:	48 89 2c 31          	mov    QWORD PTR [rcx+rsi*1],rbp
  406a0c:	48 89 3c 30          	mov    QWORD PTR [rax+rsi*1],rdi
  406a10:	48 83 c6 08          	add    rsi,0x8
  406a14:	48 83 c2 ff          	add    rdx,0xffffffffffffffff
  406a18:	48 83 fa 01          	cmp    rdx,0x1
  406a1c:	7f e2                	jg     406a00 <fwrite@plt+0x58a0>
  406a1e:	e9 ed 02 00 00       	jmp    406d10 <fwrite@plt+0x5bb0>
  406a23:	48 8b 44 24 70       	mov    rax,QWORD PTR [rsp+0x70]
  406a28:	4c 89 e7             	mov    rdi,r12
  406a2b:	48 8b 4c 24 38       	mov    rcx,QWORD PTR [rsp+0x38]
  406a30:	48 89 ca             	mov    rdx,rcx
  406a33:	48 83 7c 24 60 3f    	cmp    QWORD PTR [rsp+0x60],0x3f
  406a39:	4c 8b 6c 24 20       	mov    r13,QWORD PTR [rsp+0x20]
  406a3e:	4c 8b 54 24 18       	mov    r10,QWORD PTR [rsp+0x18]
  406a43:	4c 8b 44 24 10       	mov    r8,QWORD PTR [rsp+0x10]
  406a48:	0f 86 25 01 00 00    	jbe    406b73 <fwrite@plt+0x5a13>
  406a4e:	48 8b 44 24 60       	mov    rax,QWORD PTR [rsp+0x60]
  406a53:	48 8d 04 01          	lea    rax,[rcx+rax*1]
  406a57:	48 39 c5             	cmp    rbp,rax
  406a5a:	73 14                	jae    406a70 <fwrite@plt+0x5910>
  406a5c:	48 8b 44 24 70       	mov    rax,QWORD PTR [rsp+0x70]
  406a61:	4c 89 e7             	mov    rdi,r12
  406a64:	48 89 ca             	mov    rdx,rcx
  406a67:	48 39 d9             	cmp    rcx,rbx
  406a6a:	0f 82 03 01 00 00    	jb     406b73 <fwrite@plt+0x5a13>
  406a70:	48 83 bc 24 e8 00 00 	cmp    QWORD PTR [rsp+0xe8],0x0
  406a77:	00 00 
  406a79:	0f 84 05 fe ff ff    	je     406884 <fwrite@plt+0x5724>
  406a7f:	48 8b 8c 24 d0 00 00 	mov    rcx,QWORD PTR [rsp+0xd0]
  406a86:	00 
  406a87:	31 c0                	xor    eax,eax
  406a89:	48 8b 54 24 60       	mov    rdx,QWORD PTR [rsp+0x60]
  406a8e:	48 8b 74 24 38       	mov    rsi,QWORD PTR [rsp+0x38]
  406a93:	66 2e 0f 1f 84 00 00 	cs nop WORD PTR [rax+rax*1+0x0]
  406a9a:	00 00 00 
  406a9d:	0f 1f 00             	nop    DWORD PTR [rax]
  406aa0:	c4 c1 7c 10 04 04    	vmovups ymm0,YMMWORD PTR [r12+rax*1]
  406aa6:	c4 c1 7c 10 4c 04 20 	vmovups ymm1,YMMWORD PTR [r12+rax*1+0x20]
  406aad:	c5 fc 10 14 06       	vmovups ymm2,YMMWORD PTR [rsi+rax*1]
  406ab2:	c5 fc 10 5c 06 20    	vmovups ymm3,YMMWORD PTR [rsi+rax*1+0x20]
  406ab8:	c4 c1 7c 11 14 04    	vmovups YMMWORD PTR [r12+rax*1],ymm2
  406abe:	c4 c1 7c 11 5c 04 20 	vmovups YMMWORD PTR [r12+rax*1+0x20],ymm3
  406ac5:	c5 fc 11 04 06       	vmovups YMMWORD PTR [rsi+rax*1],ymm0
  406aca:	c5 fc 11 4c 06 20    	vmovups YMMWORD PTR [rsi+rax*1+0x20],ymm1
  406ad0:	c4 c1 7e 6f 44 04 40 	vmovdqu ymm0,YMMWORD PTR [r12+rax*1+0x40]
  406ad7:	c4 c1 7e 6f 4c 04 60 	vmovdqu ymm1,YMMWORD PTR [r12+rax*1+0x60]
  406ade:	c5 fe 6f 54 06 40    	vmovdqu ymm2,YMMWORD PTR [rsi+rax*1+0x40]
  406ae4:	c5 fe 6f 5c 06 60    	vmovdqu ymm3,YMMWORD PTR [rsi+rax*1+0x60]
  406aea:	c4 c1 7e 7f 54 04 40 	vmovdqu YMMWORD PTR [r12+rax*1+0x40],ymm2
  406af1:	c4 c1 7e 7f 5c 04 60 	vmovdqu YMMWORD PTR [r12+rax*1+0x60],ymm3
  406af8:	c5 fe 7f 44 06 40    	vmovdqu YMMWORD PTR [rsi+rax*1+0x40],ymm0
  406afe:	c5 fe 7f 4c 06 60    	vmovdqu YMMWORD PTR [rsi+rax*1+0x60],ymm1
  406b04:	48 83 e8 80          	sub    rax,0xffffffffffffff80
  406b08:	48 83 c1 02          	add    rcx,0x2
  406b0c:	75 92                	jne    406aa0 <fwrite@plt+0x5940>
  406b0e:	f6 84 24 20 01 00 00 	test   BYTE PTR [rsp+0x120],0x1
  406b15:	01 
  406b16:	74 30                	je     406b48 <fwrite@plt+0x59e8>
  406b18:	c4 c1 7e 6f 04 04    	vmovdqu ymm0,YMMWORD PTR [r12+rax*1]
  406b1e:	c4 c1 7e 6f 4c 04 20 	vmovdqu ymm1,YMMWORD PTR [r12+rax*1+0x20]
  406b25:	c5 fe 6f 14 06       	vmovdqu ymm2,YMMWORD PTR [rsi+rax*1]
  406b2a:	c5 fe 6f 5c 06 20    	vmovdqu ymm3,YMMWORD PTR [rsi+rax*1+0x20]
  406b30:	c4 c1 7e 7f 14 04    	vmovdqu YMMWORD PTR [r12+rax*1],ymm2
  406b36:	c4 c1 7e 7f 5c 04 20 	vmovdqu YMMWORD PTR [r12+rax*1+0x20],ymm3
  406b3d:	c5 fe 7f 04 06       	vmovdqu YMMWORD PTR [rsi+rax*1],ymm0
  406b42:	c5 fe 7f 4c 06 20    	vmovdqu YMMWORD PTR [rsi+rax*1+0x20],ymm1
  406b48:	48 3b 94 24 f8 00 00 	cmp    rdx,QWORD PTR [rsp+0xf8]
  406b4f:	00 
  406b50:	0f 84 ba 01 00 00    	je     406d10 <fwrite@plt+0x5bb0>
  406b56:	48 8b 84 24 b8 00 00 	mov    rax,QWORD PTR [rsp+0xb8]
  406b5d:	00 
  406b5e:	49 8d 3c 04          	lea    rdi,[r12+rax*1]
  406b62:	48 8b 4c 24 38       	mov    rcx,QWORD PTR [rsp+0x38]
  406b67:	48 8d 14 01          	lea    rdx,[rcx+rax*1]
  406b6b:	48 8b 84 24 a8 00 00 	mov    rax,QWORD PTR [rsp+0xa8]
  406b72:	00 
  406b73:	48 83 c0 01          	add    rax,0x1
  406b77:	31 f6                	xor    esi,esi
  406b79:	0f 1f 80 00 00 00 00 	nop    DWORD PTR [rax+0x0]
  406b80:	0f b6 1c 37          	movzx  ebx,BYTE PTR [rdi+rsi*1]
  406b84:	0f b6 0c 32          	movzx  ecx,BYTE PTR [rdx+rsi*1]
  406b88:	88 0c 37             	mov    BYTE PTR [rdi+rsi*1],cl
  406b8b:	88 1c 32             	mov    BYTE PTR [rdx+rsi*1],bl
  406b8e:	48 83 c0 ff          	add    rax,0xffffffffffffffff
  406b92:	48 83 c6 01          	add    rsi,0x1
  406b96:	48 83 f8 01          	cmp    rax,0x1
  406b9a:	7f e4                	jg     406b80 <fwrite@plt+0x5a20>
  406b9c:	e9 6f 01 00 00       	jmp    406d10 <fwrite@plt+0x5bb0>
  406ba1:	48 83 bc 24 18 01 00 	cmp    QWORD PTR [rsp+0x118],0x0
  406ba8:	00 00 
  406baa:	0f 84 b0 fc ff ff    	je     406860 <fwrite@plt+0x5700>
  406bb0:	48 8b 8c 24 08 01 00 	mov    rcx,QWORD PTR [rsp+0x108]
  406bb7:	00 
  406bb8:	31 c0                	xor    eax,eax
  406bba:	4c 8b 6c 24 20       	mov    r13,QWORD PTR [rsp+0x20]
  406bbf:	4c 8b 54 24 18       	mov    r10,QWORD PTR [rsp+0x18]
  406bc4:	4c 8b 44 24 10       	mov    r8,QWORD PTR [rsp+0x10]
  406bc9:	0f 1f 80 00 00 00 00 	nop    DWORD PTR [rax+0x0]
  406bd0:	c4 c1 7c 10 04 c4    	vmovups ymm0,YMMWORD PTR [r12+rax*8]
  406bd6:	c4 c1 7c 10 4c c4 20 	vmovups ymm1,YMMWORD PTR [r12+rax*8+0x20]
  406bdd:	c5 fc 10 14 c2       	vmovups ymm2,YMMWORD PTR [rdx+rax*8]
  406be2:	c5 fc 10 5c c2 20    	vmovups ymm3,YMMWORD PTR [rdx+rax*8+0x20]
  406be8:	c4 c1 7c 11 14 c4    	vmovups YMMWORD PTR [r12+rax*8],ymm2
  406bee:	c4 c1 7c 11 5c c4 20 	vmovups YMMWORD PTR [r12+rax*8+0x20],ymm3
  406bf5:	c5 fc 11 04 c2       	vmovups YMMWORD PTR [rdx+rax*8],ymm0
  406bfa:	c5 fc 11 4c c2 20    	vmovups YMMWORD PTR [rdx+rax*8+0x20],ymm1
  406c00:	c4 c1 7e 6f 44 c4 40 	vmovdqu ymm0,YMMWORD PTR [r12+rax*8+0x40]
  406c07:	c4 c1 7e 6f 4c c4 60 	vmovdqu ymm1,YMMWORD PTR [r12+rax*8+0x60]
  406c0e:	c5 fe 6f 54 c2 40    	vmovdqu ymm2,YMMWORD PTR [rdx+rax*8+0x40]
  406c14:	c5 fe 6f 5c c2 60    	vmovdqu ymm3,YMMWORD PTR [rdx+rax*8+0x60]
  406c1a:	c4 c1 7e 7f 54 c4 40 	vmovdqu YMMWORD PTR [r12+rax*8+0x40],ymm2
  406c21:	c4 c1 7e 7f 5c c4 60 	vmovdqu YMMWORD PTR [r12+rax*8+0x60],ymm3
  406c28:	c5 fe 7f 44 c2 40    	vmovdqu YMMWORD PTR [rdx+rax*8+0x40],ymm0
  406c2e:	c5 fe 7f 4c c2 60    	vmovdqu YMMWORD PTR [rdx+rax*8+0x60],ymm1
  406c34:	48 83 c0 10          	add    rax,0x10
  406c38:	48 83 c1 02          	add    rcx,0x2
  406c3c:	75 92                	jne    406bd0 <fwrite@plt+0x5a70>
  406c3e:	f6 84 24 30 01 00 00 	test   BYTE PTR [rsp+0x130],0x1
  406c45:	01 
  406c46:	74 30                	je     406c78 <fwrite@plt+0x5b18>
  406c48:	c4 c1 7e 6f 04 c4    	vmovdqu ymm0,YMMWORD PTR [r12+rax*8]
  406c4e:	c4 c1 7e 6f 4c c4 20 	vmovdqu ymm1,YMMWORD PTR [r12+rax*8+0x20]
  406c55:	c5 fe 6f 14 c2       	vmovdqu ymm2,YMMWORD PTR [rdx+rax*8]
  406c5a:	c5 fe 6f 5c c2 20    	vmovdqu ymm3,YMMWORD PTR [rdx+rax*8+0x20]
  406c60:	c4 c1 7e 7f 14 c4    	vmovdqu YMMWORD PTR [r12+rax*8],ymm2
  406c66:	c4 c1 7e 7f 5c c4 20 	vmovdqu YMMWORD PTR [r12+rax*8+0x20],ymm3
  406c6d:	c5 fe 7f 04 c2       	vmovdqu YMMWORD PTR [rdx+rax*8],ymm0
  406c72:	c5 fe 7f 4c c2 20    	vmovdqu YMMWORD PTR [rdx+rax*8+0x20],ymm1
  406c78:	48 8b 84 24 10 01 00 	mov    rax,QWORD PTR [rsp+0x110]
  406c7f:	00 
  406c80:	48 39 44 24 58       	cmp    QWORD PTR [rsp+0x58],rax
  406c85:	0f 84 85 00 00 00    	je     406d10 <fwrite@plt+0x5bb0>
  406c8b:	48 8b 8c 24 f0 00 00 	mov    rcx,QWORD PTR [rsp+0xf0]
  406c92:	00 
  406c93:	48 8b 44 24 38       	mov    rax,QWORD PTR [rsp+0x38]
  406c98:	48 8d 04 c8          	lea    rax,[rax+rcx*8]
  406c9c:	49 8d 0c cc          	lea    rcx,[r12+rcx*8]
  406ca0:	48 8b 94 24 d8 00 00 	mov    rdx,QWORD PTR [rsp+0xd8]
  406ca7:	00 
  406ca8:	e9 41 fd ff ff       	jmp    4069ee <fwrite@plt+0x588e>
  406cad:	48 8b 84 24 90 00 00 	mov    rax,QWORD PTR [rsp+0x90]
  406cb4:	00 
  406cb5:	48 8b 54 24 38       	mov    rdx,QWORD PTR [rsp+0x38]
  406cba:	48 8d 04 02          	lea    rax,[rdx+rax*1]
  406cbe:	48 39 c5             	cmp    rbp,rax
  406cc1:	0f 83 8a fa ff ff    	jae    406751 <fwrite@plt+0x55f1>
  406cc7:	4c 39 ea             	cmp    rdx,r13
  406cca:	0f 83 81 fa ff ff    	jae    406751 <fwrite@plt+0x55f1>
  406cd0:	48 8b 44 24 78       	mov    rax,QWORD PTR [rsp+0x78]
  406cd5:	4c 89 e1             	mov    rcx,r12
  406cd8:	4c 8b 6c 24 20       	mov    r13,QWORD PTR [rsp+0x20]
  406cdd:	4c 8b 54 24 18       	mov    r10,QWORD PTR [rsp+0x18]
  406ce2:	4c 8b 44 24 10       	mov    r8,QWORD PTR [rsp+0x10]
  406ce7:	48 83 c0 01          	add    rax,0x1
  406ceb:	31 f6                	xor    esi,esi
  406ced:	0f 1f 00             	nop    DWORD PTR [rax]
  406cf0:	8b 3c 31             	mov    edi,DWORD PTR [rcx+rsi*1]
  406cf3:	8b 2c 32             	mov    ebp,DWORD PTR [rdx+rsi*1]
  406cf6:	89 2c 31             	mov    DWORD PTR [rcx+rsi*1],ebp
  406cf9:	89 3c 32             	mov    DWORD PTR [rdx+rsi*1],edi
  406cfc:	48 83 c0 ff          	add    rax,0xffffffffffffffff
  406d00:	48 83 c6 04          	add    rsi,0x4
  406d04:	48 83 f8 01          	cmp    rax,0x1
  406d08:	7f e6                	jg     406cf0 <fwrite@plt+0x5b90>
  406d0a:	66 0f 1f 44 00 00    	nop    WORD PTR [rax+rax*1+0x0]
  406d10:	48 8b 5c 24 50       	mov    rbx,QWORD PTR [rsp+0x50]
  406d15:	48 01 5c 24 38       	add    QWORD PTR [rsp+0x38],rbx
  406d1a:	c7 44 24 48 01 00 00 	mov    DWORD PTR [rsp+0x48],0x1
  406d21:	00 
  406d22:	49 01 dc             	add    r12,rbx
  406d25:	49 83 c7 01          	add    r15,0x1
  406d29:	4d 39 e0             	cmp    r8,r12
  406d2c:	0f 86 8e fb ff ff    	jbe    4068c0 <fwrite@plt+0x5760>
  406d32:	e9 b9 07 00 00       	jmp    4074f0 <fwrite@plt+0x6390>
  406d37:	66 0f 1f 84 00 00 00 	nop    WORD PTR [rax+rax*1+0x0]
  406d3e:	00 00 
  406d40:	4c 8b 6c 24 20       	mov    r13,QWORD PTR [rsp+0x20]
  406d45:	48 8b 8c 24 48 01 00 	mov    rcx,QWORD PTR [rsp+0x148]
  406d4c:	00 
  406d4d:	83 7c 24 68 00       	cmp    DWORD PTR [rsp+0x68],0x0
  406d52:	4c 8b 54 24 18       	mov    r10,QWORD PTR [rsp+0x18]
  406d57:	4c 8b 44 24 10       	mov    r8,QWORD PTR [rsp+0x10]
  406d5c:	0f 84 7e 00 00 00    	je     406de0 <fwrite@plt+0x5c80>
  406d62:	83 7c 24 6c 00       	cmp    DWORD PTR [rsp+0x6c],0x0
  406d67:	0f 84 93 00 00 00    	je     406e00 <fwrite@plt+0x5ca0>
  406d6d:	f6 44 24 0f 01       	test   BYTE PTR [rsp+0xf],0x1
  406d72:	0f 84 9b 00 00 00    	je     406e13 <fwrite@plt+0x5cb3>
  406d78:	48 83 7c 24 58 08    	cmp    QWORD PTR [rsp+0x58],0x8
  406d7e:	72 1a                	jb     406d9a <fwrite@plt+0x5c3a>
  406d80:	49 8d 04 0c          	lea    rax,[r12+rcx*1]
  406d84:	49 39 c0             	cmp    r8,rax
  406d87:	0f 83 24 f6 ff ff    	jae    4063b1 <fwrite@plt+0x5251>
  406d8d:	49 8d 04 08          	lea    rax,[r8+rcx*1]
  406d91:	49 39 c4             	cmp    r12,rax
  406d94:	0f 83 17 f6 ff ff    	jae    4063b1 <fwrite@plt+0x5251>
  406d9a:	4c 89 e0             	mov    rax,r12
  406d9d:	4c 89 c1             	mov    rcx,r8
  406da0:	48 8b 94 24 88 00 00 	mov    rdx,QWORD PTR [rsp+0x88]
  406da7:	00 
  406da8:	48 83 c2 01          	add    rdx,0x1
  406dac:	31 f6                	xor    esi,esi
  406dae:	66 90                	xchg   ax,ax
  406db0:	48 8b 3c 31          	mov    rdi,QWORD PTR [rcx+rsi*1]
  406db4:	48 8b 2c 30          	mov    rbp,QWORD PTR [rax+rsi*1]
  406db8:	48 89 2c 31          	mov    QWORD PTR [rcx+rsi*1],rbp
  406dbc:	48 89 3c 30          	mov    QWORD PTR [rax+rsi*1],rdi
  406dc0:	48 83 c6 08          	add    rsi,0x8
  406dc4:	48 83 c2 ff          	add    rdx,0xffffffffffffffff
  406dc8:	48 83 fa 01          	cmp    rdx,0x1
  406dcc:	7f e2                	jg     406db0 <fwrite@plt+0x5c50>
  406dce:	e9 cd f7 ff ff       	jmp    4065a0 <fwrite@plt+0x5440>
  406dd3:	66 2e 0f 1f 84 00 00 	cs nop WORD PTR [rax+rax*1+0x0]
  406dda:	00 00 00 
  406ddd:	0f 1f 00             	nop    DWORD PTR [rax]
  406de0:	49 8b 00             	mov    rax,QWORD PTR [r8]
  406de3:	49 8b 0c 24          	mov    rcx,QWORD PTR [r12]
  406de7:	49 89 08             	mov    QWORD PTR [r8],rcx
  406dea:	49 89 04 24          	mov    QWORD PTR [r12],rax
  406dee:	e9 ad f7 ff ff       	jmp    4065a0 <fwrite@plt+0x5440>
  406df3:	66 2e 0f 1f 84 00 00 	cs nop WORD PTR [rax+rax*1+0x0]
  406dfa:	00 00 00 
  406dfd:	0f 1f 00             	nop    DWORD PTR [rax]
  406e00:	41 8b 00             	mov    eax,DWORD PTR [r8]
  406e03:	41 8b 0c 24          	mov    ecx,DWORD PTR [r12]
  406e07:	41 89 08             	mov    DWORD PTR [r8],ecx
  406e0a:	41 89 04 24          	mov    DWORD PTR [r12],eax
  406e0e:	e9 8d f7 ff ff       	jmp    4065a0 <fwrite@plt+0x5440>
  406e13:	f6 44 24 0e 01       	test   BYTE PTR [rsp+0xe],0x1
  406e18:	0f 84 3c f4 ff ff    	je     40625a <fwrite@plt+0x50fa>
  406e1e:	48 83 bc 24 80 00 00 	cmp    QWORD PTR [rsp+0x80],0x10
  406e25:	00 10 
  406e27:	72 22                	jb     406e4b <fwrite@plt+0x5ceb>
  406e29:	48 8b 8c 24 50 01 00 	mov    rcx,QWORD PTR [rsp+0x150]
  406e30:	00 
  406e31:	49 8d 04 0c          	lea    rax,[r12+rcx*1]
  406e35:	49 39 c0             	cmp    r8,rax
  406e38:	0f 83 76 f6 ff ff    	jae    4064b4 <fwrite@plt+0x5354>
  406e3e:	49 8d 04 08          	lea    rax,[r8+rcx*1]
  406e42:	49 39 c4             	cmp    r12,rax
  406e45:	0f 83 69 f6 ff ff    	jae    4064b4 <fwrite@plt+0x5354>
  406e4b:	48 8b 44 24 78       	mov    rax,QWORD PTR [rsp+0x78]
  406e50:	4c 89 c1             	mov    rcx,r8
  406e53:	4c 89 e2             	mov    rdx,r12
  406e56:	48 83 c0 01          	add    rax,0x1
  406e5a:	31 f6                	xor    esi,esi
  406e5c:	0f 1f 40 00          	nop    DWORD PTR [rax+0x0]
  406e60:	8b 3c 31             	mov    edi,DWORD PTR [rcx+rsi*1]
  406e63:	8b 2c 32             	mov    ebp,DWORD PTR [rdx+rsi*1]
  406e66:	89 2c 31             	mov    DWORD PTR [rcx+rsi*1],ebp
  406e69:	89 3c 32             	mov    DWORD PTR [rdx+rsi*1],edi
  406e6c:	48 83 c0 ff          	add    rax,0xffffffffffffffff
  406e70:	48 83 c6 04          	add    rsi,0x4
  406e74:	48 83 f8 01          	cmp    rax,0x1
  406e78:	7f e6                	jg     406e60 <fwrite@plt+0x5d00>
  406e7a:	e9 21 f7 ff ff       	jmp    4065a0 <fwrite@plt+0x5440>
  406e7f:	48 83 bc 24 e0 00 00 	cmp    QWORD PTR [rsp+0xe0],0x0
  406e86:	00 00 
  406e88:	4c 8b 54 24 18       	mov    r10,QWORD PTR [rsp+0x18]
  406e8d:	4d 89 e0             	mov    r8,r12
  406e90:	4d 89 f9             	mov    r9,r15
  406e93:	4c 8b 5c 24 10       	mov    r11,QWORD PTR [rsp+0x10]
  406e98:	0f 84 48 01 00 00    	je     406fe6 <fwrite@plt+0x5e86>
  406e9e:	48 8b 8c 24 c8 00 00 	mov    rcx,QWORD PTR [rsp+0xc8]
  406ea5:	00 
  406ea6:	31 c0                	xor    eax,eax
  406ea8:	4c 8b 6c 24 20       	mov    r13,QWORD PTR [rsp+0x20]
  406ead:	4c 8b 64 24 28       	mov    r12,QWORD PTR [rsp+0x28]
  406eb2:	66 2e 0f 1f 84 00 00 	cs nop WORD PTR [rax+rax*1+0x0]
  406eb9:	00 00 00 
  406ebc:	0f 1f 40 00          	nop    DWORD PTR [rax+0x0]
  406ec0:	c5 fc 10 04 82       	vmovups ymm0,YMMWORD PTR [rdx+rax*4]
  406ec5:	c5 fc 10 4c 82 20    	vmovups ymm1,YMMWORD PTR [rdx+rax*4+0x20]
  406ecb:	c4 c1 7c 10 14 80    	vmovups ymm2,YMMWORD PTR [r8+rax*4]
  406ed1:	c4 c1 7c 10 5c 80 20 	vmovups ymm3,YMMWORD PTR [r8+rax*4+0x20]
  406ed8:	c5 fc 11 14 82       	vmovups YMMWORD PTR [rdx+rax*4],ymm2
  406edd:	c5 fc 11 5c 82 20    	vmovups YMMWORD PTR [rdx+rax*4+0x20],ymm3
  406ee3:	c4 c1 7c 11 04 80    	vmovups YMMWORD PTR [r8+rax*4],ymm0
  406ee9:	c4 c1 7c 11 4c 80 20 	vmovups YMMWORD PTR [r8+rax*4+0x20],ymm1
  406ef0:	c5 fe 6f 44 82 40    	vmovdqu ymm0,YMMWORD PTR [rdx+rax*4+0x40]
  406ef6:	c5 fe 6f 4c 82 60    	vmovdqu ymm1,YMMWORD PTR [rdx+rax*4+0x60]
  406efc:	c4 c1 7e 6f 54 80 40 	vmovdqu ymm2,YMMWORD PTR [r8+rax*4+0x40]
  406f03:	c4 c1 7e 6f 5c 80 60 	vmovdqu ymm3,YMMWORD PTR [r8+rax*4+0x60]
  406f0a:	c5 fe 7f 54 82 40    	vmovdqu YMMWORD PTR [rdx+rax*4+0x40],ymm2
  406f10:	c5 fe 7f 5c 82 60    	vmovdqu YMMWORD PTR [rdx+rax*4+0x60],ymm3
  406f16:	c4 c1 7e 7f 44 80 40 	vmovdqu YMMWORD PTR [r8+rax*4+0x40],ymm0
  406f1d:	c4 c1 7e 7f 4c 80 60 	vmovdqu YMMWORD PTR [r8+rax*4+0x60],ymm1
  406f24:	48 83 c0 20          	add    rax,0x20
  406f28:	48 83 c1 02          	add    rcx,0x2
  406f2c:	75 92                	jne    406ec0 <fwrite@plt+0x5d60>
  406f2e:	f6 84 24 28 01 00 00 	test   BYTE PTR [rsp+0x128],0x1
  406f35:	01 
  406f36:	74 30                	je     406f68 <fwrite@plt+0x5e08>
  406f38:	c5 fe 6f 04 82       	vmovdqu ymm0,YMMWORD PTR [rdx+rax*4]
  406f3d:	c5 fe 6f 4c 82 20    	vmovdqu ymm1,YMMWORD PTR [rdx+rax*4+0x20]
  406f43:	c4 c1 7e 6f 14 80    	vmovdqu ymm2,YMMWORD PTR [r8+rax*4]
  406f49:	c4 c1 7e 6f 5c 80 20 	vmovdqu ymm3,YMMWORD PTR [r8+rax*4+0x20]
  406f50:	c5 fe 7f 14 82       	vmovdqu YMMWORD PTR [rdx+rax*4],ymm2
  406f55:	c5 fe 7f 5c 82 20    	vmovdqu YMMWORD PTR [rdx+rax*4+0x20],ymm3
  406f5b:	c4 c1 7e 7f 04 80    	vmovdqu YMMWORD PTR [r8+rax*4],ymm0
  406f61:	c4 c1 7e 7f 4c 80 20 	vmovdqu YMMWORD PTR [r8+rax*4+0x20],ymm1
  406f68:	48 8b 84 24 00 01 00 	mov    rax,QWORD PTR [rsp+0x100]
  406f6f:	00 
  406f70:	48 39 84 24 80 00 00 	cmp    QWORD PTR [rsp+0x80],rax
  406f77:	00 
  406f78:	0f 84 32 05 00 00    	je     4074b0 <fwrite@plt+0x6350>
  406f7e:	48 8b 84 24 c0 00 00 	mov    rax,QWORD PTR [rsp+0xc0]
  406f85:	00 
  406f86:	48 8b 4c 24 40       	mov    rcx,QWORD PTR [rsp+0x40]
  406f8b:	48 8d 0c 81          	lea    rcx,[rcx+rax*4]
  406f8f:	49 8d 14 80          	lea    rdx,[r8+rax*4]
  406f93:	48 8b 84 24 b0 00 00 	mov    rax,QWORD PTR [rsp+0xb0]
  406f9a:	00 
  406f9b:	e9 e5 04 00 00       	jmp    407485 <fwrite@plt+0x6325>
  406fa0:	31 c0                	xor    eax,eax
  406fa2:	4c 8b 6c 24 20       	mov    r13,QWORD PTR [rsp+0x20]
  406fa7:	4c 8b 54 24 18       	mov    r10,QWORD PTR [rsp+0x18]
  406fac:	4c 8b 64 24 28       	mov    r12,QWORD PTR [rsp+0x28]
  406fb1:	4d 89 f9             	mov    r9,r15
  406fb4:	4c 8b 5c 24 10       	mov    r11,QWORD PTR [rsp+0x10]
  406fb9:	f6 84 24 30 01 00 00 	test   BYTE PTR [rsp+0x130],0x1
  406fc0:	01 
  406fc1:	0f 85 11 04 00 00    	jne    4073d8 <fwrite@plt+0x6278>
  406fc7:	e9 3c 04 00 00       	jmp    407408 <fwrite@plt+0x62a8>
  406fcc:	31 c0                	xor    eax,eax
  406fce:	f6 84 24 20 01 00 00 	test   BYTE PTR [rsp+0x120],0x1
  406fd5:	01 
  406fd6:	4c 8b 6c 24 20       	mov    r13,QWORD PTR [rsp+0x20]
  406fdb:	0f 85 ac 02 00 00    	jne    40728d <fwrite@plt+0x612d>
  406fe1:	e9 d7 02 00 00       	jmp    4072bd <fwrite@plt+0x615d>
  406fe6:	31 c0                	xor    eax,eax
  406fe8:	4c 8b 6c 24 20       	mov    r13,QWORD PTR [rsp+0x20]
  406fed:	4c 8b 64 24 28       	mov    r12,QWORD PTR [rsp+0x28]
  406ff2:	f6 84 24 28 01 00 00 	test   BYTE PTR [rsp+0x128],0x1
  406ff9:	01 
  406ffa:	0f 85 38 ff ff ff    	jne    406f38 <fwrite@plt+0x5dd8>
  407000:	e9 63 ff ff ff       	jmp    406f68 <fwrite@plt+0x5e08>
  407005:	66 2e 0f 1f 84 00 00 	cs nop WORD PTR [rax+rax*1+0x0]
  40700c:	00 00 00 
  40700f:	90                   	nop
  407010:	4c 89 5c 24 10       	mov    QWORD PTR [rsp+0x10],r11
  407015:	4c 89 db             	mov    rbx,r11
  407018:	49 0f af dd          	imul   rbx,r13
  40701c:	4d 8d 34 19          	lea    r14,[r9+rbx*1]
  407020:	48 8b 44 24 60       	mov    rax,QWORD PTR [rsp+0x60]
  407025:	4c 8d 2c 18          	lea    r13,[rax+rbx*1]
  407029:	4d 01 cd             	add    r13,r9
  40702c:	48 8b 84 24 90 00 00 	mov    rax,QWORD PTR [rsp+0x90]
  407033:	00 
  407034:	48 8d 2c 18          	lea    rbp,[rax+rbx*1]
  407038:	4c 01 cd             	add    rbp,r9
  40703b:	48 03 9c 24 a0 00 00 	add    rbx,QWORD PTR [rsp+0xa0]
  407042:	00 
  407043:	4d 89 cf             	mov    r15,r9
  407046:	4c 01 cb             	add    rbx,r9
  407049:	4d 89 c4             	mov    r12,r8
  40704c:	4c 89 c7             	mov    rdi,r8
  40704f:	4c 89 d6             	mov    rsi,r10
  407052:	c5 f8 77             	vzeroupper 
  407055:	ff 54 24 30          	call   QWORD PTR [rsp+0x30]
  407059:	85 c0                	test   eax,eax
  40705b:	0f 8f cf f1 ff ff    	jg     406230 <fwrite@plt+0x50d0>
  407061:	74 3d                	je     4070a0 <fwrite@plt+0x5f40>
  407063:	4c 8b 6c 24 20       	mov    r13,QWORD PTR [rsp+0x20]
  407068:	48 8b 5c 24 50       	mov    rbx,QWORD PTR [rsp+0x50]
  40706d:	4c 8b 54 24 18       	mov    r10,QWORD PTR [rsp+0x18]
  407072:	4d 89 e0             	mov    r8,r12
  407075:	4c 8b 64 24 28       	mov    r12,QWORD PTR [rsp+0x28]
  40707a:	4d 89 f9             	mov    r9,r15
  40707d:	4c 8b 5c 24 10       	mov    r11,QWORD PTR [rsp+0x10]
  407082:	4d 01 e8             	add    r8,r13
  407085:	49 83 c3 01          	add    r11,0x1
  407089:	4d 39 e0             	cmp    r8,r12
  40708c:	76 82                	jbe    407010 <fwrite@plt+0x5eb0>
  40708e:	e9 4d 04 00 00       	jmp    4074e0 <fwrite@plt+0x6380>
  407093:	66 2e 0f 1f 84 00 00 	cs nop WORD PTR [rax+rax*1+0x0]
  40709a:	00 00 00 
  40709d:	0f 1f 00             	nop    DWORD PTR [rax]
  4070a0:	83 7c 24 6c 00       	cmp    DWORD PTR [rsp+0x6c],0x0
  4070a5:	74 1f                	je     4070c6 <fwrite@plt+0x5f66>
  4070a7:	f6 44 24 0f 01       	test   BYTE PTR [rsp+0xf],0x1
  4070ac:	74 48                	je     4070f6 <fwrite@plt+0x5f96>
  4070ae:	48 83 7c 24 58 08    	cmp    QWORD PTR [rsp+0x58],0x8
  4070b4:	73 69                	jae    40711f <fwrite@plt+0x5fbf>
  4070b6:	4d 89 e0             	mov    r8,r12
  4070b9:	4c 89 e0             	mov    rax,r12
  4070bc:	48 8b 4c 24 40       	mov    rcx,QWORD PTR [rsp+0x40]
  4070c1:	e9 88 00 00 00       	jmp    40714e <fwrite@plt+0x5fee>
  4070c6:	48 8b 54 24 40       	mov    rdx,QWORD PTR [rsp+0x40]
  4070cb:	8b 02                	mov    eax,DWORD PTR [rdx]
  4070cd:	4d 89 e0             	mov    r8,r12
  4070d0:	41 8b 0c 24          	mov    ecx,DWORD PTR [r12]
  4070d4:	89 0a                	mov    DWORD PTR [rdx],ecx
  4070d6:	41 89 04 24          	mov    DWORD PTR [r12],eax
  4070da:	4c 8b 6c 24 20       	mov    r13,QWORD PTR [rsp+0x20]
  4070df:	4c 8b 54 24 18       	mov    r10,QWORD PTR [rsp+0x18]
  4070e4:	4c 8b 64 24 28       	mov    r12,QWORD PTR [rsp+0x28]
  4070e9:	4d 89 f9             	mov    r9,r15
  4070ec:	4c 8b 5c 24 10       	mov    r11,QWORD PTR [rsp+0x10]
  4070f1:	e9 ba 03 00 00       	jmp    4074b0 <fwrite@plt+0x6350>
  4070f6:	f6 44 24 0e 01       	test   BYTE PTR [rsp+0xe],0x1
  4070fb:	0f 84 a2 00 00 00    	je     4071a3 <fwrite@plt+0x6043>
  407101:	48 83 bc 24 80 00 00 	cmp    QWORD PTR [rsp+0x80],0x10
  407108:	00 10 
  40710a:	0f 83 2d 03 00 00    	jae    40743d <fwrite@plt+0x62dd>
  407110:	48 8b 44 24 78       	mov    rax,QWORD PTR [rsp+0x78]
  407115:	48 8b 4c 24 40       	mov    rcx,QWORD PTR [rsp+0x40]
  40711a:	e9 49 03 00 00       	jmp    407468 <fwrite@plt+0x6308>
  40711f:	48 8b 44 24 40       	mov    rax,QWORD PTR [rsp+0x40]
  407124:	48 39 d8             	cmp    rax,rbx
  407127:	48 89 c2             	mov    rdx,rax
  40712a:	0f 83 f1 01 00 00    	jae    407321 <fwrite@plt+0x61c1>
  407130:	48 8b 84 24 a0 00 00 	mov    rax,QWORD PTR [rsp+0xa0]
  407137:	00 
  407138:	48 8d 04 02          	lea    rax,[rdx+rax*1]
  40713c:	49 39 c6             	cmp    r14,rax
  40713f:	0f 83 dc 01 00 00    	jae    407321 <fwrite@plt+0x61c1>
  407145:	4d 89 e0             	mov    r8,r12
  407148:	4c 89 e0             	mov    rax,r12
  40714b:	48 89 d1             	mov    rcx,rdx
  40714e:	48 8b 94 24 88 00 00 	mov    rdx,QWORD PTR [rsp+0x88]
  407155:	00 
  407156:	4c 8b 6c 24 20       	mov    r13,QWORD PTR [rsp+0x20]
  40715b:	4c 8b 54 24 18       	mov    r10,QWORD PTR [rsp+0x18]
  407160:	4c 8b 64 24 28       	mov    r12,QWORD PTR [rsp+0x28]
  407165:	4d 89 f9             	mov    r9,r15
  407168:	4c 8b 5c 24 10       	mov    r11,QWORD PTR [rsp+0x10]
  40716d:	48 83 c2 01          	add    rdx,0x1
  407171:	31 f6                	xor    esi,esi
  407173:	66 2e 0f 1f 84 00 00 	cs nop WORD PTR [rax+rax*1+0x0]
  40717a:	00 00 00 
  40717d:	0f 1f 00             	nop    DWORD PTR [rax]
  407180:	48 8b 3c 31          	mov    rdi,QWORD PTR [rcx+rsi*1]
  407184:	48 8b 2c 30          	mov    rbp,QWORD PTR [rax+rsi*1]
  407188:	48 89 2c 31          	mov    QWORD PTR [rcx+rsi*1],rbp
  40718c:	48 89 3c 30          	mov    QWORD PTR [rax+rsi*1],rdi
  407190:	48 83 c6 08          	add    rsi,0x8
  407194:	48 83 c2 ff          	add    rdx,0xffffffffffffffff
  407198:	48 83 fa 01          	cmp    rdx,0x1
  40719c:	7f e2                	jg     407180 <fwrite@plt+0x6020>
  40719e:	e9 0d 03 00 00       	jmp    4074b0 <fwrite@plt+0x6350>
  4071a3:	48 8b 44 24 70       	mov    rax,QWORD PTR [rsp+0x70]
  4071a8:	48 8b 5c 24 40       	mov    rbx,QWORD PTR [rsp+0x40]
  4071ad:	48 89 df             	mov    rdi,rbx
  4071b0:	4d 89 e0             	mov    r8,r12
  4071b3:	4c 89 e2             	mov    rdx,r12
  4071b6:	48 8b 6c 24 60       	mov    rbp,QWORD PTR [rsp+0x60]
  4071bb:	48 83 fd 3f          	cmp    rbp,0x3f
  4071bf:	4c 8b 54 24 18       	mov    r10,QWORD PTR [rsp+0x18]
  4071c4:	4c 8b 64 24 28       	mov    r12,QWORD PTR [rsp+0x28]
  4071c9:	4d 89 f9             	mov    r9,r15
  4071cc:	4c 8b 5c 24 10       	mov    r11,QWORD PTR [rsp+0x10]
  4071d1:	0f 86 11 01 00 00    	jbe    4072e8 <fwrite@plt+0x6188>
  4071d7:	4c 39 eb             	cmp    rbx,r13
  4071da:	73 18                	jae    4071f4 <fwrite@plt+0x6094>
  4071dc:	48 8d 34 2b          	lea    rsi,[rbx+rbp*1]
  4071e0:	48 8b 44 24 70       	mov    rax,QWORD PTR [rsp+0x70]
  4071e5:	48 89 df             	mov    rdi,rbx
  4071e8:	4c 89 c2             	mov    rdx,r8
  4071eb:	49 39 f6             	cmp    r14,rsi
  4071ee:	0f 82 f4 00 00 00    	jb     4072e8 <fwrite@plt+0x6188>
  4071f4:	48 83 bc 24 e8 00 00 	cmp    QWORD PTR [rsp+0xe8],0x0
  4071fb:	00 00 
  4071fd:	0f 84 c9 fd ff ff    	je     406fcc <fwrite@plt+0x5e6c>
  407203:	48 8b 8c 24 d0 00 00 	mov    rcx,QWORD PTR [rsp+0xd0]
  40720a:	00 
  40720b:	31 c0                	xor    eax,eax
  40720d:	0f 1f 00             	nop    DWORD PTR [rax]
  407210:	c5 fc 10 04 03       	vmovups ymm0,YMMWORD PTR [rbx+rax*1]
  407215:	c5 fc 10 4c 03 20    	vmovups ymm1,YMMWORD PTR [rbx+rax*1+0x20]
  40721b:	c4 c1 7c 10 14 00    	vmovups ymm2,YMMWORD PTR [r8+rax*1]
  407221:	c4 c1 7c 10 5c 00 20 	vmovups ymm3,YMMWORD PTR [r8+rax*1+0x20]
  407228:	c5 fc 11 14 03       	vmovups YMMWORD PTR [rbx+rax*1],ymm2
  40722d:	c5 fc 11 5c 03 20    	vmovups YMMWORD PTR [rbx+rax*1+0x20],ymm3
  407233:	c4 c1 7c 11 04 00    	vmovups YMMWORD PTR [r8+rax*1],ymm0
  407239:	c4 c1 7c 11 4c 00 20 	vmovups YMMWORD PTR [r8+rax*1+0x20],ymm1
  407240:	c5 fe 6f 44 03 40    	vmovdqu ymm0,YMMWORD PTR [rbx+rax*1+0x40]
  407246:	c5 fe 6f 4c 03 60    	vmovdqu ymm1,YMMWORD PTR [rbx+rax*1+0x60]
  40724c:	c4 c1 7e 6f 54 00 40 	vmovdqu ymm2,YMMWORD PTR [r8+rax*1+0x40]
  407253:	c4 c1 7e 6f 5c 00 60 	vmovdqu ymm3,YMMWORD PTR [r8+rax*1+0x60]
  40725a:	c5 fe 7f 54 03 40    	vmovdqu YMMWORD PTR [rbx+rax*1+0x40],ymm2
  407260:	c5 fe 7f 5c 03 60    	vmovdqu YMMWORD PTR [rbx+rax*1+0x60],ymm3
  407266:	c4 c1 7e 7f 44 00 40 	vmovdqu YMMWORD PTR [r8+rax*1+0x40],ymm0
  40726d:	c4 c1 7e 7f 4c 00 60 	vmovdqu YMMWORD PTR [r8+rax*1+0x60],ymm1
  407274:	48 83 e8 80          	sub    rax,0xffffffffffffff80
  407278:	48 83 c1 02          	add    rcx,0x2
  40727c:	75 92                	jne    407210 <fwrite@plt+0x60b0>
  40727e:	f6 84 24 20 01 00 00 	test   BYTE PTR [rsp+0x120],0x1
  407285:	01 
  407286:	4c 8b 6c 24 20       	mov    r13,QWORD PTR [rsp+0x20]
  40728b:	74 30                	je     4072bd <fwrite@plt+0x615d>
  40728d:	c5 fe 6f 04 03       	vmovdqu ymm0,YMMWORD PTR [rbx+rax*1]
  407292:	c5 fe 6f 4c 03 20    	vmovdqu ymm1,YMMWORD PTR [rbx+rax*1+0x20]
  407298:	c4 c1 7e 6f 14 00    	vmovdqu ymm2,YMMWORD PTR [r8+rax*1]
  40729e:	c4 c1 7e 6f 5c 00 20 	vmovdqu ymm3,YMMWORD PTR [r8+rax*1+0x20]
  4072a5:	c5 fe 7f 14 03       	vmovdqu YMMWORD PTR [rbx+rax*1],ymm2
  4072aa:	c5 fe 7f 5c 03 20    	vmovdqu YMMWORD PTR [rbx+rax*1+0x20],ymm3
  4072b0:	c4 c1 7e 7f 04 00    	vmovdqu YMMWORD PTR [r8+rax*1],ymm0
  4072b6:	c4 c1 7e 7f 4c 00 20 	vmovdqu YMMWORD PTR [r8+rax*1+0x20],ymm1
  4072bd:	48 3b ac 24 f8 00 00 	cmp    rbp,QWORD PTR [rsp+0xf8]
  4072c4:	00 
  4072c5:	0f 84 e5 01 00 00    	je     4074b0 <fwrite@plt+0x6350>
  4072cb:	48 8b 84 24 b8 00 00 	mov    rax,QWORD PTR [rsp+0xb8]
  4072d2:	00 
  4072d3:	48 8b 4c 24 40       	mov    rcx,QWORD PTR [rsp+0x40]
  4072d8:	48 8d 3c 01          	lea    rdi,[rcx+rax*1]
  4072dc:	49 8d 14 00          	lea    rdx,[r8+rax*1]
  4072e0:	48 8b 84 24 a8 00 00 	mov    rax,QWORD PTR [rsp+0xa8]
  4072e7:	00 
  4072e8:	48 83 c0 01          	add    rax,0x1
  4072ec:	31 f6                	xor    esi,esi
  4072ee:	4c 8b 6c 24 20       	mov    r13,QWORD PTR [rsp+0x20]
  4072f3:	66 2e 0f 1f 84 00 00 	cs nop WORD PTR [rax+rax*1+0x0]
  4072fa:	00 00 00 
  4072fd:	0f 1f 00             	nop    DWORD PTR [rax]
  407300:	0f b6 1c 37          	movzx  ebx,BYTE PTR [rdi+rsi*1]
  407304:	0f b6 0c 32          	movzx  ecx,BYTE PTR [rdx+rsi*1]
  407308:	88 0c 37             	mov    BYTE PTR [rdi+rsi*1],cl
  40730b:	88 1c 32             	mov    BYTE PTR [rdx+rsi*1],bl
  40730e:	48 83 c0 ff          	add    rax,0xffffffffffffffff
  407312:	48 83 c6 01          	add    rsi,0x1
  407316:	48 83 f8 01          	cmp    rax,0x1
  40731a:	7f e4                	jg     407300 <fwrite@plt+0x61a0>
  40731c:	e9 8f 01 00 00       	jmp    4074b0 <fwrite@plt+0x6350>
  407321:	48 83 bc 24 18 01 00 	cmp    QWORD PTR [rsp+0x118],0x0
  407328:	00 00 
  40732a:	4d 89 e0             	mov    r8,r12
  40732d:	0f 84 6d fc ff ff    	je     406fa0 <fwrite@plt+0x5e40>
  407333:	48 8b 8c 24 08 01 00 	mov    rcx,QWORD PTR [rsp+0x108]
  40733a:	00 
  40733b:	31 c0                	xor    eax,eax
  40733d:	4c 8b 6c 24 20       	mov    r13,QWORD PTR [rsp+0x20]
  407342:	4c 8b 54 24 18       	mov    r10,QWORD PTR [rsp+0x18]
  407347:	4c 8b 64 24 28       	mov    r12,QWORD PTR [rsp+0x28]
  40734c:	4d 89 f9             	mov    r9,r15
  40734f:	4c 8b 5c 24 10       	mov    r11,QWORD PTR [rsp+0x10]
  407354:	66 2e 0f 1f 84 00 00 	cs nop WORD PTR [rax+rax*1+0x0]
  40735b:	00 00 00 
  40735e:	66 90                	xchg   ax,ax
  407360:	c5 fc 10 04 c2       	vmovups ymm0,YMMWORD PTR [rdx+rax*8]
  407365:	c5 fc 10 4c c2 20    	vmovups ymm1,YMMWORD PTR [rdx+rax*8+0x20]
  40736b:	c4 c1 7c 10 14 c0    	vmovups ymm2,YMMWORD PTR [r8+rax*8]
  407371:	c4 c1 7c 10 5c c0 20 	vmovups ymm3,YMMWORD PTR [r8+rax*8+0x20]
  407378:	c5 fc 11 14 c2       	vmovups YMMWORD PTR [rdx+rax*8],ymm2
  40737d:	c5 fc 11 5c c2 20    	vmovups YMMWORD PTR [rdx+rax*8+0x20],ymm3
  407383:	c4 c1 7c 11 04 c0    	vmovups YMMWORD PTR [r8+rax*8],ymm0
  407389:	c4 c1 7c 11 4c c0 20 	vmovups YMMWORD PTR [r8+rax*8+0x20],ymm1
  407390:	c5 fe 6f 44 c2 40    	vmovdqu ymm0,YMMWORD PTR [rdx+rax*8+0x40]
  407396:	c5 fe 6f 4c c2 60    	vmovdqu ymm1,YMMWORD PTR [rdx+rax*8+0x60]
  40739c:	c4 c1 7e 6f 54 c0 40 	vmovdqu ymm2,YMMWORD PTR [r8+rax*8+0x40]
  4073a3:	c4 c1 7e 6f 5c c0 60 	vmovdqu ymm3,YMMWORD PTR [r8+rax*8+0x60]
  4073aa:	c5 fe 7f 54 c2 40    	vmovdqu YMMWORD PTR [rdx+rax*8+0x40],ymm2
  4073b0:	c5 fe 7f 5c c2 60    	vmovdqu YMMWORD PTR [rdx+rax*8+0x60],ymm3
  4073b6:	c4 c1 7e 7f 44 c0 40 	vmovdqu YMMWORD PTR [r8+rax*8+0x40],ymm0
  4073bd:	c4 c1 7e 7f 4c c0 60 	vmovdqu YMMWORD PTR [r8+rax*8+0x60],ymm1
  4073c4:	48 83 c0 10          	add    rax,0x10
  4073c8:	48 83 c1 02          	add    rcx,0x2
  4073cc:	75 92                	jne    407360 <fwrite@plt+0x6200>
  4073ce:	f6 84 24 30 01 00 00 	test   BYTE PTR [rsp+0x130],0x1
  4073d5:	01 
  4073d6:	74 30                	je     407408 <fwrite@plt+0x62a8>
  4073d8:	c5 fe 6f 04 c2       	vmovdqu ymm0,YMMWORD PTR [rdx+rax*8]
  4073dd:	c5 fe 6f 4c c2 20    	vmovdqu ymm1,YMMWORD PTR [rdx+rax*8+0x20]
  4073e3:	c4 c1 7e 6f 14 c0    	vmovdqu ymm2,YMMWORD PTR [r8+rax*8]
  4073e9:	c4 c1 7e 6f 5c c0 20 	vmovdqu ymm3,YMMWORD PTR [r8+rax*8+0x20]
  4073f0:	c5 fe 7f 14 c2       	vmovdqu YMMWORD PTR [rdx+rax*8],ymm2
  4073f5:	c5 fe 7f 5c c2 20    	vmovdqu YMMWORD PTR [rdx+rax*8+0x20],ymm3
  4073fb:	c4 c1 7e 7f 04 c0    	vmovdqu YMMWORD PTR [r8+rax*8],ymm0
  407401:	c4 c1 7e 7f 4c c0 20 	vmovdqu YMMWORD PTR [r8+rax*8+0x20],ymm1
  407408:	48 8b 84 24 10 01 00 	mov    rax,QWORD PTR [rsp+0x110]
  40740f:	00 
  407410:	48 39 44 24 58       	cmp    QWORD PTR [rsp+0x58],rax
  407415:	0f 84 95 00 00 00    	je     4074b0 <fwrite@plt+0x6350>
  40741b:	48 8b 8c 24 f0 00 00 	mov    rcx,QWORD PTR [rsp+0xf0]
  407422:	00 
  407423:	49 8d 04 c8          	lea    rax,[r8+rcx*8]
  407427:	48 8b 54 24 40       	mov    rdx,QWORD PTR [rsp+0x40]
  40742c:	48 8d 0c ca          	lea    rcx,[rdx+rcx*8]
  407430:	48 8b 94 24 d8 00 00 	mov    rdx,QWORD PTR [rsp+0xd8]
  407437:	00 
  407438:	e9 30 fd ff ff       	jmp    40716d <fwrite@plt+0x600d>
  40743d:	48 8b 54 24 40       	mov    rdx,QWORD PTR [rsp+0x40]
  407442:	48 39 ea             	cmp    rdx,rbp
  407445:	48 8b 84 24 90 00 00 	mov    rax,QWORD PTR [rsp+0x90]
  40744c:	00 
  40744d:	0f 83 2c fa ff ff    	jae    406e7f <fwrite@plt+0x5d1f>
  407453:	48 8d 04 02          	lea    rax,[rdx+rax*1]
  407457:	49 39 c6             	cmp    r14,rax
  40745a:	0f 83 1f fa ff ff    	jae    406e7f <fwrite@plt+0x5d1f>
  407460:	48 8b 44 24 78       	mov    rax,QWORD PTR [rsp+0x78]
  407465:	48 89 d1             	mov    rcx,rdx
  407468:	4d 89 e0             	mov    r8,r12
  40746b:	4c 89 e2             	mov    rdx,r12
  40746e:	4c 8b 6c 24 20       	mov    r13,QWORD PTR [rsp+0x20]
  407473:	4c 8b 54 24 18       	mov    r10,QWORD PTR [rsp+0x18]
  407478:	4c 8b 64 24 28       	mov    r12,QWORD PTR [rsp+0x28]
  40747d:	4d 89 f9             	mov    r9,r15
  407480:	4c 8b 5c 24 10       	mov    r11,QWORD PTR [rsp+0x10]
  407485:	48 83 c0 01          	add    rax,0x1
  407489:	31 f6                	xor    esi,esi
  40748b:	0f 1f 44 00 00       	nop    DWORD PTR [rax+rax*1+0x0]
  407490:	8b 3c 31             	mov    edi,DWORD PTR [rcx+rsi*1]
  407493:	8b 2c 32             	mov    ebp,DWORD PTR [rdx+rsi*1]
  407496:	89 2c 31             	mov    DWORD PTR [rcx+rsi*1],ebp
  407499:	89 3c 32             	mov    DWORD PTR [rdx+rsi*1],edi
  40749c:	48 83 c0 ff          	add    rax,0xffffffffffffffff
  4074a0:	48 83 c6 04          	add    rsi,0x4
  4074a4:	48 83 f8 01          	cmp    rax,0x1
  4074a8:	7f e6                	jg     407490 <fwrite@plt+0x6330>
  4074aa:	66 0f 1f 44 00 00    	nop    WORD PTR [rax+rax*1+0x0]
  4074b0:	4c 01 6c 24 40       	add    QWORD PTR [rsp+0x40],r13
  4074b5:	c7 44 24 48 01 00 00 	mov    DWORD PTR [rsp+0x48],0x1
  4074bc:	00 
  4074bd:	48 8b 5c 24 50       	mov    rbx,QWORD PTR [rsp+0x50]
  4074c2:	4d 01 e8             	add    r8,r13
  4074c5:	49 83 c3 01          	add    r11,0x1
  4074c9:	4d 39 e0             	cmp    r8,r12
  4074cc:	0f 86 3e fb ff ff    	jbe    407010 <fwrite@plt+0x5eb0>
  4074d2:	66 2e 0f 1f 84 00 00 	cs nop WORD PTR [rax+rax*1+0x0]
  4074d9:	00 00 00 
  4074dc:	0f 1f 40 00          	nop    DWORD PTR [rax+0x0]
  4074e0:	4d 39 e0             	cmp    r8,r12
  4074e3:	4c 89 44 24 10       	mov    QWORD PTR [rsp+0x10],r8
  4074e8:	0f 86 02 f2 ff ff    	jbe    4066f0 <fwrite@plt+0x5590>
  4074ee:	66 90                	xchg   ax,ax
  4074f0:	4c 8b b4 24 98 00 00 	mov    r14,QWORD PTR [rsp+0x98]
  4074f7:	00 
  4074f8:	4d 0f af f5          	imul   r14,r13
  4074fc:	4b 8d 04 32          	lea    rax,[r10+r14*1]
  407500:	48 89 44 24 28       	mov    QWORD PTR [rsp+0x28],rax
  407505:	83 7c 24 48 00       	cmp    DWORD PTR [rsp+0x48],0x0
  40750a:	0f 84 64 15 00 00    	je     408a74 <fwrite@plt+0x7914>
  407510:	4c 89 c0             	mov    rax,r8
  407513:	48 8b 5c 24 40       	mov    rbx,QWORD PTR [rsp+0x40]
  407518:	48 29 d8             	sub    rax,rbx
  40751b:	4c 29 d3             	sub    rbx,r10
  40751e:	48 39 c3             	cmp    rbx,rax
  407521:	48 0f 4f d8          	cmovg  rbx,rax
  407525:	48 85 db             	test   rbx,rbx
  407528:	0f 84 62 05 00 00    	je     407a90 <fwrite@plt+0x6930>
  40752e:	48 89 de             	mov    rsi,rbx
  407531:	48 f7 de             	neg    rsi
  407534:	4d 89 c3             	mov    r11,r8
  407537:	49 29 db             	sub    r11,rbx
  40753a:	48 63 d3             	movsxd rdx,ebx
  40753d:	f6 44 24 0f 01       	test   BYTE PTR [rsp+0xf],0x1
  407542:	0f 84 98 00 00 00    	je     4075e0 <fwrite@plt+0x6480>
  407548:	48 c1 ea 03          	shr    rdx,0x3
  40754c:	48 83 fa 01          	cmp    rdx,0x1
  407550:	48 89 d7             	mov    rdi,rdx
  407553:	48 83 d7 00          	adc    rdi,0x0
  407557:	48 83 ff 08          	cmp    rdi,0x8
  40755b:	72 41                	jb     40759e <fwrite@plt+0x643e>
  40755d:	48 85 d2             	test   rdx,rdx
  407560:	48 bd fe ff ff ff ff 	movabs rbp,0x1ffffffffffffffe
  407567:	ff ff 1f 
  40756a:	48 0f 44 ac 24 40 01 	cmove  rbp,QWORD PTR [rsp+0x140]
  407571:	00 00 
  407573:	48 01 d5             	add    rbp,rdx
  407576:	48 f7 d3             	not    rbx
  407579:	48 8d 1c eb          	lea    rbx,[rbx+rbp*8]
  40757d:	4c 01 c3             	add    rbx,r8
  407580:	48 83 c3 11          	add    rbx,0x11
  407584:	49 39 da             	cmp    r10,rbx
  407587:	0f 83 24 01 00 00    	jae    4076b1 <fwrite@plt+0x6551>
  40758d:	49 8d 2c ea          	lea    rbp,[r10+rbp*8]
  407591:	48 83 c5 10          	add    rbp,0x10
  407595:	49 39 eb             	cmp    r11,rbp
  407598:	0f 83 13 01 00 00    	jae    4076b1 <fwrite@plt+0x6551>
  40759e:	4c 89 d6             	mov    rsi,r10
  4075a1:	48 83 c2 01          	add    rdx,0x1
  4075a5:	31 ff                	xor    edi,edi
  4075a7:	66 0f 1f 84 00 00 00 	nop    WORD PTR [rax+rax*1+0x0]
  4075ae:	00 00 
  4075b0:	48 8b 2c 3e          	mov    rbp,QWORD PTR [rsi+rdi*1]
  4075b4:	49 8b 1c 3b          	mov    rbx,QWORD PTR [r11+rdi*1]
  4075b8:	48 89 1c 3e          	mov    QWORD PTR [rsi+rdi*1],rbx
  4075bc:	49 89 2c 3b          	mov    QWORD PTR [r11+rdi*1],rbp
  4075c0:	48 83 c7 08          	add    rdi,0x8
  4075c4:	48 83 c2 ff          	add    rdx,0xffffffffffffffff
  4075c8:	48 83 fa 01          	cmp    rdx,0x1
  4075cc:	7f e2                	jg     4075b0 <fwrite@plt+0x6450>
  4075ce:	e9 bd 04 00 00       	jmp    407a90 <fwrite@plt+0x6930>
  4075d3:	66 2e 0f 1f 84 00 00 	cs nop WORD PTR [rax+rax*1+0x0]
  4075da:	00 00 00 
  4075dd:	0f 1f 00             	nop    DWORD PTR [rax]
  4075e0:	f6 44 24 0e 01       	test   BYTE PTR [rsp+0xe],0x1
  4075e5:	49 c7 c1 fe ff ff ff 	mov    r9,0xfffffffffffffffe
  4075ec:	0f 84 8f 00 00 00    	je     407681 <fwrite@plt+0x6521>
  4075f2:	48 c1 ea 02          	shr    rdx,0x2
  4075f6:	48 83 fa 01          	cmp    rdx,0x1
  4075fa:	48 89 d7             	mov    rdi,rdx
  4075fd:	48 83 d7 00          	adc    rdi,0x0
  407601:	48 83 ff 10          	cmp    rdi,0x10
  407605:	72 41                	jb     407648 <fwrite@plt+0x64e8>
  407607:	48 85 d2             	test   rdx,rdx
  40760a:	48 bd fe ff ff ff ff 	movabs rbp,0x3ffffffffffffffe
  407611:	ff ff 3f 
  407614:	48 0f 44 ac 24 38 01 	cmove  rbp,QWORD PTR [rsp+0x138]
  40761b:	00 00 
  40761d:	48 01 d5             	add    rbp,rdx
  407620:	48 f7 d3             	not    rbx
  407623:	48 8d 1c ab          	lea    rbx,[rbx+rbp*4]
  407627:	4c 01 c3             	add    rbx,r8
  40762a:	48 83 c3 09          	add    rbx,0x9
  40762e:	49 39 da             	cmp    r10,rbx
  407631:	0f 83 f4 01 00 00    	jae    40782b <fwrite@plt+0x66cb>
  407637:	49 8d 2c aa          	lea    rbp,[r10+rbp*4]
  40763b:	48 83 c5 08          	add    rbp,0x8
  40763f:	49 39 eb             	cmp    r11,rbp
  407642:	0f 83 e3 01 00 00    	jae    40782b <fwrite@plt+0x66cb>
  407648:	4c 89 d6             	mov    rsi,r10
  40764b:	48 83 c2 01          	add    rdx,0x1
  40764f:	31 ff                	xor    edi,edi
  407651:	66 2e 0f 1f 84 00 00 	cs nop WORD PTR [rax+rax*1+0x0]
  407658:	00 00 00 
  40765b:	0f 1f 44 00 00       	nop    DWORD PTR [rax+rax*1+0x0]
  407660:	8b 2c 3e             	mov    ebp,DWORD PTR [rsi+rdi*1]
  407663:	41 8b 1c 3b          	mov    ebx,DWORD PTR [r11+rdi*1]
  407667:	89 1c 3e             	mov    DWORD PTR [rsi+rdi*1],ebx
  40766a:	41 89 2c 3b          	mov    DWORD PTR [r11+rdi*1],ebp
  40766e:	48 83 c2 ff          	add    rdx,0xffffffffffffffff
  407672:	48 83 c7 04          	add    rdi,0x4
  407676:	48 83 fa 01          	cmp    rdx,0x1
  40767a:	7f e4                	jg     407660 <fwrite@plt+0x6500>
  40767c:	e9 0f 04 00 00       	jmp    407a90 <fwrite@plt+0x6930>
  407681:	48 63 eb             	movsxd rbp,ebx
  407684:	48 89 ef             	mov    rdi,rbp
  407687:	48 f7 d7             	not    rdi
  40768a:	48 83 ff fd          	cmp    rdi,0xfffffffffffffffd
  40768e:	49 0f 4e f9          	cmovle rdi,r9
  407692:	4c 8d 14 2f          	lea    r10,[rdi+rbp*1]
  407696:	49 83 c2 02          	add    r10,0x2
  40769a:	49 83 fa 3f          	cmp    r10,0x3f
  40769e:	0f 87 23 01 00 00    	ja     4077c7 <fwrite@plt+0x6667>
  4076a4:	4c 8b 54 24 18       	mov    r10,QWORD PTR [rsp+0x18]
  4076a9:	4c 89 d6             	mov    rsi,r10
  4076ac:	e9 aa 03 00 00       	jmp    407a5b <fwrite@plt+0x68fb>
  4076b1:	48 b9 fe ff ff ff ff 	movabs rcx,0x3ffffffffffffffe
  4076b8:	ff ff 3f 
  4076bb:	4c 8d 49 fa          	lea    r9,[rcx-0x6]
  4076bf:	49 21 f9             	and    r9,rdi
  4076c2:	49 8d 69 f8          	lea    rbp,[r9-0x8]
  4076c6:	48 89 eb             	mov    rbx,rbp
  4076c9:	48 c1 eb 03          	shr    rbx,0x3
  4076cd:	48 83 c3 01          	add    rbx,0x1
  4076d1:	41 89 d8             	mov    r8d,ebx
  4076d4:	41 83 e0 01          	and    r8d,0x1
  4076d8:	48 85 ed             	test   rbp,rbp
  4076db:	0f 84 9f 09 00 00    	je     408080 <fwrite@plt+0x6f20>
  4076e1:	48 8b 4c 24 10       	mov    rcx,QWORD PTR [rsp+0x10]
  4076e6:	48 8d 2c 31          	lea    rbp,[rcx+rsi*1]
  4076ea:	48 83 c5 60          	add    rbp,0x60
  4076ee:	be 01 00 00 00       	mov    esi,0x1
  4076f3:	48 29 de             	sub    rsi,rbx
  4076f6:	49 8d 1c 30          	lea    rbx,[r8+rsi*1]
  4076fa:	48 83 c3 ff          	add    rbx,0xffffffffffffffff
  4076fe:	31 f6                	xor    esi,esi
  407700:	c4 c1 7c 10 04 f2    	vmovups ymm0,YMMWORD PTR [r10+rsi*8]
  407706:	c4 c1 7c 10 4c f2 20 	vmovups ymm1,YMMWORD PTR [r10+rsi*8+0x20]
  40770d:	c5 fc 10 54 f5 a0    	vmovups ymm2,YMMWORD PTR [rbp+rsi*8-0x60]
  407713:	c5 fc 10 5c f5 c0    	vmovups ymm3,YMMWORD PTR [rbp+rsi*8-0x40]
  407719:	c4 c1 7c 11 14 f2    	vmovups YMMWORD PTR [r10+rsi*8],ymm2
  40771f:	c4 c1 7c 11 5c f2 20 	vmovups YMMWORD PTR [r10+rsi*8+0x20],ymm3
  407726:	c5 fc 11 44 f5 a0    	vmovups YMMWORD PTR [rbp+rsi*8-0x60],ymm0
  40772c:	c5 fc 11 4c f5 c0    	vmovups YMMWORD PTR [rbp+rsi*8-0x40],ymm1
  407732:	c4 c1 7e 6f 44 f2 40 	vmovdqu ymm0,YMMWORD PTR [r10+rsi*8+0x40]
  407739:	c4 c1 7e 6f 4c f2 60 	vmovdqu ymm1,YMMWORD PTR [r10+rsi*8+0x60]
  407740:	c5 fe 6f 54 f5 e0    	vmovdqu ymm2,YMMWORD PTR [rbp+rsi*8-0x20]
  407746:	c5 fe 6f 5c f5 00    	vmovdqu ymm3,YMMWORD PTR [rbp+rsi*8+0x0]
  40774c:	c4 c1 7e 7f 54 f2 40 	vmovdqu YMMWORD PTR [r10+rsi*8+0x40],ymm2
  407753:	c4 c1 7e 7f 5c f2 60 	vmovdqu YMMWORD PTR [r10+rsi*8+0x60],ymm3
  40775a:	c5 fe 7f 44 f5 e0    	vmovdqu YMMWORD PTR [rbp+rsi*8-0x20],ymm0
  407760:	c5 fe 7f 4c f5 00    	vmovdqu YMMWORD PTR [rbp+rsi*8+0x0],ymm1
  407766:	48 83 c6 10          	add    rsi,0x10
  40776a:	48 83 c3 02          	add    rbx,0x2
  40776e:	75 90                	jne    407700 <fwrite@plt+0x65a0>
  407770:	4d 85 c0             	test   r8,r8
  407773:	74 34                	je     4077a9 <fwrite@plt+0x6649>
  407775:	c4 c1 7e 6f 04 f2    	vmovdqu ymm0,YMMWORD PTR [r10+rsi*8]
  40777b:	c4 c1 7e 6f 4c f2 20 	vmovdqu ymm1,YMMWORD PTR [r10+rsi*8+0x20]
  407782:	c4 c1 7e 6f 14 f3    	vmovdqu ymm2,YMMWORD PTR [r11+rsi*8]
  407788:	c4 c1 7e 6f 5c f3 20 	vmovdqu ymm3,YMMWORD PTR [r11+rsi*8+0x20]
  40778f:	c4 c1 7e 7f 14 f2    	vmovdqu YMMWORD PTR [r10+rsi*8],ymm2
  407795:	c4 c1 7e 7f 5c f2 20 	vmovdqu YMMWORD PTR [r10+rsi*8+0x20],ymm3
  40779c:	c4 c1 7e 7f 04 f3    	vmovdqu YMMWORD PTR [r11+rsi*8],ymm0
  4077a2:	c4 c1 7e 7f 4c f3 20 	vmovdqu YMMWORD PTR [r11+rsi*8+0x20],ymm1
  4077a9:	4c 39 cf             	cmp    rdi,r9
  4077ac:	4c 8b 44 24 10       	mov    r8,QWORD PTR [rsp+0x10]
  4077b1:	0f 84 d9 02 00 00    	je     407a90 <fwrite@plt+0x6930>
  4077b7:	4f 8d 1c cb          	lea    r11,[r11+r9*8]
  4077bb:	4b 8d 34 ca          	lea    rsi,[r10+r9*8]
  4077bf:	4c 29 ca             	sub    rdx,r9
  4077c2:	e9 da fd ff ff       	jmp    4075a1 <fwrite@plt+0x6441>
  4077c7:	48 f7 d3             	not    rbx
  4077ca:	48 89 d9             	mov    rcx,rbx
  4077cd:	48 c1 e3 20          	shl    rbx,0x20
  4077d1:	48 bf 00 00 00 00 ff 	movabs rdi,0xffffffff00000000
  4077d8:	ff ff ff 
  4077db:	48 31 fb             	xor    rbx,rdi
  4077de:	48 c1 fb 20          	sar    rbx,0x20
  4077e2:	48 89 dd             	mov    rbp,rbx
  4077e5:	48 f7 d5             	not    rbp
  4077e8:	48 83 fd fd          	cmp    rbp,0xfffffffffffffffd
  4077ec:	49 0f 4e e9          	cmovle rbp,r9
  4077f0:	48 01 e9             	add    rcx,rbp
  4077f3:	48 01 d9             	add    rcx,rbx
  4077f6:	49 8d 3c 08          	lea    rdi,[r8+rcx*1]
  4077fa:	48 83 c7 03          	add    rdi,0x3
  4077fe:	48 8b 4c 24 18       	mov    rcx,QWORD PTR [rsp+0x18]
  407803:	48 39 f9             	cmp    rcx,rdi
  407806:	0f 83 3b 01 00 00    	jae    407947 <fwrite@plt+0x67e7>
  40780c:	48 01 dd             	add    rbp,rbx
  40780f:	48 8d 3c 29          	lea    rdi,[rcx+rbp*1]
  407813:	48 83 c7 02          	add    rdi,0x2
  407817:	49 39 fb             	cmp    r11,rdi
  40781a:	0f 83 27 01 00 00    	jae    407947 <fwrite@plt+0x67e7>
  407820:	48 89 ce             	mov    rsi,rcx
  407823:	49 89 ca             	mov    r10,rcx
  407826:	e9 30 02 00 00       	jmp    407a5b <fwrite@plt+0x68fb>
  40782b:	49 89 f9             	mov    r9,rdi
  40782e:	48 b9 f0 ff ff ff ff 	movabs rcx,0x7ffffffffffffff0
  407835:	ff ff 7f 
  407838:	49 21 c9             	and    r9,rcx
  40783b:	49 8d 69 f0          	lea    rbp,[r9-0x10]
  40783f:	48 89 eb             	mov    rbx,rbp
  407842:	48 c1 eb 04          	shr    rbx,0x4
  407846:	48 83 c3 01          	add    rbx,0x1
  40784a:	41 89 d8             	mov    r8d,ebx
  40784d:	41 83 e0 01          	and    r8d,0x1
  407851:	48 85 ed             	test   rbp,rbp
  407854:	0f 84 64 08 00 00    	je     4080be <fwrite@plt+0x6f5e>
  40785a:	48 8b 4c 24 10       	mov    rcx,QWORD PTR [rsp+0x10]
  40785f:	48 8d 2c 31          	lea    rbp,[rcx+rsi*1]
  407863:	48 83 c5 60          	add    rbp,0x60
  407867:	be 01 00 00 00       	mov    esi,0x1
  40786c:	48 29 de             	sub    rsi,rbx
  40786f:	49 8d 1c 30          	lea    rbx,[r8+rsi*1]
  407873:	48 83 c3 ff          	add    rbx,0xffffffffffffffff
  407877:	31 f6                	xor    esi,esi
  407879:	0f 1f 80 00 00 00 00 	nop    DWORD PTR [rax+0x0]
  407880:	c4 c1 7c 10 04 b2    	vmovups ymm0,YMMWORD PTR [r10+rsi*4]
  407886:	c4 c1 7c 10 4c b2 20 	vmovups ymm1,YMMWORD PTR [r10+rsi*4+0x20]
  40788d:	c5 fc 10 54 b5 a0    	vmovups ymm2,YMMWORD PTR [rbp+rsi*4-0x60]
  407893:	c5 fc 10 5c b5 c0    	vmovups ymm3,YMMWORD PTR [rbp+rsi*4-0x40]
  407899:	c4 c1 7c 11 14 b2    	vmovups YMMWORD PTR [r10+rsi*4],ymm2
  40789f:	c4 c1 7c 11 5c b2 20 	vmovups YMMWORD PTR [r10+rsi*4+0x20],ymm3
  4078a6:	c5 fc 11 44 b5 a0    	vmovups YMMWORD PTR [rbp+rsi*4-0x60],ymm0
  4078ac:	c5 fc 11 4c b5 c0    	vmovups YMMWORD PTR [rbp+rsi*4-0x40],ymm1
  4078b2:	c4 c1 7e 6f 44 b2 40 	vmovdqu ymm0,YMMWORD PTR [r10+rsi*4+0x40]
  4078b9:	c4 c1 7e 6f 4c b2 60 	vmovdqu ymm1,YMMWORD PTR [r10+rsi*4+0x60]
  4078c0:	c5 fe 6f 54 b5 e0    	vmovdqu ymm2,YMMWORD PTR [rbp+rsi*4-0x20]
  4078c6:	c5 fe 6f 5c b5 00    	vmovdqu ymm3,YMMWORD PTR [rbp+rsi*4+0x0]
  4078cc:	c4 c1 7e 7f 54 b2 40 	vmovdqu YMMWORD PTR [r10+rsi*4+0x40],ymm2
  4078d3:	c4 c1 7e 7f 5c b2 60 	vmovdqu YMMWORD PTR [r10+rsi*4+0x60],ymm3
  4078da:	c5 fe 7f 44 b5 e0    	vmovdqu YMMWORD PTR [rbp+rsi*4-0x20],ymm0
  4078e0:	c5 fe 7f 4c b5 00    	vmovdqu YMMWORD PTR [rbp+rsi*4+0x0],ymm1
  4078e6:	48 83 c6 20          	add    rsi,0x20
  4078ea:	48 83 c3 02          	add    rbx,0x2
  4078ee:	75 90                	jne    407880 <fwrite@plt+0x6720>
  4078f0:	4d 85 c0             	test   r8,r8
  4078f3:	74 34                	je     407929 <fwrite@plt+0x67c9>
  4078f5:	c4 c1 7e 6f 04 b2    	vmovdqu ymm0,YMMWORD PTR [r10+rsi*4]
  4078fb:	c4 c1 7e 6f 4c b2 20 	vmovdqu ymm1,YMMWORD PTR [r10+rsi*4+0x20]
  407902:	c4 c1 7e 6f 14 b3    	vmovdqu ymm2,YMMWORD PTR [r11+rsi*4]
  407908:	c4 c1 7e 6f 5c b3 20 	vmovdqu ymm3,YMMWORD PTR [r11+rsi*4+0x20]
  40790f:	c4 c1 7e 7f 14 b2    	vmovdqu YMMWORD PTR [r10+rsi*4],ymm2
  407915:	c4 c1 7e 7f 5c b2 20 	vmovdqu YMMWORD PTR [r10+rsi*4+0x20],ymm3
  40791c:	c4 c1 7e 7f 04 b3    	vmovdqu YMMWORD PTR [r11+rsi*4],ymm0
  407922:	c4 c1 7e 7f 4c b3 20 	vmovdqu YMMWORD PTR [r11+rsi*4+0x20],ymm1
  407929:	4c 39 cf             	cmp    rdi,r9
  40792c:	4c 8b 44 24 10       	mov    r8,QWORD PTR [rsp+0x10]
  407931:	0f 84 59 01 00 00    	je     407a90 <fwrite@plt+0x6930>
  407937:	4c 29 ca             	sub    rdx,r9
  40793a:	4b 8d 34 8a          	lea    rsi,[r10+r9*4]
  40793e:	4f 8d 1c 8b          	lea    r11,[r11+r9*4]
  407942:	e9 04 fd ff ff       	jmp    40764b <fwrite@plt+0x64eb>
  407947:	4d 89 d1             	mov    r9,r10
  40794a:	49 83 e1 c0          	and    r9,0xffffffffffffffc0
  40794e:	49 8d 79 c0          	lea    rdi,[r9-0x40]
  407952:	48 89 fb             	mov    rbx,rdi
  407955:	48 c1 eb 06          	shr    rbx,0x6
  407959:	48 83 c3 01          	add    rbx,0x1
  40795d:	41 89 d8             	mov    r8d,ebx
  407960:	41 83 e0 01          	and    r8d,0x1
  407964:	48 85 ff             	test   rdi,rdi
  407967:	0f 84 61 07 00 00    	je     4080ce <fwrite@plt+0x6f6e>
  40796d:	48 8b 4c 24 10       	mov    rcx,QWORD PTR [rsp+0x10]
  407972:	48 8d 2c 31          	lea    rbp,[rcx+rsi*1]
  407976:	48 83 c5 60          	add    rbp,0x60
  40797a:	be 01 00 00 00       	mov    esi,0x1
  40797f:	48 29 de             	sub    rsi,rbx
  407982:	49 8d 1c 30          	lea    rbx,[r8+rsi*1]
  407986:	48 83 c3 ff          	add    rbx,0xffffffffffffffff
  40798a:	31 f6                	xor    esi,esi
  40798c:	48 8b 4c 24 18       	mov    rcx,QWORD PTR [rsp+0x18]
  407991:	66 2e 0f 1f 84 00 00 	cs nop WORD PTR [rax+rax*1+0x0]
  407998:	00 00 00 
  40799b:	0f 1f 44 00 00       	nop    DWORD PTR [rax+rax*1+0x0]
  4079a0:	c5 fc 10 04 31       	vmovups ymm0,YMMWORD PTR [rcx+rsi*1]
  4079a5:	c5 fc 10 4c 31 20    	vmovups ymm1,YMMWORD PTR [rcx+rsi*1+0x20]
  4079ab:	c5 fc 10 54 35 a0    	vmovups ymm2,YMMWORD PTR [rbp+rsi*1-0x60]
  4079b1:	c5 fc 10 5c 35 c0    	vmovups ymm3,YMMWORD PTR [rbp+rsi*1-0x40]
  4079b7:	c5 fc 11 14 31       	vmovups YMMWORD PTR [rcx+rsi*1],ymm2
  4079bc:	c5 fc 11 5c 31 20    	vmovups YMMWORD PTR [rcx+rsi*1+0x20],ymm3
  4079c2:	c5 fc 11 44 35 a0    	vmovups YMMWORD PTR [rbp+rsi*1-0x60],ymm0
  4079c8:	c5 fc 11 4c 35 c0    	vmovups YMMWORD PTR [rbp+rsi*1-0x40],ymm1
  4079ce:	c5 fe 6f 44 31 40    	vmovdqu ymm0,YMMWORD PTR [rcx+rsi*1+0x40]
  4079d4:	c5 fe 6f 4c 31 60    	vmovdqu ymm1,YMMWORD PTR [rcx+rsi*1+0x60]
  4079da:	c5 fe 6f 54 35 e0    	vmovdqu ymm2,YMMWORD PTR [rbp+rsi*1-0x20]
  4079e0:	c5 fe 6f 5c 35 00    	vmovdqu ymm3,YMMWORD PTR [rbp+rsi*1+0x0]
  4079e6:	c5 fe 7f 54 31 40    	vmovdqu YMMWORD PTR [rcx+rsi*1+0x40],ymm2
  4079ec:	c5 fe 7f 5c 31 60    	vmovdqu YMMWORD PTR [rcx+rsi*1+0x60],ymm3
  4079f2:	c5 fe 7f 44 35 e0    	vmovdqu YMMWORD PTR [rbp+rsi*1-0x20],ymm0
  4079f8:	c5 fe 7f 4c 35 00    	vmovdqu YMMWORD PTR [rbp+rsi*1+0x0],ymm1
  4079fe:	48 83 ee 80          	sub    rsi,0xffffffffffffff80
  407a02:	48 83 c3 02          	add    rbx,0x2
  407a06:	75 98                	jne    4079a0 <fwrite@plt+0x6840>
  407a08:	4d 85 c0             	test   r8,r8
  407a0b:	74 35                	je     407a42 <fwrite@plt+0x68e2>
  407a0d:	48 8b 4c 24 18       	mov    rcx,QWORD PTR [rsp+0x18]
  407a12:	c5 fe 6f 04 31       	vmovdqu ymm0,YMMWORD PTR [rcx+rsi*1]
  407a17:	c5 fe 6f 4c 31 20    	vmovdqu ymm1,YMMWORD PTR [rcx+rsi*1+0x20]
  407a1d:	c4 c1 7e 6f 14 33    	vmovdqu ymm2,YMMWORD PTR [r11+rsi*1]
  407a23:	c4 c1 7e 6f 5c 33 20 	vmovdqu ymm3,YMMWORD PTR [r11+rsi*1+0x20]
  407a2a:	c5 fe 7f 14 31       	vmovdqu YMMWORD PTR [rcx+rsi*1],ymm2
  407a2f:	c5 fe 7f 5c 31 20    	vmovdqu YMMWORD PTR [rcx+rsi*1+0x20],ymm3
  407a35:	c4 c1 7e 7f 04 33    	vmovdqu YMMWORD PTR [r11+rsi*1],ymm0
  407a3b:	c4 c1 7e 7f 4c 33 20 	vmovdqu YMMWORD PTR [r11+rsi*1+0x20],ymm1
  407a42:	4d 39 ca             	cmp    r10,r9
  407a45:	4c 8b 54 24 18       	mov    r10,QWORD PTR [rsp+0x18]
  407a4a:	4c 8b 44 24 10       	mov    r8,QWORD PTR [rsp+0x10]
  407a4f:	74 3f                	je     407a90 <fwrite@plt+0x6930>
  407a51:	4c 29 ca             	sub    rdx,r9
  407a54:	4b 8d 34 0a          	lea    rsi,[r10+r9*1]
  407a58:	4d 01 cb             	add    r11,r9
  407a5b:	48 83 c2 01          	add    rdx,0x1
  407a5f:	31 ff                	xor    edi,edi
  407a61:	66 2e 0f 1f 84 00 00 	cs nop WORD PTR [rax+rax*1+0x0]
  407a68:	00 00 00 
  407a6b:	0f 1f 44 00 00       	nop    DWORD PTR [rax+rax*1+0x0]
  407a70:	0f b6 1c 3e          	movzx  ebx,BYTE PTR [rsi+rdi*1]
  407a74:	41 0f b6 0c 3b       	movzx  ecx,BYTE PTR [r11+rdi*1]
  407a79:	88 0c 3e             	mov    BYTE PTR [rsi+rdi*1],cl
  407a7c:	41 88 1c 3b          	mov    BYTE PTR [r11+rdi*1],bl
  407a80:	48 83 c2 ff          	add    rdx,0xffffffffffffffff
  407a84:	48 83 c7 01          	add    rdi,0x1
  407a88:	48 83 fa 01          	cmp    rdx,0x1
  407a8c:	7f e2                	jg     407a70 <fwrite@plt+0x6910>
  407a8e:	66 90                	xchg   ax,ax
  407a90:	48 8b 5c 24 28       	mov    rbx,QWORD PTR [rsp+0x28]
  407a95:	48 8b 4c 24 38       	mov    rcx,QWORD PTR [rsp+0x38]
  407a9a:	48 29 cb             	sub    rbx,rcx
  407a9d:	4c 29 e1             	sub    rcx,r12
  407aa0:	4c 29 eb             	sub    rbx,r13
  407aa3:	48 39 d9             	cmp    rcx,rbx
  407aa6:	49 89 cf             	mov    r15,rcx
  407aa9:	48 0f 4e d9          	cmovle rbx,rcx
  407aad:	48 85 db             	test   rbx,rbx
  407ab0:	44 8b a4 24 70 01 00 	mov    r12d,DWORD PTR [rsp+0x170]
  407ab7:	00 
  407ab8:	0f 84 22 04 00 00    	je     407ee0 <fwrite@plt+0x6d80>
  407abe:	48 89 de             	mov    rsi,rbx
  407ac1:	48 f7 de             	neg    rsi
  407ac4:	4c 8b 5c 24 28       	mov    r11,QWORD PTR [rsp+0x28]
  407ac9:	49 29 db             	sub    r11,rbx
  407acc:	48 63 d3             	movsxd rdx,ebx
  407acf:	f6 44 24 0f 01       	test   BYTE PTR [rsp+0xf],0x1
  407ad4:	0f 84 b6 01 00 00    	je     407c90 <fwrite@plt+0x6b30>
  407ada:	48 c1 ea 03          	shr    rdx,0x3
  407ade:	48 83 fa 01          	cmp    rdx,0x1
  407ae2:	48 89 d7             	mov    rdi,rdx
  407ae5:	48 83 d7 00          	adc    rdi,0x0
  407ae9:	48 83 ff 08          	cmp    rdi,0x8
  407aed:	0f 82 5d 01 00 00    	jb     407c50 <fwrite@plt+0x6af0>
  407af3:	48 85 d2             	test   rdx,rdx
  407af6:	48 bd fe ff ff ff ff 	movabs rbp,0x1ffffffffffffffe
  407afd:	ff ff 1f 
  407b00:	48 0f 44 ac 24 40 01 	cmove  rbp,QWORD PTR [rsp+0x140]
  407b07:	00 00 
  407b09:	48 01 d5             	add    rbp,rdx
  407b0c:	48 f7 d3             	not    rbx
  407b0f:	4c 01 f3             	add    rbx,r14
  407b12:	48 8d 1c eb          	lea    rbx,[rbx+rbp*8]
  407b16:	4c 01 d3             	add    rbx,r10
  407b19:	48 83 c3 11          	add    rbx,0x11
  407b1d:	49 39 d8             	cmp    r8,rbx
  407b20:	73 11                	jae    407b33 <fwrite@plt+0x69d3>
  407b22:	49 8d 2c e8          	lea    rbp,[r8+rbp*8]
  407b26:	48 83 c5 10          	add    rbp,0x10
  407b2a:	49 39 eb             	cmp    r11,rbp
  407b2d:	0f 82 1d 01 00 00    	jb     407c50 <fwrite@plt+0x6af0>
  407b33:	48 b9 fe ff ff ff ff 	movabs rcx,0x3ffffffffffffffe
  407b3a:	ff ff 3f 
  407b3d:	4c 8d 49 fa          	lea    r9,[rcx-0x6]
  407b41:	49 21 f9             	and    r9,rdi
  407b44:	49 8d 69 f8          	lea    rbp,[r9-0x8]
  407b48:	48 89 eb             	mov    rbx,rbp
  407b4b:	48 c1 eb 03          	shr    rbx,0x3
  407b4f:	48 83 c3 01          	add    rbx,0x1
  407b53:	41 89 d8             	mov    r8d,ebx
  407b56:	41 83 e0 01          	and    r8d,0x1
  407b5a:	48 85 ed             	test   rbp,rbp
  407b5d:	0f 84 2d 05 00 00    	je     408090 <fwrite@plt+0x6f30>
  407b63:	4c 01 f6             	add    rsi,r14
  407b66:	49 8d 2c 32          	lea    rbp,[r10+rsi*1]
  407b6a:	48 83 c5 60          	add    rbp,0x60
  407b6e:	be 01 00 00 00       	mov    esi,0x1
  407b73:	48 29 de             	sub    rsi,rbx
  407b76:	49 8d 1c 30          	lea    rbx,[r8+rsi*1]
  407b7a:	48 83 c3 ff          	add    rbx,0xffffffffffffffff
  407b7e:	31 f6                	xor    esi,esi
  407b80:	48 8b 4c 24 10       	mov    rcx,QWORD PTR [rsp+0x10]
  407b85:	66 2e 0f 1f 84 00 00 	cs nop WORD PTR [rax+rax*1+0x0]
  407b8c:	00 00 00 
  407b8f:	90                   	nop
  407b90:	c5 fc 10 04 f1       	vmovups ymm0,YMMWORD PTR [rcx+rsi*8]
  407b95:	c5 fc 10 4c f1 20    	vmovups ymm1,YMMWORD PTR [rcx+rsi*8+0x20]
  407b9b:	c5 fc 10 54 f5 a0    	vmovups ymm2,YMMWORD PTR [rbp+rsi*8-0x60]
  407ba1:	c5 fc 10 5c f5 c0    	vmovups ymm3,YMMWORD PTR [rbp+rsi*8-0x40]
  407ba7:	c5 fc 11 14 f1       	vmovups YMMWORD PTR [rcx+rsi*8],ymm2
  407bac:	c5 fc 11 5c f1 20    	vmovups YMMWORD PTR [rcx+rsi*8+0x20],ymm3
  407bb2:	c5 fc 11 44 f5 a0    	vmovups YMMWORD PTR [rbp+rsi*8-0x60],ymm0
  407bb8:	c5 fc 11 4c f5 c0    	vmovups YMMWORD PTR [rbp+rsi*8-0x40],ymm1
  407bbe:	c5 fe 6f 44 f1 40    	vmovdqu ymm0,YMMWORD PTR [rcx+rsi*8+0x40]
  407bc4:	c5 fe 6f 4c f1 60    	vmovdqu ymm1,YMMWORD PTR [rcx+rsi*8+0x60]
  407bca:	c5 fe 6f 54 f5 e0    	vmovdqu ymm2,YMMWORD PTR [rbp+rsi*8-0x20]
  407bd0:	c5 fe 6f 5c f5 00    	vmovdqu ymm3,YMMWORD PTR [rbp+rsi*8+0x0]
  407bd6:	c5 fe 7f 54 f1 40    	vmovdqu YMMWORD PTR [rcx+rsi*8+0x40],ymm2
  407bdc:	c5 fe 7f 5c f1 60    	vmovdqu YMMWORD PTR [rcx+rsi*8+0x60],ymm3
  407be2:	c5 fe 7f 44 f5 e0    	vmovdqu YMMWORD PTR [rbp+rsi*8-0x20],ymm0
  407be8:	c5 fe 7f 4c f5 00    	vmovdqu YMMWORD PTR [rbp+rsi*8+0x0],ymm1
  407bee:	48 83 c6 10          	add    rsi,0x10
  407bf2:	48 83 c3 02          	add    rbx,0x2
  407bf6:	75 98                	jne    407b90 <fwrite@plt+0x6a30>
  407bf8:	4d 85 c0             	test   r8,r8
  407bfb:	49 89 c8             	mov    r8,rcx
  407bfe:	74 34                	je     407c34 <fwrite@plt+0x6ad4>
  407c00:	c4 c1 7e 6f 04 f0    	vmovdqu ymm0,YMMWORD PTR [r8+rsi*8]
  407c06:	c4 c1 7e 6f 4c f0 20 	vmovdqu ymm1,YMMWORD PTR [r8+rsi*8+0x20]
  407c0d:	c4 c1 7e 6f 14 f3    	vmovdqu ymm2,YMMWORD PTR [r11+rsi*8]
  407c13:	c4 c1 7e 6f 5c f3 20 	vmovdqu ymm3,YMMWORD PTR [r11+rsi*8+0x20]
  407c1a:	c4 c1 7e 7f 14 f0    	vmovdqu YMMWORD PTR [r8+rsi*8],ymm2
  407c20:	c4 c1 7e 7f 5c f0 20 	vmovdqu YMMWORD PTR [r8+rsi*8+0x20],ymm3
  407c27:	c4 c1 7e 7f 04 f3    	vmovdqu YMMWORD PTR [r11+rsi*8],ymm0
  407c2d:	c4 c1 7e 7f 4c f3 20 	vmovdqu YMMWORD PTR [r11+rsi*8+0x20],ymm1
  407c34:	4c 39 cf             	cmp    rdi,r9
  407c37:	0f 84 a3 02 00 00    	je     407ee0 <fwrite@plt+0x6d80>
  407c3d:	4f 8d 1c cb          	lea    r11,[r11+r9*8]
  407c41:	4f 8d 04 c8          	lea    r8,[r8+r9*8]
  407c45:	4c 29 ca             	sub    rdx,r9
  407c48:	0f 1f 84 00 00 00 00 	nop    DWORD PTR [rax+rax*1+0x0]
  407c4f:	00 
  407c50:	48 83 c2 01          	add    rdx,0x1
  407c54:	31 f6                	xor    esi,esi
  407c56:	66 2e 0f 1f 84 00 00 	cs nop WORD PTR [rax+rax*1+0x0]
  407c5d:	00 00 00 
  407c60:	49 8b 3c 30          	mov    rdi,QWORD PTR [r8+rsi*1]
  407c64:	49 8b 2c 33          	mov    rbp,QWORD PTR [r11+rsi*1]
  407c68:	49 89 2c 30          	mov    QWORD PTR [r8+rsi*1],rbp
  407c6c:	49 89 3c 33          	mov    QWORD PTR [r11+rsi*1],rdi
  407c70:	48 83 c6 08          	add    rsi,0x8
  407c74:	48 83 c2 ff          	add    rdx,0xffffffffffffffff
  407c78:	48 83 fa 01          	cmp    rdx,0x1
  407c7c:	7f e2                	jg     407c60 <fwrite@plt+0x6b00>
  407c7e:	e9 5d 02 00 00       	jmp    407ee0 <fwrite@plt+0x6d80>
  407c83:	66 2e 0f 1f 84 00 00 	cs nop WORD PTR [rax+rax*1+0x0]
  407c8a:	00 00 00 
  407c8d:	0f 1f 00             	nop    DWORD PTR [rax]
  407c90:	f6 44 24 0e 01       	test   BYTE PTR [rsp+0xe],0x1
  407c95:	48 c7 c1 fe ff ff ff 	mov    rcx,0xfffffffffffffffe
  407c9c:	0f 84 91 01 00 00    	je     407e33 <fwrite@plt+0x6cd3>
  407ca2:	48 c1 ea 02          	shr    rdx,0x2
  407ca6:	48 83 fa 01          	cmp    rdx,0x1
  407caa:	48 89 d7             	mov    rdi,rdx
  407cad:	48 83 d7 00          	adc    rdi,0x0
  407cb1:	48 83 ff 10          	cmp    rdi,0x10
  407cb5:	0f 82 4d 01 00 00    	jb     407e08 <fwrite@plt+0x6ca8>
  407cbb:	48 85 d2             	test   rdx,rdx
  407cbe:	48 bd fe ff ff ff ff 	movabs rbp,0x3ffffffffffffffe
  407cc5:	ff ff 3f 
  407cc8:	48 0f 44 ac 24 38 01 	cmove  rbp,QWORD PTR [rsp+0x138]
  407ccf:	00 00 
  407cd1:	48 01 d5             	add    rbp,rdx
  407cd4:	48 f7 d3             	not    rbx
  407cd7:	4c 01 f3             	add    rbx,r14
  407cda:	48 8d 1c ab          	lea    rbx,[rbx+rbp*4]
  407cde:	4c 01 d3             	add    rbx,r10
  407ce1:	48 83 c3 09          	add    rbx,0x9
  407ce5:	49 39 d8             	cmp    r8,rbx
  407ce8:	73 11                	jae    407cfb <fwrite@plt+0x6b9b>
  407cea:	49 8d 2c a8          	lea    rbp,[r8+rbp*4]
  407cee:	48 83 c5 08          	add    rbp,0x8
  407cf2:	49 39 eb             	cmp    r11,rbp
  407cf5:	0f 82 0d 01 00 00    	jb     407e08 <fwrite@plt+0x6ca8>
  407cfb:	49 89 f9             	mov    r9,rdi
  407cfe:	48 b9 f0 ff ff ff ff 	movabs rcx,0x7ffffffffffffff0
  407d05:	ff ff 7f 
  407d08:	49 21 c9             	and    r9,rcx
  407d0b:	49 8d 69 f0          	lea    rbp,[r9-0x10]
  407d0f:	48 89 eb             	mov    rbx,rbp
  407d12:	48 c1 eb 04          	shr    rbx,0x4
  407d16:	48 83 c3 01          	add    rbx,0x1
  407d1a:	41 89 d8             	mov    r8d,ebx
  407d1d:	41 83 e0 01          	and    r8d,0x1
  407d21:	48 85 ed             	test   rbp,rbp
  407d24:	0f 84 b4 03 00 00    	je     4080de <fwrite@plt+0x6f7e>
  407d2a:	4c 01 f6             	add    rsi,r14
  407d2d:	49 8d 2c 32          	lea    rbp,[r10+rsi*1]
  407d31:	48 83 c5 60          	add    rbp,0x60
  407d35:	be 01 00 00 00       	mov    esi,0x1
  407d3a:	48 29 de             	sub    rsi,rbx
  407d3d:	49 8d 1c 30          	lea    rbx,[r8+rsi*1]
  407d41:	48 83 c3 ff          	add    rbx,0xffffffffffffffff
  407d45:	31 f6                	xor    esi,esi
  407d47:	48 8b 4c 24 10       	mov    rcx,QWORD PTR [rsp+0x10]
  407d4c:	0f 1f 40 00          	nop    DWORD PTR [rax+0x0]
  407d50:	c5 fc 10 04 b1       	vmovups ymm0,YMMWORD PTR [rcx+rsi*4]
  407d55:	c5 fc 10 4c b1 20    	vmovups ymm1,YMMWORD PTR [rcx+rsi*4+0x20]
  407d5b:	c5 fc 10 54 b5 a0    	vmovups ymm2,YMMWORD PTR [rbp+rsi*4-0x60]
  407d61:	c5 fc 10 5c b5 c0    	vmovups ymm3,YMMWORD PTR [rbp+rsi*4-0x40]
  407d67:	c5 fc 11 14 b1       	vmovups YMMWORD PTR [rcx+rsi*4],ymm2
  407d6c:	c5 fc 11 5c b1 20    	vmovups YMMWORD PTR [rcx+rsi*4+0x20],ymm3
  407d72:	c5 fc 11 44 b5 a0    	vmovups YMMWORD PTR [rbp+rsi*4-0x60],ymm0
  407d78:	c5 fc 11 4c b5 c0    	vmovups YMMWORD PTR [rbp+rsi*4-0x40],ymm1
  407d7e:	c5 fe 6f 44 b1 40    	vmovdqu ymm0,YMMWORD PTR [rcx+rsi*4+0x40]
  407d84:	c5 fe 6f 4c b1 60    	vmovdqu ymm1,YMMWORD PTR [rcx+rsi*4+0x60]
  407d8a:	c5 fe 6f 54 b5 e0    	vmovdqu ymm2,YMMWORD PTR [rbp+rsi*4-0x20]
  407d90:	c5 fe 6f 5c b5 00    	vmovdqu ymm3,YMMWORD PTR [rbp+rsi*4+0x0]
  407d96:	c5 fe 7f 54 b1 40    	vmovdqu YMMWORD PTR [rcx+rsi*4+0x40],ymm2
  407d9c:	c5 fe 7f 5c b1 60    	vmovdqu YMMWORD PTR [rcx+rsi*4+0x60],ymm3
  407da2:	c5 fe 7f 44 b5 e0    	vmovdqu YMMWORD PTR [rbp+rsi*4-0x20],ymm0
  407da8:	c5 fe 7f 4c b5 00    	vmovdqu YMMWORD PTR [rbp+rsi*4+0x0],ymm1
  407dae:	48 83 c6 20          	add    rsi,0x20
  407db2:	48 83 c3 02          	add    rbx,0x2
  407db6:	75 98                	jne    407d50 <fwrite@plt+0x6bf0>
  407db8:	4d 85 c0             	test   r8,r8
  407dbb:	49 89 c8             	mov    r8,rcx
  407dbe:	74 34                	je     407df4 <fwrite@plt+0x6c94>
  407dc0:	c4 c1 7e 6f 04 b0    	vmovdqu ymm0,YMMWORD PTR [r8+rsi*4]
  407dc6:	c4 c1 7e 6f 4c b0 20 	vmovdqu ymm1,YMMWORD PTR [r8+rsi*4+0x20]
  407dcd:	c4 c1 7e 6f 14 b3    	vmovdqu ymm2,YMMWORD PTR [r11+rsi*4]
  407dd3:	c4 c1 7e 6f 5c b3 20 	vmovdqu ymm3,YMMWORD PTR [r11+rsi*4+0x20]
  407dda:	c4 c1 7e 7f 14 b0    	vmovdqu YMMWORD PTR [r8+rsi*4],ymm2
  407de0:	c4 c1 7e 7f 5c b0 20 	vmovdqu YMMWORD PTR [r8+rsi*4+0x20],ymm3
  407de7:	c4 c1 7e 7f 04 b3    	vmovdqu YMMWORD PTR [r11+rsi*4],ymm0
  407ded:	c4 c1 7e 7f 4c b3 20 	vmovdqu YMMWORD PTR [r11+rsi*4+0x20],ymm1
  407df4:	4c 39 cf             	cmp    rdi,r9
  407df7:	0f 84 e3 00 00 00    	je     407ee0 <fwrite@plt+0x6d80>
  407dfd:	4c 29 ca             	sub    rdx,r9
  407e00:	4f 8d 04 88          	lea    r8,[r8+r9*4]
  407e04:	4f 8d 1c 8b          	lea    r11,[r11+r9*4]
  407e08:	48 83 c2 01          	add    rdx,0x1
  407e0c:	31 f6                	xor    esi,esi
  407e0e:	66 90                	xchg   ax,ax
  407e10:	41 8b 3c 30          	mov    edi,DWORD PTR [r8+rsi*1]
  407e14:	41 8b 2c 33          	mov    ebp,DWORD PTR [r11+rsi*1]
  407e18:	41 89 2c 30          	mov    DWORD PTR [r8+rsi*1],ebp
  407e1c:	41 89 3c 33          	mov    DWORD PTR [r11+rsi*1],edi
  407e20:	48 83 c2 ff          	add    rdx,0xffffffffffffffff
  407e24:	48 83 c6 04          	add    rsi,0x4
  407e28:	48 83 fa 01          	cmp    rdx,0x1
  407e2c:	7f e2                	jg     407e10 <fwrite@plt+0x6cb0>
  407e2e:	e9 ad 00 00 00       	jmp    407ee0 <fwrite@plt+0x6d80>
  407e33:	48 63 eb             	movsxd rbp,ebx
  407e36:	48 89 ef             	mov    rdi,rbp
  407e39:	48 f7 d7             	not    rdi
  407e3c:	48 83 ff fd          	cmp    rdi,0xfffffffffffffffd
  407e40:	48 0f 4e f9          	cmovle rdi,rcx
  407e44:	4c 8d 14 2f          	lea    r10,[rdi+rbp*1]
  407e48:	49 83 c2 02          	add    r10,0x2
  407e4c:	49 83 fa 3f          	cmp    r10,0x3f
  407e50:	76 5b                	jbe    407ead <fwrite@plt+0x6d4d>
  407e52:	48 f7 d3             	not    rbx
  407e55:	48 89 df             	mov    rdi,rbx
  407e58:	48 c1 e7 20          	shl    rdi,0x20
  407e5c:	48 bd 00 00 00 00 ff 	movabs rbp,0xffffffff00000000
  407e63:	ff ff ff 
  407e66:	48 31 ef             	xor    rdi,rbp
  407e69:	48 c1 ff 20          	sar    rdi,0x20
  407e6d:	48 89 fd             	mov    rbp,rdi
  407e70:	48 f7 d5             	not    rbp
  407e73:	48 83 fd fd          	cmp    rbp,0xfffffffffffffffd
  407e77:	48 0f 4e e9          	cmovle rbp,rcx
  407e7b:	48 01 eb             	add    rbx,rbp
  407e7e:	4c 01 f3             	add    rbx,r14
  407e81:	48 01 fb             	add    rbx,rdi
  407e84:	48 8b 4c 24 18       	mov    rcx,QWORD PTR [rsp+0x18]
  407e89:	48 01 cb             	add    rbx,rcx
  407e8c:	48 83 c3 03          	add    rbx,0x3
  407e90:	49 39 d8             	cmp    r8,rbx
  407e93:	0f 83 d1 00 00 00    	jae    407f6a <fwrite@plt+0x6e0a>
  407e99:	48 01 fd             	add    rbp,rdi
  407e9c:	49 8d 3c 28          	lea    rdi,[r8+rbp*1]
  407ea0:	48 83 c7 02          	add    rdi,0x2
  407ea4:	49 39 fb             	cmp    r11,rdi
  407ea7:	0f 83 bd 00 00 00    	jae    407f6a <fwrite@plt+0x6e0a>
  407ead:	4c 8b 54 24 18       	mov    r10,QWORD PTR [rsp+0x18]
  407eb2:	48 83 c2 01          	add    rdx,0x1
  407eb6:	31 f6                	xor    esi,esi
  407eb8:	0f 1f 84 00 00 00 00 	nop    DWORD PTR [rax+rax*1+0x0]
  407ebf:	00 
  407ec0:	41 0f b6 1c 30       	movzx  ebx,BYTE PTR [r8+rsi*1]
  407ec5:	41 0f b6 0c 33       	movzx  ecx,BYTE PTR [r11+rsi*1]
  407eca:	41 88 0c 30          	mov    BYTE PTR [r8+rsi*1],cl
  407ece:	41 88 1c 33          	mov    BYTE PTR [r11+rsi*1],bl
  407ed2:	48 83 c2 ff          	add    rdx,0xffffffffffffffff
  407ed6:	48 83 c6 01          	add    rsi,0x1
  407eda:	48 83 fa 01          	cmp    rdx,0x1
  407ede:	7f e0                	jg     407ec0 <fwrite@plt+0x6d60>
  407ee0:	4c 39 e8             	cmp    rax,r13
  407ee3:	76 1b                	jbe    407f00 <fwrite@plt+0x6da0>
  407ee5:	31 d2                	xor    edx,edx
  407ee7:	49 f7 f5             	div    r13
  407eea:	4c 89 d7             	mov    rdi,r10
  407eed:	48 89 c6             	mov    rsi,rax
  407ef0:	4c 89 ea             	mov    rdx,r13
  407ef3:	48 8b 4c 24 30       	mov    rcx,QWORD PTR [rsp+0x30]
  407ef8:	c5 f8 77             	vzeroupper 
  407efb:	e8 80 d9 ff ff       	call   405880 <fwrite@plt+0x4720>
  407f00:	4d 39 ef             	cmp    r15,r13
  407f03:	8b b4 24 68 01 00 00 	mov    esi,DWORD PTR [rsp+0x168]
  407f0a:	4c 8b 44 24 28       	mov    r8,QWORD PTR [rsp+0x28]
  407f0f:	0f 86 91 13 00 00    	jbe    4092a6 <fwrite@plt+0x8146>
  407f15:	4c 89 f8             	mov    rax,r15
  407f18:	4d 29 f8             	sub    r8,r15
  407f1b:	31 d2                	xor    edx,edx
  407f1d:	49 f7 f5             	div    r13
  407f20:	49 89 c7             	mov    r15,rax
  407f23:	4c 89 c0             	mov    rax,r8
  407f26:	4c 09 e8             	or     rax,r13
  407f29:	a8 07                	test   al,0x7
  407f2b:	0f 94 44 24 0f       	sete   BYTE PTR [rsp+0xf]
  407f30:	b9 02 00 00 00       	mov    ecx,0x2
  407f35:	41 0f 44 cc          	cmove  ecx,r12d
  407f39:	89 4c 24 68          	mov    DWORD PTR [rsp+0x68],ecx
  407f3d:	a8 03                	test   al,0x3
  407f3f:	0f 94 44 24 0e       	sete   BYTE PTR [rsp+0xe]
  407f44:	b8 02 00 00 00       	mov    eax,0x2
  407f49:	0f 44 c6             	cmove  eax,esi
  407f4c:	89 44 24 6c          	mov    DWORD PTR [rsp+0x6c],eax
  407f50:	4d 89 c2             	mov    r10,r8
  407f53:	49 83 ff 07          	cmp    r15,0x7
  407f57:	48 8b 9c 24 90 00 00 	mov    rbx,QWORD PTR [rsp+0x90]
  407f5e:	00 
  407f5f:	0f 83 fb db ff ff    	jae    405b60 <fwrite@plt+0x4a00>
  407f65:	e9 ec 01 00 00       	jmp    408156 <fwrite@plt+0x6ff6>
  407f6a:	4d 89 d1             	mov    r9,r10
  407f6d:	49 83 e1 c0          	and    r9,0xffffffffffffffc0
  407f71:	49 8d 69 c0          	lea    rbp,[r9-0x40]
  407f75:	48 89 ef             	mov    rdi,rbp
  407f78:	48 c1 ef 06          	shr    rdi,0x6
  407f7c:	48 83 c7 01          	add    rdi,0x1
  407f80:	41 89 f8             	mov    r8d,edi
  407f83:	41 83 e0 01          	and    r8d,0x1
  407f87:	48 85 ed             	test   rbp,rbp
  407f8a:	0f 84 66 01 00 00    	je     4080f6 <fwrite@plt+0x6f96>
  407f90:	4c 01 f6             	add    rsi,r14
  407f93:	48 8b 4c 24 18       	mov    rcx,QWORD PTR [rsp+0x18]
  407f98:	48 8d 2c 31          	lea    rbp,[rcx+rsi*1]
  407f9c:	48 83 c5 60          	add    rbp,0x60
  407fa0:	be 01 00 00 00       	mov    esi,0x1
  407fa5:	48 29 fe             	sub    rsi,rdi
  407fa8:	49 8d 1c 30          	lea    rbx,[r8+rsi*1]
  407fac:	48 83 c3 ff          	add    rbx,0xffffffffffffffff
  407fb0:	31 f6                	xor    esi,esi
  407fb2:	48 8b 4c 24 10       	mov    rcx,QWORD PTR [rsp+0x10]
  407fb7:	66 0f 1f 84 00 00 00 	nop    WORD PTR [rax+rax*1+0x0]
  407fbe:	00 00 
  407fc0:	c5 fc 10 04 31       	vmovups ymm0,YMMWORD PTR [rcx+rsi*1]
  407fc5:	c5 fc 10 4c 31 20    	vmovups ymm1,YMMWORD PTR [rcx+rsi*1+0x20]
  407fcb:	c5 fc 10 54 35 a0    	vmovups ymm2,YMMWORD PTR [rbp+rsi*1-0x60]
  407fd1:	c5 fc 10 5c 35 c0    	vmovups ymm3,YMMWORD PTR [rbp+rsi*1-0x40]
  407fd7:	c5 fc 11 14 31       	vmovups YMMWORD PTR [rcx+rsi*1],ymm2
  407fdc:	c5 fc 11 5c 31 20    	vmovups YMMWORD PTR [rcx+rsi*1+0x20],ymm3
  407fe2:	c5 fc 11 44 35 a0    	vmovups YMMWORD PTR [rbp+rsi*1-0x60],ymm0
  407fe8:	c5 fc 11 4c 35 c0    	vmovups YMMWORD PTR [rbp+rsi*1-0x40],ymm1
  407fee:	c5 fe 6f 44 31 40    	vmovdqu ymm0,YMMWORD PTR [rcx+rsi*1+0x40]
  407ff4:	c5 fe 6f 4c 31 60    	vmovdqu ymm1,YMMWORD PTR [rcx+rsi*1+0x60]
  407ffa:	c5 fe 6f 54 35 e0    	vmovdqu ymm2,YMMWORD PTR [rbp+rsi*1-0x20]
  408000:	c5 fe 6f 5c 35 00    	vmovdqu ymm3,YMMWORD PTR [rbp+rsi*1+0x0]
  408006:	c5 fe 7f 54 31 40    	vmovdqu YMMWORD PTR [rcx+rsi*1+0x40],ymm2
  40800c:	c5 fe 7f 5c 31 60    	vmovdqu YMMWORD PTR [rcx+rsi*1+0x60],ymm3
  408012:	c5 fe 7f 44 35 e0    	vmovdqu YMMWORD PTR [rbp+rsi*1-0x20],ymm0
  408018:	c5 fe 7f 4c 35 00    	vmovdqu YMMWORD PTR [rbp+rsi*1+0x0],ymm1
  40801e:	48 83 ee 80          	sub    rsi,0xffffffffffffff80
  408022:	48 83 c3 02          	add    rbx,0x2
  408026:	75 98                	jne    407fc0 <fwrite@plt+0x6e60>
  408028:	4d 85 c0             	test   r8,r8
  40802b:	49 89 c8             	mov    r8,rcx
  40802e:	74 34                	je     408064 <fwrite@plt+0x6f04>
  408030:	c4 c1 7e 6f 04 30    	vmovdqu ymm0,YMMWORD PTR [r8+rsi*1]
  408036:	c4 c1 7e 6f 4c 30 20 	vmovdqu ymm1,YMMWORD PTR [r8+rsi*1+0x20]
  40803d:	c4 c1 7e 6f 14 33    	vmovdqu ymm2,YMMWORD PTR [r11+rsi*1]
  408043:	c4 c1 7e 6f 5c 33 20 	vmovdqu ymm3,YMMWORD PTR [r11+rsi*1+0x20]
  40804a:	c4 c1 7e 7f 14 30    	vmovdqu YMMWORD PTR [r8+rsi*1],ymm2
  408050:	c4 c1 7e 7f 5c 30 20 	vmovdqu YMMWORD PTR [r8+rsi*1+0x20],ymm3
  408057:	c4 c1 7e 7f 04 33    	vmovdqu YMMWORD PTR [r11+rsi*1],ymm0
  40805d:	c4 c1 7e 7f 4c 33 20 	vmovdqu YMMWORD PTR [r11+rsi*1+0x20],ymm1
  408064:	4d 39 ca             	cmp    r10,r9
  408067:	4c 8b 54 24 18       	mov    r10,QWORD PTR [rsp+0x18]
  40806c:	0f 84 6e fe ff ff    	je     407ee0 <fwrite@plt+0x6d80>
  408072:	4c 29 ca             	sub    rdx,r9
  408075:	4d 01 c8             	add    r8,r9
  408078:	4d 01 cb             	add    r11,r9
  40807b:	e9 32 fe ff ff       	jmp    407eb2 <fwrite@plt+0x6d52>
  408080:	31 f6                	xor    esi,esi
  408082:	4d 85 c0             	test   r8,r8
  408085:	0f 85 ea f6 ff ff    	jne    407775 <fwrite@plt+0x6615>
  40808b:	e9 19 f7 ff ff       	jmp    4077a9 <fwrite@plt+0x6649>
  408090:	31 f6                	xor    esi,esi
  408092:	48 8b 4c 24 10       	mov    rcx,QWORD PTR [rsp+0x10]
  408097:	4d 85 c0             	test   r8,r8
  40809a:	49 89 c8             	mov    r8,rcx
  40809d:	0f 85 5d fb ff ff    	jne    407c00 <fwrite@plt+0x6aa0>
  4080a3:	e9 8c fb ff ff       	jmp    407c34 <fwrite@plt+0x6ad4>
  4080a8:	31 c0                	xor    eax,eax
  4080aa:	48 83 bc 24 58 01 00 	cmp    QWORD PTR [rsp+0x158],0x0
  4080b1:	00 00 
  4080b3:	0f 85 e2 de ff ff    	jne    405f9b <fwrite@plt+0x4e3b>
  4080b9:	e9 0f df ff ff       	jmp    405fcd <fwrite@plt+0x4e6d>
  4080be:	31 f6                	xor    esi,esi
  4080c0:	4d 85 c0             	test   r8,r8
  4080c3:	0f 85 2c f8 ff ff    	jne    4078f5 <fwrite@plt+0x6795>
  4080c9:	e9 5b f8 ff ff       	jmp    407929 <fwrite@plt+0x67c9>
  4080ce:	31 f6                	xor    esi,esi
  4080d0:	4d 85 c0             	test   r8,r8
  4080d3:	0f 85 34 f9 ff ff    	jne    407a0d <fwrite@plt+0x68ad>
  4080d9:	e9 64 f9 ff ff       	jmp    407a42 <fwrite@plt+0x68e2>
  4080de:	31 f6                	xor    esi,esi
  4080e0:	48 8b 4c 24 10       	mov    rcx,QWORD PTR [rsp+0x10]
  4080e5:	4d 85 c0             	test   r8,r8
  4080e8:	49 89 c8             	mov    r8,rcx
  4080eb:	0f 85 cf fc ff ff    	jne    407dc0 <fwrite@plt+0x6c60>
  4080f1:	e9 fe fc ff ff       	jmp    407df4 <fwrite@plt+0x6c94>
  4080f6:	31 f6                	xor    esi,esi
  4080f8:	48 8b 4c 24 10       	mov    rcx,QWORD PTR [rsp+0x10]
  4080fd:	4d 85 c0             	test   r8,r8
  408100:	49 89 c8             	mov    r8,rcx
  408103:	0f 85 27 ff ff ff    	jne    408030 <fwrite@plt+0x6ed0>
  408109:	e9 56 ff ff ff       	jmp    408064 <fwrite@plt+0x6f04>
  40810e:	48 8b 84 24 b8 00 00 	mov    rax,QWORD PTR [rsp+0xb8]
  408115:	00 
  408116:	49 8d 34 02          	lea    rsi,[r10+rax*1]
  40811a:	48 01 c5             	add    rbp,rax
  40811d:	48 8b 8c 24 a8 00 00 	mov    rcx,QWORD PTR [rsp+0xa8]
  408124:	00 
  408125:	e9 a4 dd ff ff       	jmp    405ece <fwrite@plt+0x4d6e>
  40812a:	31 c0                	xor    eax,eax
  40812c:	48 83 bc 24 80 01 00 	cmp    QWORD PTR [rsp+0x180],0x0
  408133:	00 00 
  408135:	0f 85 60 df ff ff    	jne    40609b <fwrite@plt+0x4f3b>
  40813b:	e9 8d df ff ff       	jmp    4060cd <fwrite@plt+0x4f6d>
  408140:	31 c0                	xor    eax,eax
  408142:	48 83 bc 24 90 01 00 	cmp    QWORD PTR [rsp+0x190],0x0
  408149:	00 00 
  40814b:	0f 85 4a e0 ff ff    	jne    40619b <fwrite@plt+0x503b>
  408151:	e9 77 e0 ff ff       	jmp    4061cd <fwrite@plt+0x506d>
  408156:	4d 0f af fd          	imul   r15,r13
  40815a:	4d 39 ef             	cmp    r15,r13
  40815d:	0f 8e 43 11 00 00    	jle    4092a6 <fwrite@plt+0x8146>
  408163:	4d 01 c7             	add    r15,r8
  408166:	49 63 ed             	movsxd rbp,r13d
  408169:	48 89 ef             	mov    rdi,rbp
  40816c:	48 c1 ef 03          	shr    rdi,0x3
  408170:	48 89 eb             	mov    rbx,rbp
  408173:	48 c1 eb 02          	shr    rbx,0x2
  408177:	48 b9 fe ff ff ff ff 	movabs rcx,0x1ffffffffffffffe
  40817e:	ff ff 1f 
  408181:	48 8d 51 01          	lea    rdx,[rcx+0x1]
  408185:	45 31 c9             	xor    r9d,r9d
  408188:	48 85 ff             	test   rdi,rdi
  40818b:	41 0f 94 c1          	sete   r9b
  40818f:	48 0f 45 d1          	cmovne rdx,rcx
  408193:	4d 8d 14 39          	lea    r10,[r9+rdi*1]
  408197:	48 01 fa             	add    rdx,rdi
  40819a:	48 8d 0c d5 10 00 00 	lea    rcx,[rdx*8+0x10]
  4081a1:	00 
  4081a2:	4c 01 e9             	add    rcx,r13
  4081a5:	48 89 8c 24 00 01 00 	mov    QWORD PTR [rsp+0x100],rcx
  4081ac:	00 
  4081ad:	48 8d 0c d5 10 00 00 	lea    rcx,[rdx*8+0x10]
  4081b4:	00 
  4081b5:	48 89 8c 24 f8 00 00 	mov    QWORD PTR [rsp+0xf8],rcx
  4081bc:	00 
  4081bd:	44 89 d1             	mov    ecx,r10d
  4081c0:	83 e1 07             	and    ecx,0x7
  4081c3:	4c 89 d2             	mov    rdx,r10
  4081c6:	48 29 ca             	sub    rdx,rcx
  4081c9:	48 89 94 24 d8 00 00 	mov    QWORD PTR [rsp+0xd8],rdx
  4081d0:	00 
  4081d1:	48 ba fe ff ff ff ff 	movabs rdx,0x3ffffffffffffffe
  4081d8:	ff ff 3f 
  4081db:	48 8d 72 01          	lea    rsi,[rdx+0x1]
  4081df:	31 c9                	xor    ecx,ecx
  4081e1:	48 85 db             	test   rbx,rbx
  4081e4:	48 0f 45 f2          	cmovne rsi,rdx
  4081e8:	0f 94 c1             	sete   cl
  4081eb:	48 8d 04 19          	lea    rax,[rcx+rbx*1]
  4081ef:	48 01 de             	add    rsi,rbx
  4081f2:	48 8d 14 b5 08 00 00 	lea    rdx,[rsi*4+0x8]
  4081f9:	00 
  4081fa:	4c 01 ea             	add    rdx,r13
  4081fd:	48 89 94 24 f0 00 00 	mov    QWORD PTR [rsp+0xf0],rdx
  408204:	00 
  408205:	48 8d 14 b5 08 00 00 	lea    rdx,[rsi*4+0x8]
  40820c:	00 
  40820d:	48 89 94 24 e8 00 00 	mov    QWORD PTR [rsp+0xe8],rdx
  408214:	00 
  408215:	89 c2                	mov    edx,eax
  408217:	83 e2 0f             	and    edx,0xf
  40821a:	48 89 c6             	mov    rsi,rax
  40821d:	48 29 d6             	sub    rsi,rdx
  408220:	48 89 b4 24 38 01 00 	mov    QWORD PTR [rsp+0x138],rsi
  408227:	00 
  408228:	48 89 ea             	mov    rdx,rbp
  40822b:	48 f7 d2             	not    rdx
  40822e:	48 83 fa fd          	cmp    rdx,0xfffffffffffffffd
  408232:	48 c7 c6 fe ff ff ff 	mov    rsi,0xfffffffffffffffe
  408239:	48 0f 4f f2          	cmovg  rsi,rdx
  40823d:	ba 02 00 00 00       	mov    edx,0x2
  408242:	c4 e1 f9 6e c2       	vmovq  xmm0,rdx
  408247:	ba 3f 00 00 00       	mov    edx,0x3f
  40824c:	c4 e1 f9 6e ca       	vmovq  xmm1,rdx
  408251:	4a 8d 14 2e          	lea    rdx,[rsi+r13*1]
  408255:	48 8d 54 15 02       	lea    rdx,[rbp+rdx*1+0x2]
  40825a:	48 89 94 24 e0 00 00 	mov    QWORD PTR [rsp+0xe0],rdx
  408261:	00 
  408262:	c4 e1 f9 6e d5       	vmovq  xmm2,rbp
  408267:	c5 e9 d4 d0          	vpaddq xmm2,xmm2,xmm0
  40826b:	c4 c1 f9 6e dd       	vmovq  xmm3,r13
  408270:	c5 e1 d4 c0          	vpaddq xmm0,xmm3,xmm0
  408274:	c4 e1 f9 6e de       	vmovq  xmm3,rsi
  408279:	c5 e1 d4 d2          	vpaddq xmm2,xmm3,xmm2
  40827d:	c5 e1 d4 c0          	vpaddq xmm0,xmm3,xmm0
  408281:	c5 f9 db c1          	vpand  xmm0,xmm0,xmm1
  408285:	c5 e9 fb c0          	vpsubq xmm0,xmm2,xmm0
  408289:	4c 8d 1c 2e          	lea    r11,[rsi+rbp*1]
  40828d:	49 83 c3 02          	add    r11,0x2
  408291:	48 01 ee             	add    rsi,rbp
  408294:	48 83 c6 c2          	add    rsi,0xffffffffffffffc2
  408298:	48 c1 ee 06          	shr    rsi,0x6
  40829c:	48 01 d9             	add    rcx,rbx
  40829f:	48 83 c1 f0          	add    rcx,0xfffffffffffffff0
  4082a3:	48 c1 e9 04          	shr    rcx,0x4
  4082a7:	49 8d 14 39          	lea    rdx,[r9+rdi*1]
  4082ab:	48 83 c2 f8          	add    rdx,0xfffffffffffffff8
  4082af:	48 c1 ea 03          	shr    rdx,0x3
  4082b3:	4c 89 54 24 60       	mov    QWORD PTR [rsp+0x60],r10
  4082b8:	49 83 e2 f8          	and    r10,0xfffffffffffffff8
  4082bc:	48 89 7c 24 40       	mov    QWORD PTR [rsp+0x40],rdi
  4082c1:	4c 89 94 24 48 01 00 	mov    QWORD PTR [rsp+0x148],r10
  4082c8:	00 
  4082c9:	4c 29 d7             	sub    rdi,r10
  4082cc:	48 89 bc 24 40 01 00 	mov    QWORD PTR [rsp+0x140],rdi
  4082d3:	00 
  4082d4:	8d 7a 01             	lea    edi,[rdx+0x1]
  4082d7:	83 e7 01             	and    edi,0x1
  4082da:	48 89 44 24 58       	mov    QWORD PTR [rsp+0x58],rax
  4082df:	48 83 e0 f0          	and    rax,0xfffffffffffffff0
  4082e3:	48 89 9c 24 78 01 00 	mov    QWORD PTR [rsp+0x178],rbx
  4082ea:	00 
  4082eb:	48 89 84 24 d0 00 00 	mov    QWORD PTR [rsp+0xd0],rax
  4082f2:	00 
  4082f3:	48 29 c3             	sub    rbx,rax
  4082f6:	48 89 9c 24 60 01 00 	mov    QWORD PTR [rsp+0x160],rbx
  4082fd:	00 
  4082fe:	8d 41 01             	lea    eax,[rcx+0x1]
  408301:	83 e0 01             	and    eax,0x1
  408304:	4c 89 5c 24 48       	mov    QWORD PTR [rsp+0x48],r11
  408309:	49 83 e3 c0          	and    r11,0xffffffffffffffc0
  40830d:	48 89 6c 24 70       	mov    QWORD PTR [rsp+0x70],rbp
  408312:	4c 89 9c 24 c0 00 00 	mov    QWORD PTR [rsp+0xc0],r11
  408319:	00 
  40831a:	4c 29 dd             	sub    rbp,r11
  40831d:	48 89 ac 24 58 01 00 	mov    QWORD PTR [rsp+0x158],rbp
  408324:	00 
  408325:	8d 6e 01             	lea    ebp,[rsi+0x1]
  408328:	83 e5 01             	and    ebp,0x1
  40832b:	48 89 ac 24 b8 00 00 	mov    QWORD PTR [rsp+0xb8],rbp
  408332:	00 
  408333:	48 8d 6d ff          	lea    rbp,[rbp-0x1]
  408337:	48 89 b4 24 28 01 00 	mov    QWORD PTR [rsp+0x128],rsi
  40833e:	00 
  40833f:	48 29 f5             	sub    rbp,rsi
  408342:	48 89 ac 24 b0 00 00 	mov    QWORD PTR [rsp+0xb0],rbp
  408349:	00 
  40834a:	48 89 84 24 c8 00 00 	mov    QWORD PTR [rsp+0xc8],rax
  408351:	00 
  408352:	48 8d 40 ff          	lea    rax,[rax-0x1]
  408356:	48 89 8c 24 20 01 00 	mov    QWORD PTR [rsp+0x120],rcx
  40835d:	00 
  40835e:	48 29 c8             	sub    rax,rcx
  408361:	48 89 84 24 a8 00 00 	mov    QWORD PTR [rsp+0xa8],rax
  408368:	00 
  408369:	48 89 bc 24 30 01 00 	mov    QWORD PTR [rsp+0x130],rdi
  408370:	00 
  408371:	48 8d 47 ff          	lea    rax,[rdi-0x1]
  408375:	48 89 94 24 68 01 00 	mov    QWORD PTR [rsp+0x168],rdx
  40837c:	00 
  40837d:	48 29 d0             	sub    rax,rdx
  408380:	48 89 84 24 08 01 00 	mov    QWORD PTR [rsp+0x108],rax
  408387:	00 
  408388:	4f 8d 24 28          	lea    r12,[r8+r13*1]
  40838c:	c5 f9 d6 84 24 50 01 	vmovq  QWORD PTR [rsp+0x150],xmm0
  408393:	00 00 
  408395:	49 8d 40 60          	lea    rax,[r8+0x60]
  408399:	48 89 84 24 a0 00 00 	mov    QWORD PTR [rsp+0xa0],rax
  4083a0:	00 
  4083a1:	31 c0                	xor    eax,eax
  4083a3:	48 89 44 24 38       	mov    QWORD PTR [rsp+0x38],rax
  4083a8:	4c 89 84 24 90 00 00 	mov    QWORD PTR [rsp+0x90],r8
  4083af:	00 
  4083b0:	4c 89 44 24 28       	mov    QWORD PTR [rsp+0x28],r8
  4083b5:	4c 89 bc 24 98 00 00 	mov    QWORD PTR [rsp+0x98],r15
  4083bc:	00 
  4083bd:	0f 1f 00             	nop    DWORD PTR [rax]
  4083c0:	4d 39 c4             	cmp    r12,r8
  4083c3:	0f 86 77 06 00 00    	jbe    408a40 <fwrite@plt+0x78e0>
  4083c9:	83 7c 24 68 00       	cmp    DWORD PTR [rsp+0x68],0x0
  4083ce:	0f 84 ac 00 00 00    	je     408480 <fwrite@plt+0x7320>
  4083d4:	83 7c 24 6c 00       	cmp    DWORD PTR [rsp+0x6c],0x0
  4083d9:	0f 84 15 06 00 00    	je     4089f4 <fwrite@plt+0x7894>
  4083df:	48 8b 4c 24 38       	mov    rcx,QWORD PTR [rsp+0x38]
  4083e4:	48 8b 44 24 20       	mov    rax,QWORD PTR [rsp+0x20]
  4083e9:	48 0f af c8          	imul   rcx,rax
  4083ed:	48 8d 04 01          	lea    rax,[rcx+rax*1]
  4083f1:	48 89 44 24 10       	mov    QWORD PTR [rsp+0x10],rax
  4083f6:	48 8b 84 24 e0 00 00 	mov    rax,QWORD PTR [rsp+0xe0]
  4083fd:	00 
  4083fe:	48 8d 04 08          	lea    rax,[rax+rcx*1]
  408402:	48 89 84 24 10 01 00 	mov    QWORD PTR [rsp+0x110],rax
  408409:	00 
  40840a:	48 8b 44 24 48       	mov    rax,QWORD PTR [rsp+0x48]
  40840f:	48 8d 04 08          	lea    rax,[rax+rcx*1]
  408413:	48 89 44 24 78       	mov    QWORD PTR [rsp+0x78],rax
  408418:	48 8b 84 24 f0 00 00 	mov    rax,QWORD PTR [rsp+0xf0]
  40841f:	00 
  408420:	48 8d 04 08          	lea    rax,[rax+rcx*1]
  408424:	48 89 84 24 70 01 00 	mov    QWORD PTR [rsp+0x170],rax
  40842b:	00 
  40842c:	48 8b 84 24 e8 00 00 	mov    rax,QWORD PTR [rsp+0xe8]
  408433:	00 
  408434:	48 8d 04 08          	lea    rax,[rax+rcx*1]
  408438:	48 89 84 24 18 01 00 	mov    QWORD PTR [rsp+0x118],rax
  40843f:	00 
  408440:	48 8b 84 24 00 01 00 	mov    rax,QWORD PTR [rsp+0x100]
  408447:	00 
  408448:	48 8d 04 08          	lea    rax,[rax+rcx*1]
  40844c:	48 89 84 24 80 00 00 	mov    QWORD PTR [rsp+0x80],rax
  408453:	00 
  408454:	48 8b 84 24 f8 00 00 	mov    rax,QWORD PTR [rsp+0xf8]
  40845b:	00 
  40845c:	48 89 4c 24 18       	mov    QWORD PTR [rsp+0x18],rcx
  408461:	48 8d 04 08          	lea    rax,[rax+rcx*1]
  408465:	48 89 84 24 88 00 00 	mov    QWORD PTR [rsp+0x88],rax
  40846c:	00 
  40846d:	4c 8b b4 24 a0 00 00 	mov    r14,QWORD PTR [rsp+0xa0]
  408474:	00 
  408475:	45 31 ff             	xor    r15d,r15d
  408478:	4d 89 e5             	mov    r13,r12
  40847b:	e9 c0 00 00 00       	jmp    408540 <fwrite@plt+0x73e0>
  408480:	48 8b 9c 24 90 00 00 	mov    rbx,QWORD PTR [rsp+0x90]
  408487:	00 
  408488:	0f 1f 84 00 00 00 00 	nop    DWORD PTR [rax+rax*1+0x0]
  40848f:	00 
  408490:	48 8b 44 24 20       	mov    rax,QWORD PTR [rsp+0x20]
  408495:	48 8d 34 03          	lea    rsi,[rbx+rax*1]
  408499:	48 89 df             	mov    rdi,rbx
  40849c:	c5 f8 77             	vzeroupper 
  40849f:	ff 54 24 30          	call   QWORD PTR [rsp+0x30]
  4084a3:	4c 8b 44 24 28       	mov    r8,QWORD PTR [rsp+0x28]
  4084a8:	85 c0                	test   eax,eax
  4084aa:	0f 8e 90 05 00 00    	jle    408a40 <fwrite@plt+0x78e0>
  4084b0:	48 8b 54 24 20       	mov    rdx,QWORD PTR [rsp+0x20]
  4084b5:	48 8b 04 13          	mov    rax,QWORD PTR [rbx+rdx*1]
  4084b9:	48 8b 0b             	mov    rcx,QWORD PTR [rbx]
  4084bc:	48 89 0c 13          	mov    QWORD PTR [rbx+rdx*1],rcx
  4084c0:	48 89 03             	mov    QWORD PTR [rbx],rax
  4084c3:	48 03 5c 24 50       	add    rbx,QWORD PTR [rsp+0x50]
  4084c8:	48 8d 04 13          	lea    rax,[rbx+rdx*1]
  4084cc:	4c 39 c0             	cmp    rax,r8
  4084cf:	77 bf                	ja     408490 <fwrite@plt+0x7330>
  4084d1:	e9 6a 05 00 00       	jmp    408a40 <fwrite@plt+0x78e0>
  4084d6:	31 c0                	xor    eax,eax
  4084d8:	48 83 bc 24 30 01 00 	cmp    QWORD PTR [rsp+0x130],0x0
  4084df:	00 00 
  4084e1:	0f 85 a2 02 00 00    	jne    408789 <fwrite@plt+0x7629>
  4084e7:	e9 d1 02 00 00       	jmp    4087bd <fwrite@plt+0x765d>
  4084ec:	48 8b 84 24 50 01 00 	mov    rax,QWORD PTR [rsp+0x150]
  4084f3:	00 
  4084f4:	48 01 c5             	add    rbp,rax
  4084f7:	4a 8d 34 28          	lea    rsi,[rax+r13*1]
  4084fb:	48 8b 84 24 58 01 00 	mov    rax,QWORD PTR [rsp+0x158]
  408502:	00 
  408503:	e9 b1 01 00 00       	jmp    4086b9 <fwrite@plt+0x7559>
  408508:	31 c0                	xor    eax,eax
  40850a:	48 83 bc 24 c8 00 00 	cmp    QWORD PTR [rsp+0xc8],0x0
  408511:	00 00 
  408513:	0f 85 72 03 00 00    	jne    40888b <fwrite@plt+0x772b>
  408519:	e9 a1 03 00 00       	jmp    4088bf <fwrite@plt+0x775f>
  40851e:	31 c0                	xor    eax,eax
  408520:	48 83 bc 24 b8 00 00 	cmp    QWORD PTR [rsp+0xb8],0x0
  408527:	00 00 
  408529:	0f 85 5c 04 00 00    	jne    40898b <fwrite@plt+0x782b>
  40852f:	e9 8b 04 00 00       	jmp    4089bf <fwrite@plt+0x785f>
  408534:	66 2e 0f 1f 84 00 00 	cs nop WORD PTR [rax+rax*1+0x0]
  40853b:	00 00 00 
  40853e:	66 90                	xchg   ax,ax
  408540:	4c 89 ed             	mov    rbp,r13
  408543:	48 8b 44 24 50       	mov    rax,QWORD PTR [rsp+0x50]
  408548:	49 01 c5             	add    r13,rax
  40854b:	4c 89 ef             	mov    rdi,r13
  40854e:	48 89 ee             	mov    rsi,rbp
  408551:	c5 f8 77             	vzeroupper 
  408554:	ff 54 24 30          	call   QWORD PTR [rsp+0x30]
  408558:	4c 8b 44 24 28       	mov    r8,QWORD PTR [rsp+0x28]
  40855d:	85 c0                	test   eax,eax
  40855f:	0f 8e db 04 00 00    	jle    408a40 <fwrite@plt+0x78e0>
  408565:	4c 89 f8             	mov    rax,r15
  408568:	48 0f af 44 24 50    	imul   rax,QWORD PTR [rsp+0x50]
  40856e:	48 8b 4c 24 10       	mov    rcx,QWORD PTR [rsp+0x10]
  408573:	48 8d 14 01          	lea    rdx,[rcx+rax*1]
  408577:	4c 01 c2             	add    rdx,r8
  40857a:	48 8b 4c 24 18       	mov    rcx,QWORD PTR [rsp+0x18]
  40857f:	48 8d 0c 01          	lea    rcx,[rcx+rax*1]
  408583:	4c 01 c1             	add    rcx,r8
  408586:	80 7c 24 0f 00       	cmp    BYTE PTR [rsp+0xf],0x0
  40858b:	74 73                	je     408600 <fwrite@plt+0x74a0>
  40858d:	48 83 7c 24 60 08    	cmp    QWORD PTR [rsp+0x60],0x8
  408593:	72 2c                	jb     4085c1 <fwrite@plt+0x7461>
  408595:	48 8b b4 24 88 00 00 	mov    rsi,QWORD PTR [rsp+0x88]
  40859c:	00 
  40859d:	48 8d 34 06          	lea    rsi,[rsi+rax*1]
  4085a1:	4c 01 c6             	add    rsi,r8
  4085a4:	48 39 f2             	cmp    rdx,rsi
  4085a7:	0f 83 36 01 00 00    	jae    4086e3 <fwrite@plt+0x7583>
  4085ad:	48 03 84 24 80 00 00 	add    rax,QWORD PTR [rsp+0x80]
  4085b4:	00 
  4085b5:	4c 01 c0             	add    rax,r8
  4085b8:	48 39 c1             	cmp    rcx,rax
  4085bb:	0f 83 22 01 00 00    	jae    4086e3 <fwrite@plt+0x7583>
  4085c1:	4c 89 e8             	mov    rax,r13
  4085c4:	48 8b 4c 24 40       	mov    rcx,QWORD PTR [rsp+0x40]
  4085c9:	48 83 c1 01          	add    rcx,0x1
  4085cd:	31 d2                	xor    edx,edx
  4085cf:	90                   	nop
  4085d0:	48 8b 74 15 00       	mov    rsi,QWORD PTR [rbp+rdx*1+0x0]
  4085d5:	48 8b 3c 10          	mov    rdi,QWORD PTR [rax+rdx*1]
  4085d9:	48 89 7c 15 00       	mov    QWORD PTR [rbp+rdx*1+0x0],rdi
  4085de:	48 89 34 10          	mov    QWORD PTR [rax+rdx*1],rsi
  4085e2:	48 83 c2 08          	add    rdx,0x8
  4085e6:	48 83 c1 ff          	add    rcx,0xffffffffffffffff
  4085ea:	48 83 f9 01          	cmp    rcx,0x1
  4085ee:	7f e0                	jg     4085d0 <fwrite@plt+0x7470>
  4085f0:	e9 eb 03 00 00       	jmp    4089e0 <fwrite@plt+0x7880>
  4085f5:	66 2e 0f 1f 84 00 00 	cs nop WORD PTR [rax+rax*1+0x0]
  4085fc:	00 00 00 
  4085ff:	90                   	nop
  408600:	80 7c 24 0e 00       	cmp    BYTE PTR [rsp+0xe],0x0
  408605:	74 79                	je     408680 <fwrite@plt+0x7520>
  408607:	48 83 7c 24 58 10    	cmp    QWORD PTR [rsp+0x58],0x10
  40860d:	72 2c                	jb     40863b <fwrite@plt+0x74db>
  40860f:	48 8b b4 24 18 01 00 	mov    rsi,QWORD PTR [rsp+0x118]
  408616:	00 
  408617:	48 8d 34 06          	lea    rsi,[rsi+rax*1]
  40861b:	4c 01 c6             	add    rsi,r8
  40861e:	48 39 f2             	cmp    rdx,rsi
  408621:	0f 83 ce 01 00 00    	jae    4087f5 <fwrite@plt+0x7695>
  408627:	48 03 84 24 70 01 00 	add    rax,QWORD PTR [rsp+0x170]
  40862e:	00 
  40862f:	4c 01 c0             	add    rax,r8
  408632:	48 39 c1             	cmp    rcx,rax
  408635:	0f 83 ba 01 00 00    	jae    4087f5 <fwrite@plt+0x7695>
  40863b:	48 8b 84 24 78 01 00 	mov    rax,QWORD PTR [rsp+0x178]
  408642:	00 
  408643:	4c 89 e9             	mov    rcx,r13
  408646:	48 83 c0 01          	add    rax,0x1
  40864a:	31 d2                	xor    edx,edx
  40864c:	0f 1f 40 00          	nop    DWORD PTR [rax+0x0]
  408650:	8b 74 15 00          	mov    esi,DWORD PTR [rbp+rdx*1+0x0]
  408654:	8b 3c 11             	mov    edi,DWORD PTR [rcx+rdx*1]
  408657:	89 7c 15 00          	mov    DWORD PTR [rbp+rdx*1+0x0],edi
  40865b:	89 34 11             	mov    DWORD PTR [rcx+rdx*1],esi
  40865e:	48 83 c0 ff          	add    rax,0xffffffffffffffff
  408662:	48 83 c2 04          	add    rdx,0x4
  408666:	48 83 f8 01          	cmp    rax,0x1
  40866a:	7f e4                	jg     408650 <fwrite@plt+0x74f0>
  40866c:	e9 6f 03 00 00       	jmp    4089e0 <fwrite@plt+0x7880>
  408671:	66 2e 0f 1f 84 00 00 	cs nop WORD PTR [rax+rax*1+0x0]
  408678:	00 00 00 
  40867b:	0f 1f 44 00 00       	nop    DWORD PTR [rax+rax*1+0x0]
  408680:	48 83 7c 24 48 3f    	cmp    QWORD PTR [rsp+0x48],0x3f
  408686:	76 29                	jbe    4086b1 <fwrite@plt+0x7551>
  408688:	48 8b 74 24 78       	mov    rsi,QWORD PTR [rsp+0x78]
  40868d:	48 8d 34 06          	lea    rsi,[rsi+rax*1]
  408691:	4c 01 c6             	add    rsi,r8
  408694:	48 39 f2             	cmp    rdx,rsi
  408697:	0f 83 5a 02 00 00    	jae    4088f7 <fwrite@plt+0x7797>
  40869d:	48 03 84 24 10 01 00 	add    rax,QWORD PTR [rsp+0x110]
  4086a4:	00 
  4086a5:	4c 01 c0             	add    rax,r8
  4086a8:	48 39 c1             	cmp    rcx,rax
  4086ab:	0f 83 46 02 00 00    	jae    4088f7 <fwrite@plt+0x7797>
  4086b1:	48 8b 44 24 70       	mov    rax,QWORD PTR [rsp+0x70]
  4086b6:	4c 89 ee             	mov    rsi,r13
  4086b9:	48 83 c0 01          	add    rax,0x1
  4086bd:	31 d2                	xor    edx,edx
  4086bf:	90                   	nop
  4086c0:	0f b6 5c 15 00       	movzx  ebx,BYTE PTR [rbp+rdx*1+0x0]
  4086c5:	0f b6 0c 16          	movzx  ecx,BYTE PTR [rsi+rdx*1]
  4086c9:	88 4c 15 00          	mov    BYTE PTR [rbp+rdx*1+0x0],cl
  4086cd:	88 1c 16             	mov    BYTE PTR [rsi+rdx*1],bl
  4086d0:	48 83 c0 ff          	add    rax,0xffffffffffffffff
  4086d4:	48 83 c2 01          	add    rdx,0x1
  4086d8:	48 83 f8 01          	cmp    rax,0x1
  4086dc:	7f e2                	jg     4086c0 <fwrite@plt+0x7560>
  4086de:	e9 fd 02 00 00       	jmp    4089e0 <fwrite@plt+0x7880>
  4086e3:	48 83 bc 24 68 01 00 	cmp    QWORD PTR [rsp+0x168],0x0
  4086ea:	00 00 
  4086ec:	0f 84 e4 fd ff ff    	je     4084d6 <fwrite@plt+0x7376>
  4086f2:	48 8b 44 24 20       	mov    rax,QWORD PTR [rsp+0x20]
  4086f7:	49 8d 0c 06          	lea    rcx,[r14+rax*1]
  4086fb:	48 8b 94 24 08 01 00 	mov    rdx,QWORD PTR [rsp+0x108]
  408702:	00 
  408703:	31 c0                	xor    eax,eax
  408705:	66 2e 0f 1f 84 00 00 	cs nop WORD PTR [rax+rax*1+0x0]
  40870c:	00 00 00 
  40870f:	90                   	nop
  408710:	c5 fc 10 44 c1 a0    	vmovups ymm0,YMMWORD PTR [rcx+rax*8-0x60]
  408716:	c5 fc 10 4c c1 c0    	vmovups ymm1,YMMWORD PTR [rcx+rax*8-0x40]
  40871c:	c4 c1 7c 10 54 c6 a0 	vmovups ymm2,YMMWORD PTR [r14+rax*8-0x60]
  408723:	c4 c1 7c 10 5c c6 c0 	vmovups ymm3,YMMWORD PTR [r14+rax*8-0x40]
  40872a:	c5 fc 11 54 c1 a0    	vmovups YMMWORD PTR [rcx+rax*8-0x60],ymm2
  408730:	c5 fc 11 5c c1 c0    	vmovups YMMWORD PTR [rcx+rax*8-0x40],ymm3
  408736:	c4 c1 7c 11 44 c6 a0 	vmovups YMMWORD PTR [r14+rax*8-0x60],ymm0
  40873d:	c4 c1 7c 11 4c c6 c0 	vmovups YMMWORD PTR [r14+rax*8-0x40],ymm1
  408744:	c5 fe 6f 44 c1 e0    	vmovdqu ymm0,YMMWORD PTR [rcx+rax*8-0x20]
  40874a:	c5 fe 6f 0c c1       	vmovdqu ymm1,YMMWORD PTR [rcx+rax*8]
  40874f:	c4 c1 7e 6f 54 c6 e0 	vmovdqu ymm2,YMMWORD PTR [r14+rax*8-0x20]
  408756:	c4 c1 7e 6f 1c c6    	vmovdqu ymm3,YMMWORD PTR [r14+rax*8]
  40875c:	c5 fe 7f 54 c1 e0    	vmovdqu YMMWORD PTR [rcx+rax*8-0x20],ymm2
  408762:	c5 fe 7f 1c c1       	vmovdqu YMMWORD PTR [rcx+rax*8],ymm3
  408767:	c4 c1 7e 7f 44 c6 e0 	vmovdqu YMMWORD PTR [r14+rax*8-0x20],ymm0
  40876e:	c4 c1 7e 7f 0c c6    	vmovdqu YMMWORD PTR [r14+rax*8],ymm1
  408774:	48 83 c0 10          	add    rax,0x10
  408778:	48 83 c2 02          	add    rdx,0x2
  40877c:	75 92                	jne    408710 <fwrite@plt+0x75b0>
  40877e:	48 83 bc 24 30 01 00 	cmp    QWORD PTR [rsp+0x130],0x0
  408785:	00 00 
  408787:	74 34                	je     4087bd <fwrite@plt+0x765d>
  408789:	c5 fe 6f 44 c5 00    	vmovdqu ymm0,YMMWORD PTR [rbp+rax*8+0x0]
  40878f:	c5 fe 6f 4c c5 20    	vmovdqu ymm1,YMMWORD PTR [rbp+rax*8+0x20]
  408795:	c4 c1 7e 6f 54 c5 00 	vmovdqu ymm2,YMMWORD PTR [r13+rax*8+0x0]
  40879c:	c4 c1 7e 6f 5c c5 20 	vmovdqu ymm3,YMMWORD PTR [r13+rax*8+0x20]
  4087a3:	c5 fe 7f 54 c5 00    	vmovdqu YMMWORD PTR [rbp+rax*8+0x0],ymm2
  4087a9:	c5 fe 7f 5c c5 20    	vmovdqu YMMWORD PTR [rbp+rax*8+0x20],ymm3
  4087af:	c4 c1 7e 7f 44 c5 00 	vmovdqu YMMWORD PTR [r13+rax*8+0x0],ymm0
  4087b6:	c4 c1 7e 7f 4c c5 20 	vmovdqu YMMWORD PTR [r13+rax*8+0x20],ymm1
  4087bd:	48 8b 84 24 48 01 00 	mov    rax,QWORD PTR [rsp+0x148]
  4087c4:	00 
  4087c5:	48 39 44 24 60       	cmp    QWORD PTR [rsp+0x60],rax
  4087ca:	0f 84 10 02 00 00    	je     4089e0 <fwrite@plt+0x7880>
  4087d0:	48 8b 8c 24 d8 00 00 	mov    rcx,QWORD PTR [rsp+0xd8]
  4087d7:	00 
  4087d8:	48 8d 04 cd 00 00 00 	lea    rax,[rcx*8+0x0]
  4087df:	00 
  4087e0:	4c 01 e8             	add    rax,r13
  4087e3:	48 8d 6c cd 00       	lea    rbp,[rbp+rcx*8+0x0]
  4087e8:	48 8b 8c 24 40 01 00 	mov    rcx,QWORD PTR [rsp+0x140]
  4087ef:	00 
  4087f0:	e9 d4 fd ff ff       	jmp    4085c9 <fwrite@plt+0x7469>
  4087f5:	48 83 bc 24 20 01 00 	cmp    QWORD PTR [rsp+0x120],0x0
  4087fc:	00 00 
  4087fe:	0f 84 04 fd ff ff    	je     408508 <fwrite@plt+0x73a8>
  408804:	48 8b 8c 24 a8 00 00 	mov    rcx,QWORD PTR [rsp+0xa8]
  40880b:	00 
  40880c:	31 c0                	xor    eax,eax
  40880e:	66 90                	xchg   ax,ax
  408810:	c5 fc 10 44 85 00    	vmovups ymm0,YMMWORD PTR [rbp+rax*4+0x0]
  408816:	c5 fc 10 4c 85 20    	vmovups ymm1,YMMWORD PTR [rbp+rax*4+0x20]
  40881c:	c4 c1 7c 10 54 86 a0 	vmovups ymm2,YMMWORD PTR [r14+rax*4-0x60]
  408823:	c4 c1 7c 10 5c 86 c0 	vmovups ymm3,YMMWORD PTR [r14+rax*4-0x40]
  40882a:	c5 fc 11 54 85 00    	vmovups YMMWORD PTR [rbp+rax*4+0x0],ymm2
  408830:	c5 fc 11 5c 85 20    	vmovups YMMWORD PTR [rbp+rax*4+0x20],ymm3
  408836:	c4 c1 7c 11 44 86 a0 	vmovups YMMWORD PTR [r14+rax*4-0x60],ymm0
  40883d:	c4 c1 7c 11 4c 86 c0 	vmovups YMMWORD PTR [r14+rax*4-0x40],ymm1
  408844:	c5 fe 6f 44 85 40    	vmovdqu ymm0,YMMWORD PTR [rbp+rax*4+0x40]
  40884a:	c5 fe 6f 4c 85 60    	vmovdqu ymm1,YMMWORD PTR [rbp+rax*4+0x60]
  408850:	c4 c1 7e 6f 54 86 e0 	vmovdqu ymm2,YMMWORD PTR [r14+rax*4-0x20]
  408857:	c4 c1 7e 6f 1c 86    	vmovdqu ymm3,YMMWORD PTR [r14+rax*4]
  40885d:	c5 fe 7f 54 85 40    	vmovdqu YMMWORD PTR [rbp+rax*4+0x40],ymm2
  408863:	c5 fe 7f 5c 85 60    	vmovdqu YMMWORD PTR [rbp+rax*4+0x60],ymm3
  408869:	c4 c1 7e 7f 44 86 e0 	vmovdqu YMMWORD PTR [r14+rax*4-0x20],ymm0
  408870:	c4 c1 7e 7f 0c 86    	vmovdqu YMMWORD PTR [r14+rax*4],ymm1
  408876:	48 83 c0 20          	add    rax,0x20
  40887a:	48 83 c1 02          	add    rcx,0x2
  40887e:	75 90                	jne    408810 <fwrite@plt+0x76b0>
  408880:	48 83 bc 24 c8 00 00 	cmp    QWORD PTR [rsp+0xc8],0x0
  408887:	00 00 
  408889:	74 34                	je     4088bf <fwrite@plt+0x775f>
  40888b:	c5 fe 6f 44 85 00    	vmovdqu ymm0,YMMWORD PTR [rbp+rax*4+0x0]
  408891:	c5 fe 6f 4c 85 20    	vmovdqu ymm1,YMMWORD PTR [rbp+rax*4+0x20]
  408897:	c4 c1 7e 6f 54 85 00 	vmovdqu ymm2,YMMWORD PTR [r13+rax*4+0x0]
  40889e:	c4 c1 7e 6f 5c 85 20 	vmovdqu ymm3,YMMWORD PTR [r13+rax*4+0x20]
  4088a5:	c5 fe 7f 54 85 00    	vmovdqu YMMWORD PTR [rbp+rax*4+0x0],ymm2
  4088ab:	c5 fe 7f 5c 85 20    	vmovdqu YMMWORD PTR [rbp+rax*4+0x20],ymm3
  4088b1:	c4 c1 7e 7f 44 85 00 	vmovdqu YMMWORD PTR [r13+rax*4+0x0],ymm0
  4088b8:	c4 c1 7e 7f 4c 85 20 	vmovdqu YMMWORD PTR [r13+rax*4+0x20],ymm1
  4088bf:	48 8b 84 24 d0 00 00 	mov    rax,QWORD PTR [rsp+0xd0]
  4088c6:	00 
  4088c7:	48 39 44 24 58       	cmp    QWORD PTR [rsp+0x58],rax
  4088cc:	0f 84 0e 01 00 00    	je     4089e0 <fwrite@plt+0x7880>
  4088d2:	48 8b 84 24 38 01 00 	mov    rax,QWORD PTR [rsp+0x138]
  4088d9:	00 
  4088da:	48 8d 6c 85 00       	lea    rbp,[rbp+rax*4+0x0]
  4088df:	48 8d 0c 85 00 00 00 	lea    rcx,[rax*4+0x0]
  4088e6:	00 
  4088e7:	4c 01 e9             	add    rcx,r13
  4088ea:	48 8b 84 24 60 01 00 	mov    rax,QWORD PTR [rsp+0x160]
  4088f1:	00 
  4088f2:	e9 4f fd ff ff       	jmp    408646 <fwrite@plt+0x74e6>
  4088f7:	48 83 bc 24 28 01 00 	cmp    QWORD PTR [rsp+0x128],0x0
  4088fe:	00 00 
  408900:	0f 84 18 fc ff ff    	je     40851e <fwrite@plt+0x73be>
  408906:	48 8b 8c 24 b0 00 00 	mov    rcx,QWORD PTR [rsp+0xb0]
  40890d:	00 
  40890e:	31 c0                	xor    eax,eax
  408910:	c5 fc 10 44 05 00    	vmovups ymm0,YMMWORD PTR [rbp+rax*1+0x0]
  408916:	c5 fc 10 4c 05 20    	vmovups ymm1,YMMWORD PTR [rbp+rax*1+0x20]
  40891c:	c4 c1 7c 10 54 06 a0 	vmovups ymm2,YMMWORD PTR [r14+rax*1-0x60]
  408923:	c4 c1 7c 10 5c 06 c0 	vmovups ymm3,YMMWORD PTR [r14+rax*1-0x40]
  40892a:	c5 fc 11 54 05 00    	vmovups YMMWORD PTR [rbp+rax*1+0x0],ymm2
  408930:	c5 fc 11 5c 05 20    	vmovups YMMWORD PTR [rbp+rax*1+0x20],ymm3
  408936:	c4 c1 7c 11 44 06 a0 	vmovups YMMWORD PTR [r14+rax*1-0x60],ymm0
  40893d:	c4 c1 7c 11 4c 06 c0 	vmovups YMMWORD PTR [r14+rax*1-0x40],ymm1
  408944:	c5 fe 6f 44 05 40    	vmovdqu ymm0,YMMWORD PTR [rbp+rax*1+0x40]
  40894a:	c5 fe 6f 4c 05 60    	vmovdqu ymm1,YMMWORD PTR [rbp+rax*1+0x60]
  408950:	c4 c1 7e 6f 54 06 e0 	vmovdqu ymm2,YMMWORD PTR [r14+rax*1-0x20]
  408957:	c4 c1 7e 6f 1c 06    	vmovdqu ymm3,YMMWORD PTR [r14+rax*1]
  40895d:	c5 fe 7f 54 05 40    	vmovdqu YMMWORD PTR [rbp+rax*1+0x40],ymm2
  408963:	c5 fe 7f 5c 05 60    	vmovdqu YMMWORD PTR [rbp+rax*1+0x60],ymm3
  408969:	c4 c1 7e 7f 44 06 e0 	vmovdqu YMMWORD PTR [r14+rax*1-0x20],ymm0
  408970:	c4 c1 7e 7f 0c 06    	vmovdqu YMMWORD PTR [r14+rax*1],ymm1
  408976:	48 83 e8 80          	sub    rax,0xffffffffffffff80
  40897a:	48 83 c1 02          	add    rcx,0x2
  40897e:	75 90                	jne    408910 <fwrite@plt+0x77b0>
  408980:	48 83 bc 24 b8 00 00 	cmp    QWORD PTR [rsp+0xb8],0x0
  408987:	00 00 
  408989:	74 34                	je     4089bf <fwrite@plt+0x785f>
  40898b:	c5 fe 6f 44 05 00    	vmovdqu ymm0,YMMWORD PTR [rbp+rax*1+0x0]
  408991:	c5 fe 6f 4c 05 20    	vmovdqu ymm1,YMMWORD PTR [rbp+rax*1+0x20]
  408997:	c4 c1 7e 6f 54 05 00 	vmovdqu ymm2,YMMWORD PTR [r13+rax*1+0x0]
  40899e:	c4 c1 7e 6f 5c 05 20 	vmovdqu ymm3,YMMWORD PTR [r13+rax*1+0x20]
  4089a5:	c5 fe 7f 54 05 00    	vmovdqu YMMWORD PTR [rbp+rax*1+0x0],ymm2
  4089ab:	c5 fe 7f 5c 05 20    	vmovdqu YMMWORD PTR [rbp+rax*1+0x20],ymm3
  4089b1:	c4 c1 7e 7f 44 05 00 	vmovdqu YMMWORD PTR [r13+rax*1+0x0],ymm0
  4089b8:	c4 c1 7e 7f 4c 05 20 	vmovdqu YMMWORD PTR [r13+rax*1+0x20],ymm1
  4089bf:	48 8b 84 24 c0 00 00 	mov    rax,QWORD PTR [rsp+0xc0]
  4089c6:	00 
  4089c7:	48 39 44 24 48       	cmp    QWORD PTR [rsp+0x48],rax
  4089cc:	0f 85 1a fb ff ff    	jne    4084ec <fwrite@plt+0x738c>
  4089d2:	66 2e 0f 1f 84 00 00 	cs nop WORD PTR [rax+rax*1+0x0]
  4089d9:	00 00 00 
  4089dc:	0f 1f 40 00          	nop    DWORD PTR [rax+0x0]
  4089e0:	49 83 c7 01          	add    r15,0x1
  4089e4:	4c 03 74 24 50       	add    r14,QWORD PTR [rsp+0x50]
  4089e9:	4d 39 c5             	cmp    r13,r8
  4089ec:	0f 87 4e fb ff ff    	ja     408540 <fwrite@plt+0x73e0>
  4089f2:	eb 4c                	jmp    408a40 <fwrite@plt+0x78e0>
  4089f4:	48 8b 9c 24 90 00 00 	mov    rbx,QWORD PTR [rsp+0x90]
  4089fb:	00 
  4089fc:	0f 1f 40 00          	nop    DWORD PTR [rax+0x0]
  408a00:	48 8b 44 24 20       	mov    rax,QWORD PTR [rsp+0x20]
  408a05:	48 8d 34 03          	lea    rsi,[rbx+rax*1]
  408a09:	48 89 df             	mov    rdi,rbx
  408a0c:	c5 f8 77             	vzeroupper 
  408a0f:	ff 54 24 30          	call   QWORD PTR [rsp+0x30]
  408a13:	4c 8b 44 24 28       	mov    r8,QWORD PTR [rsp+0x28]
  408a18:	85 c0                	test   eax,eax
  408a1a:	7e 24                	jle    408a40 <fwrite@plt+0x78e0>
  408a1c:	48 8b 54 24 20       	mov    rdx,QWORD PTR [rsp+0x20]
  408a21:	8b 04 13             	mov    eax,DWORD PTR [rbx+rdx*1]
  408a24:	8b 0b                	mov    ecx,DWORD PTR [rbx]
  408a26:	89 0c 13             	mov    DWORD PTR [rbx+rdx*1],ecx
  408a29:	89 03                	mov    DWORD PTR [rbx],eax
  408a2b:	48 03 5c 24 50       	add    rbx,QWORD PTR [rsp+0x50]
  408a30:	48 8d 04 13          	lea    rax,[rbx+rdx*1]
  408a34:	4c 39 c0             	cmp    rax,r8
  408a37:	77 c7                	ja     408a00 <fwrite@plt+0x78a0>
  408a39:	0f 1f 80 00 00 00 00 	nop    DWORD PTR [rax+0x0]
  408a40:	48 8b 44 24 20       	mov    rax,QWORD PTR [rsp+0x20]
  408a45:	49 01 c4             	add    r12,rax
  408a48:	48 83 44 24 38 01    	add    QWORD PTR [rsp+0x38],0x1
  408a4e:	48 01 84 24 a0 00 00 	add    QWORD PTR [rsp+0xa0],rax
  408a55:	00 
  408a56:	48 01 84 24 90 00 00 	add    QWORD PTR [rsp+0x90],rax
  408a5d:	00 
  408a5e:	4c 8b bc 24 98 00 00 	mov    r15,QWORD PTR [rsp+0x98]
  408a65:	00 
  408a66:	4d 39 fc             	cmp    r12,r15
  408a69:	0f 82 51 f9 ff ff    	jb     4083c0 <fwrite@plt+0x7260>
  408a6f:	e9 32 08 00 00       	jmp    4092a6 <fwrite@plt+0x8146>
  408a74:	4d 39 ee             	cmp    r14,r13
  408a77:	0f 8e 29 08 00 00    	jle    4092a6 <fwrite@plt+0x8146>
  408a7d:	48 8b 84 24 a0 00 00 	mov    rax,QWORD PTR [rsp+0xa0]
  408a84:	00 
  408a85:	4c 29 e8             	sub    rax,r13
  408a88:	48 89 84 24 d8 00 00 	mov    QWORD PTR [rsp+0xd8],rax
  408a8f:	00 
  408a90:	48 8b 4c 24 58       	mov    rcx,QWORD PTR [rsp+0x58]
  408a95:	89 c8                	mov    eax,ecx
  408a97:	83 e0 07             	and    eax,0x7
  408a9a:	48 29 c1             	sub    rcx,rax
  408a9d:	48 89 8c 24 40 01 00 	mov    QWORD PTR [rsp+0x140],rcx
  408aa4:	00 
  408aa5:	48 8b 84 24 90 00 00 	mov    rax,QWORD PTR [rsp+0x90]
  408aac:	00 
  408aad:	4c 29 e8             	sub    rax,r13
  408ab0:	48 89 84 24 28 01 00 	mov    QWORD PTR [rsp+0x128],rax
  408ab7:	00 
  408ab8:	48 8b 8c 24 80 00 00 	mov    rcx,QWORD PTR [rsp+0x80]
  408abf:	00 
  408ac0:	89 c8                	mov    eax,ecx
  408ac2:	83 e0 0f             	and    eax,0xf
  408ac5:	48 29 c1             	sub    rcx,rax
  408ac8:	48 89 8c 24 38 01 00 	mov    QWORD PTR [rsp+0x138],rcx
  408acf:	00 
  408ad0:	48 8b 44 24 60       	mov    rax,QWORD PTR [rsp+0x60]
  408ad5:	48 89 c1             	mov    rcx,rax
  408ad8:	4c 29 e8             	sub    rax,r13
  408adb:	48 89 84 24 20 01 00 	mov    QWORD PTR [rsp+0x120],rax
  408ae2:	00 
  408ae3:	48 8b 94 24 88 01 00 	mov    rdx,QWORD PTR [rsp+0x188]
  408aea:	00 
  408aeb:	42 8d 04 2a          	lea    eax,[rdx+r13*1]
  408aef:	83 c0 02             	add    eax,0x2
  408af2:	83 e0 3f             	and    eax,0x3f
  408af5:	48 29 c1             	sub    rcx,rax
  408af8:	48 89 8c 24 58 01 00 	mov    QWORD PTR [rsp+0x158],rcx
  408aff:	00 
  408b00:	49 63 c5             	movsxd rax,r13d
  408b03:	48 01 c2             	add    rdx,rax
  408b06:	48 83 c2 c2          	add    rdx,0xffffffffffffffc2
  408b0a:	48 c1 ea 06          	shr    rdx,0x6
  408b0e:	8d 72 01             	lea    esi,[rdx+0x1]
  408b11:	48 8b 84 24 60 01 00 	mov    rax,QWORD PTR [rsp+0x160]
  408b18:	00 
  408b19:	48 83 c0 f2          	add    rax,0xfffffffffffffff2
  408b1d:	48 c1 e8 04          	shr    rax,0x4
  408b21:	8d 78 01             	lea    edi,[rax+0x1]
  408b24:	48 8b 8c 24 18 01 00 	mov    rcx,QWORD PTR [rsp+0x118]
  408b2b:	00 
  408b2c:	8d 69 01             	lea    ebp,[rcx+0x1]
  408b2f:	48 8b 9c 24 88 00 00 	mov    rbx,QWORD PTR [rsp+0x88]
  408b36:	00 
  408b37:	48 2b 9c 24 10 01 00 	sub    rbx,QWORD PTR [rsp+0x110]
  408b3e:	00 
  408b3f:	48 89 9c 24 b8 00 00 	mov    QWORD PTR [rsp+0xb8],rbx
  408b46:	00 
  408b47:	83 e5 01             	and    ebp,0x1
  408b4a:	48 8b 5c 24 78       	mov    rbx,QWORD PTR [rsp+0x78]
  408b4f:	48 2b 9c 24 00 01 00 	sub    rbx,QWORD PTR [rsp+0x100]
  408b56:	00 
  408b57:	48 89 9c 24 50 01 00 	mov    QWORD PTR [rsp+0x150],rbx
  408b5e:	00 
  408b5f:	83 e7 01             	and    edi,0x1
  408b62:	48 8b 5c 24 70       	mov    rbx,QWORD PTR [rsp+0x70]
  408b67:	48 2b 9c 24 f8 00 00 	sub    rbx,QWORD PTR [rsp+0xf8]
  408b6e:	00 
  408b6f:	48 89 9c 24 80 01 00 	mov    QWORD PTR [rsp+0x180],rbx
  408b76:	00 
  408b77:	83 e6 01             	and    esi,0x1
  408b7a:	48 89 b4 24 c8 00 00 	mov    QWORD PTR [rsp+0xc8],rsi
  408b81:	00 
  408b82:	48 8d 76 ff          	lea    rsi,[rsi-0x1]
  408b86:	48 89 94 24 d0 00 00 	mov    QWORD PTR [rsp+0xd0],rdx
  408b8d:	00 
  408b8e:	48 29 d6             	sub    rsi,rdx
  408b91:	48 89 b4 24 b0 00 00 	mov    QWORD PTR [rsp+0xb0],rsi
  408b98:	00 
  408b99:	48 89 bc 24 c0 00 00 	mov    QWORD PTR [rsp+0xc0],rdi
  408ba0:	00 
  408ba1:	48 8d 57 ff          	lea    rdx,[rdi-0x1]
  408ba5:	48 89 84 24 60 01 00 	mov    QWORD PTR [rsp+0x160],rax
  408bac:	00 
  408bad:	48 29 c2             	sub    rdx,rax
  408bb0:	48 89 94 24 a8 00 00 	mov    QWORD PTR [rsp+0xa8],rdx
  408bb7:	00 
  408bb8:	48 89 ac 24 e8 00 00 	mov    QWORD PTR [rsp+0xe8],rbp
  408bbf:	00 
  408bc0:	48 8d 45 ff          	lea    rax,[rbp-0x1]
  408bc4:	48 29 c8             	sub    rax,rcx
  408bc7:	48 89 84 24 e0 00 00 	mov    QWORD PTR [rsp+0xe0],rax
  408bce:	00 
  408bcf:	49 8d 42 60          	lea    rax,[r10+0x60]
  408bd3:	48 89 44 24 40       	mov    QWORD PTR [rsp+0x40],rax
  408bd8:	31 c0                	xor    eax,eax
  408bda:	48 89 84 24 98 00 00 	mov    QWORD PTR [rsp+0x98],rax
  408be1:	00 
  408be2:	4c 89 54 24 48       	mov    QWORD PTR [rsp+0x48],r10
  408be7:	4c 8b b4 24 78 01 00 	mov    r14,QWORD PTR [rsp+0x178]
  408bee:	00 
  408bef:	90                   	nop
  408bf0:	4d 39 d6             	cmp    r14,r10
  408bf3:	0f 86 87 06 00 00    	jbe    409280 <fwrite@plt+0x8120>
  408bf9:	83 7c 24 68 00       	cmp    DWORD PTR [rsp+0x68],0x0
  408bfe:	0f 84 b1 00 00 00    	je     408cb5 <fwrite@plt+0x7b55>
  408c04:	83 7c 24 6c 00       	cmp    DWORD PTR [rsp+0x6c],0x0
  408c09:	0f 84 25 06 00 00    	je     409234 <fwrite@plt+0x80d4>
  408c0f:	48 8b 94 24 98 00 00 	mov    rdx,QWORD PTR [rsp+0x98]
  408c16:	00 
  408c17:	48 8b 44 24 20       	mov    rax,QWORD PTR [rsp+0x20]
  408c1c:	48 0f af d0          	imul   rdx,rax
  408c20:	48 8b 4c 24 60       	mov    rcx,QWORD PTR [rsp+0x60]
  408c25:	48 8d 0c 11          	lea    rcx,[rcx+rdx*1]
  408c29:	48 89 8c 24 08 01 00 	mov    QWORD PTR [rsp+0x108],rcx
  408c30:	00 
  408c31:	48 89 d1             	mov    rcx,rdx
  408c34:	48 29 c1             	sub    rcx,rax
  408c37:	48 89 4c 24 38       	mov    QWORD PTR [rsp+0x38],rcx
  408c3c:	48 8b 84 24 20 01 00 	mov    rax,QWORD PTR [rsp+0x120]
  408c43:	00 
  408c44:	48 8d 04 10          	lea    rax,[rax+rdx*1]
  408c48:	48 89 84 24 48 01 00 	mov    QWORD PTR [rsp+0x148],rax
  408c4f:	00 
  408c50:	48 8b 84 24 90 00 00 	mov    rax,QWORD PTR [rsp+0x90]
  408c57:	00 
  408c58:	48 8d 04 10          	lea    rax,[rax+rdx*1]
  408c5c:	48 89 84 24 f0 00 00 	mov    QWORD PTR [rsp+0xf0],rax
  408c63:	00 
  408c64:	48 8b 84 24 28 01 00 	mov    rax,QWORD PTR [rsp+0x128]
  408c6b:	00 
  408c6c:	48 8d 04 10          	lea    rax,[rax+rdx*1]
  408c70:	48 89 84 24 30 01 00 	mov    QWORD PTR [rsp+0x130],rax
  408c77:	00 
  408c78:	48 8b 84 24 a0 00 00 	mov    rax,QWORD PTR [rsp+0xa0]
  408c7f:	00 
  408c80:	48 8d 04 10          	lea    rax,[rax+rdx*1]
  408c84:	48 89 84 24 68 01 00 	mov    QWORD PTR [rsp+0x168],rax
  408c8b:	00 
  408c8c:	48 8b 84 24 d8 00 00 	mov    rax,QWORD PTR [rsp+0xd8]
  408c93:	00 
  408c94:	48 89 54 24 10       	mov    QWORD PTR [rsp+0x10],rdx
  408c99:	48 8d 04 10          	lea    rax,[rax+rdx*1]
  408c9d:	48 89 84 24 70 01 00 	mov    QWORD PTR [rsp+0x170],rax
  408ca4:	00 
  408ca5:	4c 8b 6c 24 40       	mov    r13,QWORD PTR [rsp+0x40]
  408caa:	45 31 ff             	xor    r15d,r15d
  408cad:	4d 89 f4             	mov    r12,r14
  408cb0:	e9 bb 00 00 00       	jmp    408d70 <fwrite@plt+0x7c10>
  408cb5:	48 8b 5c 24 48       	mov    rbx,QWORD PTR [rsp+0x48]
  408cba:	66 0f 1f 44 00 00    	nop    WORD PTR [rax+rax*1+0x0]
  408cc0:	48 8b 44 24 20       	mov    rax,QWORD PTR [rsp+0x20]
  408cc5:	48 8d 34 03          	lea    rsi,[rbx+rax*1]
  408cc9:	48 89 df             	mov    rdi,rbx
  408ccc:	c5 f8 77             	vzeroupper 
  408ccf:	ff 54 24 30          	call   QWORD PTR [rsp+0x30]
  408cd3:	4c 8b 54 24 18       	mov    r10,QWORD PTR [rsp+0x18]
  408cd8:	85 c0                	test   eax,eax
  408cda:	0f 8e a0 05 00 00    	jle    409280 <fwrite@plt+0x8120>
  408ce0:	48 8b 54 24 20       	mov    rdx,QWORD PTR [rsp+0x20]
  408ce5:	48 8b 04 13          	mov    rax,QWORD PTR [rbx+rdx*1]
  408ce9:	48 8b 0b             	mov    rcx,QWORD PTR [rbx]
  408cec:	48 89 0c 13          	mov    QWORD PTR [rbx+rdx*1],rcx
  408cf0:	48 89 03             	mov    QWORD PTR [rbx],rax
  408cf3:	48 03 5c 24 50       	add    rbx,QWORD PTR [rsp+0x50]
  408cf8:	48 8d 04 13          	lea    rax,[rbx+rdx*1]
  408cfc:	4c 39 d0             	cmp    rax,r10
  408cff:	77 bf                	ja     408cc0 <fwrite@plt+0x7b60>
  408d01:	e9 7a 05 00 00       	jmp    409280 <fwrite@plt+0x8120>
  408d06:	31 c0                	xor    eax,eax
  408d08:	48 83 bc 24 e8 00 00 	cmp    QWORD PTR [rsp+0xe8],0x0
  408d0f:	00 00 
  408d11:	0f 85 c4 02 00 00    	jne    408fdb <fwrite@plt+0x7e7b>
  408d17:	e9 f1 02 00 00       	jmp    40900d <fwrite@plt+0x7ead>
  408d1c:	48 8b 84 24 58 01 00 	mov    rax,QWORD PTR [rsp+0x158]
  408d23:	00 
  408d24:	48 01 c5             	add    rbp,rax
  408d27:	49 8d 34 04          	lea    rsi,[r12+rax*1]
  408d2b:	48 8b 84 24 80 01 00 	mov    rax,QWORD PTR [rsp+0x180]
  408d32:	00 
  408d33:	e9 c7 01 00 00       	jmp    408eff <fwrite@plt+0x7d9f>
  408d38:	31 c0                	xor    eax,eax
  408d3a:	48 83 bc 24 c0 00 00 	cmp    QWORD PTR [rsp+0xc0],0x0
  408d41:	00 00 
  408d43:	0f 85 94 03 00 00    	jne    4090dd <fwrite@plt+0x7f7d>
  408d49:	e9 c1 03 00 00       	jmp    40910f <fwrite@plt+0x7faf>
  408d4e:	31 c0                	xor    eax,eax
  408d50:	48 83 bc 24 c8 00 00 	cmp    QWORD PTR [rsp+0xc8],0x0
  408d57:	00 00 
  408d59:	0f 85 7e 04 00 00    	jne    4091dd <fwrite@plt+0x807d>
  408d5f:	e9 ab 04 00 00       	jmp    40920f <fwrite@plt+0x80af>
  408d64:	66 2e 0f 1f 84 00 00 	cs nop WORD PTR [rax+rax*1+0x0]
  408d6b:	00 00 00 
  408d6e:	66 90                	xchg   ax,ax
  408d70:	4c 89 e5             	mov    rbp,r12
  408d73:	48 8b 44 24 50       	mov    rax,QWORD PTR [rsp+0x50]
  408d78:	4d 8d 24 04          	lea    r12,[r12+rax*1]
  408d7c:	4c 89 e7             	mov    rdi,r12
  408d7f:	48 89 ee             	mov    rsi,rbp
  408d82:	c5 f8 77             	vzeroupper 
  408d85:	ff 54 24 30          	call   QWORD PTR [rsp+0x30]
  408d89:	4c 8b 54 24 18       	mov    r10,QWORD PTR [rsp+0x18]
  408d8e:	85 c0                	test   eax,eax
  408d90:	0f 8e ea 04 00 00    	jle    409280 <fwrite@plt+0x8120>
  408d96:	4c 89 f8             	mov    rax,r15
  408d99:	48 0f af 44 24 50    	imul   rax,QWORD PTR [rsp+0x50]
  408d9f:	48 8b 4c 24 10       	mov    rcx,QWORD PTR [rsp+0x10]
  408da4:	48 8d 14 01          	lea    rdx,[rcx+rax*1]
  408da8:	48 8b 9c 24 78 01 00 	mov    rbx,QWORD PTR [rsp+0x178]
  408daf:	00 
  408db0:	48 01 da             	add    rdx,rbx
  408db3:	48 8b 4c 24 38       	mov    rcx,QWORD PTR [rsp+0x38]
  408db8:	48 8d 0c 01          	lea    rcx,[rcx+rax*1]
  408dbc:	48 01 d9             	add    rcx,rbx
  408dbf:	f6 44 24 0f 01       	test   BYTE PTR [rsp+0xf],0x1
  408dc4:	74 7a                	je     408e40 <fwrite@plt+0x7ce0>
  408dc6:	48 83 7c 24 58 08    	cmp    QWORD PTR [rsp+0x58],0x8
  408dcc:	72 2c                	jb     408dfa <fwrite@plt+0x7c9a>
  408dce:	48 8b b4 24 70 01 00 	mov    rsi,QWORD PTR [rsp+0x170]
  408dd5:	00 
  408dd6:	48 8d 34 06          	lea    rsi,[rsi+rax*1]
  408dda:	48 01 de             	add    rsi,rbx
  408ddd:	48 39 f2             	cmp    rdx,rsi
  408de0:	0f 83 4d 01 00 00    	jae    408f33 <fwrite@plt+0x7dd3>
  408de6:	48 03 84 24 68 01 00 	add    rax,QWORD PTR [rsp+0x168]
  408ded:	00 
  408dee:	48 01 d8             	add    rax,rbx
  408df1:	48 39 c1             	cmp    rcx,rax
  408df4:	0f 83 39 01 00 00    	jae    408f33 <fwrite@plt+0x7dd3>
  408dfa:	4c 89 e0             	mov    rax,r12
  408dfd:	48 8b 8c 24 88 00 00 	mov    rcx,QWORD PTR [rsp+0x88]
  408e04:	00 
  408e05:	48 83 c1 01          	add    rcx,0x1
  408e09:	31 d2                	xor    edx,edx
  408e0b:	0f 1f 44 00 00       	nop    DWORD PTR [rax+rax*1+0x0]
  408e10:	48 8b 74 15 00       	mov    rsi,QWORD PTR [rbp+rdx*1+0x0]
  408e15:	48 8b 3c 10          	mov    rdi,QWORD PTR [rax+rdx*1]
  408e19:	48 89 7c 15 00       	mov    QWORD PTR [rbp+rdx*1+0x0],rdi
  408e1e:	48 89 34 10          	mov    QWORD PTR [rax+rdx*1],rsi
  408e22:	48 83 c2 08          	add    rdx,0x8
  408e26:	48 83 c1 ff          	add    rcx,0xffffffffffffffff
  408e2a:	48 83 f9 01          	cmp    rcx,0x1
  408e2e:	7f e0                	jg     408e10 <fwrite@plt+0x7cb0>
  408e30:	e9 eb 03 00 00       	jmp    409220 <fwrite@plt+0x80c0>
  408e35:	66 2e 0f 1f 84 00 00 	cs nop WORD PTR [rax+rax*1+0x0]
  408e3c:	00 00 00 
  408e3f:	90                   	nop
  408e40:	f6 44 24 0e 01       	test   BYTE PTR [rsp+0xe],0x1
  408e45:	74 79                	je     408ec0 <fwrite@plt+0x7d60>
  408e47:	48 83 bc 24 80 00 00 	cmp    QWORD PTR [rsp+0x80],0x10
  408e4e:	00 10 
  408e50:	72 2c                	jb     408e7e <fwrite@plt+0x7d1e>
  408e52:	48 8b b4 24 30 01 00 	mov    rsi,QWORD PTR [rsp+0x130]
  408e59:	00 
  408e5a:	48 8d 34 06          	lea    rsi,[rsi+rax*1]
  408e5e:	48 01 de             	add    rsi,rbx
  408e61:	48 39 f2             	cmp    rdx,rsi
  408e64:	0f 83 d4 01 00 00    	jae    40903e <fwrite@plt+0x7ede>
  408e6a:	48 03 84 24 f0 00 00 	add    rax,QWORD PTR [rsp+0xf0]
  408e71:	00 
  408e72:	48 01 d8             	add    rax,rbx
  408e75:	48 39 c1             	cmp    rcx,rax
  408e78:	0f 83 c0 01 00 00    	jae    40903e <fwrite@plt+0x7ede>
  408e7e:	48 8b 44 24 78       	mov    rax,QWORD PTR [rsp+0x78]
  408e83:	4c 89 e1             	mov    rcx,r12
  408e86:	48 83 c0 01          	add    rax,0x1
  408e8a:	31 d2                	xor    edx,edx
  408e8c:	0f 1f 40 00          	nop    DWORD PTR [rax+0x0]
  408e90:	8b 74 15 00          	mov    esi,DWORD PTR [rbp+rdx*1+0x0]
  408e94:	8b 3c 11             	mov    edi,DWORD PTR [rcx+rdx*1]
  408e97:	89 7c 15 00          	mov    DWORD PTR [rbp+rdx*1+0x0],edi
  408e9b:	89 34 11             	mov    DWORD PTR [rcx+rdx*1],esi
  408e9e:	48 83 c0 ff          	add    rax,0xffffffffffffffff
  408ea2:	48 83 c2 04          	add    rdx,0x4
  408ea6:	48 83 f8 01          	cmp    rax,0x1
  408eaa:	7f e4                	jg     408e90 <fwrite@plt+0x7d30>
  408eac:	e9 6f 03 00 00       	jmp    409220 <fwrite@plt+0x80c0>
  408eb1:	66 2e 0f 1f 84 00 00 	cs nop WORD PTR [rax+rax*1+0x0]
  408eb8:	00 00 00 
  408ebb:	0f 1f 44 00 00       	nop    DWORD PTR [rax+rax*1+0x0]
  408ec0:	48 8b 7c 24 60       	mov    rdi,QWORD PTR [rsp+0x60]
  408ec5:	48 83 ff 3f          	cmp    rdi,0x3f
  408ec9:	76 2c                	jbe    408ef7 <fwrite@plt+0x7d97>
  408ecb:	48 8b b4 24 48 01 00 	mov    rsi,QWORD PTR [rsp+0x148]
  408ed2:	00 
  408ed3:	48 8d 34 06          	lea    rsi,[rsi+rax*1]
  408ed7:	48 01 de             	add    rsi,rbx
  408eda:	48 39 f2             	cmp    rdx,rsi
  408edd:	0f 83 60 02 00 00    	jae    409143 <fwrite@plt+0x7fe3>
  408ee3:	48 03 84 24 08 01 00 	add    rax,QWORD PTR [rsp+0x108]
  408eea:	00 
  408eeb:	48 01 d8             	add    rax,rbx
  408eee:	48 39 c1             	cmp    rcx,rax
  408ef1:	0f 83 4c 02 00 00    	jae    409143 <fwrite@plt+0x7fe3>
  408ef7:	48 8b 44 24 70       	mov    rax,QWORD PTR [rsp+0x70]
  408efc:	4c 89 e6             	mov    rsi,r12
  408eff:	48 83 c0 01          	add    rax,0x1
  408f03:	31 d2                	xor    edx,edx
  408f05:	66 2e 0f 1f 84 00 00 	cs nop WORD PTR [rax+rax*1+0x0]
  408f0c:	00 00 00 
  408f0f:	90                   	nop
  408f10:	0f b6 5c 15 00       	movzx  ebx,BYTE PTR [rbp+rdx*1+0x0]
  408f15:	0f b6 0c 16          	movzx  ecx,BYTE PTR [rsi+rdx*1]
  408f19:	88 4c 15 00          	mov    BYTE PTR [rbp+rdx*1+0x0],cl
  408f1d:	88 1c 16             	mov    BYTE PTR [rsi+rdx*1],bl
  408f20:	48 83 c0 ff          	add    rax,0xffffffffffffffff
  408f24:	48 83 c2 01          	add    rdx,0x1
  408f28:	48 83 f8 01          	cmp    rax,0x1
  408f2c:	7f e2                	jg     408f10 <fwrite@plt+0x7db0>
  408f2e:	e9 ed 02 00 00       	jmp    409220 <fwrite@plt+0x80c0>
  408f33:	48 83 bc 24 18 01 00 	cmp    QWORD PTR [rsp+0x118],0x0
  408f3a:	00 00 
  408f3c:	0f 84 c4 fd ff ff    	je     408d06 <fwrite@plt+0x7ba6>
  408f42:	48 8b 44 24 20       	mov    rax,QWORD PTR [rsp+0x20]
  408f47:	4a 8d 0c 28          	lea    rcx,[rax+r13*1]
  408f4b:	48 8b 94 24 e0 00 00 	mov    rdx,QWORD PTR [rsp+0xe0]
  408f52:	00 
  408f53:	31 c0                	xor    eax,eax
  408f55:	66 2e 0f 1f 84 00 00 	cs nop WORD PTR [rax+rax*1+0x0]
  408f5c:	00 00 00 
  408f5f:	90                   	nop
  408f60:	c5 fc 10 44 c1 a0    	vmovups ymm0,YMMWORD PTR [rcx+rax*8-0x60]
  408f66:	c5 fc 10 4c c1 c0    	vmovups ymm1,YMMWORD PTR [rcx+rax*8-0x40]
  408f6c:	c4 c1 7c 10 54 c5 a0 	vmovups ymm2,YMMWORD PTR [r13+rax*8-0x60]
  408f73:	c4 c1 7c 10 5c c5 c0 	vmovups ymm3,YMMWORD PTR [r13+rax*8-0x40]
  408f7a:	c5 fc 11 54 c1 a0    	vmovups YMMWORD PTR [rcx+rax*8-0x60],ymm2
  408f80:	c5 fc 11 5c c1 c0    	vmovups YMMWORD PTR [rcx+rax*8-0x40],ymm3
  408f86:	c4 c1 7c 11 44 c5 a0 	vmovups YMMWORD PTR [r13+rax*8-0x60],ymm0
  408f8d:	c4 c1 7c 11 4c c5 c0 	vmovups YMMWORD PTR [r13+rax*8-0x40],ymm1
  408f94:	c5 fe 6f 44 c1 e0    	vmovdqu ymm0,YMMWORD PTR [rcx+rax*8-0x20]
  408f9a:	c5 fe 6f 0c c1       	vmovdqu ymm1,YMMWORD PTR [rcx+rax*8]
  408f9f:	c4 c1 7e 6f 54 c5 e0 	vmovdqu ymm2,YMMWORD PTR [r13+rax*8-0x20]
  408fa6:	c4 c1 7e 6f 5c c5 00 	vmovdqu ymm3,YMMWORD PTR [r13+rax*8+0x0]
  408fad:	c5 fe 7f 54 c1 e0    	vmovdqu YMMWORD PTR [rcx+rax*8-0x20],ymm2
  408fb3:	c5 fe 7f 1c c1       	vmovdqu YMMWORD PTR [rcx+rax*8],ymm3
  408fb8:	c4 c1 7e 7f 44 c5 e0 	vmovdqu YMMWORD PTR [r13+rax*8-0x20],ymm0
  408fbf:	c4 c1 7e 7f 4c c5 00 	vmovdqu YMMWORD PTR [r13+rax*8+0x0],ymm1
  408fc6:	48 83 c0 10          	add    rax,0x10
  408fca:	48 83 c2 02          	add    rdx,0x2
  408fce:	75 90                	jne    408f60 <fwrite@plt+0x7e00>
  408fd0:	48 83 bc 24 e8 00 00 	cmp    QWORD PTR [rsp+0xe8],0x0
  408fd7:	00 00 
  408fd9:	74 32                	je     40900d <fwrite@plt+0x7ead>
  408fdb:	c5 fe 6f 44 c5 00    	vmovdqu ymm0,YMMWORD PTR [rbp+rax*8+0x0]
  408fe1:	c5 fe 6f 4c c5 20    	vmovdqu ymm1,YMMWORD PTR [rbp+rax*8+0x20]
  408fe7:	c4 c1 7e 6f 14 c4    	vmovdqu ymm2,YMMWORD PTR [r12+rax*8]
  408fed:	c4 c1 7e 6f 5c c4 20 	vmovdqu ymm3,YMMWORD PTR [r12+rax*8+0x20]
  408ff4:	c5 fe 7f 54 c5 00    	vmovdqu YMMWORD PTR [rbp+rax*8+0x0],ymm2
  408ffa:	c5 fe 7f 5c c5 20    	vmovdqu YMMWORD PTR [rbp+rax*8+0x20],ymm3
  409000:	c4 c1 7e 7f 04 c4    	vmovdqu YMMWORD PTR [r12+rax*8],ymm0
  409006:	c4 c1 7e 7f 4c c4 20 	vmovdqu YMMWORD PTR [r12+rax*8+0x20],ymm1
  40900d:	48 8b 84 24 10 01 00 	mov    rax,QWORD PTR [rsp+0x110]
  409014:	00 
  409015:	48 39 44 24 58       	cmp    QWORD PTR [rsp+0x58],rax
  40901a:	0f 84 00 02 00 00    	je     409220 <fwrite@plt+0x80c0>
  409020:	48 8b 8c 24 40 01 00 	mov    rcx,QWORD PTR [rsp+0x140]
  409027:	00 
  409028:	49 8d 04 cc          	lea    rax,[r12+rcx*8]
  40902c:	48 8d 6c cd 00       	lea    rbp,[rbp+rcx*8+0x0]
  409031:	48 8b 8c 24 b8 00 00 	mov    rcx,QWORD PTR [rsp+0xb8]
  409038:	00 
  409039:	e9 c7 fd ff ff       	jmp    408e05 <fwrite@plt+0x7ca5>
  40903e:	48 83 bc 24 60 01 00 	cmp    QWORD PTR [rsp+0x160],0x0
  409045:	00 00 
  409047:	0f 84 eb fc ff ff    	je     408d38 <fwrite@plt+0x7bd8>
  40904d:	48 8b 8c 24 a8 00 00 	mov    rcx,QWORD PTR [rsp+0xa8]
  409054:	00 
  409055:	31 c0                	xor    eax,eax
  409057:	66 0f 1f 84 00 00 00 	nop    WORD PTR [rax+rax*1+0x0]
  40905e:	00 00 
  409060:	c5 fc 10 44 85 00    	vmovups ymm0,YMMWORD PTR [rbp+rax*4+0x0]
  409066:	c5 fc 10 4c 85 20    	vmovups ymm1,YMMWORD PTR [rbp+rax*4+0x20]
  40906c:	c4 c1 7c 10 54 85 a0 	vmovups ymm2,YMMWORD PTR [r13+rax*4-0x60]
  409073:	c4 c1 7c 10 5c 85 c0 	vmovups ymm3,YMMWORD PTR [r13+rax*4-0x40]
  40907a:	c5 fc 11 54 85 00    	vmovups YMMWORD PTR [rbp+rax*4+0x0],ymm2
  409080:	c5 fc 11 5c 85 20    	vmovups YMMWORD PTR [rbp+rax*4+0x20],ymm3
  409086:	c4 c1 7c 11 44 85 a0 	vmovups YMMWORD PTR [r13+rax*4-0x60],ymm0
  40908d:	c4 c1 7c 11 4c 85 c0 	vmovups YMMWORD PTR [r13+rax*4-0x40],ymm1
  409094:	c5 fe 6f 44 85 40    	vmovdqu ymm0,YMMWORD PTR [rbp+rax*4+0x40]
  40909a:	c5 fe 6f 4c 85 60    	vmovdqu ymm1,YMMWORD PTR [rbp+rax*4+0x60]
  4090a0:	c4 c1 7e 6f 54 85 e0 	vmovdqu ymm2,YMMWORD PTR [r13+rax*4-0x20]
  4090a7:	c4 c1 7e 6f 5c 85 00 	vmovdqu ymm3,YMMWORD PTR [r13+rax*4+0x0]
  4090ae:	c5 fe 7f 54 85 40    	vmovdqu YMMWORD PTR [rbp+rax*4+0x40],ymm2
  4090b4:	c5 fe 7f 5c 85 60    	vmovdqu YMMWORD PTR [rbp+rax*4+0x60],ymm3
  4090ba:	c4 c1 7e 7f 44 85 e0 	vmovdqu YMMWORD PTR [r13+rax*4-0x20],ymm0
  4090c1:	c4 c1 7e 7f 4c 85 00 	vmovdqu YMMWORD PTR [r13+rax*4+0x0],ymm1
  4090c8:	48 83 c0 20          	add    rax,0x20
  4090cc:	48 83 c1 02          	add    rcx,0x2
  4090d0:	75 8e                	jne    409060 <fwrite@plt+0x7f00>
  4090d2:	48 83 bc 24 c0 00 00 	cmp    QWORD PTR [rsp+0xc0],0x0
  4090d9:	00 00 
  4090db:	74 32                	je     40910f <fwrite@plt+0x7faf>
  4090dd:	c5 fe 6f 44 85 00    	vmovdqu ymm0,YMMWORD PTR [rbp+rax*4+0x0]
  4090e3:	c5 fe 6f 4c 85 20    	vmovdqu ymm1,YMMWORD PTR [rbp+rax*4+0x20]
  4090e9:	c4 c1 7e 6f 14 84    	vmovdqu ymm2,YMMWORD PTR [r12+rax*4]
  4090ef:	c4 c1 7e 6f 5c 84 20 	vmovdqu ymm3,YMMWORD PTR [r12+rax*4+0x20]
  4090f6:	c5 fe 7f 54 85 00    	vmovdqu YMMWORD PTR [rbp+rax*4+0x0],ymm2
  4090fc:	c5 fe 7f 5c 85 20    	vmovdqu YMMWORD PTR [rbp+rax*4+0x20],ymm3
  409102:	c4 c1 7e 7f 04 84    	vmovdqu YMMWORD PTR [r12+rax*4],ymm0
  409108:	c4 c1 7e 7f 4c 84 20 	vmovdqu YMMWORD PTR [r12+rax*4+0x20],ymm1
  40910f:	48 8b 84 24 00 01 00 	mov    rax,QWORD PTR [rsp+0x100]
  409116:	00 
  409117:	48 39 84 24 80 00 00 	cmp    QWORD PTR [rsp+0x80],rax
  40911e:	00 
  40911f:	0f 84 fb 00 00 00    	je     409220 <fwrite@plt+0x80c0>
  409125:	48 8b 84 24 38 01 00 	mov    rax,QWORD PTR [rsp+0x138]
  40912c:	00 
  40912d:	48 8d 6c 85 00       	lea    rbp,[rbp+rax*4+0x0]
  409132:	49 8d 0c 84          	lea    rcx,[r12+rax*4]
  409136:	48 8b 84 24 50 01 00 	mov    rax,QWORD PTR [rsp+0x150]
  40913d:	00 
  40913e:	e9 43 fd ff ff       	jmp    408e86 <fwrite@plt+0x7d26>
  409143:	48 83 bc 24 d0 00 00 	cmp    QWORD PTR [rsp+0xd0],0x0
  40914a:	00 00 
  40914c:	0f 84 fc fb ff ff    	je     408d4e <fwrite@plt+0x7bee>
  409152:	48 8b 8c 24 b0 00 00 	mov    rcx,QWORD PTR [rsp+0xb0]
  409159:	00 
  40915a:	31 c0                	xor    eax,eax
  40915c:	0f 1f 40 00          	nop    DWORD PTR [rax+0x0]
  409160:	c5 fc 10 44 05 00    	vmovups ymm0,YMMWORD PTR [rbp+rax*1+0x0]
  409166:	c5 fc 10 4c 05 20    	vmovups ymm1,YMMWORD PTR [rbp+rax*1+0x20]
  40916c:	c4 c1 7c 10 54 05 a0 	vmovups ymm2,YMMWORD PTR [r13+rax*1-0x60]
  409173:	c4 c1 7c 10 5c 05 c0 	vmovups ymm3,YMMWORD PTR [r13+rax*1-0x40]
  40917a:	c5 fc 11 54 05 00    	vmovups YMMWORD PTR [rbp+rax*1+0x0],ymm2
  409180:	c5 fc 11 5c 05 20    	vmovups YMMWORD PTR [rbp+rax*1+0x20],ymm3
  409186:	c4 c1 7c 11 44 05 a0 	vmovups YMMWORD PTR [r13+rax*1-0x60],ymm0
  40918d:	c4 c1 7c 11 4c 05 c0 	vmovups YMMWORD PTR [r13+rax*1-0x40],ymm1
  409194:	c5 fe 6f 44 05 40    	vmovdqu ymm0,YMMWORD PTR [rbp+rax*1+0x40]
  40919a:	c5 fe 6f 4c 05 60    	vmovdqu ymm1,YMMWORD PTR [rbp+rax*1+0x60]
  4091a0:	c4 c1 7e 6f 54 05 e0 	vmovdqu ymm2,YMMWORD PTR [r13+rax*1-0x20]
  4091a7:	c4 c1 7e 6f 5c 05 00 	vmovdqu ymm3,YMMWORD PTR [r13+rax*1+0x0]
  4091ae:	c5 fe 7f 54 05 40    	vmovdqu YMMWORD PTR [rbp+rax*1+0x40],ymm2
  4091b4:	c5 fe 7f 5c 05 60    	vmovdqu YMMWORD PTR [rbp+rax*1+0x60],ymm3
  4091ba:	c4 c1 7e 7f 44 05 e0 	vmovdqu YMMWORD PTR [r13+rax*1-0x20],ymm0
  4091c1:	c4 c1 7e 7f 4c 05 00 	vmovdqu YMMWORD PTR [r13+rax*1+0x0],ymm1
  4091c8:	48 83 e8 80          	sub    rax,0xffffffffffffff80
  4091cc:	48 83 c1 02          	add    rcx,0x2
  4091d0:	75 8e                	jne    409160 <fwrite@plt+0x8000>
  4091d2:	48 83 bc 24 c8 00 00 	cmp    QWORD PTR [rsp+0xc8],0x0
  4091d9:	00 00 
  4091db:	74 32                	je     40920f <fwrite@plt+0x80af>
  4091dd:	c5 fe 6f 44 05 00    	vmovdqu ymm0,YMMWORD PTR [rbp+rax*1+0x0]
  4091e3:	c5 fe 6f 4c 05 20    	vmovdqu ymm1,YMMWORD PTR [rbp+rax*1+0x20]
  4091e9:	c4 c1 7e 6f 14 04    	vmovdqu ymm2,YMMWORD PTR [r12+rax*1]
  4091ef:	c4 c1 7e 6f 5c 04 20 	vmovdqu ymm3,YMMWORD PTR [r12+rax*1+0x20]
  4091f6:	c5 fe 7f 54 05 00    	vmovdqu YMMWORD PTR [rbp+rax*1+0x0],ymm2
  4091fc:	c5 fe 7f 5c 05 20    	vmovdqu YMMWORD PTR [rbp+rax*1+0x20],ymm3
  409202:	c4 c1 7e 7f 04 04    	vmovdqu YMMWORD PTR [r12+rax*1],ymm0
  409208:	c4 c1 7e 7f 4c 04 20 	vmovdqu YMMWORD PTR [r12+rax*1+0x20],ymm1
  40920f:	48 3b bc 24 f8 00 00 	cmp    rdi,QWORD PTR [rsp+0xf8]
  409216:	00 
  409217:	0f 85 ff fa ff ff    	jne    408d1c <fwrite@plt+0x7bbc>
  40921d:	0f 1f 00             	nop    DWORD PTR [rax]
  409220:	49 83 c7 01          	add    r15,0x1
  409224:	4c 03 6c 24 50       	add    r13,QWORD PTR [rsp+0x50]
  409229:	4d 39 d4             	cmp    r12,r10
  40922c:	0f 87 3e fb ff ff    	ja     408d70 <fwrite@plt+0x7c10>
  409232:	eb 4c                	jmp    409280 <fwrite@plt+0x8120>
  409234:	48 8b 5c 24 48       	mov    rbx,QWORD PTR [rsp+0x48]
  409239:	0f 1f 80 00 00 00 00 	nop    DWORD PTR [rax+0x0]
  409240:	48 8b 44 24 20       	mov    rax,QWORD PTR [rsp+0x20]
  409245:	48 8d 34 03          	lea    rsi,[rbx+rax*1]
  409249:	48 89 df             	mov    rdi,rbx
  40924c:	c5 f8 77             	vzeroupper 
  40924f:	ff 54 24 30          	call   QWORD PTR [rsp+0x30]
  409253:	4c 8b 54 24 18       	mov    r10,QWORD PTR [rsp+0x18]
  409258:	85 c0                	test   eax,eax
  40925a:	7e 24                	jle    409280 <fwrite@plt+0x8120>
  40925c:	48 8b 54 24 20       	mov    rdx,QWORD PTR [rsp+0x20]
  409261:	8b 04 13             	mov    eax,DWORD PTR [rbx+rdx*1]
  409264:	8b 0b                	mov    ecx,DWORD PTR [rbx]
  409266:	89 0c 13             	mov    DWORD PTR [rbx+rdx*1],ecx
  409269:	89 03                	mov    DWORD PTR [rbx],eax
  40926b:	48 03 5c 24 50       	add    rbx,QWORD PTR [rsp+0x50]
  409270:	48 8d 04 13          	lea    rax,[rbx+rdx*1]
  409274:	4c 39 d0             	cmp    rax,r10
  409277:	77 c7                	ja     409240 <fwrite@plt+0x80e0>
  409279:	0f 1f 80 00 00 00 00 	nop    DWORD PTR [rax+0x0]
  409280:	48 8b 44 24 20       	mov    rax,QWORD PTR [rsp+0x20]
  409285:	49 01 c6             	add    r14,rax
  409288:	48 83 84 24 98 00 00 	add    QWORD PTR [rsp+0x98],0x1
  40928f:	00 01 
  409291:	48 01 44 24 40       	add    QWORD PTR [rsp+0x40],rax
  409296:	48 01 44 24 48       	add    QWORD PTR [rsp+0x48],rax
  40929b:	4c 3b 74 24 28       	cmp    r14,QWORD PTR [rsp+0x28]
  4092a0:	0f 82 4a f9 ff ff    	jb     408bf0 <fwrite@plt+0x7a90>
  4092a6:	48 81 c4 98 01 00 00 	add    rsp,0x198
  4092ad:	5b                   	pop    rbx
  4092ae:	41 5c                	pop    r12
  4092b0:	41 5d                	pop    r13
  4092b2:	41 5e                	pop    r14
  4092b4:	41 5f                	pop    r15
  4092b6:	5d                   	pop    rbp
  4092b7:	c5 f8 77             	vzeroupper 
  4092ba:	c3                   	ret    
  4092bb:	0f 1f 44 00 00       	nop    DWORD PTR [rax+rax*1+0x0]
  4092c0:	f3 0f 1e fa          	endbr64 
  4092c4:	41 57                	push   r15
  4092c6:	4c 8d 3d 23 3b 00 00 	lea    r15,[rip+0x3b23]        # 40cdf0 <fwrite@plt+0xbc90>
  4092cd:	41 56                	push   r14
  4092cf:	49 89 d6             	mov    r14,rdx
  4092d2:	41 55                	push   r13
  4092d4:	49 89 f5             	mov    r13,rsi
  4092d7:	41 54                	push   r12
  4092d9:	41 89 fc             	mov    r12d,edi
  4092dc:	55                   	push   rbp
  4092dd:	48 8d 2d 14 3b 00 00 	lea    rbp,[rip+0x3b14]        # 40cdf8 <fwrite@plt+0xbc98>
  4092e4:	53                   	push   rbx
  4092e5:	4c 29 fd             	sub    rbp,r15
  4092e8:	48 83 ec 08          	sub    rsp,0x8
  4092ec:	e8 0f 7d ff ff       	call   401000 <free@plt-0x30>
  4092f1:	48 c1 fd 03          	sar    rbp,0x3
  4092f5:	74 1f                	je     409316 <fwrite@plt+0x81b6>
  4092f7:	31 db                	xor    ebx,ebx
  4092f9:	0f 1f 80 00 00 00 00 	nop    DWORD PTR [rax+0x0]
  409300:	4c 89 f2             	mov    rdx,r14
  409303:	4c 89 ee             	mov    rsi,r13
  409306:	44 89 e7             	mov    edi,r12d
  409309:	41 ff 14 df          	call   QWORD PTR [r15+rbx*8]
  40930d:	48 83 c3 01          	add    rbx,0x1
  409311:	48 39 dd             	cmp    rbp,rbx
  409314:	75 ea                	jne    409300 <fwrite@plt+0x81a0>
  409316:	48 83 c4 08          	add    rsp,0x8
  40931a:	5b                   	pop    rbx
  40931b:	5d                   	pop    rbp
  40931c:	41 5c                	pop    r12
  40931e:	41 5d                	pop    r13
  409320:	41 5e                	pop    r14
  409322:	41 5f                	pop    r15
  409324:	c3                   	ret    
  409325:	66 66 2e 0f 1f 84 00 	data16 cs nop WORD PTR [rax+rax*1+0x0]
  40932c:	00 00 00 00 
  409330:	f3 0f 1e fa          	endbr64 
  409334:	c3                   	ret    

Disassembly of section .fini:

0000000000409338 <.fini>:
  409338:	f3 0f 1e fa          	endbr64 
  40933c:	48 83 ec 08          	sub    rsp,0x8
  409340:	48 83 c4 08          	add    rsp,0x8
  409344:	c3                   	ret    
